	.file	"aead_chacha20poly1305.c"
	.file	0 "/home/leizhenyuu/opt/Anonymous_Repo/libsodium_o2_attr_inline/src/libsodium" "aead_chacha20poly1305.c" md5 0x24d7e2bf3aa8bda0965243273aa71b0f
	.file	1 "crypto_aead/chacha20poly1305" "aead_chacha20poly1305.c"
	.file	2 "/usr/include/x86_64-linux-gnu/bits" "types.h"
	.file	3 "/usr/include/x86_64-linux-gnu/bits" "stdint-uintn.h"
	.text
	.globl	crypto_aead_chacha20poly1305_encrypt_detached # -- Begin function crypto_aead_chacha20poly1305_encrypt_detached
	.p2align	4
	.type	crypto_aead_chacha20poly1305_encrypt_detached,@function
crypto_aead_chacha20poly1305_encrypt_detached: # @crypto_aead_chacha20poly1305_encrypt_detached
.Lfunc_begin0:
	.loc	1 31 0                          # crypto_aead/chacha20poly1305/aead_chacha20poly1305.c:31:0
	.cfi_startproc
# %bb.0:
	#DEBUG_VALUE: crypto_aead_chacha20poly1305_encrypt_detached:c <- $rdi
	#DEBUG_VALUE: crypto_aead_chacha20poly1305_encrypt_detached:mac <- $rsi
	#DEBUG_VALUE: crypto_aead_chacha20poly1305_encrypt_detached:maclen_p <- $rdx
	#DEBUG_VALUE: crypto_aead_chacha20poly1305_encrypt_detached:m <- $rcx
	#DEBUG_VALUE: crypto_aead_chacha20poly1305_encrypt_detached:mlen <- $r8
	#DEBUG_VALUE: crypto_aead_chacha20poly1305_encrypt_detached:ad <- $r9
	pushq	%rbp
	.cfi_def_cfa_offset 16
	pushq	%r15
	.cfi_def_cfa_offset 24
	pushq	%r14
	.cfi_def_cfa_offset 32
	pushq	%r13
	.cfi_def_cfa_offset 40
	pushq	%r12
	.cfi_def_cfa_offset 48
	pushq	%rbx
	.cfi_def_cfa_offset 56
	subq	$360, %rsp                      # imm = 0x168
	.cfi_def_cfa_offset 416
	.cfi_offset %rbx, -56
	.cfi_offset %r12, -48
	.cfi_offset %r13, -40
	.cfi_offset %r14, -32
	.cfi_offset %r15, -24
	.cfi_offset %rbp, -16
.Ltmp0:
	#DEBUG_VALUE: crypto_aead_chacha20poly1305_encrypt_detached:adlen <- [DW_OP_plus_uconst 416] [$rsp+0]
	#DEBUG_VALUE: crypto_aead_chacha20poly1305_encrypt_detached:npub <- [DW_OP_plus_uconst 432] [$rsp+0]
	#DEBUG_VALUE: crypto_aead_chacha20poly1305_encrypt_detached:k <- [DW_OP_plus_uconst 440] [$rsp+0]
	movq	%r9, %r14
	movq	%r8, %r15
	movq	%rcx, (%rsp)                    # 8-byte Spill
.Ltmp1:
	#DEBUG_VALUE: crypto_aead_chacha20poly1305_encrypt_detached:m <- [$rsp+0]
	movq	%rdx, 16(%rsp)                  # 8-byte Spill
.Ltmp2:
	#DEBUG_VALUE: crypto_aead_chacha20poly1305_encrypt_detached:maclen_p <- [DW_OP_plus_uconst 16] [$rsp+0]
	movq	%rsi, 8(%rsp)                   # 8-byte Spill
.Ltmp3:
	#DEBUG_VALUE: crypto_aead_chacha20poly1305_encrypt_detached:mac <- [DW_OP_plus_uconst 8] [$rsp+0]
	movq	%rdi, %r13
	movq	416(%rsp), %rbx
	movq	432(%rsp), %rdx
	movq	440(%rsp), %rcx
	movq	%fs:40, %rax
	movq	%rax, 352(%rsp)
	leaq	32(%rsp), %rbp
.Ltmp4:
	.loc	1 37 5 prologue_end             # crypto_aead/chacha20poly1305/aead_chacha20poly1305.c:37:5
	movl	$64, %esi
	movq	%rbp, %rdi
.Ltmp5:
	#DEBUG_VALUE: crypto_aead_chacha20poly1305_encrypt_detached:c <- $r13
	callq	crypto_stream_chacha20@PLT
.Ltmp6:
	#DEBUG_VALUE: crypto_aead_chacha20poly1305_encrypt_detached:ad <- $r14
	#DEBUG_VALUE: crypto_aead_chacha20poly1305_encrypt_detached:mlen <- $r15
	.loc	1 0 5 is_stmt 0                 # crypto_aead/chacha20poly1305/aead_chacha20poly1305.c:0:5
	leaq	96(%rsp), %r12
	.loc	1 38 5 is_stmt 1                # crypto_aead/chacha20poly1305/aead_chacha20poly1305.c:38:5
	movq	%r12, %rdi
	movq	%rbp, %rsi
	callq	crypto_onetimeauth_poly1305_init@PLT
.Ltmp7:
	.loc	1 39 5                          # crypto_aead/chacha20poly1305/aead_chacha20poly1305.c:39:5
	movl	$64, %esi
	movq	%rbp, %rdi
	callq	sodium_memzero@PLT
.Ltmp8:
	.loc	1 41 5                          # crypto_aead/chacha20poly1305/aead_chacha20poly1305.c:41:5
	movq	%r12, %rdi
	movq	%r14, %rsi
	movq	%rbx, %rdx
	callq	crypto_onetimeauth_poly1305_update@PLT
.Ltmp9:
	#DEBUG_VALUE: store64_le:dst <- [DW_OP_plus_uconst 24, DW_OP_stack_value] $rsp
	#DEBUG_VALUE: memcpy:__dest <- [DW_OP_plus_uconst 24, DW_OP_stack_value] $rsp
	#DEBUG_VALUE: memcpy:__len <- 8
	.file	4 "/usr/include/x86_64-linux-gnu/bits" "string_fortified.h"
	.loc	4 29 10                         # /usr/include/x86_64-linux-gnu/bits/string_fortified.h:29:10 @[ ./include/sodium/private/common.h:87:5 @[ crypto_aead/chacha20poly1305/aead_chacha20poly1305.c:42:5 ] ]
	movq	%rbx, 24(%rsp)
	leaq	24(%rsp), %r14
.Ltmp10:
	#DEBUG_VALUE: crypto_aead_chacha20poly1305_encrypt_detached:ad <- [DW_OP_LLVM_entry_value 1] $r9
	.loc	1 43 5                          # crypto_aead/chacha20poly1305/aead_chacha20poly1305.c:43:5
	movl	$8, %edx
	movq	%r12, %rdi
	movq	%r14, %rsi
	callq	crypto_onetimeauth_poly1305_update@PLT
.Ltmp11:
	.loc	1 45 5                          # crypto_aead/chacha20poly1305/aead_chacha20poly1305.c:45:5
	movl	$1, %r8d
	movq	%r13, %rdi
	movq	(%rsp), %rsi                    # 8-byte Reload
	movq	%r15, %rdx
	movq	432(%rsp), %rcx
	movq	440(%rsp), %r9
	callq	crypto_stream_chacha20_xor_ic@PLT
.Ltmp12:
	.loc	1 47 5                          # crypto_aead/chacha20poly1305/aead_chacha20poly1305.c:47:5
	movq	%r12, %rdi
	movq	%r13, %rsi
	movq	%r15, %rdx
	callq	crypto_onetimeauth_poly1305_update@PLT
.Ltmp13:
	#DEBUG_VALUE: store64_le:dst <- [DW_OP_plus_uconst 24, DW_OP_stack_value] $rsp
	#DEBUG_VALUE: memcpy:__dest <- [DW_OP_plus_uconst 24, DW_OP_stack_value] $rsp
	#DEBUG_VALUE: memcpy:__len <- 8
	.loc	4 29 10                         # /usr/include/x86_64-linux-gnu/bits/string_fortified.h:29:10 @[ ./include/sodium/private/common.h:87:5 @[ crypto_aead/chacha20poly1305/aead_chacha20poly1305.c:48:5 ] ]
	movq	%r15, 24(%rsp)
.Ltmp14:
	.loc	1 49 5                          # crypto_aead/chacha20poly1305/aead_chacha20poly1305.c:49:5
	movl	$8, %edx
	movq	%r12, %rdi
	movq	%r14, %rsi
	callq	crypto_onetimeauth_poly1305_update@PLT
.Ltmp15:
	.loc	1 51 5                          # crypto_aead/chacha20poly1305/aead_chacha20poly1305.c:51:5
	movq	%r12, %rdi
	movq	8(%rsp), %rsi                   # 8-byte Reload
	callq	crypto_onetimeauth_poly1305_final@PLT
.Ltmp16:
	.loc	1 52 5                          # crypto_aead/chacha20poly1305/aead_chacha20poly1305.c:52:5
	movl	$256, %esi                      # imm = 0x100
	movq	%r12, %rdi
	callq	sodium_memzero@PLT
.Ltmp17:
	.loc	1 0 5 is_stmt 0                 # crypto_aead/chacha20poly1305/aead_chacha20poly1305.c:0:5
	movq	16(%rsp), %rax                  # 8-byte Reload
.Ltmp18:
	.loc	1 54 18 is_stmt 1               # crypto_aead/chacha20poly1305/aead_chacha20poly1305.c:54:18
	testq	%rax, %rax
	je	.LBB0_2
.Ltmp19:
# %bb.1:
	#DEBUG_VALUE: crypto_aead_chacha20poly1305_encrypt_detached:c <- $r13
	#DEBUG_VALUE: crypto_aead_chacha20poly1305_encrypt_detached:mac <- [DW_OP_plus_uconst 8] [$rsp+0]
	#DEBUG_VALUE: crypto_aead_chacha20poly1305_encrypt_detached:maclen_p <- [DW_OP_plus_uconst 16] [$rsp+0]
	#DEBUG_VALUE: crypto_aead_chacha20poly1305_encrypt_detached:m <- [$rsp+0]
	#DEBUG_VALUE: crypto_aead_chacha20poly1305_encrypt_detached:mlen <- $r15
	#DEBUG_VALUE: crypto_aead_chacha20poly1305_encrypt_detached:ad <- [DW_OP_LLVM_entry_value 1] $r9
	#DEBUG_VALUE: crypto_aead_chacha20poly1305_encrypt_detached:adlen <- [DW_OP_plus_uconst 416] [$rsp+0]
	#DEBUG_VALUE: crypto_aead_chacha20poly1305_encrypt_detached:npub <- [DW_OP_plus_uconst 432] [$rsp+0]
	#DEBUG_VALUE: crypto_aead_chacha20poly1305_encrypt_detached:k <- [DW_OP_plus_uconst 440] [$rsp+0]
	.loc	1 55 19                         # crypto_aead/chacha20poly1305/aead_chacha20poly1305.c:55:19
	movq	$16, (%rax)
.Ltmp20:
.LBB0_2:
	#DEBUG_VALUE: crypto_aead_chacha20poly1305_encrypt_detached:c <- $r13
	#DEBUG_VALUE: crypto_aead_chacha20poly1305_encrypt_detached:mac <- [DW_OP_plus_uconst 8] [$rsp+0]
	#DEBUG_VALUE: crypto_aead_chacha20poly1305_encrypt_detached:maclen_p <- [DW_OP_plus_uconst 16] [$rsp+0]
	#DEBUG_VALUE: crypto_aead_chacha20poly1305_encrypt_detached:m <- [$rsp+0]
	#DEBUG_VALUE: crypto_aead_chacha20poly1305_encrypt_detached:mlen <- $r15
	#DEBUG_VALUE: crypto_aead_chacha20poly1305_encrypt_detached:ad <- [DW_OP_LLVM_entry_value 1] $r9
	#DEBUG_VALUE: crypto_aead_chacha20poly1305_encrypt_detached:adlen <- [DW_OP_plus_uconst 416] [$rsp+0]
	#DEBUG_VALUE: crypto_aead_chacha20poly1305_encrypt_detached:npub <- [DW_OP_plus_uconst 432] [$rsp+0]
	#DEBUG_VALUE: crypto_aead_chacha20poly1305_encrypt_detached:k <- [DW_OP_plus_uconst 440] [$rsp+0]
	.loc	1 57 5                          # crypto_aead/chacha20poly1305/aead_chacha20poly1305.c:57:5
	movq	%fs:40, %rax
	cmpq	352(%rsp), %rax
	jne	.LBB0_4
.Ltmp21:
# %bb.3:                                # %SP_return
	#DEBUG_VALUE: crypto_aead_chacha20poly1305_encrypt_detached:c <- $r13
	#DEBUG_VALUE: crypto_aead_chacha20poly1305_encrypt_detached:mac <- [DW_OP_plus_uconst 8] [$rsp+0]
	#DEBUG_VALUE: crypto_aead_chacha20poly1305_encrypt_detached:maclen_p <- [DW_OP_plus_uconst 16] [$rsp+0]
	#DEBUG_VALUE: crypto_aead_chacha20poly1305_encrypt_detached:m <- [$rsp+0]
	#DEBUG_VALUE: crypto_aead_chacha20poly1305_encrypt_detached:mlen <- $r15
	#DEBUG_VALUE: crypto_aead_chacha20poly1305_encrypt_detached:ad <- [DW_OP_LLVM_entry_value 1] $r9
	#DEBUG_VALUE: crypto_aead_chacha20poly1305_encrypt_detached:adlen <- [DW_OP_plus_uconst 416] [$rsp+0]
	#DEBUG_VALUE: crypto_aead_chacha20poly1305_encrypt_detached:npub <- [DW_OP_plus_uconst 432] [$rsp+0]
	#DEBUG_VALUE: crypto_aead_chacha20poly1305_encrypt_detached:k <- [DW_OP_plus_uconst 440] [$rsp+0]
	xorl	%eax, %eax
	.loc	1 57 5 epilogue_begin is_stmt 0 # crypto_aead/chacha20poly1305/aead_chacha20poly1305.c:57:5
	addq	$360, %rsp                      # imm = 0x168
	.cfi_def_cfa_offset 56
	popq	%rbx
	.cfi_def_cfa_offset 48
	popq	%r12
	.cfi_def_cfa_offset 40
	popq	%r13
.Ltmp22:
	#DEBUG_VALUE: crypto_aead_chacha20poly1305_encrypt_detached:c <- [DW_OP_LLVM_entry_value 1] $rdi
	.cfi_def_cfa_offset 32
	popq	%r14
	.cfi_def_cfa_offset 24
	popq	%r15
.Ltmp23:
	#DEBUG_VALUE: crypto_aead_chacha20poly1305_encrypt_detached:mlen <- [DW_OP_LLVM_entry_value 1] $r8
	.cfi_def_cfa_offset 16
	popq	%rbp
	.cfi_def_cfa_offset 8
	retq
.Ltmp24:
.LBB0_4:                                # %CallStackCheckFailBlk
	.cfi_def_cfa_offset 416
	#DEBUG_VALUE: crypto_aead_chacha20poly1305_encrypt_detached:c <- $r13
	#DEBUG_VALUE: crypto_aead_chacha20poly1305_encrypt_detached:mac <- [DW_OP_plus_uconst 8] [$rsp+0]
	#DEBUG_VALUE: crypto_aead_chacha20poly1305_encrypt_detached:maclen_p <- [DW_OP_plus_uconst 16] [$rsp+0]
	#DEBUG_VALUE: crypto_aead_chacha20poly1305_encrypt_detached:m <- [$rsp+0]
	#DEBUG_VALUE: crypto_aead_chacha20poly1305_encrypt_detached:mlen <- $r15
	#DEBUG_VALUE: crypto_aead_chacha20poly1305_encrypt_detached:ad <- [DW_OP_LLVM_entry_value 1] $r9
	#DEBUG_VALUE: crypto_aead_chacha20poly1305_encrypt_detached:adlen <- [DW_OP_plus_uconst 416] [$rsp+0]
	#DEBUG_VALUE: crypto_aead_chacha20poly1305_encrypt_detached:npub <- [DW_OP_plus_uconst 432] [$rsp+0]
	#DEBUG_VALUE: crypto_aead_chacha20poly1305_encrypt_detached:k <- [DW_OP_plus_uconst 440] [$rsp+0]
	.loc	1 0 0                           # crypto_aead/chacha20poly1305/aead_chacha20poly1305.c:0
	callq	__stack_chk_fail@PLT
.Ltmp25:
.Lfunc_end0:
	.size	crypto_aead_chacha20poly1305_encrypt_detached, .Lfunc_end0-crypto_aead_chacha20poly1305_encrypt_detached
	.cfi_endproc
	.file	5 "/home/leizhenyuu/opt/Anonymous_Repo" "llvm-project/build/lib/clang/21/include/__stddef_size_t.h"
	.file	6 "./include/sodium/private" "common.h"
	.file	7 "./include/sodium" "crypto_stream_chacha20.h"
	.file	8 "./include/sodium" "crypto_onetimeauth_poly1305.h"
	.file	9 "./include/sodium" "utils.h"
                                        # -- End function
	.globl	crypto_aead_chacha20poly1305_encrypt # -- Begin function crypto_aead_chacha20poly1305_encrypt
	.p2align	4
	.type	crypto_aead_chacha20poly1305_encrypt,@function
crypto_aead_chacha20poly1305_encrypt:   # @crypto_aead_chacha20poly1305_encrypt
.Lfunc_begin1:
	.loc	1 70 0 is_stmt 1                # crypto_aead/chacha20poly1305/aead_chacha20poly1305.c:70:0
	.cfi_startproc
# %bb.0:
	#DEBUG_VALUE: crypto_aead_chacha20poly1305_encrypt:c <- $rdi
	#DEBUG_VALUE: crypto_aead_chacha20poly1305_encrypt:clen_p <- $rsi
	#DEBUG_VALUE: crypto_aead_chacha20poly1305_encrypt:m <- $rdx
	#DEBUG_VALUE: crypto_aead_chacha20poly1305_encrypt:mlen <- $rcx
	#DEBUG_VALUE: crypto_aead_chacha20poly1305_encrypt:ad <- $r8
	#DEBUG_VALUE: crypto_aead_chacha20poly1305_encrypt:adlen <- $r9
	pushq	%r14
	.cfi_def_cfa_offset 16
	pushq	%rbx
	.cfi_def_cfa_offset 24
	subq	$40, %rsp
	.cfi_def_cfa_offset 64
	.cfi_offset %rbx, -24
	.cfi_offset %r14, -16
.Ltmp26:
	#DEBUG_VALUE: crypto_aead_chacha20poly1305_encrypt:nsec <- [DW_OP_plus_uconst 64] [$rsp+0]
	#DEBUG_VALUE: crypto_aead_chacha20poly1305_encrypt:npub <- [DW_OP_plus_uconst 72] [$rsp+0]
	#DEBUG_VALUE: crypto_aead_chacha20poly1305_encrypt:k <- [DW_OP_plus_uconst 80] [$rsp+0]
	movq	%rcx, %rbx
.Ltmp27:
	#DEBUG_VALUE: crypto_aead_chacha20poly1305_encrypt:clen <- 0
	.loc	1 74 14 prologue_end            # crypto_aead/chacha20poly1305/aead_chacha20poly1305.c:74:14
	cmpq	$-16, %rcx
	jae	.LBB1_4
.Ltmp28:
# %bb.1:
	#DEBUG_VALUE: crypto_aead_chacha20poly1305_encrypt:c <- $rdi
	#DEBUG_VALUE: crypto_aead_chacha20poly1305_encrypt:clen_p <- $rsi
	#DEBUG_VALUE: crypto_aead_chacha20poly1305_encrypt:m <- $rdx
	#DEBUG_VALUE: crypto_aead_chacha20poly1305_encrypt:mlen <- $rbx
	#DEBUG_VALUE: crypto_aead_chacha20poly1305_encrypt:ad <- $r8
	#DEBUG_VALUE: crypto_aead_chacha20poly1305_encrypt:adlen <- $r9
	#DEBUG_VALUE: crypto_aead_chacha20poly1305_encrypt:nsec <- [DW_OP_plus_uconst 64] [$rsp+0]
	#DEBUG_VALUE: crypto_aead_chacha20poly1305_encrypt:npub <- [DW_OP_plus_uconst 72] [$rsp+0]
	#DEBUG_VALUE: crypto_aead_chacha20poly1305_encrypt:k <- [DW_OP_plus_uconst 80] [$rsp+0]
	#DEBUG_VALUE: crypto_aead_chacha20poly1305_encrypt:clen <- 0
	.loc	1 0 14 is_stmt 0                # crypto_aead/chacha20poly1305/aead_chacha20poly1305.c:0:14
	movq	%r8, %rax
	movq	%rdx, %rcx
	movq	%rsi, %r14
	movq	80(%rsp), %rdx
.Ltmp29:
	#DEBUG_VALUE: crypto_aead_chacha20poly1305_encrypt:m <- $rcx
	movq	72(%rsp), %r8
.Ltmp30:
	#DEBUG_VALUE: crypto_aead_chacha20poly1305_encrypt:ad <- $rax
	.loc	1 78 59 is_stmt 1               # crypto_aead/chacha20poly1305/aead_chacha20poly1305.c:78:59
	leaq	(%rdi,%rbx), %rsi
.Ltmp31:
	#DEBUG_VALUE: crypto_aead_chacha20poly1305_encrypt:clen_p <- $r14
	.loc	1 77 11                         # crypto_aead/chacha20poly1305/aead_chacha20poly1305.c:77:11
	movq	%rdx, 24(%rsp)
	movq	%r8, 16(%rsp)
	movq	%r9, (%rsp)
	xorl	%edx, %edx
	movq	%rbx, %r8
	movq	%rax, %r9
.Ltmp32:
	#DEBUG_VALUE: crypto_aead_chacha20poly1305_encrypt:adlen <- [DW_OP_LLVM_entry_value 1] $r9
	callq	crypto_aead_chacha20poly1305_encrypt_detached
.Ltmp33:
	#DEBUG_VALUE: crypto_aead_chacha20poly1305_encrypt:m <- [DW_OP_LLVM_entry_value 1] $rdx
	#DEBUG_VALUE: crypto_aead_chacha20poly1305_encrypt:c <- [DW_OP_LLVM_entry_value 1] $rdi
	#DEBUG_VALUE: crypto_aead_chacha20poly1305_encrypt:ad <- [DW_OP_LLVM_entry_value 1] $r8
	#DEBUG_VALUE: crypto_aead_chacha20poly1305_encrypt:ret <- 0
	.loc	1 82 16                         # crypto_aead/chacha20poly1305/aead_chacha20poly1305.c:82:16
	testq	%r14, %r14
	je	.LBB1_3
.Ltmp34:
# %bb.2:
	#DEBUG_VALUE: crypto_aead_chacha20poly1305_encrypt:c <- [DW_OP_LLVM_entry_value 1] $rdi
	#DEBUG_VALUE: crypto_aead_chacha20poly1305_encrypt:clen_p <- $r14
	#DEBUG_VALUE: crypto_aead_chacha20poly1305_encrypt:m <- [DW_OP_LLVM_entry_value 1] $rdx
	#DEBUG_VALUE: crypto_aead_chacha20poly1305_encrypt:mlen <- $rbx
	#DEBUG_VALUE: crypto_aead_chacha20poly1305_encrypt:ad <- [DW_OP_LLVM_entry_value 1] $r8
	#DEBUG_VALUE: crypto_aead_chacha20poly1305_encrypt:adlen <- [DW_OP_LLVM_entry_value 1] $r9
	#DEBUG_VALUE: crypto_aead_chacha20poly1305_encrypt:nsec <- [DW_OP_plus_uconst 64] [$rsp+0]
	#DEBUG_VALUE: crypto_aead_chacha20poly1305_encrypt:npub <- [DW_OP_plus_uconst 72] [$rsp+0]
	#DEBUG_VALUE: crypto_aead_chacha20poly1305_encrypt:k <- [DW_OP_plus_uconst 80] [$rsp+0]
	#DEBUG_VALUE: crypto_aead_chacha20poly1305_encrypt:clen <- 0
	#DEBUG_VALUE: crypto_aead_chacha20poly1305_encrypt:ret <- 0
	#DEBUG_VALUE: crypto_aead_chacha20poly1305_encrypt:clen <- [DW_OP_plus_uconst 16, DW_OP_stack_value] $rbx
	.loc	1 84 25                         # crypto_aead/chacha20poly1305/aead_chacha20poly1305.c:84:25
	addq	$16, %rbx
.Ltmp35:
	#DEBUG_VALUE: crypto_aead_chacha20poly1305_encrypt:mlen <- [DW_OP_LLVM_entry_value 1] $rcx
	#DEBUG_VALUE: crypto_aead_chacha20poly1305_encrypt:clen <- $rbx
	.loc	1 86 17                         # crypto_aead/chacha20poly1305/aead_chacha20poly1305.c:86:17
	movq	%rbx, (%r14)
.Ltmp36:
.LBB1_3:
	#DEBUG_VALUE: crypto_aead_chacha20poly1305_encrypt:c <- [DW_OP_LLVM_entry_value 1] $rdi
	#DEBUG_VALUE: crypto_aead_chacha20poly1305_encrypt:clen_p <- $r14
	#DEBUG_VALUE: crypto_aead_chacha20poly1305_encrypt:m <- [DW_OP_LLVM_entry_value 1] $rdx
	#DEBUG_VALUE: crypto_aead_chacha20poly1305_encrypt:mlen <- [DW_OP_LLVM_entry_value 1] $rcx
	#DEBUG_VALUE: crypto_aead_chacha20poly1305_encrypt:ad <- [DW_OP_LLVM_entry_value 1] $r8
	#DEBUG_VALUE: crypto_aead_chacha20poly1305_encrypt:adlen <- [DW_OP_LLVM_entry_value 1] $r9
	#DEBUG_VALUE: crypto_aead_chacha20poly1305_encrypt:nsec <- [DW_OP_plus_uconst 64] [$rsp+0]
	#DEBUG_VALUE: crypto_aead_chacha20poly1305_encrypt:npub <- [DW_OP_plus_uconst 72] [$rsp+0]
	#DEBUG_VALUE: crypto_aead_chacha20poly1305_encrypt:k <- [DW_OP_plus_uconst 80] [$rsp+0]
	#DEBUG_VALUE: crypto_aead_chacha20poly1305_encrypt:ret <- 0
	.loc	1 88 5                          # crypto_aead/chacha20poly1305/aead_chacha20poly1305.c:88:5
	xorl	%eax, %eax
	.loc	1 88 5 epilogue_begin is_stmt 0 # crypto_aead/chacha20poly1305/aead_chacha20poly1305.c:88:5
	addq	$40, %rsp
	.cfi_def_cfa_offset 24
	popq	%rbx
	.cfi_def_cfa_offset 16
	popq	%r14
.Ltmp37:
	#DEBUG_VALUE: crypto_aead_chacha20poly1305_encrypt:clen_p <- [DW_OP_LLVM_entry_value 1] $rsi
	.cfi_def_cfa_offset 8
	retq
.Ltmp38:
.LBB1_4:
	.cfi_def_cfa_offset 64
	#DEBUG_VALUE: crypto_aead_chacha20poly1305_encrypt:c <- $rdi
	#DEBUG_VALUE: crypto_aead_chacha20poly1305_encrypt:clen_p <- $rsi
	#DEBUG_VALUE: crypto_aead_chacha20poly1305_encrypt:m <- $rdx
	#DEBUG_VALUE: crypto_aead_chacha20poly1305_encrypt:mlen <- $rbx
	#DEBUG_VALUE: crypto_aead_chacha20poly1305_encrypt:ad <- $r8
	#DEBUG_VALUE: crypto_aead_chacha20poly1305_encrypt:adlen <- $r9
	#DEBUG_VALUE: crypto_aead_chacha20poly1305_encrypt:nsec <- [DW_OP_plus_uconst 64] [$rsp+0]
	#DEBUG_VALUE: crypto_aead_chacha20poly1305_encrypt:npub <- [DW_OP_plus_uconst 72] [$rsp+0]
	#DEBUG_VALUE: crypto_aead_chacha20poly1305_encrypt:k <- [DW_OP_plus_uconst 80] [$rsp+0]
	#DEBUG_VALUE: crypto_aead_chacha20poly1305_encrypt:clen <- 0
	.loc	1 75 9 is_stmt 1                # crypto_aead/chacha20poly1305/aead_chacha20poly1305.c:75:9
	callq	sodium_misuse@PLT
.Ltmp39:
	#DEBUG_VALUE: crypto_aead_chacha20poly1305_encrypt:adlen <- [DW_OP_LLVM_entry_value 1] $r9
	#DEBUG_VALUE: crypto_aead_chacha20poly1305_encrypt:ad <- [DW_OP_LLVM_entry_value 1] $r8
	#DEBUG_VALUE: crypto_aead_chacha20poly1305_encrypt:m <- [DW_OP_LLVM_entry_value 1] $rdx
	#DEBUG_VALUE: crypto_aead_chacha20poly1305_encrypt:clen_p <- [DW_OP_LLVM_entry_value 1] $rsi
	#DEBUG_VALUE: crypto_aead_chacha20poly1305_encrypt:c <- [DW_OP_LLVM_entry_value 1] $rdi
.Lfunc_end1:
	.size	crypto_aead_chacha20poly1305_encrypt, .Lfunc_end1-crypto_aead_chacha20poly1305_encrypt
	.cfi_endproc
	.file	10 "./include/sodium" "core.h"
                                        # -- End function
	.globl	crypto_aead_chacha20poly1305_ietf_encrypt_detached # -- Begin function crypto_aead_chacha20poly1305_ietf_encrypt_detached
	.p2align	4
	.type	crypto_aead_chacha20poly1305_ietf_encrypt_detached,@function
crypto_aead_chacha20poly1305_ietf_encrypt_detached: # @crypto_aead_chacha20poly1305_ietf_encrypt_detached
.Lfunc_begin2:
	.loc	1 102 0                         # crypto_aead/chacha20poly1305/aead_chacha20poly1305.c:102:0
	.cfi_startproc
# %bb.0:
	#DEBUG_VALUE: crypto_aead_chacha20poly1305_ietf_encrypt_detached:c <- $rdi
	#DEBUG_VALUE: crypto_aead_chacha20poly1305_ietf_encrypt_detached:mac <- $rsi
	#DEBUG_VALUE: crypto_aead_chacha20poly1305_ietf_encrypt_detached:maclen_p <- $rdx
	#DEBUG_VALUE: crypto_aead_chacha20poly1305_ietf_encrypt_detached:m <- $rcx
	#DEBUG_VALUE: crypto_aead_chacha20poly1305_ietf_encrypt_detached:mlen <- $r8
	#DEBUG_VALUE: crypto_aead_chacha20poly1305_ietf_encrypt_detached:ad <- $r9
	pushq	%rbp
	.cfi_def_cfa_offset 16
	pushq	%r15
	.cfi_def_cfa_offset 24
	pushq	%r14
	.cfi_def_cfa_offset 32
	pushq	%r13
	.cfi_def_cfa_offset 40
	pushq	%r12
	.cfi_def_cfa_offset 48
	pushq	%rbx
	.cfi_def_cfa_offset 56
	subq	$360, %rsp                      # imm = 0x168
	.cfi_def_cfa_offset 416
	.cfi_offset %rbx, -56
	.cfi_offset %r12, -48
	.cfi_offset %r13, -40
	.cfi_offset %r14, -32
	.cfi_offset %r15, -24
	.cfi_offset %rbp, -16
.Ltmp40:
	#DEBUG_VALUE: crypto_aead_chacha20poly1305_ietf_encrypt_detached:adlen <- [DW_OP_plus_uconst 416] [$rsp+0]
	#DEBUG_VALUE: crypto_aead_chacha20poly1305_ietf_encrypt_detached:npub <- [DW_OP_plus_uconst 432] [$rsp+0]
	#DEBUG_VALUE: crypto_aead_chacha20poly1305_ietf_encrypt_detached:k <- [DW_OP_plus_uconst 440] [$rsp+0]
	movq	%r9, %rbx
	movq	%r8, %r15
	movq	%rcx, (%rsp)                    # 8-byte Spill
.Ltmp41:
	#DEBUG_VALUE: crypto_aead_chacha20poly1305_ietf_encrypt_detached:m <- [$rsp+0]
	movq	%rdx, 16(%rsp)                  # 8-byte Spill
.Ltmp42:
	#DEBUG_VALUE: crypto_aead_chacha20poly1305_ietf_encrypt_detached:maclen_p <- [DW_OP_plus_uconst 16] [$rsp+0]
	movq	%rsi, 8(%rsp)                   # 8-byte Spill
.Ltmp43:
	#DEBUG_VALUE: crypto_aead_chacha20poly1305_ietf_encrypt_detached:mac <- [DW_OP_plus_uconst 8] [$rsp+0]
	movq	%rdi, %rbp
	movq	416(%rsp), %r14
	movq	432(%rsp), %rdx
	movq	440(%rsp), %rcx
	movq	%fs:40, %rax
	movq	%rax, 352(%rsp)
	leaq	32(%rsp), %r13
.Ltmp44:
	.loc	1 108 5 prologue_end            # crypto_aead/chacha20poly1305/aead_chacha20poly1305.c:108:5
	movl	$64, %esi
	movq	%r13, %rdi
.Ltmp45:
	#DEBUG_VALUE: crypto_aead_chacha20poly1305_ietf_encrypt_detached:c <- $rbp
	callq	crypto_stream_chacha20_ietf@PLT
.Ltmp46:
	#DEBUG_VALUE: crypto_aead_chacha20poly1305_ietf_encrypt_detached:ad <- $rbx
	#DEBUG_VALUE: crypto_aead_chacha20poly1305_ietf_encrypt_detached:mlen <- $r15
	.loc	1 0 5 is_stmt 0                 # crypto_aead/chacha20poly1305/aead_chacha20poly1305.c:0:5
	leaq	96(%rsp), %r12
	.loc	1 109 5 is_stmt 1               # crypto_aead/chacha20poly1305/aead_chacha20poly1305.c:109:5
	movq	%r12, %rdi
	movq	%r13, %rsi
	callq	crypto_onetimeauth_poly1305_init@PLT
.Ltmp47:
	.loc	1 110 5                         # crypto_aead/chacha20poly1305/aead_chacha20poly1305.c:110:5
	movl	$64, %esi
	movq	%r13, %rdi
	callq	sodium_memzero@PLT
.Ltmp48:
	.loc	1 112 5                         # crypto_aead/chacha20poly1305/aead_chacha20poly1305.c:112:5
	movq	%r12, %rdi
	movq	%rbx, %rsi
	movq	%r14, %rdx
	callq	crypto_onetimeauth_poly1305_update@PLT
.Ltmp49:
	.loc	1 113 61                        # crypto_aead/chacha20poly1305/aead_chacha20poly1305.c:113:61
	movl	%r14d, %edx
	negl	%edx
	.loc	1 113 70 is_stmt 0              # crypto_aead/chacha20poly1305/aead_chacha20poly1305.c:113:70
	andl	$15, %edx
	.loc	1 113 5                         # crypto_aead/chacha20poly1305/aead_chacha20poly1305.c:113:5
	leaq	_pad0(%rip), %rbx
.Ltmp50:
	#DEBUG_VALUE: crypto_aead_chacha20poly1305_ietf_encrypt_detached:ad <- [DW_OP_LLVM_entry_value 1] $r9
	movq	%r12, %rdi
	movq	%rbx, %rsi
	callq	crypto_onetimeauth_poly1305_update@PLT
.Ltmp51:
	.loc	1 115 5 is_stmt 1               # crypto_aead/chacha20poly1305/aead_chacha20poly1305.c:115:5
	movq	%rbp, %rdi
	movq	(%rsp), %rsi                    # 8-byte Reload
	movq	%r15, %rdx
	movq	432(%rsp), %rcx
	movl	$1, %r8d
	movq	440(%rsp), %r9
	callq	crypto_stream_chacha20_ietf_xor_ic@PLT
.Ltmp52:
	.loc	1 117 5                         # crypto_aead/chacha20poly1305/aead_chacha20poly1305.c:117:5
	movq	%r12, %rdi
	movq	%rbp, %rsi
	movq	%r15, %rdx
	callq	crypto_onetimeauth_poly1305_update@PLT
.Ltmp53:
	.loc	1 118 61                        # crypto_aead/chacha20poly1305/aead_chacha20poly1305.c:118:61
	movl	%r15d, %edx
	negl	%edx
	.loc	1 118 69 is_stmt 0              # crypto_aead/chacha20poly1305/aead_chacha20poly1305.c:118:69
	andl	$15, %edx
	.loc	1 118 5                         # crypto_aead/chacha20poly1305/aead_chacha20poly1305.c:118:5
	movq	%r12, %rdi
	movq	%rbx, %rsi
	callq	crypto_onetimeauth_poly1305_update@PLT
.Ltmp54:
	#DEBUG_VALUE: store64_le:dst <- [DW_OP_plus_uconst 24, DW_OP_stack_value] $rsp
	#DEBUG_VALUE: memcpy:__dest <- [DW_OP_plus_uconst 24, DW_OP_stack_value] $rsp
	#DEBUG_VALUE: memcpy:__len <- 8
	.loc	4 29 10 is_stmt 1               # /usr/include/x86_64-linux-gnu/bits/string_fortified.h:29:10 @[ ./include/sodium/private/common.h:87:5 @[ crypto_aead/chacha20poly1305/aead_chacha20poly1305.c:120:5 ] ]
	movq	%r14, 24(%rsp)
	leaq	24(%rsp), %rbx
.Ltmp55:
	.loc	1 121 5                         # crypto_aead/chacha20poly1305/aead_chacha20poly1305.c:121:5
	movl	$8, %edx
	movq	%r12, %rdi
	movq	%rbx, %rsi
	callq	crypto_onetimeauth_poly1305_update@PLT
.Ltmp56:
	#DEBUG_VALUE: store64_le:dst <- [DW_OP_plus_uconst 24, DW_OP_stack_value] $rsp
	#DEBUG_VALUE: memcpy:__dest <- [DW_OP_plus_uconst 24, DW_OP_stack_value] $rsp
	#DEBUG_VALUE: memcpy:__len <- 8
	.loc	4 29 10                         # /usr/include/x86_64-linux-gnu/bits/string_fortified.h:29:10 @[ ./include/sodium/private/common.h:87:5 @[ crypto_aead/chacha20poly1305/aead_chacha20poly1305.c:123:5 ] ]
	movq	%r15, 24(%rsp)
.Ltmp57:
	.loc	1 124 5                         # crypto_aead/chacha20poly1305/aead_chacha20poly1305.c:124:5
	movl	$8, %edx
	movq	%r12, %rdi
	movq	%rbx, %rsi
	callq	crypto_onetimeauth_poly1305_update@PLT
.Ltmp58:
	.loc	1 126 5                         # crypto_aead/chacha20poly1305/aead_chacha20poly1305.c:126:5
	movq	%r12, %rdi
	movq	8(%rsp), %rsi                   # 8-byte Reload
	callq	crypto_onetimeauth_poly1305_final@PLT
.Ltmp59:
	.loc	1 127 5                         # crypto_aead/chacha20poly1305/aead_chacha20poly1305.c:127:5
	movl	$256, %esi                      # imm = 0x100
	movq	%r12, %rdi
	callq	sodium_memzero@PLT
.Ltmp60:
	.loc	1 0 5 is_stmt 0                 # crypto_aead/chacha20poly1305/aead_chacha20poly1305.c:0:5
	movq	16(%rsp), %rax                  # 8-byte Reload
.Ltmp61:
	.loc	1 129 18 is_stmt 1              # crypto_aead/chacha20poly1305/aead_chacha20poly1305.c:129:18
	testq	%rax, %rax
	je	.LBB2_2
.Ltmp62:
# %bb.1:
	#DEBUG_VALUE: crypto_aead_chacha20poly1305_ietf_encrypt_detached:c <- $rbp
	#DEBUG_VALUE: crypto_aead_chacha20poly1305_ietf_encrypt_detached:mac <- [DW_OP_plus_uconst 8] [$rsp+0]
	#DEBUG_VALUE: crypto_aead_chacha20poly1305_ietf_encrypt_detached:maclen_p <- [DW_OP_plus_uconst 16] [$rsp+0]
	#DEBUG_VALUE: crypto_aead_chacha20poly1305_ietf_encrypt_detached:m <- [$rsp+0]
	#DEBUG_VALUE: crypto_aead_chacha20poly1305_ietf_encrypt_detached:mlen <- $r15
	#DEBUG_VALUE: crypto_aead_chacha20poly1305_ietf_encrypt_detached:ad <- [DW_OP_LLVM_entry_value 1] $r9
	#DEBUG_VALUE: crypto_aead_chacha20poly1305_ietf_encrypt_detached:adlen <- [DW_OP_plus_uconst 416] [$rsp+0]
	#DEBUG_VALUE: crypto_aead_chacha20poly1305_ietf_encrypt_detached:npub <- [DW_OP_plus_uconst 432] [$rsp+0]
	#DEBUG_VALUE: crypto_aead_chacha20poly1305_ietf_encrypt_detached:k <- [DW_OP_plus_uconst 440] [$rsp+0]
	.loc	1 130 19                        # crypto_aead/chacha20poly1305/aead_chacha20poly1305.c:130:19
	movq	$16, (%rax)
.Ltmp63:
.LBB2_2:
	#DEBUG_VALUE: crypto_aead_chacha20poly1305_ietf_encrypt_detached:c <- $rbp
	#DEBUG_VALUE: crypto_aead_chacha20poly1305_ietf_encrypt_detached:mac <- [DW_OP_plus_uconst 8] [$rsp+0]
	#DEBUG_VALUE: crypto_aead_chacha20poly1305_ietf_encrypt_detached:maclen_p <- [DW_OP_plus_uconst 16] [$rsp+0]
	#DEBUG_VALUE: crypto_aead_chacha20poly1305_ietf_encrypt_detached:m <- [$rsp+0]
	#DEBUG_VALUE: crypto_aead_chacha20poly1305_ietf_encrypt_detached:mlen <- $r15
	#DEBUG_VALUE: crypto_aead_chacha20poly1305_ietf_encrypt_detached:ad <- [DW_OP_LLVM_entry_value 1] $r9
	#DEBUG_VALUE: crypto_aead_chacha20poly1305_ietf_encrypt_detached:adlen <- [DW_OP_plus_uconst 416] [$rsp+0]
	#DEBUG_VALUE: crypto_aead_chacha20poly1305_ietf_encrypt_detached:npub <- [DW_OP_plus_uconst 432] [$rsp+0]
	#DEBUG_VALUE: crypto_aead_chacha20poly1305_ietf_encrypt_detached:k <- [DW_OP_plus_uconst 440] [$rsp+0]
	.loc	1 132 5                         # crypto_aead/chacha20poly1305/aead_chacha20poly1305.c:132:5
	movq	%fs:40, %rax
	cmpq	352(%rsp), %rax
	jne	.LBB2_4
.Ltmp64:
# %bb.3:                                # %SP_return
	#DEBUG_VALUE: crypto_aead_chacha20poly1305_ietf_encrypt_detached:c <- $rbp
	#DEBUG_VALUE: crypto_aead_chacha20poly1305_ietf_encrypt_detached:mac <- [DW_OP_plus_uconst 8] [$rsp+0]
	#DEBUG_VALUE: crypto_aead_chacha20poly1305_ietf_encrypt_detached:maclen_p <- [DW_OP_plus_uconst 16] [$rsp+0]
	#DEBUG_VALUE: crypto_aead_chacha20poly1305_ietf_encrypt_detached:m <- [$rsp+0]
	#DEBUG_VALUE: crypto_aead_chacha20poly1305_ietf_encrypt_detached:mlen <- $r15
	#DEBUG_VALUE: crypto_aead_chacha20poly1305_ietf_encrypt_detached:ad <- [DW_OP_LLVM_entry_value 1] $r9
	#DEBUG_VALUE: crypto_aead_chacha20poly1305_ietf_encrypt_detached:adlen <- [DW_OP_plus_uconst 416] [$rsp+0]
	#DEBUG_VALUE: crypto_aead_chacha20poly1305_ietf_encrypt_detached:npub <- [DW_OP_plus_uconst 432] [$rsp+0]
	#DEBUG_VALUE: crypto_aead_chacha20poly1305_ietf_encrypt_detached:k <- [DW_OP_plus_uconst 440] [$rsp+0]
	xorl	%eax, %eax
	.loc	1 132 5 epilogue_begin is_stmt 0 # crypto_aead/chacha20poly1305/aead_chacha20poly1305.c:132:5
	addq	$360, %rsp                      # imm = 0x168
	.cfi_def_cfa_offset 56
	popq	%rbx
	.cfi_def_cfa_offset 48
	popq	%r12
	.cfi_def_cfa_offset 40
	popq	%r13
	.cfi_def_cfa_offset 32
	popq	%r14
	.cfi_def_cfa_offset 24
	popq	%r15
.Ltmp65:
	#DEBUG_VALUE: crypto_aead_chacha20poly1305_ietf_encrypt_detached:mlen <- [DW_OP_LLVM_entry_value 1] $r8
	.cfi_def_cfa_offset 16
	popq	%rbp
.Ltmp66:
	#DEBUG_VALUE: crypto_aead_chacha20poly1305_ietf_encrypt_detached:c <- [DW_OP_LLVM_entry_value 1] $rdi
	.cfi_def_cfa_offset 8
	retq
.Ltmp67:
.LBB2_4:                                # %CallStackCheckFailBlk
	.cfi_def_cfa_offset 416
	#DEBUG_VALUE: crypto_aead_chacha20poly1305_ietf_encrypt_detached:c <- $rbp
	#DEBUG_VALUE: crypto_aead_chacha20poly1305_ietf_encrypt_detached:mac <- [DW_OP_plus_uconst 8] [$rsp+0]
	#DEBUG_VALUE: crypto_aead_chacha20poly1305_ietf_encrypt_detached:maclen_p <- [DW_OP_plus_uconst 16] [$rsp+0]
	#DEBUG_VALUE: crypto_aead_chacha20poly1305_ietf_encrypt_detached:m <- [$rsp+0]
	#DEBUG_VALUE: crypto_aead_chacha20poly1305_ietf_encrypt_detached:mlen <- $r15
	#DEBUG_VALUE: crypto_aead_chacha20poly1305_ietf_encrypt_detached:ad <- [DW_OP_LLVM_entry_value 1] $r9
	#DEBUG_VALUE: crypto_aead_chacha20poly1305_ietf_encrypt_detached:adlen <- [DW_OP_plus_uconst 416] [$rsp+0]
	#DEBUG_VALUE: crypto_aead_chacha20poly1305_ietf_encrypt_detached:npub <- [DW_OP_plus_uconst 432] [$rsp+0]
	#DEBUG_VALUE: crypto_aead_chacha20poly1305_ietf_encrypt_detached:k <- [DW_OP_plus_uconst 440] [$rsp+0]
	.loc	1 0 0                           # crypto_aead/chacha20poly1305/aead_chacha20poly1305.c:0
	callq	__stack_chk_fail@PLT
.Ltmp68:
.Lfunc_end2:
	.size	crypto_aead_chacha20poly1305_ietf_encrypt_detached, .Lfunc_end2-crypto_aead_chacha20poly1305_ietf_encrypt_detached
	.cfi_endproc
                                        # -- End function
	.globl	crypto_aead_chacha20poly1305_ietf_encrypt # -- Begin function crypto_aead_chacha20poly1305_ietf_encrypt
	.p2align	4
	.type	crypto_aead_chacha20poly1305_ietf_encrypt,@function
crypto_aead_chacha20poly1305_ietf_encrypt: # @crypto_aead_chacha20poly1305_ietf_encrypt
.Lfunc_begin3:
	.loc	1 145 0 is_stmt 1               # crypto_aead/chacha20poly1305/aead_chacha20poly1305.c:145:0
	.cfi_startproc
# %bb.0:
	#DEBUG_VALUE: crypto_aead_chacha20poly1305_ietf_encrypt:c <- $rdi
	#DEBUG_VALUE: crypto_aead_chacha20poly1305_ietf_encrypt:clen_p <- $rsi
	#DEBUG_VALUE: crypto_aead_chacha20poly1305_ietf_encrypt:m <- $rdx
	#DEBUG_VALUE: crypto_aead_chacha20poly1305_ietf_encrypt:mlen <- $rcx
	#DEBUG_VALUE: crypto_aead_chacha20poly1305_ietf_encrypt:ad <- $r8
	#DEBUG_VALUE: crypto_aead_chacha20poly1305_ietf_encrypt:adlen <- $r9
	pushq	%r14
	.cfi_def_cfa_offset 16
	pushq	%rbx
	.cfi_def_cfa_offset 24
	subq	$40, %rsp
	.cfi_def_cfa_offset 64
	.cfi_offset %rbx, -24
	.cfi_offset %r14, -16
.Ltmp69:
	#DEBUG_VALUE: crypto_aead_chacha20poly1305_ietf_encrypt:nsec <- [DW_OP_plus_uconst 64] [$rsp+0]
	#DEBUG_VALUE: crypto_aead_chacha20poly1305_ietf_encrypt:npub <- [DW_OP_plus_uconst 72] [$rsp+0]
	#DEBUG_VALUE: crypto_aead_chacha20poly1305_ietf_encrypt:k <- [DW_OP_plus_uconst 80] [$rsp+0]
	movq	%rcx, %rbx
	movq	%rdx, %rcx
.Ltmp70:
	#DEBUG_VALUE: crypto_aead_chacha20poly1305_ietf_encrypt:mlen <- $rbx
	movabsq	$274877906881, %rdx             # imm = 0x3FFFFFFFC1
.Ltmp71:
	#DEBUG_VALUE: crypto_aead_chacha20poly1305_ietf_encrypt:m <- $rcx
	#DEBUG_VALUE: crypto_aead_chacha20poly1305_ietf_encrypt:clen <- 0
	.loc	1 149 14 prologue_end           # crypto_aead/chacha20poly1305/aead_chacha20poly1305.c:149:14
	cmpq	%rdx, %rbx
	jae	.LBB3_4
.Ltmp72:
# %bb.1:
	#DEBUG_VALUE: crypto_aead_chacha20poly1305_ietf_encrypt:c <- $rdi
	#DEBUG_VALUE: crypto_aead_chacha20poly1305_ietf_encrypt:clen_p <- $rsi
	#DEBUG_VALUE: crypto_aead_chacha20poly1305_ietf_encrypt:m <- $rcx
	#DEBUG_VALUE: crypto_aead_chacha20poly1305_ietf_encrypt:mlen <- $rbx
	#DEBUG_VALUE: crypto_aead_chacha20poly1305_ietf_encrypt:ad <- $r8
	#DEBUG_VALUE: crypto_aead_chacha20poly1305_ietf_encrypt:adlen <- $r9
	#DEBUG_VALUE: crypto_aead_chacha20poly1305_ietf_encrypt:nsec <- [DW_OP_plus_uconst 64] [$rsp+0]
	#DEBUG_VALUE: crypto_aead_chacha20poly1305_ietf_encrypt:npub <- [DW_OP_plus_uconst 72] [$rsp+0]
	#DEBUG_VALUE: crypto_aead_chacha20poly1305_ietf_encrypt:k <- [DW_OP_plus_uconst 80] [$rsp+0]
	#DEBUG_VALUE: crypto_aead_chacha20poly1305_ietf_encrypt:clen <- 0
	.loc	1 0 14 is_stmt 0                # crypto_aead/chacha20poly1305/aead_chacha20poly1305.c:0:14
	movq	%r8, %rax
	movq	%rsi, %r14
	movq	80(%rsp), %rdx
	movq	72(%rsp), %r8
.Ltmp73:
	#DEBUG_VALUE: crypto_aead_chacha20poly1305_ietf_encrypt:ad <- $rax
	.loc	1 153 64 is_stmt 1              # crypto_aead/chacha20poly1305/aead_chacha20poly1305.c:153:64
	leaq	(%rdi,%rbx), %rsi
.Ltmp74:
	#DEBUG_VALUE: crypto_aead_chacha20poly1305_ietf_encrypt:clen_p <- $r14
	.loc	1 152 11                        # crypto_aead/chacha20poly1305/aead_chacha20poly1305.c:152:11
	movq	%rdx, 24(%rsp)
	movq	%r8, 16(%rsp)
	movq	%r9, (%rsp)
	xorl	%edx, %edx
	movq	%rbx, %r8
	movq	%rax, %r9
.Ltmp75:
	#DEBUG_VALUE: crypto_aead_chacha20poly1305_ietf_encrypt:adlen <- [DW_OP_LLVM_entry_value 1] $r9
	callq	crypto_aead_chacha20poly1305_ietf_encrypt_detached
.Ltmp76:
	#DEBUG_VALUE: crypto_aead_chacha20poly1305_ietf_encrypt:m <- [DW_OP_LLVM_entry_value 1] $rdx
	#DEBUG_VALUE: crypto_aead_chacha20poly1305_ietf_encrypt:c <- [DW_OP_LLVM_entry_value 1] $rdi
	#DEBUG_VALUE: crypto_aead_chacha20poly1305_ietf_encrypt:ad <- [DW_OP_LLVM_entry_value 1] $r8
	#DEBUG_VALUE: crypto_aead_chacha20poly1305_ietf_encrypt:ret <- 0
	.loc	1 157 16                        # crypto_aead/chacha20poly1305/aead_chacha20poly1305.c:157:16
	testq	%r14, %r14
	je	.LBB3_3
.Ltmp77:
# %bb.2:
	#DEBUG_VALUE: crypto_aead_chacha20poly1305_ietf_encrypt:c <- [DW_OP_LLVM_entry_value 1] $rdi
	#DEBUG_VALUE: crypto_aead_chacha20poly1305_ietf_encrypt:clen_p <- $r14
	#DEBUG_VALUE: crypto_aead_chacha20poly1305_ietf_encrypt:m <- [DW_OP_LLVM_entry_value 1] $rdx
	#DEBUG_VALUE: crypto_aead_chacha20poly1305_ietf_encrypt:mlen <- $rbx
	#DEBUG_VALUE: crypto_aead_chacha20poly1305_ietf_encrypt:ad <- [DW_OP_LLVM_entry_value 1] $r8
	#DEBUG_VALUE: crypto_aead_chacha20poly1305_ietf_encrypt:adlen <- [DW_OP_LLVM_entry_value 1] $r9
	#DEBUG_VALUE: crypto_aead_chacha20poly1305_ietf_encrypt:nsec <- [DW_OP_plus_uconst 64] [$rsp+0]
	#DEBUG_VALUE: crypto_aead_chacha20poly1305_ietf_encrypt:npub <- [DW_OP_plus_uconst 72] [$rsp+0]
	#DEBUG_VALUE: crypto_aead_chacha20poly1305_ietf_encrypt:k <- [DW_OP_plus_uconst 80] [$rsp+0]
	#DEBUG_VALUE: crypto_aead_chacha20poly1305_ietf_encrypt:clen <- 0
	#DEBUG_VALUE: crypto_aead_chacha20poly1305_ietf_encrypt:ret <- 0
	#DEBUG_VALUE: crypto_aead_chacha20poly1305_ietf_encrypt:clen <- [DW_OP_plus_uconst 16, DW_OP_stack_value] $rbx
	.loc	1 159 25                        # crypto_aead/chacha20poly1305/aead_chacha20poly1305.c:159:25
	addq	$16, %rbx
.Ltmp78:
	#DEBUG_VALUE: crypto_aead_chacha20poly1305_ietf_encrypt:mlen <- [DW_OP_LLVM_entry_value 1] $rcx
	#DEBUG_VALUE: crypto_aead_chacha20poly1305_ietf_encrypt:clen <- $rbx
	.loc	1 161 17                        # crypto_aead/chacha20poly1305/aead_chacha20poly1305.c:161:17
	movq	%rbx, (%r14)
.Ltmp79:
.LBB3_3:
	#DEBUG_VALUE: crypto_aead_chacha20poly1305_ietf_encrypt:c <- [DW_OP_LLVM_entry_value 1] $rdi
	#DEBUG_VALUE: crypto_aead_chacha20poly1305_ietf_encrypt:clen_p <- $r14
	#DEBUG_VALUE: crypto_aead_chacha20poly1305_ietf_encrypt:m <- [DW_OP_LLVM_entry_value 1] $rdx
	#DEBUG_VALUE: crypto_aead_chacha20poly1305_ietf_encrypt:mlen <- [DW_OP_LLVM_entry_value 1] $rcx
	#DEBUG_VALUE: crypto_aead_chacha20poly1305_ietf_encrypt:ad <- [DW_OP_LLVM_entry_value 1] $r8
	#DEBUG_VALUE: crypto_aead_chacha20poly1305_ietf_encrypt:adlen <- [DW_OP_LLVM_entry_value 1] $r9
	#DEBUG_VALUE: crypto_aead_chacha20poly1305_ietf_encrypt:nsec <- [DW_OP_plus_uconst 64] [$rsp+0]
	#DEBUG_VALUE: crypto_aead_chacha20poly1305_ietf_encrypt:npub <- [DW_OP_plus_uconst 72] [$rsp+0]
	#DEBUG_VALUE: crypto_aead_chacha20poly1305_ietf_encrypt:k <- [DW_OP_plus_uconst 80] [$rsp+0]
	#DEBUG_VALUE: crypto_aead_chacha20poly1305_ietf_encrypt:ret <- 0
	.loc	1 163 5                         # crypto_aead/chacha20poly1305/aead_chacha20poly1305.c:163:5
	xorl	%eax, %eax
	.loc	1 163 5 epilogue_begin is_stmt 0 # crypto_aead/chacha20poly1305/aead_chacha20poly1305.c:163:5
	addq	$40, %rsp
	.cfi_def_cfa_offset 24
	popq	%rbx
	.cfi_def_cfa_offset 16
	popq	%r14
.Ltmp80:
	#DEBUG_VALUE: crypto_aead_chacha20poly1305_ietf_encrypt:clen_p <- [DW_OP_LLVM_entry_value 1] $rsi
	.cfi_def_cfa_offset 8
	retq
.Ltmp81:
.LBB3_4:
	.cfi_def_cfa_offset 64
	#DEBUG_VALUE: crypto_aead_chacha20poly1305_ietf_encrypt:c <- $rdi
	#DEBUG_VALUE: crypto_aead_chacha20poly1305_ietf_encrypt:clen_p <- $rsi
	#DEBUG_VALUE: crypto_aead_chacha20poly1305_ietf_encrypt:m <- $rcx
	#DEBUG_VALUE: crypto_aead_chacha20poly1305_ietf_encrypt:mlen <- $rbx
	#DEBUG_VALUE: crypto_aead_chacha20poly1305_ietf_encrypt:ad <- $r8
	#DEBUG_VALUE: crypto_aead_chacha20poly1305_ietf_encrypt:adlen <- $r9
	#DEBUG_VALUE: crypto_aead_chacha20poly1305_ietf_encrypt:nsec <- [DW_OP_plus_uconst 64] [$rsp+0]
	#DEBUG_VALUE: crypto_aead_chacha20poly1305_ietf_encrypt:npub <- [DW_OP_plus_uconst 72] [$rsp+0]
	#DEBUG_VALUE: crypto_aead_chacha20poly1305_ietf_encrypt:k <- [DW_OP_plus_uconst 80] [$rsp+0]
	#DEBUG_VALUE: crypto_aead_chacha20poly1305_ietf_encrypt:clen <- 0
	.loc	1 150 9 is_stmt 1               # crypto_aead/chacha20poly1305/aead_chacha20poly1305.c:150:9
	callq	sodium_misuse@PLT
.Ltmp82:
	#DEBUG_VALUE: crypto_aead_chacha20poly1305_ietf_encrypt:adlen <- [DW_OP_LLVM_entry_value 1] $r9
	#DEBUG_VALUE: crypto_aead_chacha20poly1305_ietf_encrypt:ad <- [DW_OP_LLVM_entry_value 1] $r8
	#DEBUG_VALUE: crypto_aead_chacha20poly1305_ietf_encrypt:m <- [DW_OP_LLVM_entry_value 1] $rdx
	#DEBUG_VALUE: crypto_aead_chacha20poly1305_ietf_encrypt:clen_p <- [DW_OP_LLVM_entry_value 1] $rsi
	#DEBUG_VALUE: crypto_aead_chacha20poly1305_ietf_encrypt:c <- [DW_OP_LLVM_entry_value 1] $rdi
.Lfunc_end3:
	.size	crypto_aead_chacha20poly1305_ietf_encrypt, .Lfunc_end3-crypto_aead_chacha20poly1305_ietf_encrypt
	.cfi_endproc
                                        # -- End function
	.globl	crypto_aead_chacha20poly1305_decrypt_detached # -- Begin function crypto_aead_chacha20poly1305_decrypt_detached
	.p2align	4
	.type	crypto_aead_chacha20poly1305_decrypt_detached,@function
crypto_aead_chacha20poly1305_decrypt_detached: # @crypto_aead_chacha20poly1305_decrypt_detached
.Lfunc_begin4:
	.loc	1 176 0                         # crypto_aead/chacha20poly1305/aead_chacha20poly1305.c:176:0
	.cfi_startproc
# %bb.0:
	#DEBUG_VALUE: crypto_aead_chacha20poly1305_decrypt_detached:m <- $rdi
	#DEBUG_VALUE: crypto_aead_chacha20poly1305_decrypt_detached:c <- $rdx
	#DEBUG_VALUE: crypto_aead_chacha20poly1305_decrypt_detached:clen <- $rcx
	#DEBUG_VALUE: crypto_aead_chacha20poly1305_decrypt_detached:mac <- $r8
	#DEBUG_VALUE: crypto_aead_chacha20poly1305_decrypt_detached:ad <- $r9
	pushq	%rbp
	.cfi_def_cfa_offset 16
	pushq	%r15
	.cfi_def_cfa_offset 24
	pushq	%r14
	.cfi_def_cfa_offset 32
	pushq	%r13
	.cfi_def_cfa_offset 40
	pushq	%r12
	.cfi_def_cfa_offset 48
	pushq	%rbx
	.cfi_def_cfa_offset 56
	subq	$376, %rsp                      # imm = 0x178
	.cfi_def_cfa_offset 432
	.cfi_offset %rbx, -56
	.cfi_offset %r12, -48
	.cfi_offset %r13, -40
	.cfi_offset %r14, -32
	.cfi_offset %r15, -24
	.cfi_offset %rbp, -16
.Ltmp83:
	#DEBUG_VALUE: crypto_aead_chacha20poly1305_decrypt_detached:adlen <- [DW_OP_plus_uconst 432] [$rsp+0]
	#DEBUG_VALUE: crypto_aead_chacha20poly1305_decrypt_detached:npub <- [DW_OP_plus_uconst 440] [$rsp+0]
	#DEBUG_VALUE: crypto_aead_chacha20poly1305_decrypt_detached:k <- [DW_OP_plus_uconst 448] [$rsp+0]
	movq	%r9, %rbp
	movq	%r8, (%rsp)                     # 8-byte Spill
.Ltmp84:
	#DEBUG_VALUE: crypto_aead_chacha20poly1305_decrypt_detached:mac <- [$rsp+0]
	movq	%rcx, %rbx
	movq	%rdx, %r12
	movq	%rdi, 8(%rsp)                   # 8-byte Spill
.Ltmp85:
	#DEBUG_VALUE: crypto_aead_chacha20poly1305_decrypt_detached:m <- [DW_OP_plus_uconst 8] [$rsp+0]
	movq	448(%rsp), %rcx
.Ltmp86:
	#DEBUG_VALUE: crypto_aead_chacha20poly1305_decrypt_detached:clen <- $rbx
	movq	440(%rsp), %rdx
.Ltmp87:
	#DEBUG_VALUE: crypto_aead_chacha20poly1305_decrypt_detached:c <- $r12
	#DEBUG_VALUE: crypto_aead_chacha20poly1305_decrypt_detached:mlen <- $rbx
	movq	432(%rsp), %r15
	movq	%fs:40, %rax
	movq	%rax, 368(%rsp)
	leaq	48(%rsp), %r13
.Ltmp88:
	.loc	1 185 5 prologue_end            # crypto_aead/chacha20poly1305/aead_chacha20poly1305.c:185:5
	movl	$64, %esi
	movq	%r13, %rdi
	callq	crypto_stream_chacha20@PLT
.Ltmp89:
	#DEBUG_VALUE: crypto_aead_chacha20poly1305_decrypt_detached:ad <- $rbp
	.loc	1 0 5 is_stmt 0                 # crypto_aead/chacha20poly1305/aead_chacha20poly1305.c:0:5
	leaq	112(%rsp), %r14
	.loc	1 186 5 is_stmt 1               # crypto_aead/chacha20poly1305/aead_chacha20poly1305.c:186:5
	movq	%r14, %rdi
	movq	%r13, %rsi
	callq	crypto_onetimeauth_poly1305_init@PLT
.Ltmp90:
	.loc	1 187 5                         # crypto_aead/chacha20poly1305/aead_chacha20poly1305.c:187:5
	movl	$64, %esi
	movq	%r13, %rdi
	callq	sodium_memzero@PLT
.Ltmp91:
	.loc	1 189 5                         # crypto_aead/chacha20poly1305/aead_chacha20poly1305.c:189:5
	movq	%r14, %rdi
	movq	%rbp, %rsi
	movq	%r15, %rdx
	callq	crypto_onetimeauth_poly1305_update@PLT
.Ltmp92:
	#DEBUG_VALUE: store64_le:dst <- [DW_OP_plus_uconst 40, DW_OP_stack_value] $rsp
	#DEBUG_VALUE: memcpy:__dest <- [DW_OP_plus_uconst 40, DW_OP_stack_value] $rsp
	#DEBUG_VALUE: memcpy:__len <- 8
	.loc	4 29 10                         # /usr/include/x86_64-linux-gnu/bits/string_fortified.h:29:10 @[ ./include/sodium/private/common.h:87:5 @[ crypto_aead/chacha20poly1305/aead_chacha20poly1305.c:190:5 ] ]
	movq	%r15, 40(%rsp)
	leaq	40(%rsp), %r15
.Ltmp93:
	.loc	1 191 5                         # crypto_aead/chacha20poly1305/aead_chacha20poly1305.c:191:5
	movl	$8, %edx
	movq	%r14, %rdi
	movq	%r15, %rsi
	callq	crypto_onetimeauth_poly1305_update@PLT
.Ltmp94:
	.loc	1 194 5                         # crypto_aead/chacha20poly1305/aead_chacha20poly1305.c:194:5
	movq	%r14, %rdi
	movq	%r12, %rsi
	movq	%rbx, %rdx
	callq	crypto_onetimeauth_poly1305_update@PLT
.Ltmp95:
	#DEBUG_VALUE: store64_le:dst <- [DW_OP_plus_uconst 40, DW_OP_stack_value] $rsp
	#DEBUG_VALUE: memcpy:__dest <- [DW_OP_plus_uconst 40, DW_OP_stack_value] $rsp
	#DEBUG_VALUE: memcpy:__len <- 8
	.loc	4 29 10                         # /usr/include/x86_64-linux-gnu/bits/string_fortified.h:29:10 @[ ./include/sodium/private/common.h:87:5 @[ crypto_aead/chacha20poly1305/aead_chacha20poly1305.c:195:5 ] ]
	movq	%rbx, 40(%rsp)
.Ltmp96:
	.loc	1 196 5                         # crypto_aead/chacha20poly1305/aead_chacha20poly1305.c:196:5
	movl	$8, %edx
	movq	%r14, %rdi
	movq	%r15, %rsi
	callq	crypto_onetimeauth_poly1305_update@PLT
.Ltmp97:
	.loc	1 0 5 is_stmt 0                 # crypto_aead/chacha20poly1305/aead_chacha20poly1305.c:0:5
	leaq	16(%rsp), %r15
	.loc	1 198 5 is_stmt 1               # crypto_aead/chacha20poly1305/aead_chacha20poly1305.c:198:5
	movq	%r14, %rdi
	movq	%r15, %rsi
	callq	crypto_onetimeauth_poly1305_final@PLT
.Ltmp98:
	.loc	1 199 5                         # crypto_aead/chacha20poly1305/aead_chacha20poly1305.c:199:5
	movl	$256, %esi                      # imm = 0x100
	movq	%r14, %rdi
	callq	sodium_memzero@PLT
.Ltmp99:
	.loc	1 202 11                        # crypto_aead/chacha20poly1305/aead_chacha20poly1305.c:202:11
	movq	%r15, %rdi
	movq	(%rsp), %rsi                    # 8-byte Reload
	callq	crypto_verify_16@PLT
.Ltmp100:
	movl	%eax, %ebp
.Ltmp101:
	#DEBUG_VALUE: crypto_aead_chacha20poly1305_decrypt_detached:ad <- [DW_OP_LLVM_entry_value 1] $r9
	#DEBUG_VALUE: crypto_aead_chacha20poly1305_decrypt_detached:ret <- $ebp
	.loc	1 203 5                         # crypto_aead/chacha20poly1305/aead_chacha20poly1305.c:203:5
	movl	$16, %esi
	movq	%r15, %rdi
	callq	sodium_memzero@PLT
.Ltmp102:
	.loc	1 0 5 is_stmt 0                 # crypto_aead/chacha20poly1305/aead_chacha20poly1305.c:0:5
	movq	8(%rsp), %rdi                   # 8-byte Reload
.Ltmp103:
	.loc	1 204 11 is_stmt 1              # crypto_aead/chacha20poly1305/aead_chacha20poly1305.c:204:11
	testq	%rdi, %rdi
	je	.LBB4_4
.Ltmp104:
# %bb.1:
	#DEBUG_VALUE: crypto_aead_chacha20poly1305_decrypt_detached:m <- [DW_OP_plus_uconst 8] [$rsp+0]
	#DEBUG_VALUE: crypto_aead_chacha20poly1305_decrypt_detached:c <- $r12
	#DEBUG_VALUE: crypto_aead_chacha20poly1305_decrypt_detached:clen <- $rbx
	#DEBUG_VALUE: crypto_aead_chacha20poly1305_decrypt_detached:mac <- [$rsp+0]
	#DEBUG_VALUE: crypto_aead_chacha20poly1305_decrypt_detached:ad <- [DW_OP_LLVM_entry_value 1] $r9
	#DEBUG_VALUE: crypto_aead_chacha20poly1305_decrypt_detached:adlen <- [DW_OP_plus_uconst 432] [$rsp+0]
	#DEBUG_VALUE: crypto_aead_chacha20poly1305_decrypt_detached:npub <- [DW_OP_plus_uconst 440] [$rsp+0]
	#DEBUG_VALUE: crypto_aead_chacha20poly1305_decrypt_detached:k <- [DW_OP_plus_uconst 448] [$rsp+0]
	#DEBUG_VALUE: crypto_aead_chacha20poly1305_decrypt_detached:mlen <- $rbx
	#DEBUG_VALUE: crypto_aead_chacha20poly1305_decrypt_detached:ret <- $ebp
	.loc	1 207 13                        # crypto_aead/chacha20poly1305/aead_chacha20poly1305.c:207:13
	testl	%ebp, %ebp
	je	.LBB4_3
.Ltmp105:
# %bb.2:
	#DEBUG_VALUE: crypto_aead_chacha20poly1305_decrypt_detached:m <- [DW_OP_plus_uconst 8] [$rsp+0]
	#DEBUG_VALUE: crypto_aead_chacha20poly1305_decrypt_detached:c <- $r12
	#DEBUG_VALUE: crypto_aead_chacha20poly1305_decrypt_detached:clen <- $rbx
	#DEBUG_VALUE: crypto_aead_chacha20poly1305_decrypt_detached:mac <- [$rsp+0]
	#DEBUG_VALUE: crypto_aead_chacha20poly1305_decrypt_detached:ad <- [DW_OP_LLVM_entry_value 1] $r9
	#DEBUG_VALUE: crypto_aead_chacha20poly1305_decrypt_detached:adlen <- [DW_OP_plus_uconst 432] [$rsp+0]
	#DEBUG_VALUE: crypto_aead_chacha20poly1305_decrypt_detached:npub <- [DW_OP_plus_uconst 440] [$rsp+0]
	#DEBUG_VALUE: crypto_aead_chacha20poly1305_decrypt_detached:k <- [DW_OP_plus_uconst 448] [$rsp+0]
	#DEBUG_VALUE: crypto_aead_chacha20poly1305_decrypt_detached:mlen <- $rbx
	#DEBUG_VALUE: crypto_aead_chacha20poly1305_decrypt_detached:ret <- $ebp
	#DEBUG_VALUE: memset:__dest <- [DW_OP_plus_uconst 8, DW_OP_deref] $rsp
	#DEBUG_VALUE: memset:__ch <- 0
	#DEBUG_VALUE: memset:__len <- $rbx
	.loc	4 59 10                         # /usr/include/x86_64-linux-gnu/bits/string_fortified.h:59:10 @[ crypto_aead/chacha20poly1305/aead_chacha20poly1305.c:208:9 ]
	xorl	%esi, %esi
	movq	%rbx, %rdx
	callq	memset@PLT
.Ltmp106:
	.loc	4 0 10 is_stmt 0                # /usr/include/x86_64-linux-gnu/bits/string_fortified.h:0:10
	movl	$-1, %ebp
.Ltmp107:
	.loc	1 209 9 is_stmt 1               # crypto_aead/chacha20poly1305/aead_chacha20poly1305.c:209:9
	jmp	.LBB4_4
.Ltmp108:
.LBB4_3:
	#DEBUG_VALUE: crypto_aead_chacha20poly1305_decrypt_detached:m <- [DW_OP_plus_uconst 8] [$rsp+0]
	#DEBUG_VALUE: crypto_aead_chacha20poly1305_decrypt_detached:c <- $r12
	#DEBUG_VALUE: crypto_aead_chacha20poly1305_decrypt_detached:clen <- $rbx
	#DEBUG_VALUE: crypto_aead_chacha20poly1305_decrypt_detached:mac <- [$rsp+0]
	#DEBUG_VALUE: crypto_aead_chacha20poly1305_decrypt_detached:ad <- [DW_OP_LLVM_entry_value 1] $r9
	#DEBUG_VALUE: crypto_aead_chacha20poly1305_decrypt_detached:adlen <- [DW_OP_plus_uconst 432] [$rsp+0]
	#DEBUG_VALUE: crypto_aead_chacha20poly1305_decrypt_detached:npub <- [DW_OP_plus_uconst 440] [$rsp+0]
	#DEBUG_VALUE: crypto_aead_chacha20poly1305_decrypt_detached:k <- [DW_OP_plus_uconst 448] [$rsp+0]
	#DEBUG_VALUE: crypto_aead_chacha20poly1305_decrypt_detached:mlen <- $rbx
	#DEBUG_VALUE: crypto_aead_chacha20poly1305_decrypt_detached:ret <- $ebp
	.loc	1 211 5                         # crypto_aead/chacha20poly1305/aead_chacha20poly1305.c:211:5
	movl	$1, %r8d
	movq	%r12, %rsi
	movq	%rbx, %rdx
	movq	440(%rsp), %rcx
	movq	448(%rsp), %r9
	callq	crypto_stream_chacha20_xor_ic@PLT
.Ltmp109:
	.loc	1 0 5 is_stmt 0                 # crypto_aead/chacha20poly1305/aead_chacha20poly1305.c:0:5
	xorl	%ebp, %ebp
.Ltmp110:
.LBB4_4:
	#DEBUG_VALUE: crypto_aead_chacha20poly1305_decrypt_detached:m <- [DW_OP_plus_uconst 8] [$rsp+0]
	#DEBUG_VALUE: crypto_aead_chacha20poly1305_decrypt_detached:c <- $r12
	#DEBUG_VALUE: crypto_aead_chacha20poly1305_decrypt_detached:clen <- $rbx
	#DEBUG_VALUE: crypto_aead_chacha20poly1305_decrypt_detached:mac <- [$rsp+0]
	#DEBUG_VALUE: crypto_aead_chacha20poly1305_decrypt_detached:ad <- [DW_OP_LLVM_entry_value 1] $r9
	#DEBUG_VALUE: crypto_aead_chacha20poly1305_decrypt_detached:adlen <- [DW_OP_plus_uconst 432] [$rsp+0]
	#DEBUG_VALUE: crypto_aead_chacha20poly1305_decrypt_detached:npub <- [DW_OP_plus_uconst 440] [$rsp+0]
	#DEBUG_VALUE: crypto_aead_chacha20poly1305_decrypt_detached:k <- [DW_OP_plus_uconst 448] [$rsp+0]
	#DEBUG_VALUE: crypto_aead_chacha20poly1305_decrypt_detached:mlen <- $rbx
	.loc	1 214 1 is_stmt 1               # crypto_aead/chacha20poly1305/aead_chacha20poly1305.c:214:1
	movq	%fs:40, %rax
	cmpq	368(%rsp), %rax
	jne	.LBB4_6
.Ltmp111:
# %bb.5:                                # %SP_return
	#DEBUG_VALUE: crypto_aead_chacha20poly1305_decrypt_detached:m <- [DW_OP_plus_uconst 8] [$rsp+0]
	#DEBUG_VALUE: crypto_aead_chacha20poly1305_decrypt_detached:c <- $r12
	#DEBUG_VALUE: crypto_aead_chacha20poly1305_decrypt_detached:clen <- $rbx
	#DEBUG_VALUE: crypto_aead_chacha20poly1305_decrypt_detached:mac <- [$rsp+0]
	#DEBUG_VALUE: crypto_aead_chacha20poly1305_decrypt_detached:ad <- [DW_OP_LLVM_entry_value 1] $r9
	#DEBUG_VALUE: crypto_aead_chacha20poly1305_decrypt_detached:adlen <- [DW_OP_plus_uconst 432] [$rsp+0]
	#DEBUG_VALUE: crypto_aead_chacha20poly1305_decrypt_detached:npub <- [DW_OP_plus_uconst 440] [$rsp+0]
	#DEBUG_VALUE: crypto_aead_chacha20poly1305_decrypt_detached:k <- [DW_OP_plus_uconst 448] [$rsp+0]
	#DEBUG_VALUE: crypto_aead_chacha20poly1305_decrypt_detached:mlen <- $rbx
	movl	%ebp, %eax
	.loc	1 214 1 epilogue_begin is_stmt 0 # crypto_aead/chacha20poly1305/aead_chacha20poly1305.c:214:1
	addq	$376, %rsp                      # imm = 0x178
	.cfi_def_cfa_offset 56
	popq	%rbx
.Ltmp112:
	#DEBUG_VALUE: crypto_aead_chacha20poly1305_decrypt_detached:clen <- [DW_OP_LLVM_entry_value 1] $rcx
	.cfi_def_cfa_offset 48
	popq	%r12
.Ltmp113:
	#DEBUG_VALUE: crypto_aead_chacha20poly1305_decrypt_detached:c <- [DW_OP_LLVM_entry_value 1] $rdx
	.cfi_def_cfa_offset 40
	popq	%r13
	.cfi_def_cfa_offset 32
	popq	%r14
	.cfi_def_cfa_offset 24
	popq	%r15
	.cfi_def_cfa_offset 16
	popq	%rbp
	.cfi_def_cfa_offset 8
	retq
.Ltmp114:
.LBB4_6:                                # %CallStackCheckFailBlk
	.cfi_def_cfa_offset 432
	#DEBUG_VALUE: crypto_aead_chacha20poly1305_decrypt_detached:m <- [DW_OP_plus_uconst 8] [$rsp+0]
	#DEBUG_VALUE: crypto_aead_chacha20poly1305_decrypt_detached:c <- $r12
	#DEBUG_VALUE: crypto_aead_chacha20poly1305_decrypt_detached:clen <- $rbx
	#DEBUG_VALUE: crypto_aead_chacha20poly1305_decrypt_detached:mac <- [$rsp+0]
	#DEBUG_VALUE: crypto_aead_chacha20poly1305_decrypt_detached:ad <- [DW_OP_LLVM_entry_value 1] $r9
	#DEBUG_VALUE: crypto_aead_chacha20poly1305_decrypt_detached:adlen <- [DW_OP_plus_uconst 432] [$rsp+0]
	#DEBUG_VALUE: crypto_aead_chacha20poly1305_decrypt_detached:npub <- [DW_OP_plus_uconst 440] [$rsp+0]
	#DEBUG_VALUE: crypto_aead_chacha20poly1305_decrypt_detached:k <- [DW_OP_plus_uconst 448] [$rsp+0]
	#DEBUG_VALUE: crypto_aead_chacha20poly1305_decrypt_detached:mlen <- $rbx
	.loc	1 0 0                           # crypto_aead/chacha20poly1305/aead_chacha20poly1305.c:0
	callq	__stack_chk_fail@PLT
.Ltmp115:
.Lfunc_end4:
	.size	crypto_aead_chacha20poly1305_decrypt_detached, .Lfunc_end4-crypto_aead_chacha20poly1305_decrypt_detached
	.cfi_endproc
	.file	11 "./include/sodium" "crypto_verify_16.h"
                                        # -- End function
	.globl	crypto_aead_chacha20poly1305_decrypt # -- Begin function crypto_aead_chacha20poly1305_decrypt
	.p2align	4
	.type	crypto_aead_chacha20poly1305_decrypt,@function
crypto_aead_chacha20poly1305_decrypt:   # @crypto_aead_chacha20poly1305_decrypt
.Lfunc_begin5:
	.loc	1 226 0 is_stmt 1               # crypto_aead/chacha20poly1305/aead_chacha20poly1305.c:226:0
	.cfi_startproc
# %bb.0:
	#DEBUG_VALUE: crypto_aead_chacha20poly1305_decrypt:m <- $rdi
	#DEBUG_VALUE: crypto_aead_chacha20poly1305_decrypt:mlen_p <- $rsi
	#DEBUG_VALUE: crypto_aead_chacha20poly1305_decrypt:nsec <- $rdx
	#DEBUG_VALUE: crypto_aead_chacha20poly1305_decrypt:c <- $rcx
	#DEBUG_VALUE: crypto_aead_chacha20poly1305_decrypt:clen <- $r8
	#DEBUG_VALUE: crypto_aead_chacha20poly1305_decrypt:ad <- $r9
	pushq	%r14
	.cfi_def_cfa_offset 16
	pushq	%rbx
	.cfi_def_cfa_offset 24
	pushq	%rax
	.cfi_def_cfa_offset 32
	.cfi_offset %rbx, -24
	.cfi_offset %r14, -16
.Ltmp116:
	#DEBUG_VALUE: crypto_aead_chacha20poly1305_decrypt:adlen <- [DW_OP_plus_uconst 32] [$rsp+0]
	#DEBUG_VALUE: crypto_aead_chacha20poly1305_decrypt:npub <- [DW_OP_plus_uconst 40] [$rsp+0]
	#DEBUG_VALUE: crypto_aead_chacha20poly1305_decrypt:k <- [DW_OP_plus_uconst 48] [$rsp+0]
	movq	%r8, %rbx
	movq	%rsi, %r14
	movl	$-1, %eax
.Ltmp117:
	#DEBUG_VALUE: crypto_aead_chacha20poly1305_decrypt:mlen <- 0
	#DEBUG_VALUE: crypto_aead_chacha20poly1305_decrypt:ret <- -1
	.loc	1 230 14 prologue_end           # crypto_aead/chacha20poly1305/aead_chacha20poly1305.c:230:14
	cmpq	$16, %r8
	jb	.LBB5_2
.Ltmp118:
# %bb.1:
	#DEBUG_VALUE: crypto_aead_chacha20poly1305_decrypt:m <- $rdi
	#DEBUG_VALUE: crypto_aead_chacha20poly1305_decrypt:mlen_p <- $r14
	#DEBUG_VALUE: crypto_aead_chacha20poly1305_decrypt:nsec <- $rdx
	#DEBUG_VALUE: crypto_aead_chacha20poly1305_decrypt:c <- $rcx
	#DEBUG_VALUE: crypto_aead_chacha20poly1305_decrypt:clen <- $rbx
	#DEBUG_VALUE: crypto_aead_chacha20poly1305_decrypt:ad <- $r9
	#DEBUG_VALUE: crypto_aead_chacha20poly1305_decrypt:adlen <- [DW_OP_plus_uconst 32] [$rsp+0]
	#DEBUG_VALUE: crypto_aead_chacha20poly1305_decrypt:npub <- [DW_OP_plus_uconst 40] [$rsp+0]
	#DEBUG_VALUE: crypto_aead_chacha20poly1305_decrypt:k <- [DW_OP_plus_uconst 48] [$rsp+0]
	#DEBUG_VALUE: crypto_aead_chacha20poly1305_decrypt:mlen <- 0
	#DEBUG_VALUE: crypto_aead_chacha20poly1305_decrypt:ret <- -1
	.loc	1 233 22                        # crypto_aead/chacha20poly1305/aead_chacha20poly1305.c:233:22
	leaq	-16(%rbx), %rax
	.loc	1 234 23                        # crypto_aead/chacha20poly1305/aead_chacha20poly1305.c:234:23
	leaq	(%rbx,%rcx), %r8
	addq	$-16, %r8
	.loc	1 231 15                        # crypto_aead/chacha20poly1305/aead_chacha20poly1305.c:231:15
	subq	$8, %rsp
.Ltmp119:
	.cfi_adjust_cfa_offset 8
	movq	%rcx, %rdx
.Ltmp120:
	#DEBUG_VALUE: crypto_aead_chacha20poly1305_decrypt:nsec <- [DW_OP_LLVM_entry_value 1] $rdx
	movq	%rax, %rcx
.Ltmp121:
	#DEBUG_VALUE: crypto_aead_chacha20poly1305_decrypt:c <- $rdx
	pushq	56(%rsp)
	.cfi_adjust_cfa_offset 8
	pushq	56(%rsp)
	.cfi_adjust_cfa_offset 8
	pushq	56(%rsp)
	.cfi_adjust_cfa_offset 8
	callq	crypto_aead_chacha20poly1305_decrypt_detached
.Ltmp122:
	#DEBUG_VALUE: crypto_aead_chacha20poly1305_decrypt:ad <- [DW_OP_LLVM_entry_value 1] $r9
	#DEBUG_VALUE: crypto_aead_chacha20poly1305_decrypt:c <- [DW_OP_LLVM_entry_value 1] $rcx
	#DEBUG_VALUE: crypto_aead_chacha20poly1305_decrypt:nsec <- [DW_OP_LLVM_entry_value 1] $rcx
	#DEBUG_VALUE: crypto_aead_chacha20poly1305_decrypt:m <- [DW_OP_LLVM_entry_value 1] $rdi
	#DEBUG_VALUE: crypto_aead_chacha20poly1305_decrypt:ret <- $eax
	addq	$32, %rsp
.Ltmp123:
	.cfi_adjust_cfa_offset -32
.LBB5_2:
	#DEBUG_VALUE: crypto_aead_chacha20poly1305_decrypt:m <- [DW_OP_LLVM_entry_value 1] $rdi
	#DEBUG_VALUE: crypto_aead_chacha20poly1305_decrypt:mlen_p <- $r14
	#DEBUG_VALUE: crypto_aead_chacha20poly1305_decrypt:nsec <- [DW_OP_LLVM_entry_value 1] $rdx
	#DEBUG_VALUE: crypto_aead_chacha20poly1305_decrypt:c <- [DW_OP_LLVM_entry_value 1] $rcx
	#DEBUG_VALUE: crypto_aead_chacha20poly1305_decrypt:clen <- $rbx
	#DEBUG_VALUE: crypto_aead_chacha20poly1305_decrypt:ad <- [DW_OP_LLVM_entry_value 1] $r9
	#DEBUG_VALUE: crypto_aead_chacha20poly1305_decrypt:mlen <- 0
	#DEBUG_VALUE: crypto_aead_chacha20poly1305_decrypt:ret <- $eax
	.loc	1 237 16                        # crypto_aead/chacha20poly1305/aead_chacha20poly1305.c:237:16
	testq	%r14, %r14
	je	.LBB5_4
.Ltmp124:
# %bb.3:
	#DEBUG_VALUE: crypto_aead_chacha20poly1305_decrypt:m <- [DW_OP_LLVM_entry_value 1] $rdi
	#DEBUG_VALUE: crypto_aead_chacha20poly1305_decrypt:mlen_p <- $r14
	#DEBUG_VALUE: crypto_aead_chacha20poly1305_decrypt:nsec <- [DW_OP_LLVM_entry_value 1] $rdx
	#DEBUG_VALUE: crypto_aead_chacha20poly1305_decrypt:c <- [DW_OP_LLVM_entry_value 1] $rcx
	#DEBUG_VALUE: crypto_aead_chacha20poly1305_decrypt:clen <- $rbx
	#DEBUG_VALUE: crypto_aead_chacha20poly1305_decrypt:ad <- [DW_OP_LLVM_entry_value 1] $r9
	#DEBUG_VALUE: crypto_aead_chacha20poly1305_decrypt:mlen <- 0
	#DEBUG_VALUE: crypto_aead_chacha20poly1305_decrypt:ret <- $eax
	.loc	1 0 16 is_stmt 0                # crypto_aead/chacha20poly1305/aead_chacha20poly1305.c:0:16
	addq	$-16, %rbx
.Ltmp125:
	#DEBUG_VALUE: crypto_aead_chacha20poly1305_decrypt:clen <- [DW_OP_LLVM_entry_value 1] $r8
	xorl	%ecx, %ecx
.Ltmp126:
	.loc	1 238 17 is_stmt 1              # crypto_aead/chacha20poly1305/aead_chacha20poly1305.c:238:17
	testl	%eax, %eax
	cmoveq	%rbx, %rcx
.Ltmp127:
	#DEBUG_VALUE: crypto_aead_chacha20poly1305_decrypt:mlen <- $rcx
	.loc	1 241 17                        # crypto_aead/chacha20poly1305/aead_chacha20poly1305.c:241:17
	movq	%rcx, (%r14)
.Ltmp128:
.LBB5_4:
	#DEBUG_VALUE: crypto_aead_chacha20poly1305_decrypt:m <- [DW_OP_LLVM_entry_value 1] $rdi
	#DEBUG_VALUE: crypto_aead_chacha20poly1305_decrypt:mlen_p <- $r14
	#DEBUG_VALUE: crypto_aead_chacha20poly1305_decrypt:nsec <- [DW_OP_LLVM_entry_value 1] $rdx
	#DEBUG_VALUE: crypto_aead_chacha20poly1305_decrypt:c <- [DW_OP_LLVM_entry_value 1] $rcx
	#DEBUG_VALUE: crypto_aead_chacha20poly1305_decrypt:clen <- [DW_OP_LLVM_entry_value 1] $r8
	#DEBUG_VALUE: crypto_aead_chacha20poly1305_decrypt:ad <- [DW_OP_LLVM_entry_value 1] $r9
	#DEBUG_VALUE: crypto_aead_chacha20poly1305_decrypt:ret <- $eax
	.loc	1 243 5 epilogue_begin          # crypto_aead/chacha20poly1305/aead_chacha20poly1305.c:243:5
	addq	$8, %rsp
	.cfi_def_cfa_offset 24
	popq	%rbx
	.cfi_def_cfa_offset 16
	popq	%r14
.Ltmp129:
	#DEBUG_VALUE: crypto_aead_chacha20poly1305_decrypt:mlen_p <- [DW_OP_LLVM_entry_value 1] $rsi
	.cfi_def_cfa_offset 8
	retq
.Ltmp130:
.Lfunc_end5:
	.size	crypto_aead_chacha20poly1305_decrypt, .Lfunc_end5-crypto_aead_chacha20poly1305_decrypt
	.cfi_endproc
                                        # -- End function
	.globl	crypto_aead_chacha20poly1305_ietf_decrypt_detached # -- Begin function crypto_aead_chacha20poly1305_ietf_decrypt_detached
	.p2align	4
	.type	crypto_aead_chacha20poly1305_ietf_decrypt_detached,@function
crypto_aead_chacha20poly1305_ietf_decrypt_detached: # @crypto_aead_chacha20poly1305_ietf_decrypt_detached
.Lfunc_begin6:
	.loc	1 256 0                         # crypto_aead/chacha20poly1305/aead_chacha20poly1305.c:256:0
	.cfi_startproc
# %bb.0:
	#DEBUG_VALUE: crypto_aead_chacha20poly1305_ietf_decrypt_detached:m <- $rdi
	#DEBUG_VALUE: crypto_aead_chacha20poly1305_ietf_decrypt_detached:c <- $rdx
	#DEBUG_VALUE: crypto_aead_chacha20poly1305_ietf_decrypt_detached:clen <- $rcx
	#DEBUG_VALUE: crypto_aead_chacha20poly1305_ietf_decrypt_detached:mac <- $r8
	#DEBUG_VALUE: crypto_aead_chacha20poly1305_ietf_decrypt_detached:ad <- $r9
	pushq	%rbp
	.cfi_def_cfa_offset 16
	pushq	%r15
	.cfi_def_cfa_offset 24
	pushq	%r14
	.cfi_def_cfa_offset 32
	pushq	%r13
	.cfi_def_cfa_offset 40
	pushq	%r12
	.cfi_def_cfa_offset 48
	pushq	%rbx
	.cfi_def_cfa_offset 56
	subq	$376, %rsp                      # imm = 0x178
	.cfi_def_cfa_offset 432
	.cfi_offset %rbx, -56
	.cfi_offset %r12, -48
	.cfi_offset %r13, -40
	.cfi_offset %r14, -32
	.cfi_offset %r15, -24
	.cfi_offset %rbp, -16
.Ltmp131:
	#DEBUG_VALUE: crypto_aead_chacha20poly1305_ietf_decrypt_detached:adlen <- [DW_OP_plus_uconst 432] [$rsp+0]
	#DEBUG_VALUE: crypto_aead_chacha20poly1305_ietf_decrypt_detached:npub <- [DW_OP_plus_uconst 440] [$rsp+0]
	#DEBUG_VALUE: crypto_aead_chacha20poly1305_ietf_decrypt_detached:k <- [DW_OP_plus_uconst 448] [$rsp+0]
	movq	%r9, %rbp
	movq	%r8, (%rsp)                     # 8-byte Spill
.Ltmp132:
	#DEBUG_VALUE: crypto_aead_chacha20poly1305_ietf_decrypt_detached:mac <- [$rsp+0]
	movq	%rcx, %rbx
	movq	%rdx, %r13
	movq	%rdi, 8(%rsp)                   # 8-byte Spill
.Ltmp133:
	#DEBUG_VALUE: crypto_aead_chacha20poly1305_ietf_decrypt_detached:m <- [DW_OP_plus_uconst 8] [$rsp+0]
	movq	448(%rsp), %rcx
.Ltmp134:
	#DEBUG_VALUE: crypto_aead_chacha20poly1305_ietf_decrypt_detached:clen <- $rbx
	movq	440(%rsp), %rdx
.Ltmp135:
	#DEBUG_VALUE: crypto_aead_chacha20poly1305_ietf_decrypt_detached:c <- $r13
	#DEBUG_VALUE: crypto_aead_chacha20poly1305_ietf_decrypt_detached:mlen <- $rbx
	movq	432(%rsp), %r12
	movq	%fs:40, %rax
	movq	%rax, 368(%rsp)
	leaq	48(%rsp), %r15
.Ltmp136:
	.loc	1 265 5 prologue_end            # crypto_aead/chacha20poly1305/aead_chacha20poly1305.c:265:5
	movl	$64, %esi
	movq	%r15, %rdi
	callq	crypto_stream_chacha20_ietf@PLT
.Ltmp137:
	#DEBUG_VALUE: crypto_aead_chacha20poly1305_ietf_decrypt_detached:ad <- $rbp
	.loc	1 0 5 is_stmt 0                 # crypto_aead/chacha20poly1305/aead_chacha20poly1305.c:0:5
	leaq	112(%rsp), %r14
	.loc	1 266 5 is_stmt 1               # crypto_aead/chacha20poly1305/aead_chacha20poly1305.c:266:5
	movq	%r14, %rdi
	movq	%r15, %rsi
	callq	crypto_onetimeauth_poly1305_init@PLT
.Ltmp138:
	.loc	1 267 5                         # crypto_aead/chacha20poly1305/aead_chacha20poly1305.c:267:5
	movl	$64, %esi
	movq	%r15, %rdi
	callq	sodium_memzero@PLT
.Ltmp139:
	.loc	1 269 5                         # crypto_aead/chacha20poly1305/aead_chacha20poly1305.c:269:5
	movq	%r14, %rdi
	movq	%rbp, %rsi
	movq	%r12, %rdx
	callq	crypto_onetimeauth_poly1305_update@PLT
.Ltmp140:
	.loc	1 270 61                        # crypto_aead/chacha20poly1305/aead_chacha20poly1305.c:270:61
	movl	%r12d, %edx
	negl	%edx
	.loc	1 270 70 is_stmt 0              # crypto_aead/chacha20poly1305/aead_chacha20poly1305.c:270:70
	andl	$15, %edx
	.loc	1 270 5                         # crypto_aead/chacha20poly1305/aead_chacha20poly1305.c:270:5
	leaq	_pad0(%rip), %r15
	movq	%r14, %rdi
	movq	%r15, %rsi
	callq	crypto_onetimeauth_poly1305_update@PLT
.Ltmp141:
	.loc	1 273 5 is_stmt 1               # crypto_aead/chacha20poly1305/aead_chacha20poly1305.c:273:5
	movq	%r14, %rdi
	movq	%r13, %rsi
	movq	%rbx, %rdx
	callq	crypto_onetimeauth_poly1305_update@PLT
.Ltmp142:
	.loc	1 274 61                        # crypto_aead/chacha20poly1305/aead_chacha20poly1305.c:274:61
	movl	%ebx, %edx
	negl	%edx
	.loc	1 274 69 is_stmt 0              # crypto_aead/chacha20poly1305/aead_chacha20poly1305.c:274:69
	andl	$15, %edx
	.loc	1 274 5                         # crypto_aead/chacha20poly1305/aead_chacha20poly1305.c:274:5
	movq	%r14, %rdi
	movq	%r15, %rsi
	callq	crypto_onetimeauth_poly1305_update@PLT
.Ltmp143:
	#DEBUG_VALUE: store64_le:dst <- [DW_OP_plus_uconst 40, DW_OP_stack_value] $rsp
	#DEBUG_VALUE: memcpy:__dest <- [DW_OP_plus_uconst 40, DW_OP_stack_value] $rsp
	#DEBUG_VALUE: memcpy:__len <- 8
	.loc	4 29 10 is_stmt 1               # /usr/include/x86_64-linux-gnu/bits/string_fortified.h:29:10 @[ ./include/sodium/private/common.h:87:5 @[ crypto_aead/chacha20poly1305/aead_chacha20poly1305.c:276:5 ] ]
	movq	%r12, 40(%rsp)
	leaq	40(%rsp), %r15
.Ltmp144:
	.loc	1 277 5                         # crypto_aead/chacha20poly1305/aead_chacha20poly1305.c:277:5
	movl	$8, %edx
	movq	%r14, %rdi
	movq	%r15, %rsi
	callq	crypto_onetimeauth_poly1305_update@PLT
.Ltmp145:
	#DEBUG_VALUE: store64_le:dst <- [DW_OP_plus_uconst 40, DW_OP_stack_value] $rsp
	#DEBUG_VALUE: memcpy:__dest <- [DW_OP_plus_uconst 40, DW_OP_stack_value] $rsp
	#DEBUG_VALUE: memcpy:__len <- 8
	.loc	4 29 10                         # /usr/include/x86_64-linux-gnu/bits/string_fortified.h:29:10 @[ ./include/sodium/private/common.h:87:5 @[ crypto_aead/chacha20poly1305/aead_chacha20poly1305.c:279:5 ] ]
	movq	%rbx, 40(%rsp)
.Ltmp146:
	.loc	1 280 5                         # crypto_aead/chacha20poly1305/aead_chacha20poly1305.c:280:5
	movl	$8, %edx
	movq	%r14, %rdi
	movq	%r15, %rsi
	callq	crypto_onetimeauth_poly1305_update@PLT
.Ltmp147:
	.loc	1 0 5 is_stmt 0                 # crypto_aead/chacha20poly1305/aead_chacha20poly1305.c:0:5
	leaq	16(%rsp), %r15
	.loc	1 282 5 is_stmt 1               # crypto_aead/chacha20poly1305/aead_chacha20poly1305.c:282:5
	movq	%r14, %rdi
	movq	%r15, %rsi
	callq	crypto_onetimeauth_poly1305_final@PLT
.Ltmp148:
	.loc	1 283 5                         # crypto_aead/chacha20poly1305/aead_chacha20poly1305.c:283:5
	movl	$256, %esi                      # imm = 0x100
	movq	%r14, %rdi
	callq	sodium_memzero@PLT
.Ltmp149:
	.loc	1 286 11                        # crypto_aead/chacha20poly1305/aead_chacha20poly1305.c:286:11
	movq	%r15, %rdi
	movq	(%rsp), %rsi                    # 8-byte Reload
	callq	crypto_verify_16@PLT
.Ltmp150:
	movl	%eax, %ebp
.Ltmp151:
	#DEBUG_VALUE: crypto_aead_chacha20poly1305_ietf_decrypt_detached:ad <- [DW_OP_LLVM_entry_value 1] $r9
	#DEBUG_VALUE: crypto_aead_chacha20poly1305_ietf_decrypt_detached:ret <- $ebp
	.loc	1 287 5                         # crypto_aead/chacha20poly1305/aead_chacha20poly1305.c:287:5
	movl	$16, %esi
	movq	%r15, %rdi
	callq	sodium_memzero@PLT
.Ltmp152:
	.loc	1 0 5 is_stmt 0                 # crypto_aead/chacha20poly1305/aead_chacha20poly1305.c:0:5
	movq	8(%rsp), %rdi                   # 8-byte Reload
.Ltmp153:
	.loc	1 288 11 is_stmt 1              # crypto_aead/chacha20poly1305/aead_chacha20poly1305.c:288:11
	testq	%rdi, %rdi
	je	.LBB6_4
.Ltmp154:
# %bb.1:
	#DEBUG_VALUE: crypto_aead_chacha20poly1305_ietf_decrypt_detached:m <- [DW_OP_plus_uconst 8] [$rsp+0]
	#DEBUG_VALUE: crypto_aead_chacha20poly1305_ietf_decrypt_detached:c <- $r13
	#DEBUG_VALUE: crypto_aead_chacha20poly1305_ietf_decrypt_detached:clen <- $rbx
	#DEBUG_VALUE: crypto_aead_chacha20poly1305_ietf_decrypt_detached:mac <- [$rsp+0]
	#DEBUG_VALUE: crypto_aead_chacha20poly1305_ietf_decrypt_detached:ad <- [DW_OP_LLVM_entry_value 1] $r9
	#DEBUG_VALUE: crypto_aead_chacha20poly1305_ietf_decrypt_detached:adlen <- [DW_OP_plus_uconst 432] [$rsp+0]
	#DEBUG_VALUE: crypto_aead_chacha20poly1305_ietf_decrypt_detached:npub <- [DW_OP_plus_uconst 440] [$rsp+0]
	#DEBUG_VALUE: crypto_aead_chacha20poly1305_ietf_decrypt_detached:k <- [DW_OP_plus_uconst 448] [$rsp+0]
	#DEBUG_VALUE: crypto_aead_chacha20poly1305_ietf_decrypt_detached:mlen <- $rbx
	#DEBUG_VALUE: crypto_aead_chacha20poly1305_ietf_decrypt_detached:ret <- $ebp
	.loc	1 291 13                        # crypto_aead/chacha20poly1305/aead_chacha20poly1305.c:291:13
	testl	%ebp, %ebp
	je	.LBB6_3
.Ltmp155:
# %bb.2:
	#DEBUG_VALUE: crypto_aead_chacha20poly1305_ietf_decrypt_detached:m <- [DW_OP_plus_uconst 8] [$rsp+0]
	#DEBUG_VALUE: crypto_aead_chacha20poly1305_ietf_decrypt_detached:c <- $r13
	#DEBUG_VALUE: crypto_aead_chacha20poly1305_ietf_decrypt_detached:clen <- $rbx
	#DEBUG_VALUE: crypto_aead_chacha20poly1305_ietf_decrypt_detached:mac <- [$rsp+0]
	#DEBUG_VALUE: crypto_aead_chacha20poly1305_ietf_decrypt_detached:ad <- [DW_OP_LLVM_entry_value 1] $r9
	#DEBUG_VALUE: crypto_aead_chacha20poly1305_ietf_decrypt_detached:adlen <- [DW_OP_plus_uconst 432] [$rsp+0]
	#DEBUG_VALUE: crypto_aead_chacha20poly1305_ietf_decrypt_detached:npub <- [DW_OP_plus_uconst 440] [$rsp+0]
	#DEBUG_VALUE: crypto_aead_chacha20poly1305_ietf_decrypt_detached:k <- [DW_OP_plus_uconst 448] [$rsp+0]
	#DEBUG_VALUE: crypto_aead_chacha20poly1305_ietf_decrypt_detached:mlen <- $rbx
	#DEBUG_VALUE: crypto_aead_chacha20poly1305_ietf_decrypt_detached:ret <- $ebp
	#DEBUG_VALUE: memset:__dest <- [DW_OP_plus_uconst 8, DW_OP_deref] $rsp
	#DEBUG_VALUE: memset:__ch <- 0
	#DEBUG_VALUE: memset:__len <- $rbx
	.loc	4 59 10                         # /usr/include/x86_64-linux-gnu/bits/string_fortified.h:59:10 @[ crypto_aead/chacha20poly1305/aead_chacha20poly1305.c:292:9 ]
	xorl	%esi, %esi
	movq	%rbx, %rdx
	callq	memset@PLT
.Ltmp156:
	.loc	4 0 10 is_stmt 0                # /usr/include/x86_64-linux-gnu/bits/string_fortified.h:0:10
	movl	$-1, %ebp
.Ltmp157:
	.loc	1 293 9 is_stmt 1               # crypto_aead/chacha20poly1305/aead_chacha20poly1305.c:293:9
	jmp	.LBB6_4
.Ltmp158:
.LBB6_3:
	#DEBUG_VALUE: crypto_aead_chacha20poly1305_ietf_decrypt_detached:m <- [DW_OP_plus_uconst 8] [$rsp+0]
	#DEBUG_VALUE: crypto_aead_chacha20poly1305_ietf_decrypt_detached:c <- $r13
	#DEBUG_VALUE: crypto_aead_chacha20poly1305_ietf_decrypt_detached:clen <- $rbx
	#DEBUG_VALUE: crypto_aead_chacha20poly1305_ietf_decrypt_detached:mac <- [$rsp+0]
	#DEBUG_VALUE: crypto_aead_chacha20poly1305_ietf_decrypt_detached:ad <- [DW_OP_LLVM_entry_value 1] $r9
	#DEBUG_VALUE: crypto_aead_chacha20poly1305_ietf_decrypt_detached:adlen <- [DW_OP_plus_uconst 432] [$rsp+0]
	#DEBUG_VALUE: crypto_aead_chacha20poly1305_ietf_decrypt_detached:npub <- [DW_OP_plus_uconst 440] [$rsp+0]
	#DEBUG_VALUE: crypto_aead_chacha20poly1305_ietf_decrypt_detached:k <- [DW_OP_plus_uconst 448] [$rsp+0]
	#DEBUG_VALUE: crypto_aead_chacha20poly1305_ietf_decrypt_detached:mlen <- $rbx
	#DEBUG_VALUE: crypto_aead_chacha20poly1305_ietf_decrypt_detached:ret <- $ebp
	.loc	1 295 5                         # crypto_aead/chacha20poly1305/aead_chacha20poly1305.c:295:5
	movq	%r13, %rsi
	movq	%rbx, %rdx
	movq	440(%rsp), %rcx
	movl	$1, %r8d
	movq	448(%rsp), %r9
	callq	crypto_stream_chacha20_ietf_xor_ic@PLT
.Ltmp159:
	.loc	1 0 5 is_stmt 0                 # crypto_aead/chacha20poly1305/aead_chacha20poly1305.c:0:5
	xorl	%ebp, %ebp
.Ltmp160:
.LBB6_4:
	#DEBUG_VALUE: crypto_aead_chacha20poly1305_ietf_decrypt_detached:m <- [DW_OP_plus_uconst 8] [$rsp+0]
	#DEBUG_VALUE: crypto_aead_chacha20poly1305_ietf_decrypt_detached:c <- $r13
	#DEBUG_VALUE: crypto_aead_chacha20poly1305_ietf_decrypt_detached:clen <- $rbx
	#DEBUG_VALUE: crypto_aead_chacha20poly1305_ietf_decrypt_detached:mac <- [$rsp+0]
	#DEBUG_VALUE: crypto_aead_chacha20poly1305_ietf_decrypt_detached:ad <- [DW_OP_LLVM_entry_value 1] $r9
	#DEBUG_VALUE: crypto_aead_chacha20poly1305_ietf_decrypt_detached:adlen <- [DW_OP_plus_uconst 432] [$rsp+0]
	#DEBUG_VALUE: crypto_aead_chacha20poly1305_ietf_decrypt_detached:npub <- [DW_OP_plus_uconst 440] [$rsp+0]
	#DEBUG_VALUE: crypto_aead_chacha20poly1305_ietf_decrypt_detached:k <- [DW_OP_plus_uconst 448] [$rsp+0]
	#DEBUG_VALUE: crypto_aead_chacha20poly1305_ietf_decrypt_detached:mlen <- $rbx
	.loc	1 298 1 is_stmt 1               # crypto_aead/chacha20poly1305/aead_chacha20poly1305.c:298:1
	movq	%fs:40, %rax
	cmpq	368(%rsp), %rax
	jne	.LBB6_6
.Ltmp161:
# %bb.5:                                # %SP_return
	#DEBUG_VALUE: crypto_aead_chacha20poly1305_ietf_decrypt_detached:m <- [DW_OP_plus_uconst 8] [$rsp+0]
	#DEBUG_VALUE: crypto_aead_chacha20poly1305_ietf_decrypt_detached:c <- $r13
	#DEBUG_VALUE: crypto_aead_chacha20poly1305_ietf_decrypt_detached:clen <- $rbx
	#DEBUG_VALUE: crypto_aead_chacha20poly1305_ietf_decrypt_detached:mac <- [$rsp+0]
	#DEBUG_VALUE: crypto_aead_chacha20poly1305_ietf_decrypt_detached:ad <- [DW_OP_LLVM_entry_value 1] $r9
	#DEBUG_VALUE: crypto_aead_chacha20poly1305_ietf_decrypt_detached:adlen <- [DW_OP_plus_uconst 432] [$rsp+0]
	#DEBUG_VALUE: crypto_aead_chacha20poly1305_ietf_decrypt_detached:npub <- [DW_OP_plus_uconst 440] [$rsp+0]
	#DEBUG_VALUE: crypto_aead_chacha20poly1305_ietf_decrypt_detached:k <- [DW_OP_plus_uconst 448] [$rsp+0]
	#DEBUG_VALUE: crypto_aead_chacha20poly1305_ietf_decrypt_detached:mlen <- $rbx
	movl	%ebp, %eax
	.loc	1 298 1 epilogue_begin is_stmt 0 # crypto_aead/chacha20poly1305/aead_chacha20poly1305.c:298:1
	addq	$376, %rsp                      # imm = 0x178
	.cfi_def_cfa_offset 56
	popq	%rbx
.Ltmp162:
	#DEBUG_VALUE: crypto_aead_chacha20poly1305_ietf_decrypt_detached:clen <- [DW_OP_LLVM_entry_value 1] $rcx
	.cfi_def_cfa_offset 48
	popq	%r12
	.cfi_def_cfa_offset 40
	popq	%r13
.Ltmp163:
	#DEBUG_VALUE: crypto_aead_chacha20poly1305_ietf_decrypt_detached:c <- [DW_OP_LLVM_entry_value 1] $rdx
	.cfi_def_cfa_offset 32
	popq	%r14
	.cfi_def_cfa_offset 24
	popq	%r15
	.cfi_def_cfa_offset 16
	popq	%rbp
	.cfi_def_cfa_offset 8
	retq
.Ltmp164:
.LBB6_6:                                # %CallStackCheckFailBlk
	.cfi_def_cfa_offset 432
	#DEBUG_VALUE: crypto_aead_chacha20poly1305_ietf_decrypt_detached:m <- [DW_OP_plus_uconst 8] [$rsp+0]
	#DEBUG_VALUE: crypto_aead_chacha20poly1305_ietf_decrypt_detached:c <- $r13
	#DEBUG_VALUE: crypto_aead_chacha20poly1305_ietf_decrypt_detached:clen <- $rbx
	#DEBUG_VALUE: crypto_aead_chacha20poly1305_ietf_decrypt_detached:mac <- [$rsp+0]
	#DEBUG_VALUE: crypto_aead_chacha20poly1305_ietf_decrypt_detached:ad <- [DW_OP_LLVM_entry_value 1] $r9
	#DEBUG_VALUE: crypto_aead_chacha20poly1305_ietf_decrypt_detached:adlen <- [DW_OP_plus_uconst 432] [$rsp+0]
	#DEBUG_VALUE: crypto_aead_chacha20poly1305_ietf_decrypt_detached:npub <- [DW_OP_plus_uconst 440] [$rsp+0]
	#DEBUG_VALUE: crypto_aead_chacha20poly1305_ietf_decrypt_detached:k <- [DW_OP_plus_uconst 448] [$rsp+0]
	#DEBUG_VALUE: crypto_aead_chacha20poly1305_ietf_decrypt_detached:mlen <- $rbx
	.loc	1 0 0                           # crypto_aead/chacha20poly1305/aead_chacha20poly1305.c:0
	callq	__stack_chk_fail@PLT
.Ltmp165:
.Lfunc_end6:
	.size	crypto_aead_chacha20poly1305_ietf_decrypt_detached, .Lfunc_end6-crypto_aead_chacha20poly1305_ietf_decrypt_detached
	.cfi_endproc
                                        # -- End function
	.globl	crypto_aead_chacha20poly1305_ietf_decrypt # -- Begin function crypto_aead_chacha20poly1305_ietf_decrypt
	.p2align	4
	.type	crypto_aead_chacha20poly1305_ietf_decrypt,@function
crypto_aead_chacha20poly1305_ietf_decrypt: # @crypto_aead_chacha20poly1305_ietf_decrypt
.Lfunc_begin7:
	.loc	1 310 0 is_stmt 1               # crypto_aead/chacha20poly1305/aead_chacha20poly1305.c:310:0
	.cfi_startproc
# %bb.0:
	#DEBUG_VALUE: crypto_aead_chacha20poly1305_ietf_decrypt:m <- $rdi
	#DEBUG_VALUE: crypto_aead_chacha20poly1305_ietf_decrypt:mlen_p <- $rsi
	#DEBUG_VALUE: crypto_aead_chacha20poly1305_ietf_decrypt:nsec <- $rdx
	#DEBUG_VALUE: crypto_aead_chacha20poly1305_ietf_decrypt:c <- $rcx
	#DEBUG_VALUE: crypto_aead_chacha20poly1305_ietf_decrypt:clen <- $r8
	#DEBUG_VALUE: crypto_aead_chacha20poly1305_ietf_decrypt:ad <- $r9
	pushq	%r14
	.cfi_def_cfa_offset 16
	pushq	%rbx
	.cfi_def_cfa_offset 24
	pushq	%rax
	.cfi_def_cfa_offset 32
	.cfi_offset %rbx, -24
	.cfi_offset %r14, -16
.Ltmp166:
	#DEBUG_VALUE: crypto_aead_chacha20poly1305_ietf_decrypt:adlen <- [DW_OP_plus_uconst 32] [$rsp+0]
	#DEBUG_VALUE: crypto_aead_chacha20poly1305_ietf_decrypt:npub <- [DW_OP_plus_uconst 40] [$rsp+0]
	#DEBUG_VALUE: crypto_aead_chacha20poly1305_ietf_decrypt:k <- [DW_OP_plus_uconst 48] [$rsp+0]
	movq	%r8, %rbx
	movq	%rsi, %r14
	movl	$-1, %eax
.Ltmp167:
	#DEBUG_VALUE: crypto_aead_chacha20poly1305_ietf_decrypt:mlen <- 0
	#DEBUG_VALUE: crypto_aead_chacha20poly1305_ietf_decrypt:ret <- -1
	.loc	1 314 14 prologue_end           # crypto_aead/chacha20poly1305/aead_chacha20poly1305.c:314:14
	cmpq	$16, %r8
	jb	.LBB7_2
.Ltmp168:
# %bb.1:
	#DEBUG_VALUE: crypto_aead_chacha20poly1305_ietf_decrypt:m <- $rdi
	#DEBUG_VALUE: crypto_aead_chacha20poly1305_ietf_decrypt:mlen_p <- $r14
	#DEBUG_VALUE: crypto_aead_chacha20poly1305_ietf_decrypt:nsec <- $rdx
	#DEBUG_VALUE: crypto_aead_chacha20poly1305_ietf_decrypt:c <- $rcx
	#DEBUG_VALUE: crypto_aead_chacha20poly1305_ietf_decrypt:clen <- $rbx
	#DEBUG_VALUE: crypto_aead_chacha20poly1305_ietf_decrypt:ad <- $r9
	#DEBUG_VALUE: crypto_aead_chacha20poly1305_ietf_decrypt:adlen <- [DW_OP_plus_uconst 32] [$rsp+0]
	#DEBUG_VALUE: crypto_aead_chacha20poly1305_ietf_decrypt:npub <- [DW_OP_plus_uconst 40] [$rsp+0]
	#DEBUG_VALUE: crypto_aead_chacha20poly1305_ietf_decrypt:k <- [DW_OP_plus_uconst 48] [$rsp+0]
	#DEBUG_VALUE: crypto_aead_chacha20poly1305_ietf_decrypt:mlen <- 0
	#DEBUG_VALUE: crypto_aead_chacha20poly1305_ietf_decrypt:ret <- -1
	.loc	1 317 22                        # crypto_aead/chacha20poly1305/aead_chacha20poly1305.c:317:22
	leaq	-16(%rbx), %rax
	.loc	1 318 23                        # crypto_aead/chacha20poly1305/aead_chacha20poly1305.c:318:23
	leaq	(%rbx,%rcx), %r8
	addq	$-16, %r8
	.loc	1 315 15                        # crypto_aead/chacha20poly1305/aead_chacha20poly1305.c:315:15
	subq	$8, %rsp
.Ltmp169:
	.cfi_adjust_cfa_offset 8
	movq	%rcx, %rdx
.Ltmp170:
	#DEBUG_VALUE: crypto_aead_chacha20poly1305_ietf_decrypt:nsec <- [DW_OP_LLVM_entry_value 1] $rdx
	movq	%rax, %rcx
.Ltmp171:
	#DEBUG_VALUE: crypto_aead_chacha20poly1305_ietf_decrypt:c <- $rdx
	pushq	56(%rsp)
	.cfi_adjust_cfa_offset 8
	pushq	56(%rsp)
	.cfi_adjust_cfa_offset 8
	pushq	56(%rsp)
	.cfi_adjust_cfa_offset 8
	callq	crypto_aead_chacha20poly1305_ietf_decrypt_detached
.Ltmp172:
	#DEBUG_VALUE: crypto_aead_chacha20poly1305_ietf_decrypt:ad <- [DW_OP_LLVM_entry_value 1] $r9
	#DEBUG_VALUE: crypto_aead_chacha20poly1305_ietf_decrypt:c <- [DW_OP_LLVM_entry_value 1] $rcx
	#DEBUG_VALUE: crypto_aead_chacha20poly1305_ietf_decrypt:nsec <- [DW_OP_LLVM_entry_value 1] $rcx
	#DEBUG_VALUE: crypto_aead_chacha20poly1305_ietf_decrypt:m <- [DW_OP_LLVM_entry_value 1] $rdi
	#DEBUG_VALUE: crypto_aead_chacha20poly1305_ietf_decrypt:ret <- $eax
	addq	$32, %rsp
.Ltmp173:
	.cfi_adjust_cfa_offset -32
.LBB7_2:
	#DEBUG_VALUE: crypto_aead_chacha20poly1305_ietf_decrypt:m <- [DW_OP_LLVM_entry_value 1] $rdi
	#DEBUG_VALUE: crypto_aead_chacha20poly1305_ietf_decrypt:mlen_p <- $r14
	#DEBUG_VALUE: crypto_aead_chacha20poly1305_ietf_decrypt:nsec <- [DW_OP_LLVM_entry_value 1] $rdx
	#DEBUG_VALUE: crypto_aead_chacha20poly1305_ietf_decrypt:c <- [DW_OP_LLVM_entry_value 1] $rcx
	#DEBUG_VALUE: crypto_aead_chacha20poly1305_ietf_decrypt:clen <- $rbx
	#DEBUG_VALUE: crypto_aead_chacha20poly1305_ietf_decrypt:ad <- [DW_OP_LLVM_entry_value 1] $r9
	#DEBUG_VALUE: crypto_aead_chacha20poly1305_ietf_decrypt:mlen <- 0
	#DEBUG_VALUE: crypto_aead_chacha20poly1305_ietf_decrypt:ret <- $eax
	.loc	1 321 16                        # crypto_aead/chacha20poly1305/aead_chacha20poly1305.c:321:16
	testq	%r14, %r14
	je	.LBB7_4
.Ltmp174:
# %bb.3:
	#DEBUG_VALUE: crypto_aead_chacha20poly1305_ietf_decrypt:m <- [DW_OP_LLVM_entry_value 1] $rdi
	#DEBUG_VALUE: crypto_aead_chacha20poly1305_ietf_decrypt:mlen_p <- $r14
	#DEBUG_VALUE: crypto_aead_chacha20poly1305_ietf_decrypt:nsec <- [DW_OP_LLVM_entry_value 1] $rdx
	#DEBUG_VALUE: crypto_aead_chacha20poly1305_ietf_decrypt:c <- [DW_OP_LLVM_entry_value 1] $rcx
	#DEBUG_VALUE: crypto_aead_chacha20poly1305_ietf_decrypt:clen <- $rbx
	#DEBUG_VALUE: crypto_aead_chacha20poly1305_ietf_decrypt:ad <- [DW_OP_LLVM_entry_value 1] $r9
	#DEBUG_VALUE: crypto_aead_chacha20poly1305_ietf_decrypt:mlen <- 0
	#DEBUG_VALUE: crypto_aead_chacha20poly1305_ietf_decrypt:ret <- $eax
	.loc	1 0 16 is_stmt 0                # crypto_aead/chacha20poly1305/aead_chacha20poly1305.c:0:16
	addq	$-16, %rbx
.Ltmp175:
	#DEBUG_VALUE: crypto_aead_chacha20poly1305_ietf_decrypt:clen <- [DW_OP_LLVM_entry_value 1] $r8
	xorl	%ecx, %ecx
.Ltmp176:
	.loc	1 322 17 is_stmt 1              # crypto_aead/chacha20poly1305/aead_chacha20poly1305.c:322:17
	testl	%eax, %eax
	cmoveq	%rbx, %rcx
.Ltmp177:
	#DEBUG_VALUE: crypto_aead_chacha20poly1305_ietf_decrypt:mlen <- $rcx
	.loc	1 325 17                        # crypto_aead/chacha20poly1305/aead_chacha20poly1305.c:325:17
	movq	%rcx, (%r14)
.Ltmp178:
.LBB7_4:
	#DEBUG_VALUE: crypto_aead_chacha20poly1305_ietf_decrypt:m <- [DW_OP_LLVM_entry_value 1] $rdi
	#DEBUG_VALUE: crypto_aead_chacha20poly1305_ietf_decrypt:mlen_p <- $r14
	#DEBUG_VALUE: crypto_aead_chacha20poly1305_ietf_decrypt:nsec <- [DW_OP_LLVM_entry_value 1] $rdx
	#DEBUG_VALUE: crypto_aead_chacha20poly1305_ietf_decrypt:c <- [DW_OP_LLVM_entry_value 1] $rcx
	#DEBUG_VALUE: crypto_aead_chacha20poly1305_ietf_decrypt:clen <- [DW_OP_LLVM_entry_value 1] $r8
	#DEBUG_VALUE: crypto_aead_chacha20poly1305_ietf_decrypt:ad <- [DW_OP_LLVM_entry_value 1] $r9
	#DEBUG_VALUE: crypto_aead_chacha20poly1305_ietf_decrypt:ret <- $eax
	.loc	1 327 5 epilogue_begin          # crypto_aead/chacha20poly1305/aead_chacha20poly1305.c:327:5
	addq	$8, %rsp
	.cfi_def_cfa_offset 24
	popq	%rbx
	.cfi_def_cfa_offset 16
	popq	%r14
.Ltmp179:
	#DEBUG_VALUE: crypto_aead_chacha20poly1305_ietf_decrypt:mlen_p <- [DW_OP_LLVM_entry_value 1] $rsi
	.cfi_def_cfa_offset 8
	retq
.Ltmp180:
.Lfunc_end7:
	.size	crypto_aead_chacha20poly1305_ietf_decrypt, .Lfunc_end7-crypto_aead_chacha20poly1305_ietf_decrypt
	.cfi_endproc
                                        # -- End function
	.globl	crypto_aead_chacha20poly1305_ietf_keybytes # -- Begin function crypto_aead_chacha20poly1305_ietf_keybytes
	.p2align	4
	.type	crypto_aead_chacha20poly1305_ietf_keybytes,@function
crypto_aead_chacha20poly1305_ietf_keybytes: # @crypto_aead_chacha20poly1305_ietf_keybytes
.Lfunc_begin8:
	.cfi_startproc
# %bb.0:
	.loc	1 333 5 prologue_end            # crypto_aead/chacha20poly1305/aead_chacha20poly1305.c:333:5
	movl	$32, %eax
	retq
.Ltmp181:
.Lfunc_end8:
	.size	crypto_aead_chacha20poly1305_ietf_keybytes, .Lfunc_end8-crypto_aead_chacha20poly1305_ietf_keybytes
	.cfi_endproc
                                        # -- End function
	.globl	crypto_aead_chacha20poly1305_ietf_npubbytes # -- Begin function crypto_aead_chacha20poly1305_ietf_npubbytes
	.p2align	4
	.type	crypto_aead_chacha20poly1305_ietf_npubbytes,@function
crypto_aead_chacha20poly1305_ietf_npubbytes: # @crypto_aead_chacha20poly1305_ietf_npubbytes
.Lfunc_begin9:
	.cfi_startproc
# %bb.0:
	.loc	1 339 5 prologue_end            # crypto_aead/chacha20poly1305/aead_chacha20poly1305.c:339:5
	movl	$12, %eax
	retq
.Ltmp182:
.Lfunc_end9:
	.size	crypto_aead_chacha20poly1305_ietf_npubbytes, .Lfunc_end9-crypto_aead_chacha20poly1305_ietf_npubbytes
	.cfi_endproc
                                        # -- End function
	.globl	crypto_aead_chacha20poly1305_ietf_nsecbytes # -- Begin function crypto_aead_chacha20poly1305_ietf_nsecbytes
	.p2align	4
	.type	crypto_aead_chacha20poly1305_ietf_nsecbytes,@function
crypto_aead_chacha20poly1305_ietf_nsecbytes: # @crypto_aead_chacha20poly1305_ietf_nsecbytes
.Lfunc_begin10:
	.cfi_startproc
# %bb.0:
	.loc	1 345 5 prologue_end            # crypto_aead/chacha20poly1305/aead_chacha20poly1305.c:345:5
	xorl	%eax, %eax
	retq
.Ltmp183:
.Lfunc_end10:
	.size	crypto_aead_chacha20poly1305_ietf_nsecbytes, .Lfunc_end10-crypto_aead_chacha20poly1305_ietf_nsecbytes
	.cfi_endproc
                                        # -- End function
	.globl	crypto_aead_chacha20poly1305_ietf_abytes # -- Begin function crypto_aead_chacha20poly1305_ietf_abytes
	.p2align	4
	.type	crypto_aead_chacha20poly1305_ietf_abytes,@function
crypto_aead_chacha20poly1305_ietf_abytes: # @crypto_aead_chacha20poly1305_ietf_abytes
.Lfunc_begin11:
	.cfi_startproc
# %bb.0:
	.loc	1 351 5 prologue_end            # crypto_aead/chacha20poly1305/aead_chacha20poly1305.c:351:5
	movl	$16, %eax
	retq
.Ltmp184:
.Lfunc_end11:
	.size	crypto_aead_chacha20poly1305_ietf_abytes, .Lfunc_end11-crypto_aead_chacha20poly1305_ietf_abytes
	.cfi_endproc
                                        # -- End function
	.globl	crypto_aead_chacha20poly1305_ietf_messagebytes_max # -- Begin function crypto_aead_chacha20poly1305_ietf_messagebytes_max
	.p2align	4
	.type	crypto_aead_chacha20poly1305_ietf_messagebytes_max,@function
crypto_aead_chacha20poly1305_ietf_messagebytes_max: # @crypto_aead_chacha20poly1305_ietf_messagebytes_max
.Lfunc_begin12:
	.loc	1 356 0                         # crypto_aead/chacha20poly1305/aead_chacha20poly1305.c:356:0
	.cfi_startproc
# %bb.0:
	movabsq	$274877906880, %rax             # imm = 0x3FFFFFFFC0
.Ltmp185:
	.loc	1 357 5 prologue_end            # crypto_aead/chacha20poly1305/aead_chacha20poly1305.c:357:5
	retq
.Ltmp186:
.Lfunc_end12:
	.size	crypto_aead_chacha20poly1305_ietf_messagebytes_max, .Lfunc_end12-crypto_aead_chacha20poly1305_ietf_messagebytes_max
	.cfi_endproc
                                        # -- End function
	.globl	crypto_aead_chacha20poly1305_ietf_keygen # -- Begin function crypto_aead_chacha20poly1305_ietf_keygen
	.p2align	4
	.type	crypto_aead_chacha20poly1305_ietf_keygen,@function
crypto_aead_chacha20poly1305_ietf_keygen: # @crypto_aead_chacha20poly1305_ietf_keygen
.Lfunc_begin13:
	.cfi_startproc
# %bb.0:
	#DEBUG_VALUE: crypto_aead_chacha20poly1305_ietf_keygen:k <- $rdi
	.loc	1 363 5 prologue_end            # crypto_aead/chacha20poly1305/aead_chacha20poly1305.c:363:5
	movl	$32, %esi
.Ltmp187:
	jmp	randombytes_buf@PLT             # TAILCALL
.Ltmp188:
.Lfunc_end13:
	.size	crypto_aead_chacha20poly1305_ietf_keygen, .Lfunc_end13-crypto_aead_chacha20poly1305_ietf_keygen
	.cfi_endproc
	.file	12 "./include/sodium" "randombytes.h"
                                        # -- End function
	.globl	crypto_aead_chacha20poly1305_keybytes # -- Begin function crypto_aead_chacha20poly1305_keybytes
	.p2align	4
	.type	crypto_aead_chacha20poly1305_keybytes,@function
crypto_aead_chacha20poly1305_keybytes:  # @crypto_aead_chacha20poly1305_keybytes
.Lfunc_begin14:
	.cfi_startproc
# %bb.0:
	.loc	1 369 5 prologue_end            # crypto_aead/chacha20poly1305/aead_chacha20poly1305.c:369:5
	movl	$32, %eax
	retq
.Ltmp189:
.Lfunc_end14:
	.size	crypto_aead_chacha20poly1305_keybytes, .Lfunc_end14-crypto_aead_chacha20poly1305_keybytes
	.cfi_endproc
                                        # -- End function
	.globl	crypto_aead_chacha20poly1305_npubbytes # -- Begin function crypto_aead_chacha20poly1305_npubbytes
	.p2align	4
	.type	crypto_aead_chacha20poly1305_npubbytes,@function
crypto_aead_chacha20poly1305_npubbytes: # @crypto_aead_chacha20poly1305_npubbytes
.Lfunc_begin15:
	.cfi_startproc
# %bb.0:
	.loc	1 375 5 prologue_end            # crypto_aead/chacha20poly1305/aead_chacha20poly1305.c:375:5
	movl	$8, %eax
	retq
.Ltmp190:
.Lfunc_end15:
	.size	crypto_aead_chacha20poly1305_npubbytes, .Lfunc_end15-crypto_aead_chacha20poly1305_npubbytes
	.cfi_endproc
                                        # -- End function
	.globl	crypto_aead_chacha20poly1305_nsecbytes # -- Begin function crypto_aead_chacha20poly1305_nsecbytes
	.p2align	4
	.type	crypto_aead_chacha20poly1305_nsecbytes,@function
crypto_aead_chacha20poly1305_nsecbytes: # @crypto_aead_chacha20poly1305_nsecbytes
.Lfunc_begin16:
	.cfi_startproc
# %bb.0:
	.loc	1 381 5 prologue_end            # crypto_aead/chacha20poly1305/aead_chacha20poly1305.c:381:5
	xorl	%eax, %eax
	retq
.Ltmp191:
.Lfunc_end16:
	.size	crypto_aead_chacha20poly1305_nsecbytes, .Lfunc_end16-crypto_aead_chacha20poly1305_nsecbytes
	.cfi_endproc
                                        # -- End function
	.globl	crypto_aead_chacha20poly1305_abytes # -- Begin function crypto_aead_chacha20poly1305_abytes
	.p2align	4
	.type	crypto_aead_chacha20poly1305_abytes,@function
crypto_aead_chacha20poly1305_abytes:    # @crypto_aead_chacha20poly1305_abytes
.Lfunc_begin17:
	.cfi_startproc
# %bb.0:
	.loc	1 387 5 prologue_end            # crypto_aead/chacha20poly1305/aead_chacha20poly1305.c:387:5
	movl	$16, %eax
	retq
.Ltmp192:
.Lfunc_end17:
	.size	crypto_aead_chacha20poly1305_abytes, .Lfunc_end17-crypto_aead_chacha20poly1305_abytes
	.cfi_endproc
                                        # -- End function
	.globl	crypto_aead_chacha20poly1305_messagebytes_max # -- Begin function crypto_aead_chacha20poly1305_messagebytes_max
	.p2align	4
	.type	crypto_aead_chacha20poly1305_messagebytes_max,@function
crypto_aead_chacha20poly1305_messagebytes_max: # @crypto_aead_chacha20poly1305_messagebytes_max
.Lfunc_begin18:
	.cfi_startproc
# %bb.0:
	.loc	1 393 5 prologue_end            # crypto_aead/chacha20poly1305/aead_chacha20poly1305.c:393:5
	movq	$-17, %rax
	retq
.Ltmp193:
.Lfunc_end18:
	.size	crypto_aead_chacha20poly1305_messagebytes_max, .Lfunc_end18-crypto_aead_chacha20poly1305_messagebytes_max
	.cfi_endproc
                                        # -- End function
	.globl	crypto_aead_chacha20poly1305_keygen # -- Begin function crypto_aead_chacha20poly1305_keygen
	.p2align	4
	.type	crypto_aead_chacha20poly1305_keygen,@function
crypto_aead_chacha20poly1305_keygen:    # @crypto_aead_chacha20poly1305_keygen
.Lfunc_begin19:
	.cfi_startproc
# %bb.0:
	#DEBUG_VALUE: crypto_aead_chacha20poly1305_keygen:k <- $rdi
	.loc	1 399 5 prologue_end            # crypto_aead/chacha20poly1305/aead_chacha20poly1305.c:399:5
	movl	$32, %esi
.Ltmp194:
	jmp	randombytes_buf@PLT             # TAILCALL
.Ltmp195:
.Lfunc_end19:
	.size	crypto_aead_chacha20poly1305_keygen, .Lfunc_end19-crypto_aead_chacha20poly1305_keygen
	.cfi_endproc
                                        # -- End function
	.type	_pad0,@object                   # @_pad0
	.section	.rodata,"a",@progbits
	.p2align	4, 0x0
_pad0:
	.zero	16
	.size	_pad0, 16

	.section	".note.GNU-stack","",@progbits
	.addrsig
	.addrsig_sym __stack_chk_fail
	.addrsig_sym _pad0