	.file	"aead_aes256gcm_aesni.c"
	.file	0 "/home/leizhenyuu/opt/Anonymous_Repo/libsodium_o2_attr_inline/src/libsodium" "aead_aes256gcm_aesni.c" md5 0x5de091152b32e5e1c61c9111c4e607bc
	.file	1 "/home/leizhenyuu/opt/Anonymous_Repo" "llvm-project/build/lib/clang/21/include/emmintrin.h"
	.file	2 "crypto_aead/aes256gcm/aesni" "aead_aes256gcm_aesni.c"
	.file	3 "/home/leizhenyuu/opt/Anonymous_Repo" "llvm-project/build/lib/clang/21/include/__stddef_size_t.h"
	.file	4 "./include/sodium" "crypto_aead_aes256gcm.h"
	.file	5 "/home/leizhenyuu/opt/Anonymous_Repo" "llvm-project/build/lib/clang/21/include/xmmintrin.h"
	.file	6 "/usr/include/x86_64-linux-gnu/bits" "types.h"
	.file	7 "/usr/include/x86_64-linux-gnu/bits" "stdint-uintn.h"
	.section	.rodata.cst16,"aM",@progbits,16
	.p2align	4, 0x0                          # -- Begin function crypto_aead_aes256gcm_beforenm
.LCPI0_0:
	.byte	15                              # 0xf
	.byte	14                              # 0xe
	.byte	13                              # 0xd
	.byte	12                              # 0xc
	.byte	11                              # 0xb
	.byte	10                              # 0xa
	.byte	9                               # 0x9
	.byte	8                               # 0x8
	.byte	7                               # 0x7
	.byte	6                               # 0x6
	.byte	5                               # 0x5
	.byte	4                               # 0x4
	.byte	3                               # 0x3
	.byte	2                               # 0x2
	.byte	1                               # 0x1
	.byte	0                               # 0x0
.LCPI0_1:
	.quad	1                               # 0x1
	.quad	-4467570830351532032            # 0xc200000000000000
	.text
	.globl	crypto_aead_aes256gcm_beforenm
	.p2align	4
	.type	crypto_aead_aes256gcm_beforenm,@function
crypto_aead_aes256gcm_beforenm:         # @crypto_aead_aes256gcm_beforenm
.Lfunc_begin0:
	.cfi_startproc
# %bb.0:
	#DEBUG_VALUE: crypto_aead_aes256gcm_beforenm:st_ <- $rdi
	#DEBUG_VALUE: crypto_aead_aes256gcm_beforenm:k <- $rsi
	#DEBUG_VALUE: expand256:key <- $rsi
	#DEBUG_VALUE: expand256:rkeys <- $rdi
	#DEBUG_VALUE: crypto_aead_aes256gcm_beforenm:st <- $rdi
	#DEBUG_VALUE: expand256:i <- 0
	.loc	2 109 10 prologue_end           # crypto_aead/aes256gcm/aesni/aead_aes256gcm_aesni.c:109:10 @[ crypto_aead/aes256gcm/aesni/aead_aes256gcm_aesni.c:727:5 ]
	vmovdqu	(%rsi), %xmm0
.Ltmp0:
	#DEBUG_VALUE: expand256:t1 <- $xmm0
	.loc	2 110 10                        # crypto_aead/aes256gcm/aesni/aead_aes256gcm_aesni.c:110:10 @[ crypto_aead/aes256gcm/aesni/aead_aes256gcm_aesni.c:727:5 ]
	vmovdqu	16(%rsi), %xmm1
.Ltmp1:
	#DEBUG_VALUE: expand256:t2 <- $xmm1
	#DEBUG_VALUE: expand256:i <- 1
	.loc	2 113 36                        # crypto_aead/aes256gcm/aesni/aead_aes256gcm_aesni.c:113:36 @[ crypto_aead/aes256gcm/aesni/aead_aes256gcm_aesni.c:727:5 ]
	vaeskeygenassist	$1, %xmm1, %xmm2
.Ltmp2:
	#DEBUG_VALUE: expand256:s <- $xmm2
	.loc	2 113 148 is_stmt 0             # crypto_aead/aes256gcm/aesni/aead_aes256gcm_aesni.c:113:148 @[ crypto_aead/aes256gcm/aesni/aead_aes256gcm_aesni.c:727:5 ]
	vpslldq	$4, %xmm0, %xmm3                # xmm3 = zero,zero,zero,zero,xmm0[0,1,2,3,4,5,6,7,8,9,10,11]
	.loc	2 113 117                       # crypto_aead/aes256gcm/aesni/aead_aes256gcm_aesni.c:113:117 @[ crypto_aead/aes256gcm/aesni/aead_aes256gcm_aesni.c:727:5 ]
	vpxor	%xmm3, %xmm0, %xmm3
.Ltmp3:
	#DEBUG_VALUE: expand256:t1 <- $xmm3
	.loc	2 113 257                       # crypto_aead/aes256gcm/aesni/aead_aes256gcm_aesni.c:113:257 @[ crypto_aead/aes256gcm/aesni/aead_aes256gcm_aesni.c:727:5 ]
	vpslldq	$8, %xmm3, %xmm4                # xmm4 = zero,zero,zero,zero,zero,zero,zero,zero,xmm3[0,1,2,3,4,5,6,7]
.Ltmp4:
	#DEBUG_VALUE: expand256:t1 <- [DW_OP_LLVM_arg 0, DW_OP_LLVM_arg 1, DW_OP_xor, DW_OP_stack_value] $xmm3, $xmm4
	.loc	2 113 366                       # crypto_aead/aes256gcm/aesni/aead_aes256gcm_aesni.c:113:366 @[ crypto_aead/aes256gcm/aesni/aead_aes256gcm_aesni.c:727:5 ]
	vpshufd	$255, %xmm2, %xmm2              # xmm2 = xmm2[3,3,3,3]
.Ltmp5:
	.loc	2 113 335                       # crypto_aead/aes256gcm/aesni/aead_aes256gcm_aesni.c:113:335 @[ crypto_aead/aes256gcm/aesni/aead_aes256gcm_aesni.c:727:5 ]
	vpxor	%xmm3, %xmm4, %xmm3
.Ltmp6:
	vpxor	%xmm2, %xmm3, %xmm2
.Ltmp7:
	#DEBUG_VALUE: expand256:t1 <- $xmm2
	#DEBUG_VALUE: expand256:i <- 3
	.loc	2 114 36 is_stmt 1              # crypto_aead/aes256gcm/aesni/aead_aes256gcm_aesni.c:114:36 @[ crypto_aead/aes256gcm/aesni/aead_aes256gcm_aesni.c:727:5 ]
	vaeskeygenassist	$1, %xmm2, %xmm3
.Ltmp8:
	#DEBUG_VALUE: expand256:s <- $xmm3
	.loc	2 114 148 is_stmt 0             # crypto_aead/aes256gcm/aesni/aead_aes256gcm_aesni.c:114:148 @[ crypto_aead/aes256gcm/aesni/aead_aes256gcm_aesni.c:727:5 ]
	vpslldq	$4, %xmm1, %xmm4                # xmm4 = zero,zero,zero,zero,xmm1[0,1,2,3,4,5,6,7,8,9,10,11]
	.loc	2 114 117                       # crypto_aead/aes256gcm/aesni/aead_aes256gcm_aesni.c:114:117 @[ crypto_aead/aes256gcm/aesni/aead_aes256gcm_aesni.c:727:5 ]
	vpxor	%xmm4, %xmm1, %xmm4
.Ltmp9:
	#DEBUG_VALUE: expand256:t2 <- $xmm4
	.loc	2 114 257                       # crypto_aead/aes256gcm/aesni/aead_aes256gcm_aesni.c:114:257 @[ crypto_aead/aes256gcm/aesni/aead_aes256gcm_aesni.c:727:5 ]
	vpslldq	$8, %xmm4, %xmm5                # xmm5 = zero,zero,zero,zero,zero,zero,zero,zero,xmm4[0,1,2,3,4,5,6,7]
.Ltmp10:
	#DEBUG_VALUE: expand256:t2 <- [DW_OP_LLVM_arg 0, DW_OP_LLVM_arg 1, DW_OP_xor, DW_OP_stack_value] $xmm4, $xmm5
	.loc	2 114 366                       # crypto_aead/aes256gcm/aesni/aead_aes256gcm_aesni.c:114:366 @[ crypto_aead/aes256gcm/aesni/aead_aes256gcm_aesni.c:727:5 ]
	vpshufd	$170, %xmm3, %xmm3              # xmm3 = xmm3[2,2,2,2]
.Ltmp11:
	.loc	2 114 335                       # crypto_aead/aes256gcm/aesni/aead_aes256gcm_aesni.c:114:335 @[ crypto_aead/aes256gcm/aesni/aead_aes256gcm_aesni.c:727:5 ]
	vpxor	%xmm4, %xmm5, %xmm4
.Ltmp12:
	vpxor	%xmm3, %xmm4, %xmm3
.Ltmp13:
	#DEBUG_VALUE: expand256:t2 <- $xmm3
	#DEBUG_VALUE: expand256:i <- 4
	.loc	2 115 36 is_stmt 1              # crypto_aead/aes256gcm/aesni/aead_aes256gcm_aesni.c:115:36 @[ crypto_aead/aes256gcm/aesni/aead_aes256gcm_aesni.c:727:5 ]
	vaeskeygenassist	$2, %xmm3, %xmm4
.Ltmp14:
	#DEBUG_VALUE: expand256:s <- $xmm4
	.loc	2 115 148 is_stmt 0             # crypto_aead/aes256gcm/aesni/aead_aes256gcm_aesni.c:115:148 @[ crypto_aead/aes256gcm/aesni/aead_aes256gcm_aesni.c:727:5 ]
	vpslldq	$4, %xmm2, %xmm5                # xmm5 = zero,zero,zero,zero,xmm2[0,1,2,3,4,5,6,7,8,9,10,11]
	.loc	2 115 117                       # crypto_aead/aes256gcm/aesni/aead_aes256gcm_aesni.c:115:117 @[ crypto_aead/aes256gcm/aesni/aead_aes256gcm_aesni.c:727:5 ]
	vpxor	%xmm5, %xmm2, %xmm5
.Ltmp15:
	#DEBUG_VALUE: expand256:t1 <- $xmm5
	.loc	2 115 257                       # crypto_aead/aes256gcm/aesni/aead_aes256gcm_aesni.c:115:257 @[ crypto_aead/aes256gcm/aesni/aead_aes256gcm_aesni.c:727:5 ]
	vpslldq	$8, %xmm5, %xmm6                # xmm6 = zero,zero,zero,zero,zero,zero,zero,zero,xmm5[0,1,2,3,4,5,6,7]
.Ltmp16:
	#DEBUG_VALUE: expand256:t1 <- [DW_OP_LLVM_arg 0, DW_OP_LLVM_arg 1, DW_OP_xor, DW_OP_stack_value] $xmm5, $xmm6
	.loc	2 115 366                       # crypto_aead/aes256gcm/aesni/aead_aes256gcm_aesni.c:115:366 @[ crypto_aead/aes256gcm/aesni/aead_aes256gcm_aesni.c:727:5 ]
	vpshufd	$255, %xmm4, %xmm4              # xmm4 = xmm4[3,3,3,3]
.Ltmp17:
	.loc	2 115 335                       # crypto_aead/aes256gcm/aesni/aead_aes256gcm_aesni.c:115:335 @[ crypto_aead/aes256gcm/aesni/aead_aes256gcm_aesni.c:727:5 ]
	vpxor	%xmm5, %xmm6, %xmm5
.Ltmp18:
	vpxor	%xmm4, %xmm5, %xmm4
.Ltmp19:
	#DEBUG_VALUE: expand256:t1 <- $xmm4
	#DEBUG_VALUE: expand256:i <- 5
	.loc	2 116 36 is_stmt 1              # crypto_aead/aes256gcm/aesni/aead_aes256gcm_aesni.c:116:36 @[ crypto_aead/aes256gcm/aesni/aead_aes256gcm_aesni.c:727:5 ]
	vaeskeygenassist	$2, %xmm4, %xmm5
.Ltmp20:
	#DEBUG_VALUE: expand256:s <- $xmm5
	.loc	2 116 148 is_stmt 0             # crypto_aead/aes256gcm/aesni/aead_aes256gcm_aesni.c:116:148 @[ crypto_aead/aes256gcm/aesni/aead_aes256gcm_aesni.c:727:5 ]
	vpslldq	$4, %xmm3, %xmm6                # xmm6 = zero,zero,zero,zero,xmm3[0,1,2,3,4,5,6,7,8,9,10,11]
	.loc	2 116 117                       # crypto_aead/aes256gcm/aesni/aead_aes256gcm_aesni.c:116:117 @[ crypto_aead/aes256gcm/aesni/aead_aes256gcm_aesni.c:727:5 ]
	vpxor	%xmm6, %xmm3, %xmm6
.Ltmp21:
	#DEBUG_VALUE: expand256:t2 <- $xmm6
	.loc	2 116 257                       # crypto_aead/aes256gcm/aesni/aead_aes256gcm_aesni.c:116:257 @[ crypto_aead/aes256gcm/aesni/aead_aes256gcm_aesni.c:727:5 ]
	vpslldq	$8, %xmm6, %xmm7                # xmm7 = zero,zero,zero,zero,zero,zero,zero,zero,xmm6[0,1,2,3,4,5,6,7]
.Ltmp22:
	#DEBUG_VALUE: expand256:t2 <- [DW_OP_LLVM_arg 0, DW_OP_LLVM_arg 1, DW_OP_xor, DW_OP_stack_value] $xmm6, $xmm7
	.loc	2 116 366                       # crypto_aead/aes256gcm/aesni/aead_aes256gcm_aesni.c:116:366 @[ crypto_aead/aes256gcm/aesni/aead_aes256gcm_aesni.c:727:5 ]
	vpshufd	$170, %xmm5, %xmm5              # xmm5 = xmm5[2,2,2,2]
.Ltmp23:
	.loc	2 116 335                       # crypto_aead/aes256gcm/aesni/aead_aes256gcm_aesni.c:116:335 @[ crypto_aead/aes256gcm/aesni/aead_aes256gcm_aesni.c:727:5 ]
	vpxor	%xmm6, %xmm7, %xmm6
.Ltmp24:
	vpxor	%xmm5, %xmm6, %xmm5
.Ltmp25:
	#DEBUG_VALUE: expand256:t2 <- $xmm5
	#DEBUG_VALUE: expand256:i <- 6
	.loc	2 117 36 is_stmt 1              # crypto_aead/aes256gcm/aesni/aead_aes256gcm_aesni.c:117:36 @[ crypto_aead/aes256gcm/aesni/aead_aes256gcm_aesni.c:727:5 ]
	vaeskeygenassist	$4, %xmm5, %xmm6
.Ltmp26:
	#DEBUG_VALUE: expand256:s <- $xmm6
	.loc	2 117 148 is_stmt 0             # crypto_aead/aes256gcm/aesni/aead_aes256gcm_aesni.c:117:148 @[ crypto_aead/aes256gcm/aesni/aead_aes256gcm_aesni.c:727:5 ]
	vpslldq	$4, %xmm4, %xmm7                # xmm7 = zero,zero,zero,zero,xmm4[0,1,2,3,4,5,6,7,8,9,10,11]
	.loc	2 117 117                       # crypto_aead/aes256gcm/aesni/aead_aes256gcm_aesni.c:117:117 @[ crypto_aead/aes256gcm/aesni/aead_aes256gcm_aesni.c:727:5 ]
	vpxor	%xmm7, %xmm4, %xmm7
.Ltmp27:
	#DEBUG_VALUE: expand256:t1 <- $xmm7
	.loc	2 117 257                       # crypto_aead/aes256gcm/aesni/aead_aes256gcm_aesni.c:117:257 @[ crypto_aead/aes256gcm/aesni/aead_aes256gcm_aesni.c:727:5 ]
	vpslldq	$8, %xmm7, %xmm8                # xmm8 = zero,zero,zero,zero,zero,zero,zero,zero,xmm7[0,1,2,3,4,5,6,7]
.Ltmp28:
	#DEBUG_VALUE: expand256:t1 <- [DW_OP_LLVM_arg 0, DW_OP_LLVM_arg 1, DW_OP_xor, DW_OP_stack_value] $xmm7, $xmm8
	.loc	2 117 366                       # crypto_aead/aes256gcm/aesni/aead_aes256gcm_aesni.c:117:366 @[ crypto_aead/aes256gcm/aesni/aead_aes256gcm_aesni.c:727:5 ]
	vpshufd	$255, %xmm6, %xmm6              # xmm6 = xmm6[3,3,3,3]
.Ltmp29:
	.loc	2 117 335                       # crypto_aead/aes256gcm/aesni/aead_aes256gcm_aesni.c:117:335 @[ crypto_aead/aes256gcm/aesni/aead_aes256gcm_aesni.c:727:5 ]
	vpxor	%xmm7, %xmm8, %xmm7
.Ltmp30:
	vpxor	%xmm6, %xmm7, %xmm6
.Ltmp31:
	#DEBUG_VALUE: expand256:t1 <- $xmm6
	#DEBUG_VALUE: expand256:i <- 7
	.loc	2 118 36 is_stmt 1              # crypto_aead/aes256gcm/aesni/aead_aes256gcm_aesni.c:118:36 @[ crypto_aead/aes256gcm/aesni/aead_aes256gcm_aesni.c:727:5 ]
	vaeskeygenassist	$4, %xmm6, %xmm7
.Ltmp32:
	#DEBUG_VALUE: expand256:s <- $xmm7
	.loc	2 118 148 is_stmt 0             # crypto_aead/aes256gcm/aesni/aead_aes256gcm_aesni.c:118:148 @[ crypto_aead/aes256gcm/aesni/aead_aes256gcm_aesni.c:727:5 ]
	vpslldq	$4, %xmm5, %xmm8                # xmm8 = zero,zero,zero,zero,xmm5[0,1,2,3,4,5,6,7,8,9,10,11]
	.loc	2 118 117                       # crypto_aead/aes256gcm/aesni/aead_aes256gcm_aesni.c:118:117 @[ crypto_aead/aes256gcm/aesni/aead_aes256gcm_aesni.c:727:5 ]
	vpxor	%xmm5, %xmm8, %xmm8
.Ltmp33:
	#DEBUG_VALUE: expand256:t2 <- $xmm8
	.loc	2 118 257                       # crypto_aead/aes256gcm/aesni/aead_aes256gcm_aesni.c:118:257 @[ crypto_aead/aes256gcm/aesni/aead_aes256gcm_aesni.c:727:5 ]
	vpslldq	$8, %xmm8, %xmm9                # xmm9 = zero,zero,zero,zero,zero,zero,zero,zero,xmm8[0,1,2,3,4,5,6,7]
.Ltmp34:
	#DEBUG_VALUE: expand256:t2 <- [DW_OP_LLVM_arg 0, DW_OP_LLVM_arg 1, DW_OP_xor, DW_OP_stack_value] $xmm8, $xmm9
	.loc	2 118 366                       # crypto_aead/aes256gcm/aesni/aead_aes256gcm_aesni.c:118:366 @[ crypto_aead/aes256gcm/aesni/aead_aes256gcm_aesni.c:727:5 ]
	vpshufd	$170, %xmm7, %xmm7              # xmm7 = xmm7[2,2,2,2]
.Ltmp35:
	.loc	2 118 335                       # crypto_aead/aes256gcm/aesni/aead_aes256gcm_aesni.c:118:335 @[ crypto_aead/aes256gcm/aesni/aead_aes256gcm_aesni.c:727:5 ]
	vpxor	%xmm8, %xmm9, %xmm8
.Ltmp36:
	vpxor	%xmm7, %xmm8, %xmm7
.Ltmp37:
	#DEBUG_VALUE: expand256:t2 <- $xmm7
	#DEBUG_VALUE: expand256:i <- 8
	.loc	2 119 36 is_stmt 1              # crypto_aead/aes256gcm/aesni/aead_aes256gcm_aesni.c:119:36 @[ crypto_aead/aes256gcm/aesni/aead_aes256gcm_aesni.c:727:5 ]
	vaeskeygenassist	$8, %xmm7, %xmm8
.Ltmp38:
	#DEBUG_VALUE: expand256:s <- $xmm8
	.loc	2 119 148 is_stmt 0             # crypto_aead/aes256gcm/aesni/aead_aes256gcm_aesni.c:119:148 @[ crypto_aead/aes256gcm/aesni/aead_aes256gcm_aesni.c:727:5 ]
	vpslldq	$4, %xmm6, %xmm9                # xmm9 = zero,zero,zero,zero,xmm6[0,1,2,3,4,5,6,7,8,9,10,11]
	.loc	2 119 117                       # crypto_aead/aes256gcm/aesni/aead_aes256gcm_aesni.c:119:117 @[ crypto_aead/aes256gcm/aesni/aead_aes256gcm_aesni.c:727:5 ]
	vpxor	%xmm6, %xmm9, %xmm9
.Ltmp39:
	#DEBUG_VALUE: expand256:t1 <- $xmm9
	.loc	2 119 257                       # crypto_aead/aes256gcm/aesni/aead_aes256gcm_aesni.c:119:257 @[ crypto_aead/aes256gcm/aesni/aead_aes256gcm_aesni.c:727:5 ]
	vpslldq	$8, %xmm9, %xmm10               # xmm10 = zero,zero,zero,zero,zero,zero,zero,zero,xmm9[0,1,2,3,4,5,6,7]
.Ltmp40:
	#DEBUG_VALUE: expand256:t1 <- [DW_OP_LLVM_arg 0, DW_OP_LLVM_arg 1, DW_OP_xor, DW_OP_stack_value] $xmm9, $xmm10
	.loc	2 119 366                       # crypto_aead/aes256gcm/aesni/aead_aes256gcm_aesni.c:119:366 @[ crypto_aead/aes256gcm/aesni/aead_aes256gcm_aesni.c:727:5 ]
	vpshufd	$255, %xmm8, %xmm8              # xmm8 = xmm8[3,3,3,3]
.Ltmp41:
	.loc	2 119 335                       # crypto_aead/aes256gcm/aesni/aead_aes256gcm_aesni.c:119:335 @[ crypto_aead/aes256gcm/aesni/aead_aes256gcm_aesni.c:727:5 ]
	vpxor	%xmm9, %xmm10, %xmm9
.Ltmp42:
	vpxor	%xmm8, %xmm9, %xmm8
.Ltmp43:
	#DEBUG_VALUE: expand256:t1 <- $xmm8
	#DEBUG_VALUE: expand256:i <- 9
	.loc	2 120 36 is_stmt 1              # crypto_aead/aes256gcm/aesni/aead_aes256gcm_aesni.c:120:36 @[ crypto_aead/aes256gcm/aesni/aead_aes256gcm_aesni.c:727:5 ]
	vaeskeygenassist	$8, %xmm8, %xmm9
.Ltmp44:
	#DEBUG_VALUE: expand256:s <- $xmm9
	.loc	2 120 148 is_stmt 0             # crypto_aead/aes256gcm/aesni/aead_aes256gcm_aesni.c:120:148 @[ crypto_aead/aes256gcm/aesni/aead_aes256gcm_aesni.c:727:5 ]
	vpslldq	$4, %xmm7, %xmm10               # xmm10 = zero,zero,zero,zero,xmm7[0,1,2,3,4,5,6,7,8,9,10,11]
	.loc	2 120 117                       # crypto_aead/aes256gcm/aesni/aead_aes256gcm_aesni.c:120:117 @[ crypto_aead/aes256gcm/aesni/aead_aes256gcm_aesni.c:727:5 ]
	vpxor	%xmm7, %xmm10, %xmm10
.Ltmp45:
	#DEBUG_VALUE: expand256:t2 <- $xmm10
	.loc	2 120 257                       # crypto_aead/aes256gcm/aesni/aead_aes256gcm_aesni.c:120:257 @[ crypto_aead/aes256gcm/aesni/aead_aes256gcm_aesni.c:727:5 ]
	vpslldq	$8, %xmm10, %xmm11              # xmm11 = zero,zero,zero,zero,zero,zero,zero,zero,xmm10[0,1,2,3,4,5,6,7]
.Ltmp46:
	#DEBUG_VALUE: expand256:t2 <- [DW_OP_LLVM_arg 0, DW_OP_LLVM_arg 1, DW_OP_xor, DW_OP_stack_value] $xmm10, $xmm11
	.loc	2 120 366                       # crypto_aead/aes256gcm/aesni/aead_aes256gcm_aesni.c:120:366 @[ crypto_aead/aes256gcm/aesni/aead_aes256gcm_aesni.c:727:5 ]
	vpshufd	$170, %xmm9, %xmm9              # xmm9 = xmm9[2,2,2,2]
.Ltmp47:
	.loc	2 120 335                       # crypto_aead/aes256gcm/aesni/aead_aes256gcm_aesni.c:120:335 @[ crypto_aead/aes256gcm/aesni/aead_aes256gcm_aesni.c:727:5 ]
	vpxor	%xmm10, %xmm11, %xmm10
.Ltmp48:
	vpxor	%xmm9, %xmm10, %xmm9
.Ltmp49:
	#DEBUG_VALUE: expand256:t2 <- $xmm9
	#DEBUG_VALUE: expand256:i <- 10
	.loc	2 121 36 is_stmt 1              # crypto_aead/aes256gcm/aesni/aead_aes256gcm_aesni.c:121:36 @[ crypto_aead/aes256gcm/aesni/aead_aes256gcm_aesni.c:727:5 ]
	vaeskeygenassist	$16, %xmm9, %xmm10
.Ltmp50:
	#DEBUG_VALUE: expand256:s <- $xmm10
	.loc	2 121 148 is_stmt 0             # crypto_aead/aes256gcm/aesni/aead_aes256gcm_aesni.c:121:148 @[ crypto_aead/aes256gcm/aesni/aead_aes256gcm_aesni.c:727:5 ]
	vpslldq	$4, %xmm8, %xmm11               # xmm11 = zero,zero,zero,zero,xmm8[0,1,2,3,4,5,6,7,8,9,10,11]
	.loc	2 121 117                       # crypto_aead/aes256gcm/aesni/aead_aes256gcm_aesni.c:121:117 @[ crypto_aead/aes256gcm/aesni/aead_aes256gcm_aesni.c:727:5 ]
	vpxor	%xmm11, %xmm8, %xmm11
.Ltmp51:
	#DEBUG_VALUE: expand256:t1 <- $xmm11
	.loc	2 121 257                       # crypto_aead/aes256gcm/aesni/aead_aes256gcm_aesni.c:121:257 @[ crypto_aead/aes256gcm/aesni/aead_aes256gcm_aesni.c:727:5 ]
	vpslldq	$8, %xmm11, %xmm12              # xmm12 = zero,zero,zero,zero,zero,zero,zero,zero,xmm11[0,1,2,3,4,5,6,7]
.Ltmp52:
	#DEBUG_VALUE: expand256:t1 <- [DW_OP_LLVM_arg 0, DW_OP_LLVM_arg 1, DW_OP_xor, DW_OP_stack_value] $xmm11, $xmm12
	.loc	2 121 366                       # crypto_aead/aes256gcm/aesni/aead_aes256gcm_aesni.c:121:366 @[ crypto_aead/aes256gcm/aesni/aead_aes256gcm_aesni.c:727:5 ]
	vpshufd	$255, %xmm10, %xmm10            # xmm10 = xmm10[3,3,3,3]
.Ltmp53:
	.loc	2 121 335                       # crypto_aead/aes256gcm/aesni/aead_aes256gcm_aesni.c:121:335 @[ crypto_aead/aes256gcm/aesni/aead_aes256gcm_aesni.c:727:5 ]
	vpxor	%xmm11, %xmm12, %xmm11
.Ltmp54:
	vpxor	%xmm10, %xmm11, %xmm10
.Ltmp55:
	#DEBUG_VALUE: expand256:t1 <- $xmm10
	#DEBUG_VALUE: expand256:i <- 11
	.loc	2 122 36 is_stmt 1              # crypto_aead/aes256gcm/aesni/aead_aes256gcm_aesni.c:122:36 @[ crypto_aead/aes256gcm/aesni/aead_aes256gcm_aesni.c:727:5 ]
	vaeskeygenassist	$16, %xmm10, %xmm11
.Ltmp56:
	#DEBUG_VALUE: expand256:s <- $xmm11
	.loc	2 122 148 is_stmt 0             # crypto_aead/aes256gcm/aesni/aead_aes256gcm_aesni.c:122:148 @[ crypto_aead/aes256gcm/aesni/aead_aes256gcm_aesni.c:727:5 ]
	vpslldq	$4, %xmm9, %xmm12               # xmm12 = zero,zero,zero,zero,xmm9[0,1,2,3,4,5,6,7,8,9,10,11]
	.loc	2 122 117                       # crypto_aead/aes256gcm/aesni/aead_aes256gcm_aesni.c:122:117 @[ crypto_aead/aes256gcm/aesni/aead_aes256gcm_aesni.c:727:5 ]
	vpxor	%xmm12, %xmm9, %xmm12
.Ltmp57:
	#DEBUG_VALUE: expand256:t2 <- $xmm12
	.loc	2 122 257                       # crypto_aead/aes256gcm/aesni/aead_aes256gcm_aesni.c:122:257 @[ crypto_aead/aes256gcm/aesni/aead_aes256gcm_aesni.c:727:5 ]
	vpslldq	$8, %xmm12, %xmm13              # xmm13 = zero,zero,zero,zero,zero,zero,zero,zero,xmm12[0,1,2,3,4,5,6,7]
.Ltmp58:
	#DEBUG_VALUE: expand256:t2 <- [DW_OP_LLVM_arg 0, DW_OP_LLVM_arg 1, DW_OP_xor, DW_OP_stack_value] $xmm12, $xmm13
	.loc	2 122 366                       # crypto_aead/aes256gcm/aesni/aead_aes256gcm_aesni.c:122:366 @[ crypto_aead/aes256gcm/aesni/aead_aes256gcm_aesni.c:727:5 ]
	vpshufd	$170, %xmm11, %xmm11            # xmm11 = xmm11[2,2,2,2]
.Ltmp59:
	.loc	2 122 335                       # crypto_aead/aes256gcm/aesni/aead_aes256gcm_aesni.c:122:335 @[ crypto_aead/aes256gcm/aesni/aead_aes256gcm_aesni.c:727:5 ]
	vpxor	%xmm12, %xmm13, %xmm12
.Ltmp60:
	vpxor	%xmm11, %xmm12, %xmm11
.Ltmp61:
	#DEBUG_VALUE: expand256:t2 <- $xmm11
	#DEBUG_VALUE: expand256:i <- 12
	.loc	2 123 36 is_stmt 1              # crypto_aead/aes256gcm/aesni/aead_aes256gcm_aesni.c:123:36 @[ crypto_aead/aes256gcm/aesni/aead_aes256gcm_aesni.c:727:5 ]
	vaeskeygenassist	$32, %xmm11, %xmm12
.Ltmp62:
	#DEBUG_VALUE: expand256:s <- $xmm12
	.loc	2 123 148 is_stmt 0             # crypto_aead/aes256gcm/aesni/aead_aes256gcm_aesni.c:123:148 @[ crypto_aead/aes256gcm/aesni/aead_aes256gcm_aesni.c:727:5 ]
	vpslldq	$4, %xmm10, %xmm13              # xmm13 = zero,zero,zero,zero,xmm10[0,1,2,3,4,5,6,7,8,9,10,11]
	.loc	2 123 117                       # crypto_aead/aes256gcm/aesni/aead_aes256gcm_aesni.c:123:117 @[ crypto_aead/aes256gcm/aesni/aead_aes256gcm_aesni.c:727:5 ]
	vpxor	%xmm13, %xmm10, %xmm13
.Ltmp63:
	#DEBUG_VALUE: expand256:t1 <- $xmm13
	.loc	2 123 257                       # crypto_aead/aes256gcm/aesni/aead_aes256gcm_aesni.c:123:257 @[ crypto_aead/aes256gcm/aesni/aead_aes256gcm_aesni.c:727:5 ]
	vpslldq	$8, %xmm13, %xmm14              # xmm14 = zero,zero,zero,zero,zero,zero,zero,zero,xmm13[0,1,2,3,4,5,6,7]
.Ltmp64:
	#DEBUG_VALUE: expand256:t1 <- [DW_OP_LLVM_arg 0, DW_OP_LLVM_arg 1, DW_OP_xor, DW_OP_stack_value] $xmm13, $xmm14
	.loc	2 123 366                       # crypto_aead/aes256gcm/aesni/aead_aes256gcm_aesni.c:123:366 @[ crypto_aead/aes256gcm/aesni/aead_aes256gcm_aesni.c:727:5 ]
	vpshufd	$255, %xmm12, %xmm12            # xmm12 = xmm12[3,3,3,3]
.Ltmp65:
	.loc	2 123 335                       # crypto_aead/aes256gcm/aesni/aead_aes256gcm_aesni.c:123:335 @[ crypto_aead/aes256gcm/aesni/aead_aes256gcm_aesni.c:727:5 ]
	vpxor	%xmm13, %xmm14, %xmm13
.Ltmp66:
	vpxor	%xmm12, %xmm13, %xmm12
.Ltmp67:
	#DEBUG_VALUE: expand256:t1 <- $xmm12
	#DEBUG_VALUE: expand256:i <- 13
	#DEBUG_VALUE: expand256:s <- undef
	.loc	2 124 148 is_stmt 1             # crypto_aead/aes256gcm/aesni/aead_aes256gcm_aesni.c:124:148 @[ crypto_aead/aes256gcm/aesni/aead_aes256gcm_aesni.c:727:5 ]
	vpslldq	$4, %xmm11, %xmm13              # xmm13 = zero,zero,zero,zero,xmm11[0,1,2,3,4,5,6,7,8,9,10,11]
	.loc	2 124 117 is_stmt 0             # crypto_aead/aes256gcm/aesni/aead_aes256gcm_aesni.c:124:117 @[ crypto_aead/aes256gcm/aesni/aead_aes256gcm_aesni.c:727:5 ]
	vpxor	%xmm13, %xmm11, %xmm13
.Ltmp68:
	#DEBUG_VALUE: expand256:t2 <- $xmm13
	.loc	2 124 257                       # crypto_aead/aes256gcm/aesni/aead_aes256gcm_aesni.c:124:257 @[ crypto_aead/aes256gcm/aesni/aead_aes256gcm_aesni.c:727:5 ]
	vpslldq	$8, %xmm13, %xmm14              # xmm14 = zero,zero,zero,zero,zero,zero,zero,zero,xmm13[0,1,2,3,4,5,6,7]
.Ltmp69:
	#DEBUG_VALUE: expand256:t2 <- [DW_OP_LLVM_arg 0, DW_OP_LLVM_arg 1, DW_OP_xor, DW_OP_stack_value] $xmm13, $xmm14
	.loc	2 124 335                       # crypto_aead/aes256gcm/aesni/aead_aes256gcm_aesni.c:124:335 @[ crypto_aead/aes256gcm/aesni/aead_aes256gcm_aesni.c:727:5 ]
	vpxor	%xmm13, %xmm14, %xmm13
.Ltmp70:
	#DEBUG_VALUE: expand256:t2 <- undef
	#DEBUG_VALUE: expand256:i <- 14
	#DEBUG_VALUE: expand256:s <- undef
	#DEBUG_VALUE: expand256:t1 <- undef
	#DEBUG_VALUE: expand256:t1 <- [DW_OP_LLVM_arg 0, DW_OP_LLVM_arg 1, DW_OP_xor, DW_OP_stack_value] undef, undef
	#DEBUG_VALUE: expand256:t1 <- undef
	#DEBUG_VALUE: expand256:i <- [DW_OP_plus_uconst 1, DW_OP_stack_value] 14
	#DEBUG_VALUE: encrypt:st <- $rdi
	#DEBUG_VALUE: encrypt:i <- 1
	#DEBUG_VALUE: encrypt:t <- $xmm0
	.loc	2 112 16 is_stmt 1              # crypto_aead/aes256gcm/aesni/aead_aes256gcm_aesni.c:112:16 @[ crypto_aead/aes256gcm/aesni/aead_aes256gcm_aesni.c:727:5 ]
	vmovdqa	%xmm0, (%rdi)
.Ltmp71:
	#DEBUG_VALUE: expand256:i <- 2
	.loc	2 113 16                        # crypto_aead/aes256gcm/aesni/aead_aes256gcm_aesni.c:113:16 @[ crypto_aead/aes256gcm/aesni/aead_aes256gcm_aesni.c:727:5 ]
	vmovdqa	%xmm1, 16(%rdi)
.Ltmp72:
	.loc	2 140 13                        # crypto_aead/aes256gcm/aesni/aead_aes256gcm_aesni.c:140:13 @[ crypto_aead/aes256gcm/aesni/aead_aes256gcm_aesni.c:729:5 ]
	vaesenc	%xmm1, %xmm0, %xmm0
.Ltmp73:
	#DEBUG_VALUE: encrypt:t <- $xmm0
	#DEBUG_VALUE: encrypt:i <- 2
	.loc	2 114 16                        # crypto_aead/aes256gcm/aesni/aead_aes256gcm_aesni.c:114:16 @[ crypto_aead/aes256gcm/aesni/aead_aes256gcm_aesni.c:727:5 ]
	vmovdqa	%xmm2, 32(%rdi)
.Ltmp74:
	.loc	2 140 13                        # crypto_aead/aes256gcm/aesni/aead_aes256gcm_aesni.c:140:13 @[ crypto_aead/aes256gcm/aesni/aead_aes256gcm_aesni.c:729:5 ]
	vaesenc	%xmm2, %xmm0, %xmm0
.Ltmp75:
	#DEBUG_VALUE: encrypt:t <- $xmm0
	#DEBUG_VALUE: encrypt:i <- 3
	.loc	2 115 16                        # crypto_aead/aes256gcm/aesni/aead_aes256gcm_aesni.c:115:16 @[ crypto_aead/aes256gcm/aesni/aead_aes256gcm_aesni.c:727:5 ]
	vmovdqa	%xmm3, 48(%rdi)
.Ltmp76:
	.loc	2 140 13                        # crypto_aead/aes256gcm/aesni/aead_aes256gcm_aesni.c:140:13 @[ crypto_aead/aes256gcm/aesni/aead_aes256gcm_aesni.c:729:5 ]
	vaesenc	%xmm3, %xmm0, %xmm0
.Ltmp77:
	#DEBUG_VALUE: encrypt:t <- $xmm0
	#DEBUG_VALUE: encrypt:i <- 4
	.loc	2 124 36                        # crypto_aead/aes256gcm/aesni/aead_aes256gcm_aesni.c:124:36 @[ crypto_aead/aes256gcm/aesni/aead_aes256gcm_aesni.c:727:5 ]
	vaeskeygenassist	$32, %xmm12, %xmm1
.Ltmp78:
	#DEBUG_VALUE: expand256:s <- $xmm1
	.loc	2 124 366 is_stmt 0             # crypto_aead/aes256gcm/aesni/aead_aes256gcm_aesni.c:124:366 @[ crypto_aead/aes256gcm/aesni/aead_aes256gcm_aesni.c:727:5 ]
	vpshufd	$170, %xmm1, %xmm1              # xmm1 = xmm1[2,2,2,2]
.Ltmp79:
	.loc	2 124 335                       # crypto_aead/aes256gcm/aesni/aead_aes256gcm_aesni.c:124:335 @[ crypto_aead/aes256gcm/aesni/aead_aes256gcm_aesni.c:727:5 ]
	vpxor	%xmm1, %xmm13, %xmm1
.Ltmp80:
	#DEBUG_VALUE: expand256:t2 <- $xmm1
	.loc	2 116 16 is_stmt 1              # crypto_aead/aes256gcm/aesni/aead_aes256gcm_aesni.c:116:16 @[ crypto_aead/aes256gcm/aesni/aead_aes256gcm_aesni.c:727:5 ]
	vmovdqa	%xmm4, 64(%rdi)
.Ltmp81:
	.loc	2 140 13                        # crypto_aead/aes256gcm/aesni/aead_aes256gcm_aesni.c:140:13 @[ crypto_aead/aes256gcm/aesni/aead_aes256gcm_aesni.c:729:5 ]
	vaesenc	%xmm4, %xmm0, %xmm0
.Ltmp82:
	#DEBUG_VALUE: encrypt:t <- $xmm0
	#DEBUG_VALUE: encrypt:i <- 5
	.loc	2 117 16                        # crypto_aead/aes256gcm/aesni/aead_aes256gcm_aesni.c:117:16 @[ crypto_aead/aes256gcm/aesni/aead_aes256gcm_aesni.c:727:5 ]
	vmovdqa	%xmm5, 80(%rdi)
.Ltmp83:
	.loc	2 140 13                        # crypto_aead/aes256gcm/aesni/aead_aes256gcm_aesni.c:140:13 @[ crypto_aead/aes256gcm/aesni/aead_aes256gcm_aesni.c:729:5 ]
	vaesenc	%xmm5, %xmm0, %xmm0
.Ltmp84:
	#DEBUG_VALUE: encrypt:t <- $xmm0
	#DEBUG_VALUE: encrypt:i <- 6
	.loc	2 118 16                        # crypto_aead/aes256gcm/aesni/aead_aes256gcm_aesni.c:118:16 @[ crypto_aead/aes256gcm/aesni/aead_aes256gcm_aesni.c:727:5 ]
	vmovdqa	%xmm6, 96(%rdi)
	.loc	2 119 16                        # crypto_aead/aes256gcm/aesni/aead_aes256gcm_aesni.c:119:16 @[ crypto_aead/aes256gcm/aesni/aead_aes256gcm_aesni.c:727:5 ]
	vmovdqa	%xmm7, 112(%rdi)
.Ltmp85:
	.loc	2 140 13                        # crypto_aead/aes256gcm/aesni/aead_aes256gcm_aesni.c:140:13 @[ crypto_aead/aes256gcm/aesni/aead_aes256gcm_aesni.c:729:5 ]
	vaesenc	%xmm6, %xmm0, %xmm0
.Ltmp86:
	#DEBUG_VALUE: encrypt:t <- $xmm0
	#DEBUG_VALUE: encrypt:i <- 7
	.loc	2 125 148                       # crypto_aead/aes256gcm/aesni/aead_aes256gcm_aesni.c:125:148 @[ crypto_aead/aes256gcm/aesni/aead_aes256gcm_aesni.c:727:5 ]
	vpslldq	$4, %xmm12, %xmm2               # xmm2 = zero,zero,zero,zero,xmm12[0,1,2,3,4,5,6,7,8,9,10,11]
	.loc	2 125 117 is_stmt 0             # crypto_aead/aes256gcm/aesni/aead_aes256gcm_aesni.c:125:117 @[ crypto_aead/aes256gcm/aesni/aead_aes256gcm_aesni.c:727:5 ]
	vpxor	%xmm2, %xmm12, %xmm2
.Ltmp87:
	#DEBUG_VALUE: expand256:t1 <- $xmm2
	.loc	2 140 13 is_stmt 1              # crypto_aead/aes256gcm/aesni/aead_aes256gcm_aesni.c:140:13 @[ crypto_aead/aes256gcm/aesni/aead_aes256gcm_aesni.c:729:5 ]
	vaesenc	%xmm7, %xmm0, %xmm0
.Ltmp88:
	#DEBUG_VALUE: encrypt:t <- $xmm0
	#DEBUG_VALUE: encrypt:i <- 8
	.loc	2 125 257                       # crypto_aead/aes256gcm/aesni/aead_aes256gcm_aesni.c:125:257 @[ crypto_aead/aes256gcm/aesni/aead_aes256gcm_aesni.c:727:5 ]
	vpslldq	$8, %xmm2, %xmm3                # xmm3 = zero,zero,zero,zero,zero,zero,zero,zero,xmm2[0,1,2,3,4,5,6,7]
.Ltmp89:
	#DEBUG_VALUE: expand256:t1 <- [DW_OP_LLVM_arg 0, DW_OP_LLVM_arg 1, DW_OP_xor, DW_OP_stack_value] $xmm2, $xmm3
	.loc	2 125 335 is_stmt 0             # crypto_aead/aes256gcm/aesni/aead_aes256gcm_aesni.c:125:335 @[ crypto_aead/aes256gcm/aesni/aead_aes256gcm_aesni.c:727:5 ]
	vpxor	%xmm2, %xmm3, %xmm2
.Ltmp90:
	.loc	2 120 16 is_stmt 1              # crypto_aead/aes256gcm/aesni/aead_aes256gcm_aesni.c:120:16 @[ crypto_aead/aes256gcm/aesni/aead_aes256gcm_aesni.c:727:5 ]
	vmovdqa	%xmm8, 128(%rdi)
.Ltmp91:
	.loc	2 140 13                        # crypto_aead/aes256gcm/aesni/aead_aes256gcm_aesni.c:140:13 @[ crypto_aead/aes256gcm/aesni/aead_aes256gcm_aesni.c:729:5 ]
	vaesenc	%xmm8, %xmm0, %xmm0
.Ltmp92:
	#DEBUG_VALUE: encrypt:t <- $xmm0
	#DEBUG_VALUE: encrypt:i <- 9
	.loc	2 121 16                        # crypto_aead/aes256gcm/aesni/aead_aes256gcm_aesni.c:121:16 @[ crypto_aead/aes256gcm/aesni/aead_aes256gcm_aesni.c:727:5 ]
	vmovdqa	%xmm9, 144(%rdi)
.Ltmp93:
	.loc	2 140 13                        # crypto_aead/aes256gcm/aesni/aead_aes256gcm_aesni.c:140:13 @[ crypto_aead/aes256gcm/aesni/aead_aes256gcm_aesni.c:729:5 ]
	vaesenc	%xmm9, %xmm0, %xmm0
.Ltmp94:
	#DEBUG_VALUE: encrypt:t <- $xmm0
	#DEBUG_VALUE: encrypt:i <- 10
	.loc	2 122 16                        # crypto_aead/aes256gcm/aesni/aead_aes256gcm_aesni.c:122:16 @[ crypto_aead/aes256gcm/aesni/aead_aes256gcm_aesni.c:727:5 ]
	vmovdqa	%xmm10, 160(%rdi)
.Ltmp95:
	.loc	2 140 13                        # crypto_aead/aes256gcm/aesni/aead_aes256gcm_aesni.c:140:13 @[ crypto_aead/aes256gcm/aesni/aead_aes256gcm_aesni.c:729:5 ]
	vaesenc	%xmm10, %xmm0, %xmm0
.Ltmp96:
	#DEBUG_VALUE: encrypt:t <- $xmm0
	#DEBUG_VALUE: encrypt:i <- 11
	.loc	2 125 36                        # crypto_aead/aes256gcm/aesni/aead_aes256gcm_aesni.c:125:36 @[ crypto_aead/aes256gcm/aesni/aead_aes256gcm_aesni.c:727:5 ]
	vaeskeygenassist	$64, %xmm1, %xmm3
.Ltmp97:
	#DEBUG_VALUE: expand256:s <- $xmm3
	.loc	2 125 366 is_stmt 0             # crypto_aead/aes256gcm/aesni/aead_aes256gcm_aesni.c:125:366 @[ crypto_aead/aes256gcm/aesni/aead_aes256gcm_aesni.c:727:5 ]
	vpshufd	$255, %xmm3, %xmm3              # xmm3 = xmm3[3,3,3,3]
.Ltmp98:
	.loc	2 125 335                       # crypto_aead/aes256gcm/aesni/aead_aes256gcm_aesni.c:125:335 @[ crypto_aead/aes256gcm/aesni/aead_aes256gcm_aesni.c:727:5 ]
	vpxor	%xmm3, %xmm2, %xmm2
.Ltmp99:
	#DEBUG_VALUE: expand256:t1 <- $xmm2
	.loc	2 123 16 is_stmt 1              # crypto_aead/aes256gcm/aesni/aead_aes256gcm_aesni.c:123:16 @[ crypto_aead/aes256gcm/aesni/aead_aes256gcm_aesni.c:727:5 ]
	vmovdqa	%xmm11, 176(%rdi)
	.loc	2 124 16                        # crypto_aead/aes256gcm/aesni/aead_aes256gcm_aesni.c:124:16 @[ crypto_aead/aes256gcm/aesni/aead_aes256gcm_aesni.c:727:5 ]
	vmovdqa	%xmm12, 192(%rdi)
	.loc	2 125 16                        # crypto_aead/aes256gcm/aesni/aead_aes256gcm_aesni.c:125:16 @[ crypto_aead/aes256gcm/aesni/aead_aes256gcm_aesni.c:727:5 ]
	vmovdqa	%xmm1, 208(%rdi)
.Ltmp100:
	.loc	2 140 13                        # crypto_aead/aes256gcm/aesni/aead_aes256gcm_aesni.c:140:13 @[ crypto_aead/aes256gcm/aesni/aead_aes256gcm_aesni.c:729:5 ]
	vaesenc	%xmm11, %xmm0, %xmm0
.Ltmp101:
	#DEBUG_VALUE: encrypt:t <- $xmm0
	#DEBUG_VALUE: encrypt:i <- 12
	vaesenc	%xmm12, %xmm0, %xmm0
.Ltmp102:
	#DEBUG_VALUE: encrypt:t <- $xmm0
	#DEBUG_VALUE: encrypt:i <- 13
	vaesenc	%xmm1, %xmm0, %xmm0
.Ltmp103:
	#DEBUG_VALUE: encrypt:t <- $xmm0
	#DEBUG_VALUE: encrypt:i <- 14
	.loc	2 142 9                         # crypto_aead/aes256gcm/aesni/aead_aes256gcm_aesni.c:142:9 @[ crypto_aead/aes256gcm/aesni/aead_aes256gcm_aesni.c:729:5 ]
	vaesenclast	%xmm2, %xmm0, %xmm0
.Ltmp104:
	#DEBUG_VALUE: encrypt:t <- $xmm0
	#DEBUG_VALUE: precomp_for_block_count:block_count <- 14
	#DEBUG_VALUE: precomp_for_block_count:hx <- [DW_OP_plus_uconst 240, DW_OP_stack_value] $rdi
	.loc	2 126 16                        # crypto_aead/aes256gcm/aesni/aead_aes256gcm_aesni.c:126:16 @[ crypto_aead/aes256gcm/aesni/aead_aes256gcm_aesni.c:727:5 ]
	vmovdqa	%xmm2, 224(%rdi)
.Ltmp105:
	.loc	2 270 25                        # crypto_aead/aes256gcm/aesni/aead_aes256gcm_aesni.c:270:25 @[ crypto_aead/aes256gcm/aesni/aead_aes256gcm_aesni.c:731:5 ]
	vpshufb	.LCPI0_0(%rip), %xmm0, %xmm0    # xmm0 = xmm0[15,14,13,12,11,10,9,8,7,6,5,4,3,2,1,0]
.Ltmp106:
	#DEBUG_VALUE: precomp_for_block_count:h0 <- $xmm0
	.loc	2 113 257                       # crypto_aead/aes256gcm/aesni/aead_aes256gcm_aesni.c:113:257 @[ crypto_aead/aes256gcm/aesni/aead_aes256gcm_aesni.c:727:5 ]
	vpxor	%xmm1, %xmm1, %xmm1
.Ltmp107:
	.loc	2 272 59                        # crypto_aead/aes256gcm/aesni/aead_aes256gcm_aesni.c:272:59 @[ crypto_aead/aes256gcm/aesni/aead_aes256gcm_aesni.c:731:5 ]
	vpcmpgtq	%xmm0, %xmm1, %xmm1
.Ltmp108:
	#DEBUG_VALUE: precomp_for_block_count:mask <- undef
	.loc	2 276 22                        # crypto_aead/aes256gcm/aesni/aead_aes256gcm_aesni.c:276:22 @[ crypto_aead/aes256gcm/aesni/aead_aes256gcm_aesni.c:731:5 ]
	vpshufd	$255, %xmm1, %xmm1              # xmm1 = xmm1[3,3,3,3]
.Ltmp109:
	#DEBUG_VALUE: precomp_for_block_count:mask <- $xmm1
	.loc	2 277 13                        # crypto_aead/aes256gcm/aesni/aead_aes256gcm_aesni.c:277:13 @[ crypto_aead/aes256gcm/aesni/aead_aes256gcm_aesni.c:731:5 ]
	vpand	.LCPI0_1(%rip), %xmm1, %xmm1
.Ltmp110:
	#DEBUG_VALUE: precomp_for_block_count:carry <- $xmm1
	#DEBUG_VALUE: precomp_for_block_count:carry <- undef
	.loc	2 278 91                        # crypto_aead/aes256gcm/aesni/aead_aes256gcm_aesni.c:278:91 @[ crypto_aead/aes256gcm/aesni/aead_aes256gcm_aesni.c:731:5 ]
	vpslldq	$8, %xmm0, %xmm2                # xmm2 = zero,zero,zero,zero,zero,zero,zero,zero,xmm0[0,1,2,3,4,5,6,7]
.Ltmp111:
	.loc	2 278 18 is_stmt 0              # crypto_aead/aes256gcm/aesni/aead_aes256gcm_aesni.c:278:18 @[ crypto_aead/aes256gcm/aesni/aead_aes256gcm_aesni.c:731:5 ]
	vpsrlq	$63, %xmm2, %xmm2
	vpaddq	%xmm0, %xmm0, %xmm0
.Ltmp112:
	vpor	%xmm2, %xmm0, %xmm0
.Ltmp113:
	#DEBUG_VALUE: precomp_for_block_count:h0_shifted <- undef
	.loc	2 279 9 is_stmt 1               # crypto_aead/aes256gcm/aesni/aead_aes256gcm_aesni.c:279:9 @[ crypto_aead/aes256gcm/aesni/aead_aes256gcm_aesni.c:731:5 ]
	vpxor	%xmm0, %xmm1, %xmm0
.Ltmp114:
	#DEBUG_VALUE: precomp_for_block_count:h <- $xmm0
	#DEBUG_VALUE: clsq128:x <- $xmm0
	.loc	2 195 37                        # crypto_aead/aes256gcm/aesni/aead_aes256gcm_aesni.c:195:37 @[ crypto_aead/aes256gcm/aesni/aead_aes256gcm_aesni.c:282:24 @[ crypto_aead/aes256gcm/aesni/aead_aes256gcm_aesni.c:731:5 ] ]
	vpclmulqdq	$0, %xmm0, %xmm0, %xmm2
.Ltmp115:
	#DEBUG_VALUE: clsq128:r_lo <- $xmm2
	.loc	2 196 37                        # crypto_aead/aes256gcm/aesni/aead_aes256gcm_aesni.c:196:37 @[ crypto_aead/aes256gcm/aesni/aead_aes256gcm_aesni.c:282:24 @[ crypto_aead/aes256gcm/aesni/aead_aes256gcm_aesni.c:731:5 ] ]
	vpclmulqdq	$17, %xmm0, %xmm0, %xmm3
.Ltmp116:
	#DEBUG_VALUE: clsq128:r_hi <- $xmm3
	#DEBUG_VALUE: gcm_reduce:x <- [DW_OP_LLVM_fragment 0 128] $xmm3
	.loc	2 0 37 is_stmt 0                # crypto_aead/aes256gcm/aesni/aead_aes256gcm_aesni.c:0:37
	movabsq	$-4467570830351532032, %rax     # imm = 0xC200000000000000
.Ltmp117:
	#DEBUG_VALUE: gcm_reduce:x <- [DW_OP_LLVM_fragment 128 128] $xmm2
	#DEBUG_VALUE: gcm_reduce:lo <- $xmm2
	.loc	2 243 34 is_stmt 1              # crypto_aead/aes256gcm/aesni/aead_aes256gcm_aesni.c:243:34 @[ crypto_aead/aes256gcm/aesni/aead_aes256gcm_aesni.c:282:13 @[ crypto_aead/aes256gcm/aesni/aead_aes256gcm_aesni.c:731:5 ] ]
	vmovq	%rax, %xmm1
	vpclmulqdq	$0, %xmm1, %xmm2, %xmm4
.Ltmp118:
	#DEBUG_VALUE: gcm_reduce:a <- $xmm4
	.loc	2 244 40                        # crypto_aead/aes256gcm/aesni/aead_aes256gcm_aesni.c:244:40 @[ crypto_aead/aes256gcm/aesni/aead_aes256gcm_aesni.c:282:13 @[ crypto_aead/aes256gcm/aesni/aead_aes256gcm_aesni.c:731:5 ] ]
	vpshufd	$78, %xmm2, %xmm2               # xmm2 = xmm2[2,3,0,1]
.Ltmp119:
	.loc	2 244 24 is_stmt 0              # crypto_aead/aes256gcm/aesni/aead_aes256gcm_aesni.c:244:24 @[ crypto_aead/aes256gcm/aesni/aead_aes256gcm_aesni.c:282:13 @[ crypto_aead/aes256gcm/aesni/aead_aes256gcm_aesni.c:731:5 ] ]
	vpxor	%xmm2, %xmm4, %xmm2
.Ltmp120:
	#DEBUG_VALUE: gcm_reduce:b <- $xmm2
	#DEBUG_VALUE: gcm_reduce:c <- undef
	.loc	2 246 40 is_stmt 1              # crypto_aead/aes256gcm/aesni/aead_aes256gcm_aesni.c:246:40 @[ crypto_aead/aes256gcm/aesni/aead_aes256gcm_aesni.c:282:13 @[ crypto_aead/aes256gcm/aesni/aead_aes256gcm_aesni.c:731:5 ] ]
	vpshufd	$78, %xmm2, %xmm4               # xmm4 = xmm2[2,3,0,1]
.Ltmp121:
	.loc	2 239 25                        # crypto_aead/aes256gcm/aesni/aead_aes256gcm_aesni.c:239:25 @[ crypto_aead/aes256gcm/aesni/aead_aes256gcm_aesni.c:282:13 @[ crypto_aead/aes256gcm/aesni/aead_aes256gcm_aesni.c:731:5 ] ]
	vpxor	%xmm4, %xmm3, %xmm3
.Ltmp122:
	.loc	2 245 34                        # crypto_aead/aes256gcm/aesni/aead_aes256gcm_aesni.c:245:34 @[ crypto_aead/aes256gcm/aesni/aead_aes256gcm_aesni.c:282:13 @[ crypto_aead/aes256gcm/aesni/aead_aes256gcm_aesni.c:731:5 ] ]
	vpclmulqdq	$0, %xmm1, %xmm2, %xmm2
.Ltmp123:
	#DEBUG_VALUE: gcm_reduce:c <- $xmm2
	.loc	2 248 12                        # crypto_aead/aes256gcm/aesni/aead_aes256gcm_aesni.c:248:12 @[ crypto_aead/aes256gcm/aesni/aead_aes256gcm_aesni.c:282:13 @[ crypto_aead/aes256gcm/aesni/aead_aes256gcm_aesni.c:731:5 ] ]
	vpxor	%xmm3, %xmm2, %xmm2
.Ltmp124:
	.loc	2 281 11                        # crypto_aead/aes256gcm/aesni/aead_aes256gcm_aesni.c:281:11 @[ crypto_aead/aes256gcm/aesni/aead_aes256gcm_aesni.c:731:5 ]
	vmovdqa	%xmm0, 240(%rdi)
	.loc	2 282 11                        # crypto_aead/aes256gcm/aesni/aead_aes256gcm_aesni.c:282:11 @[ crypto_aead/aes256gcm/aesni/aead_aes256gcm_aesni.c:731:5 ]
	vmovdqa	%xmm2, 256(%rdi)
	xorl	%eax, %eax
	#DEBUG_VALUE: precomp:from <- 2
	#DEBUG_VALUE: precomp:to <- 14
	#DEBUG_VALUE: precomp:h <- $xmm0
	#DEBUG_VALUE: precomp:i <- 2
	#DEBUG_VALUE: precomp:hx <- [DW_OP_plus_uconst 240, DW_OP_stack_value] $rdi
	#DEBUG_VALUE: gcm_reduce:x <- [DW_OP_LLVM_fragment 256 128] undef
	#DEBUG_VALUE: gcm_reduce:p64 <- undef
	xorl	%ecx, %ecx
.Ltmp125:
	.loc	2 0 11 is_stmt 0                # :0:11
.Ltmp126:
	.p2align	4
.LBB0_1:                                # =>This Inner Loop Header: Depth=1
	#DEBUG_VALUE: crypto_aead_aes256gcm_beforenm:st_ <- $rdi
	#DEBUG_VALUE: crypto_aead_aes256gcm_beforenm:k <- $rsi
	#DEBUG_VALUE: crypto_aead_aes256gcm_beforenm:st <- $rdi
	#DEBUG_VALUE: precomp_for_block_count:block_count <- 14
	#DEBUG_VALUE: precomp_for_block_count:hx <- [DW_OP_plus_uconst 240, DW_OP_stack_value] $rdi
	#DEBUG_VALUE: precomp_for_block_count:h <- $xmm0
	#DEBUG_VALUE: precomp:from <- 2
	#DEBUG_VALUE: precomp:to <- 14
	#DEBUG_VALUE: precomp:h <- $xmm0
	#DEBUG_VALUE: precomp:hx <- [DW_OP_plus_uconst 240, DW_OP_stack_value] $rdi
	#DEBUG_VALUE: precomp:i <- [DW_OP_plus_uconst 2, DW_OP_stack_value] $rcx
	.loc	2 259 37 is_stmt 1              # crypto_aead/aes256gcm/aesni/aead_aes256gcm_aesni.c:259:37 @[ crypto_aead/aes256gcm/aesni/aead_aes256gcm_aesni.c:285:9 @[ crypto_aead/aes256gcm/aesni/aead_aes256gcm_aesni.c:731:5 ] ]
	vmovdqa	256(%rdi,%rax), %xmm2
.Ltmp127:
	#DEBUG_VALUE: clmul128:x <- $xmm2
	#DEBUG_VALUE: clmul128:y <- $xmm0
	.loc	2 223 37                        # crypto_aead/aes256gcm/aesni/aead_aes256gcm_aesni.c:223:37 @[ crypto_aead/aes256gcm/aesni/aead_aes256gcm_aesni.c:259:28 @[ crypto_aead/aes256gcm/aesni/aead_aes256gcm_aesni.c:285:9 @[ crypto_aead/aes256gcm/aesni/aead_aes256gcm_aesni.c:731:5 ] ] ]
	vpclmulqdq	$17, %xmm0, %xmm2, %xmm3
.Ltmp128:
	#DEBUG_VALUE: clmul128:r_hi <- $xmm3
	.loc	2 224 37                        # crypto_aead/aes256gcm/aesni/aead_aes256gcm_aesni.c:224:37 @[ crypto_aead/aes256gcm/aesni/aead_aes256gcm_aesni.c:259:28 @[ crypto_aead/aes256gcm/aesni/aead_aes256gcm_aesni.c:285:9 @[ crypto_aead/aes256gcm/aesni/aead_aes256gcm_aesni.c:731:5 ] ] ]
	vpclmulqdq	$0, %xmm0, %xmm2, %xmm4
.Ltmp129:
	#DEBUG_VALUE: clmul128:r_lo <- $xmm4
	.loc	2 225 53                        # crypto_aead/aes256gcm/aesni/aead_aes256gcm_aesni.c:225:53 @[ crypto_aead/aes256gcm/aesni/aead_aes256gcm_aesni.c:259:28 @[ crypto_aead/aes256gcm/aesni/aead_aes256gcm_aesni.c:285:9 @[ crypto_aead/aes256gcm/aesni/aead_aes256gcm_aesni.c:731:5 ] ] ]
	vpclmulqdq	$1, %xmm0, %xmm2, %xmm5
	.loc	2 225 157 is_stmt 0             # crypto_aead/aes256gcm/aesni/aead_aes256gcm_aesni.c:225:157 @[ crypto_aead/aes256gcm/aesni/aead_aes256gcm_aesni.c:259:28 @[ crypto_aead/aes256gcm/aesni/aead_aes256gcm_aesni.c:285:9 @[ crypto_aead/aes256gcm/aesni/aead_aes256gcm_aesni.c:731:5 ] ] ]
	vpclmulqdq	$16, %xmm0, %xmm2, %xmm2
.Ltmp130:
	.loc	2 225 28                        # crypto_aead/aes256gcm/aesni/aead_aes256gcm_aesni.c:225:28 @[ crypto_aead/aes256gcm/aesni/aead_aes256gcm_aesni.c:259:28 @[ crypto_aead/aes256gcm/aesni/aead_aes256gcm_aesni.c:285:9 @[ crypto_aead/aes256gcm/aesni/aead_aes256gcm_aesni.c:731:5 ] ] ]
	vpxor	%xmm5, %xmm2, %xmm2
.Ltmp131:
	#DEBUG_VALUE: clmul128:r_mid <- $xmm2
	#DEBUG_VALUE: gcm_reduce:x <- [DW_OP_LLVM_fragment 256 128] $xmm2
	#DEBUG_VALUE: gcm_reduce:x <- [DW_OP_LLVM_fragment 0 128] $xmm3
	#DEBUG_VALUE: gcm_reduce:x <- [DW_OP_LLVM_fragment 128 128] $xmm4
	.loc	2 239 58 is_stmt 1              # crypto_aead/aes256gcm/aesni/aead_aes256gcm_aesni.c:239:58 @[ crypto_aead/aes256gcm/aesni/aead_aes256gcm_aesni.c:259:17 @[ crypto_aead/aes256gcm/aesni/aead_aes256gcm_aesni.c:285:9 @[ crypto_aead/aes256gcm/aesni/aead_aes256gcm_aesni.c:731:5 ] ] ]
	vpsrldq	$8, %xmm2, %xmm5                # xmm5 = xmm2[8,9,10,11,12,13,14,15],zero,zero,zero,zero,zero,zero,zero,zero
.Ltmp132:
	#DEBUG_VALUE: gcm_reduce:hi <- undef
	.loc	2 246 24                        # crypto_aead/aes256gcm/aesni/aead_aes256gcm_aesni.c:246:24 @[ crypto_aead/aes256gcm/aesni/aead_aes256gcm_aesni.c:259:17 @[ crypto_aead/aes256gcm/aesni/aead_aes256gcm_aesni.c:285:9 @[ crypto_aead/aes256gcm/aesni/aead_aes256gcm_aesni.c:731:5 ] ] ]
	vpxor	%xmm5, %xmm3, %xmm3
.Ltmp133:
	.loc	2 240 58                        # crypto_aead/aes256gcm/aesni/aead_aes256gcm_aesni.c:240:58 @[ crypto_aead/aes256gcm/aesni/aead_aes256gcm_aesni.c:259:17 @[ crypto_aead/aes256gcm/aesni/aead_aes256gcm_aesni.c:285:9 @[ crypto_aead/aes256gcm/aesni/aead_aes256gcm_aesni.c:731:5 ] ] ]
	vpslldq	$8, %xmm2, %xmm2                # xmm2 = zero,zero,zero,zero,zero,zero,zero,zero,xmm2[0,1,2,3,4,5,6,7]
.Ltmp134:
	.loc	2 240 25 is_stmt 0              # crypto_aead/aes256gcm/aesni/aead_aes256gcm_aesni.c:240:25 @[ crypto_aead/aes256gcm/aesni/aead_aes256gcm_aesni.c:259:17 @[ crypto_aead/aes256gcm/aesni/aead_aes256gcm_aesni.c:285:9 @[ crypto_aead/aes256gcm/aesni/aead_aes256gcm_aesni.c:731:5 ] ] ]
	vpxor	%xmm2, %xmm4, %xmm2
.Ltmp135:
	#DEBUG_VALUE: gcm_reduce:lo <- $xmm2
	.loc	2 243 34 is_stmt 1              # crypto_aead/aes256gcm/aesni/aead_aes256gcm_aesni.c:243:34 @[ crypto_aead/aes256gcm/aesni/aead_aes256gcm_aesni.c:259:17 @[ crypto_aead/aes256gcm/aesni/aead_aes256gcm_aesni.c:285:9 @[ crypto_aead/aes256gcm/aesni/aead_aes256gcm_aesni.c:731:5 ] ] ]
	vpclmulqdq	$0, %xmm1, %xmm2, %xmm4
.Ltmp136:
	#DEBUG_VALUE: gcm_reduce:a <- $xmm4
	.loc	2 244 40                        # crypto_aead/aes256gcm/aesni/aead_aes256gcm_aesni.c:244:40 @[ crypto_aead/aes256gcm/aesni/aead_aes256gcm_aesni.c:259:17 @[ crypto_aead/aes256gcm/aesni/aead_aes256gcm_aesni.c:285:9 @[ crypto_aead/aes256gcm/aesni/aead_aes256gcm_aesni.c:731:5 ] ] ]
	vpshufd	$78, %xmm2, %xmm2               # xmm2 = xmm2[2,3,0,1]
.Ltmp137:
	.loc	2 244 24 is_stmt 0              # crypto_aead/aes256gcm/aesni/aead_aes256gcm_aesni.c:244:24 @[ crypto_aead/aes256gcm/aesni/aead_aes256gcm_aesni.c:259:17 @[ crypto_aead/aes256gcm/aesni/aead_aes256gcm_aesni.c:285:9 @[ crypto_aead/aes256gcm/aesni/aead_aes256gcm_aesni.c:731:5 ] ] ]
	vpxor	%xmm2, %xmm4, %xmm2
.Ltmp138:
	#DEBUG_VALUE: gcm_reduce:b <- $xmm2
	.loc	2 245 34 is_stmt 1              # crypto_aead/aes256gcm/aesni/aead_aes256gcm_aesni.c:245:34 @[ crypto_aead/aes256gcm/aesni/aead_aes256gcm_aesni.c:259:17 @[ crypto_aead/aes256gcm/aesni/aead_aes256gcm_aesni.c:285:9 @[ crypto_aead/aes256gcm/aesni/aead_aes256gcm_aesni.c:731:5 ] ] ]
	vpclmulqdq	$0, %xmm1, %xmm2, %xmm4
.Ltmp139:
	#DEBUG_VALUE: gcm_reduce:c <- $xmm4
	.loc	2 246 40                        # crypto_aead/aes256gcm/aesni/aead_aes256gcm_aesni.c:246:40 @[ crypto_aead/aes256gcm/aesni/aead_aes256gcm_aesni.c:259:17 @[ crypto_aead/aes256gcm/aesni/aead_aes256gcm_aesni.c:285:9 @[ crypto_aead/aes256gcm/aesni/aead_aes256gcm_aesni.c:731:5 ] ] ]
	vpshufd	$78, %xmm2, %xmm2               # xmm2 = xmm2[2,3,0,1]
.Ltmp140:
	#DEBUG_VALUE: gcm_reduce:d <- undef
	.loc	2 239 25                        # crypto_aead/aes256gcm/aesni/aead_aes256gcm_aesni.c:239:25 @[ crypto_aead/aes256gcm/aesni/aead_aes256gcm_aesni.c:259:17 @[ crypto_aead/aes256gcm/aesni/aead_aes256gcm_aesni.c:285:9 @[ crypto_aead/aes256gcm/aesni/aead_aes256gcm_aesni.c:731:5 ] ] ]
	vpxor	%xmm2, %xmm3, %xmm2
	.loc	2 248 12                        # crypto_aead/aes256gcm/aesni/aead_aes256gcm_aesni.c:248:12 @[ crypto_aead/aes256gcm/aesni/aead_aes256gcm_aesni.c:259:17 @[ crypto_aead/aes256gcm/aesni/aead_aes256gcm_aesni.c:285:9 @[ crypto_aead/aes256gcm/aesni/aead_aes256gcm_aesni.c:731:5 ] ] ]
	vpxor	%xmm2, %xmm4, %xmm2
.Ltmp141:
	.loc	2 259 15                        # crypto_aead/aes256gcm/aesni/aead_aes256gcm_aesni.c:259:15 @[ crypto_aead/aes256gcm/aesni/aead_aes256gcm_aesni.c:285:9 @[ crypto_aead/aes256gcm/aesni/aead_aes256gcm_aesni.c:731:5 ] ]
	vmovdqa	%xmm2, 272(%rdi,%rax)
	.loc	2 260 40                        # crypto_aead/aes256gcm/aesni/aead_aes256gcm_aesni.c:260:40 @[ crypto_aead/aes256gcm/aesni/aead_aes256gcm_aesni.c:285:9 @[ crypto_aead/aes256gcm/aesni/aead_aes256gcm_aesni.c:731:5 ] ]
	vmovdqa	256(%rdi,%rcx,8), %xmm2
.Ltmp142:
	#DEBUG_VALUE: clsq128:x <- $xmm2
	.loc	2 195 37                        # crypto_aead/aes256gcm/aesni/aead_aes256gcm_aesni.c:195:37 @[ crypto_aead/aes256gcm/aesni/aead_aes256gcm_aesni.c:260:32 @[ crypto_aead/aes256gcm/aesni/aead_aes256gcm_aesni.c:285:9 @[ crypto_aead/aes256gcm/aesni/aead_aes256gcm_aesni.c:731:5 ] ] ]
	vpclmulqdq	$0, %xmm2, %xmm2, %xmm3
.Ltmp143:
	#DEBUG_VALUE: clsq128:r_lo <- $xmm3
	.loc	2 196 37                        # crypto_aead/aes256gcm/aesni/aead_aes256gcm_aesni.c:196:37 @[ crypto_aead/aes256gcm/aesni/aead_aes256gcm_aesni.c:260:32 @[ crypto_aead/aes256gcm/aesni/aead_aes256gcm_aesni.c:285:9 @[ crypto_aead/aes256gcm/aesni/aead_aes256gcm_aesni.c:731:5 ] ] ]
	vpclmulqdq	$17, %xmm2, %xmm2, %xmm2
.Ltmp144:
	#DEBUG_VALUE: clsq128:r_hi <- $xmm2
	#DEBUG_VALUE: gcm_reduce:x <- [DW_OP_LLVM_fragment 0 128] $xmm2
	#DEBUG_VALUE: gcm_reduce:x <- [DW_OP_LLVM_fragment 128 128] $xmm3
	#DEBUG_VALUE: gcm_reduce:hi <- undef
	#DEBUG_VALUE: gcm_reduce:lo <- $xmm3
	#DEBUG_VALUE: gcm_reduce:p64 <- undef
	.loc	2 243 34                        # crypto_aead/aes256gcm/aesni/aead_aes256gcm_aesni.c:243:34 @[ crypto_aead/aes256gcm/aesni/aead_aes256gcm_aesni.c:260:21 @[ crypto_aead/aes256gcm/aesni/aead_aes256gcm_aesni.c:285:9 @[ crypto_aead/aes256gcm/aesni/aead_aes256gcm_aesni.c:731:5 ] ] ]
	vpclmulqdq	$0, %xmm1, %xmm3, %xmm4
.Ltmp145:
	#DEBUG_VALUE: gcm_reduce:a <- $xmm4
	.loc	2 244 40                        # crypto_aead/aes256gcm/aesni/aead_aes256gcm_aesni.c:244:40 @[ crypto_aead/aes256gcm/aesni/aead_aes256gcm_aesni.c:260:21 @[ crypto_aead/aes256gcm/aesni/aead_aes256gcm_aesni.c:285:9 @[ crypto_aead/aes256gcm/aesni/aead_aes256gcm_aesni.c:731:5 ] ] ]
	vpshufd	$78, %xmm3, %xmm3               # xmm3 = xmm3[2,3,0,1]
.Ltmp146:
	.loc	2 244 24 is_stmt 0              # crypto_aead/aes256gcm/aesni/aead_aes256gcm_aesni.c:244:24 @[ crypto_aead/aes256gcm/aesni/aead_aes256gcm_aesni.c:260:21 @[ crypto_aead/aes256gcm/aesni/aead_aes256gcm_aesni.c:285:9 @[ crypto_aead/aes256gcm/aesni/aead_aes256gcm_aesni.c:731:5 ] ] ]
	vpxor	%xmm3, %xmm4, %xmm3
.Ltmp147:
	#DEBUG_VALUE: gcm_reduce:b <- $xmm3
	.loc	2 245 34 is_stmt 1              # crypto_aead/aes256gcm/aesni/aead_aes256gcm_aesni.c:245:34 @[ crypto_aead/aes256gcm/aesni/aead_aes256gcm_aesni.c:260:21 @[ crypto_aead/aes256gcm/aesni/aead_aes256gcm_aesni.c:285:9 @[ crypto_aead/aes256gcm/aesni/aead_aes256gcm_aesni.c:731:5 ] ] ]
	vpclmulqdq	$0, %xmm1, %xmm3, %xmm4
.Ltmp148:
	#DEBUG_VALUE: gcm_reduce:c <- $xmm4
	.loc	2 246 40                        # crypto_aead/aes256gcm/aesni/aead_aes256gcm_aesni.c:246:40 @[ crypto_aead/aes256gcm/aesni/aead_aes256gcm_aesni.c:260:21 @[ crypto_aead/aes256gcm/aesni/aead_aes256gcm_aesni.c:285:9 @[ crypto_aead/aes256gcm/aesni/aead_aes256gcm_aesni.c:731:5 ] ] ]
	vpshufd	$78, %xmm3, %xmm3               # xmm3 = xmm3[2,3,0,1]
.Ltmp149:
	#DEBUG_VALUE: gcm_reduce:d <- undef
	.loc	2 239 25                        # crypto_aead/aes256gcm/aesni/aead_aes256gcm_aesni.c:239:25 @[ crypto_aead/aes256gcm/aesni/aead_aes256gcm_aesni.c:260:21 @[ crypto_aead/aes256gcm/aesni/aead_aes256gcm_aesni.c:285:9 @[ crypto_aead/aes256gcm/aesni/aead_aes256gcm_aesni.c:731:5 ] ] ]
	vpxor	%xmm3, %xmm2, %xmm2
.Ltmp150:
	.loc	2 248 12                        # crypto_aead/aes256gcm/aesni/aead_aes256gcm_aesni.c:248:12 @[ crypto_aead/aes256gcm/aesni/aead_aes256gcm_aesni.c:260:21 @[ crypto_aead/aes256gcm/aesni/aead_aes256gcm_aesni.c:285:9 @[ crypto_aead/aes256gcm/aesni/aead_aes256gcm_aesni.c:731:5 ] ] ]
	vpxor	%xmm2, %xmm4, %xmm2
.Ltmp151:
	.loc	2 260 19                        # crypto_aead/aes256gcm/aesni/aead_aes256gcm_aesni.c:260:19 @[ crypto_aead/aes256gcm/aesni/aead_aes256gcm_aesni.c:285:9 @[ crypto_aead/aes256gcm/aesni/aead_aes256gcm_aesni.c:731:5 ] ]
	vmovdqa	%xmm2, 288(%rdi,%rax)
.Ltmp152:
	#DEBUG_VALUE: precomp:i <- [DW_OP_plus_uconst 4, DW_OP_stack_value] $rcx
	.loc	2 258 28                        # crypto_aead/aes256gcm/aesni/aead_aes256gcm_aesni.c:258:28 @[ crypto_aead/aes256gcm/aesni/aead_aes256gcm_aesni.c:285:9 @[ crypto_aead/aes256gcm/aesni/aead_aes256gcm_aesni.c:731:5 ] ]
	addq	$2, %rcx
.Ltmp153:
	addq	$32, %rax
	cmpq	$12, %rcx
.Ltmp154:
	#DEBUG_VALUE: gcm_reduce:p64 <- undef
	#DEBUG_VALUE: gcm_reduce:x <- [DW_OP_LLVM_fragment 256 128] undef
	.loc	2 258 5 is_stmt 0               # crypto_aead/aes256gcm/aesni/aead_aes256gcm_aesni.c:258:5 @[ crypto_aead/aes256gcm/aesni/aead_aes256gcm_aesni.c:285:9 @[ crypto_aead/aes256gcm/aesni/aead_aes256gcm_aesni.c:731:5 ] ]
	jb	.LBB0_1
.Ltmp155:
# %bb.2:                                # %precomp_for_block_count.exit
	#DEBUG_VALUE: crypto_aead_aes256gcm_beforenm:st_ <- $rdi
	#DEBUG_VALUE: crypto_aead_aes256gcm_beforenm:k <- $rsi
	#DEBUG_VALUE: crypto_aead_aes256gcm_beforenm:st <- $rdi
	.loc	2 733 5 is_stmt 1               # crypto_aead/aes256gcm/aesni/aead_aes256gcm_aesni.c:733:5
	xorl	%eax, %eax
	retq
.Ltmp156:
.Lfunc_end0:
	.size	crypto_aead_aes256gcm_beforenm, .Lfunc_end0-crypto_aead_aes256gcm_beforenm
	.cfi_endproc
                                        # -- End function
	.section	.rodata.cst16,"aM",@progbits,16
	.p2align	4, 0x0                          # -- Begin function crypto_aead_aes256gcm_encrypt_detached_afternm
.LCPI1_0:
	.zero	1
	.zero	1
	.zero	1
	.zero	1
	.zero	1
	.zero	1
	.zero	1
	.zero	1
	.zero	1
	.zero	1
	.zero	1
	.zero	1
	.byte	0                               # 0x0
	.byte	0                               # 0x0
	.byte	0                               # 0x0
	.byte	2                               # 0x2
.LCPI1_1:
	.byte	15                              # 0xf
	.byte	14                              # 0xe
	.byte	13                              # 0xd
	.byte	12                              # 0xc
	.byte	11                              # 0xb
	.byte	10                              # 0xa
	.byte	9                               # 0x9
	.byte	8                               # 0x8
	.byte	7                               # 0x7
	.byte	6                               # 0x6
	.byte	5                               # 0x5
	.byte	4                               # 0x4
	.byte	3                               # 0x3
	.byte	2                               # 0x2
	.byte	1                               # 0x1
	.byte	0                               # 0x0
.LCPI1_2:
	.long	1                               # 0x1
	.long	0                               # 0x0
	.long	0                               # 0x0
	.long	0                               # 0x0
.LCPI1_3:
	.long	2                               # 0x2
	.long	0                               # 0x0
	.long	0                               # 0x0
	.long	0                               # 0x0
.LCPI1_4:
	.long	3                               # 0x3
	.long	0                               # 0x0
	.long	0                               # 0x0
	.long	0                               # 0x0
.LCPI1_5:
	.long	4                               # 0x4
	.long	0                               # 0x0
	.long	0                               # 0x0
	.long	0                               # 0x0
.LCPI1_6:
	.long	5                               # 0x5
	.long	0                               # 0x0
	.long	0                               # 0x0
	.long	0                               # 0x0
.LCPI1_7:
	.long	6                               # 0x6
	.long	0                               # 0x0
	.long	0                               # 0x0
	.long	0                               # 0x0
.LCPI1_8:
	.long	7                               # 0x7
	.long	0                               # 0x0
	.long	0                               # 0x0
	.long	0                               # 0x0
.LCPI1_9:
	.long	8                               # 0x8
	.long	0                               # 0x0
	.long	0                               # 0x0
	.long	0                               # 0x0
.LCPI1_10:
	.long	9                               # 0x9
	.long	0                               # 0x0
	.long	0                               # 0x0
	.long	0                               # 0x0
.LCPI1_11:
	.long	10                              # 0xa
	.long	0                               # 0x0
	.long	0                               # 0x0
	.long	0                               # 0x0
.LCPI1_12:
	.long	11                              # 0xb
	.long	0                               # 0x0
	.long	0                               # 0x0
	.long	0                               # 0x0
.LCPI1_13:
	.long	12                              # 0xc
	.long	0                               # 0x0
	.long	0                               # 0x0
	.long	0                               # 0x0
.LCPI1_14:
	.long	13                              # 0xd
	.long	0                               # 0x0
	.long	0                               # 0x0
	.long	0                               # 0x0
.LCPI1_15:
	.long	14                              # 0xe
	.long	0                               # 0x0
	.long	0                               # 0x0
	.long	0                               # 0x0
.LCPI1_16:
	.zero	1
	.zero	1
	.zero	1
	.zero	1
	.zero	1
	.zero	1
	.zero	1
	.zero	1
	.zero	1
	.zero	1
	.zero	1
	.zero	1
	.byte	0                               # 0x0
	.byte	0                               # 0x0
	.byte	0                               # 0x0
	.byte	1                               # 0x1
.LCPI1_17:
	.zero	16,208
	.section	.rodata.cst4,"aM",@progbits,4
	.p2align	2, 0x0
.LCPI1_18:
	.zero	4,208
.LCPI1_19:
	.long	6                               # 0x6
.LCPI1_20:
	.long	2                               # 0x2
.LCPI1_21:
	.long	3                               # 0x3
.LCPI1_22:
	.long	4                               # 0x4
.LCPI1_23:
	.long	1                               # 0x1
	.text
	.globl	crypto_aead_aes256gcm_encrypt_detached_afternm
	.p2align	4
	.type	crypto_aead_aes256gcm_encrypt_detached_afternm,@function
crypto_aead_aes256gcm_encrypt_detached_afternm: # @crypto_aead_aes256gcm_encrypt_detached_afternm
.Lfunc_begin1:
	.loc	2 743 0                         # crypto_aead/aes256gcm/aesni/aead_aes256gcm_aesni.c:743:0
	.cfi_startproc
# %bb.0:
	#DEBUG_VALUE: crypto_aead_aes256gcm_encrypt_detached_afternm:c <- $rdi
	#DEBUG_VALUE: crypto_aead_aes256gcm_encrypt_detached_afternm:mac <- $rsi
	#DEBUG_VALUE: crypto_aead_aes256gcm_encrypt_detached_afternm:maclen_p <- $rdx
	#DEBUG_VALUE: crypto_aead_aes256gcm_encrypt_detached_afternm:m <- $rcx
	#DEBUG_VALUE: crypto_aead_aes256gcm_encrypt_detached_afternm:m_len_ <- $r8
	#DEBUG_VALUE: crypto_aead_aes256gcm_encrypt_detached_afternm:ad <- $r9
	pushq	%rbp
	.cfi_def_cfa_offset 16
	pushq	%r15
	.cfi_def_cfa_offset 24
	pushq	%r14
	.cfi_def_cfa_offset 32
	pushq	%r13
	.cfi_def_cfa_offset 40
	pushq	%r12
	.cfi_def_cfa_offset 48
	pushq	%rbx
	.cfi_def_cfa_offset 56
	subq	$168, %rsp
	.cfi_def_cfa_offset 224
	.cfi_offset %rbx, -56
	.cfi_offset %r12, -48
	.cfi_offset %r13, -40
	.cfi_offset %r14, -32
	.cfi_offset %r15, -24
	.cfi_offset %rbp, -16
.Ltmp157:
	#DEBUG_VALUE: crypto_aead_aes256gcm_encrypt_detached_afternm:ad_len_ <- [DW_OP_plus_uconst 224] [$rsp+0]
	#DEBUG_VALUE: crypto_aead_aes256gcm_encrypt_detached_afternm:npub <- [DW_OP_plus_uconst 240] [$rsp+0]
	#DEBUG_VALUE: crypto_aead_aes256gcm_encrypt_detached_afternm:st_ <- [DW_OP_plus_uconst 248] [$rsp+0]
	#DEBUG_VALUE: crypto_aead_aes256gcm_encrypt_detached_afternm:sth <- [DW_OP_deref] $rsp
	#DEBUG_VALUE: crypto_aead_aes256gcm_encrypt_detached_afternm:st <- undef
	#DEBUG_VALUE: crypto_aead_aes256gcm_encrypt_detached_afternm:ad_len <- undef
	movq	%fs:40, %rax
	movq	%rax, 160(%rsp)
.Ltmp158:
	#DEBUG_VALUE: crypto_aead_aes256gcm_encrypt_detached_afternm:m_len <- undef
	.loc	2 752 18 prologue_end           # crypto_aead/aes256gcm/aesni/aead_aes256gcm_aesni.c:752:18
	testq	%rdx, %rdx
	je	.LBB1_2
.Ltmp159:
# %bb.1:
	#DEBUG_VALUE: crypto_aead_aes256gcm_encrypt_detached_afternm:c <- $rdi
	#DEBUG_VALUE: crypto_aead_aes256gcm_encrypt_detached_afternm:mac <- $rsi
	#DEBUG_VALUE: crypto_aead_aes256gcm_encrypt_detached_afternm:maclen_p <- $rdx
	#DEBUG_VALUE: crypto_aead_aes256gcm_encrypt_detached_afternm:m <- $rcx
	#DEBUG_VALUE: crypto_aead_aes256gcm_encrypt_detached_afternm:m_len_ <- $r8
	#DEBUG_VALUE: crypto_aead_aes256gcm_encrypt_detached_afternm:ad <- $r9
	#DEBUG_VALUE: crypto_aead_aes256gcm_encrypt_detached_afternm:ad_len_ <- [DW_OP_plus_uconst 224] [$rsp+0]
	#DEBUG_VALUE: crypto_aead_aes256gcm_encrypt_detached_afternm:npub <- [DW_OP_plus_uconst 240] [$rsp+0]
	#DEBUG_VALUE: crypto_aead_aes256gcm_encrypt_detached_afternm:st_ <- [DW_OP_plus_uconst 248] [$rsp+0]
	#DEBUG_VALUE: crypto_aead_aes256gcm_encrypt_detached_afternm:sth <- [DW_OP_deref] $rsp
	.loc	2 753 19                        # crypto_aead/aes256gcm/aesni/aead_aes256gcm_aesni.c:753:19
	movq	$0, (%rdx)
.Ltmp160:
.LBB1_2:
	#DEBUG_VALUE: crypto_aead_aes256gcm_encrypt_detached_afternm:c <- $rdi
	#DEBUG_VALUE: crypto_aead_aes256gcm_encrypt_detached_afternm:mac <- $rsi
	#DEBUG_VALUE: crypto_aead_aes256gcm_encrypt_detached_afternm:maclen_p <- $rdx
	#DEBUG_VALUE: crypto_aead_aes256gcm_encrypt_detached_afternm:m <- $rcx
	#DEBUG_VALUE: crypto_aead_aes256gcm_encrypt_detached_afternm:m_len_ <- $r8
	#DEBUG_VALUE: crypto_aead_aes256gcm_encrypt_detached_afternm:ad <- $r9
	#DEBUG_VALUE: crypto_aead_aes256gcm_encrypt_detached_afternm:ad_len_ <- [DW_OP_plus_uconst 224] [$rsp+0]
	#DEBUG_VALUE: crypto_aead_aes256gcm_encrypt_detached_afternm:npub <- [DW_OP_plus_uconst 240] [$rsp+0]
	#DEBUG_VALUE: crypto_aead_aes256gcm_encrypt_detached_afternm:st_ <- [DW_OP_plus_uconst 248] [$rsp+0]
	#DEBUG_VALUE: crypto_aead_aes256gcm_encrypt_detached_afternm:sth <- [DW_OP_deref] $rsp
	#DEBUG_VALUE: required_blocks:ad_len <- undef
	#DEBUG_VALUE: required_blocks:m_len <- $r8
	#DEBUG_VALUE: required_blocks:ad_blocks <- undef
	#DEBUG_VALUE: required_blocks:m_blocks <- [DW_OP_plus_uconst 15, DW_OP_constu 4, DW_OP_shr, DW_OP_stack_value] $r8
	.loc	2 0 19 is_stmt 0                # crypto_aead/aes256gcm/aesni/aead_aes256gcm_aesni.c:0:19
	cmpq	$-225, %r8
.Ltmp161:
	.loc	2 388 56 is_stmt 1              # crypto_aead/aes256gcm/aesni/aead_aes256gcm_aesni.c:388:56 @[ crypto_aead/aes256gcm/aesni/aead_aes256gcm_aesni.c:758:26 ]
	ja	.LBB1_46
.Ltmp162:
# %bb.3:
	#DEBUG_VALUE: crypto_aead_aes256gcm_encrypt_detached_afternm:c <- $rdi
	#DEBUG_VALUE: crypto_aead_aes256gcm_encrypt_detached_afternm:mac <- $rsi
	#DEBUG_VALUE: crypto_aead_aes256gcm_encrypt_detached_afternm:maclen_p <- $rdx
	#DEBUG_VALUE: crypto_aead_aes256gcm_encrypt_detached_afternm:m <- $rcx
	#DEBUG_VALUE: crypto_aead_aes256gcm_encrypt_detached_afternm:m_len_ <- $r8
	#DEBUG_VALUE: crypto_aead_aes256gcm_encrypt_detached_afternm:ad <- $r9
	#DEBUG_VALUE: crypto_aead_aes256gcm_encrypt_detached_afternm:ad_len_ <- [DW_OP_plus_uconst 224] [$rsp+0]
	#DEBUG_VALUE: crypto_aead_aes256gcm_encrypt_detached_afternm:npub <- [DW_OP_plus_uconst 240] [$rsp+0]
	#DEBUG_VALUE: crypto_aead_aes256gcm_encrypt_detached_afternm:st_ <- [DW_OP_plus_uconst 248] [$rsp+0]
	#DEBUG_VALUE: crypto_aead_aes256gcm_encrypt_detached_afternm:sth <- [DW_OP_deref] $rsp
	#DEBUG_VALUE: required_blocks:m_len <- $r8
	#DEBUG_VALUE: required_blocks:m_blocks <- [DW_OP_plus_uconst 15, DW_OP_constu 4, DW_OP_shr, DW_OP_stack_value] $r8
	.loc	2 0 56 is_stmt 0                # crypto_aead/aes256gcm/aesni/aead_aes256gcm_aesni.c:0:56
	movq	224(%rsp), %r10
.Ltmp163:
	#DEBUG_VALUE: required_blocks:ad_len <- $r10
	#DEBUG_VALUE: crypto_aead_aes256gcm_encrypt_detached_afternm:ad_len <- $r10
	.loc	2 388 56                        # crypto_aead/aes256gcm/aesni/aead_aes256gcm_aesni.c:388:56 @[ crypto_aead/aes256gcm/aesni/aead_aes256gcm_aesni.c:758:26 ]
	cmpq	$-225, %r10
	ja	.LBB1_46
.Ltmp164:
# %bb.4:
	#DEBUG_VALUE: crypto_aead_aes256gcm_encrypt_detached_afternm:c <- $rdi
	#DEBUG_VALUE: crypto_aead_aes256gcm_encrypt_detached_afternm:mac <- $rsi
	#DEBUG_VALUE: crypto_aead_aes256gcm_encrypt_detached_afternm:maclen_p <- $rdx
	#DEBUG_VALUE: crypto_aead_aes256gcm_encrypt_detached_afternm:m <- $rcx
	#DEBUG_VALUE: crypto_aead_aes256gcm_encrypt_detached_afternm:m_len_ <- $r8
	#DEBUG_VALUE: crypto_aead_aes256gcm_encrypt_detached_afternm:ad <- $r9
	#DEBUG_VALUE: crypto_aead_aes256gcm_encrypt_detached_afternm:ad_len_ <- [DW_OP_plus_uconst 224] [$rsp+0]
	#DEBUG_VALUE: crypto_aead_aes256gcm_encrypt_detached_afternm:npub <- [DW_OP_plus_uconst 240] [$rsp+0]
	#DEBUG_VALUE: crypto_aead_aes256gcm_encrypt_detached_afternm:st_ <- [DW_OP_plus_uconst 248] [$rsp+0]
	#DEBUG_VALUE: crypto_aead_aes256gcm_encrypt_detached_afternm:sth <- [DW_OP_deref] $rsp
	#DEBUG_VALUE: crypto_aead_aes256gcm_encrypt_detached_afternm:ad_len <- $r10
	#DEBUG_VALUE: required_blocks:ad_len <- $r10
	#DEBUG_VALUE: required_blocks:m_len <- $r8
	#DEBUG_VALUE: required_blocks:m_blocks <- [DW_OP_plus_uconst 15, DW_OP_constu 4, DW_OP_shr, DW_OP_stack_value] $r8
	.loc	2 0 0                           # crypto_aead/aes256gcm/aesni/aead_aes256gcm_aesni.c:0 @[ crypto_aead/aes256gcm/aesni/aead_aes256gcm_aesni.c:758:26 ]
	leaq	15(%r10), %rax
	shrq	$4, %rax
.Ltmp165:
	#DEBUG_VALUE: required_blocks:ad_blocks <- $rax
	.loc	2 388 56                        # crypto_aead/aes256gcm/aesni/aead_aes256gcm_aesni.c:388:56 @[ crypto_aead/aes256gcm/aesni/aead_aes256gcm_aesni.c:758:26 ]
	cmpq	%rax, %r10
	jb	.LBB1_46
.Ltmp166:
# %bb.5:
	#DEBUG_VALUE: crypto_aead_aes256gcm_encrypt_detached_afternm:c <- $rdi
	#DEBUG_VALUE: crypto_aead_aes256gcm_encrypt_detached_afternm:mac <- $rsi
	#DEBUG_VALUE: crypto_aead_aes256gcm_encrypt_detached_afternm:maclen_p <- $rdx
	#DEBUG_VALUE: crypto_aead_aes256gcm_encrypt_detached_afternm:m <- $rcx
	#DEBUG_VALUE: crypto_aead_aes256gcm_encrypt_detached_afternm:m_len_ <- $r8
	#DEBUG_VALUE: crypto_aead_aes256gcm_encrypt_detached_afternm:ad <- $r9
	#DEBUG_VALUE: crypto_aead_aes256gcm_encrypt_detached_afternm:ad_len_ <- [DW_OP_plus_uconst 224] [$rsp+0]
	#DEBUG_VALUE: crypto_aead_aes256gcm_encrypt_detached_afternm:npub <- [DW_OP_plus_uconst 240] [$rsp+0]
	#DEBUG_VALUE: crypto_aead_aes256gcm_encrypt_detached_afternm:st_ <- [DW_OP_plus_uconst 248] [$rsp+0]
	#DEBUG_VALUE: crypto_aead_aes256gcm_encrypt_detached_afternm:sth <- [DW_OP_deref] $rsp
	#DEBUG_VALUE: crypto_aead_aes256gcm_encrypt_detached_afternm:ad_len <- $r10
	#DEBUG_VALUE: required_blocks:ad_len <- $r10
	#DEBUG_VALUE: required_blocks:m_len <- $r8
	#DEBUG_VALUE: required_blocks:ad_blocks <- $rax
	#DEBUG_VALUE: required_blocks:m_blocks <- [DW_OP_plus_uconst 15, DW_OP_constu 4, DW_OP_shr, DW_OP_stack_value] $r8
	#DEBUG_VALUE: required_blocks:m_blocks <- [DW_OP_constu 4, DW_OP_shr, DW_OP_stack_value] undef
	#DEBUG_VALUE: required_blocks:m_blocks <- undef
	.loc	2 0 56                          # crypto_aead/aes256gcm/aesni/aead_aes256gcm_aesni.c:0:56
	movabsq	$68719476688, %rax              # imm = 0xFFFFFFFD0
.Ltmp167:
	cmpq	%rax, %r8
	.loc	2 389 97 is_stmt 1              # crypto_aead/aes256gcm/aesni/aead_aes256gcm_aesni.c:389:97 @[ crypto_aead/aes256gcm/aesni/aead_aes256gcm_aesni.c:758:26 ]
	ja	.LBB1_46
.Ltmp168:
# %bb.6:
	#DEBUG_VALUE: crypto_aead_aes256gcm_encrypt_detached_afternm:c <- $rdi
	#DEBUG_VALUE: crypto_aead_aes256gcm_encrypt_detached_afternm:mac <- $rsi
	#DEBUG_VALUE: crypto_aead_aes256gcm_encrypt_detached_afternm:maclen_p <- $rdx
	#DEBUG_VALUE: crypto_aead_aes256gcm_encrypt_detached_afternm:m <- $rcx
	#DEBUG_VALUE: crypto_aead_aes256gcm_encrypt_detached_afternm:m_len_ <- $r8
	#DEBUG_VALUE: crypto_aead_aes256gcm_encrypt_detached_afternm:ad <- $r9
	#DEBUG_VALUE: crypto_aead_aes256gcm_encrypt_detached_afternm:ad_len_ <- [DW_OP_plus_uconst 224] [$rsp+0]
	#DEBUG_VALUE: crypto_aead_aes256gcm_encrypt_detached_afternm:npub <- [DW_OP_plus_uconst 240] [$rsp+0]
	#DEBUG_VALUE: crypto_aead_aes256gcm_encrypt_detached_afternm:st_ <- [DW_OP_plus_uconst 248] [$rsp+0]
	#DEBUG_VALUE: crypto_aead_aes256gcm_encrypt_detached_afternm:sth <- [DW_OP_deref] $rsp
	#DEBUG_VALUE: crypto_aead_aes256gcm_encrypt_detached_afternm:ad_len <- $r10
	#DEBUG_VALUE: required_blocks:ad_len <- $r10
	#DEBUG_VALUE: required_blocks:m_len <- $r8
	.loc	2 0 0 is_stmt 0                 # crypto_aead/aes256gcm/aesni/aead_aes256gcm_aesni.c:0 @[ crypto_aead/aes256gcm/aesni/aead_aes256gcm_aesni.c:758:26 ]
	leaq	15(%r8), %rax
	shrq	$4, %rax
.Ltmp169:
	#DEBUG_VALUE: required_blocks:m_blocks <- $rax
	.loc	2 389 97                        # crypto_aead/aes256gcm/aesni/aead_aes256gcm_aesni.c:389:97 @[ crypto_aead/aes256gcm/aesni/aead_aes256gcm_aesni.c:758:26 ]
	cmpq	%rax, %r8
	jb	.LBB1_46
.Ltmp170:
# %bb.7:                                # %required_blocks.exit
	#DEBUG_VALUE: crypto_aead_aes256gcm_encrypt_detached_afternm:c <- $rdi
	#DEBUG_VALUE: crypto_aead_aes256gcm_encrypt_detached_afternm:mac <- $rsi
	#DEBUG_VALUE: crypto_aead_aes256gcm_encrypt_detached_afternm:maclen_p <- $rdx
	#DEBUG_VALUE: crypto_aead_aes256gcm_encrypt_detached_afternm:m <- $rcx
	#DEBUG_VALUE: crypto_aead_aes256gcm_encrypt_detached_afternm:m_len_ <- $r8
	#DEBUG_VALUE: crypto_aead_aes256gcm_encrypt_detached_afternm:ad <- $r9
	#DEBUG_VALUE: crypto_aead_aes256gcm_encrypt_detached_afternm:ad_len_ <- [DW_OP_plus_uconst 224] [$rsp+0]
	#DEBUG_VALUE: crypto_aead_aes256gcm_encrypt_detached_afternm:npub <- [DW_OP_plus_uconst 240] [$rsp+0]
	#DEBUG_VALUE: crypto_aead_aes256gcm_encrypt_detached_afternm:st_ <- [DW_OP_plus_uconst 248] [$rsp+0]
	#DEBUG_VALUE: crypto_aead_aes256gcm_encrypt_detached_afternm:sth <- [DW_OP_deref] $rsp
	#DEBUG_VALUE: crypto_aead_aes256gcm_encrypt_detached_afternm:ad_len <- $r10
	.loc	2 0 97                          # crypto_aead/aes256gcm/aesni/aead_aes256gcm_aesni.c:0:97
	movq	%rdx, 72(%rsp)                  # 8-byte Spill
.Ltmp171:
	#DEBUG_VALUE: crypto_aead_aes256gcm_encrypt_detached_afternm:maclen_p <- [DW_OP_plus_uconst 72] [$rsp+0]
	movq	%rsi, 40(%rsp)                  # 8-byte Spill
.Ltmp172:
	#DEBUG_VALUE: crypto_aead_aes256gcm_encrypt_detached_afternm:mac <- [DW_OP_plus_uconst 40] [$rsp+0]
	movq	240(%rsp), %rax
.Ltmp173:
	#DEBUG_VALUE: crypto_aead_aes256gcm_encrypt_detached_afternm:gh_required_blocks <- [DW_OP_LLVM_arg 0, DW_OP_plus_uconst 1, DW_OP_LLVM_arg 1, DW_OP_plus_uconst 15, DW_OP_constu 4, DW_OP_shr, DW_OP_plus, DW_OP_stack_value] undef, undef
	#DEBUG_VALUE: gh_init:sth <- $rsp
	.loc	2 296 14 is_stmt 1              # crypto_aead/aes256gcm/aesni/aead_aes256gcm_aesni.c:296:14 @[ crypto_aead/aes256gcm/aesni/aead_aes256gcm_aesni.c:765:5 ]
	vxorps	%xmm0, %xmm0, %xmm0
	vmovaps	%xmm0, (%rsp)
.Ltmp174:
	#DEBUG_VALUE: crypto_aead_aes256gcm_encrypt_detached_afternm:sth <- [DW_OP_deref] $rsp
	#DEBUG_VALUE: memcpy:__dest <- undef
	#DEBUG_VALUE: memcpy:__src <- $rax
	#DEBUG_VALUE: memcpy:__len <- 12
	.file	8 "/usr/include/x86_64-linux-gnu/bits" "string_fortified.h"
	.loc	8 29 10                         # /usr/include/x86_64-linux-gnu/bits/string_fortified.h:29:10 @[ crypto_aead/aes256gcm/aesni/aead_aes256gcm_aesni.c:767:5 ]
	vmovq	(%rax), %xmm0                   # xmm0 = mem[0],zero
	vpinsrd	$2, 8(%rax), %xmm0, %xmm0
.Ltmp175:
	#DEBUG_VALUE: crypto_aead_aes256gcm_encrypt_detached_afternm:j <- undef
	#DEBUG_VALUE: store32_be:dst <- undef
	#DEBUG_VALUE: crypto_aead_aes256gcm_encrypt_detached_afternm:j <- [DW_OP_LLVM_fragment 120 8] 2
	#DEBUG_VALUE: store32_be:w <- 0
	#DEBUG_VALUE: crypto_aead_aes256gcm_encrypt_detached_afternm:j <- [DW_OP_LLVM_fragment 112 8] 0
	#DEBUG_VALUE: crypto_aead_aes256gcm_encrypt_detached_afternm:j <- [DW_OP_LLVM_fragment 104 8] 0
	.loc	8 0 10 is_stmt 0                # /usr/include/x86_64-linux-gnu/bits/string_fortified.h:0:10
	movq	248(%rsp), %r15
.Ltmp176:
	#DEBUG_VALUE: crypto_aead_aes256gcm_encrypt_detached_afternm:st <- $r15
	vmovdqa	%xmm0, 80(%rsp)                 # 16-byte Spill
.Ltmp177:
	.file	9 "./include/sodium/private" "common.h"
	.loc	9 199 12 is_stmt 1              # ./include/sodium/private/common.h:199:12 @[ crypto_aead/aes256gcm/aesni/aead_aes256gcm_aesni.c:768:5 ]
	vpblendw	$192, .LCPI1_0(%rip), %xmm0, %xmm0 # xmm0 = xmm0[0,1,2,3,4,5],mem[6,7]
.Ltmp178:
	#DEBUG_VALUE: crypto_aead_aes256gcm_encrypt_detached_afternm:j <- [DW_OP_LLVM_fragment 96 8] 0
	#DEBUG_VALUE: gh_update:u <- undef
	#DEBUG_VALUE: gh_update:u <- undef
	#DEBUG_VALUE: gh_update:u <- undef
	#DEBUG_VALUE: gh_update:u <- undef
	#DEBUG_VALUE: gh_update:u <- undef
	#DEBUG_VALUE: gh_update:u <- undef
	#DEBUG_VALUE: gh_update:u <- undef
	#DEBUG_VALUE: pad <- [DW_OP_plus_uconst 128, DW_OP_deref] $rsp
	#DEBUG_VALUE: aes_gcm_encrypt_generic:st <- $r15
	#DEBUG_VALUE: aes_gcm_encrypt_generic:sth <- $rsp
	#DEBUG_VALUE: aes_gcm_encrypt_generic:mac <- [DW_OP_plus_uconst 40, DW_OP_deref] $rsp
	#DEBUG_VALUE: aes_gcm_encrypt_generic:dst <- $rdi
	#DEBUG_VALUE: aes_gcm_encrypt_generic:src <- $rcx
	#DEBUG_VALUE: aes_gcm_encrypt_generic:src_len <- $r8
	#DEBUG_VALUE: aes_gcm_encrypt_generic:ad <- $r9
	#DEBUG_VALUE: aes_gcm_encrypt_generic:ad_len <- $r10
	#DEBUG_VALUE: aes_gcm_encrypt_generic:counter_ <- undef
	.loc	2 419 12                        # crypto_aead/aes256gcm/aesni/aead_aes256gcm_aesni.c:419:12 @[ crypto_aead/aes256gcm/aesni/aead_aes256gcm_aesni.c:770:5 ]
	testq	%r9, %r9
	setne	%al
.Ltmp179:
	.loc	2 0 12 is_stmt 0                # crypto_aead/aes256gcm/aesni/aead_aes256gcm_aesni.c:0:12
	testq	%r10, %r10
	setne	%dl
	.loc	2 419 26                        # crypto_aead/aes256gcm/aesni/aead_aes256gcm_aesni.c:419:26 @[ crypto_aead/aes256gcm/aesni/aead_aes256gcm_aesni.c:770:5 ]
	testb	%dl, %al
.Ltmp180:
	#DEBUG_VALUE: aes_gcm_encrypt_generic:one <- undef
	je	.LBB1_10
.Ltmp181:
# %bb.8:
	#DEBUG_VALUE: crypto_aead_aes256gcm_encrypt_detached_afternm:c <- $rdi
	#DEBUG_VALUE: crypto_aead_aes256gcm_encrypt_detached_afternm:mac <- [DW_OP_plus_uconst 40] [$rsp+0]
	#DEBUG_VALUE: crypto_aead_aes256gcm_encrypt_detached_afternm:maclen_p <- [DW_OP_plus_uconst 72] [$rsp+0]
	#DEBUG_VALUE: crypto_aead_aes256gcm_encrypt_detached_afternm:m <- $rcx
	#DEBUG_VALUE: crypto_aead_aes256gcm_encrypt_detached_afternm:m_len_ <- $r8
	#DEBUG_VALUE: crypto_aead_aes256gcm_encrypt_detached_afternm:ad <- $r9
	#DEBUG_VALUE: crypto_aead_aes256gcm_encrypt_detached_afternm:ad_len_ <- [DW_OP_plus_uconst 224] [$rsp+0]
	#DEBUG_VALUE: crypto_aead_aes256gcm_encrypt_detached_afternm:npub <- [DW_OP_plus_uconst 240] [$rsp+0]
	#DEBUG_VALUE: crypto_aead_aes256gcm_encrypt_detached_afternm:st_ <- [DW_OP_plus_uconst 248] [$rsp+0]
	#DEBUG_VALUE: crypto_aead_aes256gcm_encrypt_detached_afternm:sth <- [DW_OP_deref] $rsp
	#DEBUG_VALUE: crypto_aead_aes256gcm_encrypt_detached_afternm:st <- $r15
	#DEBUG_VALUE: crypto_aead_aes256gcm_encrypt_detached_afternm:ad_len <- $r10
	#DEBUG_VALUE: crypto_aead_aes256gcm_encrypt_detached_afternm:j <- [DW_OP_LLVM_fragment 120 8] 2
	#DEBUG_VALUE: crypto_aead_aes256gcm_encrypt_detached_afternm:j <- [DW_OP_LLVM_fragment 112 8] 0
	#DEBUG_VALUE: crypto_aead_aes256gcm_encrypt_detached_afternm:j <- [DW_OP_LLVM_fragment 104 8] 0
	#DEBUG_VALUE: crypto_aead_aes256gcm_encrypt_detached_afternm:j <- [DW_OP_LLVM_fragment 96 8] 0
	#DEBUG_VALUE: aes_gcm_encrypt_generic:st <- $r15
	#DEBUG_VALUE: aes_gcm_encrypt_generic:sth <- $rsp
	#DEBUG_VALUE: aes_gcm_encrypt_generic:mac <- [DW_OP_plus_uconst 40, DW_OP_deref] $rsp
	#DEBUG_VALUE: aes_gcm_encrypt_generic:dst <- $rdi
	#DEBUG_VALUE: aes_gcm_encrypt_generic:src <- $rcx
	#DEBUG_VALUE: aes_gcm_encrypt_generic:src_len <- $r8
	#DEBUG_VALUE: aes_gcm_encrypt_generic:ad <- $r9
	#DEBUG_VALUE: aes_gcm_encrypt_generic:ad_len <- $r10
	.loc	2 420 42 is_stmt 1              # crypto_aead/aes256gcm/aesni/aead_aes256gcm_aesni.c:420:42 @[ crypto_aead/aes256gcm/aesni/aead_aes256gcm_aesni.c:770:5 ]
	movq	%r10, %rax
	andq	$-16, %rax
	movq	%rsp, %rsi
	movq	%rdi, %rbp
.Ltmp182:
	#DEBUG_VALUE: aes_gcm_encrypt_generic:dst <- $rbp
	#DEBUG_VALUE: crypto_aead_aes256gcm_encrypt_detached_afternm:c <- $rbp
	.loc	2 420 9 is_stmt 0               # crypto_aead/aes256gcm/aesni/aead_aes256gcm_aesni.c:420:9 @[ crypto_aead/aes256gcm/aesni/aead_aes256gcm_aesni.c:770:5 ]
	movq	%r15, %rdi
	movq	%r9, %rdx
	movq	%rcx, %r13
.Ltmp183:
	#DEBUG_VALUE: aes_gcm_encrypt_generic:src <- $r13
	#DEBUG_VALUE: crypto_aead_aes256gcm_encrypt_detached_afternm:m <- $r13
	movq	%rax, %rcx
	movq	%r8, %r14
.Ltmp184:
	#DEBUG_VALUE: aes_gcm_encrypt_generic:src_len <- $r14
	#DEBUG_VALUE: crypto_aead_aes256gcm_encrypt_detached_afternm:m_len_ <- $r14
	.loc	2 0 9                           # crypto_aead/aes256gcm/aesni/aead_aes256gcm_aesni.c:0:9
	movq	%r9, %r12
.Ltmp185:
	#DEBUG_VALUE: aes_gcm_encrypt_generic:ad <- $r12
	#DEBUG_VALUE: crypto_aead_aes256gcm_encrypt_detached_afternm:ad <- $r12
	movq	%r10, %rbx
.Ltmp186:
	#DEBUG_VALUE: aes_gcm_encrypt_generic:ad_len <- $rbx
	#DEBUG_VALUE: crypto_aead_aes256gcm_encrypt_detached_afternm:ad_len <- $rbx
	vmovdqa	%xmm0, 16(%rsp)                 # 16-byte Spill
	.loc	2 420 9                         # crypto_aead/aes256gcm/aesni/aead_aes256gcm_aesni.c:420:9 @[ crypto_aead/aes256gcm/aesni/aead_aes256gcm_aesni.c:770:5 ]
	callq	gh_ad_blocks
.Ltmp187:
	.loc	2 0 9                           # crypto_aead/aes256gcm/aesni/aead_aes256gcm_aesni.c:0:9
	vmovdqa	16(%rsp), %xmm0                 # 16-byte Reload
	movq	%rbx, %r10
	movq	%r13, %rcx
	movq	%r14, %r8
	movq	%rbp, %rdi
.Ltmp188:
	.loc	2 422 18 is_stmt 1              # crypto_aead/aes256gcm/aesni/aead_aes256gcm_aesni.c:422:18 @[ crypto_aead/aes256gcm/aesni/aead_aes256gcm_aesni.c:770:5 ]
	movq	%rbx, %rdx
	andq	$15, %rdx
.Ltmp189:
	#DEBUG_VALUE: aes_gcm_encrypt_generic:left <- $rdx
	je	.LBB1_10
.Ltmp190:
# %bb.9:
	#DEBUG_VALUE: crypto_aead_aes256gcm_encrypt_detached_afternm:c <- $rbp
	#DEBUG_VALUE: crypto_aead_aes256gcm_encrypt_detached_afternm:mac <- [DW_OP_plus_uconst 40] [$rsp+0]
	#DEBUG_VALUE: crypto_aead_aes256gcm_encrypt_detached_afternm:maclen_p <- [DW_OP_plus_uconst 72] [$rsp+0]
	#DEBUG_VALUE: crypto_aead_aes256gcm_encrypt_detached_afternm:m <- $r13
	#DEBUG_VALUE: crypto_aead_aes256gcm_encrypt_detached_afternm:m_len_ <- $r14
	#DEBUG_VALUE: crypto_aead_aes256gcm_encrypt_detached_afternm:ad <- $r12
	#DEBUG_VALUE: crypto_aead_aes256gcm_encrypt_detached_afternm:ad_len_ <- [DW_OP_plus_uconst 224] [$rsp+0]
	#DEBUG_VALUE: crypto_aead_aes256gcm_encrypt_detached_afternm:npub <- [DW_OP_plus_uconst 240] [$rsp+0]
	#DEBUG_VALUE: crypto_aead_aes256gcm_encrypt_detached_afternm:st_ <- [DW_OP_plus_uconst 248] [$rsp+0]
	#DEBUG_VALUE: crypto_aead_aes256gcm_encrypt_detached_afternm:sth <- [DW_OP_deref] $rsp
	#DEBUG_VALUE: crypto_aead_aes256gcm_encrypt_detached_afternm:st <- $r15
	#DEBUG_VALUE: crypto_aead_aes256gcm_encrypt_detached_afternm:ad_len <- $rbx
	#DEBUG_VALUE: crypto_aead_aes256gcm_encrypt_detached_afternm:j <- [DW_OP_LLVM_fragment 120 8] 2
	#DEBUG_VALUE: crypto_aead_aes256gcm_encrypt_detached_afternm:j <- [DW_OP_LLVM_fragment 112 8] 0
	#DEBUG_VALUE: crypto_aead_aes256gcm_encrypt_detached_afternm:j <- [DW_OP_LLVM_fragment 104 8] 0
	#DEBUG_VALUE: crypto_aead_aes256gcm_encrypt_detached_afternm:j <- [DW_OP_LLVM_fragment 96 8] 0
	#DEBUG_VALUE: aes_gcm_encrypt_generic:st <- $r15
	#DEBUG_VALUE: aes_gcm_encrypt_generic:sth <- $rsp
	#DEBUG_VALUE: aes_gcm_encrypt_generic:mac <- [DW_OP_plus_uconst 40, DW_OP_deref] $rsp
	#DEBUG_VALUE: aes_gcm_encrypt_generic:dst <- $rbp
	#DEBUG_VALUE: aes_gcm_encrypt_generic:src <- $r13
	#DEBUG_VALUE: aes_gcm_encrypt_generic:src_len <- $r14
	#DEBUG_VALUE: aes_gcm_encrypt_generic:ad <- $r12
	#DEBUG_VALUE: aes_gcm_encrypt_generic:ad_len <- $rbx
	#DEBUG_VALUE: aes_gcm_encrypt_generic:left <- $rdx
	.loc	2 0 18 is_stmt 0                # crypto_aead/aes256gcm/aesni/aead_aes256gcm_aesni.c:0:18
	movq	%r12, %rsi
.Ltmp191:
	#DEBUG_VALUE: memset:__dest <- [DW_OP_plus_uconst 128, DW_OP_stack_value] $rsp
	#DEBUG_VALUE: memset:__ch <- 0
	#DEBUG_VALUE: memset:__len <- 16
	.loc	8 59 10 is_stmt 1               # /usr/include/x86_64-linux-gnu/bits/string_fortified.h:59:10 @[ crypto_aead/aes256gcm/aesni/aead_aes256gcm_aesni.c:425:13 @[ crypto_aead/aes256gcm/aesni/aead_aes256gcm_aesni.c:770:5 ] ]
	vpxor	%xmm0, %xmm0, %xmm0
	vmovdqa	%xmm0, 128(%rsp)
.Ltmp192:
	#DEBUG_VALUE: pad <- [DW_OP_plus_uconst 128, DW_OP_deref] $rsp
	.loc	2 426 28                        # crypto_aead/aes256gcm/aesni/aead_aes256gcm_aesni.c:426:28 @[ crypto_aead/aes256gcm/aesni/aead_aes256gcm_aesni.c:770:5 ]
	addq	%r10, %rsi
	.loc	2 426 37 is_stmt 0              # crypto_aead/aes256gcm/aesni/aead_aes256gcm_aesni.c:426:37 @[ crypto_aead/aes256gcm/aesni/aead_aes256gcm_aesni.c:770:5 ]
	subq	%rdx, %rsi
.Ltmp193:
	#DEBUG_VALUE: memcpy:__src <- $rsi
	#DEBUG_VALUE: memcpy:__dest <- [DW_OP_plus_uconst 128, DW_OP_stack_value] $rsp
	#DEBUG_VALUE: memcpy:__len <- $rdx
	.loc	2 0 37                          # crypto_aead/aes256gcm/aesni/aead_aes256gcm_aesni.c:0:37
	leaq	128(%rsp), %r12
.Ltmp194:
	#DEBUG_VALUE: crypto_aead_aes256gcm_encrypt_detached_afternm:ad <- [DW_OP_LLVM_entry_value 1] $r9
	.loc	8 29 10 is_stmt 1               # /usr/include/x86_64-linux-gnu/bits/string_fortified.h:29:10 @[ crypto_aead/aes256gcm/aesni/aead_aes256gcm_aesni.c:426:13 @[ crypto_aead/aes256gcm/aesni/aead_aes256gcm_aesni.c:770:5 ] ]
	movl	$16, %ecx
	movq	%r12, %rdi
	callq	__memcpy_chk@PLT
.Ltmp195:
	.loc	8 0 10 is_stmt 0                # /usr/include/x86_64-linux-gnu/bits/string_fortified.h:0:10
	movq	%rsp, %rsi
.Ltmp196:
	.loc	2 427 13 is_stmt 1              # crypto_aead/aes256gcm/aesni/aead_aes256gcm_aesni.c:427:13 @[ crypto_aead/aes256gcm/aesni/aead_aes256gcm_aesni.c:770:5 ]
	movl	$16, %ecx
	movq	%r15, %rdi
	movq	%r12, %rdx
	callq	gh_ad_blocks
.Ltmp197:
	.loc	2 0 13 is_stmt 0                # crypto_aead/aes256gcm/aesni/aead_aes256gcm_aesni.c:0:13
	vmovdqa	16(%rsp), %xmm0                 # 16-byte Reload
	movq	%rbx, %r10
	movq	%r13, %rcx
	movq	%r14, %r8
	movq	%rbp, %rdi
.Ltmp198:
.LBB1_10:
	#DEBUG_VALUE: crypto_aead_aes256gcm_encrypt_detached_afternm:c <- [DW_OP_LLVM_entry_value 1] $rdi
	#DEBUG_VALUE: crypto_aead_aes256gcm_encrypt_detached_afternm:mac <- [DW_OP_plus_uconst 40] [$rsp+0]
	#DEBUG_VALUE: crypto_aead_aes256gcm_encrypt_detached_afternm:maclen_p <- [DW_OP_plus_uconst 72] [$rsp+0]
	#DEBUG_VALUE: crypto_aead_aes256gcm_encrypt_detached_afternm:m <- [DW_OP_LLVM_entry_value 1] $rcx
	#DEBUG_VALUE: crypto_aead_aes256gcm_encrypt_detached_afternm:m_len_ <- [DW_OP_LLVM_entry_value 1] $r8
	#DEBUG_VALUE: crypto_aead_aes256gcm_encrypt_detached_afternm:ad <- [DW_OP_LLVM_entry_value 1] $r9
	#DEBUG_VALUE: crypto_aead_aes256gcm_encrypt_detached_afternm:ad_len_ <- [DW_OP_plus_uconst 224] [$rsp+0]
	#DEBUG_VALUE: crypto_aead_aes256gcm_encrypt_detached_afternm:npub <- [DW_OP_plus_uconst 240] [$rsp+0]
	#DEBUG_VALUE: crypto_aead_aes256gcm_encrypt_detached_afternm:st_ <- [DW_OP_plus_uconst 248] [$rsp+0]
	#DEBUG_VALUE: crypto_aead_aes256gcm_encrypt_detached_afternm:sth <- [DW_OP_deref] $rsp
	#DEBUG_VALUE: crypto_aead_aes256gcm_encrypt_detached_afternm:st <- $r15
	#DEBUG_VALUE: crypto_aead_aes256gcm_encrypt_detached_afternm:j <- [DW_OP_LLVM_fragment 120 8] 2
	#DEBUG_VALUE: crypto_aead_aes256gcm_encrypt_detached_afternm:j <- [DW_OP_LLVM_fragment 112 8] 0
	#DEBUG_VALUE: crypto_aead_aes256gcm_encrypt_detached_afternm:j <- [DW_OP_LLVM_fragment 104 8] 0
	#DEBUG_VALUE: crypto_aead_aes256gcm_encrypt_detached_afternm:j <- [DW_OP_LLVM_fragment 96 8] 0
	#DEBUG_VALUE: aes_gcm_encrypt_generic:st <- $r15
	#DEBUG_VALUE: aes_gcm_encrypt_generic:sth <- $rsp
	#DEBUG_VALUE: aes_gcm_encrypt_generic:mac <- [DW_OP_plus_uconst 40, DW_OP_deref] $rsp
	.loc	2 433 15 is_stmt 1              # crypto_aead/aes256gcm/aesni/aead_aes256gcm_aesni.c:433:15 @[ crypto_aead/aes256gcm/aesni/aead_aes256gcm_aesni.c:770:5 ]
	vpshufb	.LCPI1_1(%rip), %xmm0, %xmm15   # xmm15 = xmm0[15,14,13,12,11,10,9,8,7,6,5,4,3,2,1,0]
.Ltmp199:
	#DEBUG_VALUE: aes_gcm_encrypt_generic:i <- 0
	#DEBUG_VALUE: aes_gcm_encrypt_generic:counter <- $xmm15
	.loc	2 0 15 is_stmt 0                # crypto_aead/aes256gcm/aesni/aead_aes256gcm_aesni.c:0:15
	movabsq	$-4467570830351532032, %rax     # imm = 0xC200000000000000
.Ltmp200:
	.loc	2 438 21 is_stmt 1              # crypto_aead/aes256gcm/aesni/aead_aes256gcm_aesni.c:438:21 @[ crypto_aead/aes256gcm/aesni/aead_aes256gcm_aesni.c:770:5 ]
	cmpq	$224, %r8
	jb	.LBB1_11
.Ltmp201:
# %bb.12:                               # %.preheader420.preheader.i
	#DEBUG_VALUE: crypto_aead_aes256gcm_encrypt_detached_afternm:c <- [DW_OP_LLVM_entry_value 1] $rdi
	#DEBUG_VALUE: crypto_aead_aes256gcm_encrypt_detached_afternm:mac <- [DW_OP_plus_uconst 40] [$rsp+0]
	#DEBUG_VALUE: crypto_aead_aes256gcm_encrypt_detached_afternm:maclen_p <- [DW_OP_plus_uconst 72] [$rsp+0]
	#DEBUG_VALUE: crypto_aead_aes256gcm_encrypt_detached_afternm:m <- [DW_OP_LLVM_entry_value 1] $rcx
	#DEBUG_VALUE: crypto_aead_aes256gcm_encrypt_detached_afternm:m_len_ <- [DW_OP_LLVM_entry_value 1] $r8
	#DEBUG_VALUE: crypto_aead_aes256gcm_encrypt_detached_afternm:ad <- [DW_OP_LLVM_entry_value 1] $r9
	#DEBUG_VALUE: crypto_aead_aes256gcm_encrypt_detached_afternm:ad_len_ <- [DW_OP_plus_uconst 224] [$rsp+0]
	#DEBUG_VALUE: crypto_aead_aes256gcm_encrypt_detached_afternm:npub <- [DW_OP_plus_uconst 240] [$rsp+0]
	#DEBUG_VALUE: crypto_aead_aes256gcm_encrypt_detached_afternm:st_ <- [DW_OP_plus_uconst 248] [$rsp+0]
	#DEBUG_VALUE: crypto_aead_aes256gcm_encrypt_detached_afternm:sth <- [DW_OP_deref] $rsp
	#DEBUG_VALUE: crypto_aead_aes256gcm_encrypt_detached_afternm:st <- $r15
	#DEBUG_VALUE: crypto_aead_aes256gcm_encrypt_detached_afternm:j <- [DW_OP_LLVM_fragment 120 8] 2
	#DEBUG_VALUE: crypto_aead_aes256gcm_encrypt_detached_afternm:j <- [DW_OP_LLVM_fragment 112 8] 0
	#DEBUG_VALUE: crypto_aead_aes256gcm_encrypt_detached_afternm:j <- [DW_OP_LLVM_fragment 104 8] 0
	#DEBUG_VALUE: crypto_aead_aes256gcm_encrypt_detached_afternm:j <- [DW_OP_LLVM_fragment 96 8] 0
	#DEBUG_VALUE: aes_gcm_encrypt_generic:st <- $r15
	#DEBUG_VALUE: aes_gcm_encrypt_generic:sth <- $rsp
	#DEBUG_VALUE: aes_gcm_encrypt_generic:mac <- [DW_OP_plus_uconst 40, DW_OP_deref] $rsp
	#DEBUG_VALUE: aes_gcm_encrypt_generic:i <- 0
	#DEBUG_VALUE: aes_gcm_encrypt_generic:counter <- $xmm15
	#DEBUG_VALUE: incr_counters:counter <- $xmm15
	#DEBUG_VALUE: incr_counters:i <- 0
	#DEBUG_VALUE: aes_gcm_encrypt_generic:rev_counters <- [DW_OP_LLVM_fragment 0 128] undef
	.loc	2 374 19                        # crypto_aead/aes256gcm/aesni/aead_aes256gcm_aesni.c:374:19 @[ crypto_aead/aes256gcm/aesni/aead_aes256gcm_aesni.c:439:19 @[ crypto_aead/aes256gcm/aesni/aead_aes256gcm_aesni.c:770:5 ] ]
	vpaddq	.LCPI1_2(%rip), %xmm15, %xmm1
.Ltmp202:
	#DEBUG_VALUE: incr_counters:counter <- $xmm1
	#DEBUG_VALUE: incr_counters:i <- 6
	.loc	2 373 27                        # crypto_aead/aes256gcm/aesni/aead_aes256gcm_aesni.c:373:27 @[ crypto_aead/aes256gcm/aesni/aead_aes256gcm_aesni.c:439:19 @[ crypto_aead/aes256gcm/aesni/aead_aes256gcm_aesni.c:770:5 ] ]
	vmovdqa	.LCPI1_1(%rip), %xmm13          # xmm13 = [15,14,13,12,11,10,9,8,7,6,5,4,3,2,1,0]
.Ltmp203:
	#DEBUG_VALUE: incr_counters:i <- 1
	vpshufb	%xmm13, %xmm1, %xmm1
.Ltmp204:
	#DEBUG_VALUE: aes_gcm_encrypt_generic:rev_counters <- [DW_OP_LLVM_fragment 128 128] $xmm1
	.loc	2 374 19                        # crypto_aead/aes256gcm/aesni/aead_aes256gcm_aesni.c:374:19 @[ crypto_aead/aes256gcm/aesni/aead_aes256gcm_aesni.c:439:19 @[ crypto_aead/aes256gcm/aesni/aead_aes256gcm_aesni.c:770:5 ] ]
	vpaddq	.LCPI1_3(%rip), %xmm15, %xmm2
.Ltmp205:
	#DEBUG_VALUE: incr_counters:counter <- $xmm2
	#DEBUG_VALUE: incr_counters:i <- 2
	#DEBUG_VALUE: aes_gcm_encrypt_generic:rev_counters <- [DW_OP_LLVM_fragment 256 128] undef
	vpaddq	.LCPI1_4(%rip), %xmm15, %xmm3
.Ltmp206:
	#DEBUG_VALUE: incr_counters:counter <- $xmm3
	#DEBUG_VALUE: incr_counters:i <- 3
	.loc	2 373 27                        # crypto_aead/aes256gcm/aesni/aead_aes256gcm_aesni.c:373:27 @[ crypto_aead/aes256gcm/aesni/aead_aes256gcm_aesni.c:439:19 @[ crypto_aead/aes256gcm/aesni/aead_aes256gcm_aesni.c:770:5 ] ]
	vpshufb	%xmm13, %xmm2, %xmm2
.Ltmp207:
	#DEBUG_VALUE: aes_gcm_encrypt_generic:rev_counters <- [DW_OP_LLVM_fragment 256 128] $xmm2
	vpshufb	%xmm13, %xmm3, %xmm3
.Ltmp208:
	#DEBUG_VALUE: aes_gcm_encrypt_generic:rev_counters <- [DW_OP_LLVM_fragment 384 128] $xmm3
	.loc	2 374 19                        # crypto_aead/aes256gcm/aesni/aead_aes256gcm_aesni.c:374:19 @[ crypto_aead/aes256gcm/aesni/aead_aes256gcm_aesni.c:439:19 @[ crypto_aead/aes256gcm/aesni/aead_aes256gcm_aesni.c:770:5 ] ]
	vpaddq	.LCPI1_5(%rip), %xmm15, %xmm4
.Ltmp209:
	#DEBUG_VALUE: incr_counters:counter <- $xmm4
	#DEBUG_VALUE: incr_counters:i <- 4
	.loc	2 373 27                        # crypto_aead/aes256gcm/aesni/aead_aes256gcm_aesni.c:373:27 @[ crypto_aead/aes256gcm/aesni/aead_aes256gcm_aesni.c:439:19 @[ crypto_aead/aes256gcm/aesni/aead_aes256gcm_aesni.c:770:5 ] ]
	vpshufb	%xmm13, %xmm4, %xmm4
.Ltmp210:
	#DEBUG_VALUE: aes_gcm_encrypt_generic:rev_counters <- [DW_OP_LLVM_fragment 512 128] $xmm4
	.loc	2 374 19                        # crypto_aead/aes256gcm/aesni/aead_aes256gcm_aesni.c:374:19 @[ crypto_aead/aes256gcm/aesni/aead_aes256gcm_aesni.c:439:19 @[ crypto_aead/aes256gcm/aesni/aead_aes256gcm_aesni.c:770:5 ] ]
	vpaddq	.LCPI1_6(%rip), %xmm15, %xmm5
.Ltmp211:
	#DEBUG_VALUE: incr_counters:counter <- $xmm5
	#DEBUG_VALUE: incr_counters:i <- 5
	.loc	2 373 27                        # crypto_aead/aes256gcm/aesni/aead_aes256gcm_aesni.c:373:27 @[ crypto_aead/aes256gcm/aesni/aead_aes256gcm_aesni.c:439:19 @[ crypto_aead/aes256gcm/aesni/aead_aes256gcm_aesni.c:770:5 ] ]
	vpshufb	%xmm13, %xmm5, %xmm5
.Ltmp212:
	#DEBUG_VALUE: aes_gcm_encrypt_generic:rev_counters <- [DW_OP_LLVM_fragment 640 128] $xmm5
	.loc	2 374 19                        # crypto_aead/aes256gcm/aesni/aead_aes256gcm_aesni.c:374:19 @[ crypto_aead/aes256gcm/aesni/aead_aes256gcm_aesni.c:439:19 @[ crypto_aead/aes256gcm/aesni/aead_aes256gcm_aesni.c:770:5 ] ]
	vpaddq	.LCPI1_7(%rip), %xmm15, %xmm6
.Ltmp213:
	#DEBUG_VALUE: incr_counters:counter <- $xmm6
	.loc	2 373 27                        # crypto_aead/aes256gcm/aesni/aead_aes256gcm_aesni.c:373:27 @[ crypto_aead/aes256gcm/aesni/aead_aes256gcm_aesni.c:439:19 @[ crypto_aead/aes256gcm/aesni/aead_aes256gcm_aesni.c:770:5 ] ]
	vpshufb	%xmm13, %xmm6, %xmm6
.Ltmp214:
	#DEBUG_VALUE: aes_gcm_encrypt_generic:rev_counters <- [DW_OP_LLVM_fragment 768 128] $xmm6
	#DEBUG_VALUE: incr_counters:i <- 7
	#DEBUG_VALUE: encrypt_xor_wide:st <- $r15
	#DEBUG_VALUE: encrypt_xor_wide:dst <- undef
	#DEBUG_VALUE: encrypt_xor_wide:src <- undef
	#DEBUG_VALUE: encrypt_xor_wide:counters <- undef
	#DEBUG_VALUE: encrypt_xor_wide:j <- 0
	.loc	2 0 27 is_stmt 0                # crypto_aead/aes256gcm/aesni/aead_aes256gcm_aesni.c:0:27
	vmovdqa	(%r15), %xmm7
.Ltmp215:
	#DEBUG_VALUE: encrypt_xor_wide:j <- 7
	#DEBUG_VALUE: encrypt_xor_wide:ts <- [DW_OP_LLVM_fragment 0 128] undef
	#DEBUG_VALUE: encrypt_xor_wide:ts <- [DW_OP_LLVM_fragment 128 128] undef
	#DEBUG_VALUE: encrypt_xor_wide:ts <- [DW_OP_LLVM_fragment 256 128] undef
	#DEBUG_VALUE: encrypt_xor_wide:ts <- [DW_OP_LLVM_fragment 384 128] undef
	#DEBUG_VALUE: encrypt_xor_wide:ts <- [DW_OP_LLVM_fragment 512 128] undef
	#DEBUG_VALUE: encrypt_xor_wide:ts <- [DW_OP_LLVM_fragment 640 128] undef
	#DEBUG_VALUE: encrypt_xor_wide:i <- 1
	vmovdqa	16(%r15), %xmm8
	#DEBUG_VALUE: encrypt_xor_wide:j <- 7
	#DEBUG_VALUE: encrypt_xor_wide:i <- 2
	#DEBUG_VALUE: encrypt_xor_wide:ts <- [DW_OP_LLVM_fragment 0 128] undef
	#DEBUG_VALUE: encrypt_xor_wide:ts <- [DW_OP_LLVM_fragment 128 128] undef
	#DEBUG_VALUE: encrypt_xor_wide:ts <- [DW_OP_LLVM_fragment 256 128] undef
	#DEBUG_VALUE: encrypt_xor_wide:ts <- [DW_OP_LLVM_fragment 384 128] undef
	#DEBUG_VALUE: encrypt_xor_wide:ts <- [DW_OP_LLVM_fragment 512 128] undef
	#DEBUG_VALUE: encrypt_xor_wide:ts <- [DW_OP_LLVM_fragment 640 128] undef
	vmovdqa	32(%r15), %xmm9
	#DEBUG_VALUE: encrypt_xor_wide:j <- 7
.Ltmp216:
	#DEBUG_VALUE: encrypt_xor_wide:i <- 3
	#DEBUG_VALUE: encrypt_xor_wide:ts <- [DW_OP_LLVM_fragment 0 128] undef
	#DEBUG_VALUE: encrypt_xor_wide:ts <- [DW_OP_LLVM_fragment 128 128] undef
	#DEBUG_VALUE: encrypt_xor_wide:ts <- [DW_OP_LLVM_fragment 256 128] undef
	#DEBUG_VALUE: encrypt_xor_wide:ts <- [DW_OP_LLVM_fragment 384 128] undef
	#DEBUG_VALUE: encrypt_xor_wide:ts <- [DW_OP_LLVM_fragment 512 128] undef
	#DEBUG_VALUE: encrypt_xor_wide:ts <- [DW_OP_LLVM_fragment 640 128] undef
	vmovdqa	48(%r15), %xmm10
.Ltmp217:
	.loc	2 175 17 is_stmt 1              # crypto_aead/aes256gcm/aesni/aead_aes256gcm_aesni.c:175:17 @[ crypto_aead/aes256gcm/aesni/aead_aes256gcm_aesni.c:440:9 @[ crypto_aead/aes256gcm/aesni/aead_aes256gcm_aesni.c:770:5 ] ]
	vpxor	%xmm0, %xmm7, %xmm11
.Ltmp218:
	#DEBUG_VALUE: encrypt_xor_wide:ts <- [DW_OP_LLVM_fragment 0 128] $xmm11
	#DEBUG_VALUE: encrypt_xor_wide:ts <- [DW_OP_LLVM_fragment 0 128] $xmm11
	#DEBUG_VALUE: encrypt_xor_wide:j <- 1
	vpxor	%xmm1, %xmm7, %xmm1
.Ltmp219:
	#DEBUG_VALUE: encrypt_xor_wide:ts <- [DW_OP_LLVM_fragment 128 128] $xmm1
	#DEBUG_VALUE: encrypt_xor_wide:ts <- [DW_OP_LLVM_fragment 128 128] $xmm1
	#DEBUG_VALUE: encrypt_xor_wide:j <- 2
	vpxor	%xmm2, %xmm7, %xmm2
.Ltmp220:
	#DEBUG_VALUE: encrypt_xor_wide:ts <- [DW_OP_LLVM_fragment 256 128] $xmm2
	#DEBUG_VALUE: encrypt_xor_wide:ts <- [DW_OP_LLVM_fragment 256 128] $xmm2
	#DEBUG_VALUE: encrypt_xor_wide:j <- 3
	vpxor	%xmm3, %xmm7, %xmm3
.Ltmp221:
	#DEBUG_VALUE: encrypt_xor_wide:ts <- [DW_OP_LLVM_fragment 384 128] $xmm3
	#DEBUG_VALUE: encrypt_xor_wide:ts <- [DW_OP_LLVM_fragment 384 128] $xmm3
	#DEBUG_VALUE: encrypt_xor_wide:j <- 4
	vpxor	%xmm4, %xmm7, %xmm4
.Ltmp222:
	#DEBUG_VALUE: encrypt_xor_wide:ts <- [DW_OP_LLVM_fragment 512 128] $xmm4
	#DEBUG_VALUE: encrypt_xor_wide:ts <- [DW_OP_LLVM_fragment 512 128] $xmm4
	#DEBUG_VALUE: encrypt_xor_wide:j <- 5
	vpxor	%xmm5, %xmm7, %xmm5
.Ltmp223:
	#DEBUG_VALUE: encrypt_xor_wide:ts <- [DW_OP_LLVM_fragment 640 128] $xmm5
	#DEBUG_VALUE: encrypt_xor_wide:ts <- [DW_OP_LLVM_fragment 640 128] $xmm5
	#DEBUG_VALUE: encrypt_xor_wide:j <- 6
	vpxor	%xmm6, %xmm7, %xmm6
.Ltmp224:
	#DEBUG_VALUE: encrypt_xor_wide:ts <- [DW_OP_LLVM_fragment 768 128] $xmm6
	#DEBUG_VALUE: encrypt_xor_wide:j <- 0
	.loc	2 179 21                        # crypto_aead/aes256gcm/aesni/aead_aes256gcm_aesni.c:179:21 @[ crypto_aead/aes256gcm/aesni/aead_aes256gcm_aesni.c:440:9 @[ crypto_aead/aes256gcm/aesni/aead_aes256gcm_aesni.c:770:5 ] ]
	vaesenc	%xmm8, %xmm11, %xmm7
.Ltmp225:
	#DEBUG_VALUE: encrypt_xor_wide:ts <- [DW_OP_LLVM_fragment 0 128] $xmm7
	#DEBUG_VALUE: encrypt_xor_wide:j <- 1
	vaesenc	%xmm8, %xmm1, %xmm1
.Ltmp226:
	#DEBUG_VALUE: encrypt_xor_wide:ts <- [DW_OP_LLVM_fragment 128 128] $xmm1
	#DEBUG_VALUE: encrypt_xor_wide:j <- 2
	vaesenc	%xmm8, %xmm2, %xmm2
.Ltmp227:
	#DEBUG_VALUE: encrypt_xor_wide:ts <- [DW_OP_LLVM_fragment 256 128] $xmm2
	#DEBUG_VALUE: encrypt_xor_wide:j <- 3
	vaesenc	%xmm8, %xmm3, %xmm3
.Ltmp228:
	#DEBUG_VALUE: encrypt_xor_wide:ts <- [DW_OP_LLVM_fragment 384 128] $xmm3
	#DEBUG_VALUE: encrypt_xor_wide:j <- 4
	vaesenc	%xmm8, %xmm4, %xmm4
.Ltmp229:
	#DEBUG_VALUE: encrypt_xor_wide:ts <- [DW_OP_LLVM_fragment 512 128] $xmm4
	#DEBUG_VALUE: encrypt_xor_wide:j <- 5
	vaesenc	%xmm8, %xmm5, %xmm5
.Ltmp230:
	#DEBUG_VALUE: encrypt_xor_wide:ts <- [DW_OP_LLVM_fragment 640 128] $xmm5
	#DEBUG_VALUE: encrypt_xor_wide:j <- 6
	vaesenc	%xmm8, %xmm6, %xmm6
.Ltmp231:
	#DEBUG_VALUE: encrypt_xor_wide:ts <- [DW_OP_LLVM_fragment 768 128] $xmm6
	#DEBUG_VALUE: encrypt_xor_wide:j <- 0
	vaesenc	%xmm9, %xmm7, %xmm7
.Ltmp232:
	#DEBUG_VALUE: encrypt_xor_wide:ts <- [DW_OP_LLVM_fragment 0 128] $xmm7
	#DEBUG_VALUE: encrypt_xor_wide:j <- 1
	vaesenc	%xmm9, %xmm1, %xmm1
.Ltmp233:
	#DEBUG_VALUE: encrypt_xor_wide:ts <- [DW_OP_LLVM_fragment 128 128] $xmm1
	#DEBUG_VALUE: encrypt_xor_wide:j <- 2
	vaesenc	%xmm9, %xmm2, %xmm2
.Ltmp234:
	#DEBUG_VALUE: encrypt_xor_wide:ts <- [DW_OP_LLVM_fragment 256 128] $xmm2
	#DEBUG_VALUE: encrypt_xor_wide:j <- 3
	vaesenc	%xmm9, %xmm3, %xmm3
.Ltmp235:
	#DEBUG_VALUE: encrypt_xor_wide:ts <- [DW_OP_LLVM_fragment 384 128] $xmm3
	#DEBUG_VALUE: encrypt_xor_wide:j <- 4
	vaesenc	%xmm9, %xmm4, %xmm4
.Ltmp236:
	#DEBUG_VALUE: encrypt_xor_wide:ts <- [DW_OP_LLVM_fragment 512 128] $xmm4
	#DEBUG_VALUE: encrypt_xor_wide:j <- 5
	vaesenc	%xmm9, %xmm5, %xmm5
.Ltmp237:
	#DEBUG_VALUE: encrypt_xor_wide:ts <- [DW_OP_LLVM_fragment 640 128] $xmm5
	#DEBUG_VALUE: encrypt_xor_wide:j <- 6
	vaesenc	%xmm9, %xmm6, %xmm6
.Ltmp238:
	#DEBUG_VALUE: encrypt_xor_wide:ts <- [DW_OP_LLVM_fragment 768 128] $xmm6
	#DEBUG_VALUE: encrypt_xor_wide:j <- 0
	vaesenc	%xmm10, %xmm7, %xmm7
.Ltmp239:
	#DEBUG_VALUE: encrypt_xor_wide:ts <- [DW_OP_LLVM_fragment 0 128] $xmm7
	#DEBUG_VALUE: encrypt_xor_wide:j <- 1
	vaesenc	%xmm10, %xmm1, %xmm1
.Ltmp240:
	#DEBUG_VALUE: encrypt_xor_wide:ts <- [DW_OP_LLVM_fragment 128 128] $xmm1
	#DEBUG_VALUE: encrypt_xor_wide:j <- 2
	vaesenc	%xmm10, %xmm2, %xmm2
.Ltmp241:
	#DEBUG_VALUE: encrypt_xor_wide:ts <- [DW_OP_LLVM_fragment 256 128] $xmm2
	#DEBUG_VALUE: encrypt_xor_wide:j <- 3
	vaesenc	%xmm10, %xmm3, %xmm3
.Ltmp242:
	#DEBUG_VALUE: encrypt_xor_wide:ts <- [DW_OP_LLVM_fragment 384 128] $xmm3
	#DEBUG_VALUE: encrypt_xor_wide:j <- 4
	vaesenc	%xmm10, %xmm4, %xmm4
.Ltmp243:
	#DEBUG_VALUE: encrypt_xor_wide:ts <- [DW_OP_LLVM_fragment 512 128] $xmm4
	#DEBUG_VALUE: encrypt_xor_wide:j <- 5
	vaesenc	%xmm10, %xmm5, %xmm5
.Ltmp244:
	#DEBUG_VALUE: encrypt_xor_wide:ts <- [DW_OP_LLVM_fragment 640 128] $xmm5
	#DEBUG_VALUE: encrypt_xor_wide:j <- 6
	vaesenc	%xmm10, %xmm6, %xmm6
.Ltmp245:
	#DEBUG_VALUE: encrypt_xor_wide:ts <- [DW_OP_LLVM_fragment 768 128] $xmm6
	#DEBUG_VALUE: encrypt_xor_wide:j <- 7
	#DEBUG_VALUE: encrypt_xor_wide:i <- 4
	#DEBUG_VALUE: encrypt_xor_wide:ts <- [DW_OP_LLVM_fragment 0 128] $xmm7
	#DEBUG_VALUE: encrypt_xor_wide:ts <- [DW_OP_LLVM_fragment 128 128] $xmm1
	#DEBUG_VALUE: encrypt_xor_wide:ts <- [DW_OP_LLVM_fragment 256 128] $xmm2
	#DEBUG_VALUE: encrypt_xor_wide:ts <- [DW_OP_LLVM_fragment 384 128] $xmm3
	#DEBUG_VALUE: encrypt_xor_wide:ts <- [DW_OP_LLVM_fragment 512 128] $xmm4
	#DEBUG_VALUE: encrypt_xor_wide:ts <- [DW_OP_LLVM_fragment 640 128] $xmm5
	.loc	2 0 21 is_stmt 0                # crypto_aead/aes256gcm/aesni/aead_aes256gcm_aesni.c:0:21
	vmovdqa	64(%r15), %xmm8
.Ltmp246:
	#DEBUG_VALUE: encrypt_xor_wide:j <- 0
	.loc	2 179 21                        # crypto_aead/aes256gcm/aesni/aead_aes256gcm_aesni.c:179:21 @[ crypto_aead/aes256gcm/aesni/aead_aes256gcm_aesni.c:440:9 @[ crypto_aead/aes256gcm/aesni/aead_aes256gcm_aesni.c:770:5 ] ]
	vaesenc	%xmm8, %xmm7, %xmm7
.Ltmp247:
	#DEBUG_VALUE: encrypt_xor_wide:ts <- [DW_OP_LLVM_fragment 0 128] $xmm7
	#DEBUG_VALUE: encrypt_xor_wide:j <- 1
	vaesenc	%xmm8, %xmm1, %xmm1
.Ltmp248:
	#DEBUG_VALUE: encrypt_xor_wide:ts <- [DW_OP_LLVM_fragment 128 128] $xmm1
	#DEBUG_VALUE: encrypt_xor_wide:j <- 2
	vaesenc	%xmm8, %xmm2, %xmm2
.Ltmp249:
	#DEBUG_VALUE: encrypt_xor_wide:ts <- [DW_OP_LLVM_fragment 256 128] $xmm2
	#DEBUG_VALUE: encrypt_xor_wide:j <- 3
	vaesenc	%xmm8, %xmm3, %xmm3
.Ltmp250:
	#DEBUG_VALUE: encrypt_xor_wide:ts <- [DW_OP_LLVM_fragment 384 128] $xmm3
	#DEBUG_VALUE: encrypt_xor_wide:j <- 4
	vaesenc	%xmm8, %xmm4, %xmm4
.Ltmp251:
	#DEBUG_VALUE: encrypt_xor_wide:ts <- [DW_OP_LLVM_fragment 512 128] $xmm4
	#DEBUG_VALUE: encrypt_xor_wide:j <- 5
	vaesenc	%xmm8, %xmm5, %xmm5
.Ltmp252:
	#DEBUG_VALUE: encrypt_xor_wide:ts <- [DW_OP_LLVM_fragment 640 128] $xmm5
	#DEBUG_VALUE: encrypt_xor_wide:j <- 6
	vaesenc	%xmm8, %xmm6, %xmm6
.Ltmp253:
	#DEBUG_VALUE: encrypt_xor_wide:ts <- [DW_OP_LLVM_fragment 768 128] $xmm6
	#DEBUG_VALUE: encrypt_xor_wide:j <- 7
	#DEBUG_VALUE: encrypt_xor_wide:i <- 5
	#DEBUG_VALUE: encrypt_xor_wide:ts <- [DW_OP_LLVM_fragment 0 128] $xmm7
	#DEBUG_VALUE: encrypt_xor_wide:ts <- [DW_OP_LLVM_fragment 128 128] $xmm1
	#DEBUG_VALUE: encrypt_xor_wide:ts <- [DW_OP_LLVM_fragment 256 128] $xmm2
	#DEBUG_VALUE: encrypt_xor_wide:ts <- [DW_OP_LLVM_fragment 384 128] $xmm3
	#DEBUG_VALUE: encrypt_xor_wide:ts <- [DW_OP_LLVM_fragment 512 128] $xmm4
	#DEBUG_VALUE: encrypt_xor_wide:ts <- [DW_OP_LLVM_fragment 640 128] $xmm5
	.loc	2 0 21                          # crypto_aead/aes256gcm/aesni/aead_aes256gcm_aesni.c:0:21
	vmovdqa	80(%r15), %xmm8
.Ltmp254:
	#DEBUG_VALUE: encrypt_xor_wide:j <- 0
	.loc	2 179 21                        # crypto_aead/aes256gcm/aesni/aead_aes256gcm_aesni.c:179:21 @[ crypto_aead/aes256gcm/aesni/aead_aes256gcm_aesni.c:440:9 @[ crypto_aead/aes256gcm/aesni/aead_aes256gcm_aesni.c:770:5 ] ]
	vaesenc	%xmm8, %xmm7, %xmm7
.Ltmp255:
	#DEBUG_VALUE: encrypt_xor_wide:ts <- [DW_OP_LLVM_fragment 0 128] $xmm7
	#DEBUG_VALUE: encrypt_xor_wide:j <- 1
	vaesenc	%xmm8, %xmm1, %xmm1
.Ltmp256:
	#DEBUG_VALUE: encrypt_xor_wide:ts <- [DW_OP_LLVM_fragment 128 128] $xmm1
	#DEBUG_VALUE: encrypt_xor_wide:j <- 2
	vaesenc	%xmm8, %xmm2, %xmm2
.Ltmp257:
	#DEBUG_VALUE: encrypt_xor_wide:ts <- [DW_OP_LLVM_fragment 256 128] $xmm2
	#DEBUG_VALUE: encrypt_xor_wide:j <- 3
	vaesenc	%xmm8, %xmm3, %xmm3
.Ltmp258:
	#DEBUG_VALUE: encrypt_xor_wide:ts <- [DW_OP_LLVM_fragment 384 128] $xmm3
	#DEBUG_VALUE: encrypt_xor_wide:j <- 4
	vaesenc	%xmm8, %xmm4, %xmm4
.Ltmp259:
	#DEBUG_VALUE: encrypt_xor_wide:ts <- [DW_OP_LLVM_fragment 512 128] $xmm4
	#DEBUG_VALUE: encrypt_xor_wide:j <- 5
	vaesenc	%xmm8, %xmm5, %xmm5
.Ltmp260:
	#DEBUG_VALUE: encrypt_xor_wide:ts <- [DW_OP_LLVM_fragment 640 128] $xmm5
	#DEBUG_VALUE: encrypt_xor_wide:j <- 6
	vaesenc	%xmm8, %xmm6, %xmm6
.Ltmp261:
	#DEBUG_VALUE: encrypt_xor_wide:ts <- [DW_OP_LLVM_fragment 768 128] $xmm6
	#DEBUG_VALUE: encrypt_xor_wide:j <- 7
	#DEBUG_VALUE: encrypt_xor_wide:i <- 6
	#DEBUG_VALUE: encrypt_xor_wide:ts <- [DW_OP_LLVM_fragment 0 128] $xmm7
	#DEBUG_VALUE: encrypt_xor_wide:ts <- [DW_OP_LLVM_fragment 128 128] $xmm1
	#DEBUG_VALUE: encrypt_xor_wide:ts <- [DW_OP_LLVM_fragment 256 128] $xmm2
	#DEBUG_VALUE: encrypt_xor_wide:ts <- [DW_OP_LLVM_fragment 384 128] $xmm3
	#DEBUG_VALUE: encrypt_xor_wide:ts <- [DW_OP_LLVM_fragment 512 128] $xmm4
	#DEBUG_VALUE: encrypt_xor_wide:ts <- [DW_OP_LLVM_fragment 640 128] $xmm5
	.loc	2 0 21                          # crypto_aead/aes256gcm/aesni/aead_aes256gcm_aesni.c:0:21
	vmovdqa	96(%r15), %xmm8
.Ltmp262:
	#DEBUG_VALUE: encrypt_xor_wide:j <- 0
	.loc	2 179 21                        # crypto_aead/aes256gcm/aesni/aead_aes256gcm_aesni.c:179:21 @[ crypto_aead/aes256gcm/aesni/aead_aes256gcm_aesni.c:440:9 @[ crypto_aead/aes256gcm/aesni/aead_aes256gcm_aesni.c:770:5 ] ]
	vaesenc	%xmm8, %xmm7, %xmm7
.Ltmp263:
	#DEBUG_VALUE: encrypt_xor_wide:ts <- [DW_OP_LLVM_fragment 0 128] $xmm7
	#DEBUG_VALUE: encrypt_xor_wide:j <- 1
	vaesenc	%xmm8, %xmm1, %xmm1
.Ltmp264:
	#DEBUG_VALUE: encrypt_xor_wide:ts <- [DW_OP_LLVM_fragment 128 128] $xmm1
	#DEBUG_VALUE: encrypt_xor_wide:j <- 2
	vaesenc	%xmm8, %xmm2, %xmm2
.Ltmp265:
	#DEBUG_VALUE: encrypt_xor_wide:ts <- [DW_OP_LLVM_fragment 256 128] $xmm2
	#DEBUG_VALUE: encrypt_xor_wide:j <- 3
	vaesenc	%xmm8, %xmm3, %xmm3
.Ltmp266:
	#DEBUG_VALUE: encrypt_xor_wide:ts <- [DW_OP_LLVM_fragment 384 128] $xmm3
	#DEBUG_VALUE: encrypt_xor_wide:j <- 4
	vaesenc	%xmm8, %xmm4, %xmm4
.Ltmp267:
	#DEBUG_VALUE: encrypt_xor_wide:ts <- [DW_OP_LLVM_fragment 512 128] $xmm4
	#DEBUG_VALUE: encrypt_xor_wide:j <- 5
	vaesenc	%xmm8, %xmm5, %xmm5
.Ltmp268:
	#DEBUG_VALUE: encrypt_xor_wide:ts <- [DW_OP_LLVM_fragment 640 128] $xmm5
	#DEBUG_VALUE: encrypt_xor_wide:j <- 6
	vaesenc	%xmm8, %xmm6, %xmm6
.Ltmp269:
	#DEBUG_VALUE: encrypt_xor_wide:ts <- [DW_OP_LLVM_fragment 768 128] $xmm6
	#DEBUG_VALUE: encrypt_xor_wide:j <- 7
	#DEBUG_VALUE: encrypt_xor_wide:i <- 7
	#DEBUG_VALUE: encrypt_xor_wide:ts <- [DW_OP_LLVM_fragment 0 128] $xmm7
	#DEBUG_VALUE: encrypt_xor_wide:ts <- [DW_OP_LLVM_fragment 128 128] $xmm1
	#DEBUG_VALUE: encrypt_xor_wide:ts <- [DW_OP_LLVM_fragment 256 128] $xmm2
	#DEBUG_VALUE: encrypt_xor_wide:ts <- [DW_OP_LLVM_fragment 384 128] $xmm3
	#DEBUG_VALUE: encrypt_xor_wide:ts <- [DW_OP_LLVM_fragment 512 128] $xmm4
	#DEBUG_VALUE: encrypt_xor_wide:ts <- [DW_OP_LLVM_fragment 640 128] $xmm5
	.loc	2 0 21                          # crypto_aead/aes256gcm/aesni/aead_aes256gcm_aesni.c:0:21
	vmovdqa	112(%r15), %xmm8
.Ltmp270:
	#DEBUG_VALUE: encrypt_xor_wide:j <- 0
	.loc	2 179 21                        # crypto_aead/aes256gcm/aesni/aead_aes256gcm_aesni.c:179:21 @[ crypto_aead/aes256gcm/aesni/aead_aes256gcm_aesni.c:440:9 @[ crypto_aead/aes256gcm/aesni/aead_aes256gcm_aesni.c:770:5 ] ]
	vaesenc	%xmm8, %xmm7, %xmm7
.Ltmp271:
	#DEBUG_VALUE: encrypt_xor_wide:ts <- [DW_OP_LLVM_fragment 0 128] $xmm7
	#DEBUG_VALUE: encrypt_xor_wide:j <- 1
	vaesenc	%xmm8, %xmm1, %xmm1
.Ltmp272:
	#DEBUG_VALUE: encrypt_xor_wide:ts <- [DW_OP_LLVM_fragment 128 128] $xmm1
	#DEBUG_VALUE: encrypt_xor_wide:j <- 2
	vaesenc	%xmm8, %xmm2, %xmm2
.Ltmp273:
	#DEBUG_VALUE: encrypt_xor_wide:ts <- [DW_OP_LLVM_fragment 256 128] $xmm2
	#DEBUG_VALUE: encrypt_xor_wide:j <- 3
	vaesenc	%xmm8, %xmm3, %xmm3
.Ltmp274:
	#DEBUG_VALUE: encrypt_xor_wide:ts <- [DW_OP_LLVM_fragment 384 128] $xmm3
	#DEBUG_VALUE: encrypt_xor_wide:j <- 4
	vaesenc	%xmm8, %xmm4, %xmm4
.Ltmp275:
	#DEBUG_VALUE: encrypt_xor_wide:ts <- [DW_OP_LLVM_fragment 512 128] $xmm4
	#DEBUG_VALUE: encrypt_xor_wide:j <- 5
	vaesenc	%xmm8, %xmm5, %xmm5
.Ltmp276:
	#DEBUG_VALUE: encrypt_xor_wide:ts <- [DW_OP_LLVM_fragment 640 128] $xmm5
	#DEBUG_VALUE: encrypt_xor_wide:j <- 6
	vaesenc	%xmm8, %xmm6, %xmm6
.Ltmp277:
	#DEBUG_VALUE: encrypt_xor_wide:ts <- [DW_OP_LLVM_fragment 768 128] $xmm6
	#DEBUG_VALUE: encrypt_xor_wide:j <- 7
	#DEBUG_VALUE: encrypt_xor_wide:i <- 8
	#DEBUG_VALUE: encrypt_xor_wide:ts <- [DW_OP_LLVM_fragment 0 128] $xmm7
	#DEBUG_VALUE: encrypt_xor_wide:ts <- [DW_OP_LLVM_fragment 128 128] $xmm1
	#DEBUG_VALUE: encrypt_xor_wide:ts <- [DW_OP_LLVM_fragment 256 128] $xmm2
	#DEBUG_VALUE: encrypt_xor_wide:ts <- [DW_OP_LLVM_fragment 384 128] $xmm3
	#DEBUG_VALUE: encrypt_xor_wide:ts <- [DW_OP_LLVM_fragment 512 128] $xmm4
	#DEBUG_VALUE: encrypt_xor_wide:ts <- [DW_OP_LLVM_fragment 640 128] $xmm5
	.loc	2 0 21                          # crypto_aead/aes256gcm/aesni/aead_aes256gcm_aesni.c:0:21
	vmovdqa	128(%r15), %xmm8
.Ltmp278:
	#DEBUG_VALUE: encrypt_xor_wide:j <- 0
	.loc	2 179 21                        # crypto_aead/aes256gcm/aesni/aead_aes256gcm_aesni.c:179:21 @[ crypto_aead/aes256gcm/aesni/aead_aes256gcm_aesni.c:440:9 @[ crypto_aead/aes256gcm/aesni/aead_aes256gcm_aesni.c:770:5 ] ]
	vaesenc	%xmm8, %xmm7, %xmm7
.Ltmp279:
	#DEBUG_VALUE: encrypt_xor_wide:ts <- [DW_OP_LLVM_fragment 0 128] $xmm7
	#DEBUG_VALUE: encrypt_xor_wide:j <- 1
	vaesenc	%xmm8, %xmm1, %xmm1
.Ltmp280:
	#DEBUG_VALUE: encrypt_xor_wide:ts <- [DW_OP_LLVM_fragment 128 128] $xmm1
	#DEBUG_VALUE: encrypt_xor_wide:j <- 2
	vaesenc	%xmm8, %xmm2, %xmm2
.Ltmp281:
	#DEBUG_VALUE: encrypt_xor_wide:ts <- [DW_OP_LLVM_fragment 256 128] $xmm2
	#DEBUG_VALUE: encrypt_xor_wide:j <- 3
	vaesenc	%xmm8, %xmm3, %xmm3
.Ltmp282:
	#DEBUG_VALUE: encrypt_xor_wide:ts <- [DW_OP_LLVM_fragment 384 128] $xmm3
	#DEBUG_VALUE: encrypt_xor_wide:j <- 4
	vaesenc	%xmm8, %xmm4, %xmm4
.Ltmp283:
	#DEBUG_VALUE: encrypt_xor_wide:ts <- [DW_OP_LLVM_fragment 512 128] $xmm4
	#DEBUG_VALUE: encrypt_xor_wide:j <- 5
	vaesenc	%xmm8, %xmm5, %xmm5
.Ltmp284:
	#DEBUG_VALUE: encrypt_xor_wide:ts <- [DW_OP_LLVM_fragment 640 128] $xmm5
	#DEBUG_VALUE: encrypt_xor_wide:j <- 6
	vaesenc	%xmm8, %xmm6, %xmm6
.Ltmp285:
	#DEBUG_VALUE: encrypt_xor_wide:ts <- [DW_OP_LLVM_fragment 768 128] $xmm6
	#DEBUG_VALUE: encrypt_xor_wide:j <- 7
	#DEBUG_VALUE: encrypt_xor_wide:i <- 9
	#DEBUG_VALUE: encrypt_xor_wide:ts <- [DW_OP_LLVM_fragment 0 128] $xmm7
	#DEBUG_VALUE: encrypt_xor_wide:ts <- [DW_OP_LLVM_fragment 128 128] $xmm1
	#DEBUG_VALUE: encrypt_xor_wide:ts <- [DW_OP_LLVM_fragment 256 128] $xmm2
	#DEBUG_VALUE: encrypt_xor_wide:ts <- [DW_OP_LLVM_fragment 384 128] $xmm3
	#DEBUG_VALUE: encrypt_xor_wide:ts <- [DW_OP_LLVM_fragment 512 128] $xmm4
	#DEBUG_VALUE: encrypt_xor_wide:ts <- [DW_OP_LLVM_fragment 640 128] $xmm5
	.loc	2 0 21                          # crypto_aead/aes256gcm/aesni/aead_aes256gcm_aesni.c:0:21
	vmovdqa	144(%r15), %xmm8
.Ltmp286:
	#DEBUG_VALUE: encrypt_xor_wide:j <- 0
	.loc	2 179 21                        # crypto_aead/aes256gcm/aesni/aead_aes256gcm_aesni.c:179:21 @[ crypto_aead/aes256gcm/aesni/aead_aes256gcm_aesni.c:440:9 @[ crypto_aead/aes256gcm/aesni/aead_aes256gcm_aesni.c:770:5 ] ]
	vaesenc	%xmm8, %xmm7, %xmm7
.Ltmp287:
	#DEBUG_VALUE: encrypt_xor_wide:ts <- [DW_OP_LLVM_fragment 0 128] $xmm7
	#DEBUG_VALUE: encrypt_xor_wide:j <- 1
	vaesenc	%xmm8, %xmm1, %xmm1
.Ltmp288:
	#DEBUG_VALUE: encrypt_xor_wide:ts <- [DW_OP_LLVM_fragment 128 128] $xmm1
	#DEBUG_VALUE: encrypt_xor_wide:j <- 2
	vaesenc	%xmm8, %xmm2, %xmm2
.Ltmp289:
	#DEBUG_VALUE: encrypt_xor_wide:ts <- [DW_OP_LLVM_fragment 256 128] $xmm2
	#DEBUG_VALUE: encrypt_xor_wide:j <- 3
	vaesenc	%xmm8, %xmm3, %xmm3
.Ltmp290:
	#DEBUG_VALUE: encrypt_xor_wide:ts <- [DW_OP_LLVM_fragment 384 128] $xmm3
	#DEBUG_VALUE: encrypt_xor_wide:j <- 4
	vaesenc	%xmm8, %xmm4, %xmm4
.Ltmp291:
	#DEBUG_VALUE: encrypt_xor_wide:ts <- [DW_OP_LLVM_fragment 512 128] $xmm4
	#DEBUG_VALUE: encrypt_xor_wide:j <- 5
	vaesenc	%xmm8, %xmm5, %xmm5
.Ltmp292:
	#DEBUG_VALUE: encrypt_xor_wide:ts <- [DW_OP_LLVM_fragment 640 128] $xmm5
	#DEBUG_VALUE: encrypt_xor_wide:j <- 6
	vaesenc	%xmm8, %xmm6, %xmm6
.Ltmp293:
	#DEBUG_VALUE: encrypt_xor_wide:ts <- [DW_OP_LLVM_fragment 768 128] $xmm6
	#DEBUG_VALUE: encrypt_xor_wide:j <- 7
	#DEBUG_VALUE: encrypt_xor_wide:i <- 10
	#DEBUG_VALUE: encrypt_xor_wide:ts <- [DW_OP_LLVM_fragment 0 128] $xmm7
	#DEBUG_VALUE: encrypt_xor_wide:ts <- [DW_OP_LLVM_fragment 128 128] $xmm1
	#DEBUG_VALUE: encrypt_xor_wide:ts <- [DW_OP_LLVM_fragment 256 128] $xmm2
	#DEBUG_VALUE: encrypt_xor_wide:ts <- [DW_OP_LLVM_fragment 384 128] $xmm3
	#DEBUG_VALUE: encrypt_xor_wide:ts <- [DW_OP_LLVM_fragment 512 128] $xmm4
	#DEBUG_VALUE: encrypt_xor_wide:ts <- [DW_OP_LLVM_fragment 640 128] $xmm5
	.loc	2 0 21                          # crypto_aead/aes256gcm/aesni/aead_aes256gcm_aesni.c:0:21
	vmovdqa	160(%r15), %xmm8
.Ltmp294:
	#DEBUG_VALUE: encrypt_xor_wide:j <- 0
	.loc	2 179 21                        # crypto_aead/aes256gcm/aesni/aead_aes256gcm_aesni.c:179:21 @[ crypto_aead/aes256gcm/aesni/aead_aes256gcm_aesni.c:440:9 @[ crypto_aead/aes256gcm/aesni/aead_aes256gcm_aesni.c:770:5 ] ]
	vaesenc	%xmm8, %xmm7, %xmm7
.Ltmp295:
	#DEBUG_VALUE: encrypt_xor_wide:ts <- [DW_OP_LLVM_fragment 0 128] $xmm7
	#DEBUG_VALUE: encrypt_xor_wide:j <- 1
	vaesenc	%xmm8, %xmm1, %xmm1
.Ltmp296:
	#DEBUG_VALUE: encrypt_xor_wide:ts <- [DW_OP_LLVM_fragment 128 128] $xmm1
	#DEBUG_VALUE: encrypt_xor_wide:j <- 2
	vaesenc	%xmm8, %xmm2, %xmm2
.Ltmp297:
	#DEBUG_VALUE: encrypt_xor_wide:ts <- [DW_OP_LLVM_fragment 256 128] $xmm2
	#DEBUG_VALUE: encrypt_xor_wide:j <- 3
	vaesenc	%xmm8, %xmm3, %xmm3
.Ltmp298:
	#DEBUG_VALUE: encrypt_xor_wide:ts <- [DW_OP_LLVM_fragment 384 128] $xmm3
	#DEBUG_VALUE: encrypt_xor_wide:j <- 4
	vaesenc	%xmm8, %xmm4, %xmm4
.Ltmp299:
	#DEBUG_VALUE: encrypt_xor_wide:ts <- [DW_OP_LLVM_fragment 512 128] $xmm4
	#DEBUG_VALUE: encrypt_xor_wide:j <- 5
	vaesenc	%xmm8, %xmm5, %xmm5
.Ltmp300:
	#DEBUG_VALUE: encrypt_xor_wide:ts <- [DW_OP_LLVM_fragment 640 128] $xmm5
	#DEBUG_VALUE: encrypt_xor_wide:j <- 6
	vaesenc	%xmm8, %xmm6, %xmm6
.Ltmp301:
	#DEBUG_VALUE: encrypt_xor_wide:ts <- [DW_OP_LLVM_fragment 768 128] $xmm6
	#DEBUG_VALUE: encrypt_xor_wide:j <- 7
	#DEBUG_VALUE: encrypt_xor_wide:i <- 11
	#DEBUG_VALUE: encrypt_xor_wide:ts <- [DW_OP_LLVM_fragment 0 128] $xmm7
	#DEBUG_VALUE: encrypt_xor_wide:ts <- [DW_OP_LLVM_fragment 128 128] $xmm1
	#DEBUG_VALUE: encrypt_xor_wide:ts <- [DW_OP_LLVM_fragment 256 128] $xmm2
	#DEBUG_VALUE: encrypt_xor_wide:ts <- [DW_OP_LLVM_fragment 384 128] $xmm3
	#DEBUG_VALUE: encrypt_xor_wide:ts <- [DW_OP_LLVM_fragment 512 128] $xmm4
	#DEBUG_VALUE: encrypt_xor_wide:ts <- [DW_OP_LLVM_fragment 640 128] $xmm5
	.loc	2 0 21                          # crypto_aead/aes256gcm/aesni/aead_aes256gcm_aesni.c:0:21
	vmovdqa	176(%r15), %xmm8
.Ltmp302:
	#DEBUG_VALUE: encrypt_xor_wide:j <- 0
	.loc	2 179 21                        # crypto_aead/aes256gcm/aesni/aead_aes256gcm_aesni.c:179:21 @[ crypto_aead/aes256gcm/aesni/aead_aes256gcm_aesni.c:440:9 @[ crypto_aead/aes256gcm/aesni/aead_aes256gcm_aesni.c:770:5 ] ]
	vaesenc	%xmm8, %xmm7, %xmm7
.Ltmp303:
	#DEBUG_VALUE: encrypt_xor_wide:ts <- [DW_OP_LLVM_fragment 0 128] $xmm7
	#DEBUG_VALUE: encrypt_xor_wide:j <- 1
	vaesenc	%xmm8, %xmm1, %xmm1
.Ltmp304:
	#DEBUG_VALUE: encrypt_xor_wide:ts <- [DW_OP_LLVM_fragment 128 128] $xmm1
	#DEBUG_VALUE: encrypt_xor_wide:j <- 2
	vaesenc	%xmm8, %xmm2, %xmm2
.Ltmp305:
	#DEBUG_VALUE: encrypt_xor_wide:ts <- [DW_OP_LLVM_fragment 256 128] $xmm2
	#DEBUG_VALUE: encrypt_xor_wide:j <- 3
	vaesenc	%xmm8, %xmm3, %xmm3
.Ltmp306:
	#DEBUG_VALUE: encrypt_xor_wide:ts <- [DW_OP_LLVM_fragment 384 128] $xmm3
	#DEBUG_VALUE: encrypt_xor_wide:j <- 4
	vaesenc	%xmm8, %xmm4, %xmm4
.Ltmp307:
	#DEBUG_VALUE: encrypt_xor_wide:ts <- [DW_OP_LLVM_fragment 512 128] $xmm4
	#DEBUG_VALUE: encrypt_xor_wide:j <- 5
	vaesenc	%xmm8, %xmm5, %xmm5
.Ltmp308:
	#DEBUG_VALUE: encrypt_xor_wide:ts <- [DW_OP_LLVM_fragment 640 128] $xmm5
	#DEBUG_VALUE: encrypt_xor_wide:j <- 6
	vaesenc	%xmm8, %xmm6, %xmm6
.Ltmp309:
	#DEBUG_VALUE: encrypt_xor_wide:ts <- [DW_OP_LLVM_fragment 768 128] $xmm6
	#DEBUG_VALUE: encrypt_xor_wide:j <- 7
	#DEBUG_VALUE: encrypt_xor_wide:i <- 12
	#DEBUG_VALUE: encrypt_xor_wide:ts <- [DW_OP_LLVM_fragment 0 128] $xmm7
	#DEBUG_VALUE: encrypt_xor_wide:ts <- [DW_OP_LLVM_fragment 128 128] $xmm1
	#DEBUG_VALUE: encrypt_xor_wide:ts <- [DW_OP_LLVM_fragment 256 128] $xmm2
	#DEBUG_VALUE: encrypt_xor_wide:ts <- [DW_OP_LLVM_fragment 384 128] $xmm3
	#DEBUG_VALUE: encrypt_xor_wide:ts <- [DW_OP_LLVM_fragment 512 128] $xmm4
	#DEBUG_VALUE: encrypt_xor_wide:ts <- [DW_OP_LLVM_fragment 640 128] $xmm5
	.loc	2 0 21                          # crypto_aead/aes256gcm/aesni/aead_aes256gcm_aesni.c:0:21
	vmovdqa	192(%r15), %xmm8
.Ltmp310:
	#DEBUG_VALUE: encrypt_xor_wide:j <- 0
	.loc	2 179 21                        # crypto_aead/aes256gcm/aesni/aead_aes256gcm_aesni.c:179:21 @[ crypto_aead/aes256gcm/aesni/aead_aes256gcm_aesni.c:440:9 @[ crypto_aead/aes256gcm/aesni/aead_aes256gcm_aesni.c:770:5 ] ]
	vaesenc	%xmm8, %xmm7, %xmm7
.Ltmp311:
	#DEBUG_VALUE: encrypt_xor_wide:ts <- [DW_OP_LLVM_fragment 0 128] $xmm7
	#DEBUG_VALUE: encrypt_xor_wide:j <- 1
	vaesenc	%xmm8, %xmm1, %xmm1
.Ltmp312:
	#DEBUG_VALUE: encrypt_xor_wide:ts <- [DW_OP_LLVM_fragment 128 128] $xmm1
	#DEBUG_VALUE: encrypt_xor_wide:j <- 2
	vaesenc	%xmm8, %xmm2, %xmm2
.Ltmp313:
	#DEBUG_VALUE: encrypt_xor_wide:ts <- [DW_OP_LLVM_fragment 256 128] $xmm2
	#DEBUG_VALUE: encrypt_xor_wide:j <- 3
	vaesenc	%xmm8, %xmm3, %xmm3
.Ltmp314:
	#DEBUG_VALUE: encrypt_xor_wide:ts <- [DW_OP_LLVM_fragment 384 128] $xmm3
	#DEBUG_VALUE: encrypt_xor_wide:j <- 4
	vaesenc	%xmm8, %xmm4, %xmm4
.Ltmp315:
	#DEBUG_VALUE: encrypt_xor_wide:ts <- [DW_OP_LLVM_fragment 512 128] $xmm4
	#DEBUG_VALUE: encrypt_xor_wide:j <- 5
	vaesenc	%xmm8, %xmm5, %xmm5
.Ltmp316:
	#DEBUG_VALUE: encrypt_xor_wide:ts <- [DW_OP_LLVM_fragment 640 128] $xmm5
	#DEBUG_VALUE: encrypt_xor_wide:j <- 6
	vaesenc	%xmm8, %xmm6, %xmm6
.Ltmp317:
	#DEBUG_VALUE: encrypt_xor_wide:ts <- [DW_OP_LLVM_fragment 768 128] $xmm6
	#DEBUG_VALUE: encrypt_xor_wide:j <- 7
	#DEBUG_VALUE: encrypt_xor_wide:i <- 13
	#DEBUG_VALUE: encrypt_xor_wide:ts <- [DW_OP_LLVM_fragment 0 128] $xmm7
	#DEBUG_VALUE: encrypt_xor_wide:ts <- [DW_OP_LLVM_fragment 128 128] $xmm1
	#DEBUG_VALUE: encrypt_xor_wide:ts <- [DW_OP_LLVM_fragment 256 128] $xmm2
	#DEBUG_VALUE: encrypt_xor_wide:ts <- [DW_OP_LLVM_fragment 384 128] $xmm3
	#DEBUG_VALUE: encrypt_xor_wide:ts <- [DW_OP_LLVM_fragment 512 128] $xmm4
	#DEBUG_VALUE: encrypt_xor_wide:ts <- [DW_OP_LLVM_fragment 640 128] $xmm5
	.loc	2 0 21                          # crypto_aead/aes256gcm/aesni/aead_aes256gcm_aesni.c:0:21
	vmovdqa	208(%r15), %xmm8
.Ltmp318:
	#DEBUG_VALUE: encrypt_xor_wide:j <- 0
	.loc	2 179 21                        # crypto_aead/aes256gcm/aesni/aead_aes256gcm_aesni.c:179:21 @[ crypto_aead/aes256gcm/aesni/aead_aes256gcm_aesni.c:440:9 @[ crypto_aead/aes256gcm/aesni/aead_aes256gcm_aesni.c:770:5 ] ]
	vaesenc	%xmm8, %xmm7, %xmm7
.Ltmp319:
	#DEBUG_VALUE: encrypt_xor_wide:ts <- [DW_OP_LLVM_fragment 0 128] $xmm7
	#DEBUG_VALUE: encrypt_xor_wide:j <- 1
	vaesenc	%xmm8, %xmm1, %xmm1
.Ltmp320:
	#DEBUG_VALUE: encrypt_xor_wide:ts <- [DW_OP_LLVM_fragment 128 128] $xmm1
	#DEBUG_VALUE: encrypt_xor_wide:j <- 2
	vaesenc	%xmm8, %xmm2, %xmm2
.Ltmp321:
	#DEBUG_VALUE: encrypt_xor_wide:ts <- [DW_OP_LLVM_fragment 256 128] $xmm2
	#DEBUG_VALUE: encrypt_xor_wide:j <- 3
	vaesenc	%xmm8, %xmm3, %xmm3
.Ltmp322:
	#DEBUG_VALUE: encrypt_xor_wide:ts <- [DW_OP_LLVM_fragment 384 128] $xmm3
	#DEBUG_VALUE: encrypt_xor_wide:j <- 4
	vaesenc	%xmm8, %xmm4, %xmm4
.Ltmp323:
	#DEBUG_VALUE: encrypt_xor_wide:ts <- [DW_OP_LLVM_fragment 512 128] $xmm4
	#DEBUG_VALUE: encrypt_xor_wide:j <- 5
	vaesenc	%xmm8, %xmm5, %xmm5
.Ltmp324:
	#DEBUG_VALUE: encrypt_xor_wide:ts <- [DW_OP_LLVM_fragment 640 128] $xmm5
	#DEBUG_VALUE: encrypt_xor_wide:j <- 6
	vaesenc	%xmm8, %xmm6, %xmm6
.Ltmp325:
	#DEBUG_VALUE: encrypt_xor_wide:ts <- [DW_OP_LLVM_fragment 768 128] $xmm6
	#DEBUG_VALUE: encrypt_xor_wide:j <- 7
	#DEBUG_VALUE: encrypt_xor_wide:i <- 14
	.loc	2 374 19 is_stmt 1              # crypto_aead/aes256gcm/aesni/aead_aes256gcm_aesni.c:374:19 @[ crypto_aead/aes256gcm/aesni/aead_aes256gcm_aesni.c:439:19 @[ crypto_aead/aes256gcm/aesni/aead_aes256gcm_aesni.c:770:5 ] ]
	vpaddq	.LCPI1_8(%rip), %xmm15, %xmm14
.Ltmp326:
	#DEBUG_VALUE: aes_gcm_encrypt_generic:counter <- $xmm14
	#DEBUG_VALUE: incr_counters:counter <- $xmm14
	.loc	2 0 19 is_stmt 0                # crypto_aead/aes256gcm/aesni/aead_aes256gcm_aesni.c:0:19
	vmovdqa	224(%r15), %xmm8
.Ltmp327:
	#DEBUG_VALUE: encrypt_xor_wide:j <- 0
	.loc	2 183 17 is_stmt 1              # crypto_aead/aes256gcm/aesni/aead_aes256gcm_aesni.c:183:17 @[ crypto_aead/aes256gcm/aesni/aead_aes256gcm_aesni.c:440:9 @[ crypto_aead/aes256gcm/aesni/aead_aes256gcm_aesni.c:770:5 ] ]
	vaesenclast	%xmm8, %xmm7, %xmm7
.Ltmp328:
	#DEBUG_VALUE: encrypt_xor_wide:ts <- [DW_OP_LLVM_fragment 0 128] $xmm7
	.loc	2 184 17                        # crypto_aead/aes256gcm/aesni/aead_aes256gcm_aesni.c:184:17 @[ crypto_aead/aes256gcm/aesni/aead_aes256gcm_aesni.c:440:9 @[ crypto_aead/aes256gcm/aesni/aead_aes256gcm_aesni.c:770:5 ] ]
	vpxor	(%rcx), %xmm7, %xmm7
.Ltmp329:
	#DEBUG_VALUE: encrypt_xor_wide:ts <- [DW_OP_LLVM_fragment 0 128] $xmm7
	#DEBUG_VALUE: encrypt_xor_wide:j <- 1
	.loc	2 183 17                        # crypto_aead/aes256gcm/aesni/aead_aes256gcm_aesni.c:183:17 @[ crypto_aead/aes256gcm/aesni/aead_aes256gcm_aesni.c:440:9 @[ crypto_aead/aes256gcm/aesni/aead_aes256gcm_aesni.c:770:5 ] ]
	vaesenclast	%xmm8, %xmm1, %xmm1
.Ltmp330:
	#DEBUG_VALUE: encrypt_xor_wide:ts <- [DW_OP_LLVM_fragment 128 128] $xmm1
	.loc	2 184 17                        # crypto_aead/aes256gcm/aesni/aead_aes256gcm_aesni.c:184:17 @[ crypto_aead/aes256gcm/aesni/aead_aes256gcm_aesni.c:440:9 @[ crypto_aead/aes256gcm/aesni/aead_aes256gcm_aesni.c:770:5 ] ]
	vpxor	16(%rcx), %xmm1, %xmm1
.Ltmp331:
	#DEBUG_VALUE: encrypt_xor_wide:ts <- [DW_OP_LLVM_fragment 128 128] $xmm1
	#DEBUG_VALUE: encrypt_xor_wide:j <- 2
	.loc	2 183 17                        # crypto_aead/aes256gcm/aesni/aead_aes256gcm_aesni.c:183:17 @[ crypto_aead/aes256gcm/aesni/aead_aes256gcm_aesni.c:440:9 @[ crypto_aead/aes256gcm/aesni/aead_aes256gcm_aesni.c:770:5 ] ]
	vaesenclast	%xmm8, %xmm2, %xmm2
.Ltmp332:
	#DEBUG_VALUE: encrypt_xor_wide:ts <- [DW_OP_LLVM_fragment 256 128] $xmm2
	.loc	2 184 17                        # crypto_aead/aes256gcm/aesni/aead_aes256gcm_aesni.c:184:17 @[ crypto_aead/aes256gcm/aesni/aead_aes256gcm_aesni.c:440:9 @[ crypto_aead/aes256gcm/aesni/aead_aes256gcm_aesni.c:770:5 ] ]
	vpxor	32(%rcx), %xmm2, %xmm2
.Ltmp333:
	#DEBUG_VALUE: encrypt_xor_wide:ts <- [DW_OP_LLVM_fragment 256 128] $xmm2
	#DEBUG_VALUE: encrypt_xor_wide:j <- 3
	.loc	2 183 17                        # crypto_aead/aes256gcm/aesni/aead_aes256gcm_aesni.c:183:17 @[ crypto_aead/aes256gcm/aesni/aead_aes256gcm_aesni.c:440:9 @[ crypto_aead/aes256gcm/aesni/aead_aes256gcm_aesni.c:770:5 ] ]
	vaesenclast	%xmm8, %xmm3, %xmm3
.Ltmp334:
	#DEBUG_VALUE: encrypt_xor_wide:ts <- [DW_OP_LLVM_fragment 384 128] $xmm3
	.loc	2 184 17                        # crypto_aead/aes256gcm/aesni/aead_aes256gcm_aesni.c:184:17 @[ crypto_aead/aes256gcm/aesni/aead_aes256gcm_aesni.c:440:9 @[ crypto_aead/aes256gcm/aesni/aead_aes256gcm_aesni.c:770:5 ] ]
	vpxor	48(%rcx), %xmm3, %xmm3
.Ltmp335:
	#DEBUG_VALUE: encrypt_xor_wide:ts <- [DW_OP_LLVM_fragment 384 128] $xmm3
	#DEBUG_VALUE: encrypt_xor_wide:j <- 4
	.loc	2 183 17                        # crypto_aead/aes256gcm/aesni/aead_aes256gcm_aesni.c:183:17 @[ crypto_aead/aes256gcm/aesni/aead_aes256gcm_aesni.c:440:9 @[ crypto_aead/aes256gcm/aesni/aead_aes256gcm_aesni.c:770:5 ] ]
	vaesenclast	%xmm8, %xmm4, %xmm4
.Ltmp336:
	#DEBUG_VALUE: encrypt_xor_wide:ts <- [DW_OP_LLVM_fragment 512 128] $xmm4
	.loc	2 184 17                        # crypto_aead/aes256gcm/aesni/aead_aes256gcm_aesni.c:184:17 @[ crypto_aead/aes256gcm/aesni/aead_aes256gcm_aesni.c:440:9 @[ crypto_aead/aes256gcm/aesni/aead_aes256gcm_aesni.c:770:5 ] ]
	vpxor	64(%rcx), %xmm4, %xmm4
.Ltmp337:
	#DEBUG_VALUE: encrypt_xor_wide:ts <- [DW_OP_LLVM_fragment 512 128] $xmm4
	#DEBUG_VALUE: encrypt_xor_wide:j <- 5
	.loc	2 183 17                        # crypto_aead/aes256gcm/aesni/aead_aes256gcm_aesni.c:183:17 @[ crypto_aead/aes256gcm/aesni/aead_aes256gcm_aesni.c:440:9 @[ crypto_aead/aes256gcm/aesni/aead_aes256gcm_aesni.c:770:5 ] ]
	vaesenclast	%xmm8, %xmm5, %xmm5
.Ltmp338:
	#DEBUG_VALUE: encrypt_xor_wide:ts <- [DW_OP_LLVM_fragment 640 128] $xmm5
	.loc	2 184 17                        # crypto_aead/aes256gcm/aesni/aead_aes256gcm_aesni.c:184:17 @[ crypto_aead/aes256gcm/aesni/aead_aes256gcm_aesni.c:440:9 @[ crypto_aead/aes256gcm/aesni/aead_aes256gcm_aesni.c:770:5 ] ]
	vpxor	80(%rcx), %xmm5, %xmm5
.Ltmp339:
	#DEBUG_VALUE: encrypt_xor_wide:ts <- [DW_OP_LLVM_fragment 640 128] $xmm5
	#DEBUG_VALUE: encrypt_xor_wide:j <- 6
	.loc	2 183 17                        # crypto_aead/aes256gcm/aesni/aead_aes256gcm_aesni.c:183:17 @[ crypto_aead/aes256gcm/aesni/aead_aes256gcm_aesni.c:440:9 @[ crypto_aead/aes256gcm/aesni/aead_aes256gcm_aesni.c:770:5 ] ]
	vaesenclast	%xmm8, %xmm6, %xmm6
.Ltmp340:
	#DEBUG_VALUE: encrypt_xor_wide:ts <- [DW_OP_LLVM_fragment 768 128] $xmm6
	.loc	2 184 17                        # crypto_aead/aes256gcm/aesni/aead_aes256gcm_aesni.c:184:17 @[ crypto_aead/aes256gcm/aesni/aead_aes256gcm_aesni.c:440:9 @[ crypto_aead/aes256gcm/aesni/aead_aes256gcm_aesni.c:770:5 ] ]
	vpxor	96(%rcx), %xmm6, %xmm6
.Ltmp341:
	#DEBUG_VALUE: encrypt_xor_wide:ts <- [DW_OP_LLVM_fragment 768 128] $xmm6
	#DEBUG_VALUE: encrypt_xor_wide:j <- 7
	.loc	2 187 9                         # crypto_aead/aes256gcm/aesni/aead_aes256gcm_aesni.c:187:9 @[ crypto_aead/aes256gcm/aesni/aead_aes256gcm_aesni.c:440:9 @[ crypto_aead/aes256gcm/aesni/aead_aes256gcm_aesni.c:770:5 ] ]
	vmovdqu	%xmm7, (%rdi)
	vmovdqu	%xmm1, 16(%rdi)
	vmovdqu	%xmm2, 32(%rdi)
	vmovdqu	%xmm3, 48(%rdi)
	vmovdqu	%xmm4, 64(%rdi)
	vmovdqu	%xmm5, 80(%rdi)
	vmovdqu	%xmm6, 96(%rdi)
.Ltmp342:
	#DEBUG_VALUE: encrypt_xor_wide:j <- undef
	#DEBUG_VALUE: aes_gcm_encrypt_generic:i <- 112
	.loc	2 443 31                        # crypto_aead/aes256gcm/aesni/aead_aes256gcm_aesni.c:443:31 @[ crypto_aead/aes256gcm/aesni/aead_aes256gcm_aesni.c:770:5 ]
	cmpq	$335, %r8                       # imm = 0x14F
.Ltmp343:
	.loc	2 443 9 is_stmt 0               # crypto_aead/aes256gcm/aesni/aead_aes256gcm_aesni.c:443:9 @[ crypto_aead/aes256gcm/aesni/aead_aes256gcm_aesni.c:770:5 ]
	ja	.LBB1_14
.Ltmp344:
# %bb.13:                               # %.preheader420.preheader.._crit_edge_crit_edge.i
	#DEBUG_VALUE: crypto_aead_aes256gcm_encrypt_detached_afternm:c <- [DW_OP_LLVM_entry_value 1] $rdi
	#DEBUG_VALUE: crypto_aead_aes256gcm_encrypt_detached_afternm:mac <- [DW_OP_plus_uconst 40] [$rsp+0]
	#DEBUG_VALUE: crypto_aead_aes256gcm_encrypt_detached_afternm:maclen_p <- [DW_OP_plus_uconst 72] [$rsp+0]
	#DEBUG_VALUE: crypto_aead_aes256gcm_encrypt_detached_afternm:m <- [DW_OP_LLVM_entry_value 1] $rcx
	#DEBUG_VALUE: crypto_aead_aes256gcm_encrypt_detached_afternm:m_len_ <- [DW_OP_LLVM_entry_value 1] $r8
	#DEBUG_VALUE: crypto_aead_aes256gcm_encrypt_detached_afternm:ad <- [DW_OP_LLVM_entry_value 1] $r9
	#DEBUG_VALUE: crypto_aead_aes256gcm_encrypt_detached_afternm:ad_len_ <- [DW_OP_plus_uconst 224] [$rsp+0]
	#DEBUG_VALUE: crypto_aead_aes256gcm_encrypt_detached_afternm:npub <- [DW_OP_plus_uconst 240] [$rsp+0]
	#DEBUG_VALUE: crypto_aead_aes256gcm_encrypt_detached_afternm:st_ <- [DW_OP_plus_uconst 248] [$rsp+0]
	#DEBUG_VALUE: crypto_aead_aes256gcm_encrypt_detached_afternm:sth <- [DW_OP_deref] $rsp
	#DEBUG_VALUE: crypto_aead_aes256gcm_encrypt_detached_afternm:st <- $r15
	#DEBUG_VALUE: crypto_aead_aes256gcm_encrypt_detached_afternm:j <- [DW_OP_LLVM_fragment 120 8] 2
	#DEBUG_VALUE: crypto_aead_aes256gcm_encrypt_detached_afternm:j <- [DW_OP_LLVM_fragment 112 8] 0
	#DEBUG_VALUE: crypto_aead_aes256gcm_encrypt_detached_afternm:j <- [DW_OP_LLVM_fragment 104 8] 0
	#DEBUG_VALUE: crypto_aead_aes256gcm_encrypt_detached_afternm:j <- [DW_OP_LLVM_fragment 96 8] 0
	#DEBUG_VALUE: aes_gcm_encrypt_generic:st <- $r15
	#DEBUG_VALUE: aes_gcm_encrypt_generic:sth <- $rsp
	#DEBUG_VALUE: aes_gcm_encrypt_generic:mac <- [DW_OP_plus_uconst 40, DW_OP_deref] $rsp
	#DEBUG_VALUE: aes_gcm_encrypt_generic:i <- 112
	#DEBUG_VALUE: aes_gcm_encrypt_generic:counter <- $xmm14
	.loc	2 303 41 is_stmt 1              # crypto_aead/aes256gcm/aesni/aead_aes256gcm_aesni.c:303:41 @[ crypto_aead/aes256gcm/aesni/aead_aes256gcm_aesni.c:474:13 @[ crypto_aead/aes256gcm/aesni/aead_aes256gcm_aesni.c:770:5 ] ]
	vmovdqa	(%rsp), %xmm15
.Ltmp345:
	.loc	2 476 46                        # crypto_aead/aes256gcm/aesni/aead_aes256gcm_aesni.c:476:46 @[ crypto_aead/aes256gcm/aesni/aead_aes256gcm_aesni.c:770:5 ]
	vmovdqa	304(%r15), %xmm2
	vmovdqa	240(%r15), %xmm4
	vmovdqa	256(%r15), %xmm3
	vmovdqa	272(%r15), %xmm1
	vmovdqa	288(%r15), %xmm5
	movl	$112, %ebp
.Ltmp346:
	.loc	2 443 9                         # crypto_aead/aes256gcm/aesni/aead_aes256gcm_aesni.c:443:9 @[ crypto_aead/aes256gcm/aesni/aead_aes256gcm_aesni.c:770:5 ]
	jmp	.LBB1_17
.Ltmp347:
.LBB1_46:                               # %required_blocks.exit.thread
	#DEBUG_VALUE: crypto_aead_aes256gcm_encrypt_detached_afternm:c <- $rdi
	#DEBUG_VALUE: crypto_aead_aes256gcm_encrypt_detached_afternm:mac <- $rsi
	#DEBUG_VALUE: crypto_aead_aes256gcm_encrypt_detached_afternm:maclen_p <- $rdx
	#DEBUG_VALUE: crypto_aead_aes256gcm_encrypt_detached_afternm:m <- $rcx
	#DEBUG_VALUE: crypto_aead_aes256gcm_encrypt_detached_afternm:m_len_ <- $r8
	#DEBUG_VALUE: crypto_aead_aes256gcm_encrypt_detached_afternm:ad <- $r9
	#DEBUG_VALUE: crypto_aead_aes256gcm_encrypt_detached_afternm:ad_len_ <- [DW_OP_plus_uconst 224] [$rsp+0]
	#DEBUG_VALUE: crypto_aead_aes256gcm_encrypt_detached_afternm:npub <- [DW_OP_plus_uconst 240] [$rsp+0]
	#DEBUG_VALUE: crypto_aead_aes256gcm_encrypt_detached_afternm:st_ <- [DW_OP_plus_uconst 248] [$rsp+0]
	#DEBUG_VALUE: crypto_aead_aes256gcm_encrypt_detached_afternm:sth <- [DW_OP_deref] $rsp
	#DEBUG_VALUE: memset:__dest <- $rsi
	#DEBUG_VALUE: memset:__ch <- 208
	#DEBUG_VALUE: memset:__len <- 16
	.loc	8 59 10                         # /usr/include/x86_64-linux-gnu/bits/string_fortified.h:59:10 @[ crypto_aead/aes256gcm/aesni/aead_aes256gcm_aesni.c:760:9 ]
	vbroadcastss	.LCPI1_18(%rip), %xmm0  # xmm0 = [208,208,208,208,208,208,208,208,208,208,208,208,208,208,208,208]
	vmovdqu	%xmm0, (%rsi)
.Ltmp348:
	#DEBUG_VALUE: memset:__dest <- $rdi
	#DEBUG_VALUE: memset:__ch <- 0
	#DEBUG_VALUE: memset:__len <- $r8
	.loc	8 59 10 is_stmt 0               # /usr/include/x86_64-linux-gnu/bits/string_fortified.h:59:10 @[ crypto_aead/aes256gcm/aesni/aead_aes256gcm_aesni.c:761:9 ]
	xorl	%esi, %esi
.Ltmp349:
	#DEBUG_VALUE: crypto_aead_aes256gcm_encrypt_detached_afternm:mac <- [DW_OP_LLVM_entry_value 1] $rsi
	movq	%r8, %rdx
.Ltmp350:
	#DEBUG_VALUE: crypto_aead_aes256gcm_encrypt_detached_afternm:maclen_p <- [DW_OP_LLVM_entry_value 1] $rdx
	callq	memset@PLT
.Ltmp351:
	#DEBUG_VALUE: crypto_aead_aes256gcm_encrypt_detached_afternm:ad <- [DW_OP_LLVM_entry_value 1] $r9
	#DEBUG_VALUE: crypto_aead_aes256gcm_encrypt_detached_afternm:m_len_ <- [DW_OP_LLVM_entry_value 1] $r8
	#DEBUG_VALUE: crypto_aead_aes256gcm_encrypt_detached_afternm:m <- [DW_OP_LLVM_entry_value 1] $rcx
	#DEBUG_VALUE: crypto_aead_aes256gcm_encrypt_detached_afternm:c <- [DW_OP_LLVM_entry_value 1] $rdi
	.loc	8 0 10                          # /usr/include/x86_64-linux-gnu/bits/string_fortified.h:0:10
	movl	$-1, %eax
.Ltmp352:
.LBB1_44:
	#DEBUG_VALUE: crypto_aead_aes256gcm_encrypt_detached_afternm:c <- [DW_OP_LLVM_entry_value 1] $rdi
	#DEBUG_VALUE: crypto_aead_aes256gcm_encrypt_detached_afternm:mac <- [DW_OP_LLVM_entry_value 1] $rsi
	#DEBUG_VALUE: crypto_aead_aes256gcm_encrypt_detached_afternm:maclen_p <- [DW_OP_LLVM_entry_value 1] $rdx
	#DEBUG_VALUE: crypto_aead_aes256gcm_encrypt_detached_afternm:m <- [DW_OP_LLVM_entry_value 1] $rcx
	#DEBUG_VALUE: crypto_aead_aes256gcm_encrypt_detached_afternm:m_len_ <- [DW_OP_LLVM_entry_value 1] $r8
	#DEBUG_VALUE: crypto_aead_aes256gcm_encrypt_detached_afternm:ad <- [DW_OP_LLVM_entry_value 1] $r9
	#DEBUG_VALUE: crypto_aead_aes256gcm_encrypt_detached_afternm:ad_len_ <- [DW_OP_plus_uconst 224] [$rsp+0]
	#DEBUG_VALUE: crypto_aead_aes256gcm_encrypt_detached_afternm:npub <- [DW_OP_plus_uconst 240] [$rsp+0]
	#DEBUG_VALUE: crypto_aead_aes256gcm_encrypt_detached_afternm:st_ <- [DW_OP_plus_uconst 248] [$rsp+0]
	#DEBUG_VALUE: crypto_aead_aes256gcm_encrypt_detached_afternm:sth <- [DW_OP_deref] $rsp
	.loc	2 776 1 is_stmt 1               # crypto_aead/aes256gcm/aesni/aead_aes256gcm_aesni.c:776:1
	movq	%fs:40, %rcx
	cmpq	160(%rsp), %rcx
	jne	.LBB1_45
.Ltmp353:
# %bb.47:                               # %SP_return
	#DEBUG_VALUE: crypto_aead_aes256gcm_encrypt_detached_afternm:c <- [DW_OP_LLVM_entry_value 1] $rdi
	#DEBUG_VALUE: crypto_aead_aes256gcm_encrypt_detached_afternm:mac <- [DW_OP_LLVM_entry_value 1] $rsi
	#DEBUG_VALUE: crypto_aead_aes256gcm_encrypt_detached_afternm:maclen_p <- [DW_OP_LLVM_entry_value 1] $rdx
	#DEBUG_VALUE: crypto_aead_aes256gcm_encrypt_detached_afternm:m <- [DW_OP_LLVM_entry_value 1] $rcx
	#DEBUG_VALUE: crypto_aead_aes256gcm_encrypt_detached_afternm:m_len_ <- [DW_OP_LLVM_entry_value 1] $r8
	#DEBUG_VALUE: crypto_aead_aes256gcm_encrypt_detached_afternm:ad <- [DW_OP_LLVM_entry_value 1] $r9
	#DEBUG_VALUE: crypto_aead_aes256gcm_encrypt_detached_afternm:ad_len_ <- [DW_OP_plus_uconst 224] [$rsp+0]
	#DEBUG_VALUE: crypto_aead_aes256gcm_encrypt_detached_afternm:npub <- [DW_OP_plus_uconst 240] [$rsp+0]
	#DEBUG_VALUE: crypto_aead_aes256gcm_encrypt_detached_afternm:st_ <- [DW_OP_plus_uconst 248] [$rsp+0]
	#DEBUG_VALUE: crypto_aead_aes256gcm_encrypt_detached_afternm:sth <- [DW_OP_deref] $rsp
	.loc	2 776 1 epilogue_begin is_stmt 0 # crypto_aead/aes256gcm/aesni/aead_aes256gcm_aesni.c:776:1
	addq	$168, %rsp
	.cfi_def_cfa_offset 56
	popq	%rbx
	.cfi_def_cfa_offset 48
	popq	%r12
	.cfi_def_cfa_offset 40
	popq	%r13
	.cfi_def_cfa_offset 32
	popq	%r14
	.cfi_def_cfa_offset 24
	popq	%r15
	.cfi_def_cfa_offset 16
	popq	%rbp
	.cfi_def_cfa_offset 8
	retq
.Ltmp354:
.LBB1_11:
	.cfi_def_cfa_offset 224
	#DEBUG_VALUE: crypto_aead_aes256gcm_encrypt_detached_afternm:c <- [DW_OP_LLVM_entry_value 1] $rdi
	#DEBUG_VALUE: crypto_aead_aes256gcm_encrypt_detached_afternm:mac <- [DW_OP_plus_uconst 40] [$rsp+0]
	#DEBUG_VALUE: crypto_aead_aes256gcm_encrypt_detached_afternm:maclen_p <- [DW_OP_plus_uconst 72] [$rsp+0]
	#DEBUG_VALUE: crypto_aead_aes256gcm_encrypt_detached_afternm:m <- [DW_OP_LLVM_entry_value 1] $rcx
	#DEBUG_VALUE: crypto_aead_aes256gcm_encrypt_detached_afternm:m_len_ <- [DW_OP_LLVM_entry_value 1] $r8
	#DEBUG_VALUE: crypto_aead_aes256gcm_encrypt_detached_afternm:ad <- [DW_OP_LLVM_entry_value 1] $r9
	#DEBUG_VALUE: crypto_aead_aes256gcm_encrypt_detached_afternm:ad_len_ <- [DW_OP_plus_uconst 224] [$rsp+0]
	#DEBUG_VALUE: crypto_aead_aes256gcm_encrypt_detached_afternm:npub <- [DW_OP_plus_uconst 240] [$rsp+0]
	#DEBUG_VALUE: crypto_aead_aes256gcm_encrypt_detached_afternm:st_ <- [DW_OP_plus_uconst 248] [$rsp+0]
	#DEBUG_VALUE: crypto_aead_aes256gcm_encrypt_detached_afternm:sth <- [DW_OP_deref] $rsp
	#DEBUG_VALUE: crypto_aead_aes256gcm_encrypt_detached_afternm:st <- $r15
	#DEBUG_VALUE: crypto_aead_aes256gcm_encrypt_detached_afternm:j <- [DW_OP_LLVM_fragment 120 8] 2
	#DEBUG_VALUE: crypto_aead_aes256gcm_encrypt_detached_afternm:j <- [DW_OP_LLVM_fragment 112 8] 0
	#DEBUG_VALUE: crypto_aead_aes256gcm_encrypt_detached_afternm:j <- [DW_OP_LLVM_fragment 104 8] 0
	#DEBUG_VALUE: crypto_aead_aes256gcm_encrypt_detached_afternm:j <- [DW_OP_LLVM_fragment 96 8] 0
	#DEBUG_VALUE: aes_gcm_encrypt_generic:st <- $r15
	#DEBUG_VALUE: aes_gcm_encrypt_generic:sth <- $rsp
	#DEBUG_VALUE: aes_gcm_encrypt_generic:mac <- [DW_OP_plus_uconst 40, DW_OP_deref] $rsp
	#DEBUG_VALUE: aes_gcm_encrypt_generic:i <- 0
	#DEBUG_VALUE: aes_gcm_encrypt_generic:counter <- $xmm15
	.loc	2 0 1                           # crypto_aead/aes256gcm/aesni/aead_aes256gcm_aesni.c:0:1
	xorl	%ebp, %ebp
.Ltmp355:
	.loc	2 438 21 is_stmt 1              # crypto_aead/aes256gcm/aesni/aead_aes256gcm_aesni.c:438:21 @[ crypto_aead/aes256gcm/aesni/aead_aes256gcm_aesni.c:770:5 ]
	jmp	.LBB1_18
.Ltmp356:
.LBB1_14:                               # %.preheader419.lr.ph.i
	#DEBUG_VALUE: crypto_aead_aes256gcm_encrypt_detached_afternm:c <- [DW_OP_LLVM_entry_value 1] $rdi
	#DEBUG_VALUE: crypto_aead_aes256gcm_encrypt_detached_afternm:mac <- [DW_OP_plus_uconst 40] [$rsp+0]
	#DEBUG_VALUE: crypto_aead_aes256gcm_encrypt_detached_afternm:maclen_p <- [DW_OP_plus_uconst 72] [$rsp+0]
	#DEBUG_VALUE: crypto_aead_aes256gcm_encrypt_detached_afternm:m <- [DW_OP_LLVM_entry_value 1] $rcx
	#DEBUG_VALUE: crypto_aead_aes256gcm_encrypt_detached_afternm:m_len_ <- [DW_OP_LLVM_entry_value 1] $r8
	#DEBUG_VALUE: crypto_aead_aes256gcm_encrypt_detached_afternm:ad <- [DW_OP_LLVM_entry_value 1] $r9
	#DEBUG_VALUE: crypto_aead_aes256gcm_encrypt_detached_afternm:ad_len_ <- [DW_OP_plus_uconst 224] [$rsp+0]
	#DEBUG_VALUE: crypto_aead_aes256gcm_encrypt_detached_afternm:npub <- [DW_OP_plus_uconst 240] [$rsp+0]
	#DEBUG_VALUE: crypto_aead_aes256gcm_encrypt_detached_afternm:st_ <- [DW_OP_plus_uconst 248] [$rsp+0]
	#DEBUG_VALUE: crypto_aead_aes256gcm_encrypt_detached_afternm:sth <- [DW_OP_deref] $rsp
	#DEBUG_VALUE: crypto_aead_aes256gcm_encrypt_detached_afternm:st <- $r15
	#DEBUG_VALUE: crypto_aead_aes256gcm_encrypt_detached_afternm:j <- [DW_OP_LLVM_fragment 120 8] 2
	#DEBUG_VALUE: crypto_aead_aes256gcm_encrypt_detached_afternm:j <- [DW_OP_LLVM_fragment 112 8] 0
	#DEBUG_VALUE: crypto_aead_aes256gcm_encrypt_detached_afternm:j <- [DW_OP_LLVM_fragment 104 8] 0
	#DEBUG_VALUE: crypto_aead_aes256gcm_encrypt_detached_afternm:j <- [DW_OP_LLVM_fragment 96 8] 0
	#DEBUG_VALUE: aes_gcm_encrypt_generic:st <- $r15
	#DEBUG_VALUE: aes_gcm_encrypt_generic:sth <- $rsp
	#DEBUG_VALUE: aes_gcm_encrypt_generic:mac <- [DW_OP_plus_uconst 40, DW_OP_deref] $rsp
	#DEBUG_VALUE: aes_gcm_encrypt_generic:i <- 112
	#DEBUG_VALUE: aes_gcm_encrypt_generic:counter <- $xmm14
	#DEBUG_VALUE: incr_counters:counter <- $xmm14
	#DEBUG_VALUE: incr_counters:i <- 7
	#DEBUG_VALUE: encrypt_xor_wide:st <- $r15
	#DEBUG_VALUE: encrypt_xor_wide:ts <- [DW_OP_LLVM_fragment 0 128] $xmm7
	#DEBUG_VALUE: encrypt_xor_wide:ts <- [DW_OP_LLVM_fragment 128 128] $xmm1
	#DEBUG_VALUE: encrypt_xor_wide:ts <- [DW_OP_LLVM_fragment 256 128] $xmm2
	#DEBUG_VALUE: encrypt_xor_wide:ts <- [DW_OP_LLVM_fragment 384 128] $xmm3
	#DEBUG_VALUE: encrypt_xor_wide:ts <- [DW_OP_LLVM_fragment 512 128] $xmm4
	#DEBUG_VALUE: encrypt_xor_wide:ts <- [DW_OP_LLVM_fragment 640 128] $xmm5
	#DEBUG_VALUE: encrypt_xor_wide:i <- 14
	#DEBUG_VALUE: encrypt_xor_wide:ts <- [DW_OP_LLVM_fragment 768 128] $xmm6
	.loc	2 0 21 is_stmt 0                # crypto_aead/aes256gcm/aesni/aead_aes256gcm_aesni.c:0:21
	movl	$320, %ebp                      # imm = 0x140
	vmovdqa	(%rsp), %xmm15
.Ltmp357:
	.p2align	4
.LBB1_15:                               # %.preheader419.i
                                        # =>This Inner Loop Header: Depth=1
	#DEBUG_VALUE: crypto_aead_aes256gcm_encrypt_detached_afternm:c <- [DW_OP_LLVM_entry_value 1] $rdi
	#DEBUG_VALUE: crypto_aead_aes256gcm_encrypt_detached_afternm:mac <- [DW_OP_plus_uconst 40] [$rsp+0]
	#DEBUG_VALUE: crypto_aead_aes256gcm_encrypt_detached_afternm:maclen_p <- [DW_OP_plus_uconst 72] [$rsp+0]
	#DEBUG_VALUE: crypto_aead_aes256gcm_encrypt_detached_afternm:m <- [DW_OP_LLVM_entry_value 1] $rcx
	#DEBUG_VALUE: crypto_aead_aes256gcm_encrypt_detached_afternm:m_len_ <- [DW_OP_LLVM_entry_value 1] $r8
	#DEBUG_VALUE: crypto_aead_aes256gcm_encrypt_detached_afternm:ad <- [DW_OP_LLVM_entry_value 1] $r9
	#DEBUG_VALUE: crypto_aead_aes256gcm_encrypt_detached_afternm:ad_len_ <- [DW_OP_plus_uconst 224] [$rsp+0]
	#DEBUG_VALUE: crypto_aead_aes256gcm_encrypt_detached_afternm:npub <- [DW_OP_plus_uconst 240] [$rsp+0]
	#DEBUG_VALUE: crypto_aead_aes256gcm_encrypt_detached_afternm:st_ <- [DW_OP_plus_uconst 248] [$rsp+0]
	#DEBUG_VALUE: crypto_aead_aes256gcm_encrypt_detached_afternm:st <- $r15
	#DEBUG_VALUE: crypto_aead_aes256gcm_encrypt_detached_afternm:j <- [DW_OP_LLVM_fragment 120 8] 2
	#DEBUG_VALUE: crypto_aead_aes256gcm_encrypt_detached_afternm:j <- [DW_OP_LLVM_fragment 112 8] 0
	#DEBUG_VALUE: crypto_aead_aes256gcm_encrypt_detached_afternm:j <- [DW_OP_LLVM_fragment 104 8] 0
	#DEBUG_VALUE: crypto_aead_aes256gcm_encrypt_detached_afternm:j <- [DW_OP_LLVM_fragment 96 8] 0
	#DEBUG_VALUE: aes_gcm_encrypt_generic:st <- $r15
	#DEBUG_VALUE: aes_gcm_encrypt_generic:sth <- $rsp
	#DEBUG_VALUE: aes_gcm_encrypt_generic:mac <- [DW_OP_plus_uconst 40, DW_OP_deref] $rsp
	#DEBUG_VALUE: aes_gcm_encrypt_generic:i <- [DW_OP_constu 208, DW_OP_minus, DW_OP_stack_value] $rbp
	#DEBUG_VALUE: aes_gcm_encrypt_generic:counter <- $xmm14
	#DEBUG_VALUE: incr_counters:counter <- $xmm14
	#DEBUG_VALUE: incr_counters:i <- 0
	vmovdqa	%xmm14, 16(%rsp)                # 16-byte Spill
.Ltmp358:
	#DEBUG_VALUE: incr_counters:counter <- [DW_OP_plus_uconst 16, DW_OP_deref] $rsp
	#DEBUG_VALUE: aes_gcm_encrypt_generic:counter <- [DW_OP_plus_uconst 16, DW_OP_deref] $rsp
	.loc	2 373 27 is_stmt 1              # crypto_aead/aes256gcm/aesni/aead_aes256gcm_aesni.c:373:27 @[ crypto_aead/aes256gcm/aesni/aead_aes256gcm_aesni.c:444:23 @[ crypto_aead/aes256gcm/aesni/aead_aes256gcm_aesni.c:770:5 ] ]
	vpshufb	%xmm13, %xmm14, %xmm1
.Ltmp359:
	#DEBUG_VALUE: aes_gcm_encrypt_generic:rev_counters <- [DW_OP_LLVM_fragment 0 128] $xmm1
	.loc	2 374 19                        # crypto_aead/aes256gcm/aesni/aead_aes256gcm_aesni.c:374:19 @[ crypto_aead/aes256gcm/aesni/aead_aes256gcm_aesni.c:444:23 @[ crypto_aead/aes256gcm/aesni/aead_aes256gcm_aesni.c:770:5 ] ]
	vpaddq	.LCPI1_2(%rip), %xmm14, %xmm2
.Ltmp360:
	#DEBUG_VALUE: incr_counters:counter <- undef
	#DEBUG_VALUE: incr_counters:i <- 1
	.loc	2 373 27                        # crypto_aead/aes256gcm/aesni/aead_aes256gcm_aesni.c:373:27 @[ crypto_aead/aes256gcm/aesni/aead_aes256gcm_aesni.c:444:23 @[ crypto_aead/aes256gcm/aesni/aead_aes256gcm_aesni.c:770:5 ] ]
	vpshufb	%xmm13, %xmm2, %xmm2
.Ltmp361:
	#DEBUG_VALUE: aes_gcm_encrypt_generic:rev_counters <- [DW_OP_LLVM_fragment 128 128] $xmm2
	.loc	2 374 19                        # crypto_aead/aes256gcm/aesni/aead_aes256gcm_aesni.c:374:19 @[ crypto_aead/aes256gcm/aesni/aead_aes256gcm_aesni.c:444:23 @[ crypto_aead/aes256gcm/aesni/aead_aes256gcm_aesni.c:770:5 ] ]
	vpaddq	.LCPI1_3(%rip), %xmm14, %xmm3
	#DEBUG_VALUE: incr_counters:counter <- undef
.Ltmp362:
	#DEBUG_VALUE: incr_counters:i <- 2
	.loc	2 373 27                        # crypto_aead/aes256gcm/aesni/aead_aes256gcm_aesni.c:373:27 @[ crypto_aead/aes256gcm/aesni/aead_aes256gcm_aesni.c:444:23 @[ crypto_aead/aes256gcm/aesni/aead_aes256gcm_aesni.c:770:5 ] ]
	vpshufb	%xmm13, %xmm3, %xmm3
.Ltmp363:
	#DEBUG_VALUE: aes_gcm_encrypt_generic:rev_counters <- [DW_OP_LLVM_fragment 256 128] $xmm3
	.loc	2 374 19                        # crypto_aead/aes256gcm/aesni/aead_aes256gcm_aesni.c:374:19 @[ crypto_aead/aes256gcm/aesni/aead_aes256gcm_aesni.c:444:23 @[ crypto_aead/aes256gcm/aesni/aead_aes256gcm_aesni.c:770:5 ] ]
	vpaddq	.LCPI1_4(%rip), %xmm14, %xmm4
	#DEBUG_VALUE: incr_counters:counter <- undef
.Ltmp364:
	#DEBUG_VALUE: incr_counters:i <- 3
	.loc	2 373 27                        # crypto_aead/aes256gcm/aesni/aead_aes256gcm_aesni.c:373:27 @[ crypto_aead/aes256gcm/aesni/aead_aes256gcm_aesni.c:444:23 @[ crypto_aead/aes256gcm/aesni/aead_aes256gcm_aesni.c:770:5 ] ]
	vpshufb	%xmm13, %xmm4, %xmm4
.Ltmp365:
	#DEBUG_VALUE: aes_gcm_encrypt_generic:rev_counters <- [DW_OP_LLVM_fragment 384 128] $xmm4
	.loc	2 374 19                        # crypto_aead/aes256gcm/aesni/aead_aes256gcm_aesni.c:374:19 @[ crypto_aead/aes256gcm/aesni/aead_aes256gcm_aesni.c:444:23 @[ crypto_aead/aes256gcm/aesni/aead_aes256gcm_aesni.c:770:5 ] ]
	vpaddq	.LCPI1_5(%rip), %xmm14, %xmm5
	#DEBUG_VALUE: incr_counters:counter <- undef
.Ltmp366:
	#DEBUG_VALUE: incr_counters:i <- 4
	.loc	2 373 27                        # crypto_aead/aes256gcm/aesni/aead_aes256gcm_aesni.c:373:27 @[ crypto_aead/aes256gcm/aesni/aead_aes256gcm_aesni.c:444:23 @[ crypto_aead/aes256gcm/aesni/aead_aes256gcm_aesni.c:770:5 ] ]
	vpshufb	%xmm13, %xmm5, %xmm5
.Ltmp367:
	#DEBUG_VALUE: aes_gcm_encrypt_generic:rev_counters <- [DW_OP_LLVM_fragment 512 128] $xmm5
	.loc	2 374 19                        # crypto_aead/aes256gcm/aesni/aead_aes256gcm_aesni.c:374:19 @[ crypto_aead/aes256gcm/aesni/aead_aes256gcm_aesni.c:444:23 @[ crypto_aead/aes256gcm/aesni/aead_aes256gcm_aesni.c:770:5 ] ]
	vpaddq	.LCPI1_6(%rip), %xmm14, %xmm6
	#DEBUG_VALUE: incr_counters:counter <- undef
.Ltmp368:
	#DEBUG_VALUE: incr_counters:i <- 5
	.loc	2 373 27                        # crypto_aead/aes256gcm/aesni/aead_aes256gcm_aesni.c:373:27 @[ crypto_aead/aes256gcm/aesni/aead_aes256gcm_aesni.c:444:23 @[ crypto_aead/aes256gcm/aesni/aead_aes256gcm_aesni.c:770:5 ] ]
	vpshufb	%xmm13, %xmm6, %xmm6
.Ltmp369:
	#DEBUG_VALUE: aes_gcm_encrypt_generic:rev_counters <- [DW_OP_LLVM_fragment 640 128] $xmm6
	.loc	2 374 19                        # crypto_aead/aes256gcm/aesni/aead_aes256gcm_aesni.c:374:19 @[ crypto_aead/aes256gcm/aesni/aead_aes256gcm_aesni.c:444:23 @[ crypto_aead/aes256gcm/aesni/aead_aes256gcm_aesni.c:770:5 ] ]
	vpaddq	.LCPI1_7(%rip), %xmm14, %xmm7
	#DEBUG_VALUE: incr_counters:counter <- undef
.Ltmp370:
	#DEBUG_VALUE: incr_counters:i <- 6
	.loc	2 373 27                        # crypto_aead/aes256gcm/aesni/aead_aes256gcm_aesni.c:373:27 @[ crypto_aead/aes256gcm/aesni/aead_aes256gcm_aesni.c:444:23 @[ crypto_aead/aes256gcm/aesni/aead_aes256gcm_aesni.c:770:5 ] ]
	vpshufb	%xmm13, %xmm7, %xmm7
.Ltmp371:
	#DEBUG_VALUE: incr_counters:i <- 7
	#DEBUG_VALUE: encrypt_xor_wide:st <- $r15
	#DEBUG_VALUE: encrypt_xor_wide:dst <- [DW_OP_LLVM_arg 0, DW_OP_consts 320, DW_OP_minus, DW_OP_consts 224, DW_OP_div, DW_OP_consts 224, DW_OP_mul, DW_OP_consts 112, DW_OP_LLVM_arg 1, DW_OP_plus, DW_OP_plus, DW_OP_stack_value] undef, undef
	#DEBUG_VALUE: encrypt_xor_wide:src <- [DW_OP_LLVM_arg 0, DW_OP_consts 320, DW_OP_minus, DW_OP_consts 224, DW_OP_div, DW_OP_consts 224, DW_OP_mul, DW_OP_consts 112, DW_OP_LLVM_arg 1, DW_OP_plus, DW_OP_plus, DW_OP_stack_value] undef, undef
	#DEBUG_VALUE: encrypt_xor_wide:counters <- undef
	#DEBUG_VALUE: encrypt_xor_wide:j <- 0
	#DEBUG_VALUE: aes_gcm_encrypt_generic:rev_counters <- [DW_OP_LLVM_fragment 768 128] $xmm7
	.loc	2 0 27 is_stmt 0                # crypto_aead/aes256gcm/aesni/aead_aes256gcm_aesni.c:0:27
	vmovdqa	(%r15), %xmm8
.Ltmp372:
	#DEBUG_VALUE: encrypt_xor_wide:j <- 7
	#DEBUG_VALUE: encrypt_xor_wide:ts <- [DW_OP_LLVM_fragment 0 128] undef
	#DEBUG_VALUE: encrypt_xor_wide:ts <- [DW_OP_LLVM_fragment 128 128] undef
	#DEBUG_VALUE: encrypt_xor_wide:ts <- [DW_OP_LLVM_fragment 256 128] undef
	#DEBUG_VALUE: encrypt_xor_wide:ts <- [DW_OP_LLVM_fragment 384 128] undef
	#DEBUG_VALUE: encrypt_xor_wide:ts <- [DW_OP_LLVM_fragment 512 128] undef
	#DEBUG_VALUE: encrypt_xor_wide:ts <- [DW_OP_LLVM_fragment 640 128] undef
	#DEBUG_VALUE: encrypt_xor_wide:i <- 1
	vmovdqa	16(%r15), %xmm9
.Ltmp373:
	#DEBUG_VALUE: encrypt_xor_wide:j <- 7
	#DEBUG_VALUE: encrypt_xor_wide:i <- 2
	#DEBUG_VALUE: encrypt_xor_wide:ts <- [DW_OP_LLVM_fragment 0 128] undef
	#DEBUG_VALUE: encrypt_xor_wide:ts <- [DW_OP_LLVM_fragment 128 128] undef
	#DEBUG_VALUE: encrypt_xor_wide:ts <- [DW_OP_LLVM_fragment 256 128] undef
	#DEBUG_VALUE: encrypt_xor_wide:ts <- [DW_OP_LLVM_fragment 384 128] undef
	#DEBUG_VALUE: encrypt_xor_wide:ts <- [DW_OP_LLVM_fragment 512 128] undef
	#DEBUG_VALUE: encrypt_xor_wide:ts <- [DW_OP_LLVM_fragment 640 128] undef
	#DEBUG_VALUE: encrypt_xor_wide:ts <- [DW_OP_LLVM_fragment 0 128] undef
	#DEBUG_VALUE: encrypt_xor_wide:ts <- [DW_OP_LLVM_fragment 128 128] undef
	#DEBUG_VALUE: encrypt_xor_wide:ts <- [DW_OP_LLVM_fragment 256 128] undef
	#DEBUG_VALUE: encrypt_xor_wide:ts <- [DW_OP_LLVM_fragment 384 128] undef
	#DEBUG_VALUE: encrypt_xor_wide:ts <- [DW_OP_LLVM_fragment 512 128] undef
	#DEBUG_VALUE: encrypt_xor_wide:ts <- [DW_OP_LLVM_fragment 640 128] undef
	.loc	2 175 17 is_stmt 1              # crypto_aead/aes256gcm/aesni/aead_aes256gcm_aesni.c:175:17 @[ crypto_aead/aes256gcm/aesni/aead_aes256gcm_aesni.c:445:13 @[ crypto_aead/aes256gcm/aesni/aead_aes256gcm_aesni.c:770:5 ] ]
	vpxor	%xmm1, %xmm8, %xmm1
.Ltmp374:
	#DEBUG_VALUE: encrypt_xor_wide:ts <- [DW_OP_LLVM_fragment 0 128] $xmm1
	#DEBUG_VALUE: encrypt_xor_wide:ts <- [DW_OP_LLVM_fragment 0 128] $xmm1
	#DEBUG_VALUE: encrypt_xor_wide:j <- 1
	vpxor	%xmm2, %xmm8, %xmm2
.Ltmp375:
	#DEBUG_VALUE: encrypt_xor_wide:ts <- [DW_OP_LLVM_fragment 128 128] $xmm2
	#DEBUG_VALUE: encrypt_xor_wide:ts <- [DW_OP_LLVM_fragment 128 128] $xmm2
	#DEBUG_VALUE: encrypt_xor_wide:j <- 2
	vpxor	%xmm3, %xmm8, %xmm3
.Ltmp376:
	#DEBUG_VALUE: encrypt_xor_wide:ts <- [DW_OP_LLVM_fragment 256 128] $xmm3
	#DEBUG_VALUE: encrypt_xor_wide:ts <- [DW_OP_LLVM_fragment 256 128] $xmm3
	#DEBUG_VALUE: encrypt_xor_wide:j <- 3
	vpxor	%xmm4, %xmm8, %xmm4
.Ltmp377:
	#DEBUG_VALUE: encrypt_xor_wide:ts <- [DW_OP_LLVM_fragment 384 128] $xmm4
	#DEBUG_VALUE: encrypt_xor_wide:ts <- [DW_OP_LLVM_fragment 384 128] $xmm4
	#DEBUG_VALUE: encrypt_xor_wide:j <- 4
	vpxor	%xmm5, %xmm8, %xmm5
.Ltmp378:
	#DEBUG_VALUE: encrypt_xor_wide:ts <- [DW_OP_LLVM_fragment 512 128] $xmm5
	#DEBUG_VALUE: encrypt_xor_wide:ts <- [DW_OP_LLVM_fragment 512 128] $xmm5
	#DEBUG_VALUE: encrypt_xor_wide:j <- 5
	vpxor	%xmm6, %xmm8, %xmm6
.Ltmp379:
	#DEBUG_VALUE: encrypt_xor_wide:ts <- [DW_OP_LLVM_fragment 640 128] $xmm6
	#DEBUG_VALUE: encrypt_xor_wide:ts <- [DW_OP_LLVM_fragment 640 128] $xmm6
	#DEBUG_VALUE: encrypt_xor_wide:j <- 6
	#DEBUG_VALUE: encrypt_xor_wide:ts <- [DW_OP_LLVM_fragment 768 128] undef
	#DEBUG_VALUE: encrypt_xor_wide:j <- 0
	.loc	2 179 21                        # crypto_aead/aes256gcm/aesni/aead_aes256gcm_aesni.c:179:21 @[ crypto_aead/aes256gcm/aesni/aead_aes256gcm_aesni.c:445:13 @[ crypto_aead/aes256gcm/aesni/aead_aes256gcm_aesni.c:770:5 ] ]
	vaesenc	%xmm9, %xmm1, %xmm1
.Ltmp380:
	#DEBUG_VALUE: encrypt_xor_wide:ts <- [DW_OP_LLVM_fragment 0 128] $xmm1
	#DEBUG_VALUE: encrypt_xor_wide:j <- 1
	vaesenc	%xmm9, %xmm2, %xmm2
.Ltmp381:
	#DEBUG_VALUE: encrypt_xor_wide:ts <- [DW_OP_LLVM_fragment 128 128] $xmm2
	#DEBUG_VALUE: encrypt_xor_wide:j <- 2
	vaesenc	%xmm9, %xmm3, %xmm3
.Ltmp382:
	#DEBUG_VALUE: encrypt_xor_wide:ts <- [DW_OP_LLVM_fragment 256 128] $xmm3
	#DEBUG_VALUE: encrypt_xor_wide:j <- 3
	vaesenc	%xmm9, %xmm4, %xmm4
.Ltmp383:
	#DEBUG_VALUE: encrypt_xor_wide:ts <- [DW_OP_LLVM_fragment 384 128] $xmm4
	#DEBUG_VALUE: encrypt_xor_wide:j <- 4
	vaesenc	%xmm9, %xmm5, %xmm5
.Ltmp384:
	#DEBUG_VALUE: encrypt_xor_wide:ts <- [DW_OP_LLVM_fragment 512 128] $xmm5
	#DEBUG_VALUE: encrypt_xor_wide:j <- 5
	vaesenc	%xmm9, %xmm6, %xmm6
.Ltmp385:
	#DEBUG_VALUE: encrypt_xor_wide:ts <- [DW_OP_LLVM_fragment 640 128] $xmm6
	#DEBUG_VALUE: encrypt_xor_wide:j <- 6
	.loc	2 175 17                        # crypto_aead/aes256gcm/aesni/aead_aes256gcm_aesni.c:175:17 @[ crypto_aead/aes256gcm/aesni/aead_aes256gcm_aesni.c:445:13 @[ crypto_aead/aes256gcm/aesni/aead_aes256gcm_aesni.c:770:5 ] ]
	vpxor	%xmm7, %xmm8, %xmm7
.Ltmp386:
	#DEBUG_VALUE: encrypt_xor_wide:ts <- [DW_OP_LLVM_fragment 768 128] $xmm7
	.loc	2 179 21                        # crypto_aead/aes256gcm/aesni/aead_aes256gcm_aesni.c:179:21 @[ crypto_aead/aes256gcm/aesni/aead_aes256gcm_aesni.c:445:13 @[ crypto_aead/aes256gcm/aesni/aead_aes256gcm_aesni.c:770:5 ] ]
	vaesenc	%xmm9, %xmm7, %xmm7
.Ltmp387:
	#DEBUG_VALUE: encrypt_xor_wide:ts <- [DW_OP_LLVM_fragment 768 128] $xmm7
	#DEBUG_VALUE: encrypt_xor_wide:j <- 0
	.loc	2 0 21 is_stmt 0                # crypto_aead/aes256gcm/aesni/aead_aes256gcm_aesni.c:0:21
	vmovdqa	32(%r15), %xmm8
.Ltmp388:
	#DEBUG_VALUE: encrypt_xor_wide:j <- 7
	#DEBUG_VALUE: encrypt_xor_wide:i <- 3
	.loc	2 179 21                        # crypto_aead/aes256gcm/aesni/aead_aes256gcm_aesni.c:179:21 @[ crypto_aead/aes256gcm/aesni/aead_aes256gcm_aesni.c:445:13 @[ crypto_aead/aes256gcm/aesni/aead_aes256gcm_aesni.c:770:5 ] ]
	vaesenc	%xmm8, %xmm1, %xmm1
.Ltmp389:
	#DEBUG_VALUE: encrypt_xor_wide:ts <- [DW_OP_LLVM_fragment 0 128] $xmm1
	#DEBUG_VALUE: encrypt_xor_wide:j <- 1
	vaesenc	%xmm8, %xmm2, %xmm2
.Ltmp390:
	#DEBUG_VALUE: encrypt_xor_wide:ts <- [DW_OP_LLVM_fragment 128 128] $xmm2
	#DEBUG_VALUE: encrypt_xor_wide:j <- 2
	vaesenc	%xmm8, %xmm3, %xmm3
.Ltmp391:
	#DEBUG_VALUE: encrypt_xor_wide:ts <- [DW_OP_LLVM_fragment 256 128] $xmm3
	#DEBUG_VALUE: encrypt_xor_wide:j <- 3
	vaesenc	%xmm8, %xmm4, %xmm4
.Ltmp392:
	#DEBUG_VALUE: encrypt_xor_wide:ts <- [DW_OP_LLVM_fragment 384 128] $xmm4
	#DEBUG_VALUE: encrypt_xor_wide:j <- 4
	vaesenc	%xmm8, %xmm5, %xmm5
.Ltmp393:
	#DEBUG_VALUE: encrypt_xor_wide:ts <- [DW_OP_LLVM_fragment 512 128] $xmm5
	#DEBUG_VALUE: encrypt_xor_wide:j <- 5
	vaesenc	%xmm8, %xmm6, %xmm6
.Ltmp394:
	#DEBUG_VALUE: encrypt_xor_wide:ts <- [DW_OP_LLVM_fragment 640 128] $xmm6
	#DEBUG_VALUE: encrypt_xor_wide:j <- 6
	vaesenc	%xmm8, %xmm7, %xmm7
.Ltmp395:
	#DEBUG_VALUE: encrypt_xor_wide:ts <- [DW_OP_LLVM_fragment 768 128] $xmm7
	#DEBUG_VALUE: encrypt_xor_wide:j <- 0
	.loc	2 0 21                          # crypto_aead/aes256gcm/aesni/aead_aes256gcm_aesni.c:0:21
	vmovdqa	48(%r15), %xmm8
	.loc	2 179 21                        # crypto_aead/aes256gcm/aesni/aead_aes256gcm_aesni.c:179:21 @[ crypto_aead/aes256gcm/aesni/aead_aes256gcm_aesni.c:445:13 @[ crypto_aead/aes256gcm/aesni/aead_aes256gcm_aesni.c:770:5 ] ]
	vaesenc	%xmm8, %xmm1, %xmm1
.Ltmp396:
	#DEBUG_VALUE: encrypt_xor_wide:ts <- [DW_OP_LLVM_fragment 0 128] $xmm1
	#DEBUG_VALUE: encrypt_xor_wide:j <- 1
	vaesenc	%xmm8, %xmm2, %xmm2
.Ltmp397:
	#DEBUG_VALUE: encrypt_xor_wide:ts <- [DW_OP_LLVM_fragment 128 128] $xmm2
	#DEBUG_VALUE: encrypt_xor_wide:j <- 2
	vaesenc	%xmm8, %xmm3, %xmm3
.Ltmp398:
	#DEBUG_VALUE: encrypt_xor_wide:ts <- [DW_OP_LLVM_fragment 256 128] $xmm3
	#DEBUG_VALUE: encrypt_xor_wide:j <- 3
	vaesenc	%xmm8, %xmm4, %xmm4
.Ltmp399:
	#DEBUG_VALUE: encrypt_xor_wide:ts <- [DW_OP_LLVM_fragment 384 128] $xmm4
	#DEBUG_VALUE: encrypt_xor_wide:j <- 4
	vaesenc	%xmm8, %xmm5, %xmm5
.Ltmp400:
	#DEBUG_VALUE: encrypt_xor_wide:ts <- [DW_OP_LLVM_fragment 512 128] $xmm5
	#DEBUG_VALUE: encrypt_xor_wide:j <- 5
	vaesenc	%xmm8, %xmm6, %xmm6
.Ltmp401:
	#DEBUG_VALUE: encrypt_xor_wide:ts <- [DW_OP_LLVM_fragment 640 128] $xmm6
	#DEBUG_VALUE: encrypt_xor_wide:j <- 6
	vaesenc	%xmm8, %xmm7, %xmm7
.Ltmp402:
	#DEBUG_VALUE: encrypt_xor_wide:ts <- [DW_OP_LLVM_fragment 768 128] $xmm7
	#DEBUG_VALUE: encrypt_xor_wide:j <- 7
	#DEBUG_VALUE: encrypt_xor_wide:i <- 4
	#DEBUG_VALUE: encrypt_xor_wide:ts <- [DW_OP_LLVM_fragment 0 128] $xmm1
	#DEBUG_VALUE: encrypt_xor_wide:ts <- [DW_OP_LLVM_fragment 128 128] $xmm2
	#DEBUG_VALUE: encrypt_xor_wide:ts <- [DW_OP_LLVM_fragment 256 128] $xmm3
	#DEBUG_VALUE: encrypt_xor_wide:ts <- [DW_OP_LLVM_fragment 384 128] $xmm4
	#DEBUG_VALUE: encrypt_xor_wide:ts <- [DW_OP_LLVM_fragment 512 128] $xmm5
	#DEBUG_VALUE: encrypt_xor_wide:ts <- [DW_OP_LLVM_fragment 640 128] $xmm6
	.loc	2 0 21                          # crypto_aead/aes256gcm/aesni/aead_aes256gcm_aesni.c:0:21
	vmovdqa	64(%r15), %xmm8
.Ltmp403:
	#DEBUG_VALUE: encrypt_xor_wide:j <- 0
	.loc	2 179 21                        # crypto_aead/aes256gcm/aesni/aead_aes256gcm_aesni.c:179:21 @[ crypto_aead/aes256gcm/aesni/aead_aes256gcm_aesni.c:445:13 @[ crypto_aead/aes256gcm/aesni/aead_aes256gcm_aesni.c:770:5 ] ]
	vaesenc	%xmm8, %xmm1, %xmm1
.Ltmp404:
	#DEBUG_VALUE: encrypt_xor_wide:ts <- [DW_OP_LLVM_fragment 0 128] $xmm1
	#DEBUG_VALUE: encrypt_xor_wide:j <- 1
	vaesenc	%xmm8, %xmm2, %xmm2
.Ltmp405:
	#DEBUG_VALUE: encrypt_xor_wide:ts <- [DW_OP_LLVM_fragment 128 128] $xmm2
	#DEBUG_VALUE: encrypt_xor_wide:j <- 2
	vaesenc	%xmm8, %xmm3, %xmm3
.Ltmp406:
	#DEBUG_VALUE: encrypt_xor_wide:ts <- [DW_OP_LLVM_fragment 256 128] $xmm3
	#DEBUG_VALUE: encrypt_xor_wide:j <- 3
	vaesenc	%xmm8, %xmm4, %xmm4
.Ltmp407:
	#DEBUG_VALUE: encrypt_xor_wide:ts <- [DW_OP_LLVM_fragment 384 128] $xmm4
	#DEBUG_VALUE: encrypt_xor_wide:j <- 4
	vaesenc	%xmm8, %xmm5, %xmm5
.Ltmp408:
	#DEBUG_VALUE: encrypt_xor_wide:ts <- [DW_OP_LLVM_fragment 512 128] $xmm5
	#DEBUG_VALUE: encrypt_xor_wide:j <- 5
	vaesenc	%xmm8, %xmm6, %xmm6
.Ltmp409:
	#DEBUG_VALUE: encrypt_xor_wide:ts <- [DW_OP_LLVM_fragment 640 128] $xmm6
	#DEBUG_VALUE: encrypt_xor_wide:j <- 6
	vaesenc	%xmm8, %xmm7, %xmm7
.Ltmp410:
	#DEBUG_VALUE: encrypt_xor_wide:ts <- [DW_OP_LLVM_fragment 768 128] $xmm7
	#DEBUG_VALUE: encrypt_xor_wide:j <- 7
	#DEBUG_VALUE: encrypt_xor_wide:i <- 5
	#DEBUG_VALUE: encrypt_xor_wide:ts <- [DW_OP_LLVM_fragment 0 128] $xmm1
	#DEBUG_VALUE: encrypt_xor_wide:ts <- [DW_OP_LLVM_fragment 128 128] $xmm2
	#DEBUG_VALUE: encrypt_xor_wide:ts <- [DW_OP_LLVM_fragment 256 128] $xmm3
	#DEBUG_VALUE: encrypt_xor_wide:ts <- [DW_OP_LLVM_fragment 384 128] $xmm4
	#DEBUG_VALUE: encrypt_xor_wide:ts <- [DW_OP_LLVM_fragment 512 128] $xmm5
	#DEBUG_VALUE: encrypt_xor_wide:ts <- [DW_OP_LLVM_fragment 640 128] $xmm6
	.loc	2 0 21                          # crypto_aead/aes256gcm/aesni/aead_aes256gcm_aesni.c:0:21
	vmovdqa	80(%r15), %xmm8
.Ltmp411:
	#DEBUG_VALUE: encrypt_xor_wide:j <- 0
	.loc	2 179 21                        # crypto_aead/aes256gcm/aesni/aead_aes256gcm_aesni.c:179:21 @[ crypto_aead/aes256gcm/aesni/aead_aes256gcm_aesni.c:445:13 @[ crypto_aead/aes256gcm/aesni/aead_aes256gcm_aesni.c:770:5 ] ]
	vaesenc	%xmm8, %xmm1, %xmm1
.Ltmp412:
	#DEBUG_VALUE: encrypt_xor_wide:ts <- [DW_OP_LLVM_fragment 0 128] $xmm1
	#DEBUG_VALUE: encrypt_xor_wide:j <- 1
	vaesenc	%xmm8, %xmm2, %xmm2
.Ltmp413:
	#DEBUG_VALUE: encrypt_xor_wide:ts <- [DW_OP_LLVM_fragment 128 128] $xmm2
	#DEBUG_VALUE: encrypt_xor_wide:j <- 2
	vaesenc	%xmm8, %xmm3, %xmm3
.Ltmp414:
	#DEBUG_VALUE: encrypt_xor_wide:ts <- [DW_OP_LLVM_fragment 256 128] $xmm3
	#DEBUG_VALUE: encrypt_xor_wide:j <- 3
	vaesenc	%xmm8, %xmm4, %xmm4
.Ltmp415:
	#DEBUG_VALUE: encrypt_xor_wide:ts <- [DW_OP_LLVM_fragment 384 128] $xmm4
	#DEBUG_VALUE: encrypt_xor_wide:j <- 4
	vaesenc	%xmm8, %xmm5, %xmm5
.Ltmp416:
	#DEBUG_VALUE: encrypt_xor_wide:ts <- [DW_OP_LLVM_fragment 512 128] $xmm5
	#DEBUG_VALUE: encrypt_xor_wide:j <- 5
	vaesenc	%xmm8, %xmm6, %xmm6
.Ltmp417:
	#DEBUG_VALUE: encrypt_xor_wide:ts <- [DW_OP_LLVM_fragment 640 128] $xmm6
	#DEBUG_VALUE: encrypt_xor_wide:j <- 6
	vaesenc	%xmm8, %xmm7, %xmm7
.Ltmp418:
	#DEBUG_VALUE: encrypt_xor_wide:ts <- [DW_OP_LLVM_fragment 768 128] $xmm7
	#DEBUG_VALUE: encrypt_xor_wide:j <- 7
	#DEBUG_VALUE: encrypt_xor_wide:i <- 6
	#DEBUG_VALUE: encrypt_xor_wide:ts <- [DW_OP_LLVM_fragment 0 128] $xmm1
	#DEBUG_VALUE: encrypt_xor_wide:ts <- [DW_OP_LLVM_fragment 128 128] $xmm2
	#DEBUG_VALUE: encrypt_xor_wide:ts <- [DW_OP_LLVM_fragment 256 128] $xmm3
	#DEBUG_VALUE: encrypt_xor_wide:ts <- [DW_OP_LLVM_fragment 384 128] $xmm4
	#DEBUG_VALUE: encrypt_xor_wide:ts <- [DW_OP_LLVM_fragment 512 128] $xmm5
	#DEBUG_VALUE: encrypt_xor_wide:ts <- [DW_OP_LLVM_fragment 640 128] $xmm6
	.loc	2 0 21                          # crypto_aead/aes256gcm/aesni/aead_aes256gcm_aesni.c:0:21
	vmovdqa	96(%r15), %xmm8
.Ltmp419:
	#DEBUG_VALUE: encrypt_xor_wide:j <- 0
	.loc	2 179 21                        # crypto_aead/aes256gcm/aesni/aead_aes256gcm_aesni.c:179:21 @[ crypto_aead/aes256gcm/aesni/aead_aes256gcm_aesni.c:445:13 @[ crypto_aead/aes256gcm/aesni/aead_aes256gcm_aesni.c:770:5 ] ]
	vaesenc	%xmm8, %xmm1, %xmm1
.Ltmp420:
	#DEBUG_VALUE: encrypt_xor_wide:ts <- [DW_OP_LLVM_fragment 0 128] $xmm1
	#DEBUG_VALUE: encrypt_xor_wide:j <- 1
	vaesenc	%xmm8, %xmm2, %xmm2
.Ltmp421:
	#DEBUG_VALUE: encrypt_xor_wide:ts <- [DW_OP_LLVM_fragment 128 128] $xmm2
	#DEBUG_VALUE: encrypt_xor_wide:j <- 2
	vaesenc	%xmm8, %xmm3, %xmm3
.Ltmp422:
	#DEBUG_VALUE: encrypt_xor_wide:ts <- [DW_OP_LLVM_fragment 256 128] $xmm3
	#DEBUG_VALUE: encrypt_xor_wide:j <- 3
	vaesenc	%xmm8, %xmm4, %xmm4
.Ltmp423:
	#DEBUG_VALUE: encrypt_xor_wide:ts <- [DW_OP_LLVM_fragment 384 128] $xmm4
	#DEBUG_VALUE: encrypt_xor_wide:j <- 4
	vaesenc	%xmm8, %xmm5, %xmm5
.Ltmp424:
	#DEBUG_VALUE: encrypt_xor_wide:ts <- [DW_OP_LLVM_fragment 512 128] $xmm5
	#DEBUG_VALUE: encrypt_xor_wide:j <- 5
	vaesenc	%xmm8, %xmm6, %xmm6
.Ltmp425:
	#DEBUG_VALUE: encrypt_xor_wide:ts <- [DW_OP_LLVM_fragment 640 128] $xmm6
	#DEBUG_VALUE: encrypt_xor_wide:j <- 6
	vaesenc	%xmm8, %xmm7, %xmm7
.Ltmp426:
	#DEBUG_VALUE: encrypt_xor_wide:ts <- [DW_OP_LLVM_fragment 768 128] $xmm7
	#DEBUG_VALUE: encrypt_xor_wide:j <- 7
	#DEBUG_VALUE: encrypt_xor_wide:i <- 7
	#DEBUG_VALUE: encrypt_xor_wide:ts <- [DW_OP_LLVM_fragment 0 128] $xmm1
	#DEBUG_VALUE: encrypt_xor_wide:ts <- [DW_OP_LLVM_fragment 128 128] $xmm2
	#DEBUG_VALUE: encrypt_xor_wide:ts <- [DW_OP_LLVM_fragment 256 128] $xmm3
	#DEBUG_VALUE: encrypt_xor_wide:ts <- [DW_OP_LLVM_fragment 384 128] $xmm4
	#DEBUG_VALUE: encrypt_xor_wide:ts <- [DW_OP_LLVM_fragment 512 128] $xmm5
	#DEBUG_VALUE: encrypt_xor_wide:ts <- [DW_OP_LLVM_fragment 640 128] $xmm6
	.loc	2 0 21                          # crypto_aead/aes256gcm/aesni/aead_aes256gcm_aesni.c:0:21
	vmovdqa	112(%r15), %xmm8
.Ltmp427:
	#DEBUG_VALUE: encrypt_xor_wide:j <- 0
	.loc	2 179 21                        # crypto_aead/aes256gcm/aesni/aead_aes256gcm_aesni.c:179:21 @[ crypto_aead/aes256gcm/aesni/aead_aes256gcm_aesni.c:445:13 @[ crypto_aead/aes256gcm/aesni/aead_aes256gcm_aesni.c:770:5 ] ]
	vaesenc	%xmm8, %xmm1, %xmm1
.Ltmp428:
	#DEBUG_VALUE: encrypt_xor_wide:ts <- [DW_OP_LLVM_fragment 0 128] $xmm1
	#DEBUG_VALUE: encrypt_xor_wide:j <- 1
	vaesenc	%xmm8, %xmm2, %xmm2
.Ltmp429:
	#DEBUG_VALUE: encrypt_xor_wide:ts <- [DW_OP_LLVM_fragment 128 128] $xmm2
	#DEBUG_VALUE: encrypt_xor_wide:j <- 2
	vaesenc	%xmm8, %xmm3, %xmm3
.Ltmp430:
	#DEBUG_VALUE: encrypt_xor_wide:ts <- [DW_OP_LLVM_fragment 256 128] $xmm3
	#DEBUG_VALUE: encrypt_xor_wide:j <- 3
	vaesenc	%xmm8, %xmm4, %xmm4
.Ltmp431:
	#DEBUG_VALUE: encrypt_xor_wide:ts <- [DW_OP_LLVM_fragment 384 128] $xmm4
	#DEBUG_VALUE: encrypt_xor_wide:j <- 4
	vaesenc	%xmm8, %xmm5, %xmm5
.Ltmp432:
	#DEBUG_VALUE: encrypt_xor_wide:ts <- [DW_OP_LLVM_fragment 512 128] $xmm5
	#DEBUG_VALUE: encrypt_xor_wide:j <- 5
	vaesenc	%xmm8, %xmm6, %xmm6
.Ltmp433:
	#DEBUG_VALUE: encrypt_xor_wide:ts <- [DW_OP_LLVM_fragment 640 128] $xmm6
	#DEBUG_VALUE: encrypt_xor_wide:j <- 6
	vaesenc	%xmm8, %xmm7, %xmm7
.Ltmp434:
	#DEBUG_VALUE: encrypt_xor_wide:ts <- [DW_OP_LLVM_fragment 768 128] $xmm7
	#DEBUG_VALUE: encrypt_xor_wide:j <- 7
	#DEBUG_VALUE: encrypt_xor_wide:i <- 8
	#DEBUG_VALUE: encrypt_xor_wide:ts <- [DW_OP_LLVM_fragment 0 128] $xmm1
	#DEBUG_VALUE: encrypt_xor_wide:ts <- [DW_OP_LLVM_fragment 128 128] $xmm2
	#DEBUG_VALUE: encrypt_xor_wide:ts <- [DW_OP_LLVM_fragment 256 128] $xmm3
	#DEBUG_VALUE: encrypt_xor_wide:ts <- [DW_OP_LLVM_fragment 384 128] $xmm4
	#DEBUG_VALUE: encrypt_xor_wide:ts <- [DW_OP_LLVM_fragment 512 128] $xmm5
	#DEBUG_VALUE: encrypt_xor_wide:ts <- [DW_OP_LLVM_fragment 640 128] $xmm6
	.loc	2 0 21                          # crypto_aead/aes256gcm/aesni/aead_aes256gcm_aesni.c:0:21
	vmovdqa	128(%r15), %xmm8
.Ltmp435:
	#DEBUG_VALUE: encrypt_xor_wide:j <- 0
	.loc	2 179 21                        # crypto_aead/aes256gcm/aesni/aead_aes256gcm_aesni.c:179:21 @[ crypto_aead/aes256gcm/aesni/aead_aes256gcm_aesni.c:445:13 @[ crypto_aead/aes256gcm/aesni/aead_aes256gcm_aesni.c:770:5 ] ]
	vaesenc	%xmm8, %xmm1, %xmm1
.Ltmp436:
	#DEBUG_VALUE: encrypt_xor_wide:ts <- [DW_OP_LLVM_fragment 0 128] $xmm1
	#DEBUG_VALUE: encrypt_xor_wide:j <- 1
	vaesenc	%xmm8, %xmm2, %xmm2
.Ltmp437:
	#DEBUG_VALUE: encrypt_xor_wide:ts <- [DW_OP_LLVM_fragment 128 128] $xmm2
	#DEBUG_VALUE: encrypt_xor_wide:j <- 2
	vaesenc	%xmm8, %xmm3, %xmm3
.Ltmp438:
	#DEBUG_VALUE: encrypt_xor_wide:ts <- [DW_OP_LLVM_fragment 256 128] $xmm3
	#DEBUG_VALUE: encrypt_xor_wide:j <- 3
	vaesenc	%xmm8, %xmm4, %xmm4
.Ltmp439:
	#DEBUG_VALUE: encrypt_xor_wide:ts <- [DW_OP_LLVM_fragment 384 128] $xmm4
	#DEBUG_VALUE: encrypt_xor_wide:j <- 4
	vaesenc	%xmm8, %xmm5, %xmm5
.Ltmp440:
	#DEBUG_VALUE: encrypt_xor_wide:ts <- [DW_OP_LLVM_fragment 512 128] $xmm5
	#DEBUG_VALUE: encrypt_xor_wide:j <- 5
	vaesenc	%xmm8, %xmm6, %xmm6
.Ltmp441:
	#DEBUG_VALUE: encrypt_xor_wide:ts <- [DW_OP_LLVM_fragment 640 128] $xmm6
	#DEBUG_VALUE: encrypt_xor_wide:j <- 6
	vaesenc	%xmm8, %xmm7, %xmm7
.Ltmp442:
	#DEBUG_VALUE: encrypt_xor_wide:ts <- [DW_OP_LLVM_fragment 768 128] $xmm7
	#DEBUG_VALUE: encrypt_xor_wide:j <- 7
	#DEBUG_VALUE: encrypt_xor_wide:i <- 9
	#DEBUG_VALUE: encrypt_xor_wide:ts <- [DW_OP_LLVM_fragment 0 128] $xmm1
	#DEBUG_VALUE: encrypt_xor_wide:ts <- [DW_OP_LLVM_fragment 128 128] $xmm2
	#DEBUG_VALUE: encrypt_xor_wide:ts <- [DW_OP_LLVM_fragment 256 128] $xmm3
	#DEBUG_VALUE: encrypt_xor_wide:ts <- [DW_OP_LLVM_fragment 384 128] $xmm4
	#DEBUG_VALUE: encrypt_xor_wide:ts <- [DW_OP_LLVM_fragment 512 128] $xmm5
	#DEBUG_VALUE: encrypt_xor_wide:ts <- [DW_OP_LLVM_fragment 640 128] $xmm6
	.loc	2 0 21                          # crypto_aead/aes256gcm/aesni/aead_aes256gcm_aesni.c:0:21
	vmovdqa	144(%r15), %xmm8
.Ltmp443:
	#DEBUG_VALUE: encrypt_xor_wide:j <- 0
	.loc	2 179 21                        # crypto_aead/aes256gcm/aesni/aead_aes256gcm_aesni.c:179:21 @[ crypto_aead/aes256gcm/aesni/aead_aes256gcm_aesni.c:445:13 @[ crypto_aead/aes256gcm/aesni/aead_aes256gcm_aesni.c:770:5 ] ]
	vaesenc	%xmm8, %xmm1, %xmm1
.Ltmp444:
	#DEBUG_VALUE: encrypt_xor_wide:ts <- [DW_OP_LLVM_fragment 0 128] $xmm1
	#DEBUG_VALUE: encrypt_xor_wide:j <- 1
	vaesenc	%xmm8, %xmm2, %xmm2
.Ltmp445:
	#DEBUG_VALUE: encrypt_xor_wide:ts <- [DW_OP_LLVM_fragment 128 128] $xmm2
	#DEBUG_VALUE: encrypt_xor_wide:j <- 2
	vaesenc	%xmm8, %xmm3, %xmm3
.Ltmp446:
	#DEBUG_VALUE: encrypt_xor_wide:ts <- [DW_OP_LLVM_fragment 256 128] $xmm3
	#DEBUG_VALUE: encrypt_xor_wide:j <- 3
	vaesenc	%xmm8, %xmm4, %xmm4
.Ltmp447:
	#DEBUG_VALUE: encrypt_xor_wide:ts <- [DW_OP_LLVM_fragment 384 128] $xmm4
	#DEBUG_VALUE: encrypt_xor_wide:j <- 4
	vaesenc	%xmm8, %xmm5, %xmm5
.Ltmp448:
	#DEBUG_VALUE: encrypt_xor_wide:ts <- [DW_OP_LLVM_fragment 512 128] $xmm5
	#DEBUG_VALUE: encrypt_xor_wide:j <- 5
	vaesenc	%xmm8, %xmm6, %xmm6
.Ltmp449:
	#DEBUG_VALUE: encrypt_xor_wide:ts <- [DW_OP_LLVM_fragment 640 128] $xmm6
	#DEBUG_VALUE: encrypt_xor_wide:j <- 6
	vaesenc	%xmm8, %xmm7, %xmm7
.Ltmp450:
	#DEBUG_VALUE: encrypt_xor_wide:ts <- [DW_OP_LLVM_fragment 768 128] $xmm7
	#DEBUG_VALUE: encrypt_xor_wide:j <- 7
	#DEBUG_VALUE: encrypt_xor_wide:i <- 10
	#DEBUG_VALUE: encrypt_xor_wide:ts <- [DW_OP_LLVM_fragment 0 128] $xmm1
	#DEBUG_VALUE: encrypt_xor_wide:ts <- [DW_OP_LLVM_fragment 128 128] $xmm2
	#DEBUG_VALUE: encrypt_xor_wide:ts <- [DW_OP_LLVM_fragment 256 128] $xmm3
	#DEBUG_VALUE: encrypt_xor_wide:ts <- [DW_OP_LLVM_fragment 384 128] $xmm4
	#DEBUG_VALUE: encrypt_xor_wide:ts <- [DW_OP_LLVM_fragment 512 128] $xmm5
	#DEBUG_VALUE: encrypt_xor_wide:ts <- [DW_OP_LLVM_fragment 640 128] $xmm6
	.loc	2 0 21                          # crypto_aead/aes256gcm/aesni/aead_aes256gcm_aesni.c:0:21
	vmovdqa	160(%r15), %xmm8
.Ltmp451:
	#DEBUG_VALUE: encrypt_xor_wide:j <- 0
	.loc	2 179 21                        # crypto_aead/aes256gcm/aesni/aead_aes256gcm_aesni.c:179:21 @[ crypto_aead/aes256gcm/aesni/aead_aes256gcm_aesni.c:445:13 @[ crypto_aead/aes256gcm/aesni/aead_aes256gcm_aesni.c:770:5 ] ]
	vaesenc	%xmm8, %xmm1, %xmm1
.Ltmp452:
	#DEBUG_VALUE: encrypt_xor_wide:ts <- [DW_OP_LLVM_fragment 0 128] $xmm1
	#DEBUG_VALUE: encrypt_xor_wide:j <- 1
	vaesenc	%xmm8, %xmm2, %xmm2
.Ltmp453:
	#DEBUG_VALUE: encrypt_xor_wide:ts <- [DW_OP_LLVM_fragment 128 128] $xmm2
	#DEBUG_VALUE: encrypt_xor_wide:j <- 2
	vaesenc	%xmm8, %xmm3, %xmm3
.Ltmp454:
	#DEBUG_VALUE: encrypt_xor_wide:ts <- [DW_OP_LLVM_fragment 256 128] $xmm3
	#DEBUG_VALUE: encrypt_xor_wide:j <- 3
	vaesenc	%xmm8, %xmm4, %xmm4
.Ltmp455:
	#DEBUG_VALUE: encrypt_xor_wide:ts <- [DW_OP_LLVM_fragment 384 128] $xmm4
	#DEBUG_VALUE: encrypt_xor_wide:j <- 4
	vaesenc	%xmm8, %xmm5, %xmm5
.Ltmp456:
	#DEBUG_VALUE: encrypt_xor_wide:ts <- [DW_OP_LLVM_fragment 512 128] $xmm5
	#DEBUG_VALUE: encrypt_xor_wide:j <- 5
	vaesenc	%xmm8, %xmm6, %xmm6
.Ltmp457:
	#DEBUG_VALUE: encrypt_xor_wide:ts <- [DW_OP_LLVM_fragment 640 128] $xmm6
	#DEBUG_VALUE: encrypt_xor_wide:j <- 6
	vaesenc	%xmm8, %xmm7, %xmm7
.Ltmp458:
	#DEBUG_VALUE: encrypt_xor_wide:ts <- [DW_OP_LLVM_fragment 768 128] $xmm7
	#DEBUG_VALUE: encrypt_xor_wide:j <- 7
	#DEBUG_VALUE: encrypt_xor_wide:i <- 11
	#DEBUG_VALUE: encrypt_xor_wide:ts <- [DW_OP_LLVM_fragment 0 128] $xmm1
	#DEBUG_VALUE: encrypt_xor_wide:ts <- [DW_OP_LLVM_fragment 128 128] $xmm2
	#DEBUG_VALUE: encrypt_xor_wide:ts <- [DW_OP_LLVM_fragment 256 128] $xmm3
	#DEBUG_VALUE: encrypt_xor_wide:ts <- [DW_OP_LLVM_fragment 384 128] $xmm4
	#DEBUG_VALUE: encrypt_xor_wide:ts <- [DW_OP_LLVM_fragment 512 128] $xmm5
	#DEBUG_VALUE: encrypt_xor_wide:ts <- [DW_OP_LLVM_fragment 640 128] $xmm6
	.loc	2 0 21                          # crypto_aead/aes256gcm/aesni/aead_aes256gcm_aesni.c:0:21
	vmovdqa	176(%r15), %xmm8
.Ltmp459:
	#DEBUG_VALUE: encrypt_xor_wide:j <- 0
	.loc	2 179 21                        # crypto_aead/aes256gcm/aesni/aead_aes256gcm_aesni.c:179:21 @[ crypto_aead/aes256gcm/aesni/aead_aes256gcm_aesni.c:445:13 @[ crypto_aead/aes256gcm/aesni/aead_aes256gcm_aesni.c:770:5 ] ]
	vaesenc	%xmm8, %xmm1, %xmm1
.Ltmp460:
	#DEBUG_VALUE: encrypt_xor_wide:ts <- [DW_OP_LLVM_fragment 0 128] $xmm1
	#DEBUG_VALUE: encrypt_xor_wide:j <- 1
	vaesenc	%xmm8, %xmm2, %xmm2
.Ltmp461:
	#DEBUG_VALUE: encrypt_xor_wide:ts <- [DW_OP_LLVM_fragment 128 128] $xmm2
	#DEBUG_VALUE: encrypt_xor_wide:j <- 2
	vaesenc	%xmm8, %xmm3, %xmm3
.Ltmp462:
	#DEBUG_VALUE: encrypt_xor_wide:ts <- [DW_OP_LLVM_fragment 256 128] $xmm3
	#DEBUG_VALUE: encrypt_xor_wide:j <- 3
	vaesenc	%xmm8, %xmm4, %xmm4
.Ltmp463:
	#DEBUG_VALUE: encrypt_xor_wide:ts <- [DW_OP_LLVM_fragment 384 128] $xmm4
	#DEBUG_VALUE: encrypt_xor_wide:j <- 4
	vaesenc	%xmm8, %xmm5, %xmm5
.Ltmp464:
	#DEBUG_VALUE: encrypt_xor_wide:ts <- [DW_OP_LLVM_fragment 512 128] $xmm5
	#DEBUG_VALUE: encrypt_xor_wide:j <- 5
	vaesenc	%xmm8, %xmm6, %xmm6
.Ltmp465:
	#DEBUG_VALUE: encrypt_xor_wide:ts <- [DW_OP_LLVM_fragment 640 128] $xmm6
	#DEBUG_VALUE: encrypt_xor_wide:j <- 6
	vaesenc	%xmm8, %xmm7, %xmm7
.Ltmp466:
	#DEBUG_VALUE: encrypt_xor_wide:ts <- [DW_OP_LLVM_fragment 768 128] $xmm7
	#DEBUG_VALUE: encrypt_xor_wide:j <- 7
	#DEBUG_VALUE: encrypt_xor_wide:i <- 12
	#DEBUG_VALUE: encrypt_xor_wide:ts <- [DW_OP_LLVM_fragment 0 128] $xmm1
	#DEBUG_VALUE: encrypt_xor_wide:ts <- [DW_OP_LLVM_fragment 128 128] $xmm2
	#DEBUG_VALUE: encrypt_xor_wide:ts <- [DW_OP_LLVM_fragment 256 128] $xmm3
	#DEBUG_VALUE: encrypt_xor_wide:ts <- [DW_OP_LLVM_fragment 384 128] $xmm4
	#DEBUG_VALUE: encrypt_xor_wide:ts <- [DW_OP_LLVM_fragment 512 128] $xmm5
	#DEBUG_VALUE: encrypt_xor_wide:ts <- [DW_OP_LLVM_fragment 640 128] $xmm6
	.loc	2 0 21                          # crypto_aead/aes256gcm/aesni/aead_aes256gcm_aesni.c:0:21
	vmovdqa	192(%r15), %xmm8
.Ltmp467:
	#DEBUG_VALUE: encrypt_xor_wide:j <- 0
	.loc	2 179 21                        # crypto_aead/aes256gcm/aesni/aead_aes256gcm_aesni.c:179:21 @[ crypto_aead/aes256gcm/aesni/aead_aes256gcm_aesni.c:445:13 @[ crypto_aead/aes256gcm/aesni/aead_aes256gcm_aesni.c:770:5 ] ]
	vaesenc	%xmm8, %xmm1, %xmm1
.Ltmp468:
	#DEBUG_VALUE: encrypt_xor_wide:ts <- [DW_OP_LLVM_fragment 0 128] $xmm1
	#DEBUG_VALUE: encrypt_xor_wide:j <- 1
	vaesenc	%xmm8, %xmm2, %xmm2
.Ltmp469:
	#DEBUG_VALUE: encrypt_xor_wide:ts <- [DW_OP_LLVM_fragment 128 128] $xmm2
	#DEBUG_VALUE: encrypt_xor_wide:j <- 2
	vaesenc	%xmm8, %xmm3, %xmm3
.Ltmp470:
	#DEBUG_VALUE: encrypt_xor_wide:ts <- [DW_OP_LLVM_fragment 256 128] $xmm3
	#DEBUG_VALUE: encrypt_xor_wide:j <- 3
	vaesenc	%xmm8, %xmm4, %xmm4
.Ltmp471:
	#DEBUG_VALUE: encrypt_xor_wide:ts <- [DW_OP_LLVM_fragment 384 128] $xmm4
	#DEBUG_VALUE: encrypt_xor_wide:j <- 4
	vaesenc	%xmm8, %xmm5, %xmm5
.Ltmp472:
	#DEBUG_VALUE: encrypt_xor_wide:ts <- [DW_OP_LLVM_fragment 512 128] $xmm5
	#DEBUG_VALUE: encrypt_xor_wide:j <- 5
	vaesenc	%xmm8, %xmm6, %xmm6
.Ltmp473:
	#DEBUG_VALUE: encrypt_xor_wide:ts <- [DW_OP_LLVM_fragment 640 128] $xmm6
	#DEBUG_VALUE: encrypt_xor_wide:j <- 6
	vaesenc	%xmm8, %xmm7, %xmm7
.Ltmp474:
	#DEBUG_VALUE: encrypt_xor_wide:ts <- [DW_OP_LLVM_fragment 768 128] $xmm7
	#DEBUG_VALUE: encrypt_xor_wide:j <- 7
	#DEBUG_VALUE: encrypt_xor_wide:i <- 13
	#DEBUG_VALUE: encrypt_xor_wide:ts <- [DW_OP_LLVM_fragment 0 128] $xmm1
	#DEBUG_VALUE: encrypt_xor_wide:ts <- [DW_OP_LLVM_fragment 128 128] $xmm2
	#DEBUG_VALUE: encrypt_xor_wide:ts <- [DW_OP_LLVM_fragment 256 128] $xmm3
	#DEBUG_VALUE: encrypt_xor_wide:ts <- [DW_OP_LLVM_fragment 384 128] $xmm4
	#DEBUG_VALUE: encrypt_xor_wide:ts <- [DW_OP_LLVM_fragment 512 128] $xmm5
	#DEBUG_VALUE: encrypt_xor_wide:ts <- [DW_OP_LLVM_fragment 640 128] $xmm6
	.loc	2 0 21                          # crypto_aead/aes256gcm/aesni/aead_aes256gcm_aesni.c:0:21
	vmovdqa	208(%r15), %xmm8
.Ltmp475:
	#DEBUG_VALUE: encrypt_xor_wide:j <- 0
	.loc	2 179 21                        # crypto_aead/aes256gcm/aesni/aead_aes256gcm_aesni.c:179:21 @[ crypto_aead/aes256gcm/aesni/aead_aes256gcm_aesni.c:445:13 @[ crypto_aead/aes256gcm/aesni/aead_aes256gcm_aesni.c:770:5 ] ]
	vaesenc	%xmm8, %xmm1, %xmm1
.Ltmp476:
	#DEBUG_VALUE: encrypt_xor_wide:ts <- [DW_OP_LLVM_fragment 0 128] $xmm1
	#DEBUG_VALUE: encrypt_xor_wide:j <- 1
	vaesenc	%xmm8, %xmm2, %xmm2
.Ltmp477:
	#DEBUG_VALUE: encrypt_xor_wide:ts <- [DW_OP_LLVM_fragment 128 128] $xmm2
	#DEBUG_VALUE: encrypt_xor_wide:j <- 2
	vaesenc	%xmm8, %xmm3, %xmm3
.Ltmp478:
	#DEBUG_VALUE: encrypt_xor_wide:ts <- [DW_OP_LLVM_fragment 256 128] $xmm3
	#DEBUG_VALUE: encrypt_xor_wide:j <- 3
	vaesenc	%xmm8, %xmm4, %xmm4
.Ltmp479:
	#DEBUG_VALUE: encrypt_xor_wide:ts <- [DW_OP_LLVM_fragment 384 128] $xmm4
	#DEBUG_VALUE: encrypt_xor_wide:j <- 4
	vaesenc	%xmm8, %xmm5, %xmm5
.Ltmp480:
	#DEBUG_VALUE: encrypt_xor_wide:ts <- [DW_OP_LLVM_fragment 512 128] $xmm5
	#DEBUG_VALUE: encrypt_xor_wide:j <- 5
	vaesenc	%xmm8, %xmm6, %xmm6
.Ltmp481:
	#DEBUG_VALUE: encrypt_xor_wide:ts <- [DW_OP_LLVM_fragment 640 128] $xmm6
	#DEBUG_VALUE: encrypt_xor_wide:j <- 6
	vaesenc	%xmm8, %xmm7, %xmm7
.Ltmp482:
	#DEBUG_VALUE: encrypt_xor_wide:ts <- [DW_OP_LLVM_fragment 768 128] $xmm7
	#DEBUG_VALUE: encrypt_xor_wide:j <- 7
	#DEBUG_VALUE: encrypt_xor_wide:i <- 14
	.loc	2 0 21                          # crypto_aead/aes256gcm/aesni/aead_aes256gcm_aesni.c:0:21
	vmovdqa	224(%r15), %xmm8
.Ltmp483:
	#DEBUG_VALUE: encrypt_xor_wide:j <- 0
	.loc	2 373 27 is_stmt 1              # crypto_aead/aes256gcm/aesni/aead_aes256gcm_aesni.c:373:27 @[ crypto_aead/aes256gcm/aesni/aead_aes256gcm_aesni.c:444:23 @[ crypto_aead/aes256gcm/aesni/aead_aes256gcm_aesni.c:770:5 ] ]
	movq	%rbp, %rdx
.Ltmp484:
	#DEBUG_VALUE: aes_gcm_encrypt_generic:rev_counters <- [DW_OP_LLVM_fragment 0 128] undef
	#DEBUG_VALUE: aes_gcm_encrypt_generic:rev_counters <- [DW_OP_LLVM_fragment 128 128] undef
	#DEBUG_VALUE: aes_gcm_encrypt_generic:rev_counters <- [DW_OP_LLVM_fragment 256 128] undef
	#DEBUG_VALUE: aes_gcm_encrypt_generic:rev_counters <- [DW_OP_LLVM_fragment 384 128] undef
	#DEBUG_VALUE: aes_gcm_encrypt_generic:rev_counters <- [DW_OP_LLVM_fragment 512 128] undef
	#DEBUG_VALUE: aes_gcm_encrypt_generic:rev_counters <- [DW_OP_LLVM_fragment 640 128] undef
	#DEBUG_VALUE: aes_gcm_encrypt_generic:rev_counters <- [DW_OP_LLVM_fragment 768 128] undef
	.loc	2 183 17                        # crypto_aead/aes256gcm/aesni/aead_aes256gcm_aesni.c:183:17 @[ crypto_aead/aes256gcm/aesni/aead_aes256gcm_aesni.c:445:13 @[ crypto_aead/aes256gcm/aesni/aead_aes256gcm_aesni.c:770:5 ] ]
	vaesenclast	%xmm8, %xmm1, %xmm1
.Ltmp485:
	#DEBUG_VALUE: encrypt_xor_wide:ts <- [DW_OP_LLVM_fragment 0 128] $xmm1
	.loc	2 184 17                        # crypto_aead/aes256gcm/aesni/aead_aes256gcm_aesni.c:184:17 @[ crypto_aead/aes256gcm/aesni/aead_aes256gcm_aesni.c:445:13 @[ crypto_aead/aes256gcm/aesni/aead_aes256gcm_aesni.c:770:5 ] ]
	vpxor	-208(%rcx,%rbp), %xmm1, %xmm1
.Ltmp486:
	#DEBUG_VALUE: encrypt_xor_wide:ts <- [DW_OP_LLVM_fragment 0 128] $xmm1
	#DEBUG_VALUE: encrypt_xor_wide:j <- 1
	.loc	2 183 17                        # crypto_aead/aes256gcm/aesni/aead_aes256gcm_aesni.c:183:17 @[ crypto_aead/aes256gcm/aesni/aead_aes256gcm_aesni.c:445:13 @[ crypto_aead/aes256gcm/aesni/aead_aes256gcm_aesni.c:770:5 ] ]
	vaesenclast	%xmm8, %xmm2, %xmm2
.Ltmp487:
	#DEBUG_VALUE: encrypt_xor_wide:ts <- [DW_OP_LLVM_fragment 128 128] $xmm2
	.loc	2 184 17                        # crypto_aead/aes256gcm/aesni/aead_aes256gcm_aesni.c:184:17 @[ crypto_aead/aes256gcm/aesni/aead_aes256gcm_aesni.c:445:13 @[ crypto_aead/aes256gcm/aesni/aead_aes256gcm_aesni.c:770:5 ] ]
	vpxor	-192(%rcx,%rbp), %xmm2, %xmm2
.Ltmp488:
	#DEBUG_VALUE: encrypt_xor_wide:ts <- [DW_OP_LLVM_fragment 128 128] $xmm2
	#DEBUG_VALUE: encrypt_xor_wide:j <- 2
	.loc	2 183 17                        # crypto_aead/aes256gcm/aesni/aead_aes256gcm_aesni.c:183:17 @[ crypto_aead/aes256gcm/aesni/aead_aes256gcm_aesni.c:445:13 @[ crypto_aead/aes256gcm/aesni/aead_aes256gcm_aesni.c:770:5 ] ]
	vaesenclast	%xmm8, %xmm3, %xmm3
.Ltmp489:
	#DEBUG_VALUE: encrypt_xor_wide:ts <- [DW_OP_LLVM_fragment 256 128] $xmm3
	.loc	2 184 17                        # crypto_aead/aes256gcm/aesni/aead_aes256gcm_aesni.c:184:17 @[ crypto_aead/aes256gcm/aesni/aead_aes256gcm_aesni.c:445:13 @[ crypto_aead/aes256gcm/aesni/aead_aes256gcm_aesni.c:770:5 ] ]
	vpxor	-176(%rcx,%rbp), %xmm3, %xmm3
.Ltmp490:
	#DEBUG_VALUE: encrypt_xor_wide:ts <- [DW_OP_LLVM_fragment 256 128] $xmm3
	#DEBUG_VALUE: encrypt_xor_wide:j <- 3
	.loc	2 183 17                        # crypto_aead/aes256gcm/aesni/aead_aes256gcm_aesni.c:183:17 @[ crypto_aead/aes256gcm/aesni/aead_aes256gcm_aesni.c:445:13 @[ crypto_aead/aes256gcm/aesni/aead_aes256gcm_aesni.c:770:5 ] ]
	vaesenclast	%xmm8, %xmm4, %xmm4
.Ltmp491:
	#DEBUG_VALUE: encrypt_xor_wide:ts <- [DW_OP_LLVM_fragment 384 128] $xmm4
	.loc	2 184 17                        # crypto_aead/aes256gcm/aesni/aead_aes256gcm_aesni.c:184:17 @[ crypto_aead/aes256gcm/aesni/aead_aes256gcm_aesni.c:445:13 @[ crypto_aead/aes256gcm/aesni/aead_aes256gcm_aesni.c:770:5 ] ]
	vpxor	-160(%rcx,%rbp), %xmm4, %xmm4
.Ltmp492:
	#DEBUG_VALUE: encrypt_xor_wide:ts <- [DW_OP_LLVM_fragment 384 128] $xmm4
	#DEBUG_VALUE: encrypt_xor_wide:j <- 4
	.loc	2 183 17                        # crypto_aead/aes256gcm/aesni/aead_aes256gcm_aesni.c:183:17 @[ crypto_aead/aes256gcm/aesni/aead_aes256gcm_aesni.c:445:13 @[ crypto_aead/aes256gcm/aesni/aead_aes256gcm_aesni.c:770:5 ] ]
	vaesenclast	%xmm8, %xmm5, %xmm5
.Ltmp493:
	#DEBUG_VALUE: encrypt_xor_wide:ts <- [DW_OP_LLVM_fragment 512 128] $xmm5
	.loc	2 184 17                        # crypto_aead/aes256gcm/aesni/aead_aes256gcm_aesni.c:184:17 @[ crypto_aead/aes256gcm/aesni/aead_aes256gcm_aesni.c:445:13 @[ crypto_aead/aes256gcm/aesni/aead_aes256gcm_aesni.c:770:5 ] ]
	vpxor	-144(%rcx,%rbp), %xmm5, %xmm5
.Ltmp494:
	#DEBUG_VALUE: encrypt_xor_wide:ts <- [DW_OP_LLVM_fragment 512 128] $xmm5
	#DEBUG_VALUE: encrypt_xor_wide:j <- 5
	.loc	2 183 17                        # crypto_aead/aes256gcm/aesni/aead_aes256gcm_aesni.c:183:17 @[ crypto_aead/aes256gcm/aesni/aead_aes256gcm_aesni.c:445:13 @[ crypto_aead/aes256gcm/aesni/aead_aes256gcm_aesni.c:770:5 ] ]
	vaesenclast	%xmm8, %xmm6, %xmm6
.Ltmp495:
	#DEBUG_VALUE: encrypt_xor_wide:ts <- [DW_OP_LLVM_fragment 640 128] $xmm6
	.loc	2 184 17                        # crypto_aead/aes256gcm/aesni/aead_aes256gcm_aesni.c:184:17 @[ crypto_aead/aes256gcm/aesni/aead_aes256gcm_aesni.c:445:13 @[ crypto_aead/aes256gcm/aesni/aead_aes256gcm_aesni.c:770:5 ] ]
	vpxor	-128(%rcx,%rbp), %xmm6, %xmm6
.Ltmp496:
	#DEBUG_VALUE: encrypt_xor_wide:ts <- [DW_OP_LLVM_fragment 640 128] $xmm6
	#DEBUG_VALUE: encrypt_xor_wide:j <- 6
	.loc	2 183 17                        # crypto_aead/aes256gcm/aesni/aead_aes256gcm_aesni.c:183:17 @[ crypto_aead/aes256gcm/aesni/aead_aes256gcm_aesni.c:445:13 @[ crypto_aead/aes256gcm/aesni/aead_aes256gcm_aesni.c:770:5 ] ]
	vaesenclast	%xmm8, %xmm7, %xmm7
.Ltmp497:
	#DEBUG_VALUE: encrypt_xor_wide:ts <- [DW_OP_LLVM_fragment 768 128] $xmm7
	.loc	2 184 17                        # crypto_aead/aes256gcm/aesni/aead_aes256gcm_aesni.c:184:17 @[ crypto_aead/aes256gcm/aesni/aead_aes256gcm_aesni.c:445:13 @[ crypto_aead/aes256gcm/aesni/aead_aes256gcm_aesni.c:770:5 ] ]
	vpxor	-112(%rcx,%rbp), %xmm7, %xmm7
.Ltmp498:
	#DEBUG_VALUE: encrypt_xor_wide:ts <- [DW_OP_LLVM_fragment 768 128] $xmm7
	#DEBUG_VALUE: encrypt_xor_wide:j <- 7
	.loc	2 187 9                         # crypto_aead/aes256gcm/aesni/aead_aes256gcm_aesni.c:187:9 @[ crypto_aead/aes256gcm/aesni/aead_aes256gcm_aesni.c:445:13 @[ crypto_aead/aes256gcm/aesni/aead_aes256gcm_aesni.c:770:5 ] ]
	vmovdqu	%xmm1, -208(%rdi,%rbp)
	vmovdqu	%xmm2, -192(%rdi,%rbp)
	vmovdqu	%xmm3, -176(%rdi,%rbp)
	vmovdqu	%xmm4, -160(%rdi,%rbp)
	vmovdqu	%xmm5, -144(%rdi,%rbp)
	vmovdqu	%xmm6, -128(%rdi,%rbp)
	vmovdqu	%xmm7, -112(%rdi,%rbp)
.Ltmp499:
	#DEBUG_VALUE: encrypt_xor_wide:j <- undef
	.loc	2 447 14                        # crypto_aead/aes256gcm/aesni/aead_aes256gcm_aesni.c:447:14 @[ crypto_aead/aes256gcm/aesni/aead_aes256gcm_aesni.c:770:5 ]
	prefetcht1	-96(%rcx,%rbp)
	.loc	2 449 14                        # crypto_aead/aes256gcm/aesni/aead_aes256gcm_aesni.c:449:14 @[ crypto_aead/aes256gcm/aesni/aead_aes256gcm_aesni.c:770:5 ]
	prefetcht1	-32(%rcx,%rbp)
.Ltmp500:
	#DEBUG_VALUE: aes_gcm_encrypt_generic:pi <- undef
	#DEBUG_VALUE: gh_update0:hn <- undef
	#DEBUG_VALUE: gh_update0:sth <- $rsp
	#DEBUG_VALUE: gh_update0:p <- [DW_OP_LLVM_arg 0, DW_OP_consts 320, DW_OP_minus, DW_OP_consts 224, DW_OP_div, DW_OP_consts 224, DW_OP_mul, DW_OP_LLVM_arg 1, DW_OP_plus, DW_OP_stack_value] undef, undef
	#DEBUG_VALUE: gh_update:p <- [DW_OP_LLVM_arg 0, DW_OP_consts 320, DW_OP_minus, DW_OP_consts 224, DW_OP_div, DW_OP_consts 224, DW_OP_mul, DW_OP_consts 16, DW_OP_LLVM_arg 1, DW_OP_plus, DW_OP_plus, DW_OP_stack_value] undef, undef
	#DEBUG_VALUE: gh_update:p <- [DW_OP_LLVM_arg 0, DW_OP_consts 320, DW_OP_minus, DW_OP_consts 224, DW_OP_div, DW_OP_consts 224, DW_OP_mul, DW_OP_consts 32, DW_OP_LLVM_arg 1, DW_OP_plus, DW_OP_plus, DW_OP_stack_value] undef, undef
	#DEBUG_VALUE: gh_update:p <- [DW_OP_LLVM_arg 0, DW_OP_consts 320, DW_OP_minus, DW_OP_consts 224, DW_OP_div, DW_OP_consts 224, DW_OP_mul, DW_OP_consts 48, DW_OP_LLVM_arg 1, DW_OP_plus, DW_OP_plus, DW_OP_stack_value] undef, undef
	#DEBUG_VALUE: gh_update0:m <- undef
	#DEBUG_VALUE: clmul128:x <- undef
	#DEBUG_VALUE: clmul128:y <- undef
	#DEBUG_VALUE: clmul128:r_hi <- undef
	#DEBUG_VALUE: clmul128:r_lo <- undef
	#DEBUG_VALUE: clmul128:r_mid <- undef
	#DEBUG_VALUE: gcm_reduce:x <- [DW_OP_LLVM_fragment 256 128] undef
	#DEBUG_VALUE: gcm_reduce:x <- [DW_OP_LLVM_fragment 256 128] undef
	#DEBUG_VALUE: gcm_reduce:x <- [DW_OP_LLVM_fragment 256 128] undef
	#DEBUG_VALUE: gcm_reduce:x <- [DW_OP_LLVM_fragment 256 128] undef
	#DEBUG_VALUE: gcm_reduce:x <- [DW_OP_LLVM_fragment 256 128] undef
	#DEBUG_VALUE: gcm_reduce:x <- [DW_OP_LLVM_fragment 256 128] undef
	#DEBUG_VALUE: aes_gcm_encrypt_generic:u <- [DW_OP_LLVM_fragment 256 128] undef
	#DEBUG_VALUE: gcm_reduce:x <- [DW_OP_LLVM_fragment 256 128] undef
	#DEBUG_VALUE: gcm_reduce:x <- [DW_OP_LLVM_fragment 0 128] undef
	#DEBUG_VALUE: gcm_reduce:x <- [DW_OP_LLVM_fragment 0 128] undef
	#DEBUG_VALUE: gcm_reduce:x <- [DW_OP_LLVM_fragment 0 128] undef
	#DEBUG_VALUE: gcm_reduce:x <- [DW_OP_LLVM_fragment 0 128] undef
	#DEBUG_VALUE: gcm_reduce:x <- [DW_OP_LLVM_fragment 0 128] undef
	#DEBUG_VALUE: gcm_reduce:x <- [DW_OP_LLVM_fragment 0 128] undef
	#DEBUG_VALUE: gcm_reduce:x <- [DW_OP_LLVM_fragment 128 128] undef
	#DEBUG_VALUE: gcm_reduce:x <- [DW_OP_LLVM_fragment 128 128] undef
	#DEBUG_VALUE: gcm_reduce:x <- [DW_OP_LLVM_fragment 128 128] undef
	#DEBUG_VALUE: gcm_reduce:x <- [DW_OP_LLVM_fragment 128 128] undef
	#DEBUG_VALUE: gcm_reduce:x <- [DW_OP_LLVM_fragment 128 128] undef
	#DEBUG_VALUE: gcm_reduce:x <- [DW_OP_LLVM_fragment 128 128] undef
	#DEBUG_VALUE: aes_gcm_encrypt_generic:u <- [DW_OP_LLVM_fragment 0 128] undef
	#DEBUG_VALUE: aes_gcm_encrypt_generic:u <- [DW_OP_LLVM_fragment 128 128] undef
	#DEBUG_VALUE: aes_gcm_encrypt_generic:j <- 1
	#DEBUG_VALUE: gcm_reduce:x <- [DW_OP_LLVM_fragment 128 128] undef
	#DEBUG_VALUE: gcm_reduce:x <- [DW_OP_LLVM_fragment 0 128] undef
	#DEBUG_VALUE: gh_update:hn <- undef
	#DEBUG_VALUE: clmul128:y <- undef
	#DEBUG_VALUE: clmul128:r_mid <- undef
	#DEBUG_VALUE: gh_update:t <- [DW_OP_LLVM_fragment 256 128] undef
	#DEBUG_VALUE: gcm_reduce:x <- [DW_OP_LLVM_fragment 0 128] undef
	#DEBUG_VALUE: gcm_reduce:x <- [DW_OP_LLVM_fragment 0 128] undef
	#DEBUG_VALUE: gcm_reduce:x <- [DW_OP_LLVM_fragment 0 128] undef
	#DEBUG_VALUE: gcm_reduce:x <- [DW_OP_LLVM_fragment 0 128] undef
	#DEBUG_VALUE: gcm_reduce:x <- [DW_OP_LLVM_fragment 0 128] undef
	#DEBUG_VALUE: gcm_reduce:x <- [DW_OP_LLVM_fragment 0 128] undef
	#DEBUG_VALUE: aes_gcm_encrypt_generic:u <- [DW_OP_LLVM_fragment 0 128] undef
	#DEBUG_VALUE: aes_gcm_encrypt_generic:j <- 2
	#DEBUG_VALUE: gcm_reduce:x <- [DW_OP_LLVM_fragment 0 128] undef
	#DEBUG_VALUE: gh_update:hn <- undef
	#DEBUG_VALUE: clmul128:y <- undef
	#DEBUG_VALUE: aes_gcm_encrypt_generic:j <- 3
	#DEBUG_VALUE: gh_update:hn <- undef
	#DEBUG_VALUE: clmul128:y <- undef
	#DEBUG_VALUE: aes_gcm_encrypt_generic:j <- 4
	#DEBUG_VALUE: gh_update:hn <- undef
	#DEBUG_VALUE: gh_update:p <- [DW_OP_LLVM_arg 0, DW_OP_consts 320, DW_OP_minus, DW_OP_consts 224, DW_OP_div, DW_OP_consts 224, DW_OP_mul, DW_OP_consts 64, DW_OP_LLVM_arg 1, DW_OP_plus, DW_OP_plus, DW_OP_stack_value] undef, undef
	#DEBUG_VALUE: clmul128:y <- undef
	#DEBUG_VALUE: aes_gcm_encrypt_generic:j <- 5
	#DEBUG_VALUE: gh_update:hn <- undef
	#DEBUG_VALUE: gh_update:p <- [DW_OP_LLVM_arg 0, DW_OP_consts 320, DW_OP_minus, DW_OP_consts 224, DW_OP_div, DW_OP_consts 224, DW_OP_mul, DW_OP_consts 80, DW_OP_LLVM_arg 1, DW_OP_plus, DW_OP_plus, DW_OP_stack_value] undef, undef
	#DEBUG_VALUE: clmul128:y <- undef
	#DEBUG_VALUE: aes_gcm_encrypt_generic:j <- 6
	#DEBUG_VALUE: gh_update:hn <- undef
	#DEBUG_VALUE: gh_update:p <- [DW_OP_LLVM_arg 0, DW_OP_consts 320, DW_OP_minus, DW_OP_consts 224, DW_OP_div, DW_OP_consts 224, DW_OP_mul, DW_OP_consts 96, DW_OP_LLVM_arg 1, DW_OP_plus, DW_OP_plus, DW_OP_stack_value] undef, undef
	#DEBUG_VALUE: clmul128:y <- undef
	#DEBUG_VALUE: aes_gcm_encrypt_generic:j <- 7
	.loc	2 374 19                        # crypto_aead/aes256gcm/aesni/aead_aes256gcm_aesni.c:374:19 @[ crypto_aead/aes256gcm/aesni/aead_aes256gcm_aesni.c:444:23 @[ crypto_aead/aes256gcm/aesni/aead_aes256gcm_aesni.c:770:5 ] ]
	vpaddq	.LCPI1_8(%rip), %xmm14, %xmm1
.Ltmp501:
	#DEBUG_VALUE: aes_gcm_encrypt_generic:counter <- undef
	#DEBUG_VALUE: incr_counters:counter <- undef
	#DEBUG_VALUE: incr_counters:counter <- undef
	#DEBUG_VALUE: incr_counters:i <- 0
	.loc	2 373 27                        # crypto_aead/aes256gcm/aesni/aead_aes256gcm_aesni.c:373:27 @[ crypto_aead/aes256gcm/aesni/aead_aes256gcm_aesni.c:458:23 @[ crypto_aead/aes256gcm/aesni/aead_aes256gcm_aesni.c:770:5 ] ]
	vpshufb	%xmm13, %xmm1, %xmm1
.Ltmp502:
	#DEBUG_VALUE: aes_gcm_encrypt_generic:rev_counters <- [DW_OP_LLVM_fragment 0 128] $xmm1
	.loc	2 374 19                        # crypto_aead/aes256gcm/aesni/aead_aes256gcm_aesni.c:374:19 @[ crypto_aead/aes256gcm/aesni/aead_aes256gcm_aesni.c:458:23 @[ crypto_aead/aes256gcm/aesni/aead_aes256gcm_aesni.c:770:5 ] ]
	vpaddq	.LCPI1_9(%rip), %xmm14, %xmm2
.Ltmp503:
	#DEBUG_VALUE: incr_counters:counter <- undef
	#DEBUG_VALUE: incr_counters:i <- 1
	.loc	2 373 27                        # crypto_aead/aes256gcm/aesni/aead_aes256gcm_aesni.c:373:27 @[ crypto_aead/aes256gcm/aesni/aead_aes256gcm_aesni.c:458:23 @[ crypto_aead/aes256gcm/aesni/aead_aes256gcm_aesni.c:770:5 ] ]
	vpshufb	%xmm13, %xmm2, %xmm2
.Ltmp504:
	#DEBUG_VALUE: aes_gcm_encrypt_generic:rev_counters <- [DW_OP_LLVM_fragment 128 128] $xmm2
	.loc	2 374 19                        # crypto_aead/aes256gcm/aesni/aead_aes256gcm_aesni.c:374:19 @[ crypto_aead/aes256gcm/aesni/aead_aes256gcm_aesni.c:458:23 @[ crypto_aead/aes256gcm/aesni/aead_aes256gcm_aesni.c:770:5 ] ]
	vpaddq	.LCPI1_10(%rip), %xmm14, %xmm3
.Ltmp505:
	#DEBUG_VALUE: incr_counters:counter <- undef
	#DEBUG_VALUE: incr_counters:i <- 2
	.loc	2 373 27                        # crypto_aead/aes256gcm/aesni/aead_aes256gcm_aesni.c:373:27 @[ crypto_aead/aes256gcm/aesni/aead_aes256gcm_aesni.c:458:23 @[ crypto_aead/aes256gcm/aesni/aead_aes256gcm_aesni.c:770:5 ] ]
	vpshufb	%xmm13, %xmm3, %xmm3
.Ltmp506:
	#DEBUG_VALUE: aes_gcm_encrypt_generic:rev_counters <- [DW_OP_LLVM_fragment 256 128] $xmm3
	.loc	2 374 19                        # crypto_aead/aes256gcm/aesni/aead_aes256gcm_aesni.c:374:19 @[ crypto_aead/aes256gcm/aesni/aead_aes256gcm_aesni.c:458:23 @[ crypto_aead/aes256gcm/aesni/aead_aes256gcm_aesni.c:770:5 ] ]
	vpaddq	.LCPI1_11(%rip), %xmm14, %xmm4
.Ltmp507:
	#DEBUG_VALUE: incr_counters:counter <- undef
	#DEBUG_VALUE: incr_counters:i <- 3
	.loc	2 373 27                        # crypto_aead/aes256gcm/aesni/aead_aes256gcm_aesni.c:373:27 @[ crypto_aead/aes256gcm/aesni/aead_aes256gcm_aesni.c:458:23 @[ crypto_aead/aes256gcm/aesni/aead_aes256gcm_aesni.c:770:5 ] ]
	vpshufb	%xmm13, %xmm4, %xmm4
.Ltmp508:
	#DEBUG_VALUE: aes_gcm_encrypt_generic:rev_counters <- [DW_OP_LLVM_fragment 384 128] $xmm4
	.loc	2 374 19                        # crypto_aead/aes256gcm/aesni/aead_aes256gcm_aesni.c:374:19 @[ crypto_aead/aes256gcm/aesni/aead_aes256gcm_aesni.c:458:23 @[ crypto_aead/aes256gcm/aesni/aead_aes256gcm_aesni.c:770:5 ] ]
	vpaddq	.LCPI1_12(%rip), %xmm14, %xmm5
.Ltmp509:
	#DEBUG_VALUE: incr_counters:counter <- undef
	#DEBUG_VALUE: incr_counters:i <- 4
	.loc	2 373 27                        # crypto_aead/aes256gcm/aesni/aead_aes256gcm_aesni.c:373:27 @[ crypto_aead/aes256gcm/aesni/aead_aes256gcm_aesni.c:458:23 @[ crypto_aead/aes256gcm/aesni/aead_aes256gcm_aesni.c:770:5 ] ]
	vpshufb	%xmm13, %xmm5, %xmm5
.Ltmp510:
	#DEBUG_VALUE: aes_gcm_encrypt_generic:rev_counters <- [DW_OP_LLVM_fragment 512 128] $xmm5
	.loc	2 374 19                        # crypto_aead/aes256gcm/aesni/aead_aes256gcm_aesni.c:374:19 @[ crypto_aead/aes256gcm/aesni/aead_aes256gcm_aesni.c:458:23 @[ crypto_aead/aes256gcm/aesni/aead_aes256gcm_aesni.c:770:5 ] ]
	vpaddq	.LCPI1_13(%rip), %xmm14, %xmm6
.Ltmp511:
	#DEBUG_VALUE: incr_counters:counter <- undef
	#DEBUG_VALUE: incr_counters:i <- 5
	.loc	2 373 27                        # crypto_aead/aes256gcm/aesni/aead_aes256gcm_aesni.c:373:27 @[ crypto_aead/aes256gcm/aesni/aead_aes256gcm_aesni.c:458:23 @[ crypto_aead/aes256gcm/aesni/aead_aes256gcm_aesni.c:770:5 ] ]
	vpshufb	%xmm13, %xmm6, %xmm6
.Ltmp512:
	#DEBUG_VALUE: aes_gcm_encrypt_generic:rev_counters <- [DW_OP_LLVM_fragment 640 128] $xmm6
	.loc	2 374 19                        # crypto_aead/aes256gcm/aesni/aead_aes256gcm_aesni.c:374:19 @[ crypto_aead/aes256gcm/aesni/aead_aes256gcm_aesni.c:458:23 @[ crypto_aead/aes256gcm/aesni/aead_aes256gcm_aesni.c:770:5 ] ]
	vpaddq	.LCPI1_14(%rip), %xmm14, %xmm7
.Ltmp513:
	#DEBUG_VALUE: incr_counters:counter <- undef
	#DEBUG_VALUE: incr_counters:i <- 6
	.loc	2 373 27                        # crypto_aead/aes256gcm/aesni/aead_aes256gcm_aesni.c:373:27 @[ crypto_aead/aes256gcm/aesni/aead_aes256gcm_aesni.c:458:23 @[ crypto_aead/aes256gcm/aesni/aead_aes256gcm_aesni.c:770:5 ] ]
	vpshufb	%xmm13, %xmm7, %xmm7
.Ltmp514:
	#DEBUG_VALUE: incr_counters:i <- 7
	#DEBUG_VALUE: encrypt_xor_wide:st <- $r15
	#DEBUG_VALUE: encrypt_xor_wide:dst <- [DW_OP_LLVM_arg 0, DW_OP_consts 320, DW_OP_minus, DW_OP_consts 224, DW_OP_div, DW_OP_consts 224, DW_OP_mul, DW_OP_consts 224, DW_OP_LLVM_arg 1, DW_OP_plus, DW_OP_plus, DW_OP_stack_value] undef, undef
	#DEBUG_VALUE: encrypt_xor_wide:src <- [DW_OP_LLVM_arg 0, DW_OP_consts 320, DW_OP_minus, DW_OP_consts 224, DW_OP_div, DW_OP_consts 224, DW_OP_mul, DW_OP_consts 224, DW_OP_LLVM_arg 1, DW_OP_plus, DW_OP_plus, DW_OP_stack_value] undef, undef
	#DEBUG_VALUE: encrypt_xor_wide:counters <- undef
	#DEBUG_VALUE: encrypt_xor_wide:j <- 0
	#DEBUG_VALUE: aes_gcm_encrypt_generic:rev_counters <- [DW_OP_LLVM_fragment 768 128] $xmm7
	.loc	2 0 27 is_stmt 0                # crypto_aead/aes256gcm/aesni/aead_aes256gcm_aesni.c:0:27
	vmovdqa	(%r15), %xmm8
.Ltmp515:
	#DEBUG_VALUE: encrypt_xor_wide:j <- 7
	#DEBUG_VALUE: encrypt_xor_wide:ts <- [DW_OP_LLVM_fragment 0 128] undef
	#DEBUG_VALUE: encrypt_xor_wide:ts <- [DW_OP_LLVM_fragment 128 128] undef
	#DEBUG_VALUE: encrypt_xor_wide:ts <- [DW_OP_LLVM_fragment 256 128] undef
	#DEBUG_VALUE: encrypt_xor_wide:ts <- [DW_OP_LLVM_fragment 384 128] undef
	#DEBUG_VALUE: encrypt_xor_wide:ts <- [DW_OP_LLVM_fragment 512 128] undef
	#DEBUG_VALUE: encrypt_xor_wide:ts <- [DW_OP_LLVM_fragment 640 128] undef
	#DEBUG_VALUE: encrypt_xor_wide:i <- 1
	vmovdqa	16(%r15), %xmm9
.Ltmp516:
	#DEBUG_VALUE: encrypt_xor_wide:j <- 7
	#DEBUG_VALUE: encrypt_xor_wide:i <- 2
	#DEBUG_VALUE: encrypt_xor_wide:ts <- [DW_OP_LLVM_fragment 0 128] undef
	#DEBUG_VALUE: encrypt_xor_wide:ts <- [DW_OP_LLVM_fragment 128 128] undef
	#DEBUG_VALUE: encrypt_xor_wide:ts <- [DW_OP_LLVM_fragment 256 128] undef
	#DEBUG_VALUE: encrypt_xor_wide:ts <- [DW_OP_LLVM_fragment 384 128] undef
	#DEBUG_VALUE: encrypt_xor_wide:ts <- [DW_OP_LLVM_fragment 512 128] undef
	#DEBUG_VALUE: encrypt_xor_wide:ts <- [DW_OP_LLVM_fragment 640 128] undef
	#DEBUG_VALUE: encrypt_xor_wide:ts <- [DW_OP_LLVM_fragment 0 128] undef
	#DEBUG_VALUE: encrypt_xor_wide:ts <- [DW_OP_LLVM_fragment 128 128] undef
	#DEBUG_VALUE: encrypt_xor_wide:ts <- [DW_OP_LLVM_fragment 256 128] undef
	#DEBUG_VALUE: encrypt_xor_wide:ts <- [DW_OP_LLVM_fragment 384 128] undef
	#DEBUG_VALUE: encrypt_xor_wide:ts <- [DW_OP_LLVM_fragment 512 128] undef
	#DEBUG_VALUE: encrypt_xor_wide:ts <- [DW_OP_LLVM_fragment 640 128] undef
	.loc	2 175 17 is_stmt 1              # crypto_aead/aes256gcm/aesni/aead_aes256gcm_aesni.c:175:17 @[ crypto_aead/aes256gcm/aesni/aead_aes256gcm_aesni.c:459:13 @[ crypto_aead/aes256gcm/aesni/aead_aes256gcm_aesni.c:770:5 ] ]
	vpxor	%xmm1, %xmm8, %xmm1
.Ltmp517:
	#DEBUG_VALUE: encrypt_xor_wide:ts <- [DW_OP_LLVM_fragment 0 128] $xmm1
	#DEBUG_VALUE: encrypt_xor_wide:ts <- [DW_OP_LLVM_fragment 0 128] $xmm1
	#DEBUG_VALUE: encrypt_xor_wide:j <- 1
	vpxor	%xmm2, %xmm8, %xmm2
.Ltmp518:
	#DEBUG_VALUE: encrypt_xor_wide:ts <- [DW_OP_LLVM_fragment 128 128] $xmm2
	#DEBUG_VALUE: encrypt_xor_wide:ts <- [DW_OP_LLVM_fragment 128 128] $xmm2
	#DEBUG_VALUE: encrypt_xor_wide:j <- 2
	vpxor	%xmm3, %xmm8, %xmm3
.Ltmp519:
	#DEBUG_VALUE: encrypt_xor_wide:ts <- [DW_OP_LLVM_fragment 256 128] $xmm3
	#DEBUG_VALUE: encrypt_xor_wide:ts <- [DW_OP_LLVM_fragment 256 128] $xmm3
	#DEBUG_VALUE: encrypt_xor_wide:j <- 3
	vpxor	%xmm4, %xmm8, %xmm4
.Ltmp520:
	#DEBUG_VALUE: encrypt_xor_wide:ts <- [DW_OP_LLVM_fragment 384 128] $xmm4
	#DEBUG_VALUE: encrypt_xor_wide:ts <- [DW_OP_LLVM_fragment 384 128] $xmm4
	#DEBUG_VALUE: encrypt_xor_wide:j <- 4
	vpxor	%xmm5, %xmm8, %xmm5
.Ltmp521:
	#DEBUG_VALUE: encrypt_xor_wide:ts <- [DW_OP_LLVM_fragment 512 128] $xmm5
	#DEBUG_VALUE: encrypt_xor_wide:ts <- [DW_OP_LLVM_fragment 512 128] $xmm5
	#DEBUG_VALUE: encrypt_xor_wide:j <- 5
	vpxor	%xmm6, %xmm8, %xmm6
.Ltmp522:
	#DEBUG_VALUE: encrypt_xor_wide:ts <- [DW_OP_LLVM_fragment 640 128] $xmm6
	#DEBUG_VALUE: encrypt_xor_wide:ts <- [DW_OP_LLVM_fragment 640 128] $xmm6
	#DEBUG_VALUE: encrypt_xor_wide:j <- 6
	#DEBUG_VALUE: encrypt_xor_wide:ts <- [DW_OP_LLVM_fragment 768 128] undef
	#DEBUG_VALUE: encrypt_xor_wide:j <- 0
	.loc	2 179 21                        # crypto_aead/aes256gcm/aesni/aead_aes256gcm_aesni.c:179:21 @[ crypto_aead/aes256gcm/aesni/aead_aes256gcm_aesni.c:459:13 @[ crypto_aead/aes256gcm/aesni/aead_aes256gcm_aesni.c:770:5 ] ]
	vaesenc	%xmm9, %xmm1, %xmm1
.Ltmp523:
	#DEBUG_VALUE: encrypt_xor_wide:ts <- [DW_OP_LLVM_fragment 0 128] $xmm1
	#DEBUG_VALUE: encrypt_xor_wide:j <- 1
	vaesenc	%xmm9, %xmm2, %xmm2
.Ltmp524:
	#DEBUG_VALUE: encrypt_xor_wide:ts <- [DW_OP_LLVM_fragment 128 128] $xmm2
	#DEBUG_VALUE: encrypt_xor_wide:j <- 2
	vaesenc	%xmm9, %xmm3, %xmm3
.Ltmp525:
	#DEBUG_VALUE: encrypt_xor_wide:ts <- [DW_OP_LLVM_fragment 256 128] $xmm3
	#DEBUG_VALUE: encrypt_xor_wide:j <- 3
	vaesenc	%xmm9, %xmm4, %xmm4
.Ltmp526:
	#DEBUG_VALUE: encrypt_xor_wide:ts <- [DW_OP_LLVM_fragment 384 128] $xmm4
	#DEBUG_VALUE: encrypt_xor_wide:j <- 4
	vaesenc	%xmm9, %xmm5, %xmm5
.Ltmp527:
	#DEBUG_VALUE: encrypt_xor_wide:ts <- [DW_OP_LLVM_fragment 512 128] $xmm5
	#DEBUG_VALUE: encrypt_xor_wide:j <- 5
	vaesenc	%xmm9, %xmm6, %xmm6
.Ltmp528:
	#DEBUG_VALUE: encrypt_xor_wide:ts <- [DW_OP_LLVM_fragment 640 128] $xmm6
	#DEBUG_VALUE: encrypt_xor_wide:j <- 6
	.loc	2 175 17                        # crypto_aead/aes256gcm/aesni/aead_aes256gcm_aesni.c:175:17 @[ crypto_aead/aes256gcm/aesni/aead_aes256gcm_aesni.c:459:13 @[ crypto_aead/aes256gcm/aesni/aead_aes256gcm_aesni.c:770:5 ] ]
	vpxor	%xmm7, %xmm8, %xmm7
.Ltmp529:
	#DEBUG_VALUE: encrypt_xor_wide:ts <- [DW_OP_LLVM_fragment 768 128] $xmm7
	.loc	2 179 21                        # crypto_aead/aes256gcm/aesni/aead_aes256gcm_aesni.c:179:21 @[ crypto_aead/aes256gcm/aesni/aead_aes256gcm_aesni.c:459:13 @[ crypto_aead/aes256gcm/aesni/aead_aes256gcm_aesni.c:770:5 ] ]
	vaesenc	%xmm9, %xmm7, %xmm7
.Ltmp530:
	#DEBUG_VALUE: encrypt_xor_wide:ts <- [DW_OP_LLVM_fragment 768 128] $xmm7
	#DEBUG_VALUE: encrypt_xor_wide:j <- 0
	.loc	2 0 21 is_stmt 0                # crypto_aead/aes256gcm/aesni/aead_aes256gcm_aesni.c:0:21
	vmovdqa	32(%r15), %xmm8
.Ltmp531:
	#DEBUG_VALUE: encrypt_xor_wide:j <- 7
	#DEBUG_VALUE: encrypt_xor_wide:i <- 3
	.loc	2 179 21                        # crypto_aead/aes256gcm/aesni/aead_aes256gcm_aesni.c:179:21 @[ crypto_aead/aes256gcm/aesni/aead_aes256gcm_aesni.c:459:13 @[ crypto_aead/aes256gcm/aesni/aead_aes256gcm_aesni.c:770:5 ] ]
	vaesenc	%xmm8, %xmm1, %xmm1
.Ltmp532:
	#DEBUG_VALUE: encrypt_xor_wide:ts <- [DW_OP_LLVM_fragment 0 128] $xmm1
	#DEBUG_VALUE: encrypt_xor_wide:j <- 1
	vaesenc	%xmm8, %xmm2, %xmm2
.Ltmp533:
	#DEBUG_VALUE: encrypt_xor_wide:ts <- [DW_OP_LLVM_fragment 128 128] $xmm2
	#DEBUG_VALUE: encrypt_xor_wide:j <- 2
	vaesenc	%xmm8, %xmm3, %xmm3
.Ltmp534:
	#DEBUG_VALUE: encrypt_xor_wide:ts <- [DW_OP_LLVM_fragment 256 128] $xmm3
	#DEBUG_VALUE: encrypt_xor_wide:j <- 3
	vaesenc	%xmm8, %xmm4, %xmm4
.Ltmp535:
	#DEBUG_VALUE: encrypt_xor_wide:ts <- [DW_OP_LLVM_fragment 384 128] $xmm4
	#DEBUG_VALUE: encrypt_xor_wide:j <- 4
	vaesenc	%xmm8, %xmm5, %xmm5
.Ltmp536:
	#DEBUG_VALUE: encrypt_xor_wide:ts <- [DW_OP_LLVM_fragment 512 128] $xmm5
	#DEBUG_VALUE: encrypt_xor_wide:j <- 5
	vaesenc	%xmm8, %xmm6, %xmm6
.Ltmp537:
	#DEBUG_VALUE: encrypt_xor_wide:ts <- [DW_OP_LLVM_fragment 640 128] $xmm6
	#DEBUG_VALUE: encrypt_xor_wide:j <- 6
	vaesenc	%xmm8, %xmm7, %xmm7
.Ltmp538:
	#DEBUG_VALUE: encrypt_xor_wide:ts <- [DW_OP_LLVM_fragment 768 128] $xmm7
	#DEBUG_VALUE: encrypt_xor_wide:j <- 0
	.loc	2 0 21                          # crypto_aead/aes256gcm/aesni/aead_aes256gcm_aesni.c:0:21
	vmovdqa	48(%r15), %xmm8
	.loc	2 179 21                        # crypto_aead/aes256gcm/aesni/aead_aes256gcm_aesni.c:179:21 @[ crypto_aead/aes256gcm/aesni/aead_aes256gcm_aesni.c:459:13 @[ crypto_aead/aes256gcm/aesni/aead_aes256gcm_aesni.c:770:5 ] ]
	vaesenc	%xmm8, %xmm1, %xmm1
.Ltmp539:
	#DEBUG_VALUE: encrypt_xor_wide:ts <- [DW_OP_LLVM_fragment 0 128] $xmm1
	#DEBUG_VALUE: encrypt_xor_wide:j <- 1
	vaesenc	%xmm8, %xmm2, %xmm2
.Ltmp540:
	#DEBUG_VALUE: encrypt_xor_wide:ts <- [DW_OP_LLVM_fragment 128 128] $xmm2
	#DEBUG_VALUE: encrypt_xor_wide:j <- 2
	vaesenc	%xmm8, %xmm3, %xmm3
.Ltmp541:
	#DEBUG_VALUE: encrypt_xor_wide:ts <- [DW_OP_LLVM_fragment 256 128] $xmm3
	#DEBUG_VALUE: encrypt_xor_wide:j <- 3
	vaesenc	%xmm8, %xmm4, %xmm4
.Ltmp542:
	#DEBUG_VALUE: encrypt_xor_wide:ts <- [DW_OP_LLVM_fragment 384 128] $xmm4
	#DEBUG_VALUE: encrypt_xor_wide:j <- 4
	vaesenc	%xmm8, %xmm5, %xmm5
.Ltmp543:
	#DEBUG_VALUE: encrypt_xor_wide:ts <- [DW_OP_LLVM_fragment 512 128] $xmm5
	#DEBUG_VALUE: encrypt_xor_wide:j <- 5
	vaesenc	%xmm8, %xmm6, %xmm6
.Ltmp544:
	#DEBUG_VALUE: encrypt_xor_wide:ts <- [DW_OP_LLVM_fragment 640 128] $xmm6
	#DEBUG_VALUE: encrypt_xor_wide:j <- 6
	vaesenc	%xmm8, %xmm7, %xmm7
.Ltmp545:
	#DEBUG_VALUE: encrypt_xor_wide:ts <- [DW_OP_LLVM_fragment 768 128] $xmm7
	#DEBUG_VALUE: encrypt_xor_wide:j <- 7
	#DEBUG_VALUE: encrypt_xor_wide:i <- 4
	#DEBUG_VALUE: encrypt_xor_wide:ts <- [DW_OP_LLVM_fragment 0 128] $xmm1
	#DEBUG_VALUE: encrypt_xor_wide:ts <- [DW_OP_LLVM_fragment 128 128] $xmm2
	#DEBUG_VALUE: encrypt_xor_wide:ts <- [DW_OP_LLVM_fragment 256 128] $xmm3
	#DEBUG_VALUE: encrypt_xor_wide:ts <- [DW_OP_LLVM_fragment 384 128] $xmm4
	#DEBUG_VALUE: encrypt_xor_wide:ts <- [DW_OP_LLVM_fragment 512 128] $xmm5
	#DEBUG_VALUE: encrypt_xor_wide:ts <- [DW_OP_LLVM_fragment 640 128] $xmm6
	.loc	2 0 21                          # crypto_aead/aes256gcm/aesni/aead_aes256gcm_aesni.c:0:21
	vmovdqa	64(%r15), %xmm8
.Ltmp546:
	#DEBUG_VALUE: encrypt_xor_wide:j <- 0
	.loc	2 179 21                        # crypto_aead/aes256gcm/aesni/aead_aes256gcm_aesni.c:179:21 @[ crypto_aead/aes256gcm/aesni/aead_aes256gcm_aesni.c:459:13 @[ crypto_aead/aes256gcm/aesni/aead_aes256gcm_aesni.c:770:5 ] ]
	vaesenc	%xmm8, %xmm1, %xmm1
.Ltmp547:
	#DEBUG_VALUE: encrypt_xor_wide:ts <- [DW_OP_LLVM_fragment 0 128] $xmm1
	#DEBUG_VALUE: encrypt_xor_wide:j <- 1
	vaesenc	%xmm8, %xmm2, %xmm2
.Ltmp548:
	#DEBUG_VALUE: encrypt_xor_wide:ts <- [DW_OP_LLVM_fragment 128 128] $xmm2
	#DEBUG_VALUE: encrypt_xor_wide:j <- 2
	vaesenc	%xmm8, %xmm3, %xmm3
.Ltmp549:
	#DEBUG_VALUE: encrypt_xor_wide:ts <- [DW_OP_LLVM_fragment 256 128] $xmm3
	#DEBUG_VALUE: encrypt_xor_wide:j <- 3
	vaesenc	%xmm8, %xmm4, %xmm4
.Ltmp550:
	#DEBUG_VALUE: encrypt_xor_wide:ts <- [DW_OP_LLVM_fragment 384 128] $xmm4
	#DEBUG_VALUE: encrypt_xor_wide:j <- 4
	vaesenc	%xmm8, %xmm5, %xmm5
.Ltmp551:
	#DEBUG_VALUE: encrypt_xor_wide:ts <- [DW_OP_LLVM_fragment 512 128] $xmm5
	#DEBUG_VALUE: encrypt_xor_wide:j <- 5
	vaesenc	%xmm8, %xmm6, %xmm6
.Ltmp552:
	#DEBUG_VALUE: encrypt_xor_wide:ts <- [DW_OP_LLVM_fragment 640 128] $xmm6
	#DEBUG_VALUE: encrypt_xor_wide:j <- 6
	vaesenc	%xmm8, %xmm7, %xmm7
.Ltmp553:
	#DEBUG_VALUE: encrypt_xor_wide:ts <- [DW_OP_LLVM_fragment 768 128] $xmm7
	#DEBUG_VALUE: encrypt_xor_wide:j <- 7
	#DEBUG_VALUE: encrypt_xor_wide:i <- 5
	#DEBUG_VALUE: encrypt_xor_wide:ts <- [DW_OP_LLVM_fragment 0 128] $xmm1
	#DEBUG_VALUE: encrypt_xor_wide:ts <- [DW_OP_LLVM_fragment 128 128] $xmm2
	#DEBUG_VALUE: encrypt_xor_wide:ts <- [DW_OP_LLVM_fragment 256 128] $xmm3
	#DEBUG_VALUE: encrypt_xor_wide:ts <- [DW_OP_LLVM_fragment 384 128] $xmm4
	#DEBUG_VALUE: encrypt_xor_wide:ts <- [DW_OP_LLVM_fragment 512 128] $xmm5
	#DEBUG_VALUE: encrypt_xor_wide:ts <- [DW_OP_LLVM_fragment 640 128] $xmm6
	.loc	2 0 21                          # crypto_aead/aes256gcm/aesni/aead_aes256gcm_aesni.c:0:21
	vmovdqa	80(%r15), %xmm8
.Ltmp554:
	#DEBUG_VALUE: encrypt_xor_wide:j <- 0
	.loc	2 179 21                        # crypto_aead/aes256gcm/aesni/aead_aes256gcm_aesni.c:179:21 @[ crypto_aead/aes256gcm/aesni/aead_aes256gcm_aesni.c:459:13 @[ crypto_aead/aes256gcm/aesni/aead_aes256gcm_aesni.c:770:5 ] ]
	vaesenc	%xmm8, %xmm1, %xmm1
.Ltmp555:
	#DEBUG_VALUE: encrypt_xor_wide:ts <- [DW_OP_LLVM_fragment 0 128] $xmm1
	#DEBUG_VALUE: encrypt_xor_wide:j <- 1
	vaesenc	%xmm8, %xmm2, %xmm2
.Ltmp556:
	#DEBUG_VALUE: encrypt_xor_wide:ts <- [DW_OP_LLVM_fragment 128 128] $xmm2
	#DEBUG_VALUE: encrypt_xor_wide:j <- 2
	vaesenc	%xmm8, %xmm3, %xmm9
.Ltmp557:
	#DEBUG_VALUE: encrypt_xor_wide:ts <- [DW_OP_LLVM_fragment 256 128] $xmm9
	#DEBUG_VALUE: encrypt_xor_wide:j <- 3
	vaesenc	%xmm8, %xmm4, %xmm4
.Ltmp558:
	#DEBUG_VALUE: encrypt_xor_wide:ts <- [DW_OP_LLVM_fragment 384 128] $xmm4
	#DEBUG_VALUE: encrypt_xor_wide:j <- 4
	vaesenc	%xmm8, %xmm5, %xmm5
.Ltmp559:
	#DEBUG_VALUE: encrypt_xor_wide:ts <- [DW_OP_LLVM_fragment 512 128] $xmm5
	#DEBUG_VALUE: encrypt_xor_wide:j <- 5
	vaesenc	%xmm8, %xmm6, %xmm6
.Ltmp560:
	#DEBUG_VALUE: encrypt_xor_wide:ts <- [DW_OP_LLVM_fragment 640 128] $xmm6
	#DEBUG_VALUE: encrypt_xor_wide:j <- 6
	vaesenc	%xmm8, %xmm7, %xmm7
.Ltmp561:
	#DEBUG_VALUE: encrypt_xor_wide:ts <- [DW_OP_LLVM_fragment 768 128] $xmm7
	#DEBUG_VALUE: encrypt_xor_wide:j <- 7
	#DEBUG_VALUE: encrypt_xor_wide:i <- 6
	#DEBUG_VALUE: encrypt_xor_wide:ts <- [DW_OP_LLVM_fragment 0 128] $xmm1
	#DEBUG_VALUE: encrypt_xor_wide:ts <- [DW_OP_LLVM_fragment 128 128] $xmm2
	#DEBUG_VALUE: encrypt_xor_wide:ts <- [DW_OP_LLVM_fragment 256 128] $xmm9
	#DEBUG_VALUE: encrypt_xor_wide:ts <- [DW_OP_LLVM_fragment 384 128] $xmm4
	#DEBUG_VALUE: encrypt_xor_wide:ts <- [DW_OP_LLVM_fragment 512 128] $xmm5
	#DEBUG_VALUE: encrypt_xor_wide:ts <- [DW_OP_LLVM_fragment 640 128] $xmm6
	.loc	2 0 21                          # crypto_aead/aes256gcm/aesni/aead_aes256gcm_aesni.c:0:21
	vmovdqa	96(%r15), %xmm8
.Ltmp562:
	#DEBUG_VALUE: encrypt_xor_wide:j <- 0
	.loc	2 453 43 is_stmt 1              # crypto_aead/aes256gcm/aesni/aead_aes256gcm_aesni.c:453:43 @[ crypto_aead/aes256gcm/aesni/aead_aes256gcm_aesni.c:770:5 ]
	vmovdqa	448(%r15), %xmm3
.Ltmp563:
	#DEBUG_VALUE: clmul128:y <- $xmm3
	#DEBUG_VALUE: gh_update0:hn <- $xmm3
	.loc	2 179 21                        # crypto_aead/aes256gcm/aesni/aead_aes256gcm_aesni.c:179:21 @[ crypto_aead/aes256gcm/aesni/aead_aes256gcm_aesni.c:459:13 @[ crypto_aead/aes256gcm/aesni/aead_aes256gcm_aesni.c:770:5 ] ]
	vaesenc	%xmm8, %xmm1, %xmm1
.Ltmp564:
	#DEBUG_VALUE: encrypt_xor_wide:ts <- [DW_OP_LLVM_fragment 0 128] $xmm1
	#DEBUG_VALUE: encrypt_xor_wide:j <- 1
	vaesenc	%xmm8, %xmm2, %xmm2
.Ltmp565:
	#DEBUG_VALUE: encrypt_xor_wide:ts <- [DW_OP_LLVM_fragment 128 128] $xmm2
	#DEBUG_VALUE: encrypt_xor_wide:j <- 2
	vaesenc	%xmm8, %xmm9, %xmm9
.Ltmp566:
	#DEBUG_VALUE: encrypt_xor_wide:ts <- [DW_OP_LLVM_fragment 256 128] $xmm9
	#DEBUG_VALUE: encrypt_xor_wide:j <- 3
	vaesenc	%xmm8, %xmm4, %xmm4
.Ltmp567:
	#DEBUG_VALUE: encrypt_xor_wide:ts <- [DW_OP_LLVM_fragment 384 128] $xmm4
	#DEBUG_VALUE: encrypt_xor_wide:j <- 4
	vaesenc	%xmm8, %xmm5, %xmm5
.Ltmp568:
	#DEBUG_VALUE: encrypt_xor_wide:ts <- [DW_OP_LLVM_fragment 512 128] $xmm5
	#DEBUG_VALUE: encrypt_xor_wide:j <- 5
	vaesenc	%xmm8, %xmm6, %xmm6
.Ltmp569:
	#DEBUG_VALUE: encrypt_xor_wide:ts <- [DW_OP_LLVM_fragment 640 128] $xmm6
	#DEBUG_VALUE: encrypt_xor_wide:j <- 6
	vaesenc	%xmm8, %xmm7, %xmm7
.Ltmp570:
	#DEBUG_VALUE: encrypt_xor_wide:ts <- [DW_OP_LLVM_fragment 768 128] $xmm7
	#DEBUG_VALUE: encrypt_xor_wide:j <- 7
	#DEBUG_VALUE: encrypt_xor_wide:i <- 7
	#DEBUG_VALUE: encrypt_xor_wide:ts <- [DW_OP_LLVM_fragment 0 128] $xmm1
	#DEBUG_VALUE: encrypt_xor_wide:ts <- [DW_OP_LLVM_fragment 128 128] $xmm2
	#DEBUG_VALUE: encrypt_xor_wide:ts <- [DW_OP_LLVM_fragment 256 128] $xmm9
	#DEBUG_VALUE: encrypt_xor_wide:ts <- [DW_OP_LLVM_fragment 384 128] $xmm4
	#DEBUG_VALUE: encrypt_xor_wide:ts <- [DW_OP_LLVM_fragment 512 128] $xmm5
	#DEBUG_VALUE: encrypt_xor_wide:ts <- [DW_OP_LLVM_fragment 640 128] $xmm6
	.loc	2 0 21 is_stmt 0                # crypto_aead/aes256gcm/aesni/aead_aes256gcm_aesni.c:0:21
	vmovdqa	112(%r15), %xmm8
.Ltmp571:
	#DEBUG_VALUE: encrypt_xor_wide:j <- 0
	.loc	2 302 42 is_stmt 1              # crypto_aead/aes256gcm/aesni/aead_aes256gcm_aesni.c:302:42 @[ crypto_aead/aes256gcm/aesni/aead_aes256gcm_aesni.c:453:17 @[ crypto_aead/aes256gcm/aesni/aead_aes256gcm_aesni.c:770:5 ] ]
	vmovdqu	-320(%rdi,%rbp), %xmm10
.Ltmp572:
	#DEBUG_VALUE: gh_update:u <- undef
	.loc	2 179 21                        # crypto_aead/aes256gcm/aesni/aead_aes256gcm_aesni.c:179:21 @[ crypto_aead/aes256gcm/aesni/aead_aes256gcm_aesni.c:459:13 @[ crypto_aead/aes256gcm/aesni/aead_aes256gcm_aesni.c:770:5 ] ]
	vaesenc	%xmm8, %xmm1, %xmm1
.Ltmp573:
	#DEBUG_VALUE: encrypt_xor_wide:ts <- [DW_OP_LLVM_fragment 0 128] $xmm1
	#DEBUG_VALUE: encrypt_xor_wide:j <- 1
	vaesenc	%xmm8, %xmm2, %xmm2
.Ltmp574:
	#DEBUG_VALUE: encrypt_xor_wide:ts <- [DW_OP_LLVM_fragment 128 128] $xmm2
	#DEBUG_VALUE: encrypt_xor_wide:j <- 2
	vaesenc	%xmm8, %xmm9, %xmm9
.Ltmp575:
	#DEBUG_VALUE: encrypt_xor_wide:ts <- [DW_OP_LLVM_fragment 256 128] $xmm9
	#DEBUG_VALUE: encrypt_xor_wide:j <- 3
	vaesenc	%xmm8, %xmm4, %xmm11
.Ltmp576:
	#DEBUG_VALUE: encrypt_xor_wide:ts <- [DW_OP_LLVM_fragment 384 128] $xmm11
	#DEBUG_VALUE: encrypt_xor_wide:j <- 4
	vaesenc	%xmm8, %xmm5, %xmm5
.Ltmp577:
	#DEBUG_VALUE: encrypt_xor_wide:ts <- [DW_OP_LLVM_fragment 512 128] $xmm5
	#DEBUG_VALUE: encrypt_xor_wide:j <- 5
	vaesenc	%xmm8, %xmm6, %xmm6
.Ltmp578:
	#DEBUG_VALUE: encrypt_xor_wide:ts <- [DW_OP_LLVM_fragment 640 128] $xmm6
	#DEBUG_VALUE: encrypt_xor_wide:j <- 6
	vaesenc	%xmm8, %xmm7, %xmm7
.Ltmp579:
	#DEBUG_VALUE: encrypt_xor_wide:ts <- [DW_OP_LLVM_fragment 768 128] $xmm7
	#DEBUG_VALUE: encrypt_xor_wide:j <- 7
	#DEBUG_VALUE: encrypt_xor_wide:i <- 8
	#DEBUG_VALUE: encrypt_xor_wide:ts <- [DW_OP_LLVM_fragment 0 128] $xmm1
	#DEBUG_VALUE: encrypt_xor_wide:ts <- [DW_OP_LLVM_fragment 128 128] $xmm2
	#DEBUG_VALUE: encrypt_xor_wide:ts <- [DW_OP_LLVM_fragment 256 128] $xmm9
	#DEBUG_VALUE: encrypt_xor_wide:ts <- [DW_OP_LLVM_fragment 384 128] $xmm11
	#DEBUG_VALUE: encrypt_xor_wide:ts <- [DW_OP_LLVM_fragment 512 128] $xmm5
	#DEBUG_VALUE: encrypt_xor_wide:ts <- [DW_OP_LLVM_fragment 640 128] $xmm6
	.loc	2 0 21 is_stmt 0                # crypto_aead/aes256gcm/aesni/aead_aes256gcm_aesni.c:0:21
	vmovdqa	128(%r15), %xmm8
.Ltmp580:
	#DEBUG_VALUE: encrypt_xor_wide:j <- 0
	.loc	2 308 42 is_stmt 1              # crypto_aead/aes256gcm/aesni/aead_aes256gcm_aesni.c:308:42 @[ crypto_aead/aes256gcm/aesni/aead_aes256gcm_aesni.c:455:17 @[ crypto_aead/aes256gcm/aesni/aead_aes256gcm_aesni.c:770:5 ] ]
	vmovups	-304(%rdi,%rbp), %xmm0
	vmovaps	%xmm0, 96(%rsp)                 # 16-byte Spill
.Ltmp581:
	.loc	2 179 21                        # crypto_aead/aes256gcm/aesni/aead_aes256gcm_aesni.c:179:21 @[ crypto_aead/aes256gcm/aesni/aead_aes256gcm_aesni.c:459:13 @[ crypto_aead/aes256gcm/aesni/aead_aes256gcm_aesni.c:770:5 ] ]
	vaesenc	%xmm8, %xmm1, %xmm1
.Ltmp582:
	#DEBUG_VALUE: encrypt_xor_wide:ts <- [DW_OP_LLVM_fragment 0 128] $xmm1
	#DEBUG_VALUE: encrypt_xor_wide:j <- 1
	vaesenc	%xmm8, %xmm2, %xmm2
.Ltmp583:
	#DEBUG_VALUE: encrypt_xor_wide:ts <- [DW_OP_LLVM_fragment 128 128] $xmm2
	#DEBUG_VALUE: encrypt_xor_wide:j <- 2
	vaesenc	%xmm8, %xmm9, %xmm9
.Ltmp584:
	#DEBUG_VALUE: encrypt_xor_wide:ts <- [DW_OP_LLVM_fragment 256 128] $xmm9
	#DEBUG_VALUE: encrypt_xor_wide:j <- 3
	vaesenc	%xmm8, %xmm11, %xmm11
.Ltmp585:
	#DEBUG_VALUE: encrypt_xor_wide:ts <- [DW_OP_LLVM_fragment 384 128] $xmm11
	#DEBUG_VALUE: encrypt_xor_wide:j <- 4
	vaesenc	%xmm8, %xmm5, %xmm5
.Ltmp586:
	#DEBUG_VALUE: encrypt_xor_wide:ts <- [DW_OP_LLVM_fragment 512 128] $xmm5
	#DEBUG_VALUE: encrypt_xor_wide:j <- 5
	vaesenc	%xmm8, %xmm6, %xmm6
.Ltmp587:
	#DEBUG_VALUE: encrypt_xor_wide:ts <- [DW_OP_LLVM_fragment 640 128] $xmm6
	#DEBUG_VALUE: encrypt_xor_wide:j <- 6
	vaesenc	%xmm8, %xmm7, %xmm7
.Ltmp588:
	#DEBUG_VALUE: encrypt_xor_wide:ts <- [DW_OP_LLVM_fragment 768 128] $xmm7
	#DEBUG_VALUE: encrypt_xor_wide:j <- 7
	#DEBUG_VALUE: encrypt_xor_wide:i <- 9
	#DEBUG_VALUE: encrypt_xor_wide:ts <- [DW_OP_LLVM_fragment 0 128] $xmm1
	#DEBUG_VALUE: encrypt_xor_wide:ts <- [DW_OP_LLVM_fragment 128 128] $xmm2
	#DEBUG_VALUE: encrypt_xor_wide:ts <- [DW_OP_LLVM_fragment 256 128] $xmm9
	#DEBUG_VALUE: encrypt_xor_wide:ts <- [DW_OP_LLVM_fragment 384 128] $xmm11
	#DEBUG_VALUE: encrypt_xor_wide:ts <- [DW_OP_LLVM_fragment 512 128] $xmm5
	#DEBUG_VALUE: encrypt_xor_wide:ts <- [DW_OP_LLVM_fragment 640 128] $xmm6
	.loc	2 0 21 is_stmt 0                # crypto_aead/aes256gcm/aesni/aead_aes256gcm_aesni.c:0:21
	vmovdqa	144(%r15), %xmm8
.Ltmp589:
	#DEBUG_VALUE: encrypt_xor_wide:j <- 0
	.loc	2 302 24 is_stmt 1              # crypto_aead/aes256gcm/aesni/aead_aes256gcm_aesni.c:302:24 @[ crypto_aead/aes256gcm/aesni/aead_aes256gcm_aesni.c:453:17 @[ crypto_aead/aes256gcm/aesni/aead_aes256gcm_aesni.c:770:5 ] ]
	vpshufb	%xmm13, %xmm10, %xmm10
.Ltmp590:
	#DEBUG_VALUE: gh_update0:m <- $xmm10
	.loc	2 179 21                        # crypto_aead/aes256gcm/aesni/aead_aes256gcm_aesni.c:179:21 @[ crypto_aead/aes256gcm/aesni/aead_aes256gcm_aesni.c:459:13 @[ crypto_aead/aes256gcm/aesni/aead_aes256gcm_aesni.c:770:5 ] ]
	vaesenc	%xmm8, %xmm1, %xmm1
.Ltmp591:
	#DEBUG_VALUE: encrypt_xor_wide:ts <- [DW_OP_LLVM_fragment 0 128] $xmm1
	#DEBUG_VALUE: encrypt_xor_wide:j <- 1
	vaesenc	%xmm8, %xmm2, %xmm2
.Ltmp592:
	#DEBUG_VALUE: encrypt_xor_wide:ts <- [DW_OP_LLVM_fragment 128 128] $xmm2
	#DEBUG_VALUE: encrypt_xor_wide:j <- 2
	vaesenc	%xmm8, %xmm9, %xmm9
.Ltmp593:
	#DEBUG_VALUE: encrypt_xor_wide:ts <- [DW_OP_LLVM_fragment 256 128] $xmm9
	#DEBUG_VALUE: encrypt_xor_wide:j <- 3
	vaesenc	%xmm8, %xmm11, %xmm12
.Ltmp594:
	#DEBUG_VALUE: encrypt_xor_wide:ts <- [DW_OP_LLVM_fragment 384 128] $xmm12
	#DEBUG_VALUE: encrypt_xor_wide:j <- 4
	vaesenc	%xmm8, %xmm5, %xmm5
.Ltmp595:
	#DEBUG_VALUE: encrypt_xor_wide:ts <- [DW_OP_LLVM_fragment 512 128] $xmm5
	#DEBUG_VALUE: encrypt_xor_wide:j <- 5
	vaesenc	%xmm8, %xmm6, %xmm6
.Ltmp596:
	#DEBUG_VALUE: encrypt_xor_wide:ts <- [DW_OP_LLVM_fragment 640 128] $xmm6
	#DEBUG_VALUE: encrypt_xor_wide:j <- 6
	vaesenc	%xmm8, %xmm7, %xmm7
.Ltmp597:
	#DEBUG_VALUE: encrypt_xor_wide:ts <- [DW_OP_LLVM_fragment 768 128] $xmm7
	#DEBUG_VALUE: encrypt_xor_wide:j <- 7
	#DEBUG_VALUE: encrypt_xor_wide:i <- 10
	#DEBUG_VALUE: encrypt_xor_wide:ts <- [DW_OP_LLVM_fragment 0 128] $xmm1
	#DEBUG_VALUE: encrypt_xor_wide:ts <- [DW_OP_LLVM_fragment 128 128] $xmm2
	#DEBUG_VALUE: encrypt_xor_wide:ts <- [DW_OP_LLVM_fragment 256 128] $xmm9
	#DEBUG_VALUE: encrypt_xor_wide:ts <- [DW_OP_LLVM_fragment 384 128] $xmm12
	#DEBUG_VALUE: encrypt_xor_wide:ts <- [DW_OP_LLVM_fragment 512 128] $xmm5
	#DEBUG_VALUE: encrypt_xor_wide:ts <- [DW_OP_LLVM_fragment 640 128] $xmm6
	.loc	2 0 21 is_stmt 0                # crypto_aead/aes256gcm/aesni/aead_aes256gcm_aesni.c:0:21
	vmovdqa	160(%r15), %xmm8
.Ltmp598:
	#DEBUG_VALUE: encrypt_xor_wide:j <- 0
	.loc	2 303 21 is_stmt 1              # crypto_aead/aes256gcm/aesni/aead_aes256gcm_aesni.c:303:21 @[ crypto_aead/aes256gcm/aesni/aead_aes256gcm_aesni.c:453:17 @[ crypto_aead/aes256gcm/aesni/aead_aes256gcm_aesni.c:770:5 ] ]
	vpxor	%xmm10, %xmm15, %xmm11
.Ltmp599:
	#DEBUG_VALUE: clmul128:x <- $xmm11
	.loc	2 179 21                        # crypto_aead/aes256gcm/aesni/aead_aes256gcm_aesni.c:179:21 @[ crypto_aead/aes256gcm/aesni/aead_aes256gcm_aesni.c:459:13 @[ crypto_aead/aes256gcm/aesni/aead_aes256gcm_aesni.c:770:5 ] ]
	vaesenc	%xmm8, %xmm1, %xmm1
.Ltmp600:
	#DEBUG_VALUE: encrypt_xor_wide:ts <- [DW_OP_LLVM_fragment 0 128] $xmm1
	#DEBUG_VALUE: encrypt_xor_wide:j <- 1
	vaesenc	%xmm8, %xmm2, %xmm2
.Ltmp601:
	#DEBUG_VALUE: encrypt_xor_wide:ts <- [DW_OP_LLVM_fragment 128 128] $xmm2
	#DEBUG_VALUE: encrypt_xor_wide:j <- 2
	vaesenc	%xmm8, %xmm9, %xmm10
.Ltmp602:
	#DEBUG_VALUE: encrypt_xor_wide:ts <- [DW_OP_LLVM_fragment 256 128] $xmm10
	#DEBUG_VALUE: encrypt_xor_wide:j <- 3
	vaesenc	%xmm8, %xmm12, %xmm12
.Ltmp603:
	#DEBUG_VALUE: encrypt_xor_wide:ts <- [DW_OP_LLVM_fragment 384 128] $xmm12
	#DEBUG_VALUE: encrypt_xor_wide:j <- 4
	vaesenc	%xmm8, %xmm5, %xmm5
.Ltmp604:
	#DEBUG_VALUE: encrypt_xor_wide:ts <- [DW_OP_LLVM_fragment 512 128] $xmm5
	#DEBUG_VALUE: encrypt_xor_wide:j <- 5
	vaesenc	%xmm8, %xmm6, %xmm6
.Ltmp605:
	#DEBUG_VALUE: encrypt_xor_wide:ts <- [DW_OP_LLVM_fragment 640 128] $xmm6
	#DEBUG_VALUE: encrypt_xor_wide:j <- 6
	vaesenc	%xmm8, %xmm7, %xmm7
.Ltmp606:
	#DEBUG_VALUE: encrypt_xor_wide:ts <- [DW_OP_LLVM_fragment 768 128] $xmm7
	#DEBUG_VALUE: encrypt_xor_wide:j <- 7
	#DEBUG_VALUE: encrypt_xor_wide:i <- 11
	#DEBUG_VALUE: encrypt_xor_wide:ts <- [DW_OP_LLVM_fragment 0 128] $xmm1
	#DEBUG_VALUE: encrypt_xor_wide:ts <- [DW_OP_LLVM_fragment 128 128] $xmm2
	#DEBUG_VALUE: encrypt_xor_wide:ts <- [DW_OP_LLVM_fragment 256 128] $xmm10
	#DEBUG_VALUE: encrypt_xor_wide:ts <- [DW_OP_LLVM_fragment 384 128] $xmm12
	#DEBUG_VALUE: encrypt_xor_wide:ts <- [DW_OP_LLVM_fragment 512 128] $xmm5
	#DEBUG_VALUE: encrypt_xor_wide:ts <- [DW_OP_LLVM_fragment 640 128] $xmm6
	.loc	2 0 21 is_stmt 0                # crypto_aead/aes256gcm/aesni/aead_aes256gcm_aesni.c:0:21
	vmovdqa	176(%r15), %xmm8
.Ltmp607:
	#DEBUG_VALUE: encrypt_xor_wide:j <- 0
	.loc	2 223 37 is_stmt 1              # crypto_aead/aes256gcm/aesni/aead_aes256gcm_aesni.c:223:37 @[ crypto_aead/aes256gcm/aesni/aead_aes256gcm_aesni.c:303:12 @[ crypto_aead/aes256gcm/aesni/aead_aes256gcm_aesni.c:453:17 @[ crypto_aead/aes256gcm/aesni/aead_aes256gcm_aesni.c:770:5 ] ] ]
	vpclmulqdq	$17, %xmm3, %xmm11, %xmm9
.Ltmp608:
	#DEBUG_VALUE: clmul128:r_hi <- $xmm9
	.loc	2 179 21                        # crypto_aead/aes256gcm/aesni/aead_aes256gcm_aesni.c:179:21 @[ crypto_aead/aes256gcm/aesni/aead_aes256gcm_aesni.c:459:13 @[ crypto_aead/aes256gcm/aesni/aead_aes256gcm_aesni.c:770:5 ] ]
	vaesenc	%xmm8, %xmm1, %xmm1
.Ltmp609:
	#DEBUG_VALUE: encrypt_xor_wide:ts <- [DW_OP_LLVM_fragment 0 128] $xmm1
	#DEBUG_VALUE: encrypt_xor_wide:j <- 1
	vaesenc	%xmm8, %xmm2, %xmm2
.Ltmp610:
	#DEBUG_VALUE: encrypt_xor_wide:ts <- [DW_OP_LLVM_fragment 128 128] $xmm2
	#DEBUG_VALUE: encrypt_xor_wide:j <- 2
	vaesenc	%xmm8, %xmm10, %xmm15
.Ltmp611:
	#DEBUG_VALUE: encrypt_xor_wide:ts <- [DW_OP_LLVM_fragment 256 128] $xmm15
	#DEBUG_VALUE: encrypt_xor_wide:j <- 3
	vaesenc	%xmm8, %xmm12, %xmm12
.Ltmp612:
	#DEBUG_VALUE: encrypt_xor_wide:ts <- [DW_OP_LLVM_fragment 384 128] $xmm12
	#DEBUG_VALUE: encrypt_xor_wide:j <- 4
	vaesenc	%xmm8, %xmm5, %xmm5
.Ltmp613:
	#DEBUG_VALUE: encrypt_xor_wide:ts <- [DW_OP_LLVM_fragment 512 128] $xmm5
	#DEBUG_VALUE: encrypt_xor_wide:j <- 5
	vaesenc	%xmm8, %xmm6, %xmm6
.Ltmp614:
	#DEBUG_VALUE: encrypt_xor_wide:ts <- [DW_OP_LLVM_fragment 640 128] $xmm6
	#DEBUG_VALUE: encrypt_xor_wide:j <- 6
	vaesenc	%xmm8, %xmm7, %xmm7
.Ltmp615:
	#DEBUG_VALUE: encrypt_xor_wide:ts <- [DW_OP_LLVM_fragment 768 128] $xmm7
	#DEBUG_VALUE: encrypt_xor_wide:j <- 7
	#DEBUG_VALUE: encrypt_xor_wide:i <- 12
	#DEBUG_VALUE: encrypt_xor_wide:ts <- [DW_OP_LLVM_fragment 0 128] $xmm1
	#DEBUG_VALUE: encrypt_xor_wide:ts <- [DW_OP_LLVM_fragment 128 128] $xmm2
	#DEBUG_VALUE: encrypt_xor_wide:ts <- [DW_OP_LLVM_fragment 256 128] $xmm15
	#DEBUG_VALUE: encrypt_xor_wide:ts <- [DW_OP_LLVM_fragment 384 128] $xmm12
	#DEBUG_VALUE: encrypt_xor_wide:ts <- [DW_OP_LLVM_fragment 512 128] $xmm5
	#DEBUG_VALUE: encrypt_xor_wide:ts <- [DW_OP_LLVM_fragment 640 128] $xmm6
	.loc	2 0 21 is_stmt 0                # crypto_aead/aes256gcm/aesni/aead_aes256gcm_aesni.c:0:21
	vmovdqa	192(%r15), %xmm8
.Ltmp616:
	#DEBUG_VALUE: encrypt_xor_wide:j <- 0
	.loc	2 224 37 is_stmt 1              # crypto_aead/aes256gcm/aesni/aead_aes256gcm_aesni.c:224:37 @[ crypto_aead/aes256gcm/aesni/aead_aes256gcm_aesni.c:303:12 @[ crypto_aead/aes256gcm/aesni/aead_aes256gcm_aesni.c:453:17 @[ crypto_aead/aes256gcm/aesni/aead_aes256gcm_aesni.c:770:5 ] ] ]
	vpclmulqdq	$0, %xmm3, %xmm11, %xmm10
.Ltmp617:
	#DEBUG_VALUE: gcm_reduce:x <- [DW_OP_LLVM_fragment 128 128] $xmm10
	#DEBUG_VALUE: aes_gcm_encrypt_generic:u <- [DW_OP_LLVM_fragment 128 128] $xmm10
	#DEBUG_VALUE: gcm_reduce:x <- [DW_OP_LLVM_fragment 128 128] $xmm10
	#DEBUG_VALUE: gcm_reduce:x <- [DW_OP_LLVM_fragment 128 128] $xmm10
	#DEBUG_VALUE: gcm_reduce:x <- [DW_OP_LLVM_fragment 128 128] $xmm10
	#DEBUG_VALUE: gcm_reduce:x <- [DW_OP_LLVM_fragment 128 128] $xmm10
	#DEBUG_VALUE: gcm_reduce:x <- [DW_OP_LLVM_fragment 128 128] $xmm10
	#DEBUG_VALUE: gcm_reduce:x <- [DW_OP_LLVM_fragment 128 128] $xmm10
	#DEBUG_VALUE: clmul128:r_lo <- $xmm10
	.loc	2 179 21                        # crypto_aead/aes256gcm/aesni/aead_aes256gcm_aesni.c:179:21 @[ crypto_aead/aes256gcm/aesni/aead_aes256gcm_aesni.c:459:13 @[ crypto_aead/aes256gcm/aesni/aead_aes256gcm_aesni.c:770:5 ] ]
	vaesenc	%xmm8, %xmm1, %xmm1
.Ltmp618:
	#DEBUG_VALUE: encrypt_xor_wide:ts <- [DW_OP_LLVM_fragment 0 128] $xmm1
	#DEBUG_VALUE: encrypt_xor_wide:j <- 1
	vaesenc	%xmm8, %xmm2, %xmm2
.Ltmp619:
	#DEBUG_VALUE: encrypt_xor_wide:ts <- [DW_OP_LLVM_fragment 128 128] $xmm2
	#DEBUG_VALUE: encrypt_xor_wide:j <- 2
	vaesenc	%xmm8, %xmm15, %xmm15
.Ltmp620:
	#DEBUG_VALUE: encrypt_xor_wide:ts <- [DW_OP_LLVM_fragment 256 128] $xmm15
	#DEBUG_VALUE: encrypt_xor_wide:j <- 3
	vaesenc	%xmm8, %xmm12, %xmm12
.Ltmp621:
	#DEBUG_VALUE: encrypt_xor_wide:ts <- [DW_OP_LLVM_fragment 384 128] $xmm12
	#DEBUG_VALUE: encrypt_xor_wide:j <- 4
	vaesenc	%xmm8, %xmm5, %xmm5
.Ltmp622:
	#DEBUG_VALUE: encrypt_xor_wide:ts <- [DW_OP_LLVM_fragment 512 128] $xmm5
	#DEBUG_VALUE: encrypt_xor_wide:j <- 5
	vaesenc	%xmm8, %xmm6, %xmm13
.Ltmp623:
	#DEBUG_VALUE: encrypt_xor_wide:ts <- [DW_OP_LLVM_fragment 640 128] $xmm13
	#DEBUG_VALUE: encrypt_xor_wide:j <- 6
	vaesenc	%xmm8, %xmm7, %xmm14
.Ltmp624:
	#DEBUG_VALUE: encrypt_xor_wide:ts <- [DW_OP_LLVM_fragment 768 128] $xmm14
	#DEBUG_VALUE: encrypt_xor_wide:j <- 7
	#DEBUG_VALUE: encrypt_xor_wide:i <- 13
	#DEBUG_VALUE: encrypt_xor_wide:ts <- [DW_OP_LLVM_fragment 0 128] $xmm1
	#DEBUG_VALUE: encrypt_xor_wide:ts <- [DW_OP_LLVM_fragment 128 128] $xmm2
	#DEBUG_VALUE: encrypt_xor_wide:ts <- [DW_OP_LLVM_fragment 256 128] $xmm15
	#DEBUG_VALUE: encrypt_xor_wide:ts <- [DW_OP_LLVM_fragment 384 128] $xmm12
	#DEBUG_VALUE: encrypt_xor_wide:ts <- [DW_OP_LLVM_fragment 512 128] $xmm5
	#DEBUG_VALUE: encrypt_xor_wide:ts <- [DW_OP_LLVM_fragment 640 128] $xmm13
	.loc	2 0 21 is_stmt 0                # crypto_aead/aes256gcm/aesni/aead_aes256gcm_aesni.c:0:21
	vmovdqa	208(%r15), %xmm0
.Ltmp625:
	#DEBUG_VALUE: encrypt_xor_wide:j <- 0
	.loc	2 225 53 is_stmt 1              # crypto_aead/aes256gcm/aesni/aead_aes256gcm_aesni.c:225:53 @[ crypto_aead/aes256gcm/aesni/aead_aes256gcm_aesni.c:303:12 @[ crypto_aead/aes256gcm/aesni/aead_aes256gcm_aesni.c:453:17 @[ crypto_aead/aes256gcm/aesni/aead_aes256gcm_aesni.c:770:5 ] ] ]
	vpclmulqdq	$1, %xmm3, %xmm11, %xmm4
.Ltmp626:
	.loc	2 179 21                        # crypto_aead/aes256gcm/aesni/aead_aes256gcm_aesni.c:179:21 @[ crypto_aead/aes256gcm/aesni/aead_aes256gcm_aesni.c:459:13 @[ crypto_aead/aes256gcm/aesni/aead_aes256gcm_aesni.c:770:5 ] ]
	vaesenc	%xmm0, %xmm1, %xmm8
.Ltmp627:
	#DEBUG_VALUE: encrypt_xor_wide:ts <- [DW_OP_LLVM_fragment 0 128] $xmm8
	#DEBUG_VALUE: encrypt_xor_wide:j <- 1
	vaesenc	%xmm0, %xmm2, %xmm7
.Ltmp628:
	#DEBUG_VALUE: encrypt_xor_wide:ts <- [DW_OP_LLVM_fragment 128 128] $xmm7
	#DEBUG_VALUE: encrypt_xor_wide:j <- 2
	vaesenc	%xmm0, %xmm15, %xmm6
.Ltmp629:
	#DEBUG_VALUE: encrypt_xor_wide:ts <- [DW_OP_LLVM_fragment 256 128] $xmm6
	#DEBUG_VALUE: encrypt_xor_wide:j <- 3
	vaesenc	%xmm0, %xmm12, %xmm15
.Ltmp630:
	#DEBUG_VALUE: encrypt_xor_wide:ts <- [DW_OP_LLVM_fragment 384 128] $xmm15
	#DEBUG_VALUE: encrypt_xor_wide:j <- 4
	vaesenc	%xmm0, %xmm5, %xmm5
.Ltmp631:
	#DEBUG_VALUE: encrypt_xor_wide:ts <- [DW_OP_LLVM_fragment 512 128] $xmm5
	#DEBUG_VALUE: encrypt_xor_wide:j <- 5
	vaesenc	%xmm0, %xmm13, %xmm1
.Ltmp632:
	#DEBUG_VALUE: encrypt_xor_wide:ts <- [DW_OP_LLVM_fragment 640 128] $xmm1
	#DEBUG_VALUE: encrypt_xor_wide:j <- 6
	.loc	2 0 21 is_stmt 0                # crypto_aead/aes256gcm/aesni/aead_aes256gcm_aesni.c:0:21
	vmovdqa	%xmm1, 112(%rsp)                # 16-byte Spill
.Ltmp633:
	#DEBUG_VALUE: encrypt_xor_wide:ts <- [DW_OP_plus_uconst 112, DW_OP_deref, DW_OP_LLVM_fragment 640 128] $rsp
	.loc	2 455 50 is_stmt 1              # crypto_aead/aes256gcm/aesni/aead_aes256gcm_aesni.c:455:50 @[ crypto_aead/aes256gcm/aesni/aead_aes256gcm_aesni.c:770:5 ]
	vmovdqa	432(%r15), %xmm12
.Ltmp634:
	#DEBUG_VALUE: clmul128:y <- $xmm12
	#DEBUG_VALUE: gh_update:hn <- $xmm12
	.loc	2 179 21                        # crypto_aead/aes256gcm/aesni/aead_aes256gcm_aesni.c:179:21 @[ crypto_aead/aes256gcm/aesni/aead_aes256gcm_aesni.c:459:13 @[ crypto_aead/aes256gcm/aesni/aead_aes256gcm_aesni.c:770:5 ] ]
	vaesenc	%xmm0, %xmm14, %xmm0
.Ltmp635:
	#DEBUG_VALUE: encrypt_xor_wide:ts <- [DW_OP_LLVM_fragment 768 128] $xmm0
	#DEBUG_VALUE: encrypt_xor_wide:j <- 7
	#DEBUG_VALUE: encrypt_xor_wide:i <- 14
	.loc	2 0 21 is_stmt 0                # crypto_aead/aes256gcm/aesni/aead_aes256gcm_aesni.c:0:21
	vmovdqa	%xmm0, 48(%rsp)                 # 16-byte Spill
.Ltmp636:
	#DEBUG_VALUE: encrypt_xor_wide:ts <- [DW_OP_plus_uconst 48, DW_OP_deref, DW_OP_LLVM_fragment 768 128] $rsp
	.loc	2 225 157 is_stmt 1             # crypto_aead/aes256gcm/aesni/aead_aes256gcm_aesni.c:225:157 @[ crypto_aead/aes256gcm/aesni/aead_aes256gcm_aesni.c:303:12 @[ crypto_aead/aes256gcm/aesni/aead_aes256gcm_aesni.c:453:17 @[ crypto_aead/aes256gcm/aesni/aead_aes256gcm_aesni.c:770:5 ] ] ]
	vpclmulqdq	$16, %xmm3, %xmm11, %xmm0
	vmovdqa	96(%rsp), %xmm1                 # 16-byte Reload
.Ltmp637:
	.loc	2 308 24                        # crypto_aead/aes256gcm/aesni/aead_aes256gcm_aesni.c:308:24 @[ crypto_aead/aes256gcm/aesni/aead_aes256gcm_aesni.c:455:17 @[ crypto_aead/aes256gcm/aesni/aead_aes256gcm_aesni.c:770:5 ] ]
	vpshufb	.LCPI1_1(%rip), %xmm1, %xmm3    # xmm3 = xmm1[15,14,13,12,11,10,9,8,7,6,5,4,3,2,1,0]
.Ltmp638:
	#DEBUG_VALUE: clmul128:x <- $xmm3
	#DEBUG_VALUE: gh_update:m <- $xmm3
	.loc	2 223 37                        # crypto_aead/aes256gcm/aesni/aead_aes256gcm_aesni.c:223:37 @[ crypto_aead/aes256gcm/aesni/aead_aes256gcm_aesni.c:309:20 @[ crypto_aead/aes256gcm/aesni/aead_aes256gcm_aesni.c:455:17 @[ crypto_aead/aes256gcm/aesni/aead_aes256gcm_aesni.c:770:5 ] ] ]
	vpclmulqdq	$17, %xmm12, %xmm3, %xmm11
.Ltmp639:
	#DEBUG_VALUE: gh_update:t <- [DW_OP_LLVM_fragment 0 128] $xmm11
	#DEBUG_VALUE: clmul128:r_hi <- $xmm11
	.loc	2 224 37                        # crypto_aead/aes256gcm/aesni/aead_aes256gcm_aesni.c:224:37 @[ crypto_aead/aes256gcm/aesni/aead_aes256gcm_aesni.c:309:20 @[ crypto_aead/aes256gcm/aesni/aead_aes256gcm_aesni.c:455:17 @[ crypto_aead/aes256gcm/aesni/aead_aes256gcm_aesni.c:770:5 ] ] ]
	vpclmulqdq	$0, %xmm12, %xmm3, %xmm13
.Ltmp640:
	#DEBUG_VALUE: gh_update:t <- [DW_OP_LLVM_fragment 128 128] $xmm13
	#DEBUG_VALUE: clmul128:r_lo <- $xmm13
	.loc	2 225 53                        # crypto_aead/aes256gcm/aesni/aead_aes256gcm_aesni.c:225:53 @[ crypto_aead/aes256gcm/aesni/aead_aes256gcm_aesni.c:309:20 @[ crypto_aead/aes256gcm/aesni/aead_aes256gcm_aesni.c:455:17 @[ crypto_aead/aes256gcm/aesni/aead_aes256gcm_aesni.c:770:5 ] ] ]
	vpclmulqdq	$1, %xmm12, %xmm3, %xmm14
	.loc	2 225 157 is_stmt 0             # crypto_aead/aes256gcm/aesni/aead_aes256gcm_aesni.c:225:157 @[ crypto_aead/aes256gcm/aesni/aead_aes256gcm_aesni.c:309:20 @[ crypto_aead/aes256gcm/aesni/aead_aes256gcm_aesni.c:455:17 @[ crypto_aead/aes256gcm/aesni/aead_aes256gcm_aesni.c:770:5 ] ] ]
	vpclmulqdq	$16, %xmm12, %xmm3, %xmm3
.Ltmp641:
	#DEBUG_VALUE: gcm_reduce:x <- [DW_OP_LLVM_fragment 128 128] undef
	#DEBUG_VALUE: aes_gcm_encrypt_generic:u <- [DW_OP_LLVM_fragment 128 128] undef
	#DEBUG_VALUE: gcm_reduce:x <- [DW_OP_LLVM_fragment 128 128] undef
	#DEBUG_VALUE: gcm_reduce:x <- [DW_OP_LLVM_fragment 128 128] undef
	#DEBUG_VALUE: gcm_reduce:x <- [DW_OP_LLVM_fragment 128 128] undef
	#DEBUG_VALUE: gcm_reduce:x <- [DW_OP_LLVM_fragment 128 128] undef
	#DEBUG_VALUE: gcm_reduce:x <- [DW_OP_LLVM_fragment 128 128] undef
	#DEBUG_VALUE: gcm_reduce:x <- [DW_OP_LLVM_fragment 128 128] undef
	.loc	2 308 42 is_stmt 1              # crypto_aead/aes256gcm/aesni/aead_aes256gcm_aesni.c:308:42 @[ crypto_aead/aes256gcm/aesni/aead_aes256gcm_aesni.c:455:17 @[ crypto_aead/aes256gcm/aesni/aead_aes256gcm_aesni.c:770:5 ] ]
	vmovdqu	-288(%rdi,%rbp), %xmm12
.Ltmp642:
	.loc	2 225 28                        # crypto_aead/aes256gcm/aesni/aead_aes256gcm_aesni.c:225:28 @[ crypto_aead/aes256gcm/aesni/aead_aes256gcm_aesni.c:309:20 @[ crypto_aead/aes256gcm/aesni/aead_aes256gcm_aesni.c:455:17 @[ crypto_aead/aes256gcm/aesni/aead_aes256gcm_aesni.c:770:5 ] ] ]
	vpxor	%xmm3, %xmm14, %xmm14
.Ltmp643:
	#DEBUG_VALUE: gcm_reduce:x <- [DW_OP_LLVM_fragment 256 128] undef
	#DEBUG_VALUE: aes_gcm_encrypt_generic:u <- [DW_OP_LLVM_fragment 256 128] undef
	#DEBUG_VALUE: gcm_reduce:x <- [DW_OP_LLVM_fragment 256 128] undef
	#DEBUG_VALUE: gcm_reduce:x <- [DW_OP_LLVM_fragment 256 128] undef
	#DEBUG_VALUE: gcm_reduce:x <- [DW_OP_LLVM_fragment 256 128] undef
	#DEBUG_VALUE: gcm_reduce:x <- [DW_OP_LLVM_fragment 256 128] undef
	#DEBUG_VALUE: gcm_reduce:x <- [DW_OP_LLVM_fragment 256 128] undef
	#DEBUG_VALUE: gcm_reduce:x <- [DW_OP_LLVM_fragment 256 128] undef
	.loc	2 455 50                        # crypto_aead/aes256gcm/aesni/aead_aes256gcm_aesni.c:455:50 @[ crypto_aead/aes256gcm/aesni/aead_aes256gcm_aesni.c:770:5 ]
	vmovdqa	416(%r15), %xmm3
.Ltmp644:
	#DEBUG_VALUE: clmul128:y <- $xmm3
	#DEBUG_VALUE: gh_update:hn <- $xmm3
	.loc	2 308 24                        # crypto_aead/aes256gcm/aesni/aead_aes256gcm_aesni.c:308:24 @[ crypto_aead/aes256gcm/aesni/aead_aes256gcm_aesni.c:455:17 @[ crypto_aead/aes256gcm/aesni/aead_aes256gcm_aesni.c:770:5 ] ]
	vpshufb	.LCPI1_1(%rip), %xmm12, %xmm12  # xmm12 = xmm12[15,14,13,12,11,10,9,8,7,6,5,4,3,2,1,0]
.Ltmp645:
	#DEBUG_VALUE: clmul128:x <- $xmm12
	#DEBUG_VALUE: gh_update:m <- $xmm12
	.loc	2 223 37                        # crypto_aead/aes256gcm/aesni/aead_aes256gcm_aesni.c:223:37 @[ crypto_aead/aes256gcm/aesni/aead_aes256gcm_aesni.c:309:20 @[ crypto_aead/aes256gcm/aesni/aead_aes256gcm_aesni.c:455:17 @[ crypto_aead/aes256gcm/aesni/aead_aes256gcm_aesni.c:770:5 ] ] ]
	vpclmulqdq	$17, %xmm3, %xmm12, %xmm1
.Ltmp646:
	#DEBUG_VALUE: gh_update:t <- [DW_OP_LLVM_fragment 0 128] $xmm1
	#DEBUG_VALUE: clmul128:r_hi <- $xmm1
	.loc	2 248 12                        # crypto_aead/aes256gcm/aesni/aead_aes256gcm_aesni.c:248:12 @[ crypto_aead/aes256gcm/aesni/aead_aes256gcm_aesni.c:470:24 @[ crypto_aead/aes256gcm/aesni/aead_aes256gcm_aesni.c:770:5 ] ]
	vpxor	%xmm1, %xmm11, %xmm1
.Ltmp647:
	.loc	2 225 28                        # crypto_aead/aes256gcm/aesni/aead_aes256gcm_aesni.c:225:28 @[ crypto_aead/aes256gcm/aesni/aead_aes256gcm_aesni.c:303:12 @[ crypto_aead/aes256gcm/aesni/aead_aes256gcm_aesni.c:453:17 @[ crypto_aead/aes256gcm/aesni/aead_aes256gcm_aesni.c:770:5 ] ] ]
	vpxor	%xmm4, %xmm0, %xmm11
.Ltmp648:
	#DEBUG_VALUE: clmul128:r_mid <- $xmm11
	.loc	2 224 37                        # crypto_aead/aes256gcm/aesni/aead_aes256gcm_aesni.c:224:37 @[ crypto_aead/aes256gcm/aesni/aead_aes256gcm_aesni.c:309:20 @[ crypto_aead/aes256gcm/aesni/aead_aes256gcm_aesni.c:455:17 @[ crypto_aead/aes256gcm/aesni/aead_aes256gcm_aesni.c:770:5 ] ] ]
	vpclmulqdq	$0, %xmm3, %xmm12, %xmm0
.Ltmp649:
	#DEBUG_VALUE: gh_update:t <- [DW_OP_LLVM_fragment 128 128] $xmm0
	#DEBUG_VALUE: clmul128:r_lo <- $xmm0
	.loc	2 310 63                        # crypto_aead/aes256gcm/aesni/aead_aes256gcm_aesni.c:310:63 @[ crypto_aead/aes256gcm/aesni/aead_aes256gcm_aesni.c:455:17 @[ crypto_aead/aes256gcm/aesni/aead_aes256gcm_aesni.c:770:5 ] ]
	vpxor	%xmm0, %xmm13, %xmm4
	.loc	2 308 42                        # crypto_aead/aes256gcm/aesni/aead_aes256gcm_aesni.c:308:42 @[ crypto_aead/aes256gcm/aesni/aead_aes256gcm_aesni.c:455:17 @[ crypto_aead/aes256gcm/aesni/aead_aes256gcm_aesni.c:770:5 ] ]
	vmovdqu	-272(%rdi,%rbp), %xmm13
.Ltmp650:
	.loc	2 248 12                        # crypto_aead/aes256gcm/aesni/aead_aes256gcm_aesni.c:248:12 @[ crypto_aead/aes256gcm/aesni/aead_aes256gcm_aesni.c:470:24 @[ crypto_aead/aes256gcm/aesni/aead_aes256gcm_aesni.c:770:5 ] ]
	vpxor	%xmm1, %xmm9, %xmm0
.Ltmp651:
	.loc	2 455 50                        # crypto_aead/aes256gcm/aesni/aead_aes256gcm_aesni.c:455:50 @[ crypto_aead/aes256gcm/aesni/aead_aes256gcm_aesni.c:770:5 ]
	vmovdqa	400(%r15), %xmm1
.Ltmp652:
	#DEBUG_VALUE: clmul128:y <- $xmm1
	#DEBUG_VALUE: gh_update:hn <- $xmm1
	.loc	2 310 63                        # crypto_aead/aes256gcm/aesni/aead_aes256gcm_aesni.c:310:63 @[ crypto_aead/aes256gcm/aesni/aead_aes256gcm_aesni.c:455:17 @[ crypto_aead/aes256gcm/aesni/aead_aes256gcm_aesni.c:770:5 ] ]
	vpxor	%xmm4, %xmm10, %xmm4
.Ltmp653:
	.loc	2 225 53                        # crypto_aead/aes256gcm/aesni/aead_aes256gcm_aesni.c:225:53 @[ crypto_aead/aes256gcm/aesni/aead_aes256gcm_aesni.c:309:20 @[ crypto_aead/aes256gcm/aesni/aead_aes256gcm_aesni.c:455:17 @[ crypto_aead/aes256gcm/aesni/aead_aes256gcm_aesni.c:770:5 ] ] ]
	vpclmulqdq	$1, %xmm3, %xmm12, %xmm9
.Ltmp654:
	.loc	2 311 26                        # crypto_aead/aes256gcm/aesni/aead_aes256gcm_aesni.c:311:26 @[ crypto_aead/aes256gcm/aesni/aead_aes256gcm_aesni.c:455:17 @[ crypto_aead/aes256gcm/aesni/aead_aes256gcm_aesni.c:770:5 ] ]
	vpxor	%xmm9, %xmm14, %xmm9
.Ltmp655:
	.loc	2 225 157                       # crypto_aead/aes256gcm/aesni/aead_aes256gcm_aesni.c:225:157 @[ crypto_aead/aes256gcm/aesni/aead_aes256gcm_aesni.c:309:20 @[ crypto_aead/aes256gcm/aesni/aead_aes256gcm_aesni.c:455:17 @[ crypto_aead/aes256gcm/aesni/aead_aes256gcm_aesni.c:770:5 ] ] ]
	vpclmulqdq	$16, %xmm3, %xmm12, %xmm3
.Ltmp656:
	#DEBUG_VALUE: gcm_reduce:x <- [DW_OP_LLVM_fragment 128 128] $xmm4
	#DEBUG_VALUE: aes_gcm_encrypt_generic:u <- [DW_OP_LLVM_fragment 128 128] $xmm4
	#DEBUG_VALUE: gcm_reduce:x <- [DW_OP_LLVM_fragment 128 128] $xmm4
	#DEBUG_VALUE: gcm_reduce:x <- [DW_OP_LLVM_fragment 128 128] $xmm4
	#DEBUG_VALUE: gcm_reduce:x <- [DW_OP_LLVM_fragment 128 128] $xmm4
	#DEBUG_VALUE: gcm_reduce:x <- [DW_OP_LLVM_fragment 128 128] $xmm4
	#DEBUG_VALUE: gcm_reduce:x <- [DW_OP_LLVM_fragment 128 128] $xmm4
	#DEBUG_VALUE: gcm_reduce:x <- [DW_OP_LLVM_fragment 128 128] $xmm4
	#DEBUG_VALUE: gcm_reduce:x <- [DW_OP_LLVM_fragment 256 128] undef
	#DEBUG_VALUE: aes_gcm_encrypt_generic:u <- [DW_OP_LLVM_fragment 256 128] undef
	#DEBUG_VALUE: gcm_reduce:x <- [DW_OP_LLVM_fragment 256 128] undef
	#DEBUG_VALUE: gcm_reduce:x <- [DW_OP_LLVM_fragment 256 128] undef
	#DEBUG_VALUE: gcm_reduce:x <- [DW_OP_LLVM_fragment 256 128] undef
	#DEBUG_VALUE: gcm_reduce:x <- [DW_OP_LLVM_fragment 256 128] undef
	#DEBUG_VALUE: gcm_reduce:x <- [DW_OP_LLVM_fragment 256 128] undef
	#DEBUG_VALUE: gcm_reduce:x <- [DW_OP_LLVM_fragment 256 128] undef
	.loc	2 308 24                        # crypto_aead/aes256gcm/aesni/aead_aes256gcm_aesni.c:308:24 @[ crypto_aead/aes256gcm/aesni/aead_aes256gcm_aesni.c:455:17 @[ crypto_aead/aes256gcm/aesni/aead_aes256gcm_aesni.c:770:5 ] ]
	vpshufb	.LCPI1_1(%rip), %xmm13, %xmm10  # xmm10 = xmm13[15,14,13,12,11,10,9,8,7,6,5,4,3,2,1,0]
.Ltmp657:
	#DEBUG_VALUE: clmul128:x <- $xmm10
	#DEBUG_VALUE: gh_update:m <- $xmm10
	.loc	2 223 37                        # crypto_aead/aes256gcm/aesni/aead_aes256gcm_aesni.c:223:37 @[ crypto_aead/aes256gcm/aesni/aead_aes256gcm_aesni.c:309:20 @[ crypto_aead/aes256gcm/aesni/aead_aes256gcm_aesni.c:455:17 @[ crypto_aead/aes256gcm/aesni/aead_aes256gcm_aesni.c:770:5 ] ] ]
	vpclmulqdq	$17, %xmm1, %xmm10, %xmm12
.Ltmp658:
	#DEBUG_VALUE: gh_update:t <- [DW_OP_LLVM_fragment 0 128] $xmm12
	#DEBUG_VALUE: clmul128:r_hi <- $xmm12
	#DEBUG_VALUE: gh_update:t <- [DW_OP_LLVM_fragment 128 128] undef
	#DEBUG_VALUE: clmul128:r_lo <- undef
	.loc	2 225 53                        # crypto_aead/aes256gcm/aesni/aead_aes256gcm_aesni.c:225:53 @[ crypto_aead/aes256gcm/aesni/aead_aes256gcm_aesni.c:309:20 @[ crypto_aead/aes256gcm/aesni/aead_aes256gcm_aesni.c:455:17 @[ crypto_aead/aes256gcm/aesni/aead_aes256gcm_aesni.c:770:5 ] ] ]
	vpclmulqdq	$1, %xmm1, %xmm10, %xmm13
.Ltmp659:
	.loc	2 311 26                        # crypto_aead/aes256gcm/aesni/aead_aes256gcm_aesni.c:311:26 @[ crypto_aead/aes256gcm/aesni/aead_aes256gcm_aesni.c:455:17 @[ crypto_aead/aes256gcm/aesni/aead_aes256gcm_aesni.c:770:5 ] ]
	vpxor	%xmm3, %xmm13, %xmm3
.Ltmp660:
	.loc	2 224 37                        # crypto_aead/aes256gcm/aesni/aead_aes256gcm_aesni.c:224:37 @[ crypto_aead/aes256gcm/aesni/aead_aes256gcm_aesni.c:309:20 @[ crypto_aead/aes256gcm/aesni/aead_aes256gcm_aesni.c:455:17 @[ crypto_aead/aes256gcm/aesni/aead_aes256gcm_aesni.c:770:5 ] ] ]
	vpclmulqdq	$0, %xmm1, %xmm10, %xmm13
.Ltmp661:
	#DEBUG_VALUE: clmul128:r_lo <- $xmm13
	#DEBUG_VALUE: gh_update:t <- [DW_OP_LLVM_fragment 128 128] $xmm13
	.loc	2 225 157                       # crypto_aead/aes256gcm/aesni/aead_aes256gcm_aesni.c:225:157 @[ crypto_aead/aes256gcm/aesni/aead_aes256gcm_aesni.c:309:20 @[ crypto_aead/aes256gcm/aesni/aead_aes256gcm_aesni.c:455:17 @[ crypto_aead/aes256gcm/aesni/aead_aes256gcm_aesni.c:770:5 ] ] ]
	vpclmulqdq	$16, %xmm1, %xmm10, %xmm1
.Ltmp662:
	#DEBUG_VALUE: gcm_reduce:x <- [DW_OP_LLVM_fragment 128 128] undef
	#DEBUG_VALUE: aes_gcm_encrypt_generic:u <- [DW_OP_LLVM_fragment 128 128] undef
	#DEBUG_VALUE: gcm_reduce:x <- [DW_OP_LLVM_fragment 128 128] undef
	#DEBUG_VALUE: gcm_reduce:x <- [DW_OP_LLVM_fragment 128 128] undef
	#DEBUG_VALUE: gcm_reduce:x <- [DW_OP_LLVM_fragment 128 128] undef
	#DEBUG_VALUE: gcm_reduce:x <- [DW_OP_LLVM_fragment 128 128] undef
	#DEBUG_VALUE: gcm_reduce:x <- [DW_OP_LLVM_fragment 128 128] undef
	#DEBUG_VALUE: gcm_reduce:x <- [DW_OP_LLVM_fragment 128 128] undef
	.loc	2 455 50                        # crypto_aead/aes256gcm/aesni/aead_aes256gcm_aesni.c:455:50 @[ crypto_aead/aes256gcm/aesni/aead_aes256gcm_aesni.c:770:5 ]
	vmovdqa	384(%r15), %xmm10
.Ltmp663:
	#DEBUG_VALUE: clmul128:y <- $xmm10
	#DEBUG_VALUE: gh_update:hn <- $xmm10
	.loc	2 225 28                        # crypto_aead/aes256gcm/aesni/aead_aes256gcm_aesni.c:225:28 @[ crypto_aead/aes256gcm/aesni/aead_aes256gcm_aesni.c:309:20 @[ crypto_aead/aes256gcm/aesni/aead_aes256gcm_aesni.c:455:17 @[ crypto_aead/aes256gcm/aesni/aead_aes256gcm_aesni.c:770:5 ] ] ]
	vpxor	%xmm1, %xmm3, %xmm1
.Ltmp664:
	#DEBUG_VALUE: gcm_reduce:x <- [DW_OP_LLVM_fragment 256 128] undef
	#DEBUG_VALUE: aes_gcm_encrypt_generic:u <- [DW_OP_LLVM_fragment 256 128] undef
	#DEBUG_VALUE: gcm_reduce:x <- [DW_OP_LLVM_fragment 256 128] undef
	#DEBUG_VALUE: gcm_reduce:x <- [DW_OP_LLVM_fragment 256 128] undef
	#DEBUG_VALUE: gcm_reduce:x <- [DW_OP_LLVM_fragment 256 128] undef
	#DEBUG_VALUE: gcm_reduce:x <- [DW_OP_LLVM_fragment 256 128] undef
	#DEBUG_VALUE: gcm_reduce:x <- [DW_OP_LLVM_fragment 256 128] undef
	#DEBUG_VALUE: gcm_reduce:x <- [DW_OP_LLVM_fragment 256 128] undef
	.loc	2 308 42                        # crypto_aead/aes256gcm/aesni/aead_aes256gcm_aesni.c:308:42 @[ crypto_aead/aes256gcm/aesni/aead_aes256gcm_aesni.c:455:17 @[ crypto_aead/aes256gcm/aesni/aead_aes256gcm_aesni.c:770:5 ] ]
	vmovdqu	-256(%rdi,%rbp), %xmm3
	.loc	2 308 24 is_stmt 0              # crypto_aead/aes256gcm/aesni/aead_aes256gcm_aesni.c:308:24 @[ crypto_aead/aes256gcm/aesni/aead_aes256gcm_aesni.c:455:17 @[ crypto_aead/aes256gcm/aesni/aead_aes256gcm_aesni.c:770:5 ] ]
	vpshufb	.LCPI1_1(%rip), %xmm3, %xmm3    # xmm3 = xmm3[15,14,13,12,11,10,9,8,7,6,5,4,3,2,1,0]
.Ltmp665:
	#DEBUG_VALUE: clmul128:x <- $xmm3
	#DEBUG_VALUE: gh_update:m <- $xmm3
	.loc	2 223 37 is_stmt 1              # crypto_aead/aes256gcm/aesni/aead_aes256gcm_aesni.c:223:37 @[ crypto_aead/aes256gcm/aesni/aead_aes256gcm_aesni.c:309:20 @[ crypto_aead/aes256gcm/aesni/aead_aes256gcm_aesni.c:455:17 @[ crypto_aead/aes256gcm/aesni/aead_aes256gcm_aesni.c:770:5 ] ] ]
	vpclmulqdq	$17, %xmm10, %xmm3, %xmm14
.Ltmp666:
	#DEBUG_VALUE: gh_update:t <- [DW_OP_LLVM_fragment 0 128] $xmm14
	#DEBUG_VALUE: clmul128:r_hi <- $xmm14
	.loc	2 310 25                        # crypto_aead/aes256gcm/aesni/aead_aes256gcm_aesni.c:310:25 @[ crypto_aead/aes256gcm/aesni/aead_aes256gcm_aesni.c:455:17 @[ crypto_aead/aes256gcm/aesni/aead_aes256gcm_aesni.c:770:5 ] ]
	vpxor	%xmm14, %xmm12, %xmm12
.Ltmp667:
	.loc	2 224 37                        # crypto_aead/aes256gcm/aesni/aead_aes256gcm_aesni.c:224:37 @[ crypto_aead/aes256gcm/aesni/aead_aes256gcm_aesni.c:309:20 @[ crypto_aead/aes256gcm/aesni/aead_aes256gcm_aesni.c:455:17 @[ crypto_aead/aes256gcm/aesni/aead_aes256gcm_aesni.c:770:5 ] ] ]
	vpclmulqdq	$0, %xmm10, %xmm3, %xmm14
.Ltmp668:
	#DEBUG_VALUE: gh_update:t <- [DW_OP_LLVM_fragment 128 128] $xmm14
	#DEBUG_VALUE: clmul128:r_lo <- $xmm14
	.loc	2 310 63                        # crypto_aead/aes256gcm/aesni/aead_aes256gcm_aesni.c:310:63 @[ crypto_aead/aes256gcm/aesni/aead_aes256gcm_aesni.c:455:17 @[ crypto_aead/aes256gcm/aesni/aead_aes256gcm_aesni.c:770:5 ] ]
	vpxor	%xmm14, %xmm13, %xmm13
.Ltmp669:
	.loc	2 225 28                        # crypto_aead/aes256gcm/aesni/aead_aes256gcm_aesni.c:225:28 @[ crypto_aead/aes256gcm/aesni/aead_aes256gcm_aesni.c:309:20 @[ crypto_aead/aes256gcm/aesni/aead_aes256gcm_aesni.c:455:17 @[ crypto_aead/aes256gcm/aesni/aead_aes256gcm_aesni.c:770:5 ] ] ]
	vpxor	%xmm9, %xmm11, %xmm9
	.loc	2 225 53 is_stmt 0              # crypto_aead/aes256gcm/aesni/aead_aes256gcm_aesni.c:225:53 @[ crypto_aead/aes256gcm/aesni/aead_aes256gcm_aesni.c:309:20 @[ crypto_aead/aes256gcm/aesni/aead_aes256gcm_aesni.c:455:17 @[ crypto_aead/aes256gcm/aesni/aead_aes256gcm_aesni.c:770:5 ] ] ]
	vpclmulqdq	$1, %xmm10, %xmm3, %xmm11
.Ltmp670:
	.loc	2 225 157                       # crypto_aead/aes256gcm/aesni/aead_aes256gcm_aesni.c:225:157 @[ crypto_aead/aes256gcm/aesni/aead_aes256gcm_aesni.c:309:20 @[ crypto_aead/aes256gcm/aesni/aead_aes256gcm_aesni.c:455:17 @[ crypto_aead/aes256gcm/aesni/aead_aes256gcm_aesni.c:770:5 ] ] ]
	vpclmulqdq	$16, %xmm10, %xmm3, %xmm14
.Ltmp671:
	#DEBUG_VALUE: gcm_reduce:x <- [DW_OP_LLVM_fragment 128 128] undef
	#DEBUG_VALUE: aes_gcm_encrypt_generic:u <- [DW_OP_LLVM_fragment 128 128] undef
	#DEBUG_VALUE: gcm_reduce:x <- [DW_OP_LLVM_fragment 128 128] undef
	#DEBUG_VALUE: gcm_reduce:x <- [DW_OP_LLVM_fragment 128 128] undef
	#DEBUG_VALUE: gcm_reduce:x <- [DW_OP_LLVM_fragment 128 128] undef
	#DEBUG_VALUE: gcm_reduce:x <- [DW_OP_LLVM_fragment 128 128] undef
	#DEBUG_VALUE: gcm_reduce:x <- [DW_OP_LLVM_fragment 128 128] undef
	#DEBUG_VALUE: gcm_reduce:x <- [DW_OP_LLVM_fragment 128 128] undef
	#DEBUG_VALUE: gcm_reduce:x <- [DW_OP_LLVM_fragment 256 128] undef
	#DEBUG_VALUE: aes_gcm_encrypt_generic:u <- [DW_OP_LLVM_fragment 256 128] undef
	#DEBUG_VALUE: gcm_reduce:x <- [DW_OP_LLVM_fragment 256 128] undef
	#DEBUG_VALUE: gcm_reduce:x <- [DW_OP_LLVM_fragment 256 128] undef
	#DEBUG_VALUE: gcm_reduce:x <- [DW_OP_LLVM_fragment 256 128] undef
	#DEBUG_VALUE: gcm_reduce:x <- [DW_OP_LLVM_fragment 256 128] undef
	#DEBUG_VALUE: gcm_reduce:x <- [DW_OP_LLVM_fragment 256 128] undef
	#DEBUG_VALUE: gcm_reduce:x <- [DW_OP_LLVM_fragment 256 128] undef
	.loc	2 308 42 is_stmt 1              # crypto_aead/aes256gcm/aesni/aead_aes256gcm_aesni.c:308:42 @[ crypto_aead/aes256gcm/aesni/aead_aes256gcm_aesni.c:455:17 @[ crypto_aead/aes256gcm/aesni/aead_aes256gcm_aesni.c:770:5 ] ]
	vmovdqu	-240(%rdi,%rbp), %xmm3
.Ltmp672:
	.loc	2 308 24 is_stmt 0              # crypto_aead/aes256gcm/aesni/aead_aes256gcm_aesni.c:308:24 @[ crypto_aead/aes256gcm/aesni/aead_aes256gcm_aesni.c:455:17 @[ crypto_aead/aes256gcm/aesni/aead_aes256gcm_aesni.c:770:5 ] ]
	vpshufb	.LCPI1_1(%rip), %xmm3, %xmm3    # xmm3 = xmm3[15,14,13,12,11,10,9,8,7,6,5,4,3,2,1,0]
.Ltmp673:
	#DEBUG_VALUE: clmul128:x <- $xmm3
	#DEBUG_VALUE: gh_update:m <- $xmm3
	.loc	2 455 50 is_stmt 1              # crypto_aead/aes256gcm/aesni/aead_aes256gcm_aesni.c:455:50 @[ crypto_aead/aes256gcm/aesni/aead_aes256gcm_aesni.c:770:5 ]
	vmovdqa	368(%r15), %xmm10
.Ltmp674:
	#DEBUG_VALUE: clmul128:y <- $xmm10
	#DEBUG_VALUE: gh_update:hn <- $xmm10
	.loc	2 223 37                        # crypto_aead/aes256gcm/aesni/aead_aes256gcm_aesni.c:223:37 @[ crypto_aead/aes256gcm/aesni/aead_aes256gcm_aesni.c:309:20 @[ crypto_aead/aes256gcm/aesni/aead_aes256gcm_aesni.c:455:17 @[ crypto_aead/aes256gcm/aesni/aead_aes256gcm_aesni.c:770:5 ] ] ]
	vpclmulqdq	$17, %xmm10, %xmm3, %xmm2
.Ltmp675:
	#DEBUG_VALUE: gh_update:t <- [DW_OP_LLVM_fragment 0 128] $xmm2
	#DEBUG_VALUE: clmul128:r_hi <- $xmm2
	.loc	2 310 25                        # crypto_aead/aes256gcm/aesni/aead_aes256gcm_aesni.c:310:25 @[ crypto_aead/aes256gcm/aesni/aead_aes256gcm_aesni.c:455:17 @[ crypto_aead/aes256gcm/aesni/aead_aes256gcm_aesni.c:770:5 ] ]
	vpxor	%xmm2, %xmm12, %xmm2
.Ltmp676:
	.loc	2 311 26                        # crypto_aead/aes256gcm/aesni/aead_aes256gcm_aesni.c:311:26 @[ crypto_aead/aes256gcm/aesni/aead_aes256gcm_aesni.c:455:17 @[ crypto_aead/aes256gcm/aesni/aead_aes256gcm_aesni.c:770:5 ] ]
	vpxor	%xmm1, %xmm11, %xmm1
	.loc	2 310 25                        # crypto_aead/aes256gcm/aesni/aead_aes256gcm_aesni.c:310:25 @[ crypto_aead/aes256gcm/aesni/aead_aes256gcm_aesni.c:455:17 @[ crypto_aead/aes256gcm/aesni/aead_aes256gcm_aesni.c:770:5 ] ]
	vpxor	%xmm2, %xmm0, %xmm0
.Ltmp677:
	.loc	2 224 37                        # crypto_aead/aes256gcm/aesni/aead_aes256gcm_aesni.c:224:37 @[ crypto_aead/aes256gcm/aesni/aead_aes256gcm_aesni.c:309:20 @[ crypto_aead/aes256gcm/aesni/aead_aes256gcm_aesni.c:455:17 @[ crypto_aead/aes256gcm/aesni/aead_aes256gcm_aesni.c:770:5 ] ] ]
	vpclmulqdq	$0, %xmm10, %xmm3, %xmm2
.Ltmp678:
	#DEBUG_VALUE: gh_update:t <- [DW_OP_LLVM_fragment 128 128] $xmm2
	#DEBUG_VALUE: clmul128:r_lo <- $xmm2
	.loc	2 310 63                        # crypto_aead/aes256gcm/aesni/aead_aes256gcm_aesni.c:310:63 @[ crypto_aead/aes256gcm/aesni/aead_aes256gcm_aesni.c:455:17 @[ crypto_aead/aes256gcm/aesni/aead_aes256gcm_aesni.c:770:5 ] ]
	vpxor	%xmm2, %xmm13, %xmm2
.Ltmp679:
	.loc	2 225 53                        # crypto_aead/aes256gcm/aesni/aead_aes256gcm_aesni.c:225:53 @[ crypto_aead/aes256gcm/aesni/aead_aes256gcm_aesni.c:309:20 @[ crypto_aead/aes256gcm/aesni/aead_aes256gcm_aesni.c:455:17 @[ crypto_aead/aes256gcm/aesni/aead_aes256gcm_aesni.c:770:5 ] ] ]
	vpclmulqdq	$1, %xmm10, %xmm3, %xmm11
.Ltmp680:
	.loc	2 311 26                        # crypto_aead/aes256gcm/aesni/aead_aes256gcm_aesni.c:311:26 @[ crypto_aead/aes256gcm/aesni/aead_aes256gcm_aesni.c:455:17 @[ crypto_aead/aes256gcm/aesni/aead_aes256gcm_aesni.c:770:5 ] ]
	vpxor	%xmm11, %xmm14, %xmm11
.Ltmp681:
	.loc	2 455 50                        # crypto_aead/aes256gcm/aesni/aead_aes256gcm_aesni.c:455:50 @[ crypto_aead/aes256gcm/aesni/aead_aes256gcm_aesni.c:770:5 ]
	vmovdqa	352(%r15), %xmm12
.Ltmp682:
	#DEBUG_VALUE: clmul128:y <- $xmm12
	#DEBUG_VALUE: gh_update:hn <- $xmm12
	.loc	2 225 157                       # crypto_aead/aes256gcm/aesni/aead_aes256gcm_aesni.c:225:157 @[ crypto_aead/aes256gcm/aesni/aead_aes256gcm_aesni.c:309:20 @[ crypto_aead/aes256gcm/aesni/aead_aes256gcm_aesni.c:455:17 @[ crypto_aead/aes256gcm/aesni/aead_aes256gcm_aesni.c:770:5 ] ] ]
	vpclmulqdq	$16, %xmm10, %xmm3, %xmm3
.Ltmp683:
	#DEBUG_VALUE: gcm_reduce:x <- [DW_OP_LLVM_fragment 128 128] undef
	#DEBUG_VALUE: aes_gcm_encrypt_generic:u <- [DW_OP_LLVM_fragment 128 128] undef
	#DEBUG_VALUE: gcm_reduce:x <- [DW_OP_LLVM_fragment 128 128] undef
	#DEBUG_VALUE: gcm_reduce:x <- [DW_OP_LLVM_fragment 128 128] undef
	#DEBUG_VALUE: gcm_reduce:x <- [DW_OP_LLVM_fragment 128 128] undef
	#DEBUG_VALUE: gcm_reduce:x <- [DW_OP_LLVM_fragment 128 128] undef
	#DEBUG_VALUE: gcm_reduce:x <- [DW_OP_LLVM_fragment 128 128] undef
	#DEBUG_VALUE: gcm_reduce:x <- [DW_OP_LLVM_fragment 128 128] undef
	.loc	2 308 42                        # crypto_aead/aes256gcm/aesni/aead_aes256gcm_aesni.c:308:42 @[ crypto_aead/aes256gcm/aesni/aead_aes256gcm_aesni.c:455:17 @[ crypto_aead/aes256gcm/aesni/aead_aes256gcm_aesni.c:770:5 ] ]
	vmovdqu	-224(%rdi,%rbp), %xmm10
.Ltmp684:
	.loc	2 225 28                        # crypto_aead/aes256gcm/aesni/aead_aes256gcm_aesni.c:225:28 @[ crypto_aead/aes256gcm/aesni/aead_aes256gcm_aesni.c:309:20 @[ crypto_aead/aes256gcm/aesni/aead_aes256gcm_aesni.c:455:17 @[ crypto_aead/aes256gcm/aesni/aead_aes256gcm_aesni.c:770:5 ] ] ]
	vpxor	%xmm3, %xmm11, %xmm3
.Ltmp685:
	#DEBUG_VALUE: gcm_reduce:x <- [DW_OP_LLVM_fragment 256 128] undef
	#DEBUG_VALUE: aes_gcm_encrypt_generic:u <- [DW_OP_LLVM_fragment 256 128] undef
	#DEBUG_VALUE: gcm_reduce:x <- [DW_OP_LLVM_fragment 256 128] undef
	#DEBUG_VALUE: gcm_reduce:x <- [DW_OP_LLVM_fragment 256 128] undef
	#DEBUG_VALUE: gcm_reduce:x <- [DW_OP_LLVM_fragment 256 128] undef
	#DEBUG_VALUE: gcm_reduce:x <- [DW_OP_LLVM_fragment 256 128] undef
	#DEBUG_VALUE: gcm_reduce:x <- [DW_OP_LLVM_fragment 256 128] undef
	#DEBUG_VALUE: gcm_reduce:x <- [DW_OP_LLVM_fragment 256 128] undef
	.loc	2 308 24                        # crypto_aead/aes256gcm/aesni/aead_aes256gcm_aesni.c:308:24 @[ crypto_aead/aes256gcm/aesni/aead_aes256gcm_aesni.c:455:17 @[ crypto_aead/aes256gcm/aesni/aead_aes256gcm_aesni.c:770:5 ] ]
	vpshufb	.LCPI1_1(%rip), %xmm10, %xmm10  # xmm10 = xmm10[15,14,13,12,11,10,9,8,7,6,5,4,3,2,1,0]
.Ltmp686:
	#DEBUG_VALUE: clmul128:x <- $xmm10
	#DEBUG_VALUE: gh_update:m <- $xmm10
	#DEBUG_VALUE: gh_update:t <- [DW_OP_LLVM_fragment 0 128] undef
	#DEBUG_VALUE: clmul128:r_hi <- undef
	#DEBUG_VALUE: gh_update:t <- [DW_OP_LLVM_fragment 128 128] undef
	#DEBUG_VALUE: clmul128:r_lo <- undef
	.loc	2 225 53                        # crypto_aead/aes256gcm/aesni/aead_aes256gcm_aesni.c:225:53 @[ crypto_aead/aes256gcm/aesni/aead_aes256gcm_aesni.c:309:20 @[ crypto_aead/aes256gcm/aesni/aead_aes256gcm_aesni.c:455:17 @[ crypto_aead/aes256gcm/aesni/aead_aes256gcm_aesni.c:770:5 ] ] ]
	vpclmulqdq	$1, %xmm12, %xmm10, %xmm11
.Ltmp687:
	.loc	2 310 63                        # crypto_aead/aes256gcm/aesni/aead_aes256gcm_aesni.c:310:63 @[ crypto_aead/aes256gcm/aesni/aead_aes256gcm_aesni.c:455:17 @[ crypto_aead/aes256gcm/aesni/aead_aes256gcm_aesni.c:770:5 ] ]
	vpxor	%xmm2, %xmm4, %xmm4
.Ltmp688:
	#DEBUG_VALUE: gcm_reduce:x <- [DW_OP_LLVM_fragment 128 128] $xmm4
	#DEBUG_VALUE: aes_gcm_encrypt_generic:u <- [DW_OP_LLVM_fragment 128 128] $xmm4
	#DEBUG_VALUE: gcm_reduce:x <- [DW_OP_LLVM_fragment 128 128] $xmm4
	#DEBUG_VALUE: gcm_reduce:x <- [DW_OP_LLVM_fragment 128 128] $xmm4
	#DEBUG_VALUE: gcm_reduce:x <- [DW_OP_LLVM_fragment 128 128] $xmm4
	#DEBUG_VALUE: gcm_reduce:x <- [DW_OP_LLVM_fragment 128 128] $xmm4
	#DEBUG_VALUE: gcm_reduce:x <- [DW_OP_LLVM_fragment 128 128] $xmm4
	#DEBUG_VALUE: gcm_reduce:x <- [DW_OP_LLVM_fragment 128 128] $xmm4
	.loc	2 311 26                        # crypto_aead/aes256gcm/aesni/aead_aes256gcm_aesni.c:311:26 @[ crypto_aead/aes256gcm/aesni/aead_aes256gcm_aesni.c:455:17 @[ crypto_aead/aes256gcm/aesni/aead_aes256gcm_aesni.c:770:5 ] ]
	vpxor	%xmm3, %xmm11, %xmm3
.Ltmp689:
	#DEBUG_VALUE: aes_gcm_encrypt_generic:u <- [DW_OP_LLVM_fragment 128 128] undef
	#DEBUG_VALUE: gcm_reduce:x <- [DW_OP_LLVM_fragment 128 128] undef
	#DEBUG_VALUE: gcm_reduce:x <- [DW_OP_LLVM_fragment 128 128] undef
	#DEBUG_VALUE: gcm_reduce:x <- [DW_OP_LLVM_fragment 128 128] undef
	#DEBUG_VALUE: gcm_reduce:x <- [DW_OP_LLVM_fragment 128 128] undef
	#DEBUG_VALUE: gcm_reduce:x <- [DW_OP_LLVM_fragment 128 128] undef
	#DEBUG_VALUE: gcm_reduce:x <- [DW_OP_LLVM_fragment 128 128] undef
	#DEBUG_VALUE: gcm_reduce:x <- [DW_OP_LLVM_fragment 128 128] undef
	#DEBUG_VALUE: aes_gcm_encrypt_generic:u <- [DW_OP_LLVM_fragment 256 128] undef
	#DEBUG_VALUE: gcm_reduce:x <- [DW_OP_LLVM_fragment 256 128] undef
	#DEBUG_VALUE: gcm_reduce:x <- [DW_OP_LLVM_fragment 256 128] undef
	#DEBUG_VALUE: gcm_reduce:x <- [DW_OP_LLVM_fragment 256 128] undef
	#DEBUG_VALUE: gcm_reduce:x <- [DW_OP_LLVM_fragment 256 128] undef
	#DEBUG_VALUE: gcm_reduce:x <- [DW_OP_LLVM_fragment 256 128] undef
	#DEBUG_VALUE: gcm_reduce:x <- [DW_OP_LLVM_fragment 256 128] undef
	#DEBUG_VALUE: gcm_reduce:x <- [DW_OP_LLVM_fragment 256 128] undef
	.loc	2 0 26 is_stmt 0                # crypto_aead/aes256gcm/aesni/aead_aes256gcm_aesni.c:0:26
	vmovdqa	224(%r15), %xmm11
.Ltmp690:
	#DEBUG_VALUE: encrypt_xor_wide:j <- 0
	.loc	2 183 17 is_stmt 1              # crypto_aead/aes256gcm/aesni/aead_aes256gcm_aesni.c:183:17 @[ crypto_aead/aes256gcm/aesni/aead_aes256gcm_aesni.c:459:13 @[ crypto_aead/aes256gcm/aesni/aead_aes256gcm_aesni.c:770:5 ] ]
	vaesenclast	%xmm11, %xmm8, %xmm8
.Ltmp691:
	#DEBUG_VALUE: encrypt_xor_wide:ts <- [DW_OP_LLVM_fragment 0 128] $xmm8
	#DEBUG_VALUE: encrypt_xor_wide:ts <- [DW_OP_LLVM_fragment 0 128] undef
	#DEBUG_VALUE: encrypt_xor_wide:j <- 1
	vaesenclast	%xmm11, %xmm7, %xmm7
.Ltmp692:
	#DEBUG_VALUE: encrypt_xor_wide:ts <- [DW_OP_LLVM_fragment 128 128] $xmm7
	#DEBUG_VALUE: encrypt_xor_wide:ts <- [DW_OP_LLVM_fragment 128 128] undef
	#DEBUG_VALUE: encrypt_xor_wide:j <- 2
	vaesenclast	%xmm11, %xmm6, %xmm6
.Ltmp693:
	#DEBUG_VALUE: encrypt_xor_wide:ts <- [DW_OP_LLVM_fragment 256 128] $xmm6
	#DEBUG_VALUE: encrypt_xor_wide:ts <- [DW_OP_LLVM_fragment 256 128] undef
	#DEBUG_VALUE: encrypt_xor_wide:j <- 3
	vaesenclast	%xmm11, %xmm15, %xmm13
.Ltmp694:
	#DEBUG_VALUE: encrypt_xor_wide:ts <- [DW_OP_LLVM_fragment 384 128] $xmm13
	#DEBUG_VALUE: encrypt_xor_wide:ts <- [DW_OP_LLVM_fragment 384 128] undef
	#DEBUG_VALUE: encrypt_xor_wide:j <- 4
	vaesenclast	%xmm11, %xmm5, %xmm14
.Ltmp695:
	#DEBUG_VALUE: encrypt_xor_wide:ts <- [DW_OP_LLVM_fragment 512 128] $xmm14
	#DEBUG_VALUE: encrypt_xor_wide:ts <- [DW_OP_LLVM_fragment 512 128] undef
	#DEBUG_VALUE: encrypt_xor_wide:j <- 5
	.loc	2 223 37                        # crypto_aead/aes256gcm/aesni/aead_aes256gcm_aesni.c:223:37 @[ crypto_aead/aes256gcm/aesni/aead_aes256gcm_aesni.c:309:20 @[ crypto_aead/aes256gcm/aesni/aead_aes256gcm_aesni.c:455:17 @[ crypto_aead/aes256gcm/aesni/aead_aes256gcm_aesni.c:770:5 ] ] ]
	vpclmulqdq	$17, %xmm12, %xmm10, %xmm5
.Ltmp696:
	#DEBUG_VALUE: clmul128:r_hi <- $xmm5
	#DEBUG_VALUE: gh_update:t <- [DW_OP_LLVM_fragment 0 128] $xmm5
	.loc	2 0 37 is_stmt 0                # crypto_aead/aes256gcm/aesni/aead_aes256gcm_aesni.c:0:37
	vmovdqa	112(%rsp), %xmm2                # 16-byte Reload
.Ltmp697:
	.loc	2 183 17 is_stmt 1              # crypto_aead/aes256gcm/aesni/aead_aes256gcm_aesni.c:183:17 @[ crypto_aead/aes256gcm/aesni/aead_aes256gcm_aesni.c:459:13 @[ crypto_aead/aes256gcm/aesni/aead_aes256gcm_aesni.c:770:5 ] ]
	vaesenclast	%xmm11, %xmm2, %xmm15
.Ltmp698:
	#DEBUG_VALUE: encrypt_xor_wide:ts <- [DW_OP_LLVM_fragment 640 128] $xmm15
	#DEBUG_VALUE: encrypt_xor_wide:ts <- [DW_OP_LLVM_fragment 640 128] undef
	#DEBUG_VALUE: encrypt_xor_wide:j <- 6
	.loc	2 224 37                        # crypto_aead/aes256gcm/aesni/aead_aes256gcm_aesni.c:224:37 @[ crypto_aead/aes256gcm/aesni/aead_aes256gcm_aesni.c:309:20 @[ crypto_aead/aes256gcm/aesni/aead_aes256gcm_aesni.c:455:17 @[ crypto_aead/aes256gcm/aesni/aead_aes256gcm_aesni.c:770:5 ] ] ]
	vpclmulqdq	$0, %xmm12, %xmm10, %xmm2
.Ltmp699:
	#DEBUG_VALUE: clmul128:r_lo <- $xmm2
	#DEBUG_VALUE: gh_update:t <- [DW_OP_LLVM_fragment 128 128] $xmm2
	.loc	2 225 157                       # crypto_aead/aes256gcm/aesni/aead_aes256gcm_aesni.c:225:157 @[ crypto_aead/aes256gcm/aesni/aead_aes256gcm_aesni.c:309:20 @[ crypto_aead/aes256gcm/aesni/aead_aes256gcm_aesni.c:455:17 @[ crypto_aead/aes256gcm/aesni/aead_aes256gcm_aesni.c:770:5 ] ] ]
	vpclmulqdq	$16, %xmm12, %xmm10, %xmm10
.Ltmp700:
	.loc	2 0 157 is_stmt 0               # crypto_aead/aes256gcm/aesni/aead_aes256gcm_aesni.c:0:157
	vmovdqa	48(%rsp), %xmm12                # 16-byte Reload
.Ltmp701:
	.loc	2 183 17 is_stmt 1              # crypto_aead/aes256gcm/aesni/aead_aes256gcm_aesni.c:183:17 @[ crypto_aead/aes256gcm/aesni/aead_aes256gcm_aesni.c:459:13 @[ crypto_aead/aes256gcm/aesni/aead_aes256gcm_aesni.c:770:5 ] ]
	vaesenclast	%xmm11, %xmm12, %xmm11
.Ltmp702:
	#DEBUG_VALUE: encrypt_xor_wide:ts <- [DW_OP_LLVM_fragment 768 128] $xmm11
	.loc	2 225 28                        # crypto_aead/aes256gcm/aesni/aead_aes256gcm_aesni.c:225:28 @[ crypto_aead/aes256gcm/aesni/aead_aes256gcm_aesni.c:309:20 @[ crypto_aead/aes256gcm/aesni/aead_aes256gcm_aesni.c:455:17 @[ crypto_aead/aes256gcm/aesni/aead_aes256gcm_aesni.c:770:5 ] ] ]
	vpxor	%xmm1, %xmm9, %xmm1
.Ltmp703:
	.loc	2 184 17                        # crypto_aead/aes256gcm/aesni/aead_aes256gcm_aesni.c:184:17 @[ crypto_aead/aes256gcm/aesni/aead_aes256gcm_aesni.c:459:13 @[ crypto_aead/aes256gcm/aesni/aead_aes256gcm_aesni.c:770:5 ] ]
	vpxor	-96(%rcx,%rbp), %xmm8, %xmm8
.Ltmp704:
	#DEBUG_VALUE: encrypt_xor_wide:ts <- [DW_OP_LLVM_fragment 0 128] $xmm8
	vpxor	-80(%rcx,%rbp), %xmm7, %xmm7
.Ltmp705:
	#DEBUG_VALUE: encrypt_xor_wide:ts <- [DW_OP_LLVM_fragment 128 128] $xmm7
	vpxor	-64(%rcx,%rbp), %xmm6, %xmm6
.Ltmp706:
	#DEBUG_VALUE: encrypt_xor_wide:ts <- [DW_OP_LLVM_fragment 256 128] $xmm6
	vpxor	-48(%rcx,%rbp), %xmm13, %xmm9
.Ltmp707:
	#DEBUG_VALUE: encrypt_xor_wide:ts <- [DW_OP_LLVM_fragment 384 128] $xmm9
	vpxor	-32(%rcx,%rbp), %xmm14, %xmm12
.Ltmp708:
	#DEBUG_VALUE: encrypt_xor_wide:ts <- [DW_OP_LLVM_fragment 512 128] $xmm12
	.loc	2 0 17 is_stmt 0                # crypto_aead/aes256gcm/aesni/aead_aes256gcm_aesni.c:0:17
	vmovdqa	16(%rsp), %xmm14                # 16-byte Reload
	.loc	2 184 17                        # crypto_aead/aes256gcm/aesni/aead_aes256gcm_aesni.c:184:17 @[ crypto_aead/aes256gcm/aesni/aead_aes256gcm_aesni.c:459:13 @[ crypto_aead/aes256gcm/aesni/aead_aes256gcm_aesni.c:770:5 ] ]
	vpxor	-16(%rcx,%rbp), %xmm15, %xmm13
.Ltmp709:
	#DEBUG_VALUE: encrypt_xor_wide:ts <- [DW_OP_LLVM_fragment 640 128] $xmm13
	.loc	2 225 28 is_stmt 1              # crypto_aead/aes256gcm/aesni/aead_aes256gcm_aesni.c:225:28 @[ crypto_aead/aes256gcm/aesni/aead_aes256gcm_aesni.c:309:20 @[ crypto_aead/aes256gcm/aesni/aead_aes256gcm_aesni.c:455:17 @[ crypto_aead/aes256gcm/aesni/aead_aes256gcm_aesni.c:770:5 ] ] ]
	vpxor	%xmm3, %xmm10, %xmm3
.Ltmp710:
	.loc	2 184 17                        # crypto_aead/aes256gcm/aesni/aead_aes256gcm_aesni.c:184:17 @[ crypto_aead/aes256gcm/aesni/aead_aes256gcm_aesni.c:459:13 @[ crypto_aead/aes256gcm/aesni/aead_aes256gcm_aesni.c:770:5 ] ]
	vpxor	(%rcx,%rbp), %xmm11, %xmm10
.Ltmp711:
	#DEBUG_VALUE: encrypt_xor_wide:ts <- [DW_OP_LLVM_fragment 768 128] $xmm10
	#DEBUG_VALUE: encrypt_xor_wide:j <- 7
	.loc	2 311 26                        # crypto_aead/aes256gcm/aesni/aead_aes256gcm_aesni.c:311:26 @[ crypto_aead/aes256gcm/aesni/aead_aes256gcm_aesni.c:455:17 @[ crypto_aead/aes256gcm/aesni/aead_aes256gcm_aesni.c:770:5 ] ]
	vpxor	%xmm3, %xmm1, %xmm15
.Ltmp712:
	#DEBUG_VALUE: gcm_reduce:x <- [DW_OP_LLVM_fragment 256 128] $xmm15
	#DEBUG_VALUE: aes_gcm_encrypt_generic:u <- [DW_OP_LLVM_fragment 256 128] $xmm15
	#DEBUG_VALUE: gcm_reduce:x <- [DW_OP_LLVM_fragment 256 128] $xmm15
	#DEBUG_VALUE: gcm_reduce:x <- [DW_OP_LLVM_fragment 256 128] $xmm15
	#DEBUG_VALUE: gcm_reduce:x <- [DW_OP_LLVM_fragment 256 128] $xmm15
	#DEBUG_VALUE: gcm_reduce:x <- [DW_OP_LLVM_fragment 256 128] $xmm15
