	.file	"aead_xchacha20poly1305.c"
	.file	0 "/home/leizhenyuu/opt/Anonymous_Repo/libsodium_o2_attr_inline/src/libsodium" "aead_xchacha20poly1305.c" md5 0x185b0c7c7451f636ed074a75b2a882ad
	.file	1 "crypto_aead/xchacha20poly1305" "aead_xchacha20poly1305.c"
	.file	2 "/usr/include/x86_64-linux-gnu/bits" "types.h"
	.file	3 "/usr/include/x86_64-linux-gnu/bits" "stdint-uintn.h"
	.text
	.globl	crypto_aead_xchacha20poly1305_ietf_encrypt_detached # -- Begin function crypto_aead_xchacha20poly1305_ietf_encrypt_detached
	.p2align	4
	.type	crypto_aead_xchacha20poly1305_ietf_encrypt_detached,@function
crypto_aead_xchacha20poly1305_ietf_encrypt_detached: # @crypto_aead_xchacha20poly1305_ietf_encrypt_detached
.Lfunc_begin0:
	.loc	1 131 0                         # crypto_aead/xchacha20poly1305/aead_xchacha20poly1305.c:131:0
	.cfi_startproc
# %bb.0:
	#DEBUG_VALUE: crypto_aead_xchacha20poly1305_ietf_encrypt_detached:c <- $rdi
	#DEBUG_VALUE: crypto_aead_xchacha20poly1305_ietf_encrypt_detached:mac <- $rsi
	#DEBUG_VALUE: crypto_aead_xchacha20poly1305_ietf_encrypt_detached:maclen_p <- $rdx
	#DEBUG_VALUE: crypto_aead_xchacha20poly1305_ietf_encrypt_detached:m <- $rcx
	#DEBUG_VALUE: crypto_aead_xchacha20poly1305_ietf_encrypt_detached:mlen <- $r8
	#DEBUG_VALUE: crypto_aead_xchacha20poly1305_ietf_encrypt_detached:ad <- $r9
	pushq	%rbp
	.cfi_def_cfa_offset 16
	pushq	%r15
	.cfi_def_cfa_offset 24
	pushq	%r14
	.cfi_def_cfa_offset 32
	pushq	%r13
	.cfi_def_cfa_offset 40
	pushq	%r12
	.cfi_def_cfa_offset 48
	pushq	%rbx
	.cfi_def_cfa_offset 56
	subq	$424, %rsp                      # imm = 0x1A8
	.cfi_def_cfa_offset 480
	.cfi_offset %rbx, -56
	.cfi_offset %r12, -48
	.cfi_offset %r13, -40
	.cfi_offset %r14, -32
	.cfi_offset %r15, -24
	.cfi_offset %rbp, -16
.Ltmp0:
	#DEBUG_VALUE: crypto_aead_xchacha20poly1305_ietf_encrypt_detached:adlen <- [DW_OP_plus_uconst 480] [$rsp+0]
	#DEBUG_VALUE: crypto_aead_xchacha20poly1305_ietf_encrypt_detached:npub <- [DW_OP_plus_uconst 496] [$rsp+0]
	#DEBUG_VALUE: crypto_aead_xchacha20poly1305_ietf_encrypt_detached:k <- [DW_OP_plus_uconst 504] [$rsp+0]
	movq	%r9, %r12
	movq	%r8, %r15
	movq	%rcx, 8(%rsp)                   # 8-byte Spill
.Ltmp1:
	#DEBUG_VALUE: crypto_aead_xchacha20poly1305_ietf_encrypt_detached:m <- [DW_OP_plus_uconst 8] [$rsp+0]
	movq	%rdx, 24(%rsp)                  # 8-byte Spill
.Ltmp2:
	#DEBUG_VALUE: crypto_aead_xchacha20poly1305_ietf_encrypt_detached:maclen_p <- [DW_OP_plus_uconst 24] [$rsp+0]
	movq	%rsi, 16(%rsp)                  # 8-byte Spill
.Ltmp3:
	#DEBUG_VALUE: crypto_aead_xchacha20poly1305_ietf_encrypt_detached:mac <- [DW_OP_plus_uconst 16] [$rsp+0]
	movq	%rdi, %rbp
	movq	496(%rsp), %r13
.Ltmp4:
	#DEBUG_VALUE: memcpy:__src <- [DW_OP_plus_uconst 16, DW_OP_stack_value] $r13
	movq	504(%rsp), %rdx
	movq	%fs:40, %rax
	movq	%rax, 416(%rsp)
.Ltmp5:
	#DEBUG_VALUE: crypto_aead_xchacha20poly1305_ietf_encrypt_detached:npub2 <- [DW_OP_plus_uconst 36, DW_OP_deref] $rsp
	.loc	1 133 19 prologue_end           # crypto_aead/xchacha20poly1305/aead_xchacha20poly1305.c:133:19
	movl	$0, 36(%rsp)
.Ltmp6:
	#DEBUG_VALUE: crypto_aead_xchacha20poly1305_ietf_encrypt_detached:npub2 <- [DW_OP_LLVM_fragment 32 64] 0
	#DEBUG_VALUE: crypto_aead_xchacha20poly1305_ietf_encrypt_detached:npub2 <- [DW_OP_plus_uconst 36, DW_OP_deref, DW_OP_LLVM_fragment 0 32] $rsp
	.loc	1 0 19 is_stmt 0                # crypto_aead/xchacha20poly1305/aead_xchacha20poly1305.c:0:19
	leaq	48(%rsp), %rbx
	.loc	1 136 5 is_stmt 1               # crypto_aead/xchacha20poly1305/aead_xchacha20poly1305.c:136:5
	movq	%rbx, %rdi
.Ltmp7:
	#DEBUG_VALUE: crypto_aead_xchacha20poly1305_ietf_encrypt_detached:c <- $rbp
	movq	%r13, %rsi
	xorl	%ecx, %ecx
	callq	crypto_core_hchacha20@PLT
.Ltmp8:
	#DEBUG_VALUE: crypto_aead_xchacha20poly1305_ietf_encrypt_detached:ad <- $r12
	#DEBUG_VALUE: crypto_aead_xchacha20poly1305_ietf_encrypt_detached:mlen <- $r15
	#DEBUG_VALUE: memcpy:__len <- 8
	#DEBUG_VALUE: memcpy:__dest <- [DW_OP_plus_uconst 36, DW_OP_plus_uconst 4, DW_OP_stack_value] $rsp
	.file	4 "/usr/include/x86_64-linux-gnu/bits" "string_fortified.h"
	.loc	4 29 10                         # /usr/include/x86_64-linux-gnu/bits/string_fortified.h:29:10 @[ crypto_aead/xchacha20poly1305/aead_xchacha20poly1305.c:137:5 ]
	movq	16(%r13), %rax
	movq	%rax, 40(%rsp)
.Ltmp9:
	#DEBUG_VALUE: crypto_aead_xchacha20poly1305_ietf_encrypt_detached:npub2 <- [DW_OP_plus_uconst 36, DW_OP_deref] $rsp
	#DEBUG_VALUE: _encrypt_detached:slen <- [DW_OP_plus_uconst 88, DW_OP_deref] $rsp
	#DEBUG_VALUE: _encrypt_detached:c <- $rbp
	#DEBUG_VALUE: _encrypt_detached:mac <- [DW_OP_plus_uconst 16, DW_OP_deref] $rsp
	#DEBUG_VALUE: _encrypt_detached:maclen_p <- [DW_OP_plus_uconst 24, DW_OP_deref] $rsp
	#DEBUG_VALUE: _encrypt_detached:m <- [DW_OP_plus_uconst 8, DW_OP_deref] $rsp
	#DEBUG_VALUE: _encrypt_detached:mlen <- $r15
	#DEBUG_VALUE: _encrypt_detached:ad <- $r12
	#DEBUG_VALUE: _encrypt_detached:adlen <- undef
	#DEBUG_VALUE: _encrypt_detached:npub <- [DW_OP_plus_uconst 36, DW_OP_stack_value] $rsp
	#DEBUG_VALUE: _encrypt_detached:k <- [DW_OP_plus_uconst 48, DW_OP_stack_value] $rsp
	.loc	4 0 10 is_stmt 0                # /usr/include/x86_64-linux-gnu/bits/string_fortified.h:0:10
	leaq	96(%rsp), %r14
	leaq	36(%rsp), %rdx
.Ltmp10:
	.loc	1 39 5 is_stmt 1                # crypto_aead/xchacha20poly1305/aead_xchacha20poly1305.c:39:5 @[ crypto_aead/xchacha20poly1305/aead_xchacha20poly1305.c:139:11 ]
	movl	$64, %esi
	movq	%r14, %rdi
	movq	%rbx, %rcx
	callq	crypto_stream_chacha20_ietf_ext@PLT
.Ltmp11:
	.loc	1 0 5 is_stmt 0                 # crypto_aead/xchacha20poly1305/aead_xchacha20poly1305.c:0:5
	leaq	160(%rsp), %r13
.Ltmp12:
	.loc	1 40 5 is_stmt 1                # crypto_aead/xchacha20poly1305/aead_xchacha20poly1305.c:40:5 @[ crypto_aead/xchacha20poly1305/aead_xchacha20poly1305.c:139:11 ]
	movq	%r13, %rdi
	movq	%r14, %rsi
	callq	crypto_onetimeauth_poly1305_init@PLT
.Ltmp13:
	.loc	1 41 5                          # crypto_aead/xchacha20poly1305/aead_xchacha20poly1305.c:41:5 @[ crypto_aead/xchacha20poly1305/aead_xchacha20poly1305.c:139:11 ]
	movl	$64, %esi
	movq	%r14, %rdi
	callq	sodium_memzero@PLT
.Ltmp14:
	.loc	1 43 5                          # crypto_aead/xchacha20poly1305/aead_xchacha20poly1305.c:43:5 @[ crypto_aead/xchacha20poly1305/aead_xchacha20poly1305.c:139:11 ]
	movq	%r13, %rdi
	movq	%r12, %rsi
	movq	480(%rsp), %r14
	movq	%r14, %rdx
	callq	crypto_onetimeauth_poly1305_update@PLT
.Ltmp15:
	.loc	1 44 61                         # crypto_aead/xchacha20poly1305/aead_xchacha20poly1305.c:44:61 @[ crypto_aead/xchacha20poly1305/aead_xchacha20poly1305.c:139:11 ]
	movl	%r14d, %edx
	movq	%r14, %r12
.Ltmp16:
	#DEBUG_VALUE: crypto_aead_xchacha20poly1305_ietf_encrypt_detached:ad <- [DW_OP_LLVM_entry_value 1] $r9
	negl	%edx
	.loc	1 44 70 is_stmt 0               # crypto_aead/xchacha20poly1305/aead_xchacha20poly1305.c:44:70 @[ crypto_aead/xchacha20poly1305/aead_xchacha20poly1305.c:139:11 ]
	andl	$15, %edx
	.loc	1 44 5                          # crypto_aead/xchacha20poly1305/aead_xchacha20poly1305.c:44:5 @[ crypto_aead/xchacha20poly1305/aead_xchacha20poly1305.c:139:11 ]
	leaq	_pad0(%rip), %r14
	movq	%r13, %rdi
	movq	%r14, %rsi
	callq	crypto_onetimeauth_poly1305_update@PLT
.Ltmp17:
	.loc	1 46 5 is_stmt 1                # crypto_aead/xchacha20poly1305/aead_xchacha20poly1305.c:46:5 @[ crypto_aead/xchacha20poly1305/aead_xchacha20poly1305.c:139:11 ]
	movq	%rbp, %rdi
	movq	8(%rsp), %rsi                   # 8-byte Reload
	movq	%r15, %rdx
	leaq	36(%rsp), %rcx
	movl	$1, %r8d
	movq	%rbx, %r9
	callq	crypto_stream_chacha20_ietf_ext_xor_ic@PLT
.Ltmp18:
	.loc	1 48 5                          # crypto_aead/xchacha20poly1305/aead_xchacha20poly1305.c:48:5 @[ crypto_aead/xchacha20poly1305/aead_xchacha20poly1305.c:139:11 ]
	movq	%r13, %rdi
	movq	%rbp, %rsi
	movq	%r15, %rdx
	callq	crypto_onetimeauth_poly1305_update@PLT
.Ltmp19:
	.loc	1 49 61                         # crypto_aead/xchacha20poly1305/aead_xchacha20poly1305.c:49:61 @[ crypto_aead/xchacha20poly1305/aead_xchacha20poly1305.c:139:11 ]
	movl	%r15d, %edx
	negl	%edx
	.loc	1 49 69 is_stmt 0               # crypto_aead/xchacha20poly1305/aead_xchacha20poly1305.c:49:69 @[ crypto_aead/xchacha20poly1305/aead_xchacha20poly1305.c:139:11 ]
	andl	$15, %edx
	.loc	1 49 5                          # crypto_aead/xchacha20poly1305/aead_xchacha20poly1305.c:49:5 @[ crypto_aead/xchacha20poly1305/aead_xchacha20poly1305.c:139:11 ]
	movq	%r13, %rdi
	movq	%r14, %rsi
	callq	crypto_onetimeauth_poly1305_update@PLT
.Ltmp20:
	#DEBUG_VALUE: store64_le:dst <- [DW_OP_plus_uconst 88, DW_OP_stack_value] $rsp
	#DEBUG_VALUE: memcpy:__dest <- [DW_OP_plus_uconst 88, DW_OP_stack_value] $rsp
	#DEBUG_VALUE: memcpy:__len <- 8
	.loc	4 29 10 is_stmt 1               # /usr/include/x86_64-linux-gnu/bits/string_fortified.h:29:10 @[ ./include/sodium/private/common.h:87:5 @[ crypto_aead/xchacha20poly1305/aead_xchacha20poly1305.c:51:5 @[ crypto_aead/xchacha20poly1305/aead_xchacha20poly1305.c:139:11 ] ] ]
	movq	%r12, 88(%rsp)
	leaq	88(%rsp), %rbx
.Ltmp21:
	.loc	1 52 5                          # crypto_aead/xchacha20poly1305/aead_xchacha20poly1305.c:52:5 @[ crypto_aead/xchacha20poly1305/aead_xchacha20poly1305.c:139:11 ]
	movl	$8, %edx
	movq	%r13, %rdi
	movq	%rbx, %rsi
	callq	crypto_onetimeauth_poly1305_update@PLT
.Ltmp22:
	#DEBUG_VALUE: store64_le:dst <- [DW_OP_plus_uconst 88, DW_OP_stack_value] $rsp
	#DEBUG_VALUE: memcpy:__dest <- [DW_OP_plus_uconst 88, DW_OP_stack_value] $rsp
	#DEBUG_VALUE: memcpy:__len <- 8
	.loc	4 29 10                         # /usr/include/x86_64-linux-gnu/bits/string_fortified.h:29:10 @[ ./include/sodium/private/common.h:87:5 @[ crypto_aead/xchacha20poly1305/aead_xchacha20poly1305.c:54:5 @[ crypto_aead/xchacha20poly1305/aead_xchacha20poly1305.c:139:11 ] ] ]
	movq	%r15, 88(%rsp)
.Ltmp23:
	.loc	1 55 5                          # crypto_aead/xchacha20poly1305/aead_xchacha20poly1305.c:55:5 @[ crypto_aead/xchacha20poly1305/aead_xchacha20poly1305.c:139:11 ]
	movl	$8, %edx
	movq	%r13, %rdi
	movq	%rbx, %rsi
	callq	crypto_onetimeauth_poly1305_update@PLT
.Ltmp24:
	.loc	1 57 5                          # crypto_aead/xchacha20poly1305/aead_xchacha20poly1305.c:57:5 @[ crypto_aead/xchacha20poly1305/aead_xchacha20poly1305.c:139:11 ]
	movq	%r13, %rdi
	movq	16(%rsp), %rsi                  # 8-byte Reload
	callq	crypto_onetimeauth_poly1305_final@PLT
.Ltmp25:
	.loc	1 58 5                          # crypto_aead/xchacha20poly1305/aead_xchacha20poly1305.c:58:5 @[ crypto_aead/xchacha20poly1305/aead_xchacha20poly1305.c:139:11 ]
	movl	$256, %esi                      # imm = 0x100
	movq	%r13, %rdi
	callq	sodium_memzero@PLT
.Ltmp26:
	.loc	1 0 5 is_stmt 0                 # crypto_aead/xchacha20poly1305/aead_xchacha20poly1305.c:0:5
	movq	24(%rsp), %rax                  # 8-byte Reload
.Ltmp27:
	.loc	1 60 18 is_stmt 1               # crypto_aead/xchacha20poly1305/aead_xchacha20poly1305.c:60:18 @[ crypto_aead/xchacha20poly1305/aead_xchacha20poly1305.c:139:11 ]
	testq	%rax, %rax
	je	.LBB0_2
.Ltmp28:
# %bb.1:
	#DEBUG_VALUE: crypto_aead_xchacha20poly1305_ietf_encrypt_detached:c <- $rbp
	#DEBUG_VALUE: crypto_aead_xchacha20poly1305_ietf_encrypt_detached:mac <- [DW_OP_plus_uconst 16] [$rsp+0]
	#DEBUG_VALUE: crypto_aead_xchacha20poly1305_ietf_encrypt_detached:maclen_p <- [DW_OP_plus_uconst 24] [$rsp+0]
	#DEBUG_VALUE: crypto_aead_xchacha20poly1305_ietf_encrypt_detached:m <- [DW_OP_plus_uconst 8] [$rsp+0]
	#DEBUG_VALUE: crypto_aead_xchacha20poly1305_ietf_encrypt_detached:mlen <- $r15
	#DEBUG_VALUE: crypto_aead_xchacha20poly1305_ietf_encrypt_detached:ad <- [DW_OP_LLVM_entry_value 1] $r9
	#DEBUG_VALUE: crypto_aead_xchacha20poly1305_ietf_encrypt_detached:adlen <- [DW_OP_plus_uconst 480] [$rsp+0]
	#DEBUG_VALUE: crypto_aead_xchacha20poly1305_ietf_encrypt_detached:npub <- [DW_OP_plus_uconst 496] [$rsp+0]
	#DEBUG_VALUE: crypto_aead_xchacha20poly1305_ietf_encrypt_detached:k <- [DW_OP_plus_uconst 504] [$rsp+0]
	#DEBUG_VALUE: crypto_aead_xchacha20poly1305_ietf_encrypt_detached:npub2 <- [DW_OP_plus_uconst 36, DW_OP_deref] $rsp
	#DEBUG_VALUE: _encrypt_detached:slen <- [DW_OP_plus_uconst 88, DW_OP_deref] $rsp
	#DEBUG_VALUE: _encrypt_detached:c <- $rbp
	#DEBUG_VALUE: _encrypt_detached:mac <- [DW_OP_plus_uconst 16, DW_OP_deref] $rsp
	#DEBUG_VALUE: _encrypt_detached:maclen_p <- [DW_OP_plus_uconst 24, DW_OP_deref] $rsp
	#DEBUG_VALUE: _encrypt_detached:m <- [DW_OP_plus_uconst 8, DW_OP_deref] $rsp
	#DEBUG_VALUE: _encrypt_detached:mlen <- $r15
	#DEBUG_VALUE: _encrypt_detached:npub <- [DW_OP_plus_uconst 36, DW_OP_stack_value] $rsp
	#DEBUG_VALUE: _encrypt_detached:k <- [DW_OP_plus_uconst 48, DW_OP_stack_value] $rsp
	.loc	1 61 19                         # crypto_aead/xchacha20poly1305/aead_xchacha20poly1305.c:61:19 @[ crypto_aead/xchacha20poly1305/aead_xchacha20poly1305.c:139:11 ]
	movq	$16, (%rax)
.Ltmp29:
.LBB0_2:                                # %_encrypt_detached.exit
	#DEBUG_VALUE: crypto_aead_xchacha20poly1305_ietf_encrypt_detached:c <- $rbp
	#DEBUG_VALUE: crypto_aead_xchacha20poly1305_ietf_encrypt_detached:mac <- [DW_OP_plus_uconst 16] [$rsp+0]
	#DEBUG_VALUE: crypto_aead_xchacha20poly1305_ietf_encrypt_detached:maclen_p <- [DW_OP_plus_uconst 24] [$rsp+0]
	#DEBUG_VALUE: crypto_aead_xchacha20poly1305_ietf_encrypt_detached:m <- [DW_OP_plus_uconst 8] [$rsp+0]
	#DEBUG_VALUE: crypto_aead_xchacha20poly1305_ietf_encrypt_detached:mlen <- $r15
	#DEBUG_VALUE: crypto_aead_xchacha20poly1305_ietf_encrypt_detached:ad <- [DW_OP_LLVM_entry_value 1] $r9
	#DEBUG_VALUE: crypto_aead_xchacha20poly1305_ietf_encrypt_detached:adlen <- [DW_OP_plus_uconst 480] [$rsp+0]
	#DEBUG_VALUE: crypto_aead_xchacha20poly1305_ietf_encrypt_detached:npub <- [DW_OP_plus_uconst 496] [$rsp+0]
	#DEBUG_VALUE: crypto_aead_xchacha20poly1305_ietf_encrypt_detached:k <- [DW_OP_plus_uconst 504] [$rsp+0]
	#DEBUG_VALUE: crypto_aead_xchacha20poly1305_ietf_encrypt_detached:npub2 <- [DW_OP_plus_uconst 36, DW_OP_deref] $rsp
	#DEBUG_VALUE: crypto_aead_xchacha20poly1305_ietf_encrypt_detached:ret <- 0
	.loc	1 0 19 is_stmt 0                # crypto_aead/xchacha20poly1305/aead_xchacha20poly1305.c:0:19
	leaq	48(%rsp), %rdi
	.loc	1 141 5 is_stmt 1               # crypto_aead/xchacha20poly1305/aead_xchacha20poly1305.c:141:5
	movl	$32, %esi
	callq	sodium_memzero@PLT
.Ltmp30:
	.loc	1 143 5                         # crypto_aead/xchacha20poly1305/aead_xchacha20poly1305.c:143:5
	movq	%fs:40, %rax
	cmpq	416(%rsp), %rax
	jne	.LBB0_4
.Ltmp31:
# %bb.3:                                # %SP_return
	#DEBUG_VALUE: crypto_aead_xchacha20poly1305_ietf_encrypt_detached:c <- $rbp
	#DEBUG_VALUE: crypto_aead_xchacha20poly1305_ietf_encrypt_detached:mac <- [DW_OP_plus_uconst 16] [$rsp+0]
	#DEBUG_VALUE: crypto_aead_xchacha20poly1305_ietf_encrypt_detached:maclen_p <- [DW_OP_plus_uconst 24] [$rsp+0]
	#DEBUG_VALUE: crypto_aead_xchacha20poly1305_ietf_encrypt_detached:m <- [DW_OP_plus_uconst 8] [$rsp+0]
	#DEBUG_VALUE: crypto_aead_xchacha20poly1305_ietf_encrypt_detached:mlen <- $r15
	#DEBUG_VALUE: crypto_aead_xchacha20poly1305_ietf_encrypt_detached:ad <- [DW_OP_LLVM_entry_value 1] $r9
	#DEBUG_VALUE: crypto_aead_xchacha20poly1305_ietf_encrypt_detached:adlen <- [DW_OP_plus_uconst 480] [$rsp+0]
	#DEBUG_VALUE: crypto_aead_xchacha20poly1305_ietf_encrypt_detached:npub <- [DW_OP_plus_uconst 496] [$rsp+0]
	#DEBUG_VALUE: crypto_aead_xchacha20poly1305_ietf_encrypt_detached:k <- [DW_OP_plus_uconst 504] [$rsp+0]
	#DEBUG_VALUE: crypto_aead_xchacha20poly1305_ietf_encrypt_detached:npub2 <- [DW_OP_plus_uconst 36, DW_OP_deref] $rsp
	#DEBUG_VALUE: crypto_aead_xchacha20poly1305_ietf_encrypt_detached:ret <- 0
	xorl	%eax, %eax
	.loc	1 143 5 epilogue_begin is_stmt 0 # crypto_aead/xchacha20poly1305/aead_xchacha20poly1305.c:143:5
	addq	$424, %rsp                      # imm = 0x1A8
	.cfi_def_cfa_offset 56
	popq	%rbx
	.cfi_def_cfa_offset 48
	popq	%r12
	.cfi_def_cfa_offset 40
	popq	%r13
	.cfi_def_cfa_offset 32
	popq	%r14
	.cfi_def_cfa_offset 24
	popq	%r15
.Ltmp32:
	#DEBUG_VALUE: crypto_aead_xchacha20poly1305_ietf_encrypt_detached:mlen <- [DW_OP_LLVM_entry_value 1] $r8
	.cfi_def_cfa_offset 16
	popq	%rbp
.Ltmp33:
	#DEBUG_VALUE: crypto_aead_xchacha20poly1305_ietf_encrypt_detached:c <- [DW_OP_LLVM_entry_value 1] $rdi
	.cfi_def_cfa_offset 8
	retq
.Ltmp34:
.LBB0_4:                                # %CallStackCheckFailBlk
	.cfi_def_cfa_offset 480
	#DEBUG_VALUE: crypto_aead_xchacha20poly1305_ietf_encrypt_detached:c <- $rbp
	#DEBUG_VALUE: crypto_aead_xchacha20poly1305_ietf_encrypt_detached:mac <- [DW_OP_plus_uconst 16] [$rsp+0]
	#DEBUG_VALUE: crypto_aead_xchacha20poly1305_ietf_encrypt_detached:maclen_p <- [DW_OP_plus_uconst 24] [$rsp+0]
	#DEBUG_VALUE: crypto_aead_xchacha20poly1305_ietf_encrypt_detached:m <- [DW_OP_plus_uconst 8] [$rsp+0]
	#DEBUG_VALUE: crypto_aead_xchacha20poly1305_ietf_encrypt_detached:mlen <- $r15
	#DEBUG_VALUE: crypto_aead_xchacha20poly1305_ietf_encrypt_detached:ad <- [DW_OP_LLVM_entry_value 1] $r9
	#DEBUG_VALUE: crypto_aead_xchacha20poly1305_ietf_encrypt_detached:adlen <- [DW_OP_plus_uconst 480] [$rsp+0]
	#DEBUG_VALUE: crypto_aead_xchacha20poly1305_ietf_encrypt_detached:npub <- [DW_OP_plus_uconst 496] [$rsp+0]
	#DEBUG_VALUE: crypto_aead_xchacha20poly1305_ietf_encrypt_detached:k <- [DW_OP_plus_uconst 504] [$rsp+0]
	#DEBUG_VALUE: crypto_aead_xchacha20poly1305_ietf_encrypt_detached:npub2 <- [DW_OP_plus_uconst 36, DW_OP_deref] $rsp
	#DEBUG_VALUE: crypto_aead_xchacha20poly1305_ietf_encrypt_detached:ret <- 0
	.loc	1 0 0                           # crypto_aead/xchacha20poly1305/aead_xchacha20poly1305.c:0
	callq	__stack_chk_fail@PLT
.Ltmp35:
.Lfunc_end0:
	.size	crypto_aead_xchacha20poly1305_ietf_encrypt_detached, .Lfunc_end0-crypto_aead_xchacha20poly1305_ietf_encrypt_detached
	.cfi_endproc
	.file	5 "/home/leizhenyuu/opt/Anonymous_Repo" "llvm-project/build/lib/clang/21/include/__stddef_size_t.h"
	.file	6 "./include/sodium" "crypto_onetimeauth_poly1305.h"
	.file	7 "./include/sodium/private" "common.h"
	.file	8 "./include/sodium" "crypto_core_hchacha20.h"
	.file	9 "./include/sodium/private" "chacha20_ietf_ext.h"
	.file	10 "./include/sodium" "utils.h"
                                        # -- End function
	.globl	crypto_aead_xchacha20poly1305_ietf_encrypt # -- Begin function crypto_aead_xchacha20poly1305_ietf_encrypt
	.p2align	4
	.type	crypto_aead_xchacha20poly1305_ietf_encrypt,@function
crypto_aead_xchacha20poly1305_ietf_encrypt: # @crypto_aead_xchacha20poly1305_ietf_encrypt
.Lfunc_begin1:
	.loc	1 156 0 is_stmt 1               # crypto_aead/xchacha20poly1305/aead_xchacha20poly1305.c:156:0
	.cfi_startproc
# %bb.0:
	#DEBUG_VALUE: crypto_aead_xchacha20poly1305_ietf_encrypt:c <- $rdi
	#DEBUG_VALUE: crypto_aead_xchacha20poly1305_ietf_encrypt:clen_p <- $rsi
	#DEBUG_VALUE: crypto_aead_xchacha20poly1305_ietf_encrypt:m <- $rdx
	#DEBUG_VALUE: crypto_aead_xchacha20poly1305_ietf_encrypt:mlen <- $rcx
	#DEBUG_VALUE: crypto_aead_xchacha20poly1305_ietf_encrypt:ad <- $r8
	#DEBUG_VALUE: crypto_aead_xchacha20poly1305_ietf_encrypt:adlen <- $r9
	pushq	%r14
	.cfi_def_cfa_offset 16
	pushq	%rbx
	.cfi_def_cfa_offset 24
	subq	$40, %rsp
	.cfi_def_cfa_offset 64
	.cfi_offset %rbx, -24
	.cfi_offset %r14, -16
.Ltmp36:
	#DEBUG_VALUE: crypto_aead_xchacha20poly1305_ietf_encrypt:nsec <- [DW_OP_plus_uconst 64] [$rsp+0]
	#DEBUG_VALUE: crypto_aead_xchacha20poly1305_ietf_encrypt:npub <- [DW_OP_plus_uconst 72] [$rsp+0]
	#DEBUG_VALUE: crypto_aead_xchacha20poly1305_ietf_encrypt:k <- [DW_OP_plus_uconst 80] [$rsp+0]
	movq	%rcx, %rbx
.Ltmp37:
	#DEBUG_VALUE: crypto_aead_xchacha20poly1305_ietf_encrypt:clen <- 0
	.loc	1 160 14 prologue_end           # crypto_aead/xchacha20poly1305/aead_xchacha20poly1305.c:160:14
	cmpq	$-16, %rcx
	jae	.LBB1_4
.Ltmp38:
# %bb.1:
	#DEBUG_VALUE: crypto_aead_xchacha20poly1305_ietf_encrypt:c <- $rdi
	#DEBUG_VALUE: crypto_aead_xchacha20poly1305_ietf_encrypt:clen_p <- $rsi
	#DEBUG_VALUE: crypto_aead_xchacha20poly1305_ietf_encrypt:m <- $rdx
	#DEBUG_VALUE: crypto_aead_xchacha20poly1305_ietf_encrypt:mlen <- $rbx
	#DEBUG_VALUE: crypto_aead_xchacha20poly1305_ietf_encrypt:ad <- $r8
	#DEBUG_VALUE: crypto_aead_xchacha20poly1305_ietf_encrypt:adlen <- $r9
	#DEBUG_VALUE: crypto_aead_xchacha20poly1305_ietf_encrypt:nsec <- [DW_OP_plus_uconst 64] [$rsp+0]
	#DEBUG_VALUE: crypto_aead_xchacha20poly1305_ietf_encrypt:npub <- [DW_OP_plus_uconst 72] [$rsp+0]
	#DEBUG_VALUE: crypto_aead_xchacha20poly1305_ietf_encrypt:k <- [DW_OP_plus_uconst 80] [$rsp+0]
	#DEBUG_VALUE: crypto_aead_xchacha20poly1305_ietf_encrypt:clen <- 0
	.loc	1 0 14 is_stmt 0                # crypto_aead/xchacha20poly1305/aead_xchacha20poly1305.c:0:14
	movq	%r8, %rax
	movq	%rdx, %rcx
	movq	%rsi, %r14
	movq	80(%rsp), %rdx
.Ltmp39:
	#DEBUG_VALUE: crypto_aead_xchacha20poly1305_ietf_encrypt:m <- $rcx
	movq	72(%rsp), %r8
.Ltmp40:
	#DEBUG_VALUE: crypto_aead_xchacha20poly1305_ietf_encrypt:ad <- $rax
	.loc	1 164 15 is_stmt 1              # crypto_aead/xchacha20poly1305/aead_xchacha20poly1305.c:164:15
	leaq	(%rdi,%rbx), %rsi
.Ltmp41:
	#DEBUG_VALUE: crypto_aead_xchacha20poly1305_ietf_encrypt:clen_p <- $r14
	.loc	1 163 11                        # crypto_aead/xchacha20poly1305/aead_xchacha20poly1305.c:163:11
	movq	%rdx, 24(%rsp)
	movq	%r8, 16(%rsp)
	movq	%r9, (%rsp)
	xorl	%edx, %edx
	movq	%rbx, %r8
	movq	%rax, %r9
.Ltmp42:
	#DEBUG_VALUE: crypto_aead_xchacha20poly1305_ietf_encrypt:adlen <- [DW_OP_LLVM_entry_value 1] $r9
	callq	crypto_aead_xchacha20poly1305_ietf_encrypt_detached
.Ltmp43:
	#DEBUG_VALUE: crypto_aead_xchacha20poly1305_ietf_encrypt:m <- [DW_OP_LLVM_entry_value 1] $rdx
	#DEBUG_VALUE: crypto_aead_xchacha20poly1305_ietf_encrypt:c <- [DW_OP_LLVM_entry_value 1] $rdi
	#DEBUG_VALUE: crypto_aead_xchacha20poly1305_ietf_encrypt:ad <- [DW_OP_LLVM_entry_value 1] $r8
	#DEBUG_VALUE: crypto_aead_xchacha20poly1305_ietf_encrypt:ret <- 0
	.loc	1 165 16                        # crypto_aead/xchacha20poly1305/aead_xchacha20poly1305.c:165:16
	testq	%r14, %r14
	je	.LBB1_3
.Ltmp44:
# %bb.2:
	#DEBUG_VALUE: crypto_aead_xchacha20poly1305_ietf_encrypt:c <- [DW_OP_LLVM_entry_value 1] $rdi
	#DEBUG_VALUE: crypto_aead_xchacha20poly1305_ietf_encrypt:clen_p <- $r14
	#DEBUG_VALUE: crypto_aead_xchacha20poly1305_ietf_encrypt:m <- [DW_OP_LLVM_entry_value 1] $rdx
	#DEBUG_VALUE: crypto_aead_xchacha20poly1305_ietf_encrypt:mlen <- $rbx
	#DEBUG_VALUE: crypto_aead_xchacha20poly1305_ietf_encrypt:ad <- [DW_OP_LLVM_entry_value 1] $r8
	#DEBUG_VALUE: crypto_aead_xchacha20poly1305_ietf_encrypt:adlen <- [DW_OP_LLVM_entry_value 1] $r9
	#DEBUG_VALUE: crypto_aead_xchacha20poly1305_ietf_encrypt:nsec <- [DW_OP_plus_uconst 64] [$rsp+0]
	#DEBUG_VALUE: crypto_aead_xchacha20poly1305_ietf_encrypt:npub <- [DW_OP_plus_uconst 72] [$rsp+0]
	#DEBUG_VALUE: crypto_aead_xchacha20poly1305_ietf_encrypt:k <- [DW_OP_plus_uconst 80] [$rsp+0]
	#DEBUG_VALUE: crypto_aead_xchacha20poly1305_ietf_encrypt:clen <- 0
	#DEBUG_VALUE: crypto_aead_xchacha20poly1305_ietf_encrypt:ret <- 0
	#DEBUG_VALUE: crypto_aead_xchacha20poly1305_ietf_encrypt:clen <- [DW_OP_plus_uconst 16, DW_OP_stack_value] $rbx
	.loc	1 167 25                        # crypto_aead/xchacha20poly1305/aead_xchacha20poly1305.c:167:25
	addq	$16, %rbx
.Ltmp45:
	#DEBUG_VALUE: crypto_aead_xchacha20poly1305_ietf_encrypt:mlen <- [DW_OP_LLVM_entry_value 1] $rcx
	#DEBUG_VALUE: crypto_aead_xchacha20poly1305_ietf_encrypt:clen <- $rbx
	.loc	1 169 17                        # crypto_aead/xchacha20poly1305/aead_xchacha20poly1305.c:169:17
	movq	%rbx, (%r14)
.Ltmp46:
.LBB1_3:
	#DEBUG_VALUE: crypto_aead_xchacha20poly1305_ietf_encrypt:c <- [DW_OP_LLVM_entry_value 1] $rdi
	#DEBUG_VALUE: crypto_aead_xchacha20poly1305_ietf_encrypt:clen_p <- $r14
	#DEBUG_VALUE: crypto_aead_xchacha20poly1305_ietf_encrypt:m <- [DW_OP_LLVM_entry_value 1] $rdx
	#DEBUG_VALUE: crypto_aead_xchacha20poly1305_ietf_encrypt:mlen <- [DW_OP_LLVM_entry_value 1] $rcx
	#DEBUG_VALUE: crypto_aead_xchacha20poly1305_ietf_encrypt:ad <- [DW_OP_LLVM_entry_value 1] $r8
	#DEBUG_VALUE: crypto_aead_xchacha20poly1305_ietf_encrypt:adlen <- [DW_OP_LLVM_entry_value 1] $r9
	#DEBUG_VALUE: crypto_aead_xchacha20poly1305_ietf_encrypt:nsec <- [DW_OP_plus_uconst 64] [$rsp+0]
	#DEBUG_VALUE: crypto_aead_xchacha20poly1305_ietf_encrypt:npub <- [DW_OP_plus_uconst 72] [$rsp+0]
	#DEBUG_VALUE: crypto_aead_xchacha20poly1305_ietf_encrypt:k <- [DW_OP_plus_uconst 80] [$rsp+0]
	#DEBUG_VALUE: crypto_aead_xchacha20poly1305_ietf_encrypt:ret <- 0
	.loc	1 171 5                         # crypto_aead/xchacha20poly1305/aead_xchacha20poly1305.c:171:5
	xorl	%eax, %eax
	.loc	1 171 5 epilogue_begin is_stmt 0 # crypto_aead/xchacha20poly1305/aead_xchacha20poly1305.c:171:5
	addq	$40, %rsp
	.cfi_def_cfa_offset 24
	popq	%rbx
	.cfi_def_cfa_offset 16
	popq	%r14
.Ltmp47:
	#DEBUG_VALUE: crypto_aead_xchacha20poly1305_ietf_encrypt:clen_p <- [DW_OP_LLVM_entry_value 1] $rsi
	.cfi_def_cfa_offset 8
	retq
.Ltmp48:
.LBB1_4:
	.cfi_def_cfa_offset 64
	#DEBUG_VALUE: crypto_aead_xchacha20poly1305_ietf_encrypt:c <- $rdi
	#DEBUG_VALUE: crypto_aead_xchacha20poly1305_ietf_encrypt:clen_p <- $rsi
	#DEBUG_VALUE: crypto_aead_xchacha20poly1305_ietf_encrypt:m <- $rdx
	#DEBUG_VALUE: crypto_aead_xchacha20poly1305_ietf_encrypt:mlen <- $rbx
	#DEBUG_VALUE: crypto_aead_xchacha20poly1305_ietf_encrypt:ad <- $r8
	#DEBUG_VALUE: crypto_aead_xchacha20poly1305_ietf_encrypt:adlen <- $r9
	#DEBUG_VALUE: crypto_aead_xchacha20poly1305_ietf_encrypt:nsec <- [DW_OP_plus_uconst 64] [$rsp+0]
	#DEBUG_VALUE: crypto_aead_xchacha20poly1305_ietf_encrypt:npub <- [DW_OP_plus_uconst 72] [$rsp+0]
	#DEBUG_VALUE: crypto_aead_xchacha20poly1305_ietf_encrypt:k <- [DW_OP_plus_uconst 80] [$rsp+0]
	#DEBUG_VALUE: crypto_aead_xchacha20poly1305_ietf_encrypt:clen <- 0
	.loc	1 161 9 is_stmt 1               # crypto_aead/xchacha20poly1305/aead_xchacha20poly1305.c:161:9
	callq	sodium_misuse@PLT
.Ltmp49:
	#DEBUG_VALUE: crypto_aead_xchacha20poly1305_ietf_encrypt:adlen <- [DW_OP_LLVM_entry_value 1] $r9
	#DEBUG_VALUE: crypto_aead_xchacha20poly1305_ietf_encrypt:ad <- [DW_OP_LLVM_entry_value 1] $r8
	#DEBUG_VALUE: crypto_aead_xchacha20poly1305_ietf_encrypt:m <- [DW_OP_LLVM_entry_value 1] $rdx
	#DEBUG_VALUE: crypto_aead_xchacha20poly1305_ietf_encrypt:clen_p <- [DW_OP_LLVM_entry_value 1] $rsi
	#DEBUG_VALUE: crypto_aead_xchacha20poly1305_ietf_encrypt:c <- [DW_OP_LLVM_entry_value 1] $rdi
.Lfunc_end1:
	.size	crypto_aead_xchacha20poly1305_ietf_encrypt, .Lfunc_end1-crypto_aead_xchacha20poly1305_ietf_encrypt
	.cfi_endproc
	.file	11 "./include/sodium" "core.h"
                                        # -- End function
	.globl	crypto_aead_xchacha20poly1305_ietf_decrypt_detached # -- Begin function crypto_aead_xchacha20poly1305_ietf_decrypt_detached
	.p2align	4
	.type	crypto_aead_xchacha20poly1305_ietf_decrypt_detached,@function
crypto_aead_xchacha20poly1305_ietf_decrypt_detached: # @crypto_aead_xchacha20poly1305_ietf_decrypt_detached
.Lfunc_begin2:
	.loc	1 184 0                         # crypto_aead/xchacha20poly1305/aead_xchacha20poly1305.c:184:0
	.cfi_startproc
# %bb.0:
	#DEBUG_VALUE: crypto_aead_xchacha20poly1305_ietf_decrypt_detached:m <- $rdi
	#DEBUG_VALUE: crypto_aead_xchacha20poly1305_ietf_decrypt_detached:c <- $rdx
	#DEBUG_VALUE: crypto_aead_xchacha20poly1305_ietf_decrypt_detached:clen <- $rcx
	#DEBUG_VALUE: crypto_aead_xchacha20poly1305_ietf_decrypt_detached:mac <- $r8
	#DEBUG_VALUE: crypto_aead_xchacha20poly1305_ietf_decrypt_detached:ad <- $r9
	pushq	%rbp
	.cfi_def_cfa_offset 16
	pushq	%r15
	.cfi_def_cfa_offset 24
	pushq	%r14
	.cfi_def_cfa_offset 32
	pushq	%r13
	.cfi_def_cfa_offset 40
	pushq	%r12
	.cfi_def_cfa_offset 48
	pushq	%rbx
	.cfi_def_cfa_offset 56
	subq	$424, %rsp                      # imm = 0x1A8
	.cfi_def_cfa_offset 480
	.cfi_offset %rbx, -56
	.cfi_offset %r12, -48
	.cfi_offset %r13, -40
	.cfi_offset %r14, -32
	.cfi_offset %r15, -24
	.cfi_offset %rbp, -16
.Ltmp50:
	#DEBUG_VALUE: crypto_aead_xchacha20poly1305_ietf_decrypt_detached:adlen <- [DW_OP_plus_uconst 480] [$rsp+0]
	#DEBUG_VALUE: crypto_aead_xchacha20poly1305_ietf_decrypt_detached:npub <- [DW_OP_plus_uconst 488] [$rsp+0]
	#DEBUG_VALUE: crypto_aead_xchacha20poly1305_ietf_decrypt_detached:k <- [DW_OP_plus_uconst 496] [$rsp+0]
	movq	%r9, %r13
	movq	%r8, (%rsp)                     # 8-byte Spill
.Ltmp51:
	#DEBUG_VALUE: crypto_aead_xchacha20poly1305_ietf_decrypt_detached:mac <- [$rsp+0]
	movq	%rcx, %rbx
	movq	%rdx, %r15
	movq	%rdi, 8(%rsp)                   # 8-byte Spill
.Ltmp52:
	#DEBUG_VALUE: crypto_aead_xchacha20poly1305_ietf_decrypt_detached:m <- [DW_OP_plus_uconst 8] [$rsp+0]
	movq	488(%rsp), %rbp
.Ltmp53:
	#DEBUG_VALUE: memcpy:__src <- [DW_OP_plus_uconst 16, DW_OP_stack_value] $rbp
	movq	496(%rsp), %rdx
.Ltmp54:
	#DEBUG_VALUE: crypto_aead_xchacha20poly1305_ietf_decrypt_detached:c <- $r15
	movq	%fs:40, %rax
	movq	%rax, 416(%rsp)
.Ltmp55:
	#DEBUG_VALUE: crypto_aead_xchacha20poly1305_ietf_decrypt_detached:npub2 <- [DW_OP_plus_uconst 20, DW_OP_deref] $rsp
	.loc	1 186 19 prologue_end           # crypto_aead/xchacha20poly1305/aead_xchacha20poly1305.c:186:19
	movl	$0, 20(%rsp)
.Ltmp56:
	#DEBUG_VALUE: crypto_aead_xchacha20poly1305_ietf_decrypt_detached:npub2 <- [DW_OP_LLVM_fragment 32 64] 0
	#DEBUG_VALUE: crypto_aead_xchacha20poly1305_ietf_decrypt_detached:npub2 <- [DW_OP_plus_uconst 20, DW_OP_deref, DW_OP_LLVM_fragment 0 32] $rsp
	.loc	1 0 19 is_stmt 0                # crypto_aead/xchacha20poly1305/aead_xchacha20poly1305.c:0:19
	leaq	32(%rsp), %r14
	.loc	1 189 5 is_stmt 1               # crypto_aead/xchacha20poly1305/aead_xchacha20poly1305.c:189:5
	movq	%r14, %rdi
	movq	%rbp, %rsi
	xorl	%ecx, %ecx
.Ltmp57:
	#DEBUG_VALUE: crypto_aead_xchacha20poly1305_ietf_decrypt_detached:clen <- $rbx
	callq	crypto_core_hchacha20@PLT
.Ltmp58:
	#DEBUG_VALUE: crypto_aead_xchacha20poly1305_ietf_decrypt_detached:ad <- $r13
	#DEBUG_VALUE: memcpy:__len <- 8
	#DEBUG_VALUE: memcpy:__dest <- [DW_OP_plus_uconst 20, DW_OP_plus_uconst 4, DW_OP_stack_value] $rsp
	.loc	4 29 10                         # /usr/include/x86_64-linux-gnu/bits/string_fortified.h:29:10 @[ crypto_aead/xchacha20poly1305/aead_xchacha20poly1305.c:190:5 ]
	movq	16(%rbp), %rax
	movq	%rax, 24(%rsp)
.Ltmp59:
	#DEBUG_VALUE: crypto_aead_xchacha20poly1305_ietf_decrypt_detached:npub2 <- [DW_OP_plus_uconst 20, DW_OP_deref] $rsp
	#DEBUG_VALUE: _decrypt_detached:computed_mac <- [DW_OP_plus_uconst 64, DW_OP_deref] $rsp
	#DEBUG_VALUE: _decrypt_detached:m <- [DW_OP_plus_uconst 8, DW_OP_deref] $rsp
	#DEBUG_VALUE: _decrypt_detached:c <- $r15
	#DEBUG_VALUE: _decrypt_detached:clen <- $rbx
	#DEBUG_VALUE: _decrypt_detached:mac <- [DW_OP_deref] $rsp
	#DEBUG_VALUE: _decrypt_detached:ad <- $r13
	#DEBUG_VALUE: _decrypt_detached:adlen <- undef
	#DEBUG_VALUE: _decrypt_detached:npub <- [DW_OP_plus_uconst 20, DW_OP_stack_value] $rsp
	#DEBUG_VALUE: _decrypt_detached:k <- [DW_OP_plus_uconst 32, DW_OP_stack_value] $rsp
	.loc	4 0 10 is_stmt 0                # /usr/include/x86_64-linux-gnu/bits/string_fortified.h:0:10
	leaq	96(%rsp), %r12
	leaq	20(%rsp), %rdx
.Ltmp60:
	.loc	1 85 5 is_stmt 1                # crypto_aead/xchacha20poly1305/aead_xchacha20poly1305.c:85:5 @[ crypto_aead/xchacha20poly1305/aead_xchacha20poly1305.c:192:11 ]
	movl	$64, %esi
	movq	%r12, %rdi
	movq	%r14, %rcx
	callq	crypto_stream_chacha20_ietf_ext@PLT
.Ltmp61:
	.loc	1 0 5 is_stmt 0                 # crypto_aead/xchacha20poly1305/aead_xchacha20poly1305.c:0:5
	leaq	160(%rsp), %rbp
.Ltmp62:
	.loc	1 86 5 is_stmt 1                # crypto_aead/xchacha20poly1305/aead_xchacha20poly1305.c:86:5 @[ crypto_aead/xchacha20poly1305/aead_xchacha20poly1305.c:192:11 ]
	movq	%rbp, %rdi
	movq	%r12, %rsi
	callq	crypto_onetimeauth_poly1305_init@PLT
.Ltmp63:
	.loc	1 87 5                          # crypto_aead/xchacha20poly1305/aead_xchacha20poly1305.c:87:5 @[ crypto_aead/xchacha20poly1305/aead_xchacha20poly1305.c:192:11 ]
	movl	$64, %esi
	movq	%r12, %rdi
	callq	sodium_memzero@PLT
.Ltmp64:
	.loc	1 89 5                          # crypto_aead/xchacha20poly1305/aead_xchacha20poly1305.c:89:5 @[ crypto_aead/xchacha20poly1305/aead_xchacha20poly1305.c:192:11 ]
	movq	%rbp, %rdi
	movq	%r13, %rsi
	movq	480(%rsp), %r14
	movq	%r14, %rdx
	callq	crypto_onetimeauth_poly1305_update@PLT
.Ltmp65:
	.loc	1 90 61                         # crypto_aead/xchacha20poly1305/aead_xchacha20poly1305.c:90:61 @[ crypto_aead/xchacha20poly1305/aead_xchacha20poly1305.c:192:11 ]
	movl	%r14d, %edx
	movq	%r14, %r12
	negl	%edx
	.loc	1 90 70 is_stmt 0               # crypto_aead/xchacha20poly1305/aead_xchacha20poly1305.c:90:70 @[ crypto_aead/xchacha20poly1305/aead_xchacha20poly1305.c:192:11 ]
	andl	$15, %edx
	.loc	1 90 5                          # crypto_aead/xchacha20poly1305/aead_xchacha20poly1305.c:90:5 @[ crypto_aead/xchacha20poly1305/aead_xchacha20poly1305.c:192:11 ]
	leaq	_pad0(%rip), %r14
	movq	%rbp, %rdi
	movq	%r14, %rsi
	callq	crypto_onetimeauth_poly1305_update@PLT
.Ltmp66:
	#DEBUG_VALUE: _decrypt_detached:mlen <- $rbx
	.loc	1 93 5 is_stmt 1                # crypto_aead/xchacha20poly1305/aead_xchacha20poly1305.c:93:5 @[ crypto_aead/xchacha20poly1305/aead_xchacha20poly1305.c:192:11 ]
	movq	%rbp, %rdi
	movq	%r15, %rsi
	movq	%rbx, %rdx
	callq	crypto_onetimeauth_poly1305_update@PLT
.Ltmp67:
	.loc	1 94 61                         # crypto_aead/xchacha20poly1305/aead_xchacha20poly1305.c:94:61 @[ crypto_aead/xchacha20poly1305/aead_xchacha20poly1305.c:192:11 ]
	movl	%ebx, %edx
	negl	%edx
	.loc	1 94 69 is_stmt 0               # crypto_aead/xchacha20poly1305/aead_xchacha20poly1305.c:94:69 @[ crypto_aead/xchacha20poly1305/aead_xchacha20poly1305.c:192:11 ]
	andl	$15, %edx
	.loc	1 94 5                          # crypto_aead/xchacha20poly1305/aead_xchacha20poly1305.c:94:5 @[ crypto_aead/xchacha20poly1305/aead_xchacha20poly1305.c:192:11 ]
	movq	%rbp, %rdi
	movq	%r14, %rsi
	callq	crypto_onetimeauth_poly1305_update@PLT
.Ltmp68:
	#DEBUG_VALUE: store64_le:dst <- [DW_OP_plus_uconst 88, DW_OP_stack_value] $rsp
	#DEBUG_VALUE: memcpy:__dest <- [DW_OP_plus_uconst 88, DW_OP_stack_value] $rsp
	#DEBUG_VALUE: memcpy:__len <- 8
	.loc	4 29 10 is_stmt 1               # /usr/include/x86_64-linux-gnu/bits/string_fortified.h:29:10 @[ ./include/sodium/private/common.h:87:5 @[ crypto_aead/xchacha20poly1305/aead_xchacha20poly1305.c:96:5 @[ crypto_aead/xchacha20poly1305/aead_xchacha20poly1305.c:192:11 ] ] ]
	movq	%r12, 88(%rsp)
	leaq	88(%rsp), %r14
.Ltmp69:
	.loc	1 97 5                          # crypto_aead/xchacha20poly1305/aead_xchacha20poly1305.c:97:5 @[ crypto_aead/xchacha20poly1305/aead_xchacha20poly1305.c:192:11 ]
	movl	$8, %edx
	movq	%rbp, %rdi
	movq	%r14, %rsi
	callq	crypto_onetimeauth_poly1305_update@PLT
.Ltmp70:
	#DEBUG_VALUE: store64_le:dst <- [DW_OP_plus_uconst 88, DW_OP_stack_value] $rsp
	#DEBUG_VALUE: memcpy:__dest <- [DW_OP_plus_uconst 88, DW_OP_stack_value] $rsp
	#DEBUG_VALUE: memcpy:__len <- 8
	.loc	4 29 10                         # /usr/include/x86_64-linux-gnu/bits/string_fortified.h:29:10 @[ ./include/sodium/private/common.h:87:5 @[ crypto_aead/xchacha20poly1305/aead_xchacha20poly1305.c:99:5 @[ crypto_aead/xchacha20poly1305/aead_xchacha20poly1305.c:192:11 ] ] ]
	movq	%rbx, 88(%rsp)
.Ltmp71:
	.loc	1 100 5                         # crypto_aead/xchacha20poly1305/aead_xchacha20poly1305.c:100:5 @[ crypto_aead/xchacha20poly1305/aead_xchacha20poly1305.c:192:11 ]
	movl	$8, %edx
	movq	%rbp, %rdi
	movq	%r14, %rsi
	callq	crypto_onetimeauth_poly1305_update@PLT
.Ltmp72:
	.loc	1 0 5 is_stmt 0                 # crypto_aead/xchacha20poly1305/aead_xchacha20poly1305.c:0:5
	leaq	64(%rsp), %r14
	.loc	1 102 5 is_stmt 1               # crypto_aead/xchacha20poly1305/aead_xchacha20poly1305.c:102:5 @[ crypto_aead/xchacha20poly1305/aead_xchacha20poly1305.c:192:11 ]
	movq	%rbp, %rdi
	movq	%r14, %rsi
	callq	crypto_onetimeauth_poly1305_final@PLT
.Ltmp73:
	.loc	1 103 5                         # crypto_aead/xchacha20poly1305/aead_xchacha20poly1305.c:103:5 @[ crypto_aead/xchacha20poly1305/aead_xchacha20poly1305.c:192:11 ]
	movl	$256, %esi                      # imm = 0x100
	movq	%rbp, %rdi
	callq	sodium_memzero@PLT
.Ltmp74:
	.loc	1 106 11                        # crypto_aead/xchacha20poly1305/aead_xchacha20poly1305.c:106:11 @[ crypto_aead/xchacha20poly1305/aead_xchacha20poly1305.c:192:11 ]
	movq	%r14, %rdi
	movq	(%rsp), %rsi                    # 8-byte Reload
	callq	crypto_verify_16@PLT
.Ltmp75:
	movl	%eax, %ebp
.Ltmp76:
	#DEBUG_VALUE: _decrypt_detached:ret <- $ebp
	.loc	1 107 5                         # crypto_aead/xchacha20poly1305/aead_xchacha20poly1305.c:107:5 @[ crypto_aead/xchacha20poly1305/aead_xchacha20poly1305.c:192:11 ]
	movl	$16, %esi
	movq	%r14, %rdi
	callq	sodium_memzero@PLT
.Ltmp77:
	.loc	1 0 5 is_stmt 0                 # crypto_aead/xchacha20poly1305/aead_xchacha20poly1305.c:0:5
	movq	8(%rsp), %rdi                   # 8-byte Reload
.Ltmp78:
	.loc	1 108 11 is_stmt 1              # crypto_aead/xchacha20poly1305/aead_xchacha20poly1305.c:108:11 @[ crypto_aead/xchacha20poly1305/aead_xchacha20poly1305.c:192:11 ]
	testq	%rdi, %rdi
	je	.LBB2_4
.Ltmp79:
# %bb.1:
	#DEBUG_VALUE: crypto_aead_xchacha20poly1305_ietf_decrypt_detached:m <- [DW_OP_plus_uconst 8] [$rsp+0]
	#DEBUG_VALUE: crypto_aead_xchacha20poly1305_ietf_decrypt_detached:c <- $r15
	#DEBUG_VALUE: crypto_aead_xchacha20poly1305_ietf_decrypt_detached:clen <- $rbx
	#DEBUG_VALUE: crypto_aead_xchacha20poly1305_ietf_decrypt_detached:mac <- [$rsp+0]
	#DEBUG_VALUE: crypto_aead_xchacha20poly1305_ietf_decrypt_detached:ad <- $r13
	#DEBUG_VALUE: crypto_aead_xchacha20poly1305_ietf_decrypt_detached:adlen <- [DW_OP_plus_uconst 480] [$rsp+0]
	#DEBUG_VALUE: crypto_aead_xchacha20poly1305_ietf_decrypt_detached:npub <- [DW_OP_plus_uconst 488] [$rsp+0]
	#DEBUG_VALUE: crypto_aead_xchacha20poly1305_ietf_decrypt_detached:k <- [DW_OP_plus_uconst 496] [$rsp+0]
	#DEBUG_VALUE: crypto_aead_xchacha20poly1305_ietf_decrypt_detached:npub2 <- [DW_OP_plus_uconst 20, DW_OP_deref] $rsp
	#DEBUG_VALUE: _decrypt_detached:computed_mac <- [DW_OP_plus_uconst 64, DW_OP_deref] $rsp
	#DEBUG_VALUE: _decrypt_detached:m <- [DW_OP_plus_uconst 8, DW_OP_deref] $rsp
	#DEBUG_VALUE: _decrypt_detached:c <- $r15
	#DEBUG_VALUE: _decrypt_detached:clen <- $rbx
	#DEBUG_VALUE: _decrypt_detached:mac <- [DW_OP_deref] $rsp
	#DEBUG_VALUE: _decrypt_detached:ad <- $r13
	#DEBUG_VALUE: _decrypt_detached:npub <- [DW_OP_plus_uconst 20, DW_OP_stack_value] $rsp
	#DEBUG_VALUE: _decrypt_detached:k <- [DW_OP_plus_uconst 32, DW_OP_stack_value] $rsp
	#DEBUG_VALUE: _decrypt_detached:mlen <- $rbx
	#DEBUG_VALUE: _decrypt_detached:ret <- $ebp
	.loc	1 111 13                        # crypto_aead/xchacha20poly1305/aead_xchacha20poly1305.c:111:13 @[ crypto_aead/xchacha20poly1305/aead_xchacha20poly1305.c:192:11 ]
	testl	%ebp, %ebp
	je	.LBB2_3
.Ltmp80:
# %bb.2:
	#DEBUG_VALUE: crypto_aead_xchacha20poly1305_ietf_decrypt_detached:m <- [DW_OP_plus_uconst 8] [$rsp+0]
	#DEBUG_VALUE: crypto_aead_xchacha20poly1305_ietf_decrypt_detached:c <- $r15
	#DEBUG_VALUE: crypto_aead_xchacha20poly1305_ietf_decrypt_detached:clen <- $rbx
	#DEBUG_VALUE: crypto_aead_xchacha20poly1305_ietf_decrypt_detached:mac <- [$rsp+0]
	#DEBUG_VALUE: crypto_aead_xchacha20poly1305_ietf_decrypt_detached:ad <- $r13
	#DEBUG_VALUE: crypto_aead_xchacha20poly1305_ietf_decrypt_detached:adlen <- [DW_OP_plus_uconst 480] [$rsp+0]
	#DEBUG_VALUE: crypto_aead_xchacha20poly1305_ietf_decrypt_detached:npub <- [DW_OP_plus_uconst 488] [$rsp+0]
	#DEBUG_VALUE: crypto_aead_xchacha20poly1305_ietf_decrypt_detached:k <- [DW_OP_plus_uconst 496] [$rsp+0]
	#DEBUG_VALUE: crypto_aead_xchacha20poly1305_ietf_decrypt_detached:npub2 <- [DW_OP_plus_uconst 20, DW_OP_deref] $rsp
	#DEBUG_VALUE: _decrypt_detached:computed_mac <- [DW_OP_plus_uconst 64, DW_OP_deref] $rsp
	#DEBUG_VALUE: _decrypt_detached:m <- [DW_OP_plus_uconst 8, DW_OP_deref] $rsp
	#DEBUG_VALUE: _decrypt_detached:c <- $r15
	#DEBUG_VALUE: _decrypt_detached:clen <- $rbx
	#DEBUG_VALUE: _decrypt_detached:mac <- [DW_OP_deref] $rsp
	#DEBUG_VALUE: _decrypt_detached:ad <- $r13
	#DEBUG_VALUE: _decrypt_detached:npub <- [DW_OP_plus_uconst 20, DW_OP_stack_value] $rsp
	#DEBUG_VALUE: _decrypt_detached:k <- [DW_OP_plus_uconst 32, DW_OP_stack_value] $rsp
	#DEBUG_VALUE: _decrypt_detached:mlen <- $rbx
	#DEBUG_VALUE: _decrypt_detached:ret <- $ebp
	#DEBUG_VALUE: memset:__dest <- [DW_OP_plus_uconst 8, DW_OP_deref] $rsp
	#DEBUG_VALUE: memset:__ch <- 0
	#DEBUG_VALUE: memset:__len <- $rbx
	.loc	4 59 10                         # /usr/include/x86_64-linux-gnu/bits/string_fortified.h:59:10 @[ crypto_aead/xchacha20poly1305/aead_xchacha20poly1305.c:112:9 @[ crypto_aead/xchacha20poly1305/aead_xchacha20poly1305.c:192:11 ] ]
	xorl	%esi, %esi
	movq	%rbx, %rdx
	callq	memset@PLT
.Ltmp81:
	.loc	4 0 10 is_stmt 0                # /usr/include/x86_64-linux-gnu/bits/string_fortified.h:0:10
	movl	$-1, %ebp
.Ltmp82:
	.loc	1 113 9 is_stmt 1               # crypto_aead/xchacha20poly1305/aead_xchacha20poly1305.c:113:9 @[ crypto_aead/xchacha20poly1305/aead_xchacha20poly1305.c:192:11 ]
	jmp	.LBB2_4
.Ltmp83:
.LBB2_3:
	#DEBUG_VALUE: crypto_aead_xchacha20poly1305_ietf_decrypt_detached:m <- [DW_OP_plus_uconst 8] [$rsp+0]
	#DEBUG_VALUE: crypto_aead_xchacha20poly1305_ietf_decrypt_detached:c <- $r15
	#DEBUG_VALUE: crypto_aead_xchacha20poly1305_ietf_decrypt_detached:clen <- $rbx
	#DEBUG_VALUE: crypto_aead_xchacha20poly1305_ietf_decrypt_detached:mac <- [$rsp+0]
	#DEBUG_VALUE: crypto_aead_xchacha20poly1305_ietf_decrypt_detached:ad <- $r13
	#DEBUG_VALUE: crypto_aead_xchacha20poly1305_ietf_decrypt_detached:adlen <- [DW_OP_plus_uconst 480] [$rsp+0]
	#DEBUG_VALUE: crypto_aead_xchacha20poly1305_ietf_decrypt_detached:npub <- [DW_OP_plus_uconst 488] [$rsp+0]
	#DEBUG_VALUE: crypto_aead_xchacha20poly1305_ietf_decrypt_detached:k <- [DW_OP_plus_uconst 496] [$rsp+0]
	#DEBUG_VALUE: crypto_aead_xchacha20poly1305_ietf_decrypt_detached:npub2 <- [DW_OP_plus_uconst 20, DW_OP_deref] $rsp
	#DEBUG_VALUE: _decrypt_detached:computed_mac <- [DW_OP_plus_uconst 64, DW_OP_deref] $rsp
	#DEBUG_VALUE: _decrypt_detached:m <- [DW_OP_plus_uconst 8, DW_OP_deref] $rsp
	#DEBUG_VALUE: _decrypt_detached:c <- $r15
	#DEBUG_VALUE: _decrypt_detached:clen <- $rbx
	#DEBUG_VALUE: _decrypt_detached:mac <- [DW_OP_deref] $rsp
	#DEBUG_VALUE: _decrypt_detached:ad <- $r13
	#DEBUG_VALUE: _decrypt_detached:npub <- [DW_OP_plus_uconst 20, DW_OP_stack_value] $rsp
	#DEBUG_VALUE: _decrypt_detached:k <- [DW_OP_plus_uconst 32, DW_OP_stack_value] $rsp
	#DEBUG_VALUE: _decrypt_detached:mlen <- $rbx
	#DEBUG_VALUE: _decrypt_detached:ret <- $ebp
	.loc	1 0 9 is_stmt 0                 # crypto_aead/xchacha20poly1305/aead_xchacha20poly1305.c:0:9
	leaq	20(%rsp), %rcx
	leaq	32(%rsp), %r9
	.loc	1 115 5 is_stmt 1               # crypto_aead/xchacha20poly1305/aead_xchacha20poly1305.c:115:5 @[ crypto_aead/xchacha20poly1305/aead_xchacha20poly1305.c:192:11 ]
	movq	%r15, %rsi
	movq	%rbx, %rdx
	movl	$1, %r8d
	callq	crypto_stream_chacha20_ietf_ext_xor_ic@PLT
.Ltmp84:
	.loc	1 0 5 is_stmt 0                 # crypto_aead/xchacha20poly1305/aead_xchacha20poly1305.c:0:5
	xorl	%ebp, %ebp
.Ltmp85:
.LBB2_4:                                # %_decrypt_detached.exit
	#DEBUG_VALUE: crypto_aead_xchacha20poly1305_ietf_decrypt_detached:m <- [DW_OP_plus_uconst 8] [$rsp+0]
	#DEBUG_VALUE: crypto_aead_xchacha20poly1305_ietf_decrypt_detached:c <- $r15
	#DEBUG_VALUE: crypto_aead_xchacha20poly1305_ietf_decrypt_detached:clen <- $rbx
	#DEBUG_VALUE: crypto_aead_xchacha20poly1305_ietf_decrypt_detached:mac <- [$rsp+0]
	#DEBUG_VALUE: crypto_aead_xchacha20poly1305_ietf_decrypt_detached:ad <- $r13
	#DEBUG_VALUE: crypto_aead_xchacha20poly1305_ietf_decrypt_detached:adlen <- [DW_OP_plus_uconst 480] [$rsp+0]
	#DEBUG_VALUE: crypto_aead_xchacha20poly1305_ietf_decrypt_detached:npub <- [DW_OP_plus_uconst 488] [$rsp+0]
	#DEBUG_VALUE: crypto_aead_xchacha20poly1305_ietf_decrypt_detached:k <- [DW_OP_plus_uconst 496] [$rsp+0]
	#DEBUG_VALUE: crypto_aead_xchacha20poly1305_ietf_decrypt_detached:npub2 <- [DW_OP_plus_uconst 20, DW_OP_deref] $rsp
	#DEBUG_VALUE: crypto_aead_xchacha20poly1305_ietf_decrypt_detached:ret <- $ebp
	leaq	32(%rsp), %rdi
	.loc	1 193 5 is_stmt 1               # crypto_aead/xchacha20poly1305/aead_xchacha20poly1305.c:193:5
	movl	$32, %esi
	callq	sodium_memzero@PLT
.Ltmp86:
	.loc	1 195 5                         # crypto_aead/xchacha20poly1305/aead_xchacha20poly1305.c:195:5
	movq	%fs:40, %rax
	cmpq	416(%rsp), %rax
	jne	.LBB2_6
.Ltmp87:
# %bb.5:                                # %SP_return
	#DEBUG_VALUE: crypto_aead_xchacha20poly1305_ietf_decrypt_detached:m <- [DW_OP_plus_uconst 8] [$rsp+0]
	#DEBUG_VALUE: crypto_aead_xchacha20poly1305_ietf_decrypt_detached:c <- $r15
	#DEBUG_VALUE: crypto_aead_xchacha20poly1305_ietf_decrypt_detached:clen <- $rbx
	#DEBUG_VALUE: crypto_aead_xchacha20poly1305_ietf_decrypt_detached:mac <- [$rsp+0]
	#DEBUG_VALUE: crypto_aead_xchacha20poly1305_ietf_decrypt_detached:ad <- $r13
	#DEBUG_VALUE: crypto_aead_xchacha20poly1305_ietf_decrypt_detached:adlen <- [DW_OP_plus_uconst 480] [$rsp+0]
	#DEBUG_VALUE: crypto_aead_xchacha20poly1305_ietf_decrypt_detached:npub <- [DW_OP_plus_uconst 488] [$rsp+0]
	#DEBUG_VALUE: crypto_aead_xchacha20poly1305_ietf_decrypt_detached:k <- [DW_OP_plus_uconst 496] [$rsp+0]
	#DEBUG_VALUE: crypto_aead_xchacha20poly1305_ietf_decrypt_detached:npub2 <- [DW_OP_plus_uconst 20, DW_OP_deref] $rsp
	#DEBUG_VALUE: crypto_aead_xchacha20poly1305_ietf_decrypt_detached:ret <- $ebp
	movl	%ebp, %eax
	.loc	1 195 5 epilogue_begin is_stmt 0 # crypto_aead/xchacha20poly1305/aead_xchacha20poly1305.c:195:5
	addq	$424, %rsp                      # imm = 0x1A8
	.cfi_def_cfa_offset 56
	popq	%rbx
.Ltmp88:
	#DEBUG_VALUE: crypto_aead_xchacha20poly1305_ietf_decrypt_detached:clen <- [DW_OP_LLVM_entry_value 1] $rcx
	.cfi_def_cfa_offset 48
	popq	%r12
	.cfi_def_cfa_offset 40
	popq	%r13
.Ltmp89:
	#DEBUG_VALUE: crypto_aead_xchacha20poly1305_ietf_decrypt_detached:ad <- [DW_OP_LLVM_entry_value 1] $r9
	.cfi_def_cfa_offset 32
	popq	%r14
	.cfi_def_cfa_offset 24
	popq	%r15
.Ltmp90:
	#DEBUG_VALUE: crypto_aead_xchacha20poly1305_ietf_decrypt_detached:c <- [DW_OP_LLVM_entry_value 1] $rdx
	.cfi_def_cfa_offset 16
	popq	%rbp
.Ltmp91:
	#DEBUG_VALUE: crypto_aead_xchacha20poly1305_ietf_decrypt_detached:ret <- $eax
	.cfi_def_cfa_offset 8
	retq
.Ltmp92:
.LBB2_6:                                # %CallStackCheckFailBlk
	.cfi_def_cfa_offset 480
	#DEBUG_VALUE: crypto_aead_xchacha20poly1305_ietf_decrypt_detached:m <- [DW_OP_plus_uconst 8] [$rsp+0]
	#DEBUG_VALUE: crypto_aead_xchacha20poly1305_ietf_decrypt_detached:c <- $r15
	#DEBUG_VALUE: crypto_aead_xchacha20poly1305_ietf_decrypt_detached:clen <- $rbx
	#DEBUG_VALUE: crypto_aead_xchacha20poly1305_ietf_decrypt_detached:mac <- [$rsp+0]
	#DEBUG_VALUE: crypto_aead_xchacha20poly1305_ietf_decrypt_detached:ad <- $r13
	#DEBUG_VALUE: crypto_aead_xchacha20poly1305_ietf_decrypt_detached:adlen <- [DW_OP_plus_uconst 480] [$rsp+0]
	#DEBUG_VALUE: crypto_aead_xchacha20poly1305_ietf_decrypt_detached:npub <- [DW_OP_plus_uconst 488] [$rsp+0]
	#DEBUG_VALUE: crypto_aead_xchacha20poly1305_ietf_decrypt_detached:k <- [DW_OP_plus_uconst 496] [$rsp+0]
	#DEBUG_VALUE: crypto_aead_xchacha20poly1305_ietf_decrypt_detached:npub2 <- [DW_OP_plus_uconst 20, DW_OP_deref] $rsp
	#DEBUG_VALUE: crypto_aead_xchacha20poly1305_ietf_decrypt_detached:ret <- $ebp
	.loc	1 0 0                           # crypto_aead/xchacha20poly1305/aead_xchacha20poly1305.c:0
	callq	__stack_chk_fail@PLT
.Ltmp93:
.Lfunc_end2:
	.size	crypto_aead_xchacha20poly1305_ietf_decrypt_detached, .Lfunc_end2-crypto_aead_xchacha20poly1305_ietf_decrypt_detached
	.cfi_endproc
	.file	12 "./include/sodium" "crypto_verify_16.h"
                                        # -- End function
	.globl	crypto_aead_xchacha20poly1305_ietf_decrypt # -- Begin function crypto_aead_xchacha20poly1305_ietf_decrypt
	.p2align	4
	.type	crypto_aead_xchacha20poly1305_ietf_decrypt,@function
crypto_aead_xchacha20poly1305_ietf_decrypt: # @crypto_aead_xchacha20poly1305_ietf_decrypt
.Lfunc_begin3:
	.loc	1 208 0 is_stmt 1               # crypto_aead/xchacha20poly1305/aead_xchacha20poly1305.c:208:0
	.cfi_startproc
# %bb.0:
	#DEBUG_VALUE: crypto_aead_xchacha20poly1305_ietf_decrypt:m <- $rdi
	#DEBUG_VALUE: crypto_aead_xchacha20poly1305_ietf_decrypt:mlen_p <- $rsi
	#DEBUG_VALUE: crypto_aead_xchacha20poly1305_ietf_decrypt:nsec <- $rdx
	#DEBUG_VALUE: crypto_aead_xchacha20poly1305_ietf_decrypt:c <- $rcx
	#DEBUG_VALUE: crypto_aead_xchacha20poly1305_ietf_decrypt:clen <- $r8
	#DEBUG_VALUE: crypto_aead_xchacha20poly1305_ietf_decrypt:ad <- $r9
	pushq	%r14
	.cfi_def_cfa_offset 16
	pushq	%rbx
	.cfi_def_cfa_offset 24
	pushq	%rax
	.cfi_def_cfa_offset 32
	.cfi_offset %rbx, -24
	.cfi_offset %r14, -16
.Ltmp94:
	#DEBUG_VALUE: crypto_aead_xchacha20poly1305_ietf_decrypt:adlen <- [DW_OP_plus_uconst 32] [$rsp+0]
	#DEBUG_VALUE: crypto_aead_xchacha20poly1305_ietf_decrypt:npub <- [DW_OP_plus_uconst 40] [$rsp+0]
	#DEBUG_VALUE: crypto_aead_xchacha20poly1305_ietf_decrypt:k <- [DW_OP_plus_uconst 48] [$rsp+0]
	movq	%r8, %rbx
	movq	%rsi, %r14
	movl	$-1, %eax
.Ltmp95:
	#DEBUG_VALUE: crypto_aead_xchacha20poly1305_ietf_decrypt:mlen <- 0
	#DEBUG_VALUE: crypto_aead_xchacha20poly1305_ietf_decrypt:ret <- -1
	.loc	1 212 14 prologue_end           # crypto_aead/xchacha20poly1305/aead_xchacha20poly1305.c:212:14
	cmpq	$16, %r8
	jb	.LBB3_2
.Ltmp96:
# %bb.1:
	#DEBUG_VALUE: crypto_aead_xchacha20poly1305_ietf_decrypt:m <- $rdi
	#DEBUG_VALUE: crypto_aead_xchacha20poly1305_ietf_decrypt:mlen_p <- $r14
	#DEBUG_VALUE: crypto_aead_xchacha20poly1305_ietf_decrypt:nsec <- $rdx
	#DEBUG_VALUE: crypto_aead_xchacha20poly1305_ietf_decrypt:c <- $rcx
	#DEBUG_VALUE: crypto_aead_xchacha20poly1305_ietf_decrypt:clen <- $rbx
	#DEBUG_VALUE: crypto_aead_xchacha20poly1305_ietf_decrypt:ad <- $r9
	#DEBUG_VALUE: crypto_aead_xchacha20poly1305_ietf_decrypt:adlen <- [DW_OP_plus_uconst 32] [$rsp+0]
	#DEBUG_VALUE: crypto_aead_xchacha20poly1305_ietf_decrypt:npub <- [DW_OP_plus_uconst 40] [$rsp+0]
	#DEBUG_VALUE: crypto_aead_xchacha20poly1305_ietf_decrypt:k <- [DW_OP_plus_uconst 48] [$rsp+0]
	#DEBUG_VALUE: crypto_aead_xchacha20poly1305_ietf_decrypt:mlen <- 0
	#DEBUG_VALUE: crypto_aead_xchacha20poly1305_ietf_decrypt:ret <- -1
	.loc	1 215 22                        # crypto_aead/xchacha20poly1305/aead_xchacha20poly1305.c:215:22
	leaq	-16(%rbx), %rax
	.loc	1 216 23                        # crypto_aead/xchacha20poly1305/aead_xchacha20poly1305.c:216:23
	leaq	(%rbx,%rcx), %r8
	addq	$-16, %r8
	.loc	1 213 15                        # crypto_aead/xchacha20poly1305/aead_xchacha20poly1305.c:213:15
	subq	$8, %rsp
.Ltmp97:
	.cfi_adjust_cfa_offset 8
	movq	%rcx, %rdx
.Ltmp98:
	#DEBUG_VALUE: crypto_aead_xchacha20poly1305_ietf_decrypt:nsec <- [DW_OP_LLVM_entry_value 1] $rdx
	movq	%rax, %rcx
.Ltmp99:
	#DEBUG_VALUE: crypto_aead_xchacha20poly1305_ietf_decrypt:c <- $rdx
	pushq	56(%rsp)
	.cfi_adjust_cfa_offset 8
	pushq	56(%rsp)
	.cfi_adjust_cfa_offset 8
	pushq	56(%rsp)
	.cfi_adjust_cfa_offset 8
	callq	crypto_aead_xchacha20poly1305_ietf_decrypt_detached
.Ltmp100:
	#DEBUG_VALUE: crypto_aead_xchacha20poly1305_ietf_decrypt:ad <- [DW_OP_LLVM_entry_value 1] $r9
	#DEBUG_VALUE: crypto_aead_xchacha20poly1305_ietf_decrypt:c <- [DW_OP_LLVM_entry_value 1] $rcx
	#DEBUG_VALUE: crypto_aead_xchacha20poly1305_ietf_decrypt:nsec <- [DW_OP_LLVM_entry_value 1] $rcx
	#DEBUG_VALUE: crypto_aead_xchacha20poly1305_ietf_decrypt:m <- [DW_OP_LLVM_entry_value 1] $rdi
	#DEBUG_VALUE: crypto_aead_xchacha20poly1305_ietf_decrypt:ret <- $eax
	addq	$32, %rsp
.Ltmp101:
	.cfi_adjust_cfa_offset -32
.LBB3_2:
	#DEBUG_VALUE: crypto_aead_xchacha20poly1305_ietf_decrypt:m <- [DW_OP_LLVM_entry_value 1] $rdi
	#DEBUG_VALUE: crypto_aead_xchacha20poly1305_ietf_decrypt:mlen_p <- $r14
	#DEBUG_VALUE: crypto_aead_xchacha20poly1305_ietf_decrypt:nsec <- [DW_OP_LLVM_entry_value 1] $rdx
	#DEBUG_VALUE: crypto_aead_xchacha20poly1305_ietf_decrypt:c <- [DW_OP_LLVM_entry_value 1] $rcx
	#DEBUG_VALUE: crypto_aead_xchacha20poly1305_ietf_decrypt:clen <- $rbx
	#DEBUG_VALUE: crypto_aead_xchacha20poly1305_ietf_decrypt:ad <- [DW_OP_LLVM_entry_value 1] $r9
	#DEBUG_VALUE: crypto_aead_xchacha20poly1305_ietf_decrypt:mlen <- 0
	#DEBUG_VALUE: crypto_aead_xchacha20poly1305_ietf_decrypt:ret <- $eax
	.loc	1 219 16                        # crypto_aead/xchacha20poly1305/aead_xchacha20poly1305.c:219:16
	testq	%r14, %r14
	je	.LBB3_4
.Ltmp102:
# %bb.3:
	#DEBUG_VALUE: crypto_aead_xchacha20poly1305_ietf_decrypt:m <- [DW_OP_LLVM_entry_value 1] $rdi
	#DEBUG_VALUE: crypto_aead_xchacha20poly1305_ietf_decrypt:mlen_p <- $r14
	#DEBUG_VALUE: crypto_aead_xchacha20poly1305_ietf_decrypt:nsec <- [DW_OP_LLVM_entry_value 1] $rdx
	#DEBUG_VALUE: crypto_aead_xchacha20poly1305_ietf_decrypt:c <- [DW_OP_LLVM_entry_value 1] $rcx
	#DEBUG_VALUE: crypto_aead_xchacha20poly1305_ietf_decrypt:clen <- $rbx
	#DEBUG_VALUE: crypto_aead_xchacha20poly1305_ietf_decrypt:ad <- [DW_OP_LLVM_entry_value 1] $r9
	#DEBUG_VALUE: crypto_aead_xchacha20poly1305_ietf_decrypt:mlen <- 0
	#DEBUG_VALUE: crypto_aead_xchacha20poly1305_ietf_decrypt:ret <- $eax
	.loc	1 0 16 is_stmt 0                # crypto_aead/xchacha20poly1305/aead_xchacha20poly1305.c:0:16
	addq	$-16, %rbx
.Ltmp103:
	#DEBUG_VALUE: crypto_aead_xchacha20poly1305_ietf_decrypt:clen <- [DW_OP_LLVM_entry_value 1] $r8
	xorl	%ecx, %ecx
.Ltmp104:
	.loc	1 220 17 is_stmt 1              # crypto_aead/xchacha20poly1305/aead_xchacha20poly1305.c:220:17
	testl	%eax, %eax
	cmoveq	%rbx, %rcx
.Ltmp105:
	#DEBUG_VALUE: crypto_aead_xchacha20poly1305_ietf_decrypt:mlen <- $rcx
	.loc	1 223 17                        # crypto_aead/xchacha20poly1305/aead_xchacha20poly1305.c:223:17
	movq	%rcx, (%r14)
.Ltmp106:
.LBB3_4:
	#DEBUG_VALUE: crypto_aead_xchacha20poly1305_ietf_decrypt:m <- [DW_OP_LLVM_entry_value 1] $rdi
	#DEBUG_VALUE: crypto_aead_xchacha20poly1305_ietf_decrypt:mlen_p <- $r14
	#DEBUG_VALUE: crypto_aead_xchacha20poly1305_ietf_decrypt:nsec <- [DW_OP_LLVM_entry_value 1] $rdx
	#DEBUG_VALUE: crypto_aead_xchacha20poly1305_ietf_decrypt:c <- [DW_OP_LLVM_entry_value 1] $rcx
	#DEBUG_VALUE: crypto_aead_xchacha20poly1305_ietf_decrypt:clen <- [DW_OP_LLVM_entry_value 1] $r8
	#DEBUG_VALUE: crypto_aead_xchacha20poly1305_ietf_decrypt:ad <- [DW_OP_LLVM_entry_value 1] $r9
	#DEBUG_VALUE: crypto_aead_xchacha20poly1305_ietf_decrypt:ret <- $eax
	.loc	1 225 5 epilogue_begin          # crypto_aead/xchacha20poly1305/aead_xchacha20poly1305.c:225:5
	addq	$8, %rsp
	.cfi_def_cfa_offset 24
	popq	%rbx
	.cfi_def_cfa_offset 16
	popq	%r14
.Ltmp107:
	#DEBUG_VALUE: crypto_aead_xchacha20poly1305_ietf_decrypt:mlen_p <- [DW_OP_LLVM_entry_value 1] $rsi
	.cfi_def_cfa_offset 8
	retq
.Ltmp108:
.Lfunc_end3:
	.size	crypto_aead_xchacha20poly1305_ietf_decrypt, .Lfunc_end3-crypto_aead_xchacha20poly1305_ietf_decrypt
	.cfi_endproc
                                        # -- End function
	.globl	crypto_aead_xchacha20poly1305_ietf_keybytes # -- Begin function crypto_aead_xchacha20poly1305_ietf_keybytes
	.p2align	4
	.type	crypto_aead_xchacha20poly1305_ietf_keybytes,@function
crypto_aead_xchacha20poly1305_ietf_keybytes: # @crypto_aead_xchacha20poly1305_ietf_keybytes
.Lfunc_begin4:
	.cfi_startproc
# %bb.0:
	.loc	1 231 5 prologue_end            # crypto_aead/xchacha20poly1305/aead_xchacha20poly1305.c:231:5
	movl	$32, %eax
	retq
.Ltmp109:
.Lfunc_end4:
	.size	crypto_aead_xchacha20poly1305_ietf_keybytes, .Lfunc_end4-crypto_aead_xchacha20poly1305_ietf_keybytes
	.cfi_endproc
                                        # -- End function
	.globl	crypto_aead_xchacha20poly1305_ietf_npubbytes # -- Begin function crypto_aead_xchacha20poly1305_ietf_npubbytes
	.p2align	4
	.type	crypto_aead_xchacha20poly1305_ietf_npubbytes,@function
crypto_aead_xchacha20poly1305_ietf_npubbytes: # @crypto_aead_xchacha20poly1305_ietf_npubbytes
.Lfunc_begin5:
	.cfi_startproc
# %bb.0:
	.loc	1 237 5 prologue_end            # crypto_aead/xchacha20poly1305/aead_xchacha20poly1305.c:237:5
	movl	$24, %eax
	retq
.Ltmp110:
.Lfunc_end5:
	.size	crypto_aead_xchacha20poly1305_ietf_npubbytes, .Lfunc_end5-crypto_aead_xchacha20poly1305_ietf_npubbytes
	.cfi_endproc
                                        # -- End function
	.globl	crypto_aead_xchacha20poly1305_ietf_nsecbytes # -- Begin function crypto_aead_xchacha20poly1305_ietf_nsecbytes
	.p2align	4
	.type	crypto_aead_xchacha20poly1305_ietf_nsecbytes,@function
crypto_aead_xchacha20poly1305_ietf_nsecbytes: # @crypto_aead_xchacha20poly1305_ietf_nsecbytes
.Lfunc_begin6:
	.cfi_startproc
# %bb.0:
	.loc	1 243 5 prologue_end            # crypto_aead/xchacha20poly1305/aead_xchacha20poly1305.c:243:5
	xorl	%eax, %eax
	retq
.Ltmp111:
.Lfunc_end6:
	.size	crypto_aead_xchacha20poly1305_ietf_nsecbytes, .Lfunc_end6-crypto_aead_xchacha20poly1305_ietf_nsecbytes
	.cfi_endproc
                                        # -- End function
	.globl	crypto_aead_xchacha20poly1305_ietf_abytes # -- Begin function crypto_aead_xchacha20poly1305_ietf_abytes
	.p2align	4
	.type	crypto_aead_xchacha20poly1305_ietf_abytes,@function
crypto_aead_xchacha20poly1305_ietf_abytes: # @crypto_aead_xchacha20poly1305_ietf_abytes
.Lfunc_begin7:
	.cfi_startproc
# %bb.0:
	.loc	1 249 5 prologue_end            # crypto_aead/xchacha20poly1305/aead_xchacha20poly1305.c:249:5
	movl	$16, %eax
	retq
.Ltmp112:
.Lfunc_end7:
	.size	crypto_aead_xchacha20poly1305_ietf_abytes, .Lfunc_end7-crypto_aead_xchacha20poly1305_ietf_abytes
	.cfi_endproc
                                        # -- End function
	.globl	crypto_aead_xchacha20poly1305_ietf_messagebytes_max # -- Begin function crypto_aead_xchacha20poly1305_ietf_messagebytes_max
	.p2align	4
	.type	crypto_aead_xchacha20poly1305_ietf_messagebytes_max,@function
crypto_aead_xchacha20poly1305_ietf_messagebytes_max: # @crypto_aead_xchacha20poly1305_ietf_messagebytes_max
.Lfunc_begin8:
	.cfi_startproc
# %bb.0:
	.loc	1 255 5 prologue_end            # crypto_aead/xchacha20poly1305/aead_xchacha20poly1305.c:255:5
	movq	$-17, %rax
	retq
.Ltmp113:
.Lfunc_end8:
	.size	crypto_aead_xchacha20poly1305_ietf_messagebytes_max, .Lfunc_end8-crypto_aead_xchacha20poly1305_ietf_messagebytes_max
	.cfi_endproc
                                        # -- End function
	.globl	crypto_aead_xchacha20poly1305_ietf_keygen # -- Begin function crypto_aead_xchacha20poly1305_ietf_keygen
	.p2align	4
	.type	crypto_aead_xchacha20poly1305_ietf_keygen,@function
crypto_aead_xchacha20poly1305_ietf_keygen: # @crypto_aead_xchacha20poly1305_ietf_keygen
.Lfunc_begin9:
	.cfi_startproc
# %bb.0:
	#DEBUG_VALUE: crypto_aead_xchacha20poly1305_ietf_keygen:k <- $rdi
	.loc	1 261 5 prologue_end            # crypto_aead/xchacha20poly1305/aead_xchacha20poly1305.c:261:5
	movl	$32, %esi
.Ltmp114:
	jmp	randombytes_buf@PLT             # TAILCALL
.Ltmp115:
.Lfunc_end9:
	.size	crypto_aead_xchacha20poly1305_ietf_keygen, .Lfunc_end9-crypto_aead_xchacha20poly1305_ietf_keygen
	.cfi_endproc
	.file	13 "./include/sodium" "randombytes.h"
                                        # -- End function
	.type	_pad0,@object                   # @_pad0
	.section	.rodata,"a",@progbits
	.p2align	4, 0x0
_pad0:
	.zero	16
	.size	_pad0, 16

	.section	".note.GNU-stack","",@progbits
	.addrsig
	.addrsig_sym __stack_chk_fail
	.addrsig_sym _pad0