	.file	"aead_aegis128l.c"
	.file	0 "/home/leizhenyuu/opt/Anonymous_Repo/libsodium_o2_attr_inline/src/libsodium" "aead_aegis128l.c" md5 0xdb3c4b7372725fae2d9afaed78d984e0
	.file	1 "/usr/include/x86_64-linux-gnu/bits" "types.h"
	.file	2 "/usr/include/x86_64-linux-gnu/bits" "stdint-uintn.h"
	.file	3 "/home/leizhenyuu/opt/Anonymous_Repo" "llvm-project/build/lib/clang/21/include/__stddef_size_t.h"
	.file	4 "crypto_aead/aegis128l" "implementations.h"
	.file	5 "crypto_aead/aegis128l" "aead_aegis128l.c"
	.text
	.globl	crypto_aead_aegis128l_keybytes  # -- Begin function crypto_aead_aegis128l_keybytes
	.p2align	4
	.type	crypto_aead_aegis128l_keybytes,@function
crypto_aead_aegis128l_keybytes:         # @crypto_aead_aegis128l_keybytes
.Lfunc_begin0:
	.cfi_startproc
# %bb.0:
	.loc	5 27 5 prologue_end             # crypto_aead/aegis128l/aead_aegis128l.c:27:5
	movl	$16, %eax
	retq
.Ltmp0:
.Lfunc_end0:
	.size	crypto_aead_aegis128l_keybytes, .Lfunc_end0-crypto_aead_aegis128l_keybytes
	.cfi_endproc
                                        # -- End function
	.globl	crypto_aead_aegis128l_nsecbytes # -- Begin function crypto_aead_aegis128l_nsecbytes
	.p2align	4
	.type	crypto_aead_aegis128l_nsecbytes,@function
crypto_aead_aegis128l_nsecbytes:        # @crypto_aead_aegis128l_nsecbytes
.Lfunc_begin1:
	.cfi_startproc
# %bb.0:
	.loc	5 33 5 prologue_end             # crypto_aead/aegis128l/aead_aegis128l.c:33:5
	xorl	%eax, %eax
	retq
.Ltmp1:
.Lfunc_end1:
	.size	crypto_aead_aegis128l_nsecbytes, .Lfunc_end1-crypto_aead_aegis128l_nsecbytes
	.cfi_endproc
                                        # -- End function
	.globl	crypto_aead_aegis128l_npubbytes # -- Begin function crypto_aead_aegis128l_npubbytes
	.p2align	4
	.type	crypto_aead_aegis128l_npubbytes,@function
crypto_aead_aegis128l_npubbytes:        # @crypto_aead_aegis128l_npubbytes
.Lfunc_begin2:
	.cfi_startproc
# %bb.0:
	.loc	5 39 5 prologue_end             # crypto_aead/aegis128l/aead_aegis128l.c:39:5
	movl	$16, %eax
	retq
.Ltmp2:
.Lfunc_end2:
	.size	crypto_aead_aegis128l_npubbytes, .Lfunc_end2-crypto_aead_aegis128l_npubbytes
	.cfi_endproc
                                        # -- End function
	.globl	crypto_aead_aegis128l_abytes    # -- Begin function crypto_aead_aegis128l_abytes
	.p2align	4
	.type	crypto_aead_aegis128l_abytes,@function
crypto_aead_aegis128l_abytes:           # @crypto_aead_aegis128l_abytes
.Lfunc_begin3:
	.cfi_startproc
# %bb.0:
	.loc	5 45 5 prologue_end             # crypto_aead/aegis128l/aead_aegis128l.c:45:5
	movl	$32, %eax
	retq
.Ltmp3:
.Lfunc_end3:
	.size	crypto_aead_aegis128l_abytes, .Lfunc_end3-crypto_aead_aegis128l_abytes
	.cfi_endproc
                                        # -- End function
	.globl	crypto_aead_aegis128l_messagebytes_max # -- Begin function crypto_aead_aegis128l_messagebytes_max
	.p2align	4
	.type	crypto_aead_aegis128l_messagebytes_max,@function
crypto_aead_aegis128l_messagebytes_max: # @crypto_aead_aegis128l_messagebytes_max
.Lfunc_begin4:
	.loc	5 50 0                          # crypto_aead/aegis128l/aead_aegis128l.c:50:0
	.cfi_startproc
# %bb.0:
	movabsq	$2305843009213693951, %rax      # imm = 0x1FFFFFFFFFFFFFFF
.Ltmp4:
	.loc	5 51 5 prologue_end             # crypto_aead/aegis128l/aead_aegis128l.c:51:5
	retq
.Ltmp5:
.Lfunc_end4:
	.size	crypto_aead_aegis128l_messagebytes_max, .Lfunc_end4-crypto_aead_aegis128l_messagebytes_max
	.cfi_endproc
                                        # -- End function
	.globl	crypto_aead_aegis128l_keygen    # -- Begin function crypto_aead_aegis128l_keygen
	.p2align	4
	.type	crypto_aead_aegis128l_keygen,@function
crypto_aead_aegis128l_keygen:           # @crypto_aead_aegis128l_keygen
.Lfunc_begin5:
	.cfi_startproc
# %bb.0:
	#DEBUG_VALUE: crypto_aead_aegis128l_keygen:k <- $rdi
	.loc	5 57 5 prologue_end             # crypto_aead/aegis128l/aead_aegis128l.c:57:5
	movl	$16, %esi
.Ltmp6:
	jmp	randombytes_buf@PLT             # TAILCALL
.Ltmp7:
.Lfunc_end5:
	.size	crypto_aead_aegis128l_keygen, .Lfunc_end5-crypto_aead_aegis128l_keygen
	.cfi_endproc
	.file	6 "./include/sodium" "randombytes.h"
                                        # -- End function
	.globl	crypto_aead_aegis128l_encrypt   # -- Begin function crypto_aead_aegis128l_encrypt
	.p2align	4
	.type	crypto_aead_aegis128l_encrypt,@function
crypto_aead_aegis128l_encrypt:          # @crypto_aead_aegis128l_encrypt
.Lfunc_begin6:
	.loc	5 65 0                          # crypto_aead/aegis128l/aead_aegis128l.c:65:0
	.cfi_startproc
# %bb.0:
	#DEBUG_VALUE: crypto_aead_aegis128l_encrypt:c <- $rdi
	#DEBUG_VALUE: crypto_aead_aegis128l_encrypt:clen_p <- $rsi
	#DEBUG_VALUE: crypto_aead_aegis128l_encrypt:m <- $rdx
	#DEBUG_VALUE: crypto_aead_aegis128l_encrypt:mlen <- $rcx
	#DEBUG_VALUE: crypto_aead_aegis128l_encrypt:ad <- $r8
	#DEBUG_VALUE: crypto_aead_aegis128l_encrypt:adlen <- $r9
	#DEBUG_VALUE: crypto_aead_aegis128l_encrypt_detached:c <- $rdi
	#DEBUG_VALUE: crypto_aead_aegis128l_encrypt_detached:m <- $rdx
	#DEBUG_VALUE: crypto_aead_aegis128l_encrypt_detached:mlen <- $rcx
	#DEBUG_VALUE: crypto_aead_aegis128l_encrypt_detached:ad <- $r8
	#DEBUG_VALUE: crypto_aead_aegis128l_encrypt_detached:adlen <- $r9
	pushq	%r14
	.cfi_def_cfa_offset 16
	pushq	%rbx
	.cfi_def_cfa_offset 24
	pushq	%rax
	.cfi_def_cfa_offset 32
	.cfi_offset %rbx, -24
	.cfi_offset %r14, -16
.Ltmp8:
	#DEBUG_VALUE: crypto_aead_aegis128l_encrypt:nsec <- [DW_OP_plus_uconst 32] [$rsp+0]
	#DEBUG_VALUE: crypto_aead_aegis128l_encrypt:npub <- [DW_OP_plus_uconst 40] [$rsp+0]
	#DEBUG_VALUE: crypto_aead_aegis128l_encrypt:k <- [DW_OP_plus_uconst 48] [$rsp+0]
	#DEBUG_VALUE: crypto_aead_aegis128l_encrypt_detached:nsec <- [DW_OP_plus_uconst 32] [$rsp+0]
	#DEBUG_VALUE: crypto_aead_aegis128l_encrypt_detached:npub <- [DW_OP_plus_uconst 40] [$rsp+0]
	#DEBUG_VALUE: crypto_aead_aegis128l_encrypt_detached:k <- [DW_OP_plus_uconst 48] [$rsp+0]
	movq	%r9, %rax
	movq	%rcx, %rbx
	movq	%rdx, %rcx
.Ltmp9:
	#DEBUG_VALUE: crypto_aead_aegis128l_encrypt_detached:mlen <- $rbx
	#DEBUG_VALUE: crypto_aead_aegis128l_encrypt:mlen <- $rbx
	#DEBUG_VALUE: crypto_aead_aegis128l_encrypt_detached:mac <- undef
	#DEBUG_VALUE: crypto_aead_aegis128l_encrypt:clen <- 0
	#DEBUG_VALUE: crypto_aead_aegis128l_encrypt_detached:maclen_p <- 0
	#DEBUG_VALUE: crypto_aead_aegis128l_encrypt_detached:maclen <- 32
	.loc	5 115 310 prologue_end          # crypto_aead/aegis128l/aead_aegis128l.c:115:310 @[ crypto_aead/aegis128l/aead_aegis128l.c:69:11 ]
	movq	%r9, %rdx
.Ltmp10:
	#DEBUG_VALUE: crypto_aead_aegis128l_encrypt_detached:m <- $rcx
	#DEBUG_VALUE: crypto_aead_aegis128l_encrypt:m <- $rcx
	orq	%rbx, %rdx
	shrq	$61, %rdx
	jne	.LBB6_4
.Ltmp11:
# %bb.1:                                # %crypto_aead_aegis128l_encrypt_detached.exit
	#DEBUG_VALUE: crypto_aead_aegis128l_encrypt:c <- $rdi
	#DEBUG_VALUE: crypto_aead_aegis128l_encrypt:clen_p <- $rsi
	#DEBUG_VALUE: crypto_aead_aegis128l_encrypt:m <- $rcx
	#DEBUG_VALUE: crypto_aead_aegis128l_encrypt:mlen <- $rbx
	#DEBUG_VALUE: crypto_aead_aegis128l_encrypt:ad <- $r8
	#DEBUG_VALUE: crypto_aead_aegis128l_encrypt:adlen <- $r9
	#DEBUG_VALUE: crypto_aead_aegis128l_encrypt_detached:c <- $rdi
	#DEBUG_VALUE: crypto_aead_aegis128l_encrypt_detached:m <- $rcx
	#DEBUG_VALUE: crypto_aead_aegis128l_encrypt_detached:mlen <- $rbx
	#DEBUG_VALUE: crypto_aead_aegis128l_encrypt_detached:ad <- $r8
	#DEBUG_VALUE: crypto_aead_aegis128l_encrypt_detached:adlen <- $r9
	#DEBUG_VALUE: crypto_aead_aegis128l_encrypt:nsec <- [DW_OP_plus_uconst 32] [$rsp+0]
	#DEBUG_VALUE: crypto_aead_aegis128l_encrypt:npub <- [DW_OP_plus_uconst 40] [$rsp+0]
	#DEBUG_VALUE: crypto_aead_aegis128l_encrypt:k <- [DW_OP_plus_uconst 48] [$rsp+0]
	#DEBUG_VALUE: crypto_aead_aegis128l_encrypt_detached:nsec <- [DW_OP_plus_uconst 32] [$rsp+0]
	#DEBUG_VALUE: crypto_aead_aegis128l_encrypt_detached:npub <- [DW_OP_plus_uconst 40] [$rsp+0]
	#DEBUG_VALUE: crypto_aead_aegis128l_encrypt_detached:k <- [DW_OP_plus_uconst 48] [$rsp+0]
	#DEBUG_VALUE: crypto_aead_aegis128l_encrypt:clen <- 0
	#DEBUG_VALUE: crypto_aead_aegis128l_encrypt_detached:maclen_p <- 0
	#DEBUG_VALUE: crypto_aead_aegis128l_encrypt_detached:maclen <- 32
	.loc	5 0 310 is_stmt 0               # crypto_aead/aegis128l/aead_aegis128l.c:0:310
	movq	%r8, %r9
.Ltmp12:
	#DEBUG_VALUE: crypto_aead_aegis128l_encrypt_detached:adlen <- $rax
	#DEBUG_VALUE: crypto_aead_aegis128l_encrypt:adlen <- $rax
	movq	%rsi, %r14
	.loc	5 69 55 is_stmt 1               # crypto_aead/aegis128l/aead_aegis128l.c:69:55
	leaq	(%rdi,%rbx), %rsi
.Ltmp13:
	#DEBUG_VALUE: crypto_aead_aegis128l_encrypt:clen_p <- $r14
	#DEBUG_VALUE: crypto_aead_aegis128l_encrypt_detached:mac <- $rsi
	.loc	5 119 12                        # crypto_aead/aegis128l/aead_aegis128l.c:119:12 @[ crypto_aead/aegis128l/aead_aegis128l.c:69:11 ]
	movq	implementation(%rip), %r10
	subq	$8, %rsp
.Ltmp14:
	.cfi_adjust_cfa_offset 8
	movl	$32, %edx
	movq	%rbx, %r8
.Ltmp15:
	#DEBUG_VALUE: crypto_aead_aegis128l_encrypt_detached:ad <- $r9
	#DEBUG_VALUE: crypto_aead_aegis128l_encrypt:ad <- $r9
	pushq	56(%rsp)
	.cfi_adjust_cfa_offset 8
	pushq	56(%rsp)
	.cfi_adjust_cfa_offset 8
	pushq	%rax
	.cfi_adjust_cfa_offset 8
	callq	*(%r10)
.Ltmp16:
	#DEBUG_VALUE: crypto_aead_aegis128l_encrypt:ad <- [DW_OP_LLVM_entry_value 1] $r8
	#DEBUG_VALUE: crypto_aead_aegis128l_encrypt:m <- [DW_OP_LLVM_entry_value 1] $rdx
	#DEBUG_VALUE: crypto_aead_aegis128l_encrypt:c <- [DW_OP_LLVM_entry_value 1] $rdi
	#DEBUG_VALUE: crypto_aead_aegis128l_encrypt:adlen <- [DW_OP_LLVM_entry_value 1] $r9
	#DEBUG_VALUE: crypto_aead_aegis128l_encrypt:ret <- $eax
	addq	$32, %rsp
.Ltmp17:
	.cfi_adjust_cfa_offset -32
	.loc	5 71 16                         # crypto_aead/aegis128l/aead_aegis128l.c:71:16
	testq	%r14, %r14
	je	.LBB6_3
.Ltmp18:
# %bb.2:
	#DEBUG_VALUE: crypto_aead_aegis128l_encrypt:c <- [DW_OP_LLVM_entry_value 1] $rdi
	#DEBUG_VALUE: crypto_aead_aegis128l_encrypt:clen_p <- $r14
	#DEBUG_VALUE: crypto_aead_aegis128l_encrypt:m <- [DW_OP_LLVM_entry_value 1] $rdx
	#DEBUG_VALUE: crypto_aead_aegis128l_encrypt:mlen <- $rbx
	#DEBUG_VALUE: crypto_aead_aegis128l_encrypt:ad <- [DW_OP_LLVM_entry_value 1] $r8
	#DEBUG_VALUE: crypto_aead_aegis128l_encrypt:adlen <- [DW_OP_LLVM_entry_value 1] $r9
	#DEBUG_VALUE: crypto_aead_aegis128l_encrypt:clen <- 0
	#DEBUG_VALUE: crypto_aead_aegis128l_encrypt:ret <- $eax
	.loc	5 0 16 is_stmt 0                # crypto_aead/aegis128l/aead_aegis128l.c:0:16
	addq	$32, %rbx
.Ltmp19:
	#DEBUG_VALUE: crypto_aead_aegis128l_encrypt:mlen <- [DW_OP_LLVM_entry_value 1] $rcx
	xorl	%ecx, %ecx
.Ltmp20:
	.loc	5 72 17 is_stmt 1               # crypto_aead/aegis128l/aead_aegis128l.c:72:17
	testl	%eax, %eax
	cmoveq	%rbx, %rcx
.Ltmp21:
	#DEBUG_VALUE: crypto_aead_aegis128l_encrypt:clen <- $rcx
	.loc	5 75 17                         # crypto_aead/aegis128l/aead_aegis128l.c:75:17
	movq	%rcx, (%r14)
.Ltmp22:
.LBB6_3:
	#DEBUG_VALUE: crypto_aead_aegis128l_encrypt:c <- [DW_OP_LLVM_entry_value 1] $rdi
	#DEBUG_VALUE: crypto_aead_aegis128l_encrypt:clen_p <- $r14
	#DEBUG_VALUE: crypto_aead_aegis128l_encrypt:m <- [DW_OP_LLVM_entry_value 1] $rdx
	#DEBUG_VALUE: crypto_aead_aegis128l_encrypt:mlen <- [DW_OP_LLVM_entry_value 1] $rcx
	#DEBUG_VALUE: crypto_aead_aegis128l_encrypt:ad <- [DW_OP_LLVM_entry_value 1] $r8
	#DEBUG_VALUE: crypto_aead_aegis128l_encrypt:adlen <- [DW_OP_LLVM_entry_value 1] $r9
	#DEBUG_VALUE: crypto_aead_aegis128l_encrypt:ret <- $eax
	.loc	5 77 5 epilogue_begin           # crypto_aead/aegis128l/aead_aegis128l.c:77:5
	addq	$8, %rsp
	.cfi_def_cfa_offset 24
	popq	%rbx
	.cfi_def_cfa_offset 16
	popq	%r14
.Ltmp23:
	#DEBUG_VALUE: crypto_aead_aegis128l_encrypt:clen_p <- [DW_OP_LLVM_entry_value 1] $rsi
	.cfi_def_cfa_offset 8
	retq
.Ltmp24:
.LBB6_4:
	.cfi_def_cfa_offset 32
	#DEBUG_VALUE: crypto_aead_aegis128l_encrypt:c <- $rdi
	#DEBUG_VALUE: crypto_aead_aegis128l_encrypt:clen_p <- $rsi
	#DEBUG_VALUE: crypto_aead_aegis128l_encrypt:m <- $rcx
	#DEBUG_VALUE: crypto_aead_aegis128l_encrypt:mlen <- $rbx
	#DEBUG_VALUE: crypto_aead_aegis128l_encrypt:ad <- $r8
	#DEBUG_VALUE: crypto_aead_aegis128l_encrypt:adlen <- $r9
	#DEBUG_VALUE: crypto_aead_aegis128l_encrypt_detached:c <- $rdi
	#DEBUG_VALUE: crypto_aead_aegis128l_encrypt_detached:m <- $rcx
	#DEBUG_VALUE: crypto_aead_aegis128l_encrypt_detached:mlen <- $rbx
	#DEBUG_VALUE: crypto_aead_aegis128l_encrypt_detached:ad <- $r8
	#DEBUG_VALUE: crypto_aead_aegis128l_encrypt_detached:adlen <- $r9
	#DEBUG_VALUE: crypto_aead_aegis128l_encrypt:nsec <- [DW_OP_plus_uconst 32] [$rsp+0]
	#DEBUG_VALUE: crypto_aead_aegis128l_encrypt:npub <- [DW_OP_plus_uconst 40] [$rsp+0]
	#DEBUG_VALUE: crypto_aead_aegis128l_encrypt:k <- [DW_OP_plus_uconst 48] [$rsp+0]
	#DEBUG_VALUE: crypto_aead_aegis128l_encrypt_detached:nsec <- [DW_OP_plus_uconst 32] [$rsp+0]
	#DEBUG_VALUE: crypto_aead_aegis128l_encrypt_detached:npub <- [DW_OP_plus_uconst 40] [$rsp+0]
	#DEBUG_VALUE: crypto_aead_aegis128l_encrypt_detached:k <- [DW_OP_plus_uconst 48] [$rsp+0]
	#DEBUG_VALUE: crypto_aead_aegis128l_encrypt:clen <- 0
	#DEBUG_VALUE: crypto_aead_aegis128l_encrypt_detached:maclen_p <- 0
	#DEBUG_VALUE: crypto_aead_aegis128l_encrypt_detached:maclen <- 32
	.loc	5 117 9                         # crypto_aead/aegis128l/aead_aegis128l.c:117:9 @[ crypto_aead/aegis128l/aead_aegis128l.c:69:11 ]
	callq	sodium_misuse@PLT
.Ltmp25:
	#DEBUG_VALUE: crypto_aead_aegis128l_encrypt:adlen <- [DW_OP_LLVM_entry_value 1] $r9
	#DEBUG_VALUE: crypto_aead_aegis128l_encrypt:ad <- [DW_OP_LLVM_entry_value 1] $r8
	#DEBUG_VALUE: crypto_aead_aegis128l_encrypt:m <- [DW_OP_LLVM_entry_value 1] $rdx
	#DEBUG_VALUE: crypto_aead_aegis128l_encrypt:clen_p <- [DW_OP_LLVM_entry_value 1] $rsi
	#DEBUG_VALUE: crypto_aead_aegis128l_encrypt:c <- [DW_OP_LLVM_entry_value 1] $rdi
.Lfunc_end6:
	.size	crypto_aead_aegis128l_encrypt, .Lfunc_end6-crypto_aead_aegis128l_encrypt
	.cfi_endproc
	.file	7 "./include/sodium" "core.h"
                                        # -- End function
	.globl	crypto_aead_aegis128l_encrypt_detached # -- Begin function crypto_aead_aegis128l_encrypt_detached
	.p2align	4
	.type	crypto_aead_aegis128l_encrypt_detached,@function
crypto_aead_aegis128l_encrypt_detached: # @crypto_aead_aegis128l_encrypt_detached
.Lfunc_begin7:
	.loc	5 109 0                         # crypto_aead/aegis128l/aead_aegis128l.c:109:0
	.cfi_startproc
# %bb.0:
	#DEBUG_VALUE: crypto_aead_aegis128l_encrypt_detached:c <- $rdi
	#DEBUG_VALUE: crypto_aead_aegis128l_encrypt_detached:mac <- $rsi
	#DEBUG_VALUE: crypto_aead_aegis128l_encrypt_detached:maclen_p <- $rdx
	#DEBUG_VALUE: crypto_aead_aegis128l_encrypt_detached:m <- $rcx
	#DEBUG_VALUE: crypto_aead_aegis128l_encrypt_detached:mlen <- $r8
	#DEBUG_VALUE: crypto_aead_aegis128l_encrypt_detached:ad <- $r9
	pushq	%rax
	.cfi_def_cfa_offset 16
.Ltmp26:
	#DEBUG_VALUE: crypto_aead_aegis128l_encrypt_detached:adlen <- [DW_OP_plus_uconst 16] [$rsp+0]
	#DEBUG_VALUE: crypto_aead_aegis128l_encrypt_detached:nsec <- [DW_OP_plus_uconst 24] [$rsp+0]
	#DEBUG_VALUE: crypto_aead_aegis128l_encrypt_detached:npub <- [DW_OP_plus_uconst 32] [$rsp+0]
	#DEBUG_VALUE: crypto_aead_aegis128l_encrypt_detached:k <- [DW_OP_plus_uconst 40] [$rsp+0]
	movq	16(%rsp), %rax
.Ltmp27:
	#DEBUG_VALUE: crypto_aead_aegis128l_encrypt_detached:maclen <- 32
	.loc	5 112 18 prologue_end           # crypto_aead/aegis128l/aead_aegis128l.c:112:18
	testq	%rdx, %rdx
	je	.LBB7_2
.Ltmp28:
# %bb.1:
	#DEBUG_VALUE: crypto_aead_aegis128l_encrypt_detached:c <- $rdi
	#DEBUG_VALUE: crypto_aead_aegis128l_encrypt_detached:mac <- $rsi
	#DEBUG_VALUE: crypto_aead_aegis128l_encrypt_detached:maclen_p <- $rdx
	#DEBUG_VALUE: crypto_aead_aegis128l_encrypt_detached:m <- $rcx
	#DEBUG_VALUE: crypto_aead_aegis128l_encrypt_detached:mlen <- $r8
	#DEBUG_VALUE: crypto_aead_aegis128l_encrypt_detached:ad <- $r9
	#DEBUG_VALUE: crypto_aead_aegis128l_encrypt_detached:adlen <- [DW_OP_plus_uconst 16] [$rsp+0]
	#DEBUG_VALUE: crypto_aead_aegis128l_encrypt_detached:nsec <- [DW_OP_plus_uconst 24] [$rsp+0]
	#DEBUG_VALUE: crypto_aead_aegis128l_encrypt_detached:npub <- [DW_OP_plus_uconst 32] [$rsp+0]
	#DEBUG_VALUE: crypto_aead_aegis128l_encrypt_detached:k <- [DW_OP_plus_uconst 40] [$rsp+0]
	#DEBUG_VALUE: crypto_aead_aegis128l_encrypt_detached:maclen <- 32
	.loc	5 113 19                        # crypto_aead/aegis128l/aead_aegis128l.c:113:19
	movq	$32, (%rdx)
.Ltmp29:
.LBB7_2:
	#DEBUG_VALUE: crypto_aead_aegis128l_encrypt_detached:c <- $rdi
	#DEBUG_VALUE: crypto_aead_aegis128l_encrypt_detached:mac <- $rsi
	#DEBUG_VALUE: crypto_aead_aegis128l_encrypt_detached:maclen_p <- $rdx
	#DEBUG_VALUE: crypto_aead_aegis128l_encrypt_detached:m <- $rcx
	#DEBUG_VALUE: crypto_aead_aegis128l_encrypt_detached:mlen <- $r8
	#DEBUG_VALUE: crypto_aead_aegis128l_encrypt_detached:ad <- $r9
	#DEBUG_VALUE: crypto_aead_aegis128l_encrypt_detached:adlen <- [DW_OP_plus_uconst 16] [$rsp+0]
	#DEBUG_VALUE: crypto_aead_aegis128l_encrypt_detached:nsec <- [DW_OP_plus_uconst 24] [$rsp+0]
	#DEBUG_VALUE: crypto_aead_aegis128l_encrypt_detached:npub <- [DW_OP_plus_uconst 32] [$rsp+0]
	#DEBUG_VALUE: crypto_aead_aegis128l_encrypt_detached:k <- [DW_OP_plus_uconst 40] [$rsp+0]
	#DEBUG_VALUE: crypto_aead_aegis128l_encrypt_detached:maclen <- 32
	.loc	5 115 310                       # crypto_aead/aegis128l/aead_aegis128l.c:115:310
	movq	%rax, %rdx
.Ltmp30:
	#DEBUG_VALUE: crypto_aead_aegis128l_encrypt_detached:maclen_p <- [DW_OP_LLVM_entry_value 1] $rdx
	orq	%r8, %rdx
	shrq	$61, %rdx
	jne	.LBB7_4
.Ltmp31:
# %bb.3:
	#DEBUG_VALUE: crypto_aead_aegis128l_encrypt_detached:c <- $rdi
	#DEBUG_VALUE: crypto_aead_aegis128l_encrypt_detached:mac <- $rsi
	#DEBUG_VALUE: crypto_aead_aegis128l_encrypt_detached:maclen_p <- [DW_OP_LLVM_entry_value 1] $rdx
	#DEBUG_VALUE: crypto_aead_aegis128l_encrypt_detached:m <- $rcx
	#DEBUG_VALUE: crypto_aead_aegis128l_encrypt_detached:mlen <- $r8
	#DEBUG_VALUE: crypto_aead_aegis128l_encrypt_detached:ad <- $r9
	#DEBUG_VALUE: crypto_aead_aegis128l_encrypt_detached:adlen <- [DW_OP_plus_uconst 16] [$rsp+0]
	#DEBUG_VALUE: crypto_aead_aegis128l_encrypt_detached:nsec <- [DW_OP_plus_uconst 24] [$rsp+0]
	#DEBUG_VALUE: crypto_aead_aegis128l_encrypt_detached:npub <- [DW_OP_plus_uconst 32] [$rsp+0]
	#DEBUG_VALUE: crypto_aead_aegis128l_encrypt_detached:k <- [DW_OP_plus_uconst 40] [$rsp+0]
	#DEBUG_VALUE: crypto_aead_aegis128l_encrypt_detached:maclen <- 32
	.loc	5 119 12                        # crypto_aead/aegis128l/aead_aegis128l.c:119:12
	movq	implementation(%rip), %r10
	subq	$8, %rsp
.Ltmp32:
	.cfi_adjust_cfa_offset 8
	movl	$32, %edx
	pushq	48(%rsp)
	.cfi_adjust_cfa_offset 8
	pushq	48(%rsp)
	.cfi_adjust_cfa_offset 8
	pushq	%rax
	.cfi_adjust_cfa_offset 8
	callq	*(%r10)
.Ltmp33:
	#DEBUG_VALUE: crypto_aead_aegis128l_encrypt_detached:ad <- [DW_OP_LLVM_entry_value 1] $r9
	#DEBUG_VALUE: crypto_aead_aegis128l_encrypt_detached:mlen <- [DW_OP_LLVM_entry_value 1] $r8
	#DEBUG_VALUE: crypto_aead_aegis128l_encrypt_detached:m <- [DW_OP_LLVM_entry_value 1] $rcx
	#DEBUG_VALUE: crypto_aead_aegis128l_encrypt_detached:mac <- [DW_OP_LLVM_entry_value 1] $rsi
	#DEBUG_VALUE: crypto_aead_aegis128l_encrypt_detached:c <- [DW_OP_LLVM_entry_value 1] $rdi
	addq	$32, %rsp
	.cfi_adjust_cfa_offset -32
	.loc	5 119 5 epilogue_begin is_stmt 0 # crypto_aead/aegis128l/aead_aegis128l.c:119:5
	popq	%rcx
	.cfi_def_cfa_offset 8
	retq
.Ltmp34:
.LBB7_4:
	.cfi_def_cfa_offset 16
	#DEBUG_VALUE: crypto_aead_aegis128l_encrypt_detached:c <- $rdi
	#DEBUG_VALUE: crypto_aead_aegis128l_encrypt_detached:mac <- $rsi
	#DEBUG_VALUE: crypto_aead_aegis128l_encrypt_detached:maclen_p <- [DW_OP_LLVM_entry_value 1] $rdx
	#DEBUG_VALUE: crypto_aead_aegis128l_encrypt_detached:m <- $rcx
	#DEBUG_VALUE: crypto_aead_aegis128l_encrypt_detached:mlen <- $r8
	#DEBUG_VALUE: crypto_aead_aegis128l_encrypt_detached:ad <- $r9
	#DEBUG_VALUE: crypto_aead_aegis128l_encrypt_detached:adlen <- [DW_OP_plus_uconst 16] [$rsp+0]
	#DEBUG_VALUE: crypto_aead_aegis128l_encrypt_detached:nsec <- [DW_OP_plus_uconst 24] [$rsp+0]
	#DEBUG_VALUE: crypto_aead_aegis128l_encrypt_detached:npub <- [DW_OP_plus_uconst 32] [$rsp+0]
	#DEBUG_VALUE: crypto_aead_aegis128l_encrypt_detached:k <- [DW_OP_plus_uconst 40] [$rsp+0]
	#DEBUG_VALUE: crypto_aead_aegis128l_encrypt_detached:maclen <- 32
	.loc	5 117 9 is_stmt 1               # crypto_aead/aegis128l/aead_aegis128l.c:117:9
	callq	sodium_misuse@PLT
.Ltmp35:
	#DEBUG_VALUE: crypto_aead_aegis128l_encrypt_detached:ad <- [DW_OP_LLVM_entry_value 1] $r9
	#DEBUG_VALUE: crypto_aead_aegis128l_encrypt_detached:mlen <- [DW_OP_LLVM_entry_value 1] $r8
	#DEBUG_VALUE: crypto_aead_aegis128l_encrypt_detached:m <- [DW_OP_LLVM_entry_value 1] $rcx
	#DEBUG_VALUE: crypto_aead_aegis128l_encrypt_detached:mac <- [DW_OP_LLVM_entry_value 1] $rsi
	#DEBUG_VALUE: crypto_aead_aegis128l_encrypt_detached:c <- [DW_OP_LLVM_entry_value 1] $rdi
.Lfunc_end7:
	.size	crypto_aead_aegis128l_encrypt_detached, .Lfunc_end7-crypto_aead_aegis128l_encrypt_detached
	.cfi_endproc
                                        # -- End function
	.globl	crypto_aead_aegis128l_decrypt   # -- Begin function crypto_aead_aegis128l_decrypt
	.p2align	4
	.type	crypto_aead_aegis128l_decrypt,@function
crypto_aead_aegis128l_decrypt:          # @crypto_aead_aegis128l_decrypt
.Lfunc_begin8:
	.loc	5 85 0                          # crypto_aead/aegis128l/aead_aegis128l.c:85:0
	.cfi_startproc
# %bb.0:
	#DEBUG_VALUE: crypto_aead_aegis128l_decrypt:m <- $rdi
	#DEBUG_VALUE: crypto_aead_aegis128l_decrypt:mlen_p <- $rsi
	#DEBUG_VALUE: crypto_aead_aegis128l_decrypt:nsec <- $rdx
	#DEBUG_VALUE: crypto_aead_aegis128l_decrypt:c <- $rcx
	#DEBUG_VALUE: crypto_aead_aegis128l_decrypt:clen <- $r8
	#DEBUG_VALUE: crypto_aead_aegis128l_decrypt:ad <- $r9
	pushq	%r14
	.cfi_def_cfa_offset 16
	pushq	%rbx
	.cfi_def_cfa_offset 24
	pushq	%rax
	.cfi_def_cfa_offset 32
	.cfi_offset %rbx, -24
	.cfi_offset %r14, -16
.Ltmp36:
	#DEBUG_VALUE: crypto_aead_aegis128l_decrypt:adlen <- [DW_OP_plus_uconst 32] [$rsp+0]
	#DEBUG_VALUE: crypto_aead_aegis128l_decrypt:npub <- [DW_OP_plus_uconst 40] [$rsp+0]
	#DEBUG_VALUE: crypto_aead_aegis128l_decrypt:k <- [DW_OP_plus_uconst 48] [$rsp+0]
	movl	$-1, %eax
.Ltmp37:
	#DEBUG_VALUE: crypto_aead_aegis128l_decrypt:mlen <- 0
	#DEBUG_VALUE: crypto_aead_aegis128l_decrypt:ret <- -1
	.loc	5 89 14 prologue_end            # crypto_aead/aegis128l/aead_aegis128l.c:89:14
	cmpq	$32, %r8
	jb	.LBB8_3
.Ltmp38:
# %bb.1:
	#DEBUG_VALUE: crypto_aead_aegis128l_decrypt:m <- $rdi
	#DEBUG_VALUE: crypto_aead_aegis128l_decrypt:mlen_p <- $rsi
	#DEBUG_VALUE: crypto_aead_aegis128l_decrypt:nsec <- $rdx
	#DEBUG_VALUE: crypto_aead_aegis128l_decrypt:c <- $rcx
	#DEBUG_VALUE: crypto_aead_aegis128l_decrypt:clen <- $r8
	#DEBUG_VALUE: crypto_aead_aegis128l_decrypt:ad <- $r9
	#DEBUG_VALUE: crypto_aead_aegis128l_decrypt:adlen <- [DW_OP_plus_uconst 32] [$rsp+0]
	#DEBUG_VALUE: crypto_aead_aegis128l_decrypt:npub <- [DW_OP_plus_uconst 40] [$rsp+0]
	#DEBUG_VALUE: crypto_aead_aegis128l_decrypt:k <- [DW_OP_plus_uconst 48] [$rsp+0]
	#DEBUG_VALUE: crypto_aead_aegis128l_decrypt:mlen <- 0
	#DEBUG_VALUE: crypto_aead_aegis128l_decrypt:ret <- -1
	.loc	5 0 14 is_stmt 0                # crypto_aead/aegis128l/aead_aegis128l.c:0:14
	movq	32(%rsp), %r10
.Ltmp39:
	.loc	5 91 30 is_stmt 1               # crypto_aead/aegis128l/aead_aegis128l.c:91:30
	leaq	-32(%r8), %rdx
.Ltmp40:
	#DEBUG_VALUE: crypto_aead_aegis128l_decrypt:nsec <- [DW_OP_LLVM_entry_value 1] $rdx
	#DEBUG_VALUE: crypto_aead_aegis128l_decrypt_detached:clen <- $rdx
	#DEBUG_VALUE: crypto_aead_aegis128l_decrypt_detached:m <- $rdi
	#DEBUG_VALUE: crypto_aead_aegis128l_decrypt_detached:c <- $rcx
	#DEBUG_VALUE: crypto_aead_aegis128l_decrypt_detached:mac <- [DW_OP_LLVM_arg 0, DW_OP_LLVM_arg 1, DW_OP_plus, DW_OP_constu 32, DW_OP_minus, DW_OP_stack_value] $rcx, $r8
	#DEBUG_VALUE: crypto_aead_aegis128l_decrypt_detached:ad <- $r9
	#DEBUG_VALUE: crypto_aead_aegis128l_decrypt_detached:adlen <- $r10
	#DEBUG_VALUE: crypto_aead_aegis128l_decrypt_detached:npub <- undef
	#DEBUG_VALUE: crypto_aead_aegis128l_decrypt_detached:k <- undef
	#DEBUG_VALUE: crypto_aead_aegis128l_decrypt_detached:maclen <- 32
	.loc	5 132 310                       # crypto_aead/aegis128l/aead_aegis128l.c:132:310 @[ crypto_aead/aegis128l/aead_aegis128l.c:90:15 ]
	movq	%r10, %r11
	orq	%rdx, %r11
	shrq	$61, %r11
.Ltmp41:
	#DEBUG_VALUE: crypto_aead_aegis128l_decrypt_detached:nsec <- undef
	jne	.LBB8_3
.Ltmp42:
# %bb.2:
	#DEBUG_VALUE: crypto_aead_aegis128l_decrypt:m <- $rdi
	#DEBUG_VALUE: crypto_aead_aegis128l_decrypt:mlen_p <- $rsi
	#DEBUG_VALUE: crypto_aead_aegis128l_decrypt:nsec <- [DW_OP_LLVM_entry_value 1] $rdx
	#DEBUG_VALUE: crypto_aead_aegis128l_decrypt:c <- $rcx
	#DEBUG_VALUE: crypto_aead_aegis128l_decrypt:clen <- $r8
	#DEBUG_VALUE: crypto_aead_aegis128l_decrypt:ad <- $r9
	#DEBUG_VALUE: crypto_aead_aegis128l_decrypt:adlen <- [DW_OP_plus_uconst 32] [$rsp+0]
	#DEBUG_VALUE: crypto_aead_aegis128l_decrypt:npub <- [DW_OP_plus_uconst 40] [$rsp+0]
	#DEBUG_VALUE: crypto_aead_aegis128l_decrypt:k <- [DW_OP_plus_uconst 48] [$rsp+0]
	#DEBUG_VALUE: crypto_aead_aegis128l_decrypt:mlen <- 0
	#DEBUG_VALUE: crypto_aead_aegis128l_decrypt:ret <- -1
	#DEBUG_VALUE: crypto_aead_aegis128l_decrypt_detached:clen <- $rdx
	#DEBUG_VALUE: crypto_aead_aegis128l_decrypt_detached:m <- $rdi
	#DEBUG_VALUE: crypto_aead_aegis128l_decrypt_detached:c <- $rcx
	#DEBUG_VALUE: crypto_aead_aegis128l_decrypt_detached:mac <- [DW_OP_LLVM_arg 0, DW_OP_LLVM_arg 1, DW_OP_plus, DW_OP_constu 32, DW_OP_minus, DW_OP_stack_value] $rcx, $r8
	#DEBUG_VALUE: crypto_aead_aegis128l_decrypt_detached:ad <- $r9
	#DEBUG_VALUE: crypto_aead_aegis128l_decrypt_detached:adlen <- $r10
	#DEBUG_VALUE: crypto_aead_aegis128l_decrypt_detached:maclen <- 32
	#DEBUG_VALUE: crypto_aead_aegis128l_decrypt_detached:mac <- [DW_OP_LLVM_arg 0, DW_OP_LLVM_arg 1, DW_OP_plus, DW_OP_constu 32, DW_OP_minus, DW_OP_stack_value] $rcx, $r8
	.loc	5 92 22                         # crypto_aead/aegis128l/aead_aegis128l.c:92:22
	leaq	(%rcx,%r8), %rax
	addq	$-32, %rax
.Ltmp43:
	#DEBUG_VALUE: crypto_aead_aegis128l_decrypt_detached:mac <- $rax
	.loc	5 136 12                        # crypto_aead/aegis128l/aead_aegis128l.c:136:12 @[ crypto_aead/aegis128l/aead_aegis128l.c:90:15 ]
	movq	implementation(%rip), %r11
	subq	$8, %rsp
.Ltmp44:
	.cfi_adjust_cfa_offset 8
	.loc	5 0 12 is_stmt 0                # crypto_aead/aegis128l/aead_aegis128l.c:0:12
	movq	%r8, %rbx
.Ltmp45:
	#DEBUG_VALUE: crypto_aead_aegis128l_decrypt:clen <- $rbx
	.loc	5 136 12                        # crypto_aead/aegis128l/aead_aegis128l.c:136:12 @[ crypto_aead/aegis128l/aead_aegis128l.c:90:15 ]
	movl	$32, %r8d
	movq	%rsi, %r14
.Ltmp46:
	#DEBUG_VALUE: crypto_aead_aegis128l_decrypt:mlen_p <- $r14
	movq	%rcx, %rsi
	movq	%rax, %rcx
.Ltmp47:
	#DEBUG_VALUE: crypto_aead_aegis128l_decrypt_detached:c <- $rsi
	#DEBUG_VALUE: crypto_aead_aegis128l_decrypt:c <- $rsi
	pushq	56(%rsp)
	.cfi_adjust_cfa_offset 8
	pushq	56(%rsp)
	.cfi_adjust_cfa_offset 8
	pushq	%r10
	.cfi_adjust_cfa_offset 8
	callq	*8(%r11)
.Ltmp48:
	#DEBUG_VALUE: crypto_aead_aegis128l_decrypt:ad <- [DW_OP_LLVM_entry_value 1] $r9
	#DEBUG_VALUE: crypto_aead_aegis128l_decrypt:c <- [DW_OP_LLVM_entry_value 1] $rcx
	#DEBUG_VALUE: crypto_aead_aegis128l_decrypt:m <- [DW_OP_LLVM_entry_value 1] $rdi
	.loc	5 0 12                          # crypto_aead/aegis128l/aead_aegis128l.c:0:12
	movq	%r14, %rsi
	movq	%rbx, %r8
	.loc	5 136 12                        # crypto_aead/aegis128l/aead_aegis128l.c:136:12 @[ crypto_aead/aegis128l/aead_aegis128l.c:90:15 ]
	addq	$32, %rsp
.Ltmp49:
	.cfi_adjust_cfa_offset -32
.LBB8_3:                                # %crypto_aead_aegis128l_decrypt_detached.exit
	#DEBUG_VALUE: crypto_aead_aegis128l_decrypt:m <- [DW_OP_LLVM_entry_value 1] $rdi
	#DEBUG_VALUE: crypto_aead_aegis128l_decrypt:mlen_p <- [DW_OP_LLVM_entry_value 1] $rsi
	#DEBUG_VALUE: crypto_aead_aegis128l_decrypt:nsec <- [DW_OP_LLVM_entry_value 1] $rdx
	#DEBUG_VALUE: crypto_aead_aegis128l_decrypt:c <- [DW_OP_LLVM_entry_value 1] $rcx
	#DEBUG_VALUE: crypto_aead_aegis128l_decrypt:clen <- [DW_OP_LLVM_entry_value 1] $r8
	#DEBUG_VALUE: crypto_aead_aegis128l_decrypt:ad <- [DW_OP_LLVM_entry_value 1] $r9
	#DEBUG_VALUE: crypto_aead_aegis128l_decrypt:mlen <- 0
	#DEBUG_VALUE: crypto_aead_aegis128l_decrypt:ret <- -1
	#DEBUG_VALUE: crypto_aead_aegis128l_decrypt:ret <- $eax
	.loc	5 94 16 is_stmt 1               # crypto_aead/aegis128l/aead_aegis128l.c:94:16
	testq	%rsi, %rsi
	je	.LBB8_5
.Ltmp50:
# %bb.4:
	#DEBUG_VALUE: crypto_aead_aegis128l_decrypt:m <- [DW_OP_LLVM_entry_value 1] $rdi
	#DEBUG_VALUE: crypto_aead_aegis128l_decrypt:mlen_p <- [DW_OP_LLVM_entry_value 1] $rsi
	#DEBUG_VALUE: crypto_aead_aegis128l_decrypt:nsec <- [DW_OP_LLVM_entry_value 1] $rdx
	#DEBUG_VALUE: crypto_aead_aegis128l_decrypt:c <- [DW_OP_LLVM_entry_value 1] $rcx
	#DEBUG_VALUE: crypto_aead_aegis128l_decrypt:clen <- [DW_OP_LLVM_entry_value 1] $r8
	#DEBUG_VALUE: crypto_aead_aegis128l_decrypt:ad <- [DW_OP_LLVM_entry_value 1] $r9
	#DEBUG_VALUE: crypto_aead_aegis128l_decrypt:mlen <- 0
	#DEBUG_VALUE: crypto_aead_aegis128l_decrypt:ret <- $eax
	.loc	5 0 16 is_stmt 0                # crypto_aead/aegis128l/aead_aegis128l.c:0:16
	addq	$-32, %r8
	xorl	%ecx, %ecx
.Ltmp51:
	.loc	5 95 17 is_stmt 1               # crypto_aead/aegis128l/aead_aegis128l.c:95:17
	testl	%eax, %eax
	cmoveq	%r8, %rcx
.Ltmp52:
	#DEBUG_VALUE: crypto_aead_aegis128l_decrypt:mlen <- $rcx
	.loc	5 98 17                         # crypto_aead/aegis128l/aead_aegis128l.c:98:17
	movq	%rcx, (%rsi)
.Ltmp53:
.LBB8_5:
	#DEBUG_VALUE: crypto_aead_aegis128l_decrypt:m <- [DW_OP_LLVM_entry_value 1] $rdi
	#DEBUG_VALUE: crypto_aead_aegis128l_decrypt:mlen_p <- [DW_OP_LLVM_entry_value 1] $rsi
	#DEBUG_VALUE: crypto_aead_aegis128l_decrypt:nsec <- [DW_OP_LLVM_entry_value 1] $rdx
	#DEBUG_VALUE: crypto_aead_aegis128l_decrypt:c <- [DW_OP_LLVM_entry_value 1] $rcx
	#DEBUG_VALUE: crypto_aead_aegis128l_decrypt:clen <- [DW_OP_LLVM_entry_value 1] $r8
	#DEBUG_VALUE: crypto_aead_aegis128l_decrypt:ad <- [DW_OP_LLVM_entry_value 1] $r9
	#DEBUG_VALUE: crypto_aead_aegis128l_decrypt:ret <- $eax
	.loc	5 100 5 epilogue_begin          # crypto_aead/aegis128l/aead_aegis128l.c:100:5
	addq	$8, %rsp
	.cfi_def_cfa_offset 24
	popq	%rbx
	.cfi_def_cfa_offset 16
	popq	%r14
	.cfi_def_cfa_offset 8
	retq
.Ltmp54:
.Lfunc_end8:
	.size	crypto_aead_aegis128l_decrypt, .Lfunc_end8-crypto_aead_aegis128l_decrypt
	.cfi_endproc
                                        # -- End function
	.globl	crypto_aead_aegis128l_decrypt_detached # -- Begin function crypto_aead_aegis128l_decrypt_detached
	.p2align	4
	.type	crypto_aead_aegis128l_decrypt_detached,@function
crypto_aead_aegis128l_decrypt_detached: # @crypto_aead_aegis128l_decrypt_detached
.Lfunc_begin9:
	.loc	5 129 0                         # crypto_aead/aegis128l/aead_aegis128l.c:129:0
	.cfi_startproc
# %bb.0:
	#DEBUG_VALUE: crypto_aead_aegis128l_decrypt_detached:m <- $rdi
	#DEBUG_VALUE: crypto_aead_aegis128l_decrypt_detached:nsec <- $rsi
	#DEBUG_VALUE: crypto_aead_aegis128l_decrypt_detached:c <- $rdx
	#DEBUG_VALUE: crypto_aead_aegis128l_decrypt_detached:clen <- $rcx
	#DEBUG_VALUE: crypto_aead_aegis128l_decrypt_detached:mac <- $r8
	#DEBUG_VALUE: crypto_aead_aegis128l_decrypt_detached:ad <- $r9
	#DEBUG_VALUE: crypto_aead_aegis128l_decrypt_detached:adlen <- [DW_OP_plus_uconst 8] [$rsp+0]
	#DEBUG_VALUE: crypto_aead_aegis128l_decrypt_detached:npub <- [DW_OP_plus_uconst 16] [$rsp+0]
	#DEBUG_VALUE: crypto_aead_aegis128l_decrypt_detached:k <- [DW_OP_plus_uconst 24] [$rsp+0]
	#DEBUG_VALUE: crypto_aead_aegis128l_decrypt_detached:maclen <- 32
	movq	8(%rsp), %rsi
.Ltmp55:
	#DEBUG_VALUE: crypto_aead_aegis128l_decrypt_detached:nsec <- [DW_OP_LLVM_entry_value 1] $rsi
	.loc	5 132 310 prologue_end          # crypto_aead/aegis128l/aead_aegis128l.c:132:310
	orq	%rcx, %rsi
	shrq	$61, %rsi
	jne	.LBB9_1
.Ltmp56:
# %bb.2:
	#DEBUG_VALUE: crypto_aead_aegis128l_decrypt_detached:m <- $rdi
	#DEBUG_VALUE: crypto_aead_aegis128l_decrypt_detached:nsec <- [DW_OP_LLVM_entry_value 1] $rsi
	#DEBUG_VALUE: crypto_aead_aegis128l_decrypt_detached:c <- $rdx
	#DEBUG_VALUE: crypto_aead_aegis128l_decrypt_detached:clen <- $rcx
	#DEBUG_VALUE: crypto_aead_aegis128l_decrypt_detached:mac <- $r8
	#DEBUG_VALUE: crypto_aead_aegis128l_decrypt_detached:ad <- $r9
	#DEBUG_VALUE: crypto_aead_aegis128l_decrypt_detached:adlen <- [DW_OP_plus_uconst 8] [$rsp+0]
	#DEBUG_VALUE: crypto_aead_aegis128l_decrypt_detached:npub <- [DW_OP_plus_uconst 16] [$rsp+0]
	#DEBUG_VALUE: crypto_aead_aegis128l_decrypt_detached:k <- [DW_OP_plus_uconst 24] [$rsp+0]
	#DEBUG_VALUE: crypto_aead_aegis128l_decrypt_detached:maclen <- 32
	.loc	5 0 310 is_stmt 0               # crypto_aead/aegis128l/aead_aegis128l.c:0:310
	movq	%r8, %rax
	.loc	5 136 12 is_stmt 1              # crypto_aead/aegis128l/aead_aegis128l.c:136:12
	movq	implementation(%rip), %rsi
	movq	8(%rsi), %r11
	movl	$32, %r8d
.Ltmp57:
	#DEBUG_VALUE: crypto_aead_aegis128l_decrypt_detached:mac <- $rax
	movq	%rdx, %rsi
	movq	%rcx, %rdx
.Ltmp58:
	#DEBUG_VALUE: crypto_aead_aegis128l_decrypt_detached:c <- $rsi
	movq	%rax, %rcx
.Ltmp59:
	#DEBUG_VALUE: crypto_aead_aegis128l_decrypt_detached:clen <- $rdx
	jmpq	*%r11                           # TAILCALL
.Ltmp60:
.LBB9_1:
	#DEBUG_VALUE: crypto_aead_aegis128l_decrypt_detached:m <- $rdi
	#DEBUG_VALUE: crypto_aead_aegis128l_decrypt_detached:nsec <- [DW_OP_LLVM_entry_value 1] $rsi
	#DEBUG_VALUE: crypto_aead_aegis128l_decrypt_detached:c <- $rdx
	#DEBUG_VALUE: crypto_aead_aegis128l_decrypt_detached:clen <- $rcx
	#DEBUG_VALUE: crypto_aead_aegis128l_decrypt_detached:mac <- $r8
	#DEBUG_VALUE: crypto_aead_aegis128l_decrypt_detached:ad <- $r9
	#DEBUG_VALUE: crypto_aead_aegis128l_decrypt_detached:adlen <- [DW_OP_plus_uconst 8] [$rsp+0]
	#DEBUG_VALUE: crypto_aead_aegis128l_decrypt_detached:npub <- [DW_OP_plus_uconst 16] [$rsp+0]
	#DEBUG_VALUE: crypto_aead_aegis128l_decrypt_detached:k <- [DW_OP_plus_uconst 24] [$rsp+0]
	#DEBUG_VALUE: crypto_aead_aegis128l_decrypt_detached:maclen <- 32
	.loc	5 138 1                         # crypto_aead/aegis128l/aead_aegis128l.c:138:1
	movl	$-1, %eax
	retq
.Ltmp61:
.Lfunc_end9:
	.size	crypto_aead_aegis128l_decrypt_detached, .Lfunc_end9-crypto_aead_aegis128l_decrypt_detached
	.cfi_endproc
                                        # -- End function
	.hidden	_crypto_aead_aegis128l_pick_best_implementation # -- Begin function _crypto_aead_aegis128l_pick_best_implementation
	.globl	_crypto_aead_aegis128l_pick_best_implementation
	.p2align	4
	.type	_crypto_aead_aegis128l_pick_best_implementation,@function
_crypto_aead_aegis128l_pick_best_implementation: # @_crypto_aead_aegis128l_pick_best_implementation
.Lfunc_begin10:
	.loc	5 142 0                         # crypto_aead/aegis128l/aead_aegis128l.c:142:0
	.cfi_startproc
# %bb.0:
	pushq	%rbx
	.cfi_def_cfa_offset 16
	.cfi_offset %rbx, -16
	.loc	5 143 20 prologue_end           # crypto_aead/aegis128l/aead_aegis128l.c:143:20
	movq	aegis128l_soft_implementation@GOTPCREL(%rip), %rax
	movq	%rax, implementation(%rip)
.Ltmp62:
	.loc	5 153 9                         # crypto_aead/aegis128l/aead_aegis128l.c:153:9
	callq	sodium_runtime_has_aesni@PLT
.Ltmp63:
	movl	%eax, %ebx
	.loc	5 153 38 is_stmt 0              # crypto_aead/aegis128l/aead_aegis128l.c:153:38
	callq	sodium_runtime_has_avx@PLT
.Ltmp64:
	.loc	5 153 36                        # crypto_aead/aegis128l/aead_aegis128l.c:153:36
	testl	%ebx, %eax
	je	.LBB10_2
# %bb.1:
.Ltmp65:
	.loc	5 154 24 is_stmt 1              # crypto_aead/aegis128l/aead_aegis128l.c:154:24
	movq	aegis128l_aesni_implementation@GOTPCREL(%rip), %rax
	movq	%rax, implementation(%rip)
.Ltmp66:
.LBB10_2:
	.loc	5 159 1                         # crypto_aead/aegis128l/aead_aegis128l.c:159:1
	xorl	%eax, %eax
	.loc	5 159 1 epilogue_begin is_stmt 0 # crypto_aead/aegis128l/aead_aegis128l.c:159:1
	popq	%rbx
	.cfi_def_cfa_offset 8
	retq
.Ltmp67:
.Lfunc_end10:
	.size	_crypto_aead_aegis128l_pick_best_implementation, .Lfunc_end10-_crypto_aead_aegis128l_pick_best_implementation
	.cfi_endproc
	.file	8 "./include/sodium" "runtime.h"
                                        # -- End function
	.type	implementation,@object          # @implementation
	.data
	.p2align	3, 0x0
implementation:
	.quad	aegis128l_soft_implementation
	.size	implementation, 8

	.section	".note.GNU-stack","",@progbits
	.addrsig
	.addrsig_sym aegis128l_soft_implementation
	.addrsig_sym aegis128l_aesni_implementation