	.file	"aegis256_soft.c"
	.file	0 "/home/leizhenyuu/opt/Anonymous_Repo/libsodium_o2_attr_inline/src/libsodium" "aegis256_soft.c" md5 0xe3c69d196e219014e434e3acd4a9b5ef
	.file	1 "/usr/include/x86_64-linux-gnu/bits" "types.h"
	.file	2 "/usr/include/x86_64-linux-gnu/bits" "stdint-uintn.h"
	.file	3 "/home/leizhenyuu/opt/Anonymous_Repo" "llvm-project/build/lib/clang/21/include/__stddef_size_t.h"
	.file	4 "crypto_aead/aegis256" "implementations.h"
	.file	5 "crypto_aead/aegis256" "aegis256_soft.c"
	.file	6 "crypto_aead/aegis256" "aegis256_common.h"
	.text
	.p2align	4                               # -- Begin function encrypt_detached
	.type	encrypt_detached,@function
encrypt_detached:                       # @encrypt_detached
.Lfunc_begin0:
	.loc	6 143 0                         # crypto_aead/aegis256/aegis256_common.h:143:0
	.cfi_startproc
# %bb.0:
	#DEBUG_VALUE: encrypt_detached:c <- $rdi
	#DEBUG_VALUE: encrypt_detached:mac <- $rsi
	#DEBUG_VALUE: encrypt_detached:maclen <- $rdx
	#DEBUG_VALUE: encrypt_detached:m <- $rcx
	#DEBUG_VALUE: encrypt_detached:mlen <- $r8
	#DEBUG_VALUE: encrypt_detached:ad <- $r9
	pushq	%rbp
	.cfi_def_cfa_offset 16
	pushq	%r15
	.cfi_def_cfa_offset 24
	pushq	%r14
	.cfi_def_cfa_offset 32
	pushq	%r13
	.cfi_def_cfa_offset 40
	pushq	%r12
	.cfi_def_cfa_offset 48
	pushq	%rbx
	.cfi_def_cfa_offset 56
	subq	$184, %rsp
	.cfi_def_cfa_offset 240
	.cfi_offset %rbx, -56
	.cfi_offset %r12, -48
	.cfi_offset %r13, -40
	.cfi_offset %r14, -32
	.cfi_offset %r15, -24
	.cfi_offset %rbp, -16
.Ltmp0:
	#DEBUG_VALUE: encrypt_detached:adlen <- [DW_OP_plus_uconst 240] [$rsp+0]
	#DEBUG_VALUE: encrypt_detached:npub <- [DW_OP_plus_uconst 248] [$rsp+0]
	#DEBUG_VALUE: encrypt_detached:k <- [DW_OP_plus_uconst 256] [$rsp+0]
	movq	%r9, 96(%rsp)                   # 8-byte Spill
.Ltmp1:
	#DEBUG_VALUE: encrypt_detached:ad <- [DW_OP_plus_uconst 96] [$rsp+0]
	movq	%r8, 136(%rsp)                  # 8-byte Spill
.Ltmp2:
	#DEBUG_VALUE: encrypt_detached:mlen <- [DW_OP_plus_uconst 136] [$rsp+0]
	movq	%rcx, 112(%rsp)                 # 8-byte Spill
.Ltmp3:
	#DEBUG_VALUE: encrypt_detached:m <- [DW_OP_plus_uconst 112] [$rsp+0]
	movq	%rdx, 128(%rsp)                 # 8-byte Spill
.Ltmp4:
	#DEBUG_VALUE: encrypt_detached:maclen <- [DW_OP_plus_uconst 128] [$rsp+0]
	movq	%rsi, 120(%rsp)                 # 8-byte Spill
.Ltmp5:
	#DEBUG_VALUE: encrypt_detached:mac <- [DW_OP_plus_uconst 120] [$rsp+0]
	movq	%rdi, %r14
	movq	240(%rsp), %rbp
	movq	256(%rsp), %rdi
.Ltmp6:
	#DEBUG_VALUE: encrypt_detached:c <- $r14
	movq	248(%rsp), %rsi
	movq	%fs:40, %rax
	movq	%rax, 176(%rsp)
	movq	%rsp, %rdx
.Ltmp7:
	.loc	6 149 5 prologue_end            # crypto_aead/aegis256/aegis256_common.h:149:5
	callq	aegis256_init
.Ltmp8:
	#DEBUG_VALUE: encrypt_detached:i <- 0
	.loc	6 151 28                        # crypto_aead/aegis256/aegis256_common.h:151:28
	cmpq	$32, %rbp
.Ltmp9:
	.loc	6 151 5 is_stmt 0               # crypto_aead/aegis256/aegis256_common.h:151:5
	jae	.LBB0_4
.Ltmp10:
# %bb.1:
	#DEBUG_VALUE: encrypt_detached:c <- $r14
	#DEBUG_VALUE: encrypt_detached:mac <- [DW_OP_plus_uconst 120] [$rsp+0]
	#DEBUG_VALUE: encrypt_detached:maclen <- [DW_OP_plus_uconst 128] [$rsp+0]
	#DEBUG_VALUE: encrypt_detached:m <- [DW_OP_plus_uconst 112] [$rsp+0]
	#DEBUG_VALUE: encrypt_detached:mlen <- [DW_OP_plus_uconst 136] [$rsp+0]
	#DEBUG_VALUE: encrypt_detached:ad <- [DW_OP_plus_uconst 96] [$rsp+0]
	#DEBUG_VALUE: encrypt_detached:adlen <- [DW_OP_plus_uconst 240] [$rsp+0]
	#DEBUG_VALUE: encrypt_detached:npub <- [DW_OP_plus_uconst 248] [$rsp+0]
	#DEBUG_VALUE: encrypt_detached:k <- [DW_OP_plus_uconst 256] [$rsp+0]
	#DEBUG_VALUE: encrypt_detached:i <- 0
	.loc	6 0 5                           # crypto_aead/aegis256/aegis256_common.h:0:5
	xorl	%r13d, %r13d
	movq	96(%rsp), %r12                  # 8-byte Reload
	jmp	.LBB0_2
.Ltmp11:
.LBB0_4:                                # %.lr.ph.preheader
	#DEBUG_VALUE: encrypt_detached:c <- $r14
	#DEBUG_VALUE: encrypt_detached:mac <- [DW_OP_plus_uconst 120] [$rsp+0]
	#DEBUG_VALUE: encrypt_detached:maclen <- [DW_OP_plus_uconst 128] [$rsp+0]
	#DEBUG_VALUE: encrypt_detached:m <- [DW_OP_plus_uconst 112] [$rsp+0]
	#DEBUG_VALUE: encrypt_detached:mlen <- [DW_OP_plus_uconst 136] [$rsp+0]
	#DEBUG_VALUE: encrypt_detached:ad <- [DW_OP_plus_uconst 96] [$rsp+0]
	#DEBUG_VALUE: encrypt_detached:adlen <- [DW_OP_plus_uconst 240] [$rsp+0]
	#DEBUG_VALUE: encrypt_detached:npub <- [DW_OP_plus_uconst 248] [$rsp+0]
	#DEBUG_VALUE: encrypt_detached:k <- [DW_OP_plus_uconst 256] [$rsp+0]
	#DEBUG_VALUE: encrypt_detached:i <- 0
	xorl	%ebx, %ebx
	movq	%rsp, %r15
	movq	96(%rsp), %r12                  # 8-byte Reload
.Ltmp12:
	.p2align	4
.LBB0_5:                                # %.lr.ph
                                        # =>This Inner Loop Header: Depth=1
	#DEBUG_VALUE: encrypt_detached:c <- $r14
	#DEBUG_VALUE: encrypt_detached:mac <- [DW_OP_plus_uconst 120] [$rsp+0]
	#DEBUG_VALUE: encrypt_detached:maclen <- [DW_OP_plus_uconst 128] [$rsp+0]
	#DEBUG_VALUE: encrypt_detached:m <- [DW_OP_plus_uconst 112] [$rsp+0]
	#DEBUG_VALUE: encrypt_detached:mlen <- [DW_OP_plus_uconst 136] [$rsp+0]
	#DEBUG_VALUE: encrypt_detached:ad <- [DW_OP_plus_uconst 96] [$rsp+0]
	#DEBUG_VALUE: encrypt_detached:adlen <- [DW_OP_plus_uconst 240] [$r15+0]
	#DEBUG_VALUE: encrypt_detached:npub <- [DW_OP_plus_uconst 248] [$r15+0]
	#DEBUG_VALUE: encrypt_detached:k <- [DW_OP_plus_uconst 256] [$r15+0]
	#DEBUG_VALUE: encrypt_detached:i <- $rbx
	.loc	6 152 9 is_stmt 1               # crypto_aead/aegis256/aegis256_common.h:152:9
	leaq	(%r12,%rbx), %rdi
	movq	%r15, %rsi
	callq	aegis256_absorb2
.Ltmp13:
	#DEBUG_VALUE: encrypt_detached:i <- [DW_OP_plus_uconst 32, DW_OP_stack_value] $rbx
	.loc	6 151 28                        # crypto_aead/aegis256/aegis256_common.h:151:28
	leaq	32(%rbx), %r13
	addq	$64, %rbx
.Ltmp14:
	cmpq	%rbp, %rbx
	movq	%r13, %rbx
.Ltmp15:
	.loc	6 151 5 is_stmt 0               # crypto_aead/aegis256/aegis256_common.h:151:5
	jbe	.LBB0_5
.Ltmp16:
.LBB0_2:                                # %.preheader
	#DEBUG_VALUE: encrypt_detached:c <- $r14
	#DEBUG_VALUE: encrypt_detached:mac <- [DW_OP_plus_uconst 120] [$rsp+0]
	#DEBUG_VALUE: encrypt_detached:maclen <- [DW_OP_plus_uconst 128] [$rsp+0]
	#DEBUG_VALUE: encrypt_detached:m <- [DW_OP_plus_uconst 112] [$rsp+0]
	#DEBUG_VALUE: encrypt_detached:mlen <- [DW_OP_plus_uconst 136] [$rsp+0]
	#DEBUG_VALUE: encrypt_detached:ad <- [DW_OP_plus_uconst 96] [$rsp+0]
	#DEBUG_VALUE: encrypt_detached:adlen <- [DW_OP_plus_uconst 240] [$rsp+0]
	#DEBUG_VALUE: encrypt_detached:npub <- [DW_OP_plus_uconst 248] [$rsp+0]
	#DEBUG_VALUE: encrypt_detached:k <- [DW_OP_plus_uconst 256] [$rsp+0]
	#DEBUG_VALUE: encrypt_detached:i <- $r13
	.loc	6 0 5                           # crypto_aead/aegis256/aegis256_common.h:0:5
	movq	%r14, 104(%rsp)                 # 8-byte Spill
.Ltmp17:
	#DEBUG_VALUE: encrypt_detached:c <- [DW_OP_plus_uconst 104] [$rsp+0]
	.loc	6 154 14 is_stmt 1              # crypto_aead/aegis256/aegis256_common.h:154:14
	movq	%r13, %rax
	orq	$16, %rax
	.loc	6 154 19 is_stmt 0              # crypto_aead/aegis256/aegis256_common.h:154:19
	cmpq	%rbp, %rax
.Ltmp18:
	.loc	6 154 5                         # crypto_aead/aegis256/aegis256_common.h:154:5
	jbe	.LBB0_6
.Ltmp19:
# %bb.3:
	#DEBUG_VALUE: encrypt_detached:c <- [DW_OP_plus_uconst 104] [$rsp+0]
	#DEBUG_VALUE: encrypt_detached:mac <- [DW_OP_plus_uconst 120] [$rsp+0]
	#DEBUG_VALUE: encrypt_detached:maclen <- [DW_OP_plus_uconst 128] [$rsp+0]
	#DEBUG_VALUE: encrypt_detached:m <- [DW_OP_plus_uconst 112] [$rsp+0]
	#DEBUG_VALUE: encrypt_detached:mlen <- [DW_OP_plus_uconst 136] [$rsp+0]
	#DEBUG_VALUE: encrypt_detached:ad <- [DW_OP_plus_uconst 96] [$rsp+0]
	#DEBUG_VALUE: encrypt_detached:adlen <- [DW_OP_plus_uconst 240] [$rsp+0]
	#DEBUG_VALUE: encrypt_detached:npub <- [DW_OP_plus_uconst 248] [$rsp+0]
	#DEBUG_VALUE: encrypt_detached:k <- [DW_OP_plus_uconst 256] [$rsp+0]
	#DEBUG_VALUE: encrypt_detached:i <- $r13
	.loc	6 0 5                           # crypto_aead/aegis256/aegis256_common.h:0:5
	movq	%r13, %rax
	.loc	6 154 5                         # crypto_aead/aegis256/aegis256_common.h:154:5
	jmp	.LBB0_7
.Ltmp20:
	.loc	6 0 5                           # :0:5
.Ltmp21:
	.p2align	4
.LBB0_6:                                # =>This Inner Loop Header: Depth=1
	#DEBUG_VALUE: encrypt_detached:c <- [DW_OP_plus_uconst 104] [$rsp+0]
	#DEBUG_VALUE: encrypt_detached:mac <- [DW_OP_plus_uconst 120] [$rsp+0]
	#DEBUG_VALUE: encrypt_detached:maclen <- [DW_OP_plus_uconst 128] [$rsp+0]
	#DEBUG_VALUE: encrypt_detached:m <- [DW_OP_plus_uconst 112] [$rsp+0]
	#DEBUG_VALUE: encrypt_detached:mlen <- [DW_OP_plus_uconst 136] [$rsp+0]
	#DEBUG_VALUE: encrypt_detached:ad <- [DW_OP_plus_uconst 96] [$rsp+0]
	#DEBUG_VALUE: encrypt_detached:adlen <- [DW_OP_plus_uconst 240] [$rsp+0]
	#DEBUG_VALUE: encrypt_detached:npub <- [DW_OP_plus_uconst 248] [$rsp+0]
	#DEBUG_VALUE: encrypt_detached:k <- [DW_OP_plus_uconst 256] [$rsp+0]
	#DEBUG_VALUE: encrypt_detached:i <- $r13
	#DEBUG_VALUE: aegis256_absorb:src <- [DW_OP_LLVM_arg 0, DW_OP_LLVM_arg 1, DW_OP_minus, DW_OP_consts 16, DW_OP_div, DW_OP_consts 16, DW_OP_mul, DW_OP_LLVM_arg 1, DW_OP_LLVM_arg 2, DW_OP_plus, DW_OP_plus, DW_OP_stack_value] undef, undef, undef
	#DEBUG_VALUE: aegis256_absorb:state <- $rsp
	#DEBUG_VALUE: softaes_block_load:in <- [DW_OP_LLVM_arg 0, DW_OP_LLVM_arg 1, DW_OP_minus, DW_OP_consts 16, DW_OP_div, DW_OP_consts 16, DW_OP_mul, DW_OP_LLVM_arg 1, DW_OP_LLVM_arg 2, DW_OP_plus, DW_OP_plus, DW_OP_stack_value] undef, undef, undef
	#DEBUG_VALUE: load32_le:w <- undef
	#DEBUG_VALUE: load32_le:src <- [DW_OP_LLVM_arg 0, DW_OP_LLVM_arg 1, DW_OP_minus, DW_OP_consts 16, DW_OP_div, DW_OP_consts 16, DW_OP_mul, DW_OP_LLVM_arg 1, DW_OP_LLVM_arg 2, DW_OP_plus, DW_OP_plus, DW_OP_stack_value] undef, undef, undef
	#DEBUG_VALUE: memcpy:__dest <- undef
	#DEBUG_VALUE: memcpy:__src <- [DW_OP_LLVM_arg 0, DW_OP_LLVM_arg 1, DW_OP_minus, DW_OP_consts 16, DW_OP_div, DW_OP_consts 16, DW_OP_mul, DW_OP_LLVM_arg 1, DW_OP_LLVM_arg 2, DW_OP_plus, DW_OP_plus, DW_OP_stack_value] undef, undef, undef
	#DEBUG_VALUE: memcpy:__len <- 4
	movq	%rbp, %r14
.Ltmp22:
	.file	7 "/usr/include/x86_64-linux-gnu/bits" "string_fortified.h"
	.loc	7 29 10 is_stmt 1               # /usr/include/x86_64-linux-gnu/bits/string_fortified.h:29:10 @[ ./include/sodium/private/common.h:106:5 @[ ./include/sodium/private/softaes.h:20:32 @[ crypto_aead/aegis256/aegis256_common.h:70:11 @[ crypto_aead/aegis256/aegis256_common.h:155:9 ] ] ] ]
	movq	(%r12,%r13), %rbp
.Ltmp23:
	#DEBUG_VALUE: softaes_block_load:out <- [DW_OP_LLVM_fragment 0 32] undef
	#DEBUG_VALUE: load32_le:w <- undef
	#DEBUG_VALUE: memcpy:__dest <- undef
	#DEBUG_VALUE: memcpy:__len <- 4
	#DEBUG_VALUE: softaes_block_load:out <- [DW_OP_LLVM_fragment 32 32] undef
	#DEBUG_VALUE: load32_le:w <- undef
	#DEBUG_VALUE: load32_le:src <- [DW_OP_LLVM_arg 0, DW_OP_LLVM_arg 1, DW_OP_minus, DW_OP_consts 16, DW_OP_div, DW_OP_consts 16, DW_OP_mul, DW_OP_consts 8, DW_OP_LLVM_arg 1, DW_OP_plus, DW_OP_LLVM_arg 2, DW_OP_plus, DW_OP_plus, DW_OP_stack_value] undef, undef, undef
	#DEBUG_VALUE: memcpy:__dest <- undef
	#DEBUG_VALUE: memcpy:__src <- [DW_OP_LLVM_arg 0, DW_OP_LLVM_arg 1, DW_OP_minus, DW_OP_consts 16, DW_OP_div, DW_OP_consts 16, DW_OP_mul, DW_OP_consts 8, DW_OP_LLVM_arg 1, DW_OP_plus, DW_OP_LLVM_arg 2, DW_OP_plus, DW_OP_plus, DW_OP_stack_value] undef, undef, undef
	#DEBUG_VALUE: memcpy:__len <- 4
	.loc	7 29 10 is_stmt 0               # /usr/include/x86_64-linux-gnu/bits/string_fortified.h:29:10 @[ ./include/sodium/private/common.h:106:5 @[ ./include/sodium/private/softaes.h:20:70 @[ crypto_aead/aegis256/aegis256_common.h:70:11 @[ crypto_aead/aegis256/aegis256_common.h:155:9 ] ] ] ]
	movq	8(%r12,%r13), %rbx
.Ltmp24:
	#DEBUG_VALUE: aegis256_absorb:msg <- [DW_OP_LLVM_fragment 64 64] $rbx
	#DEBUG_VALUE: aegis256_update:d <- [DW_OP_LLVM_fragment 64 64] $rbx
	#DEBUG_VALUE: softaes_block_load:out <- [DW_OP_LLVM_fragment 64 32] undef
	#DEBUG_VALUE: load32_le:w <- undef
	#DEBUG_VALUE: memcpy:__dest <- undef
	#DEBUG_VALUE: memcpy:__len <- 4
	#DEBUG_VALUE: softaes_block_load:out <- [DW_OP_LLVM_fragment 96 32] undef
	#DEBUG_VALUE: aegis256_absorb:msg <- [DW_OP_LLVM_fragment 0 64] $rbp
	#DEBUG_VALUE: aegis256_update:d <- [DW_OP_LLVM_fragment 0 64] $rbp
	#DEBUG_VALUE: aegis256_update:state <- $rsp
	.loc	5 38 11 is_stmt 1               # crypto_aead/aegis256/aegis256_soft.c:38:11 @[ crypto_aead/aegis256/aegis256_common.h:71:5 @[ crypto_aead/aegis256/aegis256_common.h:155:9 ] ]
	movq	80(%rsp), %r15
	movq	88(%rsp), %r12
.Ltmp25:
	#DEBUG_VALUE: aegis256_update:tmp <- [DW_OP_LLVM_fragment 64 64] $r12
	#DEBUG_VALUE: aegis256_update:tmp <- [DW_OP_LLVM_fragment 0 64] $r15
	.loc	5 39 16                         # crypto_aead/aegis256/aegis256_soft.c:39:16 @[ crypto_aead/aegis256/aegis256_common.h:71:5 @[ crypto_aead/aegis256/aegis256_common.h:155:9 ] ]
	movq	64(%rsp), %rdi
	movq	72(%rsp), %rsi
	movq	%r15, %rdx
	movq	%r12, %rcx
	callq	softaes_block_encrypt@PLT
.Ltmp26:
	movq	%rax, 80(%rsp)
	movq	%rdx, 88(%rsp)
	.loc	5 40 16                         # crypto_aead/aegis256/aegis256_soft.c:40:16 @[ crypto_aead/aegis256/aegis256_common.h:71:5 @[ crypto_aead/aegis256/aegis256_common.h:155:9 ] ]
	movq	48(%rsp), %rdi
	movq	56(%rsp), %rsi
	movq	64(%rsp), %rdx
	movq	72(%rsp), %rcx
	callq	softaes_block_encrypt@PLT
.Ltmp27:
	movq	%rax, 64(%rsp)
	movq	%rdx, 72(%rsp)
	.loc	5 41 16                         # crypto_aead/aegis256/aegis256_soft.c:41:16 @[ crypto_aead/aegis256/aegis256_common.h:71:5 @[ crypto_aead/aegis256/aegis256_common.h:155:9 ] ]
	movq	32(%rsp), %rdi
	movq	40(%rsp), %rsi
	movq	48(%rsp), %rdx
	movq	56(%rsp), %rcx
	callq	softaes_block_encrypt@PLT
.Ltmp28:
	movq	%rax, 48(%rsp)
	movq	%rdx, 56(%rsp)
	.loc	5 42 16                         # crypto_aead/aegis256/aegis256_soft.c:42:16 @[ crypto_aead/aegis256/aegis256_common.h:71:5 @[ crypto_aead/aegis256/aegis256_common.h:155:9 ] ]
	movq	16(%rsp), %rdi
	movq	24(%rsp), %rsi
	movq	32(%rsp), %rdx
	movq	40(%rsp), %rcx
	callq	softaes_block_encrypt@PLT
.Ltmp29:
	movq	%rax, 32(%rsp)
	movq	%rdx, 40(%rsp)
	.loc	5 43 16                         # crypto_aead/aegis256/aegis256_soft.c:43:16 @[ crypto_aead/aegis256/aegis256_common.h:71:5 @[ crypto_aead/aegis256/aegis256_common.h:155:9 ] ]
	movq	(%rsp), %rdi
	movq	8(%rsp), %rsi
	movq	16(%rsp), %rdx
	movq	24(%rsp), %rcx
	callq	softaes_block_encrypt@PLT
.Ltmp30:
	movq	%rax, 16(%rsp)
	movq	%rdx, 24(%rsp)
	.loc	5 44 35                         # crypto_aead/aegis256/aegis256_soft.c:44:35 @[ crypto_aead/aegis256/aegis256_common.h:71:5 @[ crypto_aead/aegis256/aegis256_common.h:155:9 ] ]
	movq	(%rsp), %rdx
	movq	8(%rsp), %rcx
	movq	%r15, %rdi
	movq	%r12, %rsi
	callq	softaes_block_encrypt@PLT
.Ltmp31:
	.loc	5 0 35 is_stmt 0                # crypto_aead/aegis256/aegis256_soft.c:0:35
	movq	96(%rsp), %r12                  # 8-byte Reload
.Ltmp32:
	#DEBUG_VALUE: softaes_block_xor:a <- [DW_OP_LLVM_convert 64 7, DW_OP_LLVM_convert 32 7, DW_OP_stack_value, DW_OP_LLVM_fragment 0 32] $rax
	#DEBUG_VALUE: softaes_block_xor:a <- [DW_OP_constu 32, DW_OP_shr, DW_OP_LLVM_convert 64 7, DW_OP_LLVM_convert 32 7, DW_OP_stack_value, DW_OP_LLVM_fragment 32 32] $rax
	#DEBUG_VALUE: softaes_block_xor:a <- [DW_OP_LLVM_convert 64 7, DW_OP_LLVM_convert 32 7, DW_OP_stack_value, DW_OP_LLVM_fragment 64 32] $rdx
	#DEBUG_VALUE: softaes_block_xor:a <- [DW_OP_constu 32, DW_OP_shr, DW_OP_LLVM_convert 64 7, DW_OP_LLVM_convert 32 7, DW_OP_stack_value, DW_OP_LLVM_fragment 96 32] $rdx
	#DEBUG_VALUE: softaes_block_xor:b <- [DW_OP_LLVM_convert 64 7, DW_OP_LLVM_convert 32 7, DW_OP_stack_value, DW_OP_LLVM_fragment 0 32] $rbp
	#DEBUG_VALUE: softaes_block_xor:b <- [DW_OP_constu 32, DW_OP_shr, DW_OP_LLVM_convert 64 7, DW_OP_LLVM_convert 32 7, DW_OP_stack_value, DW_OP_LLVM_fragment 32 32] $rbp
	#DEBUG_VALUE: softaes_block_xor:b <- [DW_OP_LLVM_convert 64 7, DW_OP_LLVM_convert 32 7, DW_OP_stack_value, DW_OP_LLVM_fragment 64 32] $rbx
	#DEBUG_VALUE: softaes_block_xor:b <- [DW_OP_constu 32, DW_OP_shr, DW_OP_LLVM_convert 64 7, DW_OP_LLVM_convert 32 7, DW_OP_stack_value, DW_OP_LLVM_fragment 96 32] $rbx
	.file	8 "./include/sodium/private" "softaes.h"
	.loc	8 45 37 is_stmt 1               # ./include/sodium/private/softaes.h:45:37 @[ crypto_aead/aegis256/aegis256_soft.c:44:16 @[ crypto_aead/aegis256/aegis256_common.h:71:5 @[ crypto_aead/aegis256/aegis256_common.h:155:9 ] ] ]
	xorq	%rbp, %rax
.Ltmp33:
	#DEBUG_VALUE: softaes_block_xor:out <- [DW_OP_LLVM_convert 64 7, DW_OP_LLVM_convert 32 7, DW_OP_stack_value, DW_OP_LLVM_fragment 0 32] $rax
	#DEBUG_VALUE: softaes_block_xor:out <- [DW_OP_constu 32, DW_OP_shr, DW_OP_LLVM_convert 64 7, DW_OP_LLVM_convert 32 7, DW_OP_stack_value, DW_OP_LLVM_fragment 32 32] $rax
	.loc	8 0 37 is_stmt 0                # ./include/sodium/private/softaes.h:0:37
	movq	%r14, %rbp
.Ltmp34:
	.loc	8 45 63                         # ./include/sodium/private/softaes.h:45:63 @[ crypto_aead/aegis256/aegis256_soft.c:44:16 @[ crypto_aead/aegis256/aegis256_common.h:71:5 @[ crypto_aead/aegis256/aegis256_common.h:155:9 ] ] ]
	xorq	%rbx, %rdx
.Ltmp35:
	#DEBUG_VALUE: softaes_block_xor:out <- [DW_OP_LLVM_convert 64 7, DW_OP_LLVM_convert 32 7, DW_OP_stack_value, DW_OP_LLVM_fragment 64 32] $rdx
	#DEBUG_VALUE: softaes_block_xor:out <- [DW_OP_constu 32, DW_OP_shr, DW_OP_LLVM_convert 64 7, DW_OP_LLVM_convert 32 7, DW_OP_stack_value, DW_OP_LLVM_fragment 96 32] $rdx
	.loc	5 44 16 is_stmt 1               # crypto_aead/aegis256/aegis256_soft.c:44:16 @[ crypto_aead/aegis256/aegis256_common.h:71:5 @[ crypto_aead/aegis256/aegis256_common.h:155:9 ] ]
	movq	%rax, (%rsp)
	movq	%rdx, 8(%rsp)
.Ltmp36:
	#DEBUG_VALUE: encrypt_detached:i <- [DW_OP_plus_uconst 16, DW_OP_stack_value] $r13
	.loc	6 154 19                        # crypto_aead/aegis256/aegis256_common.h:154:19
	leaq	16(%r13), %rax
.Ltmp37:
	addq	$32, %r13
.Ltmp38:
	cmpq	%r14, %r13
	movq	%rax, %r13
.Ltmp39:
	.loc	6 154 5 is_stmt 0               # crypto_aead/aegis256/aegis256_common.h:154:5
	jbe	.LBB0_6
.Ltmp40:
.LBB0_7:                                # %._crit_edge
	#DEBUG_VALUE: encrypt_detached:c <- [DW_OP_plus_uconst 104] [$rsp+0]
	#DEBUG_VALUE: encrypt_detached:mac <- [DW_OP_plus_uconst 120] [$rsp+0]
	#DEBUG_VALUE: encrypt_detached:maclen <- [DW_OP_plus_uconst 128] [$rsp+0]
	#DEBUG_VALUE: encrypt_detached:m <- [DW_OP_plus_uconst 112] [$rsp+0]
	#DEBUG_VALUE: encrypt_detached:mlen <- [DW_OP_plus_uconst 136] [$rsp+0]
	#DEBUG_VALUE: encrypt_detached:ad <- [DW_OP_plus_uconst 96] [$rsp+0]
	#DEBUG_VALUE: encrypt_detached:adlen <- [DW_OP_plus_uconst 240] [$rsp+0]
	#DEBUG_VALUE: encrypt_detached:npub <- [DW_OP_plus_uconst 248] [$rsp+0]
	#DEBUG_VALUE: encrypt_detached:k <- [DW_OP_plus_uconst 256] [$rsp+0]
	.loc	6 157 15 is_stmt 1              # crypto_aead/aegis256/aegis256_common.h:157:15
	movq	%rbp, %rdx
	andq	$15, %rdx
	je	.LBB0_9
.Ltmp41:
# %bb.8:
	#DEBUG_VALUE: encrypt_detached:c <- [DW_OP_plus_uconst 104] [$rsp+0]
	#DEBUG_VALUE: encrypt_detached:mac <- [DW_OP_plus_uconst 120] [$rsp+0]
	#DEBUG_VALUE: encrypt_detached:maclen <- [DW_OP_plus_uconst 128] [$rsp+0]
	#DEBUG_VALUE: encrypt_detached:m <- [DW_OP_plus_uconst 112] [$rsp+0]
	#DEBUG_VALUE: encrypt_detached:mlen <- [DW_OP_plus_uconst 136] [$rsp+0]
	#DEBUG_VALUE: encrypt_detached:ad <- [DW_OP_plus_uconst 96] [$rsp+0]
	#DEBUG_VALUE: encrypt_detached:adlen <- [DW_OP_plus_uconst 240] [$rsp+0]
	#DEBUG_VALUE: encrypt_detached:npub <- [DW_OP_plus_uconst 248] [$rsp+0]
	#DEBUG_VALUE: encrypt_detached:k <- [DW_OP_plus_uconst 256] [$rsp+0]
	#DEBUG_VALUE: memset:__dest <- [DW_OP_plus_uconst 160, DW_OP_stack_value] $rsp
	#DEBUG_VALUE: memset:__ch <- 0
	#DEBUG_VALUE: memset:__len <- 16
	.loc	7 59 10                         # /usr/include/x86_64-linux-gnu/bits/string_fortified.h:59:10 @[ crypto_aead/aegis256/aegis256_common.h:158:9 ]
	xorps	%xmm0, %xmm0
	movaps	%xmm0, 160(%rsp)
.Ltmp42:
	.loc	6 159 24                        # crypto_aead/aegis256/aegis256_common.h:159:24
	addq	%rax, %r12
.Ltmp43:
	#DEBUG_VALUE: memcpy:__src <- $r12
	#DEBUG_VALUE: memcpy:__dest <- [DW_OP_plus_uconst 160, DW_OP_stack_value] $rsp
	#DEBUG_VALUE: memcpy:__len <- $rdx
	.loc	6 0 24 is_stmt 0                # crypto_aead/aegis256/aegis256_common.h:0:24
	leaq	160(%rsp), %rdi
.Ltmp44:
	.loc	7 29 10 is_stmt 1               # /usr/include/x86_64-linux-gnu/bits/string_fortified.h:29:10 @[ crypto_aead/aegis256/aegis256_common.h:159:9 ]
	movl	$16, %ecx
	movq	%r12, %rsi
	callq	__memcpy_chk@PLT
.Ltmp45:
	#DEBUG_VALUE: aegis256_absorb:src <- [DW_OP_plus_uconst 160, DW_OP_stack_value] $rsp
	#DEBUG_VALUE: aegis256_absorb:state <- $rsp
	#DEBUG_VALUE: softaes_block_load:in <- [DW_OP_plus_uconst 160, DW_OP_stack_value] $rsp
	#DEBUG_VALUE: load32_le:w <- undef
	#DEBUG_VALUE: load32_le:src <- [DW_OP_plus_uconst 160, DW_OP_stack_value] $rsp
	#DEBUG_VALUE: memcpy:__dest <- undef
	#DEBUG_VALUE: memcpy:__src <- [DW_OP_plus_uconst 160, DW_OP_stack_value] $rsp
	#DEBUG_VALUE: memcpy:__len <- 4
	.loc	7 29 10 is_stmt 0               # /usr/include/x86_64-linux-gnu/bits/string_fortified.h:29:10 @[ ./include/sodium/private/common.h:106:5 @[ ./include/sodium/private/softaes.h:20:32 @[ crypto_aead/aegis256/aegis256_common.h:70:11 @[ crypto_aead/aegis256/aegis256_common.h:160:9 ] ] ] ]
	movq	160(%rsp), %r12
.Ltmp46:
	#DEBUG_VALUE: softaes_block_load:out <- [DW_OP_LLVM_fragment 0 32] undef
	#DEBUG_VALUE: load32_le:w <- undef
	#DEBUG_VALUE: load32_le:src <- [DW_OP_plus_uconst 160, DW_OP_plus_uconst 4, DW_OP_stack_value] $rsp
	#DEBUG_VALUE: memcpy:__dest <- undef
	#DEBUG_VALUE: memcpy:__src <- [DW_OP_plus_uconst 160, DW_OP_plus_uconst 4, DW_OP_stack_value] $rsp
	#DEBUG_VALUE: memcpy:__len <- 4
	#DEBUG_VALUE: softaes_block_load:out <- [DW_OP_LLVM_fragment 32 32] undef
	#DEBUG_VALUE: load32_le:w <- undef
	#DEBUG_VALUE: memcpy:__dest <- undef
	#DEBUG_VALUE: memcpy:__len <- 4
	#DEBUG_VALUE: load32_le:src <- undef
	#DEBUG_VALUE: memcpy:__src <- undef
	.loc	7 29 10                         # /usr/include/x86_64-linux-gnu/bits/string_fortified.h:29:10 @[ ./include/sodium/private/common.h:106:5 @[ ./include/sodium/private/softaes.h:20:70 @[ crypto_aead/aegis256/aegis256_common.h:70:11 @[ crypto_aead/aegis256/aegis256_common.h:160:9 ] ] ] ]
	movq	168(%rsp), %rbx
.Ltmp47:
	#DEBUG_VALUE: aegis256_absorb:msg <- [DW_OP_LLVM_fragment 64 64] $rbx
	#DEBUG_VALUE: aegis256_update:d <- [DW_OP_LLVM_fragment 64 64] $rbx
	#DEBUG_VALUE: softaes_block_load:out <- [DW_OP_LLVM_fragment 64 32] undef
	#DEBUG_VALUE: load32_le:w <- undef
	#DEBUG_VALUE: load32_le:src <- [DW_OP_plus_uconst 160, DW_OP_plus_uconst 12, DW_OP_stack_value] $rsp
	#DEBUG_VALUE: memcpy:__dest <- undef
	#DEBUG_VALUE: memcpy:__src <- [DW_OP_plus_uconst 160, DW_OP_plus_uconst 12, DW_OP_stack_value] $rsp
	#DEBUG_VALUE: memcpy:__len <- 4
	#DEBUG_VALUE: softaes_block_load:out <- [DW_OP_LLVM_fragment 96 32] undef
	#DEBUG_VALUE: aegis256_update:state <- $rsp
	#DEBUG_VALUE: aegis256_absorb:msg <- [DW_OP_LLVM_fragment 0 64] $r12
	#DEBUG_VALUE: aegis256_update:d <- [DW_OP_LLVM_fragment 0 64] $r12
	.loc	5 38 11 is_stmt 1               # crypto_aead/aegis256/aegis256_soft.c:38:11 @[ crypto_aead/aegis256/aegis256_common.h:71:5 @[ crypto_aead/aegis256/aegis256_common.h:160:9 ] ]
	movq	80(%rsp), %r14
	movq	88(%rsp), %r15
.Ltmp48:
	#DEBUG_VALUE: aegis256_update:tmp <- [DW_OP_LLVM_fragment 64 64] $r15
	#DEBUG_VALUE: aegis256_update:tmp <- [DW_OP_LLVM_fragment 0 64] $r14
	.loc	5 39 16                         # crypto_aead/aegis256/aegis256_soft.c:39:16 @[ crypto_aead/aegis256/aegis256_common.h:71:5 @[ crypto_aead/aegis256/aegis256_common.h:160:9 ] ]
	movq	64(%rsp), %rdi
	movq	72(%rsp), %rsi
	movq	%r14, %rdx
	movq	%r15, %rcx
	callq	softaes_block_encrypt@PLT
.Ltmp49:
	movq	%rax, 80(%rsp)
	movq	%rdx, 88(%rsp)
	.loc	5 40 16                         # crypto_aead/aegis256/aegis256_soft.c:40:16 @[ crypto_aead/aegis256/aegis256_common.h:71:5 @[ crypto_aead/aegis256/aegis256_common.h:160:9 ] ]
	movq	48(%rsp), %rdi
	movq	56(%rsp), %rsi
	movq	64(%rsp), %rdx
	movq	72(%rsp), %rcx
	callq	softaes_block_encrypt@PLT
.Ltmp50:
	movq	%rax, 64(%rsp)
	movq	%rdx, 72(%rsp)
	.loc	5 41 16                         # crypto_aead/aegis256/aegis256_soft.c:41:16 @[ crypto_aead/aegis256/aegis256_common.h:71:5 @[ crypto_aead/aegis256/aegis256_common.h:160:9 ] ]
	movq	32(%rsp), %rdi
	movq	40(%rsp), %rsi
	movq	48(%rsp), %rdx
	movq	56(%rsp), %rcx
	callq	softaes_block_encrypt@PLT
.Ltmp51:
	movq	%rax, 48(%rsp)
	movq	%rdx, 56(%rsp)
	.loc	5 42 16                         # crypto_aead/aegis256/aegis256_soft.c:42:16 @[ crypto_aead/aegis256/aegis256_common.h:71:5 @[ crypto_aead/aegis256/aegis256_common.h:160:9 ] ]
	movq	16(%rsp), %rdi
	movq	24(%rsp), %rsi
	movq	32(%rsp), %rdx
	movq	40(%rsp), %rcx
	callq	softaes_block_encrypt@PLT
.Ltmp52:
	movq	%rax, 32(%rsp)
	movq	%rdx, 40(%rsp)
	.loc	5 43 16                         # crypto_aead/aegis256/aegis256_soft.c:43:16 @[ crypto_aead/aegis256/aegis256_common.h:71:5 @[ crypto_aead/aegis256/aegis256_common.h:160:9 ] ]
	movq	(%rsp), %rdi
	movq	8(%rsp), %rsi
	movq	16(%rsp), %rdx
	movq	24(%rsp), %rcx
	callq	softaes_block_encrypt@PLT
.Ltmp53:
	movq	%rax, 16(%rsp)
	movq	%rdx, 24(%rsp)
	.loc	5 44 35                         # crypto_aead/aegis256/aegis256_soft.c:44:35 @[ crypto_aead/aegis256/aegis256_common.h:71:5 @[ crypto_aead/aegis256/aegis256_common.h:160:9 ] ]
	movq	(%rsp), %rdx
	movq	8(%rsp), %rcx
	movq	%r14, %rdi
	movq	%r15, %rsi
	callq	softaes_block_encrypt@PLT
.Ltmp54:
	#DEBUG_VALUE: softaes_block_xor:a <- [DW_OP_LLVM_convert 64 7, DW_OP_LLVM_convert 32 7, DW_OP_stack_value, DW_OP_LLVM_fragment 0 32] $rax
	#DEBUG_VALUE: softaes_block_xor:a <- [DW_OP_constu 32, DW_OP_shr, DW_OP_LLVM_convert 64 7, DW_OP_LLVM_convert 32 7, DW_OP_stack_value, DW_OP_LLVM_fragment 32 32] $rax
	#DEBUG_VALUE: softaes_block_xor:a <- [DW_OP_LLVM_convert 64 7, DW_OP_LLVM_convert 32 7, DW_OP_stack_value, DW_OP_LLVM_fragment 64 32] $rdx
	#DEBUG_VALUE: softaes_block_xor:a <- [DW_OP_constu 32, DW_OP_shr, DW_OP_LLVM_convert 64 7, DW_OP_LLVM_convert 32 7, DW_OP_stack_value, DW_OP_LLVM_fragment 96 32] $rdx
	#DEBUG_VALUE: softaes_block_xor:b <- [DW_OP_LLVM_convert 64 7, DW_OP_LLVM_convert 32 7, DW_OP_stack_value, DW_OP_LLVM_fragment 64 32] $rbx
	#DEBUG_VALUE: softaes_block_xor:b <- [DW_OP_constu 32, DW_OP_shr, DW_OP_LLVM_convert 64 7, DW_OP_LLVM_convert 32 7, DW_OP_stack_value, DW_OP_LLVM_fragment 96 32] $rbx
	#DEBUG_VALUE: softaes_block_xor:b <- [DW_OP_LLVM_convert 64 7, DW_OP_LLVM_convert 32 7, DW_OP_stack_value, DW_OP_LLVM_fragment 0 32] $r12
	#DEBUG_VALUE: softaes_block_xor:b <- [DW_OP_constu 32, DW_OP_shr, DW_OP_LLVM_convert 64 7, DW_OP_LLVM_convert 32 7, DW_OP_stack_value, DW_OP_LLVM_fragment 32 32] $r12
	.loc	8 45 37                         # ./include/sodium/private/softaes.h:45:37 @[ crypto_aead/aegis256/aegis256_soft.c:44:16 @[ crypto_aead/aegis256/aegis256_common.h:71:5 @[ crypto_aead/aegis256/aegis256_common.h:160:9 ] ] ]
	xorq	%r12, %rax
.Ltmp55:
	#DEBUG_VALUE: softaes_block_xor:out <- [DW_OP_LLVM_convert 64 7, DW_OP_LLVM_convert 32 7, DW_OP_stack_value, DW_OP_LLVM_fragment 0 32] $rax
	#DEBUG_VALUE: softaes_block_xor:out <- [DW_OP_constu 32, DW_OP_shr, DW_OP_LLVM_convert 64 7, DW_OP_LLVM_convert 32 7, DW_OP_stack_value, DW_OP_LLVM_fragment 32 32] $rax
	.loc	8 45 63 is_stmt 0               # ./include/sodium/private/softaes.h:45:63 @[ crypto_aead/aegis256/aegis256_soft.c:44:16 @[ crypto_aead/aegis256/aegis256_common.h:71:5 @[ crypto_aead/aegis256/aegis256_common.h:160:9 ] ] ]
	xorq	%rbx, %rdx
.Ltmp56:
	#DEBUG_VALUE: softaes_block_xor:out <- [DW_OP_LLVM_convert 64 7, DW_OP_LLVM_convert 32 7, DW_OP_stack_value, DW_OP_LLVM_fragment 64 32] $rdx
	#DEBUG_VALUE: softaes_block_xor:out <- [DW_OP_constu 32, DW_OP_shr, DW_OP_LLVM_convert 64 7, DW_OP_LLVM_convert 32 7, DW_OP_stack_value, DW_OP_LLVM_fragment 96 32] $rdx
	.loc	5 44 16 is_stmt 1               # crypto_aead/aegis256/aegis256_soft.c:44:16 @[ crypto_aead/aegis256/aegis256_common.h:71:5 @[ crypto_aead/aegis256/aegis256_common.h:160:9 ] ]
	movq	%rax, (%rsp)
	movq	%rdx, 8(%rsp)
.Ltmp57:
.LBB0_9:
	#DEBUG_VALUE: encrypt_detached:c <- [DW_OP_plus_uconst 104] [$rsp+0]
	#DEBUG_VALUE: encrypt_detached:mac <- [DW_OP_plus_uconst 120] [$rsp+0]
	#DEBUG_VALUE: encrypt_detached:maclen <- [DW_OP_plus_uconst 128] [$rsp+0]
	#DEBUG_VALUE: encrypt_detached:m <- [DW_OP_plus_uconst 112] [$rsp+0]
	#DEBUG_VALUE: encrypt_detached:mlen <- [DW_OP_plus_uconst 136] [$rsp+0]
	#DEBUG_VALUE: encrypt_detached:ad <- [DW_OP_plus_uconst 96] [$rsp+0]
	#DEBUG_VALUE: encrypt_detached:adlen <- [DW_OP_plus_uconst 240] [$rsp+0]
	#DEBUG_VALUE: encrypt_detached:npub <- [DW_OP_plus_uconst 248] [$rsp+0]
	#DEBUG_VALUE: encrypt_detached:k <- [DW_OP_plus_uconst 256] [$rsp+0]
	#DEBUG_VALUE: encrypt_detached:i <- 0
	.loc	5 0 16 is_stmt 0                # crypto_aead/aegis256/aegis256_soft.c:0:16
	movq	136(%rsp), %r13                 # 8-byte Reload
.Ltmp58:
	.loc	6 162 24 is_stmt 1              # crypto_aead/aegis256/aegis256_common.h:162:24
	cmpq	$16, %r13
.Ltmp59:
	.loc	6 162 5 is_stmt 0               # crypto_aead/aegis256/aegis256_common.h:162:5
	jae	.LBB0_11
.Ltmp60:
# %bb.10:
	#DEBUG_VALUE: encrypt_detached:c <- [DW_OP_plus_uconst 104] [$rsp+0]
	#DEBUG_VALUE: encrypt_detached:mac <- [DW_OP_plus_uconst 120] [$rsp+0]
	#DEBUG_VALUE: encrypt_detached:maclen <- [DW_OP_plus_uconst 128] [$rsp+0]
	#DEBUG_VALUE: encrypt_detached:m <- [DW_OP_plus_uconst 112] [$rsp+0]
	#DEBUG_VALUE: encrypt_detached:mlen <- [DW_OP_plus_uconst 136] [$rsp+0]
	#DEBUG_VALUE: encrypt_detached:ad <- [DW_OP_plus_uconst 96] [$rsp+0]
	#DEBUG_VALUE: encrypt_detached:adlen <- [DW_OP_plus_uconst 240] [$rsp+0]
	#DEBUG_VALUE: encrypt_detached:npub <- [DW_OP_plus_uconst 248] [$rsp+0]
	#DEBUG_VALUE: encrypt_detached:k <- [DW_OP_plus_uconst 256] [$rsp+0]
	#DEBUG_VALUE: encrypt_detached:i <- 0
	.loc	6 0 5                           # crypto_aead/aegis256/aegis256_common.h:0:5
	xorl	%ebx, %ebx
	movq	104(%rsp), %r12                 # 8-byte Reload
	.loc	6 162 5                         # crypto_aead/aegis256/aegis256_common.h:162:5
	jmp	.LBB0_13
.Ltmp61:
.LBB0_11:                               # %.lr.ph56.preheader
	#DEBUG_VALUE: encrypt_detached:c <- [DW_OP_plus_uconst 104] [$rsp+0]
	#DEBUG_VALUE: encrypt_detached:mac <- [DW_OP_plus_uconst 120] [$rsp+0]
	#DEBUG_VALUE: encrypt_detached:maclen <- [DW_OP_plus_uconst 128] [$rsp+0]
	#DEBUG_VALUE: encrypt_detached:m <- [DW_OP_plus_uconst 112] [$rsp+0]
	#DEBUG_VALUE: encrypt_detached:mlen <- [DW_OP_plus_uconst 136] [$rsp+0]
	#DEBUG_VALUE: encrypt_detached:ad <- [DW_OP_plus_uconst 96] [$rsp+0]
	#DEBUG_VALUE: encrypt_detached:adlen <- [DW_OP_plus_uconst 240] [$rsp+0]
	#DEBUG_VALUE: encrypt_detached:npub <- [DW_OP_plus_uconst 248] [$rsp+0]
	#DEBUG_VALUE: encrypt_detached:k <- [DW_OP_plus_uconst 256] [$rsp+0]
	#DEBUG_VALUE: encrypt_detached:i <- 0
	.loc	6 0 5                           # crypto_aead/aegis256/aegis256_common.h:0:5
	xorl	%r15d, %r15d
	movq	104(%rsp), %r12                 # 8-byte Reload
	movq	112(%rsp), %r14                 # 8-byte Reload
.Ltmp62:
	.p2align	4
.LBB0_12:                               # %.lr.ph56
                                        # =>This Inner Loop Header: Depth=1
	#DEBUG_VALUE: encrypt_detached:c <- [DW_OP_plus_uconst 104] [$rsp+0]
	#DEBUG_VALUE: encrypt_detached:mac <- [DW_OP_plus_uconst 120] [$rsp+0]
	#DEBUG_VALUE: encrypt_detached:maclen <- [DW_OP_plus_uconst 128] [$rsp+0]
	#DEBUG_VALUE: encrypt_detached:m <- [DW_OP_plus_uconst 112] [$rsp+0]
	#DEBUG_VALUE: encrypt_detached:mlen <- [DW_OP_plus_uconst 136] [$rsp+0]
	#DEBUG_VALUE: encrypt_detached:ad <- [DW_OP_plus_uconst 96] [$rsp+0]
	#DEBUG_VALUE: encrypt_detached:adlen <- [DW_OP_plus_uconst 240] [$rsp+0]
	#DEBUG_VALUE: encrypt_detached:npub <- [DW_OP_plus_uconst 248] [$rsp+0]
	#DEBUG_VALUE: encrypt_detached:k <- [DW_OP_plus_uconst 256] [$rsp+0]
	#DEBUG_VALUE: encrypt_detached:i <- $r15
	.loc	6 163 31 is_stmt 1              # crypto_aead/aegis256/aegis256_common.h:163:31
	leaq	(%r12,%r15), %rdi
	.loc	6 163 9 is_stmt 0               # crypto_aead/aegis256/aegis256_common.h:163:9
	leaq	(%r14,%r15), %rsi
	movq	%rsp, %rdx
	callq	aegis256_enc
.Ltmp63:
	#DEBUG_VALUE: encrypt_detached:i <- [DW_OP_plus_uconst 16, DW_OP_stack_value] $r15
	.loc	6 162 24 is_stmt 1              # crypto_aead/aegis256/aegis256_common.h:162:24
	leaq	16(%r15), %rbx
	addq	$32, %r15
.Ltmp64:
	cmpq	%r13, %r15
	movq	%rbx, %r15
.Ltmp65:
	.loc	6 162 5 is_stmt 0               # crypto_aead/aegis256/aegis256_common.h:162:5
	jbe	.LBB0_12
.Ltmp66:
.LBB0_13:                               # %._crit_edge57
	#DEBUG_VALUE: encrypt_detached:c <- [DW_OP_plus_uconst 104] [$rsp+0]
	#DEBUG_VALUE: encrypt_detached:mac <- [DW_OP_plus_uconst 120] [$rsp+0]
	#DEBUG_VALUE: encrypt_detached:maclen <- [DW_OP_plus_uconst 128] [$rsp+0]
	#DEBUG_VALUE: encrypt_detached:m <- [DW_OP_plus_uconst 112] [$rsp+0]
	#DEBUG_VALUE: encrypt_detached:mlen <- [DW_OP_plus_uconst 136] [$rsp+0]
	#DEBUG_VALUE: encrypt_detached:ad <- [DW_OP_plus_uconst 96] [$rsp+0]
	#DEBUG_VALUE: encrypt_detached:adlen <- [DW_OP_plus_uconst 240] [$rsp+0]
	#DEBUG_VALUE: encrypt_detached:npub <- [DW_OP_plus_uconst 248] [$rsp+0]
	#DEBUG_VALUE: encrypt_detached:k <- [DW_OP_plus_uconst 256] [$rsp+0]
	.loc	6 165 14 is_stmt 1              # crypto_aead/aegis256/aegis256_common.h:165:14
	movq	%r13, %r14
	andq	$15, %r14
	je	.LBB0_15
.Ltmp67:
# %bb.14:
	#DEBUG_VALUE: encrypt_detached:c <- [DW_OP_plus_uconst 104] [$rsp+0]
	#DEBUG_VALUE: encrypt_detached:mac <- [DW_OP_plus_uconst 120] [$rsp+0]
	#DEBUG_VALUE: encrypt_detached:maclen <- [DW_OP_plus_uconst 128] [$rsp+0]
	#DEBUG_VALUE: encrypt_detached:m <- [DW_OP_plus_uconst 112] [$rsp+0]
	#DEBUG_VALUE: encrypt_detached:mlen <- [DW_OP_plus_uconst 136] [$rsp+0]
	#DEBUG_VALUE: encrypt_detached:ad <- [DW_OP_plus_uconst 96] [$rsp+0]
	#DEBUG_VALUE: encrypt_detached:adlen <- [DW_OP_plus_uconst 240] [$rsp+0]
	#DEBUG_VALUE: encrypt_detached:npub <- [DW_OP_plus_uconst 248] [$rsp+0]
	#DEBUG_VALUE: encrypt_detached:k <- [DW_OP_plus_uconst 256] [$rsp+0]
	#DEBUG_VALUE: memset:__dest <- [DW_OP_plus_uconst 160, DW_OP_stack_value] $rsp
	#DEBUG_VALUE: memset:__ch <- 0
	#DEBUG_VALUE: memset:__len <- 16
	.loc	7 59 10                         # /usr/include/x86_64-linux-gnu/bits/string_fortified.h:59:10 @[ crypto_aead/aegis256/aegis256_common.h:166:9 ]
	xorps	%xmm0, %xmm0
	movaps	%xmm0, 160(%rsp)
	movq	112(%rsp), %rsi                 # 8-byte Reload
.Ltmp68:
	.loc	6 167 23                        # crypto_aead/aegis256/aegis256_common.h:167:23
	addq	%rbx, %rsi
.Ltmp69:
	#DEBUG_VALUE: memcpy:__src <- $rsi
	#DEBUG_VALUE: memcpy:__dest <- [DW_OP_plus_uconst 160, DW_OP_stack_value] $rsp
	#DEBUG_VALUE: memcpy:__len <- $r14
	.loc	6 0 23 is_stmt 0                # crypto_aead/aegis256/aegis256_common.h:0:23
	leaq	160(%rsp), %rdi
.Ltmp70:
	.loc	7 29 10 is_stmt 1               # /usr/include/x86_64-linux-gnu/bits/string_fortified.h:29:10 @[ crypto_aead/aegis256/aegis256_common.h:167:9 ]
	movl	$16, %ecx
	movq	%r14, %rdx
	callq	__memcpy_chk@PLT
.Ltmp71:
	.loc	7 0 10 is_stmt 0                # /usr/include/x86_64-linux-gnu/bits/string_fortified.h:0:10
	movq	%r12, %r15
	leaq	144(%rsp), %r12
	movq	%rsp, %rdx
.Ltmp72:
	.loc	6 168 9 is_stmt 1               # crypto_aead/aegis256/aegis256_common.h:168:9
	movq	%r12, %rdi
	leaq	160(%rsp), %rsi
	callq	aegis256_enc
.Ltmp73:
	.loc	6 169 18                        # crypto_aead/aegis256/aegis256_common.h:169:18
	addq	%rbx, %r15
.Ltmp74:
	#DEBUG_VALUE: memcpy:__dest <- $r15
	#DEBUG_VALUE: memcpy:__src <- [DW_OP_plus_uconst 144, DW_OP_stack_value] $rsp
	#DEBUG_VALUE: memcpy:__len <- $r14
	.loc	7 29 10                         # /usr/include/x86_64-linux-gnu/bits/string_fortified.h:29:10 @[ crypto_aead/aegis256/aegis256_common.h:169:9 ]
	movq	%r15, %rdi
	movq	%r12, %rsi
	movq	%r14, %rdx
	callq	memcpy@PLT
.Ltmp75:
.LBB0_15:
	#DEBUG_VALUE: encrypt_detached:c <- [DW_OP_plus_uconst 104] [$rsp+0]
	#DEBUG_VALUE: encrypt_detached:mac <- [DW_OP_plus_uconst 120] [$rsp+0]
	#DEBUG_VALUE: encrypt_detached:maclen <- [DW_OP_plus_uconst 128] [$rsp+0]
	#DEBUG_VALUE: encrypt_detached:m <- [DW_OP_plus_uconst 112] [$rsp+0]
	#DEBUG_VALUE: encrypt_detached:mlen <- [DW_OP_plus_uconst 136] [$rsp+0]
	#DEBUG_VALUE: encrypt_detached:ad <- [DW_OP_plus_uconst 96] [$rsp+0]
	#DEBUG_VALUE: encrypt_detached:adlen <- [DW_OP_plus_uconst 240] [$rsp+0]
	#DEBUG_VALUE: encrypt_detached:npub <- [DW_OP_plus_uconst 248] [$rsp+0]
	#DEBUG_VALUE: encrypt_detached:k <- [DW_OP_plus_uconst 256] [$rsp+0]
	.loc	7 0 10 is_stmt 0                # /usr/include/x86_64-linux-gnu/bits/string_fortified.h:0:10
	movq	%rsp, %r8
	movq	120(%rsp), %rdi                 # 8-byte Reload
	movq	128(%rsp), %rsi                 # 8-byte Reload
	.loc	6 172 5 is_stmt 1               # crypto_aead/aegis256/aegis256_common.h:172:5
	movq	%rbp, %rdx
	movq	%r13, %rcx
	callq	aegis256_mac
.Ltmp76:
	.loc	6 174 5                         # crypto_aead/aegis256/aegis256_common.h:174:5
	movq	%fs:40, %rax
	cmpq	176(%rsp), %rax
	jne	.LBB0_17
.Ltmp77:
# %bb.16:                               # %SP_return
	#DEBUG_VALUE: encrypt_detached:c <- [DW_OP_plus_uconst 104] [$rsp+0]
	#DEBUG_VALUE: encrypt_detached:mac <- [DW_OP_plus_uconst 120] [$rsp+0]
	#DEBUG_VALUE: encrypt_detached:maclen <- [DW_OP_plus_uconst 128] [$rsp+0]
	#DEBUG_VALUE: encrypt_detached:m <- [DW_OP_plus_uconst 112] [$rsp+0]
	#DEBUG_VALUE: encrypt_detached:mlen <- [DW_OP_plus_uconst 136] [$rsp+0]
	#DEBUG_VALUE: encrypt_detached:ad <- [DW_OP_plus_uconst 96] [$rsp+0]
	#DEBUG_VALUE: encrypt_detached:adlen <- [DW_OP_plus_uconst 240] [$rsp+0]
	#DEBUG_VALUE: encrypt_detached:npub <- [DW_OP_plus_uconst 248] [$rsp+0]
	#DEBUG_VALUE: encrypt_detached:k <- [DW_OP_plus_uconst 256] [$rsp+0]
	xorl	%eax, %eax
	.loc	6 174 5 epilogue_begin is_stmt 0 # crypto_aead/aegis256/aegis256_common.h:174:5
	addq	$184, %rsp
	.cfi_def_cfa_offset 56
	popq	%rbx
	.cfi_def_cfa_offset 48
	popq	%r12
	.cfi_def_cfa_offset 40
	popq	%r13
	.cfi_def_cfa_offset 32
	popq	%r14
	.cfi_def_cfa_offset 24
	popq	%r15
	.cfi_def_cfa_offset 16
	popq	%rbp
	.cfi_def_cfa_offset 8
	retq
.Ltmp78:
.LBB0_17:                               # %CallStackCheckFailBlk
	.cfi_def_cfa_offset 240
	#DEBUG_VALUE: encrypt_detached:c <- [DW_OP_plus_uconst 104] [$rsp+0]
	#DEBUG_VALUE: encrypt_detached:mac <- [DW_OP_plus_uconst 120] [$rsp+0]
	#DEBUG_VALUE: encrypt_detached:maclen <- [DW_OP_plus_uconst 128] [$rsp+0]
	#DEBUG_VALUE: encrypt_detached:m <- [DW_OP_plus_uconst 112] [$rsp+0]
	#DEBUG_VALUE: encrypt_detached:mlen <- [DW_OP_plus_uconst 136] [$rsp+0]
	#DEBUG_VALUE: encrypt_detached:ad <- [DW_OP_plus_uconst 96] [$rsp+0]
	#DEBUG_VALUE: encrypt_detached:adlen <- [DW_OP_plus_uconst 240] [$rsp+0]
	#DEBUG_VALUE: encrypt_detached:npub <- [DW_OP_plus_uconst 248] [$rsp+0]
	#DEBUG_VALUE: encrypt_detached:k <- [DW_OP_plus_uconst 256] [$rsp+0]
	.loc	6 0 0                           # crypto_aead/aegis256/aegis256_common.h:0
	callq	__stack_chk_fail@PLT
.Ltmp79:
.Lfunc_end0:
	.size	encrypt_detached, .Lfunc_end0-encrypt_detached
	.cfi_endproc
	.file	9 "./include/sodium/private" "common.h"
                                        # -- End function
	.p2align	4                               # -- Begin function decrypt_detached
	.type	decrypt_detached,@function
decrypt_detached:                       # @decrypt_detached
.Lfunc_begin1:
	.loc	6 180 0 is_stmt 1               # crypto_aead/aegis256/aegis256_common.h:180:0
	.cfi_startproc
# %bb.0:
	#DEBUG_VALUE: decrypt_detached:m <- $rdi
	#DEBUG_VALUE: decrypt_detached:c <- $rsi
	#DEBUG_VALUE: decrypt_detached:clen <- $rdx
	#DEBUG_VALUE: decrypt_detached:mac <- $rcx
	#DEBUG_VALUE: decrypt_detached:maclen <- $r8
	#DEBUG_VALUE: decrypt_detached:ad <- $r9
	pushq	%rbp
	.cfi_def_cfa_offset 16
	pushq	%r15
	.cfi_def_cfa_offset 24
	pushq	%r14
	.cfi_def_cfa_offset 32
	pushq	%r13
	.cfi_def_cfa_offset 40
	pushq	%r12
	.cfi_def_cfa_offset 48
	pushq	%rbx
	.cfi_def_cfa_offset 56
	subq	$216, %rsp
	.cfi_def_cfa_offset 272
	.cfi_offset %rbx, -56
	.cfi_offset %r12, -48
	.cfi_offset %r13, -40
	.cfi_offset %r14, -32
	.cfi_offset %r15, -24
	.cfi_offset %rbp, -16
.Ltmp80:
	#DEBUG_VALUE: decrypt_detached:adlen <- [DW_OP_plus_uconst 272] [$rsp+0]
	#DEBUG_VALUE: decrypt_detached:npub <- [DW_OP_plus_uconst 280] [$rsp+0]
	#DEBUG_VALUE: decrypt_detached:k <- [DW_OP_plus_uconst 288] [$rsp+0]
	movq	%r9, 104(%rsp)                  # 8-byte Spill
.Ltmp81:
	#DEBUG_VALUE: decrypt_detached:ad <- [DW_OP_plus_uconst 104] [$rsp+0]
	movq	%r8, 128(%rsp)                  # 8-byte Spill
.Ltmp82:
	#DEBUG_VALUE: decrypt_detached:maclen <- [DW_OP_plus_uconst 128] [$rsp+0]
	movq	%rcx, 112(%rsp)                 # 8-byte Spill
.Ltmp83:
	#DEBUG_VALUE: decrypt_detached:mac <- [DW_OP_plus_uconst 112] [$rsp+0]
	movq	%rdx, 120(%rsp)                 # 8-byte Spill
.Ltmp84:
	#DEBUG_VALUE: decrypt_detached:clen <- [DW_OP_plus_uconst 120] [$rsp+0]
	movq	%rsi, 96(%rsp)                  # 8-byte Spill
.Ltmp85:
	#DEBUG_VALUE: decrypt_detached:c <- [DW_OP_plus_uconst 96] [$rsp+0]
	movq	%rdi, %r13
	movq	272(%rsp), %rbp
	movq	288(%rsp), %rdi
.Ltmp86:
	#DEBUG_VALUE: decrypt_detached:m <- $r13
	movq	280(%rsp), %rsi
	movq	%fs:40, %rax
	movq	%rax, 208(%rsp)
.Ltmp87:
	#DEBUG_VALUE: decrypt_detached:mlen <- undef
	movq	%rsp, %rdx
.Ltmp88:
	.loc	6 189 5 prologue_end            # crypto_aead/aegis256/aegis256_common.h:189:5
	callq	aegis256_init
.Ltmp89:
	#DEBUG_VALUE: decrypt_detached:i <- 0
	.loc	6 191 28                        # crypto_aead/aegis256/aegis256_common.h:191:28
	cmpq	$32, %rbp
.Ltmp90:
	.loc	6 191 5 is_stmt 0               # crypto_aead/aegis256/aegis256_common.h:191:5
	jae	.LBB1_2
.Ltmp91:
# %bb.1:
	#DEBUG_VALUE: decrypt_detached:m <- $r13
	#DEBUG_VALUE: decrypt_detached:c <- [DW_OP_plus_uconst 96] [$rsp+0]
	#DEBUG_VALUE: decrypt_detached:clen <- [DW_OP_plus_uconst 120] [$rsp+0]
	#DEBUG_VALUE: decrypt_detached:mac <- [DW_OP_plus_uconst 112] [$rsp+0]
	#DEBUG_VALUE: decrypt_detached:maclen <- [DW_OP_plus_uconst 128] [$rsp+0]
	#DEBUG_VALUE: decrypt_detached:ad <- [DW_OP_plus_uconst 104] [$rsp+0]
	#DEBUG_VALUE: decrypt_detached:adlen <- [DW_OP_plus_uconst 272] [$rsp+0]
	#DEBUG_VALUE: decrypt_detached:npub <- [DW_OP_plus_uconst 280] [$rsp+0]
	#DEBUG_VALUE: decrypt_detached:k <- [DW_OP_plus_uconst 288] [$rsp+0]
	#DEBUG_VALUE: decrypt_detached:i <- 0
	.loc	6 0 5                           # crypto_aead/aegis256/aegis256_common.h:0:5
	xorl	%ebx, %ebx
	movq	104(%rsp), %r15                 # 8-byte Reload
	jmp	.LBB1_4
.Ltmp92:
.LBB1_2:                                # %.lr.ph.preheader
	#DEBUG_VALUE: decrypt_detached:m <- $r13
	#DEBUG_VALUE: decrypt_detached:c <- [DW_OP_plus_uconst 96] [$rsp+0]
	#DEBUG_VALUE: decrypt_detached:clen <- [DW_OP_plus_uconst 120] [$rsp+0]
	#DEBUG_VALUE: decrypt_detached:mac <- [DW_OP_plus_uconst 112] [$rsp+0]
	#DEBUG_VALUE: decrypt_detached:maclen <- [DW_OP_plus_uconst 128] [$rsp+0]
	#DEBUG_VALUE: decrypt_detached:ad <- [DW_OP_plus_uconst 104] [$rsp+0]
	#DEBUG_VALUE: decrypt_detached:adlen <- [DW_OP_plus_uconst 272] [$rsp+0]
	#DEBUG_VALUE: decrypt_detached:npub <- [DW_OP_plus_uconst 280] [$rsp+0]
	#DEBUG_VALUE: decrypt_detached:k <- [DW_OP_plus_uconst 288] [$rsp+0]
	#DEBUG_VALUE: decrypt_detached:i <- 0
	xorl	%r12d, %r12d
	movq	%rsp, %r14
	movq	104(%rsp), %r15                 # 8-byte Reload
.Ltmp93:
	.p2align	4
.LBB1_3:                                # %.lr.ph
                                        # =>This Inner Loop Header: Depth=1
	#DEBUG_VALUE: decrypt_detached:m <- $r13
	#DEBUG_VALUE: decrypt_detached:c <- [DW_OP_plus_uconst 96] [$rsp+0]
	#DEBUG_VALUE: decrypt_detached:clen <- [DW_OP_plus_uconst 120] [$rsp+0]
	#DEBUG_VALUE: decrypt_detached:mac <- [DW_OP_plus_uconst 112] [$rsp+0]
	#DEBUG_VALUE: decrypt_detached:maclen <- [DW_OP_plus_uconst 128] [$rsp+0]
	#DEBUG_VALUE: decrypt_detached:ad <- [DW_OP_plus_uconst 104] [$rsp+0]
	#DEBUG_VALUE: decrypt_detached:adlen <- [DW_OP_plus_uconst 272] [$r14+0]
	#DEBUG_VALUE: decrypt_detached:npub <- [DW_OP_plus_uconst 280] [$r14+0]
	#DEBUG_VALUE: decrypt_detached:k <- [DW_OP_plus_uconst 288] [$r14+0]
	#DEBUG_VALUE: decrypt_detached:i <- $r12
	.loc	6 192 9 is_stmt 1               # crypto_aead/aegis256/aegis256_common.h:192:9
	leaq	(%r15,%r12), %rdi
	movq	%r14, %rsi
	callq	aegis256_absorb2
.Ltmp94:
	#DEBUG_VALUE: decrypt_detached:i <- [DW_OP_plus_uconst 32, DW_OP_stack_value] $r12
	.loc	6 191 28                        # crypto_aead/aegis256/aegis256_common.h:191:28
	leaq	32(%r12), %rbx
	addq	$64, %r12
.Ltmp95:
	cmpq	%rbp, %r12
	movq	%rbx, %r12
.Ltmp96:
	.loc	6 191 5 is_stmt 0               # crypto_aead/aegis256/aegis256_common.h:191:5
	jbe	.LBB1_3
.Ltmp97:
.LBB1_4:                                # %.preheader74
	#DEBUG_VALUE: decrypt_detached:m <- $r13
	#DEBUG_VALUE: decrypt_detached:c <- [DW_OP_plus_uconst 96] [$rsp+0]
	#DEBUG_VALUE: decrypt_detached:clen <- [DW_OP_plus_uconst 120] [$rsp+0]
	#DEBUG_VALUE: decrypt_detached:mac <- [DW_OP_plus_uconst 112] [$rsp+0]
	#DEBUG_VALUE: decrypt_detached:maclen <- [DW_OP_plus_uconst 128] [$rsp+0]
	#DEBUG_VALUE: decrypt_detached:ad <- [DW_OP_plus_uconst 104] [$rsp+0]
	#DEBUG_VALUE: decrypt_detached:adlen <- [DW_OP_plus_uconst 272] [$rsp+0]
	#DEBUG_VALUE: decrypt_detached:npub <- [DW_OP_plus_uconst 280] [$rsp+0]
	#DEBUG_VALUE: decrypt_detached:k <- [DW_OP_plus_uconst 288] [$rsp+0]
	#DEBUG_VALUE: decrypt_detached:i <- $rbx
	.loc	6 0 5                           # crypto_aead/aegis256/aegis256_common.h:0:5
	movq	%r13, 136(%rsp)                 # 8-byte Spill
.Ltmp98:
	#DEBUG_VALUE: decrypt_detached:m <- [DW_OP_plus_uconst 136] [$rsp+0]
	.loc	6 194 14 is_stmt 1              # crypto_aead/aegis256/aegis256_common.h:194:14
	movq	%rbx, %rax
	orq	$16, %rax
	.loc	6 194 19 is_stmt 0              # crypto_aead/aegis256/aegis256_common.h:194:19
	cmpq	%rbp, %rax
	movq	%r15, %rsi
.Ltmp99:
	.loc	6 194 5                         # crypto_aead/aegis256/aegis256_common.h:194:5
	jbe	.LBB1_6
.Ltmp100:
# %bb.5:
	#DEBUG_VALUE: decrypt_detached:m <- [DW_OP_plus_uconst 136] [$rsp+0]
	#DEBUG_VALUE: decrypt_detached:c <- [DW_OP_plus_uconst 96] [$rsp+0]
	#DEBUG_VALUE: decrypt_detached:clen <- [DW_OP_plus_uconst 120] [$rsp+0]
	#DEBUG_VALUE: decrypt_detached:mac <- [DW_OP_plus_uconst 112] [$rsp+0]
	#DEBUG_VALUE: decrypt_detached:maclen <- [DW_OP_plus_uconst 128] [$rsp+0]
	#DEBUG_VALUE: decrypt_detached:ad <- [DW_OP_plus_uconst 104] [$rsp+0]
	#DEBUG_VALUE: decrypt_detached:adlen <- [DW_OP_plus_uconst 272] [$rsp+0]
	#DEBUG_VALUE: decrypt_detached:npub <- [DW_OP_plus_uconst 280] [$rsp+0]
	#DEBUG_VALUE: decrypt_detached:k <- [DW_OP_plus_uconst 288] [$rsp+0]
	#DEBUG_VALUE: decrypt_detached:i <- $rbx
	.loc	6 0 5                           # crypto_aead/aegis256/aegis256_common.h:0:5
	movq	%rbx, %rax
	.loc	6 194 5                         # crypto_aead/aegis256/aegis256_common.h:194:5
	jmp	.LBB1_7
.Ltmp101:
	.loc	6 0 5                           # :0:5
.Ltmp102:
	.p2align	4
.LBB1_6:                                # =>This Inner Loop Header: Depth=1
	#DEBUG_VALUE: decrypt_detached:m <- [DW_OP_plus_uconst 136] [$rsp+0]
	#DEBUG_VALUE: decrypt_detached:c <- [DW_OP_plus_uconst 96] [$rsp+0]
	#DEBUG_VALUE: decrypt_detached:clen <- [DW_OP_plus_uconst 120] [$rsp+0]
	#DEBUG_VALUE: decrypt_detached:mac <- [DW_OP_plus_uconst 112] [$rsp+0]
	#DEBUG_VALUE: decrypt_detached:maclen <- [DW_OP_plus_uconst 128] [$rsp+0]
	#DEBUG_VALUE: decrypt_detached:ad <- [DW_OP_plus_uconst 104] [$rsp+0]
	#DEBUG_VALUE: decrypt_detached:adlen <- [DW_OP_plus_uconst 272] [$rsp+0]
	#DEBUG_VALUE: decrypt_detached:npub <- [DW_OP_plus_uconst 280] [$rsp+0]
	#DEBUG_VALUE: decrypt_detached:k <- [DW_OP_plus_uconst 288] [$rsp+0]
	#DEBUG_VALUE: decrypt_detached:i <- $rbx
	#DEBUG_VALUE: aegis256_absorb:src <- [DW_OP_LLVM_arg 0, DW_OP_LLVM_arg 1, DW_OP_minus, DW_OP_consts 16, DW_OP_div, DW_OP_consts 16, DW_OP_mul, DW_OP_LLVM_arg 1, DW_OP_LLVM_arg 2, DW_OP_plus, DW_OP_plus, DW_OP_stack_value] undef, undef, undef
	#DEBUG_VALUE: aegis256_absorb:state <- $rsp
	#DEBUG_VALUE: softaes_block_load:in <- [DW_OP_LLVM_arg 0, DW_OP_LLVM_arg 1, DW_OP_minus, DW_OP_consts 16, DW_OP_div, DW_OP_consts 16, DW_OP_mul, DW_OP_LLVM_arg 1, DW_OP_LLVM_arg 2, DW_OP_plus, DW_OP_plus, DW_OP_stack_value] undef, undef, undef
	#DEBUG_VALUE: load32_le:w <- undef
	#DEBUG_VALUE: load32_le:src <- [DW_OP_LLVM_arg 0, DW_OP_LLVM_arg 1, DW_OP_minus, DW_OP_consts 16, DW_OP_div, DW_OP_consts 16, DW_OP_mul, DW_OP_LLVM_arg 1, DW_OP_LLVM_arg 2, DW_OP_plus, DW_OP_plus, DW_OP_stack_value] undef, undef, undef
	#DEBUG_VALUE: memcpy:__dest <- undef
	#DEBUG_VALUE: memcpy:__src <- [DW_OP_LLVM_arg 0, DW_OP_LLVM_arg 1, DW_OP_minus, DW_OP_consts 16, DW_OP_div, DW_OP_consts 16, DW_OP_mul, DW_OP_LLVM_arg 1, DW_OP_LLVM_arg 2, DW_OP_plus, DW_OP_plus, DW_OP_stack_value] undef, undef, undef
	#DEBUG_VALUE: memcpy:__len <- 4
	movq	%rbp, %r15
.Ltmp103:
	.loc	7 29 10 is_stmt 1               # /usr/include/x86_64-linux-gnu/bits/string_fortified.h:29:10 @[ ./include/sodium/private/common.h:106:5 @[ ./include/sodium/private/softaes.h:20:32 @[ crypto_aead/aegis256/aegis256_common.h:70:11 @[ crypto_aead/aegis256/aegis256_common.h:195:9 ] ] ] ]
	movq	(%rsi,%rbx), %rbp
.Ltmp104:
	#DEBUG_VALUE: softaes_block_load:out <- [DW_OP_LLVM_fragment 0 32] undef
	#DEBUG_VALUE: load32_le:w <- undef
	#DEBUG_VALUE: memcpy:__dest <- undef
	#DEBUG_VALUE: memcpy:__len <- 4
	#DEBUG_VALUE: softaes_block_load:out <- [DW_OP_LLVM_fragment 32 32] undef
	#DEBUG_VALUE: load32_le:w <- undef
	#DEBUG_VALUE: load32_le:src <- [DW_OP_LLVM_arg 0, DW_OP_LLVM_arg 1, DW_OP_minus, DW_OP_consts 16, DW_OP_div, DW_OP_consts 16, DW_OP_mul, DW_OP_consts 8, DW_OP_LLVM_arg 1, DW_OP_plus, DW_OP_LLVM_arg 2, DW_OP_plus, DW_OP_plus, DW_OP_stack_value] undef, undef, undef
	#DEBUG_VALUE: memcpy:__dest <- undef
	#DEBUG_VALUE: memcpy:__src <- [DW_OP_LLVM_arg 0, DW_OP_LLVM_arg 1, DW_OP_minus, DW_OP_consts 16, DW_OP_div, DW_OP_consts 16, DW_OP_mul, DW_OP_consts 8, DW_OP_LLVM_arg 1, DW_OP_plus, DW_OP_LLVM_arg 2, DW_OP_plus, DW_OP_plus, DW_OP_stack_value] undef, undef, undef
	#DEBUG_VALUE: memcpy:__len <- 4
	.loc	7 29 10 is_stmt 0               # /usr/include/x86_64-linux-gnu/bits/string_fortified.h:29:10 @[ ./include/sodium/private/common.h:106:5 @[ ./include/sodium/private/softaes.h:20:70 @[ crypto_aead/aegis256/aegis256_common.h:70:11 @[ crypto_aead/aegis256/aegis256_common.h:195:9 ] ] ] ]
	movq	8(%rsi,%rbx), %r13
.Ltmp105:
	#DEBUG_VALUE: aegis256_absorb:msg <- [DW_OP_LLVM_fragment 64 64] $r13
	#DEBUG_VALUE: aegis256_update:d <- [DW_OP_LLVM_fragment 64 64] $r13
	#DEBUG_VALUE: softaes_block_load:out <- [DW_OP_LLVM_fragment 64 32] undef
	#DEBUG_VALUE: load32_le:w <- undef
	#DEBUG_VALUE: memcpy:__dest <- undef
	#DEBUG_VALUE: memcpy:__len <- 4
	#DEBUG_VALUE: softaes_block_load:out <- [DW_OP_LLVM_fragment 96 32] undef
	#DEBUG_VALUE: aegis256_absorb:msg <- [DW_OP_LLVM_fragment 0 64] $rbp
	#DEBUG_VALUE: aegis256_update:d <- [DW_OP_LLVM_fragment 0 64] $rbp
	#DEBUG_VALUE: aegis256_update:state <- $rsp
	.loc	5 38 11 is_stmt 1               # crypto_aead/aegis256/aegis256_soft.c:38:11 @[ crypto_aead/aegis256/aegis256_common.h:71:5 @[ crypto_aead/aegis256/aegis256_common.h:195:9 ] ]
	movq	80(%rsp), %r12
	movq	88(%rsp), %r14
.Ltmp106:
	#DEBUG_VALUE: aegis256_update:tmp <- [DW_OP_LLVM_fragment 64 64] $r14
	#DEBUG_VALUE: aegis256_update:tmp <- [DW_OP_LLVM_fragment 0 64] $r12
	.loc	5 39 16                         # crypto_aead/aegis256/aegis256_soft.c:39:16 @[ crypto_aead/aegis256/aegis256_common.h:71:5 @[ crypto_aead/aegis256/aegis256_common.h:195:9 ] ]
	movq	64(%rsp), %rdi
	movq	72(%rsp), %rsi
	movq	%r12, %rdx
	movq	%r14, %rcx
	callq	softaes_block_encrypt@PLT
.Ltmp107:
	movq	%rax, 80(%rsp)
	movq	%rdx, 88(%rsp)
	.loc	5 40 16                         # crypto_aead/aegis256/aegis256_soft.c:40:16 @[ crypto_aead/aegis256/aegis256_common.h:71:5 @[ crypto_aead/aegis256/aegis256_common.h:195:9 ] ]
	movq	48(%rsp), %rdi
	movq	56(%rsp), %rsi
	movq	64(%rsp), %rdx
	movq	72(%rsp), %rcx
	callq	softaes_block_encrypt@PLT
.Ltmp108:
	movq	%rax, 64(%rsp)
	movq	%rdx, 72(%rsp)
	.loc	5 41 16                         # crypto_aead/aegis256/aegis256_soft.c:41:16 @[ crypto_aead/aegis256/aegis256_common.h:71:5 @[ crypto_aead/aegis256/aegis256_common.h:195:9 ] ]
	movq	32(%rsp), %rdi
	movq	40(%rsp), %rsi
	movq	48(%rsp), %rdx
	movq	56(%rsp), %rcx
	callq	softaes_block_encrypt@PLT
.Ltmp109:
	movq	%rax, 48(%rsp)
	movq	%rdx, 56(%rsp)
	.loc	5 42 16                         # crypto_aead/aegis256/aegis256_soft.c:42:16 @[ crypto_aead/aegis256/aegis256_common.h:71:5 @[ crypto_aead/aegis256/aegis256_common.h:195:9 ] ]
	movq	16(%rsp), %rdi
	movq	24(%rsp), %rsi
	movq	32(%rsp), %rdx
	movq	40(%rsp), %rcx
	callq	softaes_block_encrypt@PLT
.Ltmp110:
	movq	%rax, 32(%rsp)
	movq	%rdx, 40(%rsp)
	.loc	5 43 16                         # crypto_aead/aegis256/aegis256_soft.c:43:16 @[ crypto_aead/aegis256/aegis256_common.h:71:5 @[ crypto_aead/aegis256/aegis256_common.h:195:9 ] ]
	movq	(%rsp), %rdi
	movq	8(%rsp), %rsi
	movq	16(%rsp), %rdx
	movq	24(%rsp), %rcx
	callq	softaes_block_encrypt@PLT
.Ltmp111:
	movq	%rax, 16(%rsp)
	movq	%rdx, 24(%rsp)
	.loc	5 44 35                         # crypto_aead/aegis256/aegis256_soft.c:44:35 @[ crypto_aead/aegis256/aegis256_common.h:71:5 @[ crypto_aead/aegis256/aegis256_common.h:195:9 ] ]
	movq	(%rsp), %rdx
	movq	8(%rsp), %rcx
	movq	%r12, %rdi
	movq	%r14, %rsi
	callq	softaes_block_encrypt@PLT
.Ltmp112:
	.loc	5 0 35 is_stmt 0                # crypto_aead/aegis256/aegis256_soft.c:0:35
	movq	104(%rsp), %rsi                 # 8-byte Reload
.Ltmp113:
	#DEBUG_VALUE: softaes_block_xor:a <- [DW_OP_LLVM_convert 64 7, DW_OP_LLVM_convert 32 7, DW_OP_stack_value, DW_OP_LLVM_fragment 0 32] $rax
	#DEBUG_VALUE: softaes_block_xor:a <- [DW_OP_constu 32, DW_OP_shr, DW_OP_LLVM_convert 64 7, DW_OP_LLVM_convert 32 7, DW_OP_stack_value, DW_OP_LLVM_fragment 32 32] $rax
	#DEBUG_VALUE: softaes_block_xor:a <- [DW_OP_LLVM_convert 64 7, DW_OP_LLVM_convert 32 7, DW_OP_stack_value, DW_OP_LLVM_fragment 64 32] $rdx
	#DEBUG_VALUE: softaes_block_xor:a <- [DW_OP_constu 32, DW_OP_shr, DW_OP_LLVM_convert 64 7, DW_OP_LLVM_convert 32 7, DW_OP_stack_value, DW_OP_LLVM_fragment 96 32] $rdx
	#DEBUG_VALUE: softaes_block_xor:b <- [DW_OP_LLVM_convert 64 7, DW_OP_LLVM_convert 32 7, DW_OP_stack_value, DW_OP_LLVM_fragment 0 32] $rbp
	#DEBUG_VALUE: softaes_block_xor:b <- [DW_OP_constu 32, DW_OP_shr, DW_OP_LLVM_convert 64 7, DW_OP_LLVM_convert 32 7, DW_OP_stack_value, DW_OP_LLVM_fragment 32 32] $rbp
	#DEBUG_VALUE: softaes_block_xor:b <- [DW_OP_LLVM_convert 64 7, DW_OP_LLVM_convert 32 7, DW_OP_stack_value, DW_OP_LLVM_fragment 64 32] $r13
	#DEBUG_VALUE: softaes_block_xor:b <- [DW_OP_constu 32, DW_OP_shr, DW_OP_LLVM_convert 64 7, DW_OP_LLVM_convert 32 7, DW_OP_stack_value, DW_OP_LLVM_fragment 96 32] $r13
	.loc	8 45 37 is_stmt 1               # ./include/sodium/private/softaes.h:45:37 @[ crypto_aead/aegis256/aegis256_soft.c:44:16 @[ crypto_aead/aegis256/aegis256_common.h:71:5 @[ crypto_aead/aegis256/aegis256_common.h:195:9 ] ] ]
	xorq	%rbp, %rax
.Ltmp114:
	#DEBUG_VALUE: softaes_block_xor:out <- [DW_OP_LLVM_convert 64 7, DW_OP_LLVM_convert 32 7, DW_OP_stack_value, DW_OP_LLVM_fragment 0 32] $rax
	#DEBUG_VALUE: softaes_block_xor:out <- [DW_OP_constu 32, DW_OP_shr, DW_OP_LLVM_convert 64 7, DW_OP_LLVM_convert 32 7, DW_OP_stack_value, DW_OP_LLVM_fragment 32 32] $rax
	.loc	8 0 37 is_stmt 0                # ./include/sodium/private/softaes.h:0:37
	movq	%r15, %rbp
.Ltmp115:
	.loc	8 45 63                         # ./include/sodium/private/softaes.h:45:63 @[ crypto_aead/aegis256/aegis256_soft.c:44:16 @[ crypto_aead/aegis256/aegis256_common.h:71:5 @[ crypto_aead/aegis256/aegis256_common.h:195:9 ] ] ]
	xorq	%r13, %rdx
.Ltmp116:
	#DEBUG_VALUE: softaes_block_xor:out <- [DW_OP_LLVM_convert 64 7, DW_OP_LLVM_convert 32 7, DW_OP_stack_value, DW_OP_LLVM_fragment 64 32] $rdx
	#DEBUG_VALUE: softaes_block_xor:out <- [DW_OP_constu 32, DW_OP_shr, DW_OP_LLVM_convert 64 7, DW_OP_LLVM_convert 32 7, DW_OP_stack_value, DW_OP_LLVM_fragment 96 32] $rdx
	.loc	5 44 16 is_stmt 1               # crypto_aead/aegis256/aegis256_soft.c:44:16 @[ crypto_aead/aegis256/aegis256_common.h:71:5 @[ crypto_aead/aegis256/aegis256_common.h:195:9 ] ]
	movq	%rax, (%rsp)
	movq	%rdx, 8(%rsp)
.Ltmp117:
	#DEBUG_VALUE: decrypt_detached:i <- [DW_OP_plus_uconst 16, DW_OP_stack_value] $rbx
	.loc	6 194 19                        # crypto_aead/aegis256/aegis256_common.h:194:19
	leaq	16(%rbx), %rax
.Ltmp118:
	addq	$32, %rbx
.Ltmp119:
	cmpq	%r15, %rbx
	movq	%rax, %rbx
.Ltmp120:
	.loc	6 194 5 is_stmt 0               # crypto_aead/aegis256/aegis256_common.h:194:5
	jbe	.LBB1_6
.Ltmp121:
.LBB1_7:                                # %._crit_edge
	#DEBUG_VALUE: decrypt_detached:m <- [DW_OP_plus_uconst 136] [$rsp+0]
	#DEBUG_VALUE: decrypt_detached:c <- [DW_OP_plus_uconst 96] [$rsp+0]
	#DEBUG_VALUE: decrypt_detached:clen <- [DW_OP_plus_uconst 120] [$rsp+0]
	#DEBUG_VALUE: decrypt_detached:mac <- [DW_OP_plus_uconst 112] [$rsp+0]
	#DEBUG_VALUE: decrypt_detached:maclen <- [DW_OP_plus_uconst 128] [$rsp+0]
	#DEBUG_VALUE: decrypt_detached:ad <- [DW_OP_plus_uconst 104] [$rsp+0]
	#DEBUG_VALUE: decrypt_detached:adlen <- [DW_OP_plus_uconst 272] [$rsp+0]
	#DEBUG_VALUE: decrypt_detached:npub <- [DW_OP_plus_uconst 280] [$rsp+0]
	#DEBUG_VALUE: decrypt_detached:k <- [DW_OP_plus_uconst 288] [$rsp+0]
	.loc	6 197 15 is_stmt 1              # crypto_aead/aegis256/aegis256_common.h:197:15
	movq	%rbp, %rdx
	andq	$15, %rdx
	je	.LBB1_9
.Ltmp122:
# %bb.8:
	#DEBUG_VALUE: decrypt_detached:m <- [DW_OP_plus_uconst 136] [$rsp+0]
	#DEBUG_VALUE: decrypt_detached:c <- [DW_OP_plus_uconst 96] [$rsp+0]
	#DEBUG_VALUE: decrypt_detached:clen <- [DW_OP_plus_uconst 120] [$rsp+0]
	#DEBUG_VALUE: decrypt_detached:mac <- [DW_OP_plus_uconst 112] [$rsp+0]
	#DEBUG_VALUE: decrypt_detached:maclen <- [DW_OP_plus_uconst 128] [$rsp+0]
	#DEBUG_VALUE: decrypt_detached:ad <- [DW_OP_plus_uconst 104] [$rsp+0]
	#DEBUG_VALUE: decrypt_detached:adlen <- [DW_OP_plus_uconst 272] [$rsp+0]
	#DEBUG_VALUE: decrypt_detached:npub <- [DW_OP_plus_uconst 280] [$rsp+0]
	#DEBUG_VALUE: decrypt_detached:k <- [DW_OP_plus_uconst 288] [$rsp+0]
	#DEBUG_VALUE: memset:__dest <- [DW_OP_plus_uconst 192, DW_OP_stack_value] $rsp
	#DEBUG_VALUE: memset:__ch <- 0
	#DEBUG_VALUE: memset:__len <- 16
	.loc	7 59 10                         # /usr/include/x86_64-linux-gnu/bits/string_fortified.h:59:10 @[ crypto_aead/aegis256/aegis256_common.h:198:9 ]
	xorps	%xmm0, %xmm0
	movaps	%xmm0, 192(%rsp)
.Ltmp123:
	.loc	6 199 24                        # crypto_aead/aegis256/aegis256_common.h:199:24
	addq	%rax, %rsi
.Ltmp124:
	#DEBUG_VALUE: memcpy:__src <- $rsi
	#DEBUG_VALUE: memcpy:__dest <- [DW_OP_plus_uconst 192, DW_OP_stack_value] $rsp
	#DEBUG_VALUE: memcpy:__len <- $rdx
	.loc	6 0 24 is_stmt 0                # crypto_aead/aegis256/aegis256_common.h:0:24
	leaq	192(%rsp), %rdi
.Ltmp125:
	.loc	7 29 10 is_stmt 1               # /usr/include/x86_64-linux-gnu/bits/string_fortified.h:29:10 @[ crypto_aead/aegis256/aegis256_common.h:199:9 ]
	movl	$16, %ecx
	callq	__memcpy_chk@PLT
.Ltmp126:
	#DEBUG_VALUE: aegis256_absorb:src <- [DW_OP_plus_uconst 192, DW_OP_stack_value] $rsp
	#DEBUG_VALUE: aegis256_absorb:state <- $rsp
	#DEBUG_VALUE: softaes_block_load:in <- [DW_OP_plus_uconst 192, DW_OP_stack_value] $rsp
	#DEBUG_VALUE: load32_le:w <- undef
	#DEBUG_VALUE: load32_le:src <- [DW_OP_plus_uconst 192, DW_OP_stack_value] $rsp
	#DEBUG_VALUE: memcpy:__dest <- undef
	#DEBUG_VALUE: memcpy:__src <- [DW_OP_plus_uconst 192, DW_OP_stack_value] $rsp
	#DEBUG_VALUE: memcpy:__len <- 4
	.loc	7 29 10 is_stmt 0               # /usr/include/x86_64-linux-gnu/bits/string_fortified.h:29:10 @[ ./include/sodium/private/common.h:106:5 @[ ./include/sodium/private/softaes.h:20:32 @[ crypto_aead/aegis256/aegis256_common.h:70:11 @[ crypto_aead/aegis256/aegis256_common.h:200:9 ] ] ] ]
	movq	192(%rsp), %r12
.Ltmp127:
	#DEBUG_VALUE: softaes_block_load:out <- [DW_OP_LLVM_fragment 0 32] undef
	#DEBUG_VALUE: load32_le:w <- undef
	#DEBUG_VALUE: load32_le:src <- [DW_OP_plus_uconst 192, DW_OP_plus_uconst 4, DW_OP_stack_value] $rsp
	#DEBUG_VALUE: memcpy:__dest <- undef
	#DEBUG_VALUE: memcpy:__src <- [DW_OP_plus_uconst 192, DW_OP_plus_uconst 4, DW_OP_stack_value] $rsp
	#DEBUG_VALUE: memcpy:__len <- 4
	#DEBUG_VALUE: softaes_block_load:out <- [DW_OP_LLVM_fragment 32 32] undef
	#DEBUG_VALUE: load32_le:w <- undef
	#DEBUG_VALUE: memcpy:__dest <- undef
	#DEBUG_VALUE: memcpy:__len <- 4
	#DEBUG_VALUE: load32_le:src <- undef
	#DEBUG_VALUE: memcpy:__src <- undef
	.loc	7 29 10                         # /usr/include/x86_64-linux-gnu/bits/string_fortified.h:29:10 @[ ./include/sodium/private/common.h:106:5 @[ ./include/sodium/private/softaes.h:20:70 @[ crypto_aead/aegis256/aegis256_common.h:70:11 @[ crypto_aead/aegis256/aegis256_common.h:200:9 ] ] ] ]
	movq	200(%rsp), %rbx
.Ltmp128:
	#DEBUG_VALUE: aegis256_absorb:msg <- [DW_OP_LLVM_fragment 64 64] $rbx
	#DEBUG_VALUE: aegis256_update:d <- [DW_OP_LLVM_fragment 64 64] $rbx
	#DEBUG_VALUE: softaes_block_load:out <- [DW_OP_LLVM_fragment 64 32] undef
	#DEBUG_VALUE: load32_le:w <- undef
	#DEBUG_VALUE: load32_le:src <- [DW_OP_plus_uconst 192, DW_OP_plus_uconst 12, DW_OP_stack_value] $rsp
	#DEBUG_VALUE: memcpy:__dest <- undef
	#DEBUG_VALUE: memcpy:__src <- [DW_OP_plus_uconst 192, DW_OP_plus_uconst 12, DW_OP_stack_value] $rsp
	#DEBUG_VALUE: memcpy:__len <- 4
	#DEBUG_VALUE: softaes_block_load:out <- [DW_OP_LLVM_fragment 96 32] undef
	#DEBUG_VALUE: aegis256_update:state <- $rsp
	#DEBUG_VALUE: aegis256_absorb:msg <- [DW_OP_LLVM_fragment 0 64] $r12
	#DEBUG_VALUE: aegis256_update:d <- [DW_OP_LLVM_fragment 0 64] $r12
	.loc	5 38 11 is_stmt 1               # crypto_aead/aegis256/aegis256_soft.c:38:11 @[ crypto_aead/aegis256/aegis256_common.h:71:5 @[ crypto_aead/aegis256/aegis256_common.h:200:9 ] ]
	movq	80(%rsp), %r14
	movq	88(%rsp), %r15
.Ltmp129:
	#DEBUG_VALUE: aegis256_update:tmp <- [DW_OP_LLVM_fragment 64 64] $r15
	#DEBUG_VALUE: aegis256_update:tmp <- [DW_OP_LLVM_fragment 0 64] $r14
	.loc	5 39 16                         # crypto_aead/aegis256/aegis256_soft.c:39:16 @[ crypto_aead/aegis256/aegis256_common.h:71:5 @[ crypto_aead/aegis256/aegis256_common.h:200:9 ] ]
	movq	64(%rsp), %rdi
	movq	72(%rsp), %rsi
	movq	%r14, %rdx
	movq	%r15, %rcx
	callq	softaes_block_encrypt@PLT
.Ltmp130:
	movq	%rax, 80(%rsp)
	movq	%rdx, 88(%rsp)
	.loc	5 40 16                         # crypto_aead/aegis256/aegis256_soft.c:40:16 @[ crypto_aead/aegis256/aegis256_common.h:71:5 @[ crypto_aead/aegis256/aegis256_common.h:200:9 ] ]
	movq	48(%rsp), %rdi
	movq	56(%rsp), %rsi
	movq	64(%rsp), %rdx
	movq	72(%rsp), %rcx
	callq	softaes_block_encrypt@PLT
.Ltmp131:
	movq	%rax, 64(%rsp)
	movq	%rdx, 72(%rsp)
	.loc	5 41 16                         # crypto_aead/aegis256/aegis256_soft.c:41:16 @[ crypto_aead/aegis256/aegis256_common.h:71:5 @[ crypto_aead/aegis256/aegis256_common.h:200:9 ] ]
	movq	32(%rsp), %rdi
	movq	40(%rsp), %rsi
	movq	48(%rsp), %rdx
	movq	56(%rsp), %rcx
	callq	softaes_block_encrypt@PLT
.Ltmp132:
	movq	%rax, 48(%rsp)
	movq	%rdx, 56(%rsp)
	.loc	5 42 16                         # crypto_aead/aegis256/aegis256_soft.c:42:16 @[ crypto_aead/aegis256/aegis256_common.h:71:5 @[ crypto_aead/aegis256/aegis256_common.h:200:9 ] ]
	movq	16(%rsp), %rdi
	movq	24(%rsp), %rsi
	movq	32(%rsp), %rdx
	movq	40(%rsp), %rcx
	callq	softaes_block_encrypt@PLT
.Ltmp133:
	movq	%rax, 32(%rsp)
	movq	%rdx, 40(%rsp)
	.loc	5 43 16                         # crypto_aead/aegis256/aegis256_soft.c:43:16 @[ crypto_aead/aegis256/aegis256_common.h:71:5 @[ crypto_aead/aegis256/aegis256_common.h:200:9 ] ]
	movq	(%rsp), %rdi
	movq	8(%rsp), %rsi
	movq	16(%rsp), %rdx
	movq	24(%rsp), %rcx
	callq	softaes_block_encrypt@PLT
.Ltmp134:
	movq	%rax, 16(%rsp)
	movq	%rdx, 24(%rsp)
	.loc	5 44 35                         # crypto_aead/aegis256/aegis256_soft.c:44:35 @[ crypto_aead/aegis256/aegis256_common.h:71:5 @[ crypto_aead/aegis256/aegis256_common.h:200:9 ] ]
	movq	(%rsp), %rdx
	movq	8(%rsp), %rcx
	movq	%r14, %rdi
	movq	%r15, %rsi
	callq	softaes_block_encrypt@PLT
.Ltmp135:
	#DEBUG_VALUE: softaes_block_xor:a <- [DW_OP_LLVM_convert 64 7, DW_OP_LLVM_convert 32 7, DW_OP_stack_value, DW_OP_LLVM_fragment 0 32] $rax
	#DEBUG_VALUE: softaes_block_xor:a <- [DW_OP_constu 32, DW_OP_shr, DW_OP_LLVM_convert 64 7, DW_OP_LLVM_convert 32 7, DW_OP_stack_value, DW_OP_LLVM_fragment 32 32] $rax
	#DEBUG_VALUE: softaes_block_xor:a <- [DW_OP_LLVM_convert 64 7, DW_OP_LLVM_convert 32 7, DW_OP_stack_value, DW_OP_LLVM_fragment 64 32] $rdx
	#DEBUG_VALUE: softaes_block_xor:a <- [DW_OP_constu 32, DW_OP_shr, DW_OP_LLVM_convert 64 7, DW_OP_LLVM_convert 32 7, DW_OP_stack_value, DW_OP_LLVM_fragment 96 32] $rdx
	#DEBUG_VALUE: softaes_block_xor:b <- [DW_OP_LLVM_convert 64 7, DW_OP_LLVM_convert 32 7, DW_OP_stack_value, DW_OP_LLVM_fragment 64 32] $rbx
	#DEBUG_VALUE: softaes_block_xor:b <- [DW_OP_constu 32, DW_OP_shr, DW_OP_LLVM_convert 64 7, DW_OP_LLVM_convert 32 7, DW_OP_stack_value, DW_OP_LLVM_fragment 96 32] $rbx
	#DEBUG_VALUE: softaes_block_xor:b <- [DW_OP_LLVM_convert 64 7, DW_OP_LLVM_convert 32 7, DW_OP_stack_value, DW_OP_LLVM_fragment 0 32] $r12
	#DEBUG_VALUE: softaes_block_xor:b <- [DW_OP_constu 32, DW_OP_shr, DW_OP_LLVM_convert 64 7, DW_OP_LLVM_convert 32 7, DW_OP_stack_value, DW_OP_LLVM_fragment 32 32] $r12
	.loc	8 45 37                         # ./include/sodium/private/softaes.h:45:37 @[ crypto_aead/aegis256/aegis256_soft.c:44:16 @[ crypto_aead/aegis256/aegis256_common.h:71:5 @[ crypto_aead/aegis256/aegis256_common.h:200:9 ] ] ]
	xorq	%r12, %rax
.Ltmp136:
	#DEBUG_VALUE: softaes_block_xor:out <- [DW_OP_LLVM_convert 64 7, DW_OP_LLVM_convert 32 7, DW_OP_stack_value, DW_OP_LLVM_fragment 0 32] $rax
	#DEBUG_VALUE: softaes_block_xor:out <- [DW_OP_constu 32, DW_OP_shr, DW_OP_LLVM_convert 64 7, DW_OP_LLVM_convert 32 7, DW_OP_stack_value, DW_OP_LLVM_fragment 32 32] $rax
	.loc	8 45 63 is_stmt 0               # ./include/sodium/private/softaes.h:45:63 @[ crypto_aead/aegis256/aegis256_soft.c:44:16 @[ crypto_aead/aegis256/aegis256_common.h:71:5 @[ crypto_aead/aegis256/aegis256_common.h:200:9 ] ] ]
	xorq	%rbx, %rdx
.Ltmp137:
	#DEBUG_VALUE: softaes_block_xor:out <- [DW_OP_LLVM_convert 64 7, DW_OP_LLVM_convert 32 7, DW_OP_stack_value, DW_OP_LLVM_fragment 64 32] $rdx
	#DEBUG_VALUE: softaes_block_xor:out <- [DW_OP_constu 32, DW_OP_shr, DW_OP_LLVM_convert 64 7, DW_OP_LLVM_convert 32 7, DW_OP_stack_value, DW_OP_LLVM_fragment 96 32] $rdx
	.loc	5 44 16 is_stmt 1               # crypto_aead/aegis256/aegis256_soft.c:44:16 @[ crypto_aead/aegis256/aegis256_common.h:71:5 @[ crypto_aead/aegis256/aegis256_common.h:200:9 ] ]
	movq	%rax, (%rsp)
	movq	%rdx, 8(%rsp)
.Ltmp138:
.LBB1_9:
	#DEBUG_VALUE: decrypt_detached:m <- [DW_OP_plus_uconst 136] [$rsp+0]
	#DEBUG_VALUE: decrypt_detached:c <- [DW_OP_plus_uconst 96] [$rsp+0]
	#DEBUG_VALUE: decrypt_detached:clen <- [DW_OP_plus_uconst 120] [$rsp+0]
	#DEBUG_VALUE: decrypt_detached:mac <- [DW_OP_plus_uconst 112] [$rsp+0]
	#DEBUG_VALUE: decrypt_detached:maclen <- [DW_OP_plus_uconst 128] [$rsp+0]
	#DEBUG_VALUE: decrypt_detached:ad <- [DW_OP_plus_uconst 104] [$rsp+0]
	#DEBUG_VALUE: decrypt_detached:adlen <- [DW_OP_plus_uconst 272] [$rsp+0]
	#DEBUG_VALUE: decrypt_detached:npub <- [DW_OP_plus_uconst 280] [$rsp+0]
	#DEBUG_VALUE: decrypt_detached:k <- [DW_OP_plus_uconst 288] [$rsp+0]
	.loc	5 0 16 is_stmt 0                # crypto_aead/aegis256/aegis256_soft.c:0:16
	movq	136(%rsp), %r13                 # 8-byte Reload
.Ltmp139:
	.loc	6 202 11 is_stmt 1              # crypto_aead/aegis256/aegis256_common.h:202:11
	testq	%r13, %r13
.Ltmp140:
	#DEBUG_VALUE: decrypt_detached:i <- 0
	je	.LBB1_12
.Ltmp141:
# %bb.10:                               # %.preheader
	#DEBUG_VALUE: decrypt_detached:m <- [DW_OP_plus_uconst 136] [$rsp+0]
	#DEBUG_VALUE: decrypt_detached:c <- [DW_OP_plus_uconst 96] [$rsp+0]
	#DEBUG_VALUE: decrypt_detached:clen <- [DW_OP_plus_uconst 120] [$rsp+0]
	#DEBUG_VALUE: decrypt_detached:mac <- [DW_OP_plus_uconst 112] [$rsp+0]
	#DEBUG_VALUE: decrypt_detached:maclen <- [DW_OP_plus_uconst 128] [$rsp+0]
	#DEBUG_VALUE: decrypt_detached:ad <- [DW_OP_plus_uconst 104] [$rsp+0]
	#DEBUG_VALUE: decrypt_detached:adlen <- [DW_OP_plus_uconst 272] [$rsp+0]
	#DEBUG_VALUE: decrypt_detached:npub <- [DW_OP_plus_uconst 280] [$rsp+0]
	#DEBUG_VALUE: decrypt_detached:k <- [DW_OP_plus_uconst 288] [$rsp+0]
	#DEBUG_VALUE: decrypt_detached:i <- 0
	.loc	6 0 11 is_stmt 0                # crypto_aead/aegis256/aegis256_common.h:0:11
	movq	120(%rsp), %r12                 # 8-byte Reload
	cmpq	$16, %r12
.Ltmp142:
	.loc	6 203 9 is_stmt 1               # crypto_aead/aegis256/aegis256_common.h:203:9
	jb	.LBB1_13
.Ltmp143:
# %bb.14:                               # %.lr.ph87.preheader
	#DEBUG_VALUE: decrypt_detached:m <- [DW_OP_plus_uconst 136] [$rsp+0]
	#DEBUG_VALUE: decrypt_detached:c <- [DW_OP_plus_uconst 96] [$rsp+0]
	#DEBUG_VALUE: decrypt_detached:clen <- [DW_OP_plus_uconst 120] [$rsp+0]
	#DEBUG_VALUE: decrypt_detached:mac <- [DW_OP_plus_uconst 112] [$rsp+0]
	#DEBUG_VALUE: decrypt_detached:maclen <- [DW_OP_plus_uconst 128] [$rsp+0]
	#DEBUG_VALUE: decrypt_detached:ad <- [DW_OP_plus_uconst 104] [$rsp+0]
	#DEBUG_VALUE: decrypt_detached:adlen <- [DW_OP_plus_uconst 272] [$rsp+0]
	#DEBUG_VALUE: decrypt_detached:npub <- [DW_OP_plus_uconst 280] [$rsp+0]
	#DEBUG_VALUE: decrypt_detached:k <- [DW_OP_plus_uconst 288] [$rsp+0]
	#DEBUG_VALUE: decrypt_detached:i <- 0
	.loc	6 0 9 is_stmt 0                 # crypto_aead/aegis256/aegis256_common.h:0:9
	xorl	%ebx, %ebx
	movq	%rsp, %r14
	movq	96(%rsp), %r15                  # 8-byte Reload
.Ltmp144:
	.p2align	4
.LBB1_15:                               # %.lr.ph87
                                        # =>This Inner Loop Header: Depth=1
	#DEBUG_VALUE: decrypt_detached:m <- [DW_OP_plus_uconst 136] [$rsp+0]
	#DEBUG_VALUE: decrypt_detached:c <- [DW_OP_plus_uconst 96] [$rsp+0]
	#DEBUG_VALUE: decrypt_detached:clen <- [DW_OP_plus_uconst 120] [$rsp+0]
	#DEBUG_VALUE: decrypt_detached:mac <- [DW_OP_plus_uconst 112] [$rsp+0]
	#DEBUG_VALUE: decrypt_detached:maclen <- [DW_OP_plus_uconst 128] [$rsp+0]
	#DEBUG_VALUE: decrypt_detached:ad <- [DW_OP_plus_uconst 104] [$rsp+0]
	#DEBUG_VALUE: decrypt_detached:adlen <- [DW_OP_plus_uconst 272] [$r14+0]
	#DEBUG_VALUE: decrypt_detached:npub <- [DW_OP_plus_uconst 280] [$r14+0]
	#DEBUG_VALUE: decrypt_detached:k <- [DW_OP_plus_uconst 288] [$r14+0]
	#DEBUG_VALUE: decrypt_detached:i <- $rbx
	.loc	6 204 35 is_stmt 1              # crypto_aead/aegis256/aegis256_common.h:204:35
	leaq	(%rbx,%r13), %rdi
	.loc	6 204 13 is_stmt 0              # crypto_aead/aegis256/aegis256_common.h:204:13
	leaq	(%r15,%rbx), %rsi
	movq	%r14, %rdx
	callq	aegis256_dec
.Ltmp145:
	#DEBUG_VALUE: decrypt_detached:i <- [DW_OP_plus_uconst 16, DW_OP_stack_value] $rbx
	.loc	6 203 28 is_stmt 1              # crypto_aead/aegis256/aegis256_common.h:203:28
	leaq	16(%rbx), %rax
	addq	$32, %rbx
.Ltmp146:
	cmpq	%r12, %rbx
	movq	%rax, %rbx
.Ltmp147:
	.loc	6 203 9 is_stmt 0               # crypto_aead/aegis256/aegis256_common.h:203:9
	jbe	.LBB1_15
	jmp	.LBB1_18
.Ltmp148:
.LBB1_12:                               # %.preheader72
	#DEBUG_VALUE: decrypt_detached:m <- [DW_OP_plus_uconst 136] [$rsp+0]
	#DEBUG_VALUE: decrypt_detached:c <- [DW_OP_plus_uconst 96] [$rsp+0]
	#DEBUG_VALUE: decrypt_detached:clen <- [DW_OP_plus_uconst 120] [$rsp+0]
	#DEBUG_VALUE: decrypt_detached:mac <- [DW_OP_plus_uconst 112] [$rsp+0]
	#DEBUG_VALUE: decrypt_detached:maclen <- [DW_OP_plus_uconst 128] [$rsp+0]
	#DEBUG_VALUE: decrypt_detached:ad <- [DW_OP_plus_uconst 104] [$rsp+0]
	#DEBUG_VALUE: decrypt_detached:adlen <- [DW_OP_plus_uconst 272] [$rsp+0]
	#DEBUG_VALUE: decrypt_detached:npub <- [DW_OP_plus_uconst 280] [$rsp+0]
	#DEBUG_VALUE: decrypt_detached:k <- [DW_OP_plus_uconst 288] [$rsp+0]
	#DEBUG_VALUE: decrypt_detached:i <- 0
	.loc	6 0 9                           # crypto_aead/aegis256/aegis256_common.h:0:9
	movq	120(%rsp), %r12                 # 8-byte Reload
	cmpq	$16, %r12
.Ltmp149:
	.loc	6 207 9 is_stmt 1               # crypto_aead/aegis256/aegis256_common.h:207:9
	jae	.LBB1_16
.Ltmp150:
.LBB1_13:
	#DEBUG_VALUE: decrypt_detached:m <- [DW_OP_plus_uconst 136] [$rsp+0]
	#DEBUG_VALUE: decrypt_detached:c <- [DW_OP_plus_uconst 96] [$rsp+0]
	#DEBUG_VALUE: decrypt_detached:clen <- [DW_OP_plus_uconst 120] [$rsp+0]
	#DEBUG_VALUE: decrypt_detached:mac <- [DW_OP_plus_uconst 112] [$rsp+0]
	#DEBUG_VALUE: decrypt_detached:maclen <- [DW_OP_plus_uconst 128] [$rsp+0]
	#DEBUG_VALUE: decrypt_detached:ad <- [DW_OP_plus_uconst 104] [$rsp+0]
	#DEBUG_VALUE: decrypt_detached:adlen <- [DW_OP_plus_uconst 272] [$rsp+0]
	#DEBUG_VALUE: decrypt_detached:npub <- [DW_OP_plus_uconst 280] [$rsp+0]
	#DEBUG_VALUE: decrypt_detached:k <- [DW_OP_plus_uconst 288] [$rsp+0]
	#DEBUG_VALUE: decrypt_detached:i <- 0
	.loc	6 0 9 is_stmt 0                 # crypto_aead/aegis256/aegis256_common.h:0:9
	xorl	%eax, %eax
.Ltmp151:
	.loc	6 203 9 is_stmt 1               # crypto_aead/aegis256/aegis256_common.h:203:9
	jmp	.LBB1_18
.Ltmp152:
.LBB1_16:                               # %.lr.ph83.preheader
	#DEBUG_VALUE: decrypt_detached:m <- [DW_OP_plus_uconst 136] [$rsp+0]
	#DEBUG_VALUE: decrypt_detached:c <- [DW_OP_plus_uconst 96] [$rsp+0]
	#DEBUG_VALUE: decrypt_detached:clen <- [DW_OP_plus_uconst 120] [$rsp+0]
	#DEBUG_VALUE: decrypt_detached:mac <- [DW_OP_plus_uconst 112] [$rsp+0]
	#DEBUG_VALUE: decrypt_detached:maclen <- [DW_OP_plus_uconst 128] [$rsp+0]
	#DEBUG_VALUE: decrypt_detached:ad <- [DW_OP_plus_uconst 104] [$rsp+0]
	#DEBUG_VALUE: decrypt_detached:adlen <- [DW_OP_plus_uconst 272] [$rsp+0]
	#DEBUG_VALUE: decrypt_detached:npub <- [DW_OP_plus_uconst 280] [$rsp+0]
	#DEBUG_VALUE: decrypt_detached:k <- [DW_OP_plus_uconst 288] [$rsp+0]
	#DEBUG_VALUE: decrypt_detached:i <- 0
	.loc	6 0 9 is_stmt 0                 # crypto_aead/aegis256/aegis256_common.h:0:9
	xorl	%ebx, %ebx
	movq	%rsp, %r15
	movq	96(%rsp), %r14                  # 8-byte Reload
.Ltmp153:
	.p2align	4
.LBB1_17:                               # %.lr.ph83
                                        # =>This Inner Loop Header: Depth=1
	#DEBUG_VALUE: decrypt_detached:m <- [DW_OP_plus_uconst 136] [$rsp+0]
	#DEBUG_VALUE: decrypt_detached:c <- [DW_OP_plus_uconst 96] [$rsp+0]
	#DEBUG_VALUE: decrypt_detached:clen <- [DW_OP_plus_uconst 120] [$rsp+0]
	#DEBUG_VALUE: decrypt_detached:mac <- [DW_OP_plus_uconst 112] [$rsp+0]
	#DEBUG_VALUE: decrypt_detached:maclen <- [DW_OP_plus_uconst 128] [$rsp+0]
	#DEBUG_VALUE: decrypt_detached:ad <- [DW_OP_plus_uconst 104] [$rsp+0]
	#DEBUG_VALUE: decrypt_detached:adlen <- [DW_OP_plus_uconst 272] [$r15+0]
	#DEBUG_VALUE: decrypt_detached:npub <- [DW_OP_plus_uconst 280] [$r15+0]
	#DEBUG_VALUE: decrypt_detached:k <- [DW_OP_plus_uconst 288] [$r15+0]
	#DEBUG_VALUE: decrypt_detached:i <- $rbx
	.loc	6 208 13 is_stmt 1              # crypto_aead/aegis256/aegis256_common.h:208:13
	leaq	(%r14,%rbx), %rsi
	leaq	176(%rsp), %rdi
	movq	%r15, %rdx
	callq	aegis256_dec
.Ltmp154:
	#DEBUG_VALUE: decrypt_detached:i <- [DW_OP_plus_uconst 16, DW_OP_stack_value] $rbx
	.loc	6 207 28                        # crypto_aead/aegis256/aegis256_common.h:207:28
	leaq	16(%rbx), %rax
	addq	$32, %rbx
.Ltmp155:
	cmpq	%r12, %rbx
	movq	%rax, %rbx
.Ltmp156:
	.loc	6 207 9 is_stmt 0               # crypto_aead/aegis256/aegis256_common.h:207:9
	jbe	.LBB1_17
.Ltmp157:
.LBB1_18:                               # %.loopexit
	#DEBUG_VALUE: decrypt_detached:m <- [DW_OP_plus_uconst 136] [$rsp+0]
	#DEBUG_VALUE: decrypt_detached:c <- [DW_OP_plus_uconst 96] [$rsp+0]
	#DEBUG_VALUE: decrypt_detached:clen <- [DW_OP_plus_uconst 120] [$rsp+0]
	#DEBUG_VALUE: decrypt_detached:mac <- [DW_OP_plus_uconst 112] [$rsp+0]
	#DEBUG_VALUE: decrypt_detached:maclen <- [DW_OP_plus_uconst 128] [$rsp+0]
	#DEBUG_VALUE: decrypt_detached:ad <- [DW_OP_plus_uconst 104] [$rsp+0]
	#DEBUG_VALUE: decrypt_detached:adlen <- [DW_OP_plus_uconst 272] [$rsp+0]
	#DEBUG_VALUE: decrypt_detached:npub <- [DW_OP_plus_uconst 280] [$rsp+0]
	#DEBUG_VALUE: decrypt_detached:k <- [DW_OP_plus_uconst 288] [$rsp+0]
	#DEBUG_VALUE: decrypt_detached:i <- $rax
	.loc	6 211 14 is_stmt 1              # crypto_aead/aegis256/aegis256_common.h:211:14
	movq	%r12, %rdx
	andq	$15, %rdx
	je	.LBB1_20
.Ltmp158:
# %bb.19:                               # %.sink.split
	#DEBUG_VALUE: decrypt_detached:m <- [DW_OP_plus_uconst 136] [$rsp+0]
	#DEBUG_VALUE: decrypt_detached:c <- [DW_OP_plus_uconst 96] [$rsp+0]
	#DEBUG_VALUE: decrypt_detached:clen <- [DW_OP_plus_uconst 120] [$rsp+0]
	#DEBUG_VALUE: decrypt_detached:mac <- [DW_OP_plus_uconst 112] [$rsp+0]
	#DEBUG_VALUE: decrypt_detached:maclen <- [DW_OP_plus_uconst 128] [$rsp+0]
	#DEBUG_VALUE: decrypt_detached:ad <- [DW_OP_plus_uconst 104] [$rsp+0]
	#DEBUG_VALUE: decrypt_detached:adlen <- [DW_OP_plus_uconst 272] [$rsp+0]
	#DEBUG_VALUE: decrypt_detached:npub <- [DW_OP_plus_uconst 280] [$rsp+0]
	#DEBUG_VALUE: decrypt_detached:k <- [DW_OP_plus_uconst 288] [$rsp+0]
	#DEBUG_VALUE: decrypt_detached:i <- $rax
	.loc	6 212 15                        # crypto_aead/aegis256/aegis256_common.h:212:15
	leaq	(%rax,%r13), %rcx
.Ltmp159:
	.loc	6 202 11                        # crypto_aead/aegis256/aegis256_common.h:202:11
	testq	%r13, %r13
	leaq	176(%rsp), %rdi
.Ltmp160:
	.loc	6 212 15                        # crypto_aead/aegis256/aegis256_common.h:212:15
	cmovneq	%rcx, %rdi
	movq	96(%rsp), %rsi                  # 8-byte Reload
	.loc	6 0 0 is_stmt 0                 # crypto_aead/aegis256/aegis256_common.h:0
	addq	%rax, %rsi
	movq	%rsp, %rcx
	callq	aegis256_declast
.Ltmp161:
.LBB1_20:
	#DEBUG_VALUE: decrypt_detached:m <- [DW_OP_plus_uconst 136] [$rsp+0]
	#DEBUG_VALUE: decrypt_detached:c <- [DW_OP_plus_uconst 96] [$rsp+0]
	#DEBUG_VALUE: decrypt_detached:clen <- [DW_OP_plus_uconst 120] [$rsp+0]
	#DEBUG_VALUE: decrypt_detached:mac <- [DW_OP_plus_uconst 112] [$rsp+0]
	#DEBUG_VALUE: decrypt_detached:maclen <- [DW_OP_plus_uconst 128] [$rsp+0]
	#DEBUG_VALUE: decrypt_detached:ad <- [DW_OP_plus_uconst 104] [$rsp+0]
	#DEBUG_VALUE: decrypt_detached:adlen <- [DW_OP_plus_uconst 272] [$rsp+0]
	#DEBUG_VALUE: decrypt_detached:npub <- [DW_OP_plus_uconst 280] [$rsp+0]
	#DEBUG_VALUE: decrypt_detached:k <- [DW_OP_plus_uconst 288] [$rsp+0]
	leaq	144(%rsp), %rdi
	movq	%rsp, %r8
	movq	128(%rsp), %rbx                 # 8-byte Reload
	.loc	6 220 5 is_stmt 1               # crypto_aead/aegis256/aegis256_common.h:220:5
	movq	%rbx, %rsi
	movq	%rbp, %rdx
	movq	%r12, %rcx
	callq	aegis256_mac
.Ltmp162:
	#DEBUG_VALUE: decrypt_detached:ret <- -1
	.loc	6 222 16                        # crypto_aead/aegis256/aegis256_common.h:222:16
	cmpq	$32, %rbx
	je	.LBB1_23
.Ltmp163:
# %bb.21:
	#DEBUG_VALUE: decrypt_detached:m <- [DW_OP_plus_uconst 136] [$rsp+0]
	#DEBUG_VALUE: decrypt_detached:c <- [DW_OP_plus_uconst 96] [$rsp+0]
	#DEBUG_VALUE: decrypt_detached:clen <- [DW_OP_plus_uconst 120] [$rsp+0]
	#DEBUG_VALUE: decrypt_detached:mac <- [DW_OP_plus_uconst 112] [$rsp+0]
	#DEBUG_VALUE: decrypt_detached:maclen <- [DW_OP_plus_uconst 128] [$rsp+0]
	#DEBUG_VALUE: decrypt_detached:ad <- [DW_OP_plus_uconst 104] [$rsp+0]
	#DEBUG_VALUE: decrypt_detached:adlen <- [DW_OP_plus_uconst 272] [$rsp+0]
	#DEBUG_VALUE: decrypt_detached:npub <- [DW_OP_plus_uconst 280] [$rsp+0]
	#DEBUG_VALUE: decrypt_detached:k <- [DW_OP_plus_uconst 288] [$rsp+0]
	#DEBUG_VALUE: decrypt_detached:ret <- -1
	.loc	6 0 16 is_stmt 0                # crypto_aead/aegis256/aegis256_common.h:0:16
	movl	$-1, %eax
	.loc	6 222 16                        # crypto_aead/aegis256/aegis256_common.h:222:16
	cmpq	$16, %rbx
	jne	.LBB1_24
.Ltmp164:
# %bb.22:
	#DEBUG_VALUE: decrypt_detached:m <- [DW_OP_plus_uconst 136] [$rsp+0]
	#DEBUG_VALUE: decrypt_detached:c <- [DW_OP_plus_uconst 96] [$rsp+0]
	#DEBUG_VALUE: decrypt_detached:clen <- [DW_OP_plus_uconst 120] [$rsp+0]
	#DEBUG_VALUE: decrypt_detached:mac <- [DW_OP_plus_uconst 112] [$rsp+0]
	#DEBUG_VALUE: decrypt_detached:maclen <- [DW_OP_plus_uconst 128] [$rsp+0]
	#DEBUG_VALUE: decrypt_detached:ad <- [DW_OP_plus_uconst 104] [$rsp+0]
	#DEBUG_VALUE: decrypt_detached:adlen <- [DW_OP_plus_uconst 272] [$rsp+0]
	#DEBUG_VALUE: decrypt_detached:npub <- [DW_OP_plus_uconst 280] [$rsp+0]
	#DEBUG_VALUE: decrypt_detached:k <- [DW_OP_plus_uconst 288] [$rsp+0]
	#DEBUG_VALUE: decrypt_detached:ret <- -1
	.loc	6 0 16                          # crypto_aead/aegis256/aegis256_common.h:0:16
	leaq	144(%rsp), %rdi
	movq	112(%rsp), %rsi                 # 8-byte Reload
.Ltmp165:
	.loc	6 223 15 is_stmt 1              # crypto_aead/aegis256/aegis256_common.h:223:15
	callq	crypto_verify_16@PLT
.Ltmp166:
	#DEBUG_VALUE: decrypt_detached:ret <- $eax
	.loc	6 0 15 is_stmt 0                # crypto_aead/aegis256/aegis256_common.h:0:15
	jmp	.LBB1_24
.Ltmp167:
.LBB1_23:
	#DEBUG_VALUE: decrypt_detached:m <- [DW_OP_plus_uconst 136] [$rsp+0]
	#DEBUG_VALUE: decrypt_detached:c <- [DW_OP_plus_uconst 96] [$rsp+0]
	#DEBUG_VALUE: decrypt_detached:clen <- [DW_OP_plus_uconst 120] [$rsp+0]
	#DEBUG_VALUE: decrypt_detached:mac <- [DW_OP_plus_uconst 112] [$rsp+0]
	#DEBUG_VALUE: decrypt_detached:maclen <- [DW_OP_plus_uconst 128] [$rsp+0]
	#DEBUG_VALUE: decrypt_detached:ad <- [DW_OP_plus_uconst 104] [$rsp+0]
	#DEBUG_VALUE: decrypt_detached:adlen <- [DW_OP_plus_uconst 272] [$rsp+0]
	#DEBUG_VALUE: decrypt_detached:npub <- [DW_OP_plus_uconst 280] [$rsp+0]
	#DEBUG_VALUE: decrypt_detached:k <- [DW_OP_plus_uconst 288] [$rsp+0]
	#DEBUG_VALUE: decrypt_detached:ret <- -1
	leaq	144(%rsp), %rdi
	movq	112(%rsp), %rsi                 # 8-byte Reload
.Ltmp168:
	.loc	6 225 15 is_stmt 1              # crypto_aead/aegis256/aegis256_common.h:225:15
	callq	crypto_verify_32@PLT
.Ltmp169:
	#DEBUG_VALUE: decrypt_detached:ret <- $eax
.LBB1_24:
	#DEBUG_VALUE: decrypt_detached:m <- [DW_OP_plus_uconst 136] [$rsp+0]
	#DEBUG_VALUE: decrypt_detached:c <- [DW_OP_plus_uconst 96] [$rsp+0]
	#DEBUG_VALUE: decrypt_detached:clen <- [DW_OP_plus_uconst 120] [$rsp+0]
	#DEBUG_VALUE: decrypt_detached:mac <- [DW_OP_plus_uconst 112] [$rsp+0]
	#DEBUG_VALUE: decrypt_detached:maclen <- [DW_OP_plus_uconst 128] [$rsp+0]
	#DEBUG_VALUE: decrypt_detached:ad <- [DW_OP_plus_uconst 104] [$rsp+0]
	#DEBUG_VALUE: decrypt_detached:adlen <- [DW_OP_plus_uconst 272] [$rsp+0]
	#DEBUG_VALUE: decrypt_detached:npub <- [DW_OP_plus_uconst 280] [$rsp+0]
	#DEBUG_VALUE: decrypt_detached:k <- [DW_OP_plus_uconst 288] [$rsp+0]
	.loc	6 202 11                        # crypto_aead/aegis256/aegis256_common.h:202:11
	testq	%r13, %r13
	sete	%cl
.Ltmp170:
	#DEBUG_VALUE: decrypt_detached:ret <- $eax
	.loc	6 227 13                        # crypto_aead/aegis256/aegis256_common.h:227:13
	testl	%eax, %eax
	sete	%dl
	.loc	6 227 18 is_stmt 0              # crypto_aead/aegis256/aegis256_common.h:227:18
	orb	%cl, %dl
	jne	.LBB1_26
.Ltmp171:
# %bb.25:
	#DEBUG_VALUE: decrypt_detached:m <- [DW_OP_plus_uconst 136] [$rsp+0]
	#DEBUG_VALUE: decrypt_detached:c <- [DW_OP_plus_uconst 96] [$rsp+0]
	#DEBUG_VALUE: decrypt_detached:clen <- [DW_OP_plus_uconst 120] [$rsp+0]
	#DEBUG_VALUE: decrypt_detached:mac <- [DW_OP_plus_uconst 112] [$rsp+0]
	#DEBUG_VALUE: decrypt_detached:maclen <- [DW_OP_plus_uconst 128] [$rsp+0]
	#DEBUG_VALUE: decrypt_detached:ad <- [DW_OP_plus_uconst 104] [$rsp+0]
	#DEBUG_VALUE: decrypt_detached:adlen <- [DW_OP_plus_uconst 272] [$rsp+0]
	#DEBUG_VALUE: decrypt_detached:npub <- [DW_OP_plus_uconst 280] [$rsp+0]
	#DEBUG_VALUE: decrypt_detached:k <- [DW_OP_plus_uconst 288] [$rsp+0]
	#DEBUG_VALUE: decrypt_detached:ret <- $eax
	#DEBUG_VALUE: memset:__dest <- [DW_OP_plus_uconst 136, DW_OP_deref] $rsp
	#DEBUG_VALUE: memset:__ch <- 0
	#DEBUG_VALUE: memset:__len <- [DW_OP_plus_uconst 120, DW_OP_deref] $rsp
	.loc	7 59 10 is_stmt 1               # /usr/include/x86_64-linux-gnu/bits/string_fortified.h:59:10 @[ crypto_aead/aegis256/aegis256_common.h:228:9 ]
	movq	%r13, %rdi
	xorl	%esi, %esi
	movq	%r12, %rdx
	movl	%eax, %ebx
.Ltmp172:
	#DEBUG_VALUE: decrypt_detached:ret <- $ebx
	callq	memset@PLT
.Ltmp173:
	.loc	7 0 10 is_stmt 0                # /usr/include/x86_64-linux-gnu/bits/string_fortified.h:0:10
	movl	%ebx, %eax
.Ltmp174:
.LBB1_26:
	#DEBUG_VALUE: decrypt_detached:m <- [DW_OP_plus_uconst 136] [$rsp+0]
	#DEBUG_VALUE: decrypt_detached:c <- [DW_OP_plus_uconst 96] [$rsp+0]
	#DEBUG_VALUE: decrypt_detached:clen <- [DW_OP_plus_uconst 120] [$rsp+0]
	#DEBUG_VALUE: decrypt_detached:mac <- [DW_OP_plus_uconst 112] [$rsp+0]
	#DEBUG_VALUE: decrypt_detached:maclen <- [DW_OP_plus_uconst 128] [$rsp+0]
	#DEBUG_VALUE: decrypt_detached:ad <- [DW_OP_plus_uconst 104] [$rsp+0]
	#DEBUG_VALUE: decrypt_detached:adlen <- [DW_OP_plus_uconst 272] [$rsp+0]
	#DEBUG_VALUE: decrypt_detached:npub <- [DW_OP_plus_uconst 280] [$rsp+0]
	#DEBUG_VALUE: decrypt_detached:k <- [DW_OP_plus_uconst 288] [$rsp+0]
	.loc	6 230 5 is_stmt 1               # crypto_aead/aegis256/aegis256_common.h:230:5
	movq	%fs:40, %rcx
	cmpq	208(%rsp), %rcx
	jne	.LBB1_28
.Ltmp175:
# %bb.27:                               # %SP_return
	#DEBUG_VALUE: decrypt_detached:m <- [DW_OP_plus_uconst 136] [$rsp+0]
	#DEBUG_VALUE: decrypt_detached:c <- [DW_OP_plus_uconst 96] [$rsp+0]
	#DEBUG_VALUE: decrypt_detached:clen <- [DW_OP_plus_uconst 120] [$rsp+0]
	#DEBUG_VALUE: decrypt_detached:mac <- [DW_OP_plus_uconst 112] [$rsp+0]
	#DEBUG_VALUE: decrypt_detached:maclen <- [DW_OP_plus_uconst 128] [$rsp+0]
	#DEBUG_VALUE: decrypt_detached:ad <- [DW_OP_plus_uconst 104] [$rsp+0]
	#DEBUG_VALUE: decrypt_detached:adlen <- [DW_OP_plus_uconst 272] [$rsp+0]
	#DEBUG_VALUE: decrypt_detached:npub <- [DW_OP_plus_uconst 280] [$rsp+0]
	#DEBUG_VALUE: decrypt_detached:k <- [DW_OP_plus_uconst 288] [$rsp+0]
	.loc	6 230 5 epilogue_begin is_stmt 0 # crypto_aead/aegis256/aegis256_common.h:230:5
	addq	$216, %rsp
	.cfi_def_cfa_offset 56
	popq	%rbx
	.cfi_def_cfa_offset 48
	popq	%r12
	.cfi_def_cfa_offset 40
	popq	%r13
	.cfi_def_cfa_offset 32
	popq	%r14
	.cfi_def_cfa_offset 24
	popq	%r15
	.cfi_def_cfa_offset 16
	popq	%rbp
	.cfi_def_cfa_offset 8
	retq
.Ltmp176:
.LBB1_28:                               # %CallStackCheckFailBlk
	.cfi_def_cfa_offset 272
	#DEBUG_VALUE: decrypt_detached:m <- [DW_OP_plus_uconst 136] [$rsp+0]
	#DEBUG_VALUE: decrypt_detached:c <- [DW_OP_plus_uconst 96] [$rsp+0]
	#DEBUG_VALUE: decrypt_detached:clen <- [DW_OP_plus_uconst 120] [$rsp+0]
	#DEBUG_VALUE: decrypt_detached:mac <- [DW_OP_plus_uconst 112] [$rsp+0]
	#DEBUG_VALUE: decrypt_detached:maclen <- [DW_OP_plus_uconst 128] [$rsp+0]
	#DEBUG_VALUE: decrypt_detached:ad <- [DW_OP_plus_uconst 104] [$rsp+0]
	#DEBUG_VALUE: decrypt_detached:adlen <- [DW_OP_plus_uconst 272] [$rsp+0]
	#DEBUG_VALUE: decrypt_detached:npub <- [DW_OP_plus_uconst 280] [$rsp+0]
	#DEBUG_VALUE: decrypt_detached:k <- [DW_OP_plus_uconst 288] [$rsp+0]
	.loc	6 0 0                           # crypto_aead/aegis256/aegis256_common.h:0
	callq	__stack_chk_fail@PLT
.Ltmp177:
.Lfunc_end1:
	.size	decrypt_detached, .Lfunc_end1-decrypt_detached
	.cfi_endproc
	.file	10 "./include/sodium" "crypto_verify_16.h"
	.file	11 "./include/sodium" "crypto_verify_32.h"
                                        # -- End function
	.p2align	4                               # -- Begin function aegis256_init
	.type	aegis256_init,@function
aegis256_init:                          # @aegis256_init
.Lfunc_begin2:
	.loc	6 5 0 is_stmt 1                 # crypto_aead/aegis256/aegis256_common.h:5:0
	.cfi_startproc
# %bb.0:
	#DEBUG_VALUE: aegis256_init:key <- $rdi
	#DEBUG_VALUE: aegis256_init:nonce <- $rsi
	#DEBUG_VALUE: aegis256_init:state <- $rdx
	pushq	%rbp
	.cfi_def_cfa_offset 16
	pushq	%r15
	.cfi_def_cfa_offset 24
	pushq	%r14
	.cfi_def_cfa_offset 32
	pushq	%r13
	.cfi_def_cfa_offset 40
	pushq	%r12
	.cfi_def_cfa_offset 48
	pushq	%rbx
	.cfi_def_cfa_offset 56
	subq	$56, %rsp
	.cfi_def_cfa_offset 112
	.cfi_offset %rbx, -56
	.cfi_offset %r12, -48
	.cfi_offset %r13, -40
	.cfi_offset %r14, -32
	.cfi_offset %r15, -24
	.cfi_offset %rbp, -16
	movq	%rdx, %rbx
.Ltmp178:
	#DEBUG_VALUE: memcpy:__len <- 4
	#DEBUG_VALUE: memcpy:__len <- 4
	#DEBUG_VALUE: memcpy:__len <- 4
	#DEBUG_VALUE: memcpy:__len <- 4
	#DEBUG_VALUE: aegis256_init:c0 <- [DW_OP_LLVM_fragment 0 64] 939006032783409408
	#DEBUG_VALUE: aegis256_init:c0 <- [DW_OP_LLVM_fragment 64 64] 7095959494080274965
	#DEBUG_VALUE: memcpy:__len <- 4
	#DEBUG_VALUE: memcpy:__len <- 4
	#DEBUG_VALUE: memcpy:__len <- 4
	#DEBUG_VALUE: memcpy:__len <- 4
	#DEBUG_VALUE: aegis256_init:c1 <- [DW_OP_LLVM_fragment 0 64] -1067420811828642341
	#DEBUG_VALUE: aegis256_init:c1 <- [DW_OP_LLVM_fragment 64 64] -2510557285622673120
	#DEBUG_VALUE: softaes_block_load:in <- $rdi
	#DEBUG_VALUE: load32_le:src <- $rdi
	#DEBUG_VALUE: memcpy:__src <- $rdi
	#DEBUG_VALUE: memcpy:__len <- 4
	.loc	7 29 10 prologue_end            # /usr/include/x86_64-linux-gnu/bits/string_fortified.h:29:10 @[ ./include/sodium/private/common.h:106:5 @[ ./include/sodium/private/softaes.h:20:32 @[ crypto_aead/aegis256/aegis256_common.h:15:28 ] ] ]
	movq	(%rdi), %r8
.Ltmp179:
	#DEBUG_VALUE: memcpy:__len <- 4
	#DEBUG_VALUE: memcpy:__len <- 4
	#DEBUG_VALUE: load32_le:src <- [DW_OP_plus_uconst 8, DW_OP_stack_value] $rdi
	#DEBUG_VALUE: memcpy:__src <- [DW_OP_plus_uconst 8, DW_OP_stack_value] $rdi
	.loc	7 29 10 is_stmt 0               # /usr/include/x86_64-linux-gnu/bits/string_fortified.h:29:10 @[ ./include/sodium/private/common.h:106:5 @[ ./include/sodium/private/softaes.h:20:70 @[ crypto_aead/aegis256/aegis256_common.h:15:28 ] ] ]
	movq	8(%rdi), %r9
.Ltmp180:
	#DEBUG_VALUE: aegis256_init:k0 <- [DW_OP_LLVM_fragment 64 64] $r9
	#DEBUG_VALUE: memcpy:__len <- 4
	#DEBUG_VALUE: aegis256_init:k0 <- [DW_OP_LLVM_fragment 0 64] $r8
	#DEBUG_VALUE: memcpy:__len <- 4
	#DEBUG_VALUE: softaes_block_load:in <- [DW_OP_plus_uconst 16, DW_OP_stack_value] $rdi
	#DEBUG_VALUE: load32_le:src <- [DW_OP_plus_uconst 16, DW_OP_stack_value] $rdi
	#DEBUG_VALUE: memcpy:__src <- [DW_OP_plus_uconst 16, DW_OP_stack_value] $rdi
	.loc	7 29 10                         # /usr/include/x86_64-linux-gnu/bits/string_fortified.h:29:10 @[ ./include/sodium/private/common.h:106:5 @[ ./include/sodium/private/softaes.h:20:32 @[ crypto_aead/aegis256/aegis256_common.h:16:28 ] ] ]
	movq	16(%rdi), %r10
.Ltmp181:
	#DEBUG_VALUE: memcpy:__len <- 4
	#DEBUG_VALUE: memcpy:__len <- 4
	#DEBUG_VALUE: load32_le:src <- [DW_OP_plus_uconst 24, DW_OP_stack_value] $rdi
	#DEBUG_VALUE: memcpy:__src <- [DW_OP_plus_uconst 24, DW_OP_stack_value] $rdi
	.loc	7 29 10                         # /usr/include/x86_64-linux-gnu/bits/string_fortified.h:29:10 @[ ./include/sodium/private/common.h:106:5 @[ ./include/sodium/private/softaes.h:20:70 @[ crypto_aead/aegis256/aegis256_common.h:16:28 ] ] ]
	movq	24(%rdi), %rdi
.Ltmp182:
	#DEBUG_VALUE: aegis256_init:key <- [DW_OP_LLVM_entry_value 1] $rdi
	#DEBUG_VALUE: aegis256_init:k1 <- [DW_OP_LLVM_fragment 64 64] $rdi
	#DEBUG_VALUE: memcpy:__len <- 4
	#DEBUG_VALUE: aegis256_init:k1 <- [DW_OP_LLVM_fragment 0 64] $r10
	#DEBUG_VALUE: memcpy:__len <- 4
	#DEBUG_VALUE: memcpy:__len <- 4
	#DEBUG_VALUE: load32_le:src <- undef
	#DEBUG_VALUE: memcpy:__src <- undef
	#DEBUG_VALUE: memcpy:__len <- 4
	#DEBUG_VALUE: memcpy:__len <- 4
	#DEBUG_VALUE: aegis256_init:n0 <- [DW_OP_LLVM_fragment 0 64] undef
	#DEBUG_VALUE: aegis256_init:n0 <- [DW_OP_LLVM_fragment 64 64] undef
	#DEBUG_VALUE: softaes_block_load:in <- undef
	#DEBUG_VALUE: load32_le:src <- undef
	#DEBUG_VALUE: memcpy:__src <- undef
	#DEBUG_VALUE: memcpy:__len <- 4
	#DEBUG_VALUE: load32_le:src <- undef
	#DEBUG_VALUE: memcpy:__src <- undef
	#DEBUG_VALUE: memcpy:__len <- 4
	#DEBUG_VALUE: load32_le:src <- undef
	#DEBUG_VALUE: memcpy:__src <- undef
	#DEBUG_VALUE: memcpy:__len <- 4
	#DEBUG_VALUE: load32_le:src <- undef
	#DEBUG_VALUE: memcpy:__src <- undef
	#DEBUG_VALUE: memcpy:__len <- 4
	#DEBUG_VALUE: aegis256_init:n1 <- [DW_OP_LLVM_fragment 0 64] undef
	#DEBUG_VALUE: aegis256_init:n1 <- [DW_OP_LLVM_fragment 64 64] undef
	#DEBUG_VALUE: softaes_block_xor:a <- [DW_OP_LLVM_convert 64 7, DW_OP_LLVM_convert 32 7, DW_OP_stack_value, DW_OP_LLVM_fragment 0 32] $r8
	#DEBUG_VALUE: softaes_block_xor:a <- [DW_OP_constu 32, DW_OP_shr, DW_OP_LLVM_convert 64 7, DW_OP_LLVM_convert 32 7, DW_OP_stack_value, DW_OP_LLVM_fragment 32 32] $r8
	#DEBUG_VALUE: softaes_block_xor:a <- [DW_OP_LLVM_convert 64 7, DW_OP_LLVM_convert 32 7, DW_OP_stack_value, DW_OP_LLVM_fragment 64 32] $r9
	#DEBUG_VALUE: softaes_block_xor:a <- [DW_OP_constu 32, DW_OP_shr, DW_OP_LLVM_convert 64 7, DW_OP_LLVM_convert 32 7, DW_OP_stack_value, DW_OP_LLVM_fragment 96 32] $r9
	#DEBUG_VALUE: softaes_block_xor:b <- [DW_OP_LLVM_fragment 0 32] undef
	#DEBUG_VALUE: softaes_block_xor:b <- [DW_OP_LLVM_fragment 32 32] undef
	#DEBUG_VALUE: softaes_block_xor:b <- [DW_OP_LLVM_fragment 64 32] undef
	#DEBUG_VALUE: softaes_block_xor:b <- [DW_OP_LLVM_fragment 96 32] undef
	.loc	7 0 10                          # /usr/include/x86_64-linux-gnu/bits/string_fortified.h:0:10
	movq	(%rsi), %rax
.Ltmp183:
	.loc	8 45 37 is_stmt 1               # ./include/sodium/private/softaes.h:45:37 @[ crypto_aead/aegis256/aegis256_common.h:19:31 ]
	xorq	%r8, %rax
.Ltmp184:
	#DEBUG_VALUE: softaes_block_xor:out <- [DW_OP_LLVM_convert 64 7, DW_OP_LLVM_convert 32 7, DW_OP_stack_value, DW_OP_LLVM_fragment 0 32] undef
	#DEBUG_VALUE: softaes_block_xor:out <- [DW_OP_constu 32, DW_OP_shr, DW_OP_LLVM_convert 64 7, DW_OP_LLVM_convert 32 7, DW_OP_stack_value, DW_OP_LLVM_fragment 32 32] undef
	.loc	8 0 37 is_stmt 0                # ./include/sodium/private/softaes.h:0:37
	movq	8(%rsi), %rcx
	.loc	8 45 63                         # ./include/sodium/private/softaes.h:45:63 @[ crypto_aead/aegis256/aegis256_common.h:19:31 ]
	xorq	%r9, %rcx
.Ltmp185:
	#DEBUG_VALUE: softaes_block_xor:out <- [DW_OP_LLVM_convert 64 7, DW_OP_LLVM_convert 32 7, DW_OP_stack_value, DW_OP_LLVM_fragment 64 32] undef
	#DEBUG_VALUE: softaes_block_xor:out <- [DW_OP_constu 32, DW_OP_shr, DW_OP_LLVM_convert 64 7, DW_OP_LLVM_convert 32 7, DW_OP_stack_value, DW_OP_LLVM_fragment 96 32] undef
	#DEBUG_VALUE: aegis256_init:k0_n0 <- [DW_OP_LLVM_fragment 64 64] undef
	#DEBUG_VALUE: aegis256_init:k0_n0 <- [DW_OP_LLVM_fragment 0 64] undef
	#DEBUG_VALUE: softaes_block_xor:a <- [DW_OP_LLVM_convert 64 7, DW_OP_LLVM_convert 32 7, DW_OP_stack_value, DW_OP_LLVM_fragment 0 32] $r10
	#DEBUG_VALUE: softaes_block_xor:a <- [DW_OP_constu 32, DW_OP_shr, DW_OP_LLVM_convert 64 7, DW_OP_LLVM_convert 32 7, DW_OP_stack_value, DW_OP_LLVM_fragment 32 32] $r10
	#DEBUG_VALUE: softaes_block_xor:a <- [DW_OP_LLVM_convert 64 7, DW_OP_LLVM_convert 32 7, DW_OP_stack_value, DW_OP_LLVM_fragment 64 32] $rdi
	#DEBUG_VALUE: softaes_block_xor:a <- [DW_OP_constu 32, DW_OP_shr, DW_OP_LLVM_convert 64 7, DW_OP_LLVM_convert 32 7, DW_OP_stack_value, DW_OP_LLVM_fragment 96 32] $rdi
	#DEBUG_VALUE: softaes_block_xor:b <- [DW_OP_LLVM_fragment 0 32] undef
	#DEBUG_VALUE: softaes_block_xor:b <- [DW_OP_LLVM_fragment 32 32] undef
	#DEBUG_VALUE: softaes_block_xor:b <- [DW_OP_LLVM_fragment 64 32] undef
	#DEBUG_VALUE: softaes_block_xor:b <- [DW_OP_LLVM_fragment 96 32] undef
	.loc	8 0 63                          # ./include/sodium/private/softaes.h:0:63
	movq	16(%rsi), %r12
.Ltmp186:
	.loc	8 45 37                         # ./include/sodium/private/softaes.h:45:37 @[ crypto_aead/aegis256/aegis256_common.h:20:31 ]
	xorq	%r10, %r12
.Ltmp187:
	#DEBUG_VALUE: softaes_block_xor:out <- [DW_OP_LLVM_convert 64 7, DW_OP_LLVM_convert 32 7, DW_OP_stack_value, DW_OP_LLVM_fragment 0 32] undef
	#DEBUG_VALUE: softaes_block_xor:out <- [DW_OP_constu 32, DW_OP_shr, DW_OP_LLVM_convert 64 7, DW_OP_LLVM_convert 32 7, DW_OP_stack_value, DW_OP_LLVM_fragment 32 32] undef
	.loc	8 0 37                          # ./include/sodium/private/softaes.h:0:37
	movq	24(%rsi), %r13
	.loc	8 45 63                         # ./include/sodium/private/softaes.h:45:63 @[ crypto_aead/aegis256/aegis256_common.h:20:31 ]
	xorq	%rdi, %r13
.Ltmp188:
	#DEBUG_VALUE: softaes_block_xor:out <- [DW_OP_LLVM_convert 64 7, DW_OP_LLVM_convert 32 7, DW_OP_stack_value, DW_OP_LLVM_fragment 64 32] undef
	#DEBUG_VALUE: softaes_block_xor:out <- [DW_OP_constu 32, DW_OP_shr, DW_OP_LLVM_convert 64 7, DW_OP_LLVM_convert 32 7, DW_OP_stack_value, DW_OP_LLVM_fragment 96 32] undef
	#DEBUG_VALUE: aegis256_init:k1_n1 <- [DW_OP_LLVM_fragment 64 64] undef
	#DEBUG_VALUE: aegis256_init:k1_n1 <- [DW_OP_LLVM_fragment 0 64] undef
	.loc	8 0 63                          # ./include/sodium/private/softaes.h:0:63
	movq	%rax, 16(%rsp)                  # 8-byte Spill
.Ltmp189:
	.loc	6 23 16 is_stmt 1               # crypto_aead/aegis256/aegis256_common.h:23:16
	movq	%rax, (%rdx)
	movq	%rcx, 8(%rsp)                   # 8-byte Spill
	movq	%rcx, 8(%rdx)
	.loc	6 24 16                         # crypto_aead/aegis256/aegis256_common.h:24:16
	movq	%r12, 16(%rdx)
	movq	%r13, 24(%rdx)
	movabsq	$-1067420811828642341, %rax     # imm = 0xF12FC26D55183DDB
	.loc	6 25 16                         # crypto_aead/aegis256/aegis256_common.h:25:16
	movq	%rax, 32(%rdx)
	movabsq	$-2510557285622673120, %rcx     # imm = 0xDD28B57342311120
	movq	%rcx, 40(%rdx)
	movabsq	$939006032783409408, %rdx       # imm = 0xD08050302010100
.Ltmp190:
	#DEBUG_VALUE: aegis256_init:state <- $rbx
	.loc	6 26 16                         # crypto_aead/aegis256/aegis256_common.h:26:16
	movq	%rdx, 48(%rbx)
	movabsq	$7095959494080274965, %rsi      # imm = 0x6279E99059372215
.Ltmp191:
	#DEBUG_VALUE: aegis256_init:nonce <- [DW_OP_LLVM_entry_value 1] $rsi
	movq	%rsi, 56(%rbx)
	#DEBUG_VALUE: softaes_block_xor:a <- [DW_OP_LLVM_convert 64 7, DW_OP_LLVM_convert 32 7, DW_OP_stack_value, DW_OP_LLVM_fragment 0 32] $r8
	#DEBUG_VALUE: softaes_block_xor:a <- [DW_OP_constu 32, DW_OP_shr, DW_OP_LLVM_convert 64 7, DW_OP_LLVM_convert 32 7, DW_OP_stack_value, DW_OP_LLVM_fragment 32 32] $r8
.Ltmp192:
	#DEBUG_VALUE: softaes_block_xor:a <- [DW_OP_LLVM_convert 64 7, DW_OP_LLVM_convert 32 7, DW_OP_stack_value, DW_OP_LLVM_fragment 64 32] $r9
	#DEBUG_VALUE: softaes_block_xor:a <- [DW_OP_constu 32, DW_OP_shr, DW_OP_LLVM_convert 64 7, DW_OP_LLVM_convert 32 7, DW_OP_stack_value, DW_OP_LLVM_fragment 96 32] $r9
	#DEBUG_VALUE: softaes_block_xor:b <- [DW_OP_stack_value, DW_OP_LLVM_fragment 0 32] 33620224
	#DEBUG_VALUE: softaes_block_xor:b <- [DW_OP_constu 32, DW_OP_shr, DW_OP_LLVM_convert 64 7, DW_OP_LLVM_convert 32 7, DW_OP_stack_value, DW_OP_LLVM_fragment 32 32] 939006032783409408
	#DEBUG_VALUE: softaes_block_xor:b <- [DW_OP_stack_value, DW_OP_LLVM_fragment 64 32] 1496785429
	#DEBUG_VALUE: softaes_block_xor:b <- [DW_OP_constu 32, DW_OP_shr, DW_OP_LLVM_convert 64 7, DW_OP_LLVM_convert 32 7, DW_OP_stack_value, DW_OP_LLVM_fragment 96 32] 7095959494080274965
	.loc	6 0 16 is_stmt 0                # crypto_aead/aegis256/aegis256_common.h:0:16
	movq	%r8, 48(%rsp)                   # 8-byte Spill
.Ltmp193:
	#DEBUG_VALUE: softaes_block_xor:a <- [DW_OP_plus_uconst 48, DW_OP_deref_size 8, DW_OP_constu 32, DW_OP_shr, DW_OP_LLVM_convert 64 7, DW_OP_LLVM_convert 32 7, DW_OP_stack_value, DW_OP_LLVM_fragment 32 32] $rsp
	#DEBUG_VALUE: softaes_block_xor:a <- [DW_OP_plus_uconst 48, DW_OP_deref_size 8, DW_OP_LLVM_convert 64 7, DW_OP_LLVM_convert 32 7, DW_OP_stack_value, DW_OP_LLVM_fragment 0 32] $rsp
	#DEBUG_VALUE: softaes_block_xor:a <- [DW_OP_plus_uconst 48, DW_OP_deref_size 8, DW_OP_constu 32, DW_OP_shr, DW_OP_LLVM_convert 64 7, DW_OP_LLVM_convert 32 7, DW_OP_stack_value, DW_OP_LLVM_fragment 32 32] $rsp
	#DEBUG_VALUE: softaes_block_xor:a <- [DW_OP_plus_uconst 48, DW_OP_deref_size 8, DW_OP_LLVM_convert 64 7, DW_OP_LLVM_convert 32 7, DW_OP_stack_value, DW_OP_LLVM_fragment 0 32] $rsp
	#DEBUG_VALUE: aegis256_init:k0 <- [DW_OP_plus_uconst 48, DW_OP_deref, DW_OP_LLVM_fragment 0 64] $rsp
	.loc	8 45 37 is_stmt 1               # ./include/sodium/private/softaes.h:45:37 @[ crypto_aead/aegis256/aegis256_common.h:27:16 ]
	xorq	%r8, %rdx
.Ltmp194:
	#DEBUG_VALUE: softaes_block_xor:out <- [DW_OP_LLVM_convert 64 7, DW_OP_LLVM_convert 32 7, DW_OP_stack_value, DW_OP_LLVM_fragment 0 32] $rdx
	#DEBUG_VALUE: softaes_block_xor:out <- [DW_OP_constu 32, DW_OP_shr, DW_OP_LLVM_convert 64 7, DW_OP_LLVM_convert 32 7, DW_OP_stack_value, DW_OP_LLVM_fragment 32 32] $rdx
	.loc	8 0 37 is_stmt 0                # ./include/sodium/private/softaes.h:0:37
	movq	%r9, 40(%rsp)                   # 8-byte Spill
.Ltmp195:
	#DEBUG_VALUE: softaes_block_xor:a <- [DW_OP_plus_uconst 40, DW_OP_deref_size 8, DW_OP_constu 32, DW_OP_shr, DW_OP_LLVM_convert 64 7, DW_OP_LLVM_convert 32 7, DW_OP_stack_value, DW_OP_LLVM_fragment 96 32] $rsp
	#DEBUG_VALUE: softaes_block_xor:a <- [DW_OP_plus_uconst 40, DW_OP_deref_size 8, DW_OP_LLVM_convert 64 7, DW_OP_LLVM_convert 32 7, DW_OP_stack_value, DW_OP_LLVM_fragment 64 32] $rsp
	#DEBUG_VALUE: softaes_block_xor:a <- [DW_OP_plus_uconst 40, DW_OP_deref_size 8, DW_OP_constu 32, DW_OP_shr, DW_OP_LLVM_convert 64 7, DW_OP_LLVM_convert 32 7, DW_OP_stack_value, DW_OP_LLVM_fragment 96 32] $rsp
	#DEBUG_VALUE: softaes_block_xor:a <- [DW_OP_plus_uconst 40, DW_OP_deref_size 8, DW_OP_LLVM_convert 64 7, DW_OP_LLVM_convert 32 7, DW_OP_stack_value, DW_OP_LLVM_fragment 64 32] $rsp
	#DEBUG_VALUE: aegis256_init:k0 <- [DW_OP_plus_uconst 40, DW_OP_deref, DW_OP_LLVM_fragment 64 64] $rsp
	.loc	8 45 63                         # ./include/sodium/private/softaes.h:45:63 @[ crypto_aead/aegis256/aegis256_common.h:27:16 ]
	xorq	%r9, %rsi
.Ltmp196:
	#DEBUG_VALUE: softaes_block_xor:out <- [DW_OP_LLVM_convert 64 7, DW_OP_LLVM_convert 32 7, DW_OP_stack_value, DW_OP_LLVM_fragment 64 32] $rsi
	#DEBUG_VALUE: softaes_block_xor:out <- [DW_OP_constu 32, DW_OP_shr, DW_OP_LLVM_convert 64 7, DW_OP_LLVM_convert 32 7, DW_OP_stack_value, DW_OP_LLVM_fragment 96 32] $rsi
	.loc	6 27 16 is_stmt 1               # crypto_aead/aegis256/aegis256_common.h:27:16
	movq	%rdx, 64(%rbx)
	movq	%rsi, 72(%rbx)
	#DEBUG_VALUE: softaes_block_xor:a <- [DW_OP_LLVM_convert 64 7, DW_OP_LLVM_convert 32 7, DW_OP_stack_value, DW_OP_LLVM_fragment 0 32] $r10
	#DEBUG_VALUE: softaes_block_xor:a <- [DW_OP_constu 32, DW_OP_shr, DW_OP_LLVM_convert 64 7, DW_OP_LLVM_convert 32 7, DW_OP_stack_value, DW_OP_LLVM_fragment 32 32] $r10
.Ltmp197:
	#DEBUG_VALUE: softaes_block_xor:a <- [DW_OP_LLVM_convert 64 7, DW_OP_LLVM_convert 32 7, DW_OP_stack_value, DW_OP_LLVM_fragment 64 32] $rdi
	#DEBUG_VALUE: softaes_block_xor:a <- [DW_OP_constu 32, DW_OP_shr, DW_OP_LLVM_convert 64 7, DW_OP_LLVM_convert 32 7, DW_OP_stack_value, DW_OP_LLVM_fragment 96 32] $rdi
	#DEBUG_VALUE: softaes_block_xor:b <- [DW_OP_stack_value, DW_OP_LLVM_fragment 0 32] 1427652059
	#DEBUG_VALUE: softaes_block_xor:b <- [DW_OP_constu 32, DW_OP_shr, DW_OP_LLVM_convert 64 7, DW_OP_LLVM_convert 32 7, DW_OP_stack_value, DW_OP_LLVM_fragment 32 32] -1067420811828642341
	#DEBUG_VALUE: softaes_block_xor:b <- [DW_OP_stack_value, DW_OP_LLVM_fragment 64 32] 1110511904
	#DEBUG_VALUE: softaes_block_xor:b <- [DW_OP_constu 32, DW_OP_shr, DW_OP_LLVM_convert 64 7, DW_OP_LLVM_convert 32 7, DW_OP_stack_value, DW_OP_LLVM_fragment 96 32] -2510557285622673120
	.loc	6 0 16 is_stmt 0                # crypto_aead/aegis256/aegis256_common.h:0:16
	movq	%r10, 32(%rsp)                  # 8-byte Spill
.Ltmp198:
	#DEBUG_VALUE: softaes_block_xor:a <- [DW_OP_plus_uconst 32, DW_OP_deref_size 8, DW_OP_constu 32, DW_OP_shr, DW_OP_LLVM_convert 64 7, DW_OP_LLVM_convert 32 7, DW_OP_stack_value, DW_OP_LLVM_fragment 32 32] $rsp
	#DEBUG_VALUE: softaes_block_xor:a <- [DW_OP_plus_uconst 32, DW_OP_deref_size 8, DW_OP_LLVM_convert 64 7, DW_OP_LLVM_convert 32 7, DW_OP_stack_value, DW_OP_LLVM_fragment 0 32] $rsp
	#DEBUG_VALUE: softaes_block_xor:a <- [DW_OP_plus_uconst 32, DW_OP_deref_size 8, DW_OP_constu 32, DW_OP_shr, DW_OP_LLVM_convert 64 7, DW_OP_LLVM_convert 32 7, DW_OP_stack_value, DW_OP_LLVM_fragment 32 32] $rsp
	#DEBUG_VALUE: softaes_block_xor:a <- [DW_OP_plus_uconst 32, DW_OP_deref_size 8, DW_OP_LLVM_convert 64 7, DW_OP_LLVM_convert 32 7, DW_OP_stack_value, DW_OP_LLVM_fragment 0 32] $rsp
	#DEBUG_VALUE: aegis256_init:k1 <- [DW_OP_plus_uconst 32, DW_OP_deref, DW_OP_LLVM_fragment 0 64] $rsp
	.loc	8 45 37 is_stmt 1               # ./include/sodium/private/softaes.h:45:37 @[ crypto_aead/aegis256/aegis256_common.h:28:16 ]
	xorq	%r10, %rax
.Ltmp199:
	#DEBUG_VALUE: softaes_block_xor:out <- [DW_OP_LLVM_convert 64 7, DW_OP_LLVM_convert 32 7, DW_OP_stack_value, DW_OP_LLVM_fragment 0 32] $rax
	#DEBUG_VALUE: softaes_block_xor:out <- [DW_OP_constu 32, DW_OP_shr, DW_OP_LLVM_convert 64 7, DW_OP_LLVM_convert 32 7, DW_OP_stack_value, DW_OP_LLVM_fragment 32 32] $rax
	.loc	8 0 37 is_stmt 0                # ./include/sodium/private/softaes.h:0:37
	movq	%rdi, 24(%rsp)                  # 8-byte Spill
.Ltmp200:
	#DEBUG_VALUE: softaes_block_xor:a <- [DW_OP_plus_uconst 24, DW_OP_deref_size 8, DW_OP_constu 32, DW_OP_shr, DW_OP_LLVM_convert 64 7, DW_OP_LLVM_convert 32 7, DW_OP_stack_value, DW_OP_LLVM_fragment 96 32] $rsp
	#DEBUG_VALUE: softaes_block_xor:a <- [DW_OP_plus_uconst 24, DW_OP_deref_size 8, DW_OP_LLVM_convert 64 7, DW_OP_LLVM_convert 32 7, DW_OP_stack_value, DW_OP_LLVM_fragment 64 32] $rsp
	#DEBUG_VALUE: softaes_block_xor:a <- [DW_OP_plus_uconst 24, DW_OP_deref_size 8, DW_OP_constu 32, DW_OP_shr, DW_OP_LLVM_convert 64 7, DW_OP_LLVM_convert 32 7, DW_OP_stack_value, DW_OP_LLVM_fragment 96 32] $rsp
	#DEBUG_VALUE: softaes_block_xor:a <- [DW_OP_plus_uconst 24, DW_OP_deref_size 8, DW_OP_LLVM_convert 64 7, DW_OP_LLVM_convert 32 7, DW_OP_stack_value, DW_OP_LLVM_fragment 64 32] $rsp
	#DEBUG_VALUE: aegis256_init:k1 <- [DW_OP_plus_uconst 24, DW_OP_deref, DW_OP_LLVM_fragment 64 64] $rsp
	.loc	8 45 63                         # ./include/sodium/private/softaes.h:45:63 @[ crypto_aead/aegis256/aegis256_common.h:28:16 ]
	xorq	%rdi, %rcx
.Ltmp201:
	#DEBUG_VALUE: softaes_block_xor:out <- [DW_OP_LLVM_convert 64 7, DW_OP_LLVM_convert 32 7, DW_OP_stack_value, DW_OP_LLVM_fragment 64 32] $rcx
	#DEBUG_VALUE: softaes_block_xor:out <- [DW_OP_constu 32, DW_OP_shr, DW_OP_LLVM_convert 64 7, DW_OP_LLVM_convert 32 7, DW_OP_stack_value, DW_OP_LLVM_fragment 96 32] $rcx
	.loc	6 28 16 is_stmt 1               # crypto_aead/aegis256/aegis256_common.h:28:16
	movq	%rax, 80(%rbx)
	movq	%rcx, 88(%rbx)
	movl	$4, %ebp
.Ltmp202:
	#DEBUG_VALUE: aegis256_init:i <- 0
	.loc	6 0 16 is_stmt 0                # :0:16
.Ltmp203:
	.p2align	4
.LBB2_1:                                # =>This Inner Loop Header: Depth=1
	#DEBUG_VALUE: aegis256_init:key <- [DW_OP_LLVM_entry_value 1] $rdi
	#DEBUG_VALUE: aegis256_init:nonce <- [DW_OP_LLVM_entry_value 1] $rsi
	#DEBUG_VALUE: aegis256_init:state <- $rbx
	#DEBUG_VALUE: aegis256_init:c0 <- [DW_OP_LLVM_fragment 0 64] 939006032783409408
	#DEBUG_VALUE: aegis256_init:c0 <- [DW_OP_LLVM_fragment 64 64] 7095959494080274965
	#DEBUG_VALUE: aegis256_init:c1 <- [DW_OP_LLVM_fragment 0 64] -1067420811828642341
	#DEBUG_VALUE: aegis256_init:c1 <- [DW_OP_LLVM_fragment 64 64] -2510557285622673120
	#DEBUG_VALUE: aegis256_init:k0 <- [DW_OP_plus_uconst 40, DW_OP_deref, DW_OP_LLVM_fragment 64 64] $rsp
	#DEBUG_VALUE: aegis256_init:k0 <- [DW_OP_plus_uconst 48, DW_OP_deref, DW_OP_LLVM_fragment 0 64] $rsp
	#DEBUG_VALUE: aegis256_init:k1 <- [DW_OP_plus_uconst 24, DW_OP_deref, DW_OP_LLVM_fragment 64 64] $rsp
	#DEBUG_VALUE: aegis256_init:k1 <- [DW_OP_plus_uconst 32, DW_OP_deref, DW_OP_LLVM_fragment 0 64] $rsp
	#DEBUG_VALUE: aegis256_init:i <- [DW_OP_consts 4, DW_OP_minus, DW_OP_consts 18446744073709551615, DW_OP_div, DW_OP_stack_value] $ebp
	#DEBUG_VALUE: aegis256_update:d <- [DW_OP_plus_uconst 48, DW_OP_deref, DW_OP_LLVM_fragment 0 64] $rsp
	#DEBUG_VALUE: aegis256_update:d <- [DW_OP_plus_uconst 40, DW_OP_deref, DW_OP_LLVM_fragment 64 64] $rsp
	#DEBUG_VALUE: aegis256_update:state <- $rbx
	.loc	5 38 11 is_stmt 1               # crypto_aead/aegis256/aegis256_soft.c:38:11 @[ crypto_aead/aegis256/aegis256_common.h:30:9 ]
	movq	80(%rbx), %r14
	movq	88(%rbx), %r15
.Ltmp204:
	#DEBUG_VALUE: aegis256_update:tmp <- [DW_OP_LLVM_fragment 64 64] $r15
	#DEBUG_VALUE: aegis256_update:tmp <- [DW_OP_LLVM_fragment 0 64] $r14
	.loc	5 39 16                         # crypto_aead/aegis256/aegis256_soft.c:39:16 @[ crypto_aead/aegis256/aegis256_common.h:30:9 ]
	movq	64(%rbx), %rdi
	movq	72(%rbx), %rsi
	movq	%r14, %rdx
	movq	%r15, %rcx
	callq	softaes_block_encrypt@PLT
.Ltmp205:
	movq	%rax, 80(%rbx)
	movq	%rdx, 88(%rbx)
	.loc	5 40 16                         # crypto_aead/aegis256/aegis256_soft.c:40:16 @[ crypto_aead/aegis256/aegis256_common.h:30:9 ]
	movq	48(%rbx), %rdi
	movq	56(%rbx), %rsi
	movq	64(%rbx), %rdx
	movq	72(%rbx), %rcx
	callq	softaes_block_encrypt@PLT
.Ltmp206:
	movq	%rax, 64(%rbx)
	movq	%rdx, 72(%rbx)
	.loc	5 41 16                         # crypto_aead/aegis256/aegis256_soft.c:41:16 @[ crypto_aead/aegis256/aegis256_common.h:30:9 ]
	movq	32(%rbx), %rdi
	movq	40(%rbx), %rsi
	movq	48(%rbx), %rdx
	movq	56(%rbx), %rcx
	callq	softaes_block_encrypt@PLT
.Ltmp207:
	movq	%rax, 48(%rbx)
	movq	%rdx, 56(%rbx)
	.loc	5 42 16                         # crypto_aead/aegis256/aegis256_soft.c:42:16 @[ crypto_aead/aegis256/aegis256_common.h:30:9 ]
	movq	16(%rbx), %rdi
	movq	24(%rbx), %rsi
	movq	32(%rbx), %rdx
	movq	40(%rbx), %rcx
	callq	softaes_block_encrypt@PLT
.Ltmp208:
	movq	%rax, 32(%rbx)
	movq	%rdx, 40(%rbx)
	.loc	5 43 16                         # crypto_aead/aegis256/aegis256_soft.c:43:16 @[ crypto_aead/aegis256/aegis256_common.h:30:9 ]
	movq	(%rbx), %rdi
	movq	8(%rbx), %rsi
	movq	16(%rbx), %rdx
	movq	24(%rbx), %rcx
	callq	softaes_block_encrypt@PLT
.Ltmp209:
	movq	%rax, 16(%rbx)
	movq	%rdx, 24(%rbx)
	.loc	5 44 35                         # crypto_aead/aegis256/aegis256_soft.c:44:35 @[ crypto_aead/aegis256/aegis256_common.h:30:9 ]
	movq	(%rbx), %rdx
	movq	8(%rbx), %rcx
	movq	%r14, %rdi
	movq	%r15, %rsi
	callq	softaes_block_encrypt@PLT
.Ltmp210:
	#DEBUG_VALUE: softaes_block_xor:a <- [DW_OP_LLVM_convert 64 7, DW_OP_LLVM_convert 32 7, DW_OP_stack_value, DW_OP_LLVM_fragment 0 32] $rax
	#DEBUG_VALUE: softaes_block_xor:a <- [DW_OP_constu 32, DW_OP_shr, DW_OP_LLVM_convert 64 7, DW_OP_LLVM_convert 32 7, DW_OP_stack_value, DW_OP_LLVM_fragment 32 32] $rax
	#DEBUG_VALUE: softaes_block_xor:a <- [DW_OP_LLVM_convert 64 7, DW_OP_LLVM_convert 32 7, DW_OP_stack_value, DW_OP_LLVM_fragment 64 32] $rdx
	#DEBUG_VALUE: softaes_block_xor:a <- [DW_OP_constu 32, DW_OP_shr, DW_OP_LLVM_convert 64 7, DW_OP_LLVM_convert 32 7, DW_OP_stack_value, DW_OP_LLVM_fragment 96 32] $rdx
	#DEBUG_VALUE: softaes_block_xor:b <- [DW_OP_plus_uconst 48, DW_OP_deref_size 8, DW_OP_LLVM_convert 64 7, DW_OP_LLVM_convert 32 7, DW_OP_stack_value, DW_OP_LLVM_fragment 0 32] $rsp
	#DEBUG_VALUE: softaes_block_xor:b <- [DW_OP_plus_uconst 48, DW_OP_deref_size 8, DW_OP_constu 32, DW_OP_shr, DW_OP_LLVM_convert 64 7, DW_OP_LLVM_convert 32 7, DW_OP_stack_value, DW_OP_LLVM_fragment 32 32] $rsp
	#DEBUG_VALUE: softaes_block_xor:b <- [DW_OP_plus_uconst 40, DW_OP_deref_size 8, DW_OP_LLVM_convert 64 7, DW_OP_LLVM_convert 32 7, DW_OP_stack_value, DW_OP_LLVM_fragment 64 32] $rsp
	#DEBUG_VALUE: softaes_block_xor:b <- [DW_OP_plus_uconst 40, DW_OP_deref_size 8, DW_OP_constu 32, DW_OP_shr, DW_OP_LLVM_convert 64 7, DW_OP_LLVM_convert 32 7, DW_OP_stack_value, DW_OP_LLVM_fragment 96 32] $rsp
	.loc	8 45 37                         # ./include/sodium/private/softaes.h:45:37 @[ crypto_aead/aegis256/aegis256_soft.c:44:16 @[ crypto_aead/aegis256/aegis256_common.h:30:9 ] ]
	xorq	48(%rsp), %rax                  # 8-byte Folded Reload
.Ltmp211:
	#DEBUG_VALUE: softaes_block_xor:out <- [DW_OP_LLVM_convert 64 7, DW_OP_LLVM_convert 32 7, DW_OP_stack_value, DW_OP_LLVM_fragment 0 32] $rax
	#DEBUG_VALUE: softaes_block_xor:out <- [DW_OP_constu 32, DW_OP_shr, DW_OP_LLVM_convert 64 7, DW_OP_LLVM_convert 32 7, DW_OP_stack_value, DW_OP_LLVM_fragment 32 32] $rax
	.loc	8 45 63 is_stmt 0               # ./include/sodium/private/softaes.h:45:63 @[ crypto_aead/aegis256/aegis256_soft.c:44:16 @[ crypto_aead/aegis256/aegis256_common.h:30:9 ] ]
	xorq	40(%rsp), %rdx                  # 8-byte Folded Reload
.Ltmp212:
	#DEBUG_VALUE: softaes_block_xor:out <- [DW_OP_LLVM_convert 64 7, DW_OP_LLVM_convert 32 7, DW_OP_stack_value, DW_OP_LLVM_fragment 64 32] $rdx
	#DEBUG_VALUE: softaes_block_xor:out <- [DW_OP_constu 32, DW_OP_shr, DW_OP_LLVM_convert 64 7, DW_OP_LLVM_convert 32 7, DW_OP_stack_value, DW_OP_LLVM_fragment 96 32] $rdx
	.loc	5 44 16 is_stmt 1               # crypto_aead/aegis256/aegis256_soft.c:44:16 @[ crypto_aead/aegis256/aegis256_common.h:30:9 ]
	movq	%rax, (%rbx)
	movq	%rdx, 8(%rbx)
.Ltmp213:
	#DEBUG_VALUE: aegis256_update:d <- [DW_OP_plus_uconst 32, DW_OP_deref, DW_OP_LLVM_fragment 0 64] $rsp
	#DEBUG_VALUE: aegis256_update:d <- [DW_OP_plus_uconst 24, DW_OP_deref, DW_OP_LLVM_fragment 64 64] $rsp
	#DEBUG_VALUE: aegis256_update:state <- $rbx
	.loc	5 38 11                         # crypto_aead/aegis256/aegis256_soft.c:38:11 @[ crypto_aead/aegis256/aegis256_common.h:31:9 ]
	movq	80(%rbx), %r14
.Ltmp214:
	movq	88(%rbx), %r15
.Ltmp215:
	#DEBUG_VALUE: aegis256_update:tmp <- [DW_OP_LLVM_fragment 64 64] $r15
	#DEBUG_VALUE: aegis256_update:tmp <- [DW_OP_LLVM_fragment 0 64] $r14
	.loc	5 39 16                         # crypto_aead/aegis256/aegis256_soft.c:39:16 @[ crypto_aead/aegis256/aegis256_common.h:31:9 ]
	movq	64(%rbx), %rdi
	movq	72(%rbx), %rsi
	movq	%r14, %rdx
	movq	%r15, %rcx
	callq	softaes_block_encrypt@PLT
.Ltmp216:
	movq	%rax, 80(%rbx)
	movq	%rdx, 88(%rbx)
	.loc	5 40 16                         # crypto_aead/aegis256/aegis256_soft.c:40:16 @[ crypto_aead/aegis256/aegis256_common.h:31:9 ]
	movq	48(%rbx), %rdi
	movq	56(%rbx), %rsi
	movq	64(%rbx), %rdx
	movq	72(%rbx), %rcx
	callq	softaes_block_encrypt@PLT
.Ltmp217:
	movq	%rax, 64(%rbx)
	movq	%rdx, 72(%rbx)
	.loc	5 41 16                         # crypto_aead/aegis256/aegis256_soft.c:41:16 @[ crypto_aead/aegis256/aegis256_common.h:31:9 ]
	movq	32(%rbx), %rdi
	movq	40(%rbx), %rsi
	movq	48(%rbx), %rdx
	movq	56(%rbx), %rcx
	callq	softaes_block_encrypt@PLT
.Ltmp218:
	movq	%rax, 48(%rbx)
	movq	%rdx, 56(%rbx)
	.loc	5 42 16                         # crypto_aead/aegis256/aegis256_soft.c:42:16 @[ crypto_aead/aegis256/aegis256_common.h:31:9 ]
	movq	16(%rbx), %rdi
	movq	24(%rbx), %rsi
	movq	32(%rbx), %rdx
	movq	40(%rbx), %rcx
	callq	softaes_block_encrypt@PLT
.Ltmp219:
	movq	%rax, 32(%rbx)
	movq	%rdx, 40(%rbx)
	.loc	5 43 16                         # crypto_aead/aegis256/aegis256_soft.c:43:16 @[ crypto_aead/aegis256/aegis256_common.h:31:9 ]
	movq	(%rbx), %rdi
	movq	8(%rbx), %rsi
	movq	16(%rbx), %rdx
	movq	24(%rbx), %rcx
	callq	softaes_block_encrypt@PLT
.Ltmp220:
	movq	%rax, 16(%rbx)
	movq	%rdx, 24(%rbx)
	.loc	5 44 35                         # crypto_aead/aegis256/aegis256_soft.c:44:35 @[ crypto_aead/aegis256/aegis256_common.h:31:9 ]
	movq	(%rbx), %rdx
	movq	8(%rbx), %rcx
	movq	%r14, %rdi
	movq	%r15, %rsi
	callq	softaes_block_encrypt@PLT
.Ltmp221:
	#DEBUG_VALUE: softaes_block_xor:a <- [DW_OP_LLVM_convert 64 7, DW_OP_LLVM_convert 32 7, DW_OP_stack_value, DW_OP_LLVM_fragment 0 32] $rax
	#DEBUG_VALUE: softaes_block_xor:a <- [DW_OP_constu 32, DW_OP_shr, DW_OP_LLVM_convert 64 7, DW_OP_LLVM_convert 32 7, DW_OP_stack_value, DW_OP_LLVM_fragment 32 32] $rax
	#DEBUG_VALUE: softaes_block_xor:a <- [DW_OP_LLVM_convert 64 7, DW_OP_LLVM_convert 32 7, DW_OP_stack_value, DW_OP_LLVM_fragment 64 32] $rdx
	#DEBUG_VALUE: softaes_block_xor:a <- [DW_OP_constu 32, DW_OP_shr, DW_OP_LLVM_convert 64 7, DW_OP_LLVM_convert 32 7, DW_OP_stack_value, DW_OP_LLVM_fragment 96 32] $rdx
	#DEBUG_VALUE: softaes_block_xor:b <- [DW_OP_plus_uconst 32, DW_OP_deref_size 8, DW_OP_LLVM_convert 64 7, DW_OP_LLVM_convert 32 7, DW_OP_stack_value, DW_OP_LLVM_fragment 0 32] $rsp
	#DEBUG_VALUE: softaes_block_xor:b <- [DW_OP_plus_uconst 32, DW_OP_deref_size 8, DW_OP_constu 32, DW_OP_shr, DW_OP_LLVM_convert 64 7, DW_OP_LLVM_convert 32 7, DW_OP_stack_value, DW_OP_LLVM_fragment 32 32] $rsp
	#DEBUG_VALUE: softaes_block_xor:b <- [DW_OP_plus_uconst 24, DW_OP_deref_size 8, DW_OP_LLVM_convert 64 7, DW_OP_LLVM_convert 32 7, DW_OP_stack_value, DW_OP_LLVM_fragment 64 32] $rsp
	#DEBUG_VALUE: softaes_block_xor:b <- [DW_OP_plus_uconst 24, DW_OP_deref_size 8, DW_OP_constu 32, DW_OP_shr, DW_OP_LLVM_convert 64 7, DW_OP_LLVM_convert 32 7, DW_OP_stack_value, DW_OP_LLVM_fragment 96 32] $rsp
	.loc	8 45 37                         # ./include/sodium/private/softaes.h:45:37 @[ crypto_aead/aegis256/aegis256_soft.c:44:16 @[ crypto_aead/aegis256/aegis256_common.h:31:9 ] ]
	xorq	32(%rsp), %rax                  # 8-byte Folded Reload
.Ltmp222:
	#DEBUG_VALUE: softaes_block_xor:out <- [DW_OP_LLVM_convert 64 7, DW_OP_LLVM_convert 32 7, DW_OP_stack_value, DW_OP_LLVM_fragment 0 32] $rax
	#DEBUG_VALUE: softaes_block_xor:out <- [DW_OP_constu 32, DW_OP_shr, DW_OP_LLVM_convert 64 7, DW_OP_LLVM_convert 32 7, DW_OP_stack_value, DW_OP_LLVM_fragment 32 32] $rax
	.loc	8 45 63 is_stmt 0               # ./include/sodium/private/softaes.h:45:63 @[ crypto_aead/aegis256/aegis256_soft.c:44:16 @[ crypto_aead/aegis256/aegis256_common.h:31:9 ] ]
	xorq	24(%rsp), %rdx                  # 8-byte Folded Reload
.Ltmp223:
	#DEBUG_VALUE: softaes_block_xor:out <- [DW_OP_LLVM_convert 64 7, DW_OP_LLVM_convert 32 7, DW_OP_stack_value, DW_OP_LLVM_fragment 64 32] $rdx
	#DEBUG_VALUE: softaes_block_xor:out <- [DW_OP_constu 32, DW_OP_shr, DW_OP_LLVM_convert 64 7, DW_OP_LLVM_convert 32 7, DW_OP_stack_value, DW_OP_LLVM_fragment 96 32] $rdx
	.loc	5 44 16 is_stmt 1               # crypto_aead/aegis256/aegis256_soft.c:44:16 @[ crypto_aead/aegis256/aegis256_common.h:31:9 ]
	movq	%rax, (%rbx)
	movq	%rdx, 8(%rbx)
.Ltmp224:
	#DEBUG_VALUE: aegis256_update:d <- [DW_OP_LLVM_fragment 0 64] undef
	#DEBUG_VALUE: aegis256_update:d <- [DW_OP_LLVM_fragment 64 64] undef
	#DEBUG_VALUE: aegis256_update:state <- $rbx
	.loc	5 38 11                         # crypto_aead/aegis256/aegis256_soft.c:38:11 @[ crypto_aead/aegis256/aegis256_common.h:32:9 ]
	movq	80(%rbx), %r14
.Ltmp225:
	movq	88(%rbx), %r15
.Ltmp226:
	#DEBUG_VALUE: aegis256_update:tmp <- [DW_OP_LLVM_fragment 64 64] $r15
	#DEBUG_VALUE: aegis256_update:tmp <- [DW_OP_LLVM_fragment 0 64] $r14
	.loc	5 39 16                         # crypto_aead/aegis256/aegis256_soft.c:39:16 @[ crypto_aead/aegis256/aegis256_common.h:32:9 ]
	movq	64(%rbx), %rdi
	movq	72(%rbx), %rsi
	movq	%r14, %rdx
	movq	%r15, %rcx
	callq	softaes_block_encrypt@PLT
.Ltmp227:
	movq	%rax, 80(%rbx)
	movq	%rdx, 88(%rbx)
	.loc	5 40 16                         # crypto_aead/aegis256/aegis256_soft.c:40:16 @[ crypto_aead/aegis256/aegis256_common.h:32:9 ]
	movq	48(%rbx), %rdi
	movq	56(%rbx), %rsi
	movq	64(%rbx), %rdx
	movq	72(%rbx), %rcx
	callq	softaes_block_encrypt@PLT
.Ltmp228:
	movq	%rax, 64(%rbx)
	movq	%rdx, 72(%rbx)
	.loc	5 41 16                         # crypto_aead/aegis256/aegis256_soft.c:41:16 @[ crypto_aead/aegis256/aegis256_common.h:32:9 ]
	movq	32(%rbx), %rdi
	movq	40(%rbx), %rsi
	movq	48(%rbx), %rdx
	movq	56(%rbx), %rcx
	callq	softaes_block_encrypt@PLT
.Ltmp229:
	movq	%rax, 48(%rbx)
	movq	%rdx, 56(%rbx)
	.loc	5 42 16                         # crypto_aead/aegis256/aegis256_soft.c:42:16 @[ crypto_aead/aegis256/aegis256_common.h:32:9 ]
	movq	16(%rbx), %rdi
	movq	24(%rbx), %rsi
	movq	32(%rbx), %rdx
	movq	40(%rbx), %rcx
	callq	softaes_block_encrypt@PLT
.Ltmp230:
	movq	%rax, 32(%rbx)
	movq	%rdx, 40(%rbx)
	.loc	5 43 16                         # crypto_aead/aegis256/aegis256_soft.c:43:16 @[ crypto_aead/aegis256/aegis256_common.h:32:9 ]
	movq	(%rbx), %rdi
	movq	8(%rbx), %rsi
	movq	16(%rbx), %rdx
	movq	24(%rbx), %rcx
	callq	softaes_block_encrypt@PLT
.Ltmp231:
	movq	%rax, 16(%rbx)
	movq	%rdx, 24(%rbx)
	.loc	5 44 35                         # crypto_aead/aegis256/aegis256_soft.c:44:35 @[ crypto_aead/aegis256/aegis256_common.h:32:9 ]
	movq	(%rbx), %rdx
	movq	8(%rbx), %rcx
	movq	%r14, %rdi
	movq	%r15, %rsi
	callq	softaes_block_encrypt@PLT
.Ltmp232:
	#DEBUG_VALUE: softaes_block_xor:a <- [DW_OP_LLVM_convert 64 7, DW_OP_LLVM_convert 32 7, DW_OP_stack_value, DW_OP_LLVM_fragment 0 32] $rax
	#DEBUG_VALUE: softaes_block_xor:a <- [DW_OP_constu 32, DW_OP_shr, DW_OP_LLVM_convert 64 7, DW_OP_LLVM_convert 32 7, DW_OP_stack_value, DW_OP_LLVM_fragment 32 32] $rax
	#DEBUG_VALUE: softaes_block_xor:a <- [DW_OP_LLVM_convert 64 7, DW_OP_LLVM_convert 32 7, DW_OP_stack_value, DW_OP_LLVM_fragment 64 32] $rdx
	#DEBUG_VALUE: softaes_block_xor:a <- [DW_OP_constu 32, DW_OP_shr, DW_OP_LLVM_convert 64 7, DW_OP_LLVM_convert 32 7, DW_OP_stack_value, DW_OP_LLVM_fragment 96 32] $rdx
	#DEBUG_VALUE: softaes_block_xor:b <- [DW_OP_LLVM_convert 64 7, DW_OP_LLVM_convert 32 7, DW_OP_stack_value, DW_OP_LLVM_fragment 0 32] undef
	#DEBUG_VALUE: softaes_block_xor:b <- [DW_OP_constu 32, DW_OP_shr, DW_OP_LLVM_convert 64 7, DW_OP_LLVM_convert 32 7, DW_OP_stack_value, DW_OP_LLVM_fragment 32 32] undef
	#DEBUG_VALUE: softaes_block_xor:b <- [DW_OP_LLVM_convert 64 7, DW_OP_LLVM_convert 32 7, DW_OP_stack_value, DW_OP_LLVM_fragment 64 32] undef
	#DEBUG_VALUE: softaes_block_xor:b <- [DW_OP_constu 32, DW_OP_shr, DW_OP_LLVM_convert 64 7, DW_OP_LLVM_convert 32 7, DW_OP_stack_value, DW_OP_LLVM_fragment 96 32] undef
	.loc	8 45 37                         # ./include/sodium/private/softaes.h:45:37 @[ crypto_aead/aegis256/aegis256_soft.c:44:16 @[ crypto_aead/aegis256/aegis256_common.h:32:9 ] ]
	xorq	16(%rsp), %rax                  # 8-byte Folded Reload
.Ltmp233:
	#DEBUG_VALUE: softaes_block_xor:out <- [DW_OP_LLVM_convert 64 7, DW_OP_LLVM_convert 32 7, DW_OP_stack_value, DW_OP_LLVM_fragment 0 32] $rax
	#DEBUG_VALUE: softaes_block_xor:out <- [DW_OP_constu 32, DW_OP_shr, DW_OP_LLVM_convert 64 7, DW_OP_LLVM_convert 32 7, DW_OP_stack_value, DW_OP_LLVM_fragment 32 32] $rax
	.loc	8 45 63 is_stmt 0               # ./include/sodium/private/softaes.h:45:63 @[ crypto_aead/aegis256/aegis256_soft.c:44:16 @[ crypto_aead/aegis256/aegis256_common.h:32:9 ] ]
	xorq	8(%rsp), %rdx                   # 8-byte Folded Reload
.Ltmp234:
	#DEBUG_VALUE: softaes_block_xor:out <- [DW_OP_LLVM_convert 64 7, DW_OP_LLVM_convert 32 7, DW_OP_stack_value, DW_OP_LLVM_fragment 64 32] $rdx
	#DEBUG_VALUE: softaes_block_xor:out <- [DW_OP_constu 32, DW_OP_shr, DW_OP_LLVM_convert 64 7, DW_OP_LLVM_convert 32 7, DW_OP_stack_value, DW_OP_LLVM_fragment 96 32] $rdx
	.loc	5 44 16 is_stmt 1               # crypto_aead/aegis256/aegis256_soft.c:44:16 @[ crypto_aead/aegis256/aegis256_common.h:32:9 ]
	movq	%rax, (%rbx)
	movq	%rdx, 8(%rbx)
.Ltmp235:
	#DEBUG_VALUE: aegis256_update:d <- [DW_OP_LLVM_fragment 0 64] undef
	#DEBUG_VALUE: aegis256_update:d <- [DW_OP_LLVM_fragment 64 64] undef
	#DEBUG_VALUE: aegis256_update:state <- $rbx
	.loc	5 38 11                         # crypto_aead/aegis256/aegis256_soft.c:38:11 @[ crypto_aead/aegis256/aegis256_common.h:33:9 ]
	movq	80(%rbx), %r14
.Ltmp236:
	movq	88(%rbx), %r15
.Ltmp237:
	#DEBUG_VALUE: aegis256_update:tmp <- [DW_OP_LLVM_fragment 64 64] $r15
	#DEBUG_VALUE: aegis256_update:tmp <- [DW_OP_LLVM_fragment 0 64] $r14
	.loc	5 39 16                         # crypto_aead/aegis256/aegis256_soft.c:39:16 @[ crypto_aead/aegis256/aegis256_common.h:33:9 ]
	movq	64(%rbx), %rdi
	movq	72(%rbx), %rsi
	movq	%r14, %rdx
	movq	%r15, %rcx
	callq	softaes_block_encrypt@PLT
.Ltmp238:
	movq	%rax, 80(%rbx)
	movq	%rdx, 88(%rbx)
	.loc	5 40 16                         # crypto_aead/aegis256/aegis256_soft.c:40:16 @[ crypto_aead/aegis256/aegis256_common.h:33:9 ]
	movq	48(%rbx), %rdi
	movq	56(%rbx), %rsi
	movq	64(%rbx), %rdx
	movq	72(%rbx), %rcx
	callq	softaes_block_encrypt@PLT
.Ltmp239:
	movq	%rax, 64(%rbx)
	movq	%rdx, 72(%rbx)
	.loc	5 41 16                         # crypto_aead/aegis256/aegis256_soft.c:41:16 @[ crypto_aead/aegis256/aegis256_common.h:33:9 ]
	movq	32(%rbx), %rdi
	movq	40(%rbx), %rsi
	movq	48(%rbx), %rdx
	movq	56(%rbx), %rcx
	callq	softaes_block_encrypt@PLT
.Ltmp240:
	movq	%rax, 48(%rbx)
	movq	%rdx, 56(%rbx)
	.loc	5 42 16                         # crypto_aead/aegis256/aegis256_soft.c:42:16 @[ crypto_aead/aegis256/aegis256_common.h:33:9 ]
	movq	16(%rbx), %rdi
	movq	24(%rbx), %rsi
	movq	32(%rbx), %rdx
	movq	40(%rbx), %rcx
	callq	softaes_block_encrypt@PLT
.Ltmp241:
	movq	%rax, 32(%rbx)
	movq	%rdx, 40(%rbx)
	.loc	5 43 16                         # crypto_aead/aegis256/aegis256_soft.c:43:16 @[ crypto_aead/aegis256/aegis256_common.h:33:9 ]
	movq	(%rbx), %rdi
	movq	8(%rbx), %rsi
	movq	16(%rbx), %rdx
	movq	24(%rbx), %rcx
	callq	softaes_block_encrypt@PLT
.Ltmp242:
	movq	%rax, 16(%rbx)
	movq	%rdx, 24(%rbx)
	.loc	5 44 35                         # crypto_aead/aegis256/aegis256_soft.c:44:35 @[ crypto_aead/aegis256/aegis256_common.h:33:9 ]
	movq	(%rbx), %rdx
	movq	8(%rbx), %rcx
	movq	%r14, %rdi
	movq	%r15, %rsi
	callq	softaes_block_encrypt@PLT
.Ltmp243:
	#DEBUG_VALUE: softaes_block_xor:a <- [DW_OP_LLVM_convert 64 7, DW_OP_LLVM_convert 32 7, DW_OP_stack_value, DW_OP_LLVM_fragment 0 32] $rax
	#DEBUG_VALUE: softaes_block_xor:a <- [DW_OP_constu 32, DW_OP_shr, DW_OP_LLVM_convert 64 7, DW_OP_LLVM_convert 32 7, DW_OP_stack_value, DW_OP_LLVM_fragment 32 32] $rax
	#DEBUG_VALUE: softaes_block_xor:a <- [DW_OP_LLVM_convert 64 7, DW_OP_LLVM_convert 32 7, DW_OP_stack_value, DW_OP_LLVM_fragment 64 32] $rdx
	#DEBUG_VALUE: softaes_block_xor:a <- [DW_OP_constu 32, DW_OP_shr, DW_OP_LLVM_convert 64 7, DW_OP_LLVM_convert 32 7, DW_OP_stack_value, DW_OP_LLVM_fragment 96 32] $rdx
	#DEBUG_VALUE: softaes_block_xor:b <- [DW_OP_LLVM_convert 64 7, DW_OP_LLVM_convert 32 7, DW_OP_stack_value, DW_OP_LLVM_fragment 0 32] undef
	#DEBUG_VALUE: softaes_block_xor:b <- [DW_OP_constu 32, DW_OP_shr, DW_OP_LLVM_convert 64 7, DW_OP_LLVM_convert 32 7, DW_OP_stack_value, DW_OP_LLVM_fragment 32 32] undef
	#DEBUG_VALUE: softaes_block_xor:b <- [DW_OP_LLVM_convert 64 7, DW_OP_LLVM_convert 32 7, DW_OP_stack_value, DW_OP_LLVM_fragment 64 32] undef
	#DEBUG_VALUE: softaes_block_xor:b <- [DW_OP_constu 32, DW_OP_shr, DW_OP_LLVM_convert 64 7, DW_OP_LLVM_convert 32 7, DW_OP_stack_value, DW_OP_LLVM_fragment 96 32] undef
	.loc	8 45 37                         # ./include/sodium/private/softaes.h:45:37 @[ crypto_aead/aegis256/aegis256_soft.c:44:16 @[ crypto_aead/aegis256/aegis256_common.h:33:9 ] ]
	xorq	%r12, %rax
.Ltmp244:
	#DEBUG_VALUE: softaes_block_xor:out <- [DW_OP_LLVM_convert 64 7, DW_OP_LLVM_convert 32 7, DW_OP_stack_value, DW_OP_LLVM_fragment 0 32] $rax
	#DEBUG_VALUE: softaes_block_xor:out <- [DW_OP_constu 32, DW_OP_shr, DW_OP_LLVM_convert 64 7, DW_OP_LLVM_convert 32 7, DW_OP_stack_value, DW_OP_LLVM_fragment 32 32] $rax
	.loc	8 45 63 is_stmt 0               # ./include/sodium/private/softaes.h:45:63 @[ crypto_aead/aegis256/aegis256_soft.c:44:16 @[ crypto_aead/aegis256/aegis256_common.h:33:9 ] ]
	xorq	%r13, %rdx
.Ltmp245:
	#DEBUG_VALUE: softaes_block_xor:out <- [DW_OP_LLVM_convert 64 7, DW_OP_LLVM_convert 32 7, DW_OP_stack_value, DW_OP_LLVM_fragment 64 32] $rdx
	#DEBUG_VALUE: softaes_block_xor:out <- [DW_OP_constu 32, DW_OP_shr, DW_OP_LLVM_convert 64 7, DW_OP_LLVM_convert 32 7, DW_OP_stack_value, DW_OP_LLVM_fragment 96 32] $rdx
	.loc	5 44 16 is_stmt 1               # crypto_aead/aegis256/aegis256_soft.c:44:16 @[ crypto_aead/aegis256/aegis256_common.h:33:9 ]
	movq	%rax, (%rbx)
	movq	%rdx, 8(%rbx)
.Ltmp246:
	#DEBUG_VALUE: aegis256_init:i <- [DW_OP_consts 4, DW_OP_minus, DW_OP_consts 18446744073709551615, DW_OP_div, DW_OP_consts 1, DW_OP_plus, DW_OP_stack_value] $ebp
	.loc	6 29 19                         # crypto_aead/aegis256/aegis256_common.h:29:19
	decl	%ebp
.Ltmp247:
	.loc	6 29 5 is_stmt 0                # crypto_aead/aegis256/aegis256_common.h:29:5
	jne	.LBB2_1
.Ltmp248:
# %bb.2:
	#DEBUG_VALUE: aegis256_init:key <- [DW_OP_LLVM_entry_value 1] $rdi
	#DEBUG_VALUE: aegis256_init:nonce <- [DW_OP_LLVM_entry_value 1] $rsi
	#DEBUG_VALUE: aegis256_init:state <- $rbx
	#DEBUG_VALUE: aegis256_init:c0 <- [DW_OP_LLVM_fragment 0 64] 939006032783409408
	#DEBUG_VALUE: aegis256_init:c0 <- [DW_OP_LLVM_fragment 64 64] 7095959494080274965
	#DEBUG_VALUE: aegis256_init:c1 <- [DW_OP_LLVM_fragment 0 64] -1067420811828642341
	#DEBUG_VALUE: aegis256_init:c1 <- [DW_OP_LLVM_fragment 64 64] -2510557285622673120
	#DEBUG_VALUE: aegis256_init:k0 <- [DW_OP_plus_uconst 40, DW_OP_deref, DW_OP_LLVM_fragment 64 64] $rsp
	#DEBUG_VALUE: aegis256_init:k0 <- [DW_OP_plus_uconst 48, DW_OP_deref, DW_OP_LLVM_fragment 0 64] $rsp
	#DEBUG_VALUE: aegis256_init:k1 <- [DW_OP_plus_uconst 24, DW_OP_deref, DW_OP_LLVM_fragment 64 64] $rsp
	#DEBUG_VALUE: aegis256_init:k1 <- [DW_OP_plus_uconst 32, DW_OP_deref, DW_OP_LLVM_fragment 0 64] $rsp
	.loc	6 35 1 epilogue_begin is_stmt 1 # crypto_aead/aegis256/aegis256_common.h:35:1
	addq	$56, %rsp
	.cfi_def_cfa_offset 56
	popq	%rbx
.Ltmp249:
	#DEBUG_VALUE: aegis256_init:state <- [DW_OP_LLVM_entry_value 1] $rdx
	.cfi_def_cfa_offset 48
	popq	%r12
	.cfi_def_cfa_offset 40
	popq	%r13
	.cfi_def_cfa_offset 32
	popq	%r14
	.cfi_def_cfa_offset 24
	popq	%r15
	.cfi_def_cfa_offset 16
	popq	%rbp
	.cfi_def_cfa_offset 8
	retq
.Ltmp250:
.Lfunc_end2:
	.size	aegis256_init, .Lfunc_end2-aegis256_init
	.cfi_endproc
                                        # -- End function
	.p2align	4                               # -- Begin function aegis256_absorb2
	.type	aegis256_absorb2,@function
aegis256_absorb2:                       # @aegis256_absorb2
.Lfunc_begin3:
	.loc	6 76 0                          # crypto_aead/aegis256/aegis256_common.h:76:0
	.cfi_startproc
# %bb.0:
	#DEBUG_VALUE: aegis256_absorb2:src <- $rdi
	#DEBUG_VALUE: aegis256_absorb2:state <- $rsi
	#DEBUG_VALUE: softaes_block_load:in <- $rdi
	#DEBUG_VALUE: load32_le:src <- $rdi
	#DEBUG_VALUE: memcpy:__src <- $rdi
	pushq	%rbp
	.cfi_def_cfa_offset 16
	pushq	%r15
	.cfi_def_cfa_offset 24
	pushq	%r14
	.cfi_def_cfa_offset 32
	pushq	%r13
	.cfi_def_cfa_offset 40
	pushq	%r12
	.cfi_def_cfa_offset 48
	pushq	%rbx
	.cfi_def_cfa_offset 56
	pushq	%rax
	.cfi_def_cfa_offset 64
	.cfi_offset %rbx, -56
	.cfi_offset %r12, -48
	.cfi_offset %r13, -40
	.cfi_offset %r14, -32
	.cfi_offset %r15, -24
	.cfi_offset %rbp, -16
	movq	%rsi, %rbx
.Ltmp251:
	#DEBUG_VALUE: memcpy:__len <- 4
	.loc	7 29 10 prologue_end            # /usr/include/x86_64-linux-gnu/bits/string_fortified.h:29:10 @[ ./include/sodium/private/common.h:106:5 @[ ./include/sodium/private/softaes.h:20:32 @[ crypto_aead/aegis256/aegis256_common.h:79:11 ] ] ]
	movq	(%rdi), %r12
.Ltmp252:
	#DEBUG_VALUE: memcpy:__len <- 4
	#DEBUG_VALUE: memcpy:__len <- 4
	#DEBUG_VALUE: load32_le:src <- [DW_OP_plus_uconst 8, DW_OP_stack_value] $rdi
	#DEBUG_VALUE: memcpy:__src <- [DW_OP_plus_uconst 8, DW_OP_stack_value] $rdi
	.loc	7 29 10 is_stmt 0               # /usr/include/x86_64-linux-gnu/bits/string_fortified.h:29:10 @[ ./include/sodium/private/common.h:106:5 @[ ./include/sodium/private/softaes.h:20:70 @[ crypto_aead/aegis256/aegis256_common.h:79:11 ] ] ]
	movq	8(%rdi), %rbp
.Ltmp253:
	#DEBUG_VALUE: aegis256_absorb2:msg <- [DW_OP_LLVM_fragment 64 64] $rbp
	#DEBUG_VALUE: memcpy:__len <- 4
	#DEBUG_VALUE: aegis256_absorb2:msg <- [DW_OP_LLVM_fragment 0 64] $r12
	#DEBUG_VALUE: memcpy:__len <- 4
	#DEBUG_VALUE: softaes_block_load:in <- [DW_OP_plus_uconst 16, DW_OP_stack_value] $rdi
	#DEBUG_VALUE: load32_le:src <- [DW_OP_plus_uconst 16, DW_OP_stack_value] $rdi
	#DEBUG_VALUE: memcpy:__src <- [DW_OP_plus_uconst 16, DW_OP_stack_value] $rdi
	.loc	7 29 10                         # /usr/include/x86_64-linux-gnu/bits/string_fortified.h:29:10 @[ ./include/sodium/private/common.h:106:5 @[ ./include/sodium/private/softaes.h:20:32 @[ crypto_aead/aegis256/aegis256_common.h:80:12 ] ] ]
	movq	16(%rdi), %r13
.Ltmp254:
	#DEBUG_VALUE: memcpy:__len <- 4
	#DEBUG_VALUE: memcpy:__len <- 4
	#DEBUG_VALUE: load32_le:src <- [DW_OP_plus_uconst 24, DW_OP_stack_value] $rdi
	#DEBUG_VALUE: memcpy:__src <- [DW_OP_plus_uconst 24, DW_OP_stack_value] $rdi
	.loc	7 29 10                         # /usr/include/x86_64-linux-gnu/bits/string_fortified.h:29:10 @[ ./include/sodium/private/common.h:106:5 @[ ./include/sodium/private/softaes.h:20:70 @[ crypto_aead/aegis256/aegis256_common.h:80:12 ] ] ]
	movq	24(%rdi), %rax
.Ltmp255:
	#DEBUG_VALUE: aegis256_absorb2:msg2 <- [DW_OP_LLVM_fragment 64 64] $rax
	#DEBUG_VALUE: memcpy:__len <- 4
	#DEBUG_VALUE: aegis256_absorb2:msg2 <- [DW_OP_LLVM_fragment 0 64] $r13
	#DEBUG_VALUE: aegis256_update:d <- [DW_OP_LLVM_fragment 0 64] $r12
	#DEBUG_VALUE: aegis256_update:d <- [DW_OP_LLVM_fragment 64 64] $rbp
	#DEBUG_VALUE: aegis256_update:state <- $rbx
	.loc	7 0 10                          # /usr/include/x86_64-linux-gnu/bits/string_fortified.h:0:10
	movq	%rax, (%rsp)                    # 8-byte Spill
.Ltmp256:
	#DEBUG_VALUE: aegis256_absorb2:msg2 <- [DW_OP_deref, DW_OP_LLVM_fragment 64 64] $rsp
	.loc	5 38 11 is_stmt 1               # crypto_aead/aegis256/aegis256_soft.c:38:11 @[ crypto_aead/aegis256/aegis256_common.h:81:5 ]
	movq	80(%rsi), %r14
	movq	88(%rsi), %r15
.Ltmp257:
	#DEBUG_VALUE: aegis256_update:tmp <- [DW_OP_LLVM_fragment 64 64] $r15
	#DEBUG_VALUE: aegis256_update:tmp <- [DW_OP_LLVM_fragment 0 64] $r14
	.loc	5 39 16                         # crypto_aead/aegis256/aegis256_soft.c:39:16 @[ crypto_aead/aegis256/aegis256_common.h:81:5 ]
	movq	64(%rsi), %rdi
.Ltmp258:
	#DEBUG_VALUE: aegis256_absorb2:src <- [DW_OP_LLVM_entry_value 1] $rdi
	movq	72(%rsi), %rsi
.Ltmp259:
	#DEBUG_VALUE: aegis256_absorb2:state <- $rbx
	movq	%r14, %rdx
	movq	%r15, %rcx
	callq	softaes_block_encrypt@PLT
.Ltmp260:
	movq	%rax, 80(%rbx)
	movq	%rdx, 88(%rbx)
	.loc	5 40 16                         # crypto_aead/aegis256/aegis256_soft.c:40:16 @[ crypto_aead/aegis256/aegis256_common.h:81:5 ]
	movq	48(%rbx), %rdi
	movq	56(%rbx), %rsi
	movq	64(%rbx), %rdx
	movq	72(%rbx), %rcx
	callq	softaes_block_encrypt@PLT
.Ltmp261:
	movq	%rax, 64(%rbx)
	movq	%rdx, 72(%rbx)
	.loc	5 41 16                         # crypto_aead/aegis256/aegis256_soft.c:41:16 @[ crypto_aead/aegis256/aegis256_common.h:81:5 ]
	movq	32(%rbx), %rdi
	movq	40(%rbx), %rsi
	movq	48(%rbx), %rdx
	movq	56(%rbx), %rcx
	callq	softaes_block_encrypt@PLT
.Ltmp262:
	movq	%rax, 48(%rbx)
	movq	%rdx, 56(%rbx)
	.loc	5 42 16                         # crypto_aead/aegis256/aegis256_soft.c:42:16 @[ crypto_aead/aegis256/aegis256_common.h:81:5 ]
	movq	16(%rbx), %rdi
	movq	24(%rbx), %rsi
	movq	32(%rbx), %rdx
	movq	40(%rbx), %rcx
	callq	softaes_block_encrypt@PLT
.Ltmp263:
	movq	%rax, 32(%rbx)
	movq	%rdx, 40(%rbx)
	.loc	5 43 16                         # crypto_aead/aegis256/aegis256_soft.c:43:16 @[ crypto_aead/aegis256/aegis256_common.h:81:5 ]
	movq	(%rbx), %rdi
	movq	8(%rbx), %rsi
	movq	16(%rbx), %rdx
	movq	24(%rbx), %rcx
	callq	softaes_block_encrypt@PLT
.Ltmp264:
	movq	%rax, 16(%rbx)
	movq	%rdx, 24(%rbx)
	.loc	5 44 35                         # crypto_aead/aegis256/aegis256_soft.c:44:35 @[ crypto_aead/aegis256/aegis256_common.h:81:5 ]
	movq	(%rbx), %rdx
	movq	8(%rbx), %rcx
	movq	%r14, %rdi
	movq	%r15, %rsi
	callq	softaes_block_encrypt@PLT
.Ltmp265:
	#DEBUG_VALUE: softaes_block_xor:a <- [DW_OP_LLVM_convert 64 7, DW_OP_LLVM_convert 32 7, DW_OP_stack_value, DW_OP_LLVM_fragment 0 32] $rax
	#DEBUG_VALUE: softaes_block_xor:a <- [DW_OP_constu 32, DW_OP_shr, DW_OP_LLVM_convert 64 7, DW_OP_LLVM_convert 32 7, DW_OP_stack_value, DW_OP_LLVM_fragment 32 32] $rax
	#DEBUG_VALUE: softaes_block_xor:a <- [DW_OP_LLVM_convert 64 7, DW_OP_LLVM_convert 32 7, DW_OP_stack_value, DW_OP_LLVM_fragment 64 32] $rdx
	#DEBUG_VALUE: softaes_block_xor:a <- [DW_OP_constu 32, DW_OP_shr, DW_OP_LLVM_convert 64 7, DW_OP_LLVM_convert 32 7, DW_OP_stack_value, DW_OP_LLVM_fragment 96 32] $rdx
	#DEBUG_VALUE: softaes_block_xor:b <- [DW_OP_LLVM_convert 64 7, DW_OP_LLVM_convert 32 7, DW_OP_stack_value, DW_OP_LLVM_fragment 0 32] $r12
	#DEBUG_VALUE: softaes_block_xor:b <- [DW_OP_constu 32, DW_OP_shr, DW_OP_LLVM_convert 64 7, DW_OP_LLVM_convert 32 7, DW_OP_stack_value, DW_OP_LLVM_fragment 32 32] $r12
	#DEBUG_VALUE: softaes_block_xor:b <- [DW_OP_LLVM_convert 64 7, DW_OP_LLVM_convert 32 7, DW_OP_stack_value, DW_OP_LLVM_fragment 64 32] $rbp
	#DEBUG_VALUE: softaes_block_xor:b <- [DW_OP_constu 32, DW_OP_shr, DW_OP_LLVM_convert 64 7, DW_OP_LLVM_convert 32 7, DW_OP_stack_value, DW_OP_LLVM_fragment 96 32] $rbp
	.loc	8 45 37                         # ./include/sodium/private/softaes.h:45:37 @[ crypto_aead/aegis256/aegis256_soft.c:44:16 @[ crypto_aead/aegis256/aegis256_common.h:81:5 ] ]
	xorq	%r12, %rax
.Ltmp266:
	#DEBUG_VALUE: softaes_block_xor:out <- [DW_OP_LLVM_convert 64 7, DW_OP_LLVM_convert 32 7, DW_OP_stack_value, DW_OP_LLVM_fragment 0 32] $rax
	#DEBUG_VALUE: softaes_block_xor:out <- [DW_OP_constu 32, DW_OP_shr, DW_OP_LLVM_convert 64 7, DW_OP_LLVM_convert 32 7, DW_OP_stack_value, DW_OP_LLVM_fragment 32 32] $rax
	.loc	8 45 63 is_stmt 0               # ./include/sodium/private/softaes.h:45:63 @[ crypto_aead/aegis256/aegis256_soft.c:44:16 @[ crypto_aead/aegis256/aegis256_common.h:81:5 ] ]
	xorq	%rbp, %rdx
.Ltmp267:
	#DEBUG_VALUE: softaes_block_xor:out <- [DW_OP_LLVM_convert 64 7, DW_OP_LLVM_convert 32 7, DW_OP_stack_value, DW_OP_LLVM_fragment 64 32] $rdx
	#DEBUG_VALUE: softaes_block_xor:out <- [DW_OP_constu 32, DW_OP_shr, DW_OP_LLVM_convert 64 7, DW_OP_LLVM_convert 32 7, DW_OP_stack_value, DW_OP_LLVM_fragment 96 32] $rdx
	.loc	5 44 16 is_stmt 1               # crypto_aead/aegis256/aegis256_soft.c:44:16 @[ crypto_aead/aegis256/aegis256_common.h:81:5 ]
	movq	%rax, (%rbx)
	movq	%rdx, 8(%rbx)
.Ltmp268:
	#DEBUG_VALUE: aegis256_update:d <- [DW_OP_LLVM_fragment 0 64] $r13
	#DEBUG_VALUE: aegis256_update:d <- [DW_OP_deref, DW_OP_LLVM_fragment 64 64] $rsp
	#DEBUG_VALUE: aegis256_update:state <- $rbx
	.loc	5 38 11                         # crypto_aead/aegis256/aegis256_soft.c:38:11 @[ crypto_aead/aegis256/aegis256_common.h:82:5 ]
	movq	80(%rbx), %r14
.Ltmp269:
	movq	88(%rbx), %r15
.Ltmp270:
	#DEBUG_VALUE: aegis256_update:tmp <- [DW_OP_LLVM_fragment 64 64] $r15
	#DEBUG_VALUE: aegis256_update:tmp <- [DW_OP_LLVM_fragment 0 64] $r14
	.loc	5 39 16                         # crypto_aead/aegis256/aegis256_soft.c:39:16 @[ crypto_aead/aegis256/aegis256_common.h:82:5 ]
	movq	64(%rbx), %rdi
	movq	72(%rbx), %rsi
	movq	%r14, %rdx
	movq	%r15, %rcx
	callq	softaes_block_encrypt@PLT
.Ltmp271:
	movq	%rax, 80(%rbx)
	movq	%rdx, 88(%rbx)
	.loc	5 40 16                         # crypto_aead/aegis256/aegis256_soft.c:40:16 @[ crypto_aead/aegis256/aegis256_common.h:82:5 ]
	movq	48(%rbx), %rdi
	movq	56(%rbx), %rsi
	movq	64(%rbx), %rdx
	movq	72(%rbx), %rcx
	callq	softaes_block_encrypt@PLT
.Ltmp272:
	movq	%rax, 64(%rbx)
	movq	%rdx, 72(%rbx)
	.loc	5 41 16                         # crypto_aead/aegis256/aegis256_soft.c:41:16 @[ crypto_aead/aegis256/aegis256_common.h:82:5 ]
	movq	32(%rbx), %rdi
	movq	40(%rbx), %rsi
	movq	48(%rbx), %rdx
	movq	56(%rbx), %rcx
	callq	softaes_block_encrypt@PLT
.Ltmp273:
	movq	%rax, 48(%rbx)
	movq	%rdx, 56(%rbx)
	.loc	5 42 16                         # crypto_aead/aegis256/aegis256_soft.c:42:16 @[ crypto_aead/aegis256/aegis256_common.h:82:5 ]
	movq	16(%rbx), %rdi
	movq	24(%rbx), %rsi
	movq	32(%rbx), %rdx
	movq	40(%rbx), %rcx
	callq	softaes_block_encrypt@PLT
.Ltmp274:
	movq	%rax, 32(%rbx)
	movq	%rdx, 40(%rbx)
	.loc	5 43 16                         # crypto_aead/aegis256/aegis256_soft.c:43:16 @[ crypto_aead/aegis256/aegis256_common.h:82:5 ]
	movq	(%rbx), %rdi
	movq	8(%rbx), %rsi
	movq	16(%rbx), %rdx
	movq	24(%rbx), %rcx
	callq	softaes_block_encrypt@PLT
.Ltmp275:
	movq	%rax, 16(%rbx)
	movq	%rdx, 24(%rbx)
	.loc	5 44 35                         # crypto_aead/aegis256/aegis256_soft.c:44:35 @[ crypto_aead/aegis256/aegis256_common.h:82:5 ]
	movq	(%rbx), %rdx
	movq	8(%rbx), %rcx
	movq	%r14, %rdi
	movq	%r15, %rsi
	callq	softaes_block_encrypt@PLT
.Ltmp276:
	#DEBUG_VALUE: softaes_block_xor:a <- [DW_OP_LLVM_convert 64 7, DW_OP_LLVM_convert 32 7, DW_OP_stack_value, DW_OP_LLVM_fragment 0 32] $rax
	#DEBUG_VALUE: softaes_block_xor:a <- [DW_OP_constu 32, DW_OP_shr, DW_OP_LLVM_convert 64 7, DW_OP_LLVM_convert 32 7, DW_OP_stack_value, DW_OP_LLVM_fragment 32 32] $rax
	#DEBUG_VALUE: softaes_block_xor:a <- [DW_OP_LLVM_convert 64 7, DW_OP_LLVM_convert 32 7, DW_OP_stack_value, DW_OP_LLVM_fragment 64 32] $rdx
	#DEBUG_VALUE: softaes_block_xor:a <- [DW_OP_constu 32, DW_OP_shr, DW_OP_LLVM_convert 64 7, DW_OP_LLVM_convert 32 7, DW_OP_stack_value, DW_OP_LLVM_fragment 96 32] $rdx
	#DEBUG_VALUE: softaes_block_xor:b <- [DW_OP_LLVM_convert 64 7, DW_OP_LLVM_convert 32 7, DW_OP_stack_value, DW_OP_LLVM_fragment 0 32] $r13
	#DEBUG_VALUE: softaes_block_xor:b <- [DW_OP_constu 32, DW_OP_shr, DW_OP_LLVM_convert 64 7, DW_OP_LLVM_convert 32 7, DW_OP_stack_value, DW_OP_LLVM_fragment 32 32] $r13
	#DEBUG_VALUE: softaes_block_xor:b <- [DW_OP_deref_size 8, DW_OP_LLVM_convert 64 7, DW_OP_LLVM_convert 32 7, DW_OP_stack_value, DW_OP_LLVM_fragment 64 32] $rsp
	#DEBUG_VALUE: softaes_block_xor:b <- [DW_OP_deref_size 8, DW_OP_constu 32, DW_OP_shr, DW_OP_LLVM_convert 64 7, DW_OP_LLVM_convert 32 7, DW_OP_stack_value, DW_OP_LLVM_fragment 96 32] $rsp
	.loc	8 45 37                         # ./include/sodium/private/softaes.h:45:37 @[ crypto_aead/aegis256/aegis256_soft.c:44:16 @[ crypto_aead/aegis256/aegis256_common.h:82:5 ] ]
	xorq	%r13, %rax
.Ltmp277:
	#DEBUG_VALUE: softaes_block_xor:out <- [DW_OP_LLVM_convert 64 7, DW_OP_LLVM_convert 32 7, DW_OP_stack_value, DW_OP_LLVM_fragment 0 32] $rax
	#DEBUG_VALUE: softaes_block_xor:out <- [DW_OP_constu 32, DW_OP_shr, DW_OP_LLVM_convert 64 7, DW_OP_LLVM_convert 32 7, DW_OP_stack_value, DW_OP_LLVM_fragment 32 32] $rax
	.loc	8 45 63 is_stmt 0               # ./include/sodium/private/softaes.h:45:63 @[ crypto_aead/aegis256/aegis256_soft.c:44:16 @[ crypto_aead/aegis256/aegis256_common.h:82:5 ] ]
	xorq	(%rsp), %rdx                    # 8-byte Folded Reload
.Ltmp278:
	#DEBUG_VALUE: softaes_block_xor:out <- [DW_OP_LLVM_convert 64 7, DW_OP_LLVM_convert 32 7, DW_OP_stack_value, DW_OP_LLVM_fragment 64 32] $rdx
	#DEBUG_VALUE: softaes_block_xor:out <- [DW_OP_constu 32, DW_OP_shr, DW_OP_LLVM_convert 64 7, DW_OP_LLVM_convert 32 7, DW_OP_stack_value, DW_OP_LLVM_fragment 96 32] $rdx
	.loc	5 44 16 is_stmt 1               # crypto_aead/aegis256/aegis256_soft.c:44:16 @[ crypto_aead/aegis256/aegis256_common.h:82:5 ]
	movq	%rax, (%rbx)
	movq	%rdx, 8(%rbx)
.Ltmp279:
	.loc	6 83 1 epilogue_begin           # crypto_aead/aegis256/aegis256_common.h:83:1
	addq	$8, %rsp
	.cfi_def_cfa_offset 56
	popq	%rbx
.Ltmp280:
	#DEBUG_VALUE: aegis256_absorb2:state <- [DW_OP_LLVM_entry_value 1] $rsi
	.cfi_def_cfa_offset 48
	popq	%r12
.Ltmp281:
	.cfi_def_cfa_offset 40
	popq	%r13
.Ltmp282:
	.cfi_def_cfa_offset 32
	popq	%r14
.Ltmp283:
	.cfi_def_cfa_offset 24
	popq	%r15
.Ltmp284:
	.cfi_def_cfa_offset 16
	popq	%rbp
.Ltmp285:
	.cfi_def_cfa_offset 8
	retq
.Ltmp286:
.Lfunc_end3:
	.size	aegis256_absorb2, .Lfunc_end3-aegis256_absorb2
	.cfi_endproc
                                        # -- End function
	.p2align	4                               # -- Begin function aegis256_enc
	.type	aegis256_enc,@function
aegis256_enc:                           # @aegis256_enc
.Lfunc_begin4:
	.loc	6 87 0                          # crypto_aead/aegis256/aegis256_common.h:87:0
	.cfi_startproc
# %bb.0:
	#DEBUG_VALUE: aegis256_enc:dst <- $rdi
	#DEBUG_VALUE: aegis256_enc:src <- $rsi
	#DEBUG_VALUE: aegis256_enc:state <- $rdx
	#DEBUG_VALUE: softaes_block_load:in <- $rsi
	#DEBUG_VALUE: load32_le:src <- $rsi
	#DEBUG_VALUE: memcpy:__src <- $rsi
	#DEBUG_VALUE: load32_le:src <- [DW_OP_plus_uconst 4, DW_OP_stack_value] $rsi
	#DEBUG_VALUE: memcpy:__src <- [DW_OP_plus_uconst 4, DW_OP_stack_value] $rsi
	#DEBUG_VALUE: load32_le:src <- [DW_OP_plus_uconst 8, DW_OP_stack_value] $rsi
	#DEBUG_VALUE: memcpy:__src <- [DW_OP_plus_uconst 8, DW_OP_stack_value] $rsi
	#DEBUG_VALUE: load32_le:src <- [DW_OP_plus_uconst 12, DW_OP_stack_value] $rsi
	#DEBUG_VALUE: memcpy:__src <- [DW_OP_plus_uconst 12, DW_OP_stack_value] $rsi
	pushq	%r15
	.cfi_def_cfa_offset 16
	pushq	%r14
	.cfi_def_cfa_offset 24
	pushq	%rbx
	.cfi_def_cfa_offset 32
	subq	$16, %rsp
	.cfi_def_cfa_offset 48
	.cfi_offset %rbx, -32
	.cfi_offset %r14, -24
	.cfi_offset %r15, -16
	movq	%rdx, %rbx
.Ltmp287:
	#DEBUG_VALUE: memcpy:__len <- 4
	#DEBUG_VALUE: memcpy:__len <- 4
	#DEBUG_VALUE: memcpy:__len <- 4
	#DEBUG_VALUE: memcpy:__len <- 4
	#DEBUG_VALUE: softaes_block_store:out <- $rdi
	#DEBUG_VALUE: store32_le:dst <- $rdi
	#DEBUG_VALUE: memcpy:__dest <- $rdi
	#DEBUG_VALUE: memcpy:__len <- 4
	#DEBUG_VALUE: memcpy:__len <- 4
	#DEBUG_VALUE: memcpy:__len <- 4
	.loc	7 29 10 prologue_end            # /usr/include/x86_64-linux-gnu/bits/string_fortified.h:29:10 @[ ./include/sodium/private/common.h:106:5 @[ ./include/sodium/private/softaes.h:20:32 @[ crypto_aead/aegis256/aegis256_common.h:91:11 ] ] ]
	movups	(%rsi), %xmm4
	movaps	%xmm4, (%rsp)                   # 16-byte Spill
.Ltmp288:
	.loc	6 92 11                         # crypto_aead/aegis256/aegis256_common.h:92:11
	movups	80(%rdx), %xmm0
	.loc	6 94 11                         # crypto_aead/aegis256/aegis256_common.h:94:11
	movups	16(%rdx), %xmm1
	.loc	6 95 37                         # crypto_aead/aegis256/aegis256_common.h:95:37
	movups	32(%rdx), %xmm2
	movups	48(%rdx), %xmm3
.Ltmp289:
	.loc	8 52 37                         # ./include/sodium/private/softaes.h:52:37 @[ crypto_aead/aegis256/aegis256_common.h:95:37 ]
	andps	%xmm2, %xmm3
.Ltmp290:
	.loc	6 93 11                         # crypto_aead/aegis256/aegis256_common.h:93:11
	movups	64(%rdx), %xmm2
.Ltmp291:
	.loc	8 45 37                         # ./include/sodium/private/softaes.h:45:37 @[ crypto_aead/aegis256/aegis256_common.h:94:11 ]
	xorps	%xmm0, %xmm2
.Ltmp292:
	.loc	8 45 37 is_stmt 0               # ./include/sodium/private/softaes.h:45:37 @[ crypto_aead/aegis256/aegis256_common.h:95:11 ]
	xorps	%xmm1, %xmm2
	xorps	%xmm4, %xmm3
	xorps	%xmm2, %xmm3
.Ltmp293:
	#DEBUG_VALUE: memcpy:__len <- 4
	.loc	7 29 10 is_stmt 1               # /usr/include/x86_64-linux-gnu/bits/string_fortified.h:29:10 @[ ./include/sodium/private/common.h:122:5 @[ ./include/sodium/private/softaes.h:36:5 @[ crypto_aead/aegis256/aegis256_common.h:96:5 ] ] ]
	movups	%xmm3, (%rdi)
.Ltmp294:
	#DEBUG_VALUE: aegis256_update:state <- $rbx
	.loc	5 38 11                         # crypto_aead/aegis256/aegis256_soft.c:38:11 @[ crypto_aead/aegis256/aegis256_common.h:98:5 ]
	movq	80(%rdx), %r14
	movq	88(%rdx), %r15
.Ltmp295:
	#DEBUG_VALUE: aegis256_update:tmp <- [DW_OP_LLVM_fragment 64 64] $r15
	#DEBUG_VALUE: aegis256_update:tmp <- [DW_OP_LLVM_fragment 0 64] $r14
	.loc	5 39 16                         # crypto_aead/aegis256/aegis256_soft.c:39:16 @[ crypto_aead/aegis256/aegis256_common.h:98:5 ]
	movq	64(%rdx), %rdi
.Ltmp296:
	#DEBUG_VALUE: aegis256_enc:dst <- [DW_OP_LLVM_entry_value 1] $rdi
	movq	72(%rdx), %rsi
.Ltmp297:
	#DEBUG_VALUE: aegis256_enc:src <- [DW_OP_LLVM_entry_value 1] $rsi
	movq	%r14, %rdx
.Ltmp298:
	#DEBUG_VALUE: aegis256_enc:state <- $rbx
	movq	%r15, %rcx
	callq	softaes_block_encrypt@PLT
.Ltmp299:
	movq	%rax, 80(%rbx)
	movq	%rdx, 88(%rbx)
	.loc	5 40 16                         # crypto_aead/aegis256/aegis256_soft.c:40:16 @[ crypto_aead/aegis256/aegis256_common.h:98:5 ]
	movq	48(%rbx), %rdi
	movq	56(%rbx), %rsi
	movq	64(%rbx), %rdx
	movq	72(%rbx), %rcx
	callq	softaes_block_encrypt@PLT
.Ltmp300:
	movq	%rax, 64(%rbx)
	movq	%rdx, 72(%rbx)
	.loc	5 41 16                         # crypto_aead/aegis256/aegis256_soft.c:41:16 @[ crypto_aead/aegis256/aegis256_common.h:98:5 ]
	movq	32(%rbx), %rdi
	movq	40(%rbx), %rsi
	movq	48(%rbx), %rdx
	movq	56(%rbx), %rcx
	callq	softaes_block_encrypt@PLT
.Ltmp301:
	movq	%rax, 48(%rbx)
	movq	%rdx, 56(%rbx)
	.loc	5 42 16                         # crypto_aead/aegis256/aegis256_soft.c:42:16 @[ crypto_aead/aegis256/aegis256_common.h:98:5 ]
	movq	16(%rbx), %rdi
	movq	24(%rbx), %rsi
	movq	32(%rbx), %rdx
	movq	40(%rbx), %rcx
	callq	softaes_block_encrypt@PLT
.Ltmp302:
	movq	%rax, 32(%rbx)
	movq	%rdx, 40(%rbx)
	.loc	5 43 16                         # crypto_aead/aegis256/aegis256_soft.c:43:16 @[ crypto_aead/aegis256/aegis256_common.h:98:5 ]
	movq	(%rbx), %rdi
	movq	8(%rbx), %rsi
	movq	16(%rbx), %rdx
	movq	24(%rbx), %rcx
	callq	softaes_block_encrypt@PLT
.Ltmp303:
	movq	%rax, 16(%rbx)
	movq	%rdx, 24(%rbx)
	.loc	5 44 35                         # crypto_aead/aegis256/aegis256_soft.c:44:35 @[ crypto_aead/aegis256/aegis256_common.h:98:5 ]
	movq	(%rbx), %rdx
	movq	8(%rbx), %rcx
	movq	%r14, %rdi
	movq	%r15, %rsi
	callq	softaes_block_encrypt@PLT
.Ltmp304:
	#DEBUG_VALUE: softaes_block_xor:a <- [DW_OP_LLVM_convert 64 7, DW_OP_LLVM_convert 32 7, DW_OP_stack_value, DW_OP_LLVM_fragment 0 32] $rax
	#DEBUG_VALUE: softaes_block_xor:a <- [DW_OP_constu 32, DW_OP_shr, DW_OP_LLVM_convert 64 7, DW_OP_LLVM_convert 32 7, DW_OP_stack_value, DW_OP_LLVM_fragment 32 32] $rax
	#DEBUG_VALUE: softaes_block_xor:a <- [DW_OP_LLVM_convert 64 7, DW_OP_LLVM_convert 32 7, DW_OP_stack_value, DW_OP_LLVM_fragment 64 32] $rdx
	#DEBUG_VALUE: softaes_block_xor:a <- [DW_OP_constu 32, DW_OP_shr, DW_OP_LLVM_convert 64 7, DW_OP_LLVM_convert 32 7, DW_OP_stack_value, DW_OP_LLVM_fragment 96 32] $rdx
	.loc	8 45 37                         # ./include/sodium/private/softaes.h:45:37 @[ crypto_aead/aegis256/aegis256_soft.c:44:16 @[ crypto_aead/aegis256/aegis256_common.h:98:5 ] ]
	movq	%rdx, %xmm0
	movq	%rax, %xmm1
	punpcklqdq	%xmm0, %xmm1            # xmm1 = xmm1[0],xmm0[0]
	pxor	(%rsp), %xmm1                   # 16-byte Folded Reload
.Ltmp305:
	.loc	5 44 16                         # crypto_aead/aegis256/aegis256_soft.c:44:16 @[ crypto_aead/aegis256/aegis256_common.h:98:5 ]
	movdqu	%xmm1, (%rbx)
.Ltmp306:
	.loc	6 99 1 epilogue_begin           # crypto_aead/aegis256/aegis256_common.h:99:1
	addq	$16, %rsp
	.cfi_def_cfa_offset 32
	popq	%rbx
.Ltmp307:
	#DEBUG_VALUE: aegis256_enc:state <- [DW_OP_LLVM_entry_value 1] $rdx
	.cfi_def_cfa_offset 24
	popq	%r14
.Ltmp308:
	.cfi_def_cfa_offset 16
	popq	%r15
.Ltmp309:
	.cfi_def_cfa_offset 8
	retq
.Ltmp310:
.Lfunc_end4:
	.size	aegis256_enc, .Lfunc_end4-aegis256_enc
	.cfi_endproc
                                        # -- End function
	.p2align	4                               # -- Begin function aegis256_mac
	.type	aegis256_mac,@function
aegis256_mac:                           # @aegis256_mac
.Lfunc_begin5:
	.loc	6 39 0                          # crypto_aead/aegis256/aegis256_common.h:39:0
	.cfi_startproc
# %bb.0:
	#DEBUG_VALUE: aegis256_mac:mac <- $rdi
	#DEBUG_VALUE: aegis256_mac:maclen <- $rsi
	#DEBUG_VALUE: aegis256_mac:adlen <- $rdx
	#DEBUG_VALUE: aegis256_mac:mlen <- $rcx
	#DEBUG_VALUE: aegis256_mac:state <- $r8
	pushq	%rbp
	.cfi_def_cfa_offset 16
	pushq	%r15
	.cfi_def_cfa_offset 24
	pushq	%r14
	.cfi_def_cfa_offset 32
	pushq	%r13
	.cfi_def_cfa_offset 40
	pushq	%r12
	.cfi_def_cfa_offset 48
	pushq	%rbx
	.cfi_def_cfa_offset 56
	subq	$24, %rsp
	.cfi_def_cfa_offset 80
	.cfi_offset %rbx, -56
	.cfi_offset %r12, -48
	.cfi_offset %r13, -40
	.cfi_offset %r14, -32
	.cfi_offset %r15, -24
	.cfi_offset %rbp, -16
	movq	%r8, %r14
	movq	%rsi, %r15
	movq	%rdi, %rbx
.Ltmp311:
	.loc	6 43 80 prologue_end            # crypto_aead/aegis256/aegis256_common.h:43:80
	movq	%rcx, %xmm0
	movq	%rdx, %xmm1
	punpcklqdq	%xmm0, %xmm1            # xmm1 = xmm1[0],xmm0[0]
	psllq	$3, %xmm1
.Ltmp312:
	#DEBUG_VALUE: aegis256_mac:tmp <- [DW_OP_constu 3, DW_OP_shl, DW_OP_stack_value, DW_OP_LLVM_fragment 0 64] $rdx
	#DEBUG_VALUE: aegis256_mac:tmp <- [DW_OP_constu 3, DW_OP_shl, DW_OP_stack_value, DW_OP_LLVM_fragment 64 64] $rcx
	.loc	6 44 11                         # crypto_aead/aegis256/aegis256_common.h:44:11
	movdqu	48(%r8), %xmm0
.Ltmp313:
	#DEBUG_VALUE: softaes_block_xor:a <- [DW_OP_constu 3, DW_OP_shl, DW_OP_LLVM_convert 64 7, DW_OP_LLVM_convert 32 7, DW_OP_stack_value, DW_OP_LLVM_fragment 0 32] $rdx
	#DEBUG_VALUE: softaes_block_xor:a <- [DW_OP_constu 3, DW_OP_shl, DW_OP_constu 32, DW_OP_shr, DW_OP_LLVM_convert 64 7, DW_OP_LLVM_convert 32 7, DW_OP_stack_value, DW_OP_LLVM_fragment 32 32] $rdx
	#DEBUG_VALUE: softaes_block_xor:a <- [DW_OP_constu 3, DW_OP_shl, DW_OP_LLVM_convert 64 7, DW_OP_LLVM_convert 32 7, DW_OP_stack_value, DW_OP_LLVM_fragment 64 32] $rcx
	#DEBUG_VALUE: softaes_block_xor:a <- [DW_OP_constu 3, DW_OP_shl, DW_OP_constu 32, DW_OP_shr, DW_OP_LLVM_convert 64 7, DW_OP_LLVM_convert 32 7, DW_OP_stack_value, DW_OP_LLVM_fragment 96 32] $rcx
	.loc	8 45 37                         # ./include/sodium/private/softaes.h:45:37 @[ crypto_aead/aegis256/aegis256_common.h:44:11 ]
	pxor	%xmm1, %xmm0
	movdqa	%xmm0, (%rsp)                   # 16-byte Spill
	movl	$7, %ebp
.Ltmp314:
	#DEBUG_VALUE: aegis256_mac:tmp <- [DW_OP_LLVM_fragment 0 64] undef
	#DEBUG_VALUE: aegis256_mac:tmp <- [DW_OP_LLVM_fragment 64 64] undef
	#DEBUG_VALUE: aegis256_mac:i <- 0
	.loc	8 0 37 is_stmt 0                # :0:37
.Ltmp315:
	.p2align	4
.LBB5_1:                                # =>This Inner Loop Header: Depth=1
	#DEBUG_VALUE: aegis256_mac:mac <- $rbx
	#DEBUG_VALUE: aegis256_mac:maclen <- $r15
	#DEBUG_VALUE: aegis256_mac:adlen <- [DW_OP_LLVM_entry_value 1] $rdx
	#DEBUG_VALUE: aegis256_mac:mlen <- [DW_OP_LLVM_entry_value 1] $rcx
	#DEBUG_VALUE: aegis256_mac:state <- $r14
	#DEBUG_VALUE: aegis256_mac:i <- [DW_OP_consts 7, DW_OP_minus, DW_OP_consts 18446744073709551615, DW_OP_div, DW_OP_stack_value] $ebp
	#DEBUG_VALUE: aegis256_update:d <- [DW_OP_LLVM_fragment 0 64] undef
	#DEBUG_VALUE: aegis256_update:d <- [DW_OP_LLVM_fragment 64 64] undef
	#DEBUG_VALUE: aegis256_update:state <- $r14
	.loc	5 38 11 is_stmt 1               # crypto_aead/aegis256/aegis256_soft.c:38:11 @[ crypto_aead/aegis256/aegis256_common.h:47:9 ]
	movq	80(%r14), %r12
	movq	88(%r14), %r13
.Ltmp316:
	#DEBUG_VALUE: aegis256_update:tmp <- [DW_OP_LLVM_fragment 64 64] $r13
	#DEBUG_VALUE: aegis256_update:tmp <- [DW_OP_LLVM_fragment 0 64] $r12
	.loc	5 39 16                         # crypto_aead/aegis256/aegis256_soft.c:39:16 @[ crypto_aead/aegis256/aegis256_common.h:47:9 ]
	movq	64(%r14), %rdi
	movq	72(%r14), %rsi
	movq	%r12, %rdx
	movq	%r13, %rcx
	callq	softaes_block_encrypt@PLT
.Ltmp317:
	movq	%rax, 80(%r14)
	movq	%rdx, 88(%r14)
	.loc	5 40 16                         # crypto_aead/aegis256/aegis256_soft.c:40:16 @[ crypto_aead/aegis256/aegis256_common.h:47:9 ]
	movq	48(%r14), %rdi
	movq	56(%r14), %rsi
	movq	64(%r14), %rdx
	movq	72(%r14), %rcx
	callq	softaes_block_encrypt@PLT
.Ltmp318:
	movq	%rax, 64(%r14)
	movq	%rdx, 72(%r14)
	.loc	5 41 16                         # crypto_aead/aegis256/aegis256_soft.c:41:16 @[ crypto_aead/aegis256/aegis256_common.h:47:9 ]
	movq	32(%r14), %rdi
	movq	40(%r14), %rsi
	movq	48(%r14), %rdx
	movq	56(%r14), %rcx
	callq	softaes_block_encrypt@PLT
.Ltmp319:
	movq	%rax, 48(%r14)
	movq	%rdx, 56(%r14)
	.loc	5 42 16                         # crypto_aead/aegis256/aegis256_soft.c:42:16 @[ crypto_aead/aegis256/aegis256_common.h:47:9 ]
	movq	16(%r14), %rdi
	movq	24(%r14), %rsi
	movq	32(%r14), %rdx
	movq	40(%r14), %rcx
	callq	softaes_block_encrypt@PLT
.Ltmp320:
	movq	%rax, 32(%r14)
	movq	%rdx, 40(%r14)
	.loc	5 43 16                         # crypto_aead/aegis256/aegis256_soft.c:43:16 @[ crypto_aead/aegis256/aegis256_common.h:47:9 ]
	movq	(%r14), %rdi
	movq	8(%r14), %rsi
	movq	16(%r14), %rdx
	movq	24(%r14), %rcx
	callq	softaes_block_encrypt@PLT
.Ltmp321:
	movq	%rax, 16(%r14)
	movq	%rdx, 24(%r14)
	.loc	5 44 35                         # crypto_aead/aegis256/aegis256_soft.c:44:35 @[ crypto_aead/aegis256/aegis256_common.h:47:9 ]
	movq	(%r14), %rdx
	movq	8(%r14), %rcx
	movq	%r12, %rdi
	movq	%r13, %rsi
	callq	softaes_block_encrypt@PLT
.Ltmp322:
	#DEBUG_VALUE: softaes_block_xor:a <- [DW_OP_LLVM_convert 64 7, DW_OP_LLVM_convert 32 7, DW_OP_stack_value, DW_OP_LLVM_fragment 0 32] $rax
	#DEBUG_VALUE: softaes_block_xor:a <- [DW_OP_constu 32, DW_OP_shr, DW_OP_LLVM_convert 64 7, DW_OP_LLVM_convert 32 7, DW_OP_stack_value, DW_OP_LLVM_fragment 32 32] $rax
	#DEBUG_VALUE: softaes_block_xor:a <- [DW_OP_LLVM_convert 64 7, DW_OP_LLVM_convert 32 7, DW_OP_stack_value, DW_OP_LLVM_fragment 64 32] $rdx
	#DEBUG_VALUE: softaes_block_xor:a <- [DW_OP_constu 32, DW_OP_shr, DW_OP_LLVM_convert 64 7, DW_OP_LLVM_convert 32 7, DW_OP_stack_value, DW_OP_LLVM_fragment 96 32] $rdx
	#DEBUG_VALUE: softaes_block_xor:b <- [DW_OP_LLVM_fragment 0 32] undef
	#DEBUG_VALUE: softaes_block_xor:b <- [DW_OP_LLVM_fragment 32 32] undef
	#DEBUG_VALUE: softaes_block_xor:b <- [DW_OP_LLVM_fragment 64 32] undef
	#DEBUG_VALUE: softaes_block_xor:b <- [DW_OP_LLVM_fragment 96 32] undef
	#DEBUG_VALUE: softaes_block_xor:out <- [DW_OP_LLVM_fragment 0 32] undef
	#DEBUG_VALUE: softaes_block_xor:out <- [DW_OP_LLVM_fragment 32 32] undef
	.loc	8 45 37                         # ./include/sodium/private/softaes.h:45:37 @[ crypto_aead/aegis256/aegis256_soft.c:44:16 @[ crypto_aead/aegis256/aegis256_common.h:47:9 ] ]
	movq	%rdx, %xmm1
	movq	%rax, %xmm0
	punpcklqdq	%xmm1, %xmm0            # xmm0 = xmm0[0],xmm1[0]
	pxor	(%rsp), %xmm0                   # 16-byte Folded Reload
.Ltmp323:
	#DEBUG_VALUE: softaes_block_xor:out <- [DW_OP_LLVM_fragment 64 32] undef
	#DEBUG_VALUE: softaes_block_xor:out <- [DW_OP_LLVM_fragment 96 32] undef
	.loc	5 44 16                         # crypto_aead/aegis256/aegis256_soft.c:44:16 @[ crypto_aead/aegis256/aegis256_common.h:47:9 ]
	movdqu	%xmm0, (%r14)
.Ltmp324:
	#DEBUG_VALUE: aegis256_mac:i <- [DW_OP_consts 7, DW_OP_minus, DW_OP_consts 18446744073709551615, DW_OP_div, DW_OP_consts 1, DW_OP_plus, DW_OP_stack_value] $ebp
	.loc	6 46 19                         # crypto_aead/aegis256/aegis256_common.h:46:19
	decl	%ebp
.Ltmp325:
	.loc	6 46 5 is_stmt 0                # crypto_aead/aegis256/aegis256_common.h:46:5
	jne	.LBB5_1
.Ltmp326:
# %bb.2:
	#DEBUG_VALUE: aegis256_mac:mac <- $rbx
	#DEBUG_VALUE: aegis256_mac:maclen <- $r15
	#DEBUG_VALUE: aegis256_mac:adlen <- [DW_OP_LLVM_entry_value 1] $rdx
	#DEBUG_VALUE: aegis256_mac:mlen <- [DW_OP_LLVM_entry_value 1] $rcx
	#DEBUG_VALUE: aegis256_mac:state <- $r14
	.loc	6 50 16 is_stmt 1               # crypto_aead/aegis256/aegis256_common.h:50:16
	cmpq	$32, %r15
	je	.LBB5_6
.Ltmp327:
# %bb.3:
	#DEBUG_VALUE: aegis256_mac:mac <- $rbx
	#DEBUG_VALUE: aegis256_mac:maclen <- $r15
	#DEBUG_VALUE: aegis256_mac:adlen <- [DW_OP_LLVM_entry_value 1] $rdx
	#DEBUG_VALUE: aegis256_mac:mlen <- [DW_OP_LLVM_entry_value 1] $rcx
	#DEBUG_VALUE: aegis256_mac:state <- $r14
	cmpq	$16, %r15
	jne	.LBB5_5
.Ltmp328:
# %bb.4:
	#DEBUG_VALUE: aegis256_mac:mac <- $rbx
	#DEBUG_VALUE: aegis256_mac:maclen <- $r15
	#DEBUG_VALUE: aegis256_mac:adlen <- [DW_OP_LLVM_entry_value 1] $rdx
	#DEBUG_VALUE: aegis256_mac:mlen <- [DW_OP_LLVM_entry_value 1] $rcx
	#DEBUG_VALUE: aegis256_mac:state <- $r14
	#DEBUG_VALUE: softaes_block_xor:a <- [DW_OP_LLVM_fragment 0 32] undef
	#DEBUG_VALUE: softaes_block_xor:a <- [DW_OP_LLVM_fragment 32 32] undef
	#DEBUG_VALUE: softaes_block_xor:a <- [DW_OP_LLVM_fragment 64 32] undef
	#DEBUG_VALUE: softaes_block_xor:a <- [DW_OP_LLVM_fragment 96 32] undef
	#DEBUG_VALUE: softaes_block_xor:b <- [DW_OP_LLVM_fragment 0 32] undef
	#DEBUG_VALUE: softaes_block_xor:b <- [DW_OP_LLVM_fragment 32 32] undef
	#DEBUG_VALUE: softaes_block_xor:b <- [DW_OP_LLVM_fragment 64 32] undef
	#DEBUG_VALUE: softaes_block_xor:b <- [DW_OP_LLVM_fragment 96 32] undef
	#DEBUG_VALUE: softaes_block_xor:out <- [DW_OP_LLVM_fragment 0 32] undef
	#DEBUG_VALUE: softaes_block_xor:out <- [DW_OP_LLVM_fragment 32 32] undef
	#DEBUG_VALUE: softaes_block_xor:out <- [DW_OP_LLVM_fragment 64 32] undef
	#DEBUG_VALUE: softaes_block_xor:out <- [DW_OP_LLVM_fragment 96 32] undef
	#DEBUG_VALUE: softaes_block_xor:a <- [DW_OP_LLVM_fragment 0 32] undef
	#DEBUG_VALUE: softaes_block_xor:a <- [DW_OP_LLVM_fragment 32 32] undef
	#DEBUG_VALUE: softaes_block_xor:a <- [DW_OP_LLVM_fragment 64 32] undef
	#DEBUG_VALUE: softaes_block_xor:a <- [DW_OP_LLVM_fragment 96 32] undef
	#DEBUG_VALUE: softaes_block_xor:b <- [DW_OP_LLVM_fragment 0 32] undef
	#DEBUG_VALUE: softaes_block_xor:b <- [DW_OP_LLVM_fragment 32 32] undef
	#DEBUG_VALUE: softaes_block_xor:b <- [DW_OP_LLVM_fragment 64 32] undef
	#DEBUG_VALUE: softaes_block_xor:b <- [DW_OP_LLVM_fragment 96 32] undef
	#DEBUG_VALUE: softaes_block_xor:out <- [DW_OP_LLVM_fragment 0 32] undef
	#DEBUG_VALUE: softaes_block_xor:out <- [DW_OP_LLVM_fragment 32 32] undef
	#DEBUG_VALUE: softaes_block_xor:out <- [DW_OP_LLVM_fragment 64 32] undef
	#DEBUG_VALUE: softaes_block_xor:out <- [DW_OP_LLVM_fragment 96 32] undef
	#DEBUG_VALUE: softaes_block_xor:a <- [DW_OP_LLVM_fragment 0 32] undef
	#DEBUG_VALUE: softaes_block_xor:a <- [DW_OP_LLVM_fragment 32 32] undef
	#DEBUG_VALUE: softaes_block_xor:a <- [DW_OP_LLVM_fragment 64 32] undef
	#DEBUG_VALUE: softaes_block_xor:a <- [DW_OP_LLVM_fragment 96 32] undef
	#DEBUG_VALUE: softaes_block_xor:b <- [DW_OP_LLVM_fragment 0 32] undef
	#DEBUG_VALUE: softaes_block_xor:b <- [DW_OP_LLVM_fragment 32 32] undef
	#DEBUG_VALUE: softaes_block_xor:b <- [DW_OP_LLVM_fragment 64 32] undef
	#DEBUG_VALUE: softaes_block_xor:b <- [DW_OP_LLVM_fragment 96 32] undef
	#DEBUG_VALUE: softaes_block_xor:out <- [DW_OP_LLVM_fragment 0 32] undef
	#DEBUG_VALUE: softaes_block_xor:out <- [DW_OP_LLVM_fragment 32 32] undef
	#DEBUG_VALUE: softaes_block_xor:out <- [DW_OP_LLVM_fragment 64 32] undef
	#DEBUG_VALUE: softaes_block_xor:out <- [DW_OP_LLVM_fragment 96 32] undef
	#DEBUG_VALUE: softaes_block_xor:a <- [DW_OP_LLVM_fragment 0 32] undef
	#DEBUG_VALUE: softaes_block_xor:a <- [DW_OP_LLVM_fragment 32 32] undef
	#DEBUG_VALUE: softaes_block_xor:a <- [DW_OP_LLVM_fragment 64 32] undef
	#DEBUG_VALUE: softaes_block_xor:a <- [DW_OP_LLVM_fragment 96 32] undef
	#DEBUG_VALUE: softaes_block_xor:b <- [DW_OP_LLVM_fragment 0 32] undef
	#DEBUG_VALUE: softaes_block_xor:b <- [DW_OP_LLVM_fragment 32 32] undef
	#DEBUG_VALUE: softaes_block_xor:b <- [DW_OP_LLVM_fragment 64 32] undef
	#DEBUG_VALUE: softaes_block_xor:b <- [DW_OP_LLVM_fragment 96 32] undef
	#DEBUG_VALUE: softaes_block_xor:out <- [DW_OP_LLVM_fragment 0 32] undef
	#DEBUG_VALUE: softaes_block_xor:out <- [DW_OP_LLVM_fragment 32 32] undef
	#DEBUG_VALUE: softaes_block_xor:out <- [DW_OP_LLVM_fragment 64 32] undef
	#DEBUG_VALUE: softaes_block_xor:out <- [DW_OP_LLVM_fragment 96 32] undef
	#DEBUG_VALUE: softaes_block_xor:a <- [DW_OP_LLVM_fragment 0 32] undef
	#DEBUG_VALUE: softaes_block_xor:a <- [DW_OP_LLVM_fragment 32 32] undef
	#DEBUG_VALUE: softaes_block_xor:a <- [DW_OP_LLVM_fragment 64 32] undef
	#DEBUG_VALUE: softaes_block_xor:a <- [DW_OP_LLVM_fragment 96 32] undef
	#DEBUG_VALUE: softaes_block_xor:b <- [DW_OP_LLVM_fragment 0 32] undef
	#DEBUG_VALUE: softaes_block_xor:b <- [DW_OP_LLVM_fragment 32 32] undef
	#DEBUG_VALUE: softaes_block_xor:b <- [DW_OP_LLVM_fragment 64 32] undef
	#DEBUG_VALUE: softaes_block_xor:b <- [DW_OP_LLVM_fragment 96 32] undef
	#DEBUG_VALUE: softaes_block_xor:out <- [DW_OP_LLVM_fragment 0 32] undef
	#DEBUG_VALUE: softaes_block_xor:out <- [DW_OP_LLVM_fragment 32 32] undef
	#DEBUG_VALUE: softaes_block_xor:out <- [DW_OP_LLVM_fragment 64 32] undef
	#DEBUG_VALUE: softaes_block_xor:out <- [DW_OP_LLVM_fragment 96 32] undef
	#DEBUG_VALUE: aegis256_mac:tmp <- [DW_OP_LLVM_fragment 0 64] undef
	#DEBUG_VALUE: aegis256_mac:tmp <- [DW_OP_LLVM_fragment 64 64] undef
	#DEBUG_VALUE: softaes_block_store:in <- [DW_OP_LLVM_fragment 0 32] undef
	#DEBUG_VALUE: softaes_block_store:in <- [DW_OP_LLVM_fragment 32 32] undef
	#DEBUG_VALUE: softaes_block_store:in <- [DW_OP_LLVM_fragment 64 32] undef
	#DEBUG_VALUE: softaes_block_store:in <- [DW_OP_LLVM_fragment 96 32] undef
	#DEBUG_VALUE: softaes_block_store:out <- $rbx
	#DEBUG_VALUE: store32_le:dst <- $rbx
	#DEBUG_VALUE: store32_le:w <- undef
	#DEBUG_VALUE: memcpy:__dest <- $rbx
	#DEBUG_VALUE: memcpy:__src <- undef
	#DEBUG_VALUE: memcpy:__len <- 4
	#DEBUG_VALUE: store32_le:w <- undef
	#DEBUG_VALUE: memcpy:__src <- undef
	#DEBUG_VALUE: memcpy:__len <- 4
	#DEBUG_VALUE: store32_le:w <- undef
	#DEBUG_VALUE: memcpy:__src <- undef
	#DEBUG_VALUE: memcpy:__len <- 4
	.loc	6 51 15                         # crypto_aead/aegis256/aegis256_common.h:51:15
	movdqu	80(%r14), %xmm1
	.loc	6 53 41                         # crypto_aead/aegis256/aegis256_common.h:53:41
	movdqu	16(%r14), %xmm2
	.loc	6 52 41                         # crypto_aead/aegis256/aegis256_common.h:52:41
	movdqu	32(%r14), %xmm3
	movdqu	48(%r14), %xmm4
.Ltmp329:
	.loc	8 45 37                         # ./include/sodium/private/softaes.h:45:37 @[ crypto_aead/aegis256/aegis256_common.h:52:41 ]
	pxor	%xmm3, %xmm4
.Ltmp330:
	.loc	6 51 15                         # crypto_aead/aegis256/aegis256_common.h:51:15
	movdqu	64(%r14), %xmm3
.Ltmp331:
	.loc	8 45 37                         # ./include/sodium/private/softaes.h:45:37 @[ crypto_aead/aegis256/aegis256_common.h:53:41 ]
	pxor	%xmm1, %xmm3
.Ltmp332:
	.loc	8 45 37 is_stmt 0               # ./include/sodium/private/softaes.h:45:37 @[ crypto_aead/aegis256/aegis256_common.h:51:15 ]
	pxor	%xmm4, %xmm3
.Ltmp333:
	.loc	8 45 37                         # ./include/sodium/private/softaes.h:45:37 @[ crypto_aead/aegis256/aegis256_common.h:52:15 ]
	pxor	%xmm2, %xmm3
.Ltmp334:
	.loc	8 45 37                         # ./include/sodium/private/softaes.h:45:37 @[ crypto_aead/aegis256/aegis256_common.h:53:15 ]
	pxor	%xmm0, %xmm3
.Ltmp335:
	#DEBUG_VALUE: store32_le:w <- undef
	#DEBUG_VALUE: memcpy:__src <- undef
	#DEBUG_VALUE: memcpy:__len <- 4
	.loc	7 29 10 is_stmt 1               # /usr/include/x86_64-linux-gnu/bits/string_fortified.h:29:10 @[ ./include/sodium/private/common.h:122:5 @[ ./include/sodium/private/softaes.h:36:5 @[ crypto_aead/aegis256/aegis256_common.h:54:9 ] ] ]
	movdqu	%xmm3, (%rbx)
.Ltmp336:
	.loc	6 55 5                          # crypto_aead/aegis256/aegis256_common.h:55:5
	jmp	.LBB5_7
.Ltmp337:
.LBB5_6:
	#DEBUG_VALUE: aegis256_mac:mac <- $rbx
	#DEBUG_VALUE: aegis256_mac:maclen <- $r15
	#DEBUG_VALUE: aegis256_mac:adlen <- [DW_OP_LLVM_entry_value 1] $rdx
	#DEBUG_VALUE: aegis256_mac:mlen <- [DW_OP_LLVM_entry_value 1] $rcx
	#DEBUG_VALUE: aegis256_mac:state <- $r14
	#DEBUG_VALUE: softaes_block_xor:a <- [DW_OP_LLVM_fragment 0 32] undef
	#DEBUG_VALUE: softaes_block_xor:a <- [DW_OP_LLVM_fragment 32 32] undef
	#DEBUG_VALUE: softaes_block_xor:a <- [DW_OP_LLVM_fragment 64 32] undef
	#DEBUG_VALUE: softaes_block_xor:a <- [DW_OP_LLVM_fragment 96 32] undef
	#DEBUG_VALUE: softaes_block_xor:b <- [DW_OP_LLVM_fragment 0 32] undef
	#DEBUG_VALUE: softaes_block_xor:b <- [DW_OP_LLVM_fragment 32 32] undef
	#DEBUG_VALUE: softaes_block_xor:b <- [DW_OP_LLVM_fragment 64 32] undef
	#DEBUG_VALUE: softaes_block_xor:b <- [DW_OP_LLVM_fragment 96 32] undef
	#DEBUG_VALUE: softaes_block_xor:out <- [DW_OP_LLVM_fragment 0 32] undef
	#DEBUG_VALUE: softaes_block_xor:out <- [DW_OP_LLVM_fragment 32 32] undef
	#DEBUG_VALUE: softaes_block_xor:out <- [DW_OP_LLVM_fragment 64 32] undef
	#DEBUG_VALUE: softaes_block_xor:out <- [DW_OP_LLVM_fragment 96 32] undef
	#DEBUG_VALUE: softaes_block_xor:a <- [DW_OP_LLVM_fragment 0 32] undef
	#DEBUG_VALUE: softaes_block_xor:a <- [DW_OP_LLVM_fragment 32 32] undef
	#DEBUG_VALUE: softaes_block_xor:a <- [DW_OP_LLVM_fragment 64 32] undef
	#DEBUG_VALUE: softaes_block_xor:a <- [DW_OP_LLVM_fragment 96 32] undef
	#DEBUG_VALUE: softaes_block_xor:b <- [DW_OP_LLVM_fragment 0 32] undef
	#DEBUG_VALUE: softaes_block_xor:b <- [DW_OP_LLVM_fragment 32 32] undef
	#DEBUG_VALUE: softaes_block_xor:b <- [DW_OP_LLVM_fragment 64 32] undef
	#DEBUG_VALUE: softaes_block_xor:b <- [DW_OP_LLVM_fragment 96 32] undef
	#DEBUG_VALUE: softaes_block_xor:out <- [DW_OP_LLVM_fragment 0 32] undef
	#DEBUG_VALUE: softaes_block_xor:out <- [DW_OP_LLVM_fragment 32 32] undef
	#DEBUG_VALUE: softaes_block_xor:out <- [DW_OP_LLVM_fragment 64 32] undef
	#DEBUG_VALUE: softaes_block_xor:out <- [DW_OP_LLVM_fragment 96 32] undef
	#DEBUG_VALUE: aegis256_mac:tmp <- [DW_OP_LLVM_fragment 0 64] undef
	#DEBUG_VALUE: aegis256_mac:tmp <- [DW_OP_LLVM_fragment 64 64] undef
	#DEBUG_VALUE: softaes_block_store:in <- [DW_OP_LLVM_fragment 0 32] undef
	#DEBUG_VALUE: softaes_block_store:in <- [DW_OP_LLVM_fragment 32 32] undef
	#DEBUG_VALUE: softaes_block_store:in <- [DW_OP_LLVM_fragment 64 32] undef
	#DEBUG_VALUE: softaes_block_store:in <- [DW_OP_LLVM_fragment 96 32] undef
	#DEBUG_VALUE: softaes_block_store:out <- $rbx
	#DEBUG_VALUE: store32_le:dst <- $rbx
	#DEBUG_VALUE: store32_le:w <- undef
	#DEBUG_VALUE: memcpy:__dest <- $rbx
	#DEBUG_VALUE: memcpy:__src <- undef
	#DEBUG_VALUE: memcpy:__len <- 4
	#DEBUG_VALUE: store32_le:w <- undef
	#DEBUG_VALUE: memcpy:__src <- undef
	#DEBUG_VALUE: memcpy:__len <- 4
	#DEBUG_VALUE: store32_le:w <- undef
	#DEBUG_VALUE: memcpy:__src <- undef
	#DEBUG_VALUE: memcpy:__len <- 4
	.loc	6 56 34                         # crypto_aead/aegis256/aegis256_common.h:56:34
	movdqu	16(%r14), %xmm1
	movdqu	32(%r14), %xmm2
.Ltmp338:
	.loc	8 45 37                         # ./include/sodium/private/softaes.h:45:37 @[ crypto_aead/aegis256/aegis256_common.h:56:34 ]
	pxor	%xmm1, %xmm2
.Ltmp339:
	.loc	8 45 37 is_stmt 0               # ./include/sodium/private/softaes.h:45:37 @[ crypto_aead/aegis256/aegis256_common.h:56:15 ]
	pxor	%xmm0, %xmm2
.Ltmp340:
	#DEBUG_VALUE: store32_le:w <- undef
	#DEBUG_VALUE: memcpy:__src <- undef
	#DEBUG_VALUE: memcpy:__len <- 4
	.loc	7 29 10 is_stmt 1               # /usr/include/x86_64-linux-gnu/bits/string_fortified.h:29:10 @[ ./include/sodium/private/common.h:122:5 @[ ./include/sodium/private/softaes.h:36:5 @[ crypto_aead/aegis256/aegis256_common.h:57:9 ] ] ]
	movdqu	%xmm2, (%rbx)
.Ltmp341:
	.loc	6 58 15                         # crypto_aead/aegis256/aegis256_common.h:58:15
	movdqu	48(%r14), %xmm0
	.loc	6 58 34 is_stmt 0               # crypto_aead/aegis256/aegis256_common.h:58:34
	movdqu	64(%r14), %xmm1
.Ltmp342:
	#DEBUG_VALUE: softaes_block_xor:a <- [DW_OP_LLVM_fragment 0 32] undef
	#DEBUG_VALUE: softaes_block_xor:a <- [DW_OP_LLVM_fragment 32 32] undef
	#DEBUG_VALUE: softaes_block_xor:a <- [DW_OP_LLVM_fragment 64 32] undef
	#DEBUG_VALUE: softaes_block_xor:a <- [DW_OP_LLVM_fragment 96 32] undef
	#DEBUG_VALUE: softaes_block_xor:b <- [DW_OP_LLVM_fragment 0 32] undef
	#DEBUG_VALUE: softaes_block_xor:b <- [DW_OP_LLVM_fragment 32 32] undef
	#DEBUG_VALUE: softaes_block_xor:b <- [DW_OP_LLVM_fragment 64 32] undef
	#DEBUG_VALUE: softaes_block_xor:b <- [DW_OP_LLVM_fragment 96 32] undef
	#DEBUG_VALUE: softaes_block_xor:out <- [DW_OP_LLVM_fragment 0 32] undef
	#DEBUG_VALUE: softaes_block_xor:out <- [DW_OP_LLVM_fragment 32 32] undef
	#DEBUG_VALUE: softaes_block_xor:out <- [DW_OP_LLVM_fragment 64 32] undef
	#DEBUG_VALUE: softaes_block_xor:out <- [DW_OP_LLVM_fragment 96 32] undef
	#DEBUG_VALUE: softaes_block_xor:a <- [DW_OP_LLVM_fragment 0 32] undef
	#DEBUG_VALUE: softaes_block_xor:a <- [DW_OP_LLVM_fragment 32 32] undef
	#DEBUG_VALUE: softaes_block_xor:a <- [DW_OP_LLVM_fragment 64 32] undef
	#DEBUG_VALUE: softaes_block_xor:a <- [DW_OP_LLVM_fragment 96 32] undef
	#DEBUG_VALUE: softaes_block_xor:b <- [DW_OP_LLVM_fragment 0 32] undef
	#DEBUG_VALUE: softaes_block_xor:b <- [DW_OP_LLVM_fragment 32 32] undef
	#DEBUG_VALUE: softaes_block_xor:b <- [DW_OP_LLVM_fragment 64 32] undef
	#DEBUG_VALUE: softaes_block_xor:b <- [DW_OP_LLVM_fragment 96 32] undef
	#DEBUG_VALUE: softaes_block_xor:out <- [DW_OP_LLVM_fragment 0 32] undef
	#DEBUG_VALUE: softaes_block_xor:out <- [DW_OP_LLVM_fragment 32 32] undef
	#DEBUG_VALUE: softaes_block_xor:out <- [DW_OP_LLVM_fragment 64 32] undef
	#DEBUG_VALUE: softaes_block_xor:out <- [DW_OP_LLVM_fragment 96 32] undef
	#DEBUG_VALUE: aegis256_mac:tmp <- [DW_OP_LLVM_fragment 0 64] undef
	#DEBUG_VALUE: aegis256_mac:tmp <- [DW_OP_LLVM_fragment 64 64] undef
	#DEBUG_VALUE: softaes_block_store:in <- [DW_OP_LLVM_fragment 0 32] undef
	#DEBUG_VALUE: softaes_block_store:in <- [DW_OP_LLVM_fragment 32 32] undef
	#DEBUG_VALUE: softaes_block_store:in <- [DW_OP_LLVM_fragment 64 32] undef
	#DEBUG_VALUE: softaes_block_store:in <- [DW_OP_LLVM_fragment 96 32] undef
	#DEBUG_VALUE: store32_le:w <- undef
	#DEBUG_VALUE: memcpy:__src <- undef
	#DEBUG_VALUE: memcpy:__len <- 4
	#DEBUG_VALUE: store32_le:w <- undef
	#DEBUG_VALUE: memcpy:__src <- undef
	#DEBUG_VALUE: memcpy:__len <- 4
	#DEBUG_VALUE: store32_le:w <- undef
	#DEBUG_VALUE: memcpy:__src <- undef
	#DEBUG_VALUE: memcpy:__len <- 4
	#DEBUG_VALUE: softaes_block_store:out <- [DW_OP_plus_uconst 16, DW_OP_stack_value] $rbx
	#DEBUG_VALUE: store32_le:dst <- [DW_OP_plus_uconst 16, DW_OP_stack_value] $rbx
	#DEBUG_VALUE: memcpy:__dest <- [DW_OP_plus_uconst 16, DW_OP_stack_value] $rbx
	movdqu	80(%r14), %xmm2
.Ltmp343:
	.loc	8 45 37 is_stmt 1               # ./include/sodium/private/softaes.h:45:37 @[ crypto_aead/aegis256/aegis256_common.h:58:34 ]
	pxor	%xmm1, %xmm2
.Ltmp344:
	.loc	8 45 37 is_stmt 0               # ./include/sodium/private/softaes.h:45:37 @[ crypto_aead/aegis256/aegis256_common.h:58:15 ]
	pxor	%xmm0, %xmm2
.Ltmp345:
	#DEBUG_VALUE: store32_le:w <- undef
	#DEBUG_VALUE: memcpy:__src <- undef
	#DEBUG_VALUE: memcpy:__len <- 4
	.loc	7 29 10 is_stmt 1               # /usr/include/x86_64-linux-gnu/bits/string_fortified.h:29:10 @[ ./include/sodium/private/common.h:122:5 @[ ./include/sodium/private/softaes.h:36:5 @[ crypto_aead/aegis256/aegis256_common.h:59:9 ] ] ]
	movdqu	%xmm2, 16(%rbx)
.Ltmp346:
.LBB5_7:
	#DEBUG_VALUE: aegis256_mac:mac <- $rbx
	#DEBUG_VALUE: aegis256_mac:maclen <- $r15
	#DEBUG_VALUE: aegis256_mac:adlen <- [DW_OP_LLVM_entry_value 1] $rdx
	#DEBUG_VALUE: aegis256_mac:mlen <- [DW_OP_LLVM_entry_value 1] $rcx
	#DEBUG_VALUE: aegis256_mac:state <- $r14
	.loc	6 63 1 epilogue_begin           # crypto_aead/aegis256/aegis256_common.h:63:1
	addq	$24, %rsp
	.cfi_def_cfa_offset 56
	popq	%rbx
.Ltmp347:
	#DEBUG_VALUE: aegis256_mac:mac <- [DW_OP_LLVM_entry_value 1] $rdi
	.cfi_def_cfa_offset 48
	popq	%r12
	.cfi_def_cfa_offset 40
	popq	%r13
	.cfi_def_cfa_offset 32
	popq	%r14
.Ltmp348:
	#DEBUG_VALUE: aegis256_mac:state <- [DW_OP_LLVM_entry_value 1] $r8
	.cfi_def_cfa_offset 24
	popq	%r15
.Ltmp349:
	#DEBUG_VALUE: aegis256_mac:maclen <- [DW_OP_LLVM_entry_value 1] $rsi
	.cfi_def_cfa_offset 16
	popq	%rbp
	.cfi_def_cfa_offset 8
	retq
.Ltmp350:
.LBB5_5:
	.cfi_def_cfa_offset 80
	#DEBUG_VALUE: aegis256_mac:mac <- $rbx
	#DEBUG_VALUE: aegis256_mac:maclen <- $r15
	#DEBUG_VALUE: aegis256_mac:adlen <- [DW_OP_LLVM_entry_value 1] $rdx
	#DEBUG_VALUE: aegis256_mac:mlen <- [DW_OP_LLVM_entry_value 1] $rcx
	#DEBUG_VALUE: aegis256_mac:state <- $r14
	#DEBUG_VALUE: memset:__dest <- $rbx
	#DEBUG_VALUE: memset:__ch <- 0
	#DEBUG_VALUE: memset:__len <- $r15
	.loc	7 59 10                         # /usr/include/x86_64-linux-gnu/bits/string_fortified.h:59:10 @[ crypto_aead/aegis256/aegis256_common.h:61:9 ]
	movq	%rbx, %rdi
	xorl	%esi, %esi
	movq	%r15, %rdx
	.loc	7 59 10 epilogue_begin is_stmt 0 # /usr/include/x86_64-linux-gnu/bits/string_fortified.h:59:10 @[ crypto_aead/aegis256/aegis256_common.h:61:9 ]
	addq	$24, %rsp
	.cfi_def_cfa_offset 56
	popq	%rbx
.Ltmp351:
	#DEBUG_VALUE: memset:__dest <- $rdi
	#DEBUG_VALUE: aegis256_mac:mac <- $rdi
	.cfi_def_cfa_offset 48
	popq	%r12
	.cfi_def_cfa_offset 40
	popq	%r13
	.cfi_def_cfa_offset 32
	popq	%r14
.Ltmp352:
	#DEBUG_VALUE: aegis256_mac:state <- [DW_OP_LLVM_entry_value 1] $r8
	.cfi_def_cfa_offset 24
	popq	%r15
.Ltmp353:
	#DEBUG_VALUE: memset:__len <- $rdx
	#DEBUG_VALUE: aegis256_mac:maclen <- $rdx
	.cfi_def_cfa_offset 16
	popq	%rbp
	.cfi_def_cfa_offset 8
.Ltmp354:
	jmp	memset@PLT                      # TAILCALL
.Ltmp355:
.Lfunc_end5:
	.size	aegis256_mac, .Lfunc_end5-aegis256_mac
	.cfi_endproc
                                        # -- End function
	.p2align	4                               # -- Begin function aegis256_dec
	.type	aegis256_dec,@function
aegis256_dec:                           # @aegis256_dec
.Lfunc_begin6:
	.loc	6 103 0 is_stmt 1               # crypto_aead/aegis256/aegis256_common.h:103:0
	.cfi_startproc
# %bb.0:
	#DEBUG_VALUE: aegis256_dec:dst <- $rdi
	#DEBUG_VALUE: aegis256_dec:src <- $rsi
	#DEBUG_VALUE: aegis256_dec:state <- $rdx
	#DEBUG_VALUE: softaes_block_load:in <- $rsi
	#DEBUG_VALUE: load32_le:src <- $rsi
	#DEBUG_VALUE: memcpy:__src <- $rsi
	#DEBUG_VALUE: load32_le:src <- [DW_OP_plus_uconst 4, DW_OP_stack_value] $rsi
	#DEBUG_VALUE: memcpy:__src <- [DW_OP_plus_uconst 4, DW_OP_stack_value] $rsi
	#DEBUG_VALUE: load32_le:src <- [DW_OP_plus_uconst 8, DW_OP_stack_value] $rsi
	#DEBUG_VALUE: memcpy:__src <- [DW_OP_plus_uconst 8, DW_OP_stack_value] $rsi
	#DEBUG_VALUE: load32_le:src <- [DW_OP_plus_uconst 12, DW_OP_stack_value] $rsi
	#DEBUG_VALUE: memcpy:__src <- [DW_OP_plus_uconst 12, DW_OP_stack_value] $rsi
	pushq	%r15
	.cfi_def_cfa_offset 16
	pushq	%r14
	.cfi_def_cfa_offset 24
	pushq	%rbx
	.cfi_def_cfa_offset 32
	subq	$16, %rsp
	.cfi_def_cfa_offset 48
	.cfi_offset %rbx, -32
	.cfi_offset %r14, -24
	.cfi_offset %r15, -16
	movq	%rdx, %rbx
.Ltmp356:
	#DEBUG_VALUE: memcpy:__len <- 4
	#DEBUG_VALUE: memcpy:__len <- 4
	#DEBUG_VALUE: memcpy:__len <- 4
	#DEBUG_VALUE: memcpy:__len <- 4
	#DEBUG_VALUE: softaes_block_store:out <- $rdi
	#DEBUG_VALUE: store32_le:dst <- $rdi
	#DEBUG_VALUE: memcpy:__dest <- $rdi
	#DEBUG_VALUE: memcpy:__len <- 4
	#DEBUG_VALUE: memcpy:__len <- 4
	#DEBUG_VALUE: memcpy:__len <- 4
	.loc	7 29 10 prologue_end            # /usr/include/x86_64-linux-gnu/bits/string_fortified.h:29:10 @[ ./include/sodium/private/common.h:106:5 @[ ./include/sodium/private/softaes.h:20:32 @[ crypto_aead/aegis256/aegis256_common.h:106:11 ] ] ]
	movups	(%rsi), %xmm0
.Ltmp357:
	.loc	6 107 11                        # crypto_aead/aegis256/aegis256_common.h:107:11
	movups	80(%rdx), %xmm1
.Ltmp358:
	.loc	8 45 37                         # ./include/sodium/private/softaes.h:45:37 @[ crypto_aead/aegis256/aegis256_common.h:107:11 ]
	xorps	%xmm0, %xmm1
.Ltmp359:
	.loc	6 109 11                        # crypto_aead/aegis256/aegis256_common.h:109:11
	movups	16(%rdx), %xmm0
	.loc	6 110 37                        # crypto_aead/aegis256/aegis256_common.h:110:37
	movups	32(%rdx), %xmm2
	movups	48(%rdx), %xmm3
.Ltmp360:
	.loc	8 52 37                         # ./include/sodium/private/softaes.h:52:37 @[ crypto_aead/aegis256/aegis256_common.h:110:37 ]
	andps	%xmm2, %xmm3
.Ltmp361:
	.loc	6 108 11                        # crypto_aead/aegis256/aegis256_common.h:108:11
	movups	64(%rdx), %xmm2
.Ltmp362:
	.loc	8 45 37                         # ./include/sodium/private/softaes.h:45:37 @[ crypto_aead/aegis256/aegis256_common.h:108:11 ]
	xorps	%xmm0, %xmm2
.Ltmp363:
	.loc	8 45 37 is_stmt 0               # ./include/sodium/private/softaes.h:45:37 @[ crypto_aead/aegis256/aegis256_common.h:109:11 ]
	xorps	%xmm1, %xmm2
.Ltmp364:
	.loc	8 45 37                         # ./include/sodium/private/softaes.h:45:37 @[ crypto_aead/aegis256/aegis256_common.h:110:11 ]
	xorps	%xmm3, %xmm2
.Ltmp365:
	#DEBUG_VALUE: memcpy:__len <- 4
	.loc	8 0 37                          # ./include/sodium/private/softaes.h:0:37
	movaps	%xmm2, (%rsp)                   # 16-byte Spill
.Ltmp366:
	.loc	7 29 10 is_stmt 1               # /usr/include/x86_64-linux-gnu/bits/string_fortified.h:29:10 @[ ./include/sodium/private/common.h:122:5 @[ ./include/sodium/private/softaes.h:36:5 @[ crypto_aead/aegis256/aegis256_common.h:111:5 ] ] ]
	movups	%xmm2, (%rdi)
.Ltmp367:
	#DEBUG_VALUE: aegis256_update:state <- $rbx
	.loc	5 38 11                         # crypto_aead/aegis256/aegis256_soft.c:38:11 @[ crypto_aead/aegis256/aegis256_common.h:113:5 ]
	movq	80(%rdx), %r14
	movq	88(%rdx), %r15
.Ltmp368:
	#DEBUG_VALUE: aegis256_update:tmp <- [DW_OP_LLVM_fragment 64 64] $r15
	#DEBUG_VALUE: aegis256_update:tmp <- [DW_OP_LLVM_fragment 0 64] $r14
	.loc	5 39 16                         # crypto_aead/aegis256/aegis256_soft.c:39:16 @[ crypto_aead/aegis256/aegis256_common.h:113:5 ]
	movq	64(%rdx), %rdi
.Ltmp369:
	#DEBUG_VALUE: aegis256_dec:dst <- [DW_OP_LLVM_entry_value 1] $rdi
	movq	72(%rdx), %rsi
.Ltmp370:
	#DEBUG_VALUE: aegis256_dec:src <- [DW_OP_LLVM_entry_value 1] $rsi
	movq	%r14, %rdx
.Ltmp371:
	#DEBUG_VALUE: aegis256_dec:state <- $rbx
	movq	%r15, %rcx
	callq	softaes_block_encrypt@PLT
.Ltmp372:
	movq	%rax, 80(%rbx)
	movq	%rdx, 88(%rbx)
	.loc	5 40 16                         # crypto_aead/aegis256/aegis256_soft.c:40:16 @[ crypto_aead/aegis256/aegis256_common.h:113:5 ]
	movq	48(%rbx), %rdi
	movq	56(%rbx), %rsi
	movq	64(%rbx), %rdx
	movq	72(%rbx), %rcx
	callq	softaes_block_encrypt@PLT
.Ltmp373:
	movq	%rax, 64(%rbx)
	movq	%rdx, 72(%rbx)
	.loc	5 41 16                         # crypto_aead/aegis256/aegis256_soft.c:41:16 @[ crypto_aead/aegis256/aegis256_common.h:113:5 ]
	movq	32(%rbx), %rdi
	movq	40(%rbx), %rsi
	movq	48(%rbx), %rdx
	movq	56(%rbx), %rcx
	callq	softaes_block_encrypt@PLT
.Ltmp374:
	movq	%rax, 48(%rbx)
	movq	%rdx, 56(%rbx)
	.loc	5 42 16                         # crypto_aead/aegis256/aegis256_soft.c:42:16 @[ crypto_aead/aegis256/aegis256_common.h:113:5 ]
	movq	16(%rbx), %rdi
	movq	24(%rbx), %rsi
	movq	32(%rbx), %rdx
	movq	40(%rbx), %rcx
	callq	softaes_block_encrypt@PLT
.Ltmp375:
	movq	%rax, 32(%rbx)
	movq	%rdx, 40(%rbx)
	.loc	5 43 16                         # crypto_aead/aegis256/aegis256_soft.c:43:16 @[ crypto_aead/aegis256/aegis256_common.h:113:5 ]
	movq	(%rbx), %rdi
	movq	8(%rbx), %rsi
	movq	16(%rbx), %rdx
	movq	24(%rbx), %rcx
	callq	softaes_block_encrypt@PLT
.Ltmp376:
	movq	%rax, 16(%rbx)
	movq	%rdx, 24(%rbx)
	.loc	5 44 35                         # crypto_aead/aegis256/aegis256_soft.c:44:35 @[ crypto_aead/aegis256/aegis256_common.h:113:5 ]
	movq	(%rbx), %rdx
	movq	8(%rbx), %rcx
	movq	%r14, %rdi
	movq	%r15, %rsi
	callq	softaes_block_encrypt@PLT
.Ltmp377:
	#DEBUG_VALUE: softaes_block_xor:a <- [DW_OP_LLVM_convert 64 7, DW_OP_LLVM_convert 32 7, DW_OP_stack_value, DW_OP_LLVM_fragment 0 32] $rax
	#DEBUG_VALUE: softaes_block_xor:a <- [DW_OP_constu 32, DW_OP_shr, DW_OP_LLVM_convert 64 7, DW_OP_LLVM_convert 32 7, DW_OP_stack_value, DW_OP_LLVM_fragment 32 32] $rax
	#DEBUG_VALUE: softaes_block_xor:a <- [DW_OP_LLVM_convert 64 7, DW_OP_LLVM_convert 32 7, DW_OP_stack_value, DW_OP_LLVM_fragment 64 32] $rdx
	#DEBUG_VALUE: softaes_block_xor:a <- [DW_OP_constu 32, DW_OP_shr, DW_OP_LLVM_convert 64 7, DW_OP_LLVM_convert 32 7, DW_OP_stack_value, DW_OP_LLVM_fragment 96 32] $rdx
	.loc	8 45 37                         # ./include/sodium/private/softaes.h:45:37 @[ crypto_aead/aegis256/aegis256_soft.c:44:16 @[ crypto_aead/aegis256/aegis256_common.h:113:5 ] ]
	movq	%rdx, %xmm0
	movq	%rax, %xmm1
	punpcklqdq	%xmm0, %xmm1            # xmm1 = xmm1[0],xmm0[0]
	pxor	(%rsp), %xmm1                   # 16-byte Folded Reload
.Ltmp378:
	.loc	5 44 16                         # crypto_aead/aegis256/aegis256_soft.c:44:16 @[ crypto_aead/aegis256/aegis256_common.h:113:5 ]
	movdqu	%xmm1, (%rbx)
.Ltmp379:
	.loc	6 114 1 epilogue_begin          # crypto_aead/aegis256/aegis256_common.h:114:1
	addq	$16, %rsp
	.cfi_def_cfa_offset 32
	popq	%rbx
.Ltmp380:
	#DEBUG_VALUE: aegis256_dec:state <- [DW_OP_LLVM_entry_value 1] $rdx
	.cfi_def_cfa_offset 24
	popq	%r14
.Ltmp381:
	.cfi_def_cfa_offset 16
	popq	%r15
.Ltmp382:
	.cfi_def_cfa_offset 8
	retq
.Ltmp383:
.Lfunc_end6:
	.size	aegis256_dec, .Lfunc_end6-aegis256_dec
	.cfi_endproc
                                        # -- End function
	.p2align	4                               # -- Begin function aegis256_declast
	.type	aegis256_declast,@function
aegis256_declast:                       # @aegis256_declast
.Lfunc_begin7:
	.loc	6 118 0                         # crypto_aead/aegis256/aegis256_common.h:118:0
	.cfi_startproc
# %bb.0:
	#DEBUG_VALUE: aegis256_declast:dst <- $rdi
	#DEBUG_VALUE: aegis256_declast:src <- $rsi
	#DEBUG_VALUE: aegis256_declast:len <- $rdx
	#DEBUG_VALUE: aegis256_declast:state <- $rcx
	pushq	%r15
	.cfi_def_cfa_offset 16
	pushq	%r14
	.cfi_def_cfa_offset 24
	pushq	%r13
	.cfi_def_cfa_offset 32
	pushq	%r12
	.cfi_def_cfa_offset 40
	pushq	%rbx
	.cfi_def_cfa_offset 48
	subq	$32, %rsp
	.cfi_def_cfa_offset 80
	.cfi_offset %rbx, -48
	.cfi_offset %r12, -40
	.cfi_offset %r13, -32
	.cfi_offset %r14, -24
	.cfi_offset %r15, -16
	movq	%rcx, %rbx
	movq	%rdx, %r14
	movq	%rdi, %r15
	movq	%fs:40, %rax
	movq	%rax, 24(%rsp)
.Ltmp384:
	#DEBUG_VALUE: memset:__dest <- $rsp
	#DEBUG_VALUE: memset:__ch <- 0
	#DEBUG_VALUE: memset:__len <- 16
	.loc	7 59 10 prologue_end            # /usr/include/x86_64-linux-gnu/bits/string_fortified.h:59:10 @[ crypto_aead/aegis256/aegis256_common.h:122:5 ]
	xorps	%xmm0, %xmm0
	movaps	%xmm0, (%rsp)
.Ltmp385:
	#DEBUG_VALUE: memcpy:__dest <- $rsp
	#DEBUG_VALUE: memcpy:__src <- $rsi
	#DEBUG_VALUE: memcpy:__len <- $r14
	.loc	7 0 10 is_stmt 0                # /usr/include/x86_64-linux-gnu/bits/string_fortified.h:0:10
	movq	%rsp, %r12
	movl	$16, %r13d
.Ltmp386:
	.loc	7 29 10 is_stmt 1               # /usr/include/x86_64-linux-gnu/bits/string_fortified.h:29:10 @[ crypto_aead/aegis256/aegis256_common.h:123:5 ]
	movl	$16, %ecx
.Ltmp387:
	#DEBUG_VALUE: aegis256_declast:state <- $rbx
	movq	%r12, %rdi
.Ltmp388:
	#DEBUG_VALUE: aegis256_declast:dst <- $r15
	callq	__memcpy_chk@PLT
.Ltmp389:
	#DEBUG_VALUE: aegis256_declast:len <- $r14
	#DEBUG_VALUE: aegis256_declast:src <- [DW_OP_LLVM_entry_value 1] $rsi
	#DEBUG_VALUE: softaes_block_load:in <- $rsp
	#DEBUG_VALUE: load32_le:src <- $rsp
	#DEBUG_VALUE: memcpy:__src <- $rsp
	#DEBUG_VALUE: memcpy:__len <- 4
	#DEBUG_VALUE: load32_le:src <- [DW_OP_plus_uconst 4, DW_OP_stack_value] $rsp
	#DEBUG_VALUE: memcpy:__src <- [DW_OP_plus_uconst 4, DW_OP_stack_value] $rsp
	#DEBUG_VALUE: memcpy:__len <- 4
	#DEBUG_VALUE: memcpy:__len <- 4
	#DEBUG_VALUE: load32_le:src <- [DW_OP_plus_uconst 12, DW_OP_stack_value] $rsp
	#DEBUG_VALUE: memcpy:__src <- [DW_OP_plus_uconst 12, DW_OP_stack_value] $rsp
	#DEBUG_VALUE: memcpy:__len <- 4
	#DEBUG_VALUE: load32_le:src <- undef
	#DEBUG_VALUE: memcpy:__src <- undef
	#DEBUG_VALUE: softaes_block_store:out <- $rsp
	#DEBUG_VALUE: store32_le:dst <- $rsp
	#DEBUG_VALUE: memcpy:__dest <- $rsp
	#DEBUG_VALUE: memcpy:__len <- 4
	#DEBUG_VALUE: store32_le:dst <- [DW_OP_plus_uconst 4, DW_OP_stack_value] $rsp
	#DEBUG_VALUE: memcpy:__dest <- [DW_OP_plus_uconst 4, DW_OP_stack_value] $rsp
	#DEBUG_VALUE: memcpy:__len <- 4
	#DEBUG_VALUE: memcpy:__len <- 4
	#DEBUG_VALUE: store32_le:dst <- undef
	#DEBUG_VALUE: memcpy:__dest <- undef
	.loc	6 126 11                        # crypto_aead/aegis256/aegis256_common.h:126:11
	movups	80(%rbx), %xmm0
.Ltmp390:
	.loc	8 45 37                         # ./include/sodium/private/softaes.h:45:37 @[ crypto_aead/aegis256/aegis256_common.h:126:11 ]
	xorps	(%rsp), %xmm0
.Ltmp391:
	.loc	6 128 11                        # crypto_aead/aegis256/aegis256_common.h:128:11
	movups	16(%rbx), %xmm1
	.loc	6 129 37                        # crypto_aead/aegis256/aegis256_common.h:129:37
	movups	32(%rbx), %xmm2
	movups	48(%rbx), %xmm3
.Ltmp392:
	.loc	8 52 37                         # ./include/sodium/private/softaes.h:52:37 @[ crypto_aead/aegis256/aegis256_common.h:129:37 ]
	andps	%xmm2, %xmm3
.Ltmp393:
	.loc	6 127 11                        # crypto_aead/aegis256/aegis256_common.h:127:11
	movups	64(%rbx), %xmm2
.Ltmp394:
	.loc	8 45 37                         # ./include/sodium/private/softaes.h:45:37 @[ crypto_aead/aegis256/aegis256_common.h:127:11 ]
	xorps	%xmm1, %xmm2
.Ltmp395:
	.loc	8 45 37 is_stmt 0               # ./include/sodium/private/softaes.h:45:37 @[ crypto_aead/aegis256/aegis256_common.h:128:11 ]
	xorps	%xmm0, %xmm2
.Ltmp396:
	.loc	8 45 37                         # ./include/sodium/private/softaes.h:45:37 @[ crypto_aead/aegis256/aegis256_common.h:129:11 ]
	xorps	%xmm3, %xmm2
.Ltmp397:
	#DEBUG_VALUE: store32_le:dst <- [DW_OP_plus_uconst 12, DW_OP_stack_value] $rsp
	#DEBUG_VALUE: memcpy:__dest <- [DW_OP_plus_uconst 12, DW_OP_stack_value] $rsp
	#DEBUG_VALUE: memcpy:__len <- 4
	.loc	7 29 10 is_stmt 1               # /usr/include/x86_64-linux-gnu/bits/string_fortified.h:29:10 @[ ./include/sodium/private/common.h:122:5 @[ ./include/sodium/private/softaes.h:36:5 @[ crypto_aead/aegis256/aegis256_common.h:130:5 ] ] ]
	movaps	%xmm2, (%rsp)
.Ltmp398:
	.loc	6 132 16                        # crypto_aead/aegis256/aegis256_common.h:132:16
	leaq	(%rsp,%r14), %rdi
	.loc	6 132 37 is_stmt 0              # crypto_aead/aegis256/aegis256_common.h:132:37
	subq	%r14, %r13
.Ltmp399:
	#DEBUG_VALUE: memset:__len <- $r13
	#DEBUG_VALUE: memset:__dest <- $rdi
	#DEBUG_VALUE: memset:__ch <- 0
	.loc	7 59 10 is_stmt 1               # /usr/include/x86_64-linux-gnu/bits/string_fortified.h:59:10 @[ crypto_aead/aegis256/aegis256_common.h:132:5 ]
	xorl	%esi, %esi
	movq	%r13, %rdx
	callq	memset@PLT
.Ltmp400:
	#DEBUG_VALUE: memcpy:__dest <- $r15
	#DEBUG_VALUE: memcpy:__src <- $rsp
	#DEBUG_VALUE: memcpy:__len <- $r14
	.loc	7 29 10                         # /usr/include/x86_64-linux-gnu/bits/string_fortified.h:29:10 @[ crypto_aead/aegis256/aegis256_common.h:133:5 ]
	movq	%r15, %rdi
	movq	%r12, %rsi
	movq	%r14, %rdx
	callq	memcpy@PLT
.Ltmp401:
	#DEBUG_VALUE: softaes_block_load:in <- $rsp
	#DEBUG_VALUE: load32_le:src <- $rsp
	#DEBUG_VALUE: memcpy:__src <- $rsp
	#DEBUG_VALUE: memcpy:__len <- 4
	.loc	7 29 10 is_stmt 0               # /usr/include/x86_64-linux-gnu/bits/string_fortified.h:29:10 @[ ./include/sodium/private/common.h:106:5 @[ ./include/sodium/private/softaes.h:20:32 @[ crypto_aead/aegis256/aegis256_common.h:135:11 ] ] ]
	movq	(%rsp), %r13
.Ltmp402:
	#DEBUG_VALUE: load32_le:src <- [DW_OP_plus_uconst 4, DW_OP_stack_value] $rsp
	#DEBUG_VALUE: memcpy:__src <- [DW_OP_plus_uconst 4, DW_OP_stack_value] $rsp
	#DEBUG_VALUE: memcpy:__len <- 4
	#DEBUG_VALUE: memcpy:__len <- 4
	#DEBUG_VALUE: load32_le:src <- undef
	#DEBUG_VALUE: memcpy:__src <- undef
	.loc	7 29 10                         # /usr/include/x86_64-linux-gnu/bits/string_fortified.h:29:10 @[ ./include/sodium/private/common.h:106:5 @[ ./include/sodium/private/softaes.h:20:70 @[ crypto_aead/aegis256/aegis256_common.h:135:11 ] ] ]
	movq	8(%rsp), %r12
.Ltmp403:
	#DEBUG_VALUE: aegis256_declast:msg <- [DW_OP_LLVM_fragment 64 64] $r12
	#DEBUG_VALUE: aegis256_update:d <- [DW_OP_LLVM_fragment 64 64] $r12
	#DEBUG_VALUE: load32_le:src <- [DW_OP_plus_uconst 12, DW_OP_stack_value] $rsp
	#DEBUG_VALUE: memcpy:__src <- [DW_OP_plus_uconst 12, DW_OP_stack_value] $rsp
	#DEBUG_VALUE: memcpy:__len <- 4
	#DEBUG_VALUE: aegis256_update:state <- $rbx
	#DEBUG_VALUE: aegis256_declast:msg <- [DW_OP_LLVM_fragment 0 64] $r13
	#DEBUG_VALUE: aegis256_update:d <- [DW_OP_LLVM_fragment 0 64] $r13
	.loc	5 38 11 is_stmt 1               # crypto_aead/aegis256/aegis256_soft.c:38:11 @[ crypto_aead/aegis256/aegis256_common.h:137:5 ]
	movq	80(%rbx), %r14
.Ltmp404:
	#DEBUG_VALUE: aegis256_declast:len <- [DW_OP_LLVM_entry_value 1] $rdx
	movq	88(%rbx), %r15
.Ltmp405:
	#DEBUG_VALUE: aegis256_declast:dst <- [DW_OP_LLVM_entry_value 1] $rdi
	#DEBUG_VALUE: aegis256_update:tmp <- [DW_OP_LLVM_fragment 64 64] $r15
	#DEBUG_VALUE: aegis256_update:tmp <- [DW_OP_LLVM_fragment 0 64] $r14
	.loc	5 39 16                         # crypto_aead/aegis256/aegis256_soft.c:39:16 @[ crypto_aead/aegis256/aegis256_common.h:137:5 ]
	movq	64(%rbx), %rdi
	movq	72(%rbx), %rsi
	movq	%r14, %rdx
	movq	%r15, %rcx
	callq	softaes_block_encrypt@PLT
.Ltmp406:
	movq	%rax, 80(%rbx)
	movq	%rdx, 88(%rbx)
	.loc	5 40 16                         # crypto_aead/aegis256/aegis256_soft.c:40:16 @[ crypto_aead/aegis256/aegis256_common.h:137:5 ]
	movq	48(%rbx), %rdi
	movq	56(%rbx), %rsi
	movq	64(%rbx), %rdx
	movq	72(%rbx), %rcx
	callq	softaes_block_encrypt@PLT
.Ltmp407:
	movq	%rax, 64(%rbx)
	movq	%rdx, 72(%rbx)
	.loc	5 41 16                         # crypto_aead/aegis256/aegis256_soft.c:41:16 @[ crypto_aead/aegis256/aegis256_common.h:137:5 ]
	movq	32(%rbx), %rdi
	movq	40(%rbx), %rsi
	movq	48(%rbx), %rdx
	movq	56(%rbx), %rcx
	callq	softaes_block_encrypt@PLT
.Ltmp408:
	movq	%rax, 48(%rbx)
	movq	%rdx, 56(%rbx)
	.loc	5 42 16                         # crypto_aead/aegis256/aegis256_soft.c:42:16 @[ crypto_aead/aegis256/aegis256_common.h:137:5 ]
	movq	16(%rbx), %rdi
	movq	24(%rbx), %rsi
	movq	32(%rbx), %rdx
	movq	40(%rbx), %rcx
	callq	softaes_block_encrypt@PLT
.Ltmp409:
	movq	%rax, 32(%rbx)
	movq	%rdx, 40(%rbx)
	.loc	5 43 16                         # crypto_aead/aegis256/aegis256_soft.c:43:16 @[ crypto_aead/aegis256/aegis256_common.h:137:5 ]
	movq	(%rbx), %rdi
	movq	8(%rbx), %rsi
	movq	16(%rbx), %rdx
	movq	24(%rbx), %rcx
	callq	softaes_block_encrypt@PLT
.Ltmp410:
	movq	%rax, 16(%rbx)
	movq	%rdx, 24(%rbx)
	.loc	5 44 35                         # crypto_aead/aegis256/aegis256_soft.c:44:35 @[ crypto_aead/aegis256/aegis256_common.h:137:5 ]
	movq	(%rbx), %rdx
	movq	8(%rbx), %rcx
	movq	%r14, %rdi
	movq	%r15, %rsi
	callq	softaes_block_encrypt@PLT
.Ltmp411:
	#DEBUG_VALUE: softaes_block_xor:a <- [DW_OP_LLVM_convert 64 7, DW_OP_LLVM_convert 32 7, DW_OP_stack_value, DW_OP_LLVM_fragment 0 32] $rax
	#DEBUG_VALUE: softaes_block_xor:a <- [DW_OP_constu 32, DW_OP_shr, DW_OP_LLVM_convert 64 7, DW_OP_LLVM_convert 32 7, DW_OP_stack_value, DW_OP_LLVM_fragment 32 32] $rax
	#DEBUG_VALUE: softaes_block_xor:a <- [DW_OP_LLVM_convert 64 7, DW_OP_LLVM_convert 32 7, DW_OP_stack_value, DW_OP_LLVM_fragment 64 32] $rdx
	#DEBUG_VALUE: softaes_block_xor:a <- [DW_OP_constu 32, DW_OP_shr, DW_OP_LLVM_convert 64 7, DW_OP_LLVM_convert 32 7, DW_OP_stack_value, DW_OP_LLVM_fragment 96 32] $rdx
	#DEBUG_VALUE: softaes_block_xor:b <- [DW_OP_LLVM_convert 64 7, DW_OP_LLVM_convert 32 7, DW_OP_stack_value, DW_OP_LLVM_fragment 64 32] $r12
	#DEBUG_VALUE: softaes_block_xor:b <- [DW_OP_constu 32, DW_OP_shr, DW_OP_LLVM_convert 64 7, DW_OP_LLVM_convert 32 7, DW_OP_stack_value, DW_OP_LLVM_fragment 96 32] $r12
	#DEBUG_VALUE: softaes_block_xor:b <- [DW_OP_LLVM_convert 64 7, DW_OP_LLVM_convert 32 7, DW_OP_stack_value, DW_OP_LLVM_fragment 0 32] $r13
	#DEBUG_VALUE: softaes_block_xor:b <- [DW_OP_constu 32, DW_OP_shr, DW_OP_LLVM_convert 64 7, DW_OP_LLVM_convert 32 7, DW_OP_stack_value, DW_OP_LLVM_fragment 32 32] $r13
	.loc	8 45 37                         # ./include/sodium/private/softaes.h:45:37 @[ crypto_aead/aegis256/aegis256_soft.c:44:16 @[ crypto_aead/aegis256/aegis256_common.h:137:5 ] ]
	xorq	%r13, %rax
.Ltmp412:
	#DEBUG_VALUE: softaes_block_xor:out <- [DW_OP_LLVM_convert 64 7, DW_OP_LLVM_convert 32 7, DW_OP_stack_value, DW_OP_LLVM_fragment 0 32] $rax
	#DEBUG_VALUE: softaes_block_xor:out <- [DW_OP_constu 32, DW_OP_shr, DW_OP_LLVM_convert 64 7, DW_OP_LLVM_convert 32 7, DW_OP_stack_value, DW_OP_LLVM_fragment 32 32] $rax
	.loc	8 45 63 is_stmt 0               # ./include/sodium/private/softaes.h:45:63 @[ crypto_aead/aegis256/aegis256_soft.c:44:16 @[ crypto_aead/aegis256/aegis256_common.h:137:5 ] ]
	xorq	%r12, %rdx
.Ltmp413:
	#DEBUG_VALUE: softaes_block_xor:out <- [DW_OP_LLVM_convert 64 7, DW_OP_LLVM_convert 32 7, DW_OP_stack_value, DW_OP_LLVM_fragment 64 32] $rdx
	#DEBUG_VALUE: softaes_block_xor:out <- [DW_OP_constu 32, DW_OP_shr, DW_OP_LLVM_convert 64 7, DW_OP_LLVM_convert 32 7, DW_OP_stack_value, DW_OP_LLVM_fragment 96 32] $rdx
	.loc	5 44 16 is_stmt 1               # crypto_aead/aegis256/aegis256_soft.c:44:16 @[ crypto_aead/aegis256/aegis256_common.h:137:5 ]
	movq	%rax, (%rbx)
	movq	%rdx, 8(%rbx)
.Ltmp414:
	.loc	6 138 1                         # crypto_aead/aegis256/aegis256_common.h:138:1
	movq	%fs:40, %rax
.Ltmp415:
	cmpq	24(%rsp), %rax
	jne	.LBB7_2
.Ltmp416:
# %bb.1:                                # %SP_return
	#DEBUG_VALUE: aegis256_declast:dst <- [DW_OP_LLVM_entry_value 1] $rdi
	#DEBUG_VALUE: aegis256_declast:src <- [DW_OP_LLVM_entry_value 1] $rsi
	#DEBUG_VALUE: aegis256_declast:len <- [DW_OP_LLVM_entry_value 1] $rdx
	#DEBUG_VALUE: aegis256_declast:state <- $rbx
	#DEBUG_VALUE: aegis256_declast:msg <- [DW_OP_LLVM_fragment 64 64] $r12
	#DEBUG_VALUE: aegis256_declast:msg <- [DW_OP_LLVM_fragment 0 64] $r13
	.loc	6 138 1 epilogue_begin is_stmt 0 # crypto_aead/aegis256/aegis256_common.h:138:1
	addq	$32, %rsp
	.cfi_def_cfa_offset 48
	popq	%rbx
.Ltmp417:
	#DEBUG_VALUE: aegis256_declast:state <- [DW_OP_LLVM_entry_value 1] $rcx
	.cfi_def_cfa_offset 40
	popq	%r12
.Ltmp418:
	.cfi_def_cfa_offset 32
	popq	%r13
.Ltmp419:
	.cfi_def_cfa_offset 24
	popq	%r14
	.cfi_def_cfa_offset 16
	popq	%r15
	.cfi_def_cfa_offset 8
	retq
.Ltmp420:
.LBB7_2:                                # %CallStackCheckFailBlk
	.cfi_def_cfa_offset 80
	#DEBUG_VALUE: aegis256_declast:dst <- [DW_OP_LLVM_entry_value 1] $rdi
	#DEBUG_VALUE: aegis256_declast:src <- [DW_OP_LLVM_entry_value 1] $rsi
	#DEBUG_VALUE: aegis256_declast:len <- [DW_OP_LLVM_entry_value 1] $rdx
	#DEBUG_VALUE: aegis256_declast:state <- $rbx
	#DEBUG_VALUE: memset:__dest <- $rsp
	#DEBUG_VALUE: memset:__ch <- 0
	#DEBUG_VALUE: memset:__len <- 16
	#DEBUG_VALUE: memcpy:__dest <- $rsp
	#DEBUG_VALUE: softaes_block_store:out <- $rsp
	#DEBUG_VALUE: store32_le:dst <- $rsp
	#DEBUG_VALUE: memcpy:__dest <- $rsp
	#DEBUG_VALUE: memcpy:__len <- 4
	#DEBUG_VALUE: memset:__ch <- 0
	#DEBUG_VALUE: memcpy:__src <- $rsp
	#DEBUG_VALUE: softaes_block_load:in <- $rsp
	#DEBUG_VALUE: load32_le:src <- $rsp
	#DEBUG_VALUE: memcpy:__src <- $rsp
	#DEBUG_VALUE: memcpy:__len <- 4
	#DEBUG_VALUE: memcpy:__len <- 4
	#DEBUG_VALUE: aegis256_declast:msg <- [DW_OP_LLVM_fragment 64 64] $r12
	#DEBUG_VALUE: aegis256_update:d <- [DW_OP_LLVM_fragment 64 64] $r12
	#DEBUG_VALUE: aegis256_update:state <- $rbx
	#DEBUG_VALUE: aegis256_declast:msg <- [DW_OP_LLVM_fragment 0 64] $r13
	#DEBUG_VALUE: aegis256_update:d <- [DW_OP_LLVM_fragment 0 64] $r13
	#DEBUG_VALUE: aegis256_update:tmp <- [DW_OP_LLVM_fragment 64 64] $r15
	#DEBUG_VALUE: aegis256_update:tmp <- [DW_OP_LLVM_fragment 0 64] $r14
	#DEBUG_VALUE: softaes_block_xor:b <- [DW_OP_LLVM_convert 64 7, DW_OP_LLVM_convert 32 7, DW_OP_stack_value, DW_OP_LLVM_fragment 64 32] $r12
	#DEBUG_VALUE: softaes_block_xor:b <- [DW_OP_constu 32, DW_OP_shr, DW_OP_LLVM_convert 64 7, DW_OP_LLVM_convert 32 7, DW_OP_stack_value, DW_OP_LLVM_fragment 96 32] $r12
	#DEBUG_VALUE: softaes_block_xor:b <- [DW_OP_LLVM_convert 64 7, DW_OP_LLVM_convert 32 7, DW_OP_stack_value, DW_OP_LLVM_fragment 0 32] $r13
	#DEBUG_VALUE: softaes_block_xor:b <- [DW_OP_constu 32, DW_OP_shr, DW_OP_LLVM_convert 64 7, DW_OP_LLVM_convert 32 7, DW_OP_stack_value, DW_OP_LLVM_fragment 32 32] $r13
	#DEBUG_VALUE: softaes_block_xor:out <- [DW_OP_LLVM_convert 64 7, DW_OP_LLVM_convert 32 7, DW_OP_stack_value, DW_OP_LLVM_fragment 64 32] $rdx
	#DEBUG_VALUE: softaes_block_xor:out <- [DW_OP_constu 32, DW_OP_shr, DW_OP_LLVM_convert 64 7, DW_OP_LLVM_convert 32 7, DW_OP_stack_value, DW_OP_LLVM_fragment 96 32] $rdx
	.loc	6 0 0                           # crypto_aead/aegis256/aegis256_common.h:0
	callq	__stack_chk_fail@PLT
.Ltmp421:
.Lfunc_end7:
	.size	aegis256_declast, .Lfunc_end7-aegis256_declast
	.cfi_endproc
                                        # -- End function
	.hidden	aegis256_soft_implementation    # @aegis256_soft_implementation
	.type	aegis256_soft_implementation,@object
	.data
	.globl	aegis256_soft_implementation
	.p2align	3, 0x0
aegis256_soft_implementation:
	.quad	encrypt_detached
	.quad	decrypt_detached
	.size	aegis256_soft_implementation, 16

	.section	".note.GNU-stack","",@progbits
	.addrsig
	.addrsig_sym encrypt_detached
	.addrsig_sym decrypt_detached
	.addrsig_sym __stack_chk_fail