	.file	"aegis256_aesni.c"
	.file	0 "/home/leizhenyuu/opt/Anonymous_Repo/libsodium_o2_attr_inline/src/libsodium" "aegis256_aesni.c" md5 0x3b9005f4748f177fcb874bac995b158f
	.file	1 "/usr/include/x86_64-linux-gnu/bits" "types.h"
	.file	2 "/usr/include/x86_64-linux-gnu/bits" "stdint-uintn.h"
	.file	3 "/home/leizhenyuu/opt/Anonymous_Repo" "llvm-project/build/lib/clang/21/include/__stddef_size_t.h"
	.file	4 "crypto_aead/aegis256" "implementations.h"
	.file	5 "crypto_aead/aegis256" "aegis256_aesni.c"
	.file	6 "crypto_aead/aegis256" "aegis256_common.h"
	.file	7 "/home/leizhenyuu/opt/Anonymous_Repo" "llvm-project/build/lib/clang/21/include/emmintrin.h"
	.section	.rodata.cst16,"aM",@progbits,16
	.p2align	4, 0x0                          # -- Begin function encrypt_detached
.LCPI0_0:
	.quad	939006032783409408              # 0xd08050302010100
	.quad	7095959494080274965             # 0x6279e99059372215
.LCPI0_1:
	.quad	-1067420811828642341            # 0xf12fc26d55183ddb
	.quad	-2510557285622673120            # 0xdd28b57342311120
	.text
	.p2align	4
	.type	encrypt_detached,@function
encrypt_detached:                       # @encrypt_detached
.Lfunc_begin0:
	.loc	6 143 0                         # crypto_aead/aegis256/aegis256_common.h:143:0
	.cfi_startproc
# %bb.0:
	#DEBUG_VALUE: encrypt_detached:c <- $rdi
	#DEBUG_VALUE: encrypt_detached:mac <- $rsi
	#DEBUG_VALUE: encrypt_detached:maclen <- $rdx
	#DEBUG_VALUE: encrypt_detached:m <- $rcx
	#DEBUG_VALUE: encrypt_detached:mlen <- $r8
	#DEBUG_VALUE: encrypt_detached:ad <- $r9
	pushq	%rbp
	.cfi_def_cfa_offset 16
	pushq	%r15
	.cfi_def_cfa_offset 24
	pushq	%r14
	.cfi_def_cfa_offset 32
	pushq	%r13
	.cfi_def_cfa_offset 40
	pushq	%r12
	.cfi_def_cfa_offset 48
	pushq	%rbx
	.cfi_def_cfa_offset 56
	subq	$184, %rsp
	.cfi_def_cfa_offset 240
	.cfi_offset %rbx, -56
	.cfi_offset %r12, -48
	.cfi_offset %r13, -40
	.cfi_offset %r14, -32
	.cfi_offset %r15, -24
	.cfi_offset %rbp, -16
.Ltmp0:
	#DEBUG_VALUE: encrypt_detached:adlen <- [DW_OP_plus_uconst 240] [$rsp+0]
	#DEBUG_VALUE: encrypt_detached:npub <- [DW_OP_plus_uconst 248] [$rsp+0]
	#DEBUG_VALUE: encrypt_detached:k <- [DW_OP_plus_uconst 256] [$rsp+0]
	movq	248(%rsp), %rax
.Ltmp1:
	#DEBUG_VALUE: aegis256_init:nonce <- $rax
	movq	256(%rsp), %r10
.Ltmp2:
	#DEBUG_VALUE: aegis256_init:key <- $r10
	movq	%fs:40, %r11
	movq	%r11, 176(%rsp)
	#DEBUG_VALUE: aegis256_enc:dst <- [DW_OP_plus_uconst 144, DW_OP_stack_value] $rsp
	#DEBUG_VALUE: memcpy:__src <- [DW_OP_plus_uconst 144, DW_OP_stack_value] $rsp
.Ltmp3:
	.loc	6 15 28 prologue_end            # crypto_aead/aegis256/aegis256_common.h:15:28 @[ crypto_aead/aegis256/aegis256_common.h:149:5 ]
	vmovdqu	(%r10), %xmm3
.Ltmp4:
	#DEBUG_VALUE: aegis256_init:k0 <- $xmm3
	.loc	6 16 28                         # crypto_aead/aegis256/aegis256_common.h:16:28 @[ crypto_aead/aegis256/aegis256_common.h:149:5 ]
	vmovdqu	16(%r10), %xmm2
.Ltmp5:
	#DEBUG_VALUE: aegis256_init:k1 <- $xmm2
	#DEBUG_VALUE: aegis256_init:n0 <- undef
	#DEBUG_VALUE: aegis256_init:n1 <- undef
	.loc	6 19 31                         # crypto_aead/aegis256/aegis256_common.h:19:31 @[ crypto_aead/aegis256/aegis256_common.h:149:5 ]
	vpxor	(%rax), %xmm3, %xmm1
.Ltmp6:
	#DEBUG_VALUE: aegis256_init:k0_n0 <- $xmm1
	.loc	6 20 31                         # crypto_aead/aegis256/aegis256_common.h:20:31 @[ crypto_aead/aegis256/aegis256_common.h:149:5 ]
	vpxor	16(%rax), %xmm2, %xmm0
.Ltmp7:
	#DEBUG_VALUE: aegis256_init:k1_n1 <- $xmm0
	.loc	6 27 16                         # crypto_aead/aegis256/aegis256_common.h:27:16 @[ crypto_aead/aegis256/aegis256_common.h:149:5 ]
	vmovdqa	.LCPI0_0(%rip), %xmm4           # xmm4 = [939006032783409408,7095959494080274965]
.Ltmp8:
	#DEBUG_VALUE: aegis256_init:c0 <- $xmm4
	vpxor	%xmm4, %xmm3, %xmm5
	.loc	6 28 16                         # crypto_aead/aegis256/aegis256_common.h:28:16 @[ crypto_aead/aegis256/aegis256_common.h:149:5 ]
	vmovdqa	.LCPI0_1(%rip), %xmm6           # xmm6 = [17379323261880909275,15936186788086878496]
.Ltmp9:
	#DEBUG_VALUE: aegis256_init:c1 <- $xmm6
	vpxor	%xmm6, %xmm2, %xmm7
.Ltmp10:
	#DEBUG_VALUE: aegis256_update:tmp <- $xmm7
	#DEBUG_VALUE: aegis256_init:i <- 0
	#DEBUG_VALUE: aegis256_update:d <- $xmm3
	.loc	5 46 16                         # crypto_aead/aegis256/aegis256_aesni.c:46:16 @[ crypto_aead/aegis256/aegis256_common.h:30:9 @[ crypto_aead/aegis256/aegis256_common.h:149:5 ] ]
	vaesenc	%xmm7, %xmm5, %xmm8
	.loc	5 47 16                         # crypto_aead/aegis256/aegis256_aesni.c:47:16 @[ crypto_aead/aegis256/aegis256_common.h:30:9 @[ crypto_aead/aegis256/aegis256_common.h:149:5 ] ]
	vaesenc	%xmm5, %xmm4, %xmm5
	.loc	5 48 16                         # crypto_aead/aegis256/aegis256_aesni.c:48:16 @[ crypto_aead/aegis256/aegis256_common.h:30:9 @[ crypto_aead/aegis256/aegis256_common.h:149:5 ] ]
	vaesenc	%xmm4, %xmm6, %xmm4
.Ltmp11:
	.loc	5 49 16                         # crypto_aead/aegis256/aegis256_aesni.c:49:16 @[ crypto_aead/aegis256/aegis256_common.h:30:9 @[ crypto_aead/aegis256/aegis256_common.h:149:5 ] ]
	vaesenc	%xmm6, %xmm0, %xmm6
.Ltmp12:
	.loc	5 50 16                         # crypto_aead/aegis256/aegis256_aesni.c:50:16 @[ crypto_aead/aegis256/aegis256_common.h:30:9 @[ crypto_aead/aegis256/aegis256_common.h:149:5 ] ]
	vaesenc	%xmm0, %xmm1, %xmm9
	.loc	5 51 31                         # crypto_aead/aegis256/aegis256_aesni.c:51:31 @[ crypto_aead/aegis256/aegis256_common.h:30:9 @[ crypto_aead/aegis256/aegis256_common.h:149:5 ] ]
	vaesenc	%xmm1, %xmm7, %xmm7
.Ltmp13:
	.loc	5 51 16 is_stmt 0               # crypto_aead/aegis256/aegis256_aesni.c:51:16 @[ crypto_aead/aegis256/aegis256_common.h:30:9 @[ crypto_aead/aegis256/aegis256_common.h:149:5 ] ]
	vpxor	%xmm3, %xmm7, %xmm7
.Ltmp14:
	#DEBUG_VALUE: aegis256_update:d <- $xmm2
	#DEBUG_VALUE: aegis256_update:tmp <- $xmm8
	.loc	5 46 16 is_stmt 1               # crypto_aead/aegis256/aegis256_aesni.c:46:16 @[ crypto_aead/aegis256/aegis256_common.h:31:9 @[ crypto_aead/aegis256/aegis256_common.h:149:5 ] ]
	vaesenc	%xmm8, %xmm5, %xmm10
	.loc	5 47 16                         # crypto_aead/aegis256/aegis256_aesni.c:47:16 @[ crypto_aead/aegis256/aegis256_common.h:31:9 @[ crypto_aead/aegis256/aegis256_common.h:149:5 ] ]
	vaesenc	%xmm5, %xmm4, %xmm5
	.loc	5 48 16                         # crypto_aead/aegis256/aegis256_aesni.c:48:16 @[ crypto_aead/aegis256/aegis256_common.h:31:9 @[ crypto_aead/aegis256/aegis256_common.h:149:5 ] ]
	vaesenc	%xmm4, %xmm6, %xmm4
	.loc	5 49 16                         # crypto_aead/aegis256/aegis256_aesni.c:49:16 @[ crypto_aead/aegis256/aegis256_common.h:31:9 @[ crypto_aead/aegis256/aegis256_common.h:149:5 ] ]
	vaesenc	%xmm6, %xmm9, %xmm6
	.loc	5 50 16                         # crypto_aead/aegis256/aegis256_aesni.c:50:16 @[ crypto_aead/aegis256/aegis256_common.h:31:9 @[ crypto_aead/aegis256/aegis256_common.h:149:5 ] ]
	vaesenc	%xmm9, %xmm7, %xmm9
	.loc	5 51 31                         # crypto_aead/aegis256/aegis256_aesni.c:51:31 @[ crypto_aead/aegis256/aegis256_common.h:31:9 @[ crypto_aead/aegis256/aegis256_common.h:149:5 ] ]
	vaesenc	%xmm7, %xmm8, %xmm7
	.loc	5 51 16 is_stmt 0               # crypto_aead/aegis256/aegis256_aesni.c:51:16 @[ crypto_aead/aegis256/aegis256_common.h:31:9 @[ crypto_aead/aegis256/aegis256_common.h:149:5 ] ]
	vpxor	%xmm2, %xmm7, %xmm7
.Ltmp15:
	#DEBUG_VALUE: aegis256_update:d <- $xmm1
	#DEBUG_VALUE: aegis256_update:tmp <- $xmm10
	.loc	5 46 16 is_stmt 1               # crypto_aead/aegis256/aegis256_aesni.c:46:16 @[ crypto_aead/aegis256/aegis256_common.h:32:9 @[ crypto_aead/aegis256/aegis256_common.h:149:5 ] ]
	vaesenc	%xmm10, %xmm5, %xmm8
.Ltmp16:
	.loc	5 47 16                         # crypto_aead/aegis256/aegis256_aesni.c:47:16 @[ crypto_aead/aegis256/aegis256_common.h:32:9 @[ crypto_aead/aegis256/aegis256_common.h:149:5 ] ]
	vaesenc	%xmm5, %xmm4, %xmm5
	.loc	5 48 16                         # crypto_aead/aegis256/aegis256_aesni.c:48:16 @[ crypto_aead/aegis256/aegis256_common.h:32:9 @[ crypto_aead/aegis256/aegis256_common.h:149:5 ] ]
	vaesenc	%xmm4, %xmm6, %xmm4
	.loc	5 49 16                         # crypto_aead/aegis256/aegis256_aesni.c:49:16 @[ crypto_aead/aegis256/aegis256_common.h:32:9 @[ crypto_aead/aegis256/aegis256_common.h:149:5 ] ]
	vaesenc	%xmm6, %xmm9, %xmm6
	.loc	5 50 16                         # crypto_aead/aegis256/aegis256_aesni.c:50:16 @[ crypto_aead/aegis256/aegis256_common.h:32:9 @[ crypto_aead/aegis256/aegis256_common.h:149:5 ] ]
	vaesenc	%xmm9, %xmm7, %xmm9
	.loc	5 51 31                         # crypto_aead/aegis256/aegis256_aesni.c:51:31 @[ crypto_aead/aegis256/aegis256_common.h:32:9 @[ crypto_aead/aegis256/aegis256_common.h:149:5 ] ]
	vaesenc	%xmm7, %xmm10, %xmm7
	.loc	5 51 16 is_stmt 0               # crypto_aead/aegis256/aegis256_aesni.c:51:16 @[ crypto_aead/aegis256/aegis256_common.h:32:9 @[ crypto_aead/aegis256/aegis256_common.h:149:5 ] ]
	vpxor	%xmm1, %xmm7, %xmm7
.Ltmp17:
	#DEBUG_VALUE: aegis256_update:d <- $xmm0
	#DEBUG_VALUE: aegis256_update:tmp <- $xmm8
	.loc	5 46 16 is_stmt 1               # crypto_aead/aegis256/aegis256_aesni.c:46:16 @[ crypto_aead/aegis256/aegis256_common.h:33:9 @[ crypto_aead/aegis256/aegis256_common.h:149:5 ] ]
	vaesenc	%xmm8, %xmm5, %xmm10
.Ltmp18:
	.loc	5 47 16                         # crypto_aead/aegis256/aegis256_aesni.c:47:16 @[ crypto_aead/aegis256/aegis256_common.h:33:9 @[ crypto_aead/aegis256/aegis256_common.h:149:5 ] ]
	vaesenc	%xmm5, %xmm4, %xmm5
	.loc	5 48 16                         # crypto_aead/aegis256/aegis256_aesni.c:48:16 @[ crypto_aead/aegis256/aegis256_common.h:33:9 @[ crypto_aead/aegis256/aegis256_common.h:149:5 ] ]
	vaesenc	%xmm4, %xmm6, %xmm4
	.loc	5 49 16                         # crypto_aead/aegis256/aegis256_aesni.c:49:16 @[ crypto_aead/aegis256/aegis256_common.h:33:9 @[ crypto_aead/aegis256/aegis256_common.h:149:5 ] ]
	vaesenc	%xmm6, %xmm9, %xmm6
	.loc	5 50 16                         # crypto_aead/aegis256/aegis256_aesni.c:50:16 @[ crypto_aead/aegis256/aegis256_common.h:33:9 @[ crypto_aead/aegis256/aegis256_common.h:149:5 ] ]
	vaesenc	%xmm9, %xmm7, %xmm9
	.loc	5 51 31                         # crypto_aead/aegis256/aegis256_aesni.c:51:31 @[ crypto_aead/aegis256/aegis256_common.h:33:9 @[ crypto_aead/aegis256/aegis256_common.h:149:5 ] ]
	vaesenc	%xmm7, %xmm8, %xmm7
	.loc	5 51 16 is_stmt 0               # crypto_aead/aegis256/aegis256_aesni.c:51:16 @[ crypto_aead/aegis256/aegis256_common.h:33:9 @[ crypto_aead/aegis256/aegis256_common.h:149:5 ] ]
	vpxor	%xmm0, %xmm7, %xmm7
.Ltmp19:
	#DEBUG_VALUE: aegis256_init:i <- 1
	#DEBUG_VALUE: aegis256_update:tmp <- $xmm10
	.loc	5 46 16 is_stmt 1               # crypto_aead/aegis256/aegis256_aesni.c:46:16 @[ crypto_aead/aegis256/aegis256_common.h:30:9 @[ crypto_aead/aegis256/aegis256_common.h:149:5 ] ]
	vaesenc	%xmm10, %xmm5, %xmm8
.Ltmp20:
	.loc	5 47 16                         # crypto_aead/aegis256/aegis256_aesni.c:47:16 @[ crypto_aead/aegis256/aegis256_common.h:30:9 @[ crypto_aead/aegis256/aegis256_common.h:149:5 ] ]
	vaesenc	%xmm5, %xmm4, %xmm5
	.loc	5 48 16                         # crypto_aead/aegis256/aegis256_aesni.c:48:16 @[ crypto_aead/aegis256/aegis256_common.h:30:9 @[ crypto_aead/aegis256/aegis256_common.h:149:5 ] ]
	vaesenc	%xmm4, %xmm6, %xmm4
	.loc	5 49 16                         # crypto_aead/aegis256/aegis256_aesni.c:49:16 @[ crypto_aead/aegis256/aegis256_common.h:30:9 @[ crypto_aead/aegis256/aegis256_common.h:149:5 ] ]
	vaesenc	%xmm6, %xmm9, %xmm6
	.loc	5 50 16                         # crypto_aead/aegis256/aegis256_aesni.c:50:16 @[ crypto_aead/aegis256/aegis256_common.h:30:9 @[ crypto_aead/aegis256/aegis256_common.h:149:5 ] ]
	vaesenc	%xmm9, %xmm7, %xmm9
	.loc	5 51 31                         # crypto_aead/aegis256/aegis256_aesni.c:51:31 @[ crypto_aead/aegis256/aegis256_common.h:30:9 @[ crypto_aead/aegis256/aegis256_common.h:149:5 ] ]
	vaesenc	%xmm7, %xmm10, %xmm7
	.loc	5 51 16 is_stmt 0               # crypto_aead/aegis256/aegis256_aesni.c:51:16 @[ crypto_aead/aegis256/aegis256_common.h:30:9 @[ crypto_aead/aegis256/aegis256_common.h:149:5 ] ]
	vpxor	%xmm3, %xmm7, %xmm7
.Ltmp21:
	#DEBUG_VALUE: aegis256_update:tmp <- $xmm8
	.loc	5 46 16 is_stmt 1               # crypto_aead/aegis256/aegis256_aesni.c:46:16 @[ crypto_aead/aegis256/aegis256_common.h:31:9 @[ crypto_aead/aegis256/aegis256_common.h:149:5 ] ]
	vaesenc	%xmm8, %xmm5, %xmm10
.Ltmp22:
	.loc	5 47 16                         # crypto_aead/aegis256/aegis256_aesni.c:47:16 @[ crypto_aead/aegis256/aegis256_common.h:31:9 @[ crypto_aead/aegis256/aegis256_common.h:149:5 ] ]
	vaesenc	%xmm5, %xmm4, %xmm5
	.loc	5 48 16                         # crypto_aead/aegis256/aegis256_aesni.c:48:16 @[ crypto_aead/aegis256/aegis256_common.h:31:9 @[ crypto_aead/aegis256/aegis256_common.h:149:5 ] ]
	vaesenc	%xmm4, %xmm6, %xmm4
	.loc	5 49 16                         # crypto_aead/aegis256/aegis256_aesni.c:49:16 @[ crypto_aead/aegis256/aegis256_common.h:31:9 @[ crypto_aead/aegis256/aegis256_common.h:149:5 ] ]
	vaesenc	%xmm6, %xmm9, %xmm6
	.loc	5 50 16                         # crypto_aead/aegis256/aegis256_aesni.c:50:16 @[ crypto_aead/aegis256/aegis256_common.h:31:9 @[ crypto_aead/aegis256/aegis256_common.h:149:5 ] ]
	vaesenc	%xmm9, %xmm7, %xmm9
	.loc	5 51 31                         # crypto_aead/aegis256/aegis256_aesni.c:51:31 @[ crypto_aead/aegis256/aegis256_common.h:31:9 @[ crypto_aead/aegis256/aegis256_common.h:149:5 ] ]
	vaesenc	%xmm7, %xmm8, %xmm7
	.loc	5 51 16 is_stmt 0               # crypto_aead/aegis256/aegis256_aesni.c:51:16 @[ crypto_aead/aegis256/aegis256_common.h:31:9 @[ crypto_aead/aegis256/aegis256_common.h:149:5 ] ]
	vpxor	%xmm2, %xmm7, %xmm7
.Ltmp23:
	#DEBUG_VALUE: aegis256_update:tmp <- $xmm10
	.loc	5 46 16 is_stmt 1               # crypto_aead/aegis256/aegis256_aesni.c:46:16 @[ crypto_aead/aegis256/aegis256_common.h:32:9 @[ crypto_aead/aegis256/aegis256_common.h:149:5 ] ]
	vaesenc	%xmm10, %xmm5, %xmm8
.Ltmp24:
	.loc	5 47 16                         # crypto_aead/aegis256/aegis256_aesni.c:47:16 @[ crypto_aead/aegis256/aegis256_common.h:32:9 @[ crypto_aead/aegis256/aegis256_common.h:149:5 ] ]
	vaesenc	%xmm5, %xmm4, %xmm5
	.loc	5 48 16                         # crypto_aead/aegis256/aegis256_aesni.c:48:16 @[ crypto_aead/aegis256/aegis256_common.h:32:9 @[ crypto_aead/aegis256/aegis256_common.h:149:5 ] ]
	vaesenc	%xmm4, %xmm6, %xmm4
	.loc	5 49 16                         # crypto_aead/aegis256/aegis256_aesni.c:49:16 @[ crypto_aead/aegis256/aegis256_common.h:32:9 @[ crypto_aead/aegis256/aegis256_common.h:149:5 ] ]
	vaesenc	%xmm6, %xmm9, %xmm6
	.loc	5 50 16                         # crypto_aead/aegis256/aegis256_aesni.c:50:16 @[ crypto_aead/aegis256/aegis256_common.h:32:9 @[ crypto_aead/aegis256/aegis256_common.h:149:5 ] ]
	vaesenc	%xmm9, %xmm7, %xmm9
	.loc	5 51 31                         # crypto_aead/aegis256/aegis256_aesni.c:51:31 @[ crypto_aead/aegis256/aegis256_common.h:32:9 @[ crypto_aead/aegis256/aegis256_common.h:149:5 ] ]
	vaesenc	%xmm7, %xmm10, %xmm7
	.loc	5 51 16 is_stmt 0               # crypto_aead/aegis256/aegis256_aesni.c:51:16 @[ crypto_aead/aegis256/aegis256_common.h:32:9 @[ crypto_aead/aegis256/aegis256_common.h:149:5 ] ]
	vpxor	%xmm1, %xmm7, %xmm7
.Ltmp25:
	#DEBUG_VALUE: aegis256_update:tmp <- $xmm8
	.loc	5 46 16 is_stmt 1               # crypto_aead/aegis256/aegis256_aesni.c:46:16 @[ crypto_aead/aegis256/aegis256_common.h:33:9 @[ crypto_aead/aegis256/aegis256_common.h:149:5 ] ]
	vaesenc	%xmm8, %xmm5, %xmm10
.Ltmp26:
	.loc	5 47 16                         # crypto_aead/aegis256/aegis256_aesni.c:47:16 @[ crypto_aead/aegis256/aegis256_common.h:33:9 @[ crypto_aead/aegis256/aegis256_common.h:149:5 ] ]
	vaesenc	%xmm5, %xmm4, %xmm5
	.loc	5 48 16                         # crypto_aead/aegis256/aegis256_aesni.c:48:16 @[ crypto_aead/aegis256/aegis256_common.h:33:9 @[ crypto_aead/aegis256/aegis256_common.h:149:5 ] ]
	vaesenc	%xmm4, %xmm6, %xmm4
	.loc	5 49 16                         # crypto_aead/aegis256/aegis256_aesni.c:49:16 @[ crypto_aead/aegis256/aegis256_common.h:33:9 @[ crypto_aead/aegis256/aegis256_common.h:149:5 ] ]
	vaesenc	%xmm6, %xmm9, %xmm6
	.loc	5 50 16                         # crypto_aead/aegis256/aegis256_aesni.c:50:16 @[ crypto_aead/aegis256/aegis256_common.h:33:9 @[ crypto_aead/aegis256/aegis256_common.h:149:5 ] ]
	vaesenc	%xmm9, %xmm7, %xmm9
	.loc	5 51 31                         # crypto_aead/aegis256/aegis256_aesni.c:51:31 @[ crypto_aead/aegis256/aegis256_common.h:33:9 @[ crypto_aead/aegis256/aegis256_common.h:149:5 ] ]
	vaesenc	%xmm7, %xmm8, %xmm7
	.loc	5 51 16 is_stmt 0               # crypto_aead/aegis256/aegis256_aesni.c:51:16 @[ crypto_aead/aegis256/aegis256_common.h:33:9 @[ crypto_aead/aegis256/aegis256_common.h:149:5 ] ]
	vpxor	%xmm0, %xmm7, %xmm7
.Ltmp27:
	#DEBUG_VALUE: aegis256_init:i <- 2
	#DEBUG_VALUE: aegis256_update:tmp <- $xmm10
	.loc	5 46 16 is_stmt 1               # crypto_aead/aegis256/aegis256_aesni.c:46:16 @[ crypto_aead/aegis256/aegis256_common.h:30:9 @[ crypto_aead/aegis256/aegis256_common.h:149:5 ] ]
	vaesenc	%xmm10, %xmm5, %xmm8
.Ltmp28:
	.loc	5 47 16                         # crypto_aead/aegis256/aegis256_aesni.c:47:16 @[ crypto_aead/aegis256/aegis256_common.h:30:9 @[ crypto_aead/aegis256/aegis256_common.h:149:5 ] ]
	vaesenc	%xmm5, %xmm4, %xmm5
	.loc	5 48 16                         # crypto_aead/aegis256/aegis256_aesni.c:48:16 @[ crypto_aead/aegis256/aegis256_common.h:30:9 @[ crypto_aead/aegis256/aegis256_common.h:149:5 ] ]
	vaesenc	%xmm4, %xmm6, %xmm4
	.loc	5 49 16                         # crypto_aead/aegis256/aegis256_aesni.c:49:16 @[ crypto_aead/aegis256/aegis256_common.h:30:9 @[ crypto_aead/aegis256/aegis256_common.h:149:5 ] ]
	vaesenc	%xmm6, %xmm9, %xmm6
	.loc	5 50 16                         # crypto_aead/aegis256/aegis256_aesni.c:50:16 @[ crypto_aead/aegis256/aegis256_common.h:30:9 @[ crypto_aead/aegis256/aegis256_common.h:149:5 ] ]
	vaesenc	%xmm9, %xmm7, %xmm9
	.loc	5 51 31                         # crypto_aead/aegis256/aegis256_aesni.c:51:31 @[ crypto_aead/aegis256/aegis256_common.h:30:9 @[ crypto_aead/aegis256/aegis256_common.h:149:5 ] ]
	vaesenc	%xmm7, %xmm10, %xmm7
	.loc	5 51 16 is_stmt 0               # crypto_aead/aegis256/aegis256_aesni.c:51:16 @[ crypto_aead/aegis256/aegis256_common.h:30:9 @[ crypto_aead/aegis256/aegis256_common.h:149:5 ] ]
	vpxor	%xmm3, %xmm7, %xmm7
.Ltmp29:
	#DEBUG_VALUE: aegis256_update:tmp <- $xmm8
	.loc	5 46 16 is_stmt 1               # crypto_aead/aegis256/aegis256_aesni.c:46:16 @[ crypto_aead/aegis256/aegis256_common.h:31:9 @[ crypto_aead/aegis256/aegis256_common.h:149:5 ] ]
	vaesenc	%xmm8, %xmm5, %xmm10
.Ltmp30:
	.loc	5 47 16                         # crypto_aead/aegis256/aegis256_aesni.c:47:16 @[ crypto_aead/aegis256/aegis256_common.h:31:9 @[ crypto_aead/aegis256/aegis256_common.h:149:5 ] ]
	vaesenc	%xmm5, %xmm4, %xmm5
	.loc	5 48 16                         # crypto_aead/aegis256/aegis256_aesni.c:48:16 @[ crypto_aead/aegis256/aegis256_common.h:31:9 @[ crypto_aead/aegis256/aegis256_common.h:149:5 ] ]
	vaesenc	%xmm4, %xmm6, %xmm4
	.loc	5 49 16                         # crypto_aead/aegis256/aegis256_aesni.c:49:16 @[ crypto_aead/aegis256/aegis256_common.h:31:9 @[ crypto_aead/aegis256/aegis256_common.h:149:5 ] ]
	vaesenc	%xmm6, %xmm9, %xmm6
	.loc	5 50 16                         # crypto_aead/aegis256/aegis256_aesni.c:50:16 @[ crypto_aead/aegis256/aegis256_common.h:31:9 @[ crypto_aead/aegis256/aegis256_common.h:149:5 ] ]
	vaesenc	%xmm9, %xmm7, %xmm9
	movq	%r8, %r15
	.loc	5 51 31                         # crypto_aead/aegis256/aegis256_aesni.c:51:31 @[ crypto_aead/aegis256/aegis256_common.h:31:9 @[ crypto_aead/aegis256/aegis256_common.h:149:5 ] ]
	vaesenc	%xmm7, %xmm8, %xmm7
	.loc	5 51 16 is_stmt 0               # crypto_aead/aegis256/aegis256_aesni.c:51:16 @[ crypto_aead/aegis256/aegis256_common.h:31:9 @[ crypto_aead/aegis256/aegis256_common.h:149:5 ] ]
	vpxor	%xmm2, %xmm7, %xmm7
.Ltmp31:
	#DEBUG_VALUE: aegis256_update:tmp <- $xmm10
	.loc	5 46 16 is_stmt 1               # crypto_aead/aegis256/aegis256_aesni.c:46:16 @[ crypto_aead/aegis256/aegis256_common.h:32:9 @[ crypto_aead/aegis256/aegis256_common.h:149:5 ] ]
	vaesenc	%xmm10, %xmm5, %xmm8
.Ltmp32:
	.loc	5 47 16                         # crypto_aead/aegis256/aegis256_aesni.c:47:16 @[ crypto_aead/aegis256/aegis256_common.h:32:9 @[ crypto_aead/aegis256/aegis256_common.h:149:5 ] ]
	vaesenc	%xmm5, %xmm4, %xmm5
	.loc	5 48 16                         # crypto_aead/aegis256/aegis256_aesni.c:48:16 @[ crypto_aead/aegis256/aegis256_common.h:32:9 @[ crypto_aead/aegis256/aegis256_common.h:149:5 ] ]
	vaesenc	%xmm4, %xmm6, %xmm4
	.loc	5 49 16                         # crypto_aead/aegis256/aegis256_aesni.c:49:16 @[ crypto_aead/aegis256/aegis256_common.h:32:9 @[ crypto_aead/aegis256/aegis256_common.h:149:5 ] ]
	vaesenc	%xmm6, %xmm9, %xmm6
	.loc	5 50 16                         # crypto_aead/aegis256/aegis256_aesni.c:50:16 @[ crypto_aead/aegis256/aegis256_common.h:32:9 @[ crypto_aead/aegis256/aegis256_common.h:149:5 ] ]
	vaesenc	%xmm9, %xmm7, %xmm9
	.loc	5 51 31                         # crypto_aead/aegis256/aegis256_aesni.c:51:31 @[ crypto_aead/aegis256/aegis256_common.h:32:9 @[ crypto_aead/aegis256/aegis256_common.h:149:5 ] ]
	vaesenc	%xmm7, %xmm10, %xmm7
	movq	%rcx, %r12
	.loc	5 51 16 is_stmt 0               # crypto_aead/aegis256/aegis256_aesni.c:51:16 @[ crypto_aead/aegis256/aegis256_common.h:32:9 @[ crypto_aead/aegis256/aegis256_common.h:149:5 ] ]
	vpxor	%xmm1, %xmm7, %xmm7
.Ltmp33:
	#DEBUG_VALUE: aegis256_update:tmp <- $xmm8
	.loc	5 46 16 is_stmt 1               # crypto_aead/aegis256/aegis256_aesni.c:46:16 @[ crypto_aead/aegis256/aegis256_common.h:33:9 @[ crypto_aead/aegis256/aegis256_common.h:149:5 ] ]
	vaesenc	%xmm8, %xmm5, %xmm10
.Ltmp34:
	.loc	5 47 16                         # crypto_aead/aegis256/aegis256_aesni.c:47:16 @[ crypto_aead/aegis256/aegis256_common.h:33:9 @[ crypto_aead/aegis256/aegis256_common.h:149:5 ] ]
	vaesenc	%xmm5, %xmm4, %xmm5
	.loc	5 48 16                         # crypto_aead/aegis256/aegis256_aesni.c:48:16 @[ crypto_aead/aegis256/aegis256_common.h:33:9 @[ crypto_aead/aegis256/aegis256_common.h:149:5 ] ]
	vaesenc	%xmm4, %xmm6, %xmm4
	.loc	5 49 16                         # crypto_aead/aegis256/aegis256_aesni.c:49:16 @[ crypto_aead/aegis256/aegis256_common.h:33:9 @[ crypto_aead/aegis256/aegis256_common.h:149:5 ] ]
	vaesenc	%xmm6, %xmm9, %xmm6
	.loc	5 50 16                         # crypto_aead/aegis256/aegis256_aesni.c:50:16 @[ crypto_aead/aegis256/aegis256_common.h:33:9 @[ crypto_aead/aegis256/aegis256_common.h:149:5 ] ]
	vaesenc	%xmm9, %xmm7, %xmm9
	.loc	5 51 31                         # crypto_aead/aegis256/aegis256_aesni.c:51:31 @[ crypto_aead/aegis256/aegis256_common.h:33:9 @[ crypto_aead/aegis256/aegis256_common.h:149:5 ] ]
	vaesenc	%xmm7, %xmm8, %xmm7
	.loc	5 51 16 is_stmt 0               # crypto_aead/aegis256/aegis256_aesni.c:51:16 @[ crypto_aead/aegis256/aegis256_common.h:33:9 @[ crypto_aead/aegis256/aegis256_common.h:149:5 ] ]
	vpxor	%xmm0, %xmm7, %xmm7
.Ltmp35:
	#DEBUG_VALUE: aegis256_init:i <- 3
	#DEBUG_VALUE: aegis256_update:tmp <- $xmm10
	.loc	5 46 16 is_stmt 1               # crypto_aead/aegis256/aegis256_aesni.c:46:16 @[ crypto_aead/aegis256/aegis256_common.h:30:9 @[ crypto_aead/aegis256/aegis256_common.h:149:5 ] ]
	vaesenc	%xmm10, %xmm5, %xmm8
.Ltmp36:
	.loc	5 47 16                         # crypto_aead/aegis256/aegis256_aesni.c:47:16 @[ crypto_aead/aegis256/aegis256_common.h:30:9 @[ crypto_aead/aegis256/aegis256_common.h:149:5 ] ]
	vaesenc	%xmm5, %xmm4, %xmm5
	.loc	5 48 16                         # crypto_aead/aegis256/aegis256_aesni.c:48:16 @[ crypto_aead/aegis256/aegis256_common.h:30:9 @[ crypto_aead/aegis256/aegis256_common.h:149:5 ] ]
	vaesenc	%xmm4, %xmm6, %xmm4
	.loc	5 49 16                         # crypto_aead/aegis256/aegis256_aesni.c:49:16 @[ crypto_aead/aegis256/aegis256_common.h:30:9 @[ crypto_aead/aegis256/aegis256_common.h:149:5 ] ]
	vaesenc	%xmm6, %xmm9, %xmm6
	.loc	5 50 16                         # crypto_aead/aegis256/aegis256_aesni.c:50:16 @[ crypto_aead/aegis256/aegis256_common.h:30:9 @[ crypto_aead/aegis256/aegis256_common.h:149:5 ] ]
	vaesenc	%xmm9, %xmm7, %xmm9
	.loc	5 51 31                         # crypto_aead/aegis256/aegis256_aesni.c:51:31 @[ crypto_aead/aegis256/aegis256_common.h:30:9 @[ crypto_aead/aegis256/aegis256_common.h:149:5 ] ]
	vaesenc	%xmm7, %xmm10, %xmm7
	movq	%rsi, 72(%rsp)                  # 8-byte Spill
.Ltmp37:
	#DEBUG_VALUE: encrypt_detached:mac <- [DW_OP_plus_uconst 72] [$rsp+0]
	.loc	5 51 16 is_stmt 0               # crypto_aead/aegis256/aegis256_aesni.c:51:16 @[ crypto_aead/aegis256/aegis256_common.h:30:9 @[ crypto_aead/aegis256/aegis256_common.h:149:5 ] ]
	vpxor	%xmm3, %xmm7, %xmm3
.Ltmp38:
	#DEBUG_VALUE: aegis256_update:tmp <- $xmm8
	.loc	5 46 16 is_stmt 1               # crypto_aead/aegis256/aegis256_aesni.c:46:16 @[ crypto_aead/aegis256/aegis256_common.h:31:9 @[ crypto_aead/aegis256/aegis256_common.h:149:5 ] ]
	vaesenc	%xmm8, %xmm5, %xmm7
	.loc	5 47 16                         # crypto_aead/aegis256/aegis256_aesni.c:47:16 @[ crypto_aead/aegis256/aegis256_common.h:31:9 @[ crypto_aead/aegis256/aegis256_common.h:149:5 ] ]
	vaesenc	%xmm5, %xmm4, %xmm5
	.loc	5 48 16                         # crypto_aead/aegis256/aegis256_aesni.c:48:16 @[ crypto_aead/aegis256/aegis256_common.h:31:9 @[ crypto_aead/aegis256/aegis256_common.h:149:5 ] ]
	vaesenc	%xmm4, %xmm6, %xmm4
	.loc	5 49 16                         # crypto_aead/aegis256/aegis256_aesni.c:49:16 @[ crypto_aead/aegis256/aegis256_common.h:31:9 @[ crypto_aead/aegis256/aegis256_common.h:149:5 ] ]
	vaesenc	%xmm6, %xmm9, %xmm6
	.loc	5 50 16                         # crypto_aead/aegis256/aegis256_aesni.c:50:16 @[ crypto_aead/aegis256/aegis256_common.h:31:9 @[ crypto_aead/aegis256/aegis256_common.h:149:5 ] ]
	vaesenc	%xmm9, %xmm3, %xmm9
	movq	%rdi, %r13
	.loc	5 51 31                         # crypto_aead/aegis256/aegis256_aesni.c:51:31 @[ crypto_aead/aegis256/aegis256_common.h:31:9 @[ crypto_aead/aegis256/aegis256_common.h:149:5 ] ]
	vaesenc	%xmm3, %xmm8, %xmm3
	.loc	5 51 16 is_stmt 0               # crypto_aead/aegis256/aegis256_aesni.c:51:16 @[ crypto_aead/aegis256/aegis256_common.h:31:9 @[ crypto_aead/aegis256/aegis256_common.h:149:5 ] ]
	vpxor	%xmm2, %xmm3, %xmm2
.Ltmp39:
	#DEBUG_VALUE: aegis256_update:tmp <- $xmm7
	.loc	5 46 16 is_stmt 1               # crypto_aead/aegis256/aegis256_aesni.c:46:16 @[ crypto_aead/aegis256/aegis256_common.h:32:9 @[ crypto_aead/aegis256/aegis256_common.h:149:5 ] ]
	vaesenc	%xmm7, %xmm5, %xmm3
	.loc	5 47 16                         # crypto_aead/aegis256/aegis256_aesni.c:47:16 @[ crypto_aead/aegis256/aegis256_common.h:32:9 @[ crypto_aead/aegis256/aegis256_common.h:149:5 ] ]
	vaesenc	%xmm5, %xmm4, %xmm5
	.loc	5 48 16                         # crypto_aead/aegis256/aegis256_aesni.c:48:16 @[ crypto_aead/aegis256/aegis256_common.h:32:9 @[ crypto_aead/aegis256/aegis256_common.h:149:5 ] ]
	vaesenc	%xmm4, %xmm6, %xmm4
	.loc	5 49 16                         # crypto_aead/aegis256/aegis256_aesni.c:49:16 @[ crypto_aead/aegis256/aegis256_common.h:32:9 @[ crypto_aead/aegis256/aegis256_common.h:149:5 ] ]
	vaesenc	%xmm6, %xmm9, %xmm6
	.loc	5 50 16                         # crypto_aead/aegis256/aegis256_aesni.c:50:16 @[ crypto_aead/aegis256/aegis256_common.h:32:9 @[ crypto_aead/aegis256/aegis256_common.h:149:5 ] ]
	vaesenc	%xmm9, %xmm2, %xmm8
.Ltmp40:
	.loc	5 51 31                         # crypto_aead/aegis256/aegis256_aesni.c:51:31 @[ crypto_aead/aegis256/aegis256_common.h:32:9 @[ crypto_aead/aegis256/aegis256_common.h:149:5 ] ]
	vaesenc	%xmm2, %xmm7, %xmm2
	movq	240(%rsp), %rbx
	.loc	5 51 16 is_stmt 0               # crypto_aead/aegis256/aegis256_aesni.c:51:16 @[ crypto_aead/aegis256/aegis256_common.h:32:9 @[ crypto_aead/aegis256/aegis256_common.h:149:5 ] ]
	vpxor	%xmm1, %xmm2, %xmm2
.Ltmp41:
	#DEBUG_VALUE: aegis256_update:tmp <- $xmm3
	.loc	5 46 16 is_stmt 1               # crypto_aead/aegis256/aegis256_aesni.c:46:16 @[ crypto_aead/aegis256/aegis256_common.h:33:9 @[ crypto_aead/aegis256/aegis256_common.h:149:5 ] ]
	vaesenc	%xmm3, %xmm5, %xmm1
.Ltmp42:
	.loc	5 47 16                         # crypto_aead/aegis256/aegis256_aesni.c:47:16 @[ crypto_aead/aegis256/aegis256_common.h:33:9 @[ crypto_aead/aegis256/aegis256_common.h:149:5 ] ]
	vaesenc	%xmm5, %xmm4, %xmm9
	.loc	5 48 16                         # crypto_aead/aegis256/aegis256_aesni.c:48:16 @[ crypto_aead/aegis256/aegis256_common.h:33:9 @[ crypto_aead/aegis256/aegis256_common.h:149:5 ] ]
	vaesenc	%xmm4, %xmm6, %xmm7
.Ltmp43:
	.loc	5 49 16                         # crypto_aead/aegis256/aegis256_aesni.c:49:16 @[ crypto_aead/aegis256/aegis256_common.h:33:9 @[ crypto_aead/aegis256/aegis256_common.h:149:5 ] ]
	vaesenc	%xmm6, %xmm8, %xmm4
	.loc	5 50 16                         # crypto_aead/aegis256/aegis256_aesni.c:50:16 @[ crypto_aead/aegis256/aegis256_common.h:33:9 @[ crypto_aead/aegis256/aegis256_common.h:149:5 ] ]
	vaesenc	%xmm8, %xmm2, %xmm5
	.loc	5 51 31                         # crypto_aead/aegis256/aegis256_aesni.c:51:31 @[ crypto_aead/aegis256/aegis256_common.h:33:9 @[ crypto_aead/aegis256/aegis256_common.h:149:5 ] ]
	vaesenc	%xmm2, %xmm3, %xmm2
	.loc	5 51 16 is_stmt 0               # crypto_aead/aegis256/aegis256_aesni.c:51:16 @[ crypto_aead/aegis256/aegis256_common.h:33:9 @[ crypto_aead/aegis256/aegis256_common.h:149:5 ] ]
	vpxor	%xmm0, %xmm2, %xmm6
.Ltmp44:
	#DEBUG_VALUE: encrypt_detached:state <- [DW_OP_LLVM_fragment 0 128] $xmm6
	#DEBUG_VALUE: aegis256_init:i <- 4
	#DEBUG_VALUE: encrypt_detached:state <- [DW_OP_LLVM_fragment 640 128] $xmm1
	#DEBUG_VALUE: encrypt_detached:state <- [DW_OP_LLVM_fragment 512 128] $xmm9
	#DEBUG_VALUE: encrypt_detached:state <- [DW_OP_LLVM_fragment 384 128] $xmm7
	#DEBUG_VALUE: encrypt_detached:state <- [DW_OP_LLVM_fragment 256 128] $xmm4
	#DEBUG_VALUE: encrypt_detached:state <- [DW_OP_LLVM_fragment 128 128] $xmm5
	#DEBUG_VALUE: encrypt_detached:i <- 0
	.loc	6 151 28 is_stmt 1              # crypto_aead/aegis256/aegis256_common.h:151:28
	cmpq	$32, %rbx
.Ltmp45:
	.loc	6 151 5 is_stmt 0               # crypto_aead/aegis256/aegis256_common.h:151:5
	jae	.LBB0_4
.Ltmp46:
# %bb.1:
	#DEBUG_VALUE: encrypt_detached:c <- $r13
	#DEBUG_VALUE: encrypt_detached:mac <- [DW_OP_plus_uconst 72] [$rsp+0]
	#DEBUG_VALUE: encrypt_detached:maclen <- $rdx
	#DEBUG_VALUE: encrypt_detached:m <- $r12
	#DEBUG_VALUE: encrypt_detached:mlen <- $r15
	#DEBUG_VALUE: encrypt_detached:ad <- $r9
	#DEBUG_VALUE: encrypt_detached:adlen <- [DW_OP_plus_uconst 240] [$rsp+0]
	#DEBUG_VALUE: encrypt_detached:npub <- [DW_OP_plus_uconst 248] [$rsp+0]
	#DEBUG_VALUE: encrypt_detached:k <- [DW_OP_plus_uconst 256] [$rsp+0]
	#DEBUG_VALUE: aegis256_init:nonce <- $rax
	#DEBUG_VALUE: aegis256_init:key <- $r10
	#DEBUG_VALUE: aegis256_enc:dst <- [DW_OP_plus_uconst 144, DW_OP_stack_value] $rsp
	#DEBUG_VALUE: memcpy:__src <- [DW_OP_plus_uconst 144, DW_OP_stack_value] $rsp
	#DEBUG_VALUE: aegis256_init:k1_n1 <- $xmm0
	#DEBUG_VALUE: aegis256_update:tmp <- $xmm10
	#DEBUG_VALUE: aegis256_init:i <- 4
	#DEBUG_VALUE: aegis256_update:d <- $xmm0
	#DEBUG_VALUE: aegis256_update:tmp <- $xmm3
	#DEBUG_VALUE: encrypt_detached:state <- [DW_OP_LLVM_fragment 0 128] $xmm6
	#DEBUG_VALUE: encrypt_detached:state <- [DW_OP_LLVM_fragment 640 128] $xmm1
	#DEBUG_VALUE: encrypt_detached:state <- [DW_OP_LLVM_fragment 512 128] $xmm9
	#DEBUG_VALUE: encrypt_detached:state <- [DW_OP_LLVM_fragment 384 128] $xmm7
	#DEBUG_VALUE: encrypt_detached:state <- [DW_OP_LLVM_fragment 256 128] $xmm4
	#DEBUG_VALUE: encrypt_detached:state <- [DW_OP_LLVM_fragment 128 128] $xmm5
	#DEBUG_VALUE: encrypt_detached:i <- 0
	.loc	6 0 5                           # crypto_aead/aegis256/aegis256_common.h:0:5
	xorl	%eax, %eax
	jmp	.LBB0_2
.Ltmp47:
.LBB0_4:                                # %.lr.ph.preheader
	#DEBUG_VALUE: encrypt_detached:c <- $r13
	#DEBUG_VALUE: encrypt_detached:mac <- [DW_OP_plus_uconst 72] [$rsp+0]
	#DEBUG_VALUE: encrypt_detached:maclen <- $rdx
	#DEBUG_VALUE: encrypt_detached:m <- $r12
	#DEBUG_VALUE: encrypt_detached:mlen <- $r15
	#DEBUG_VALUE: encrypt_detached:ad <- $r9
	#DEBUG_VALUE: encrypt_detached:adlen <- [DW_OP_plus_uconst 240] [$rsp+0]
	#DEBUG_VALUE: encrypt_detached:npub <- [DW_OP_plus_uconst 248] [$rsp+0]
	#DEBUG_VALUE: encrypt_detached:k <- [DW_OP_plus_uconst 256] [$rsp+0]
	#DEBUG_VALUE: aegis256_init:nonce <- $rax
	#DEBUG_VALUE: aegis256_init:key <- $r10
	#DEBUG_VALUE: aegis256_enc:dst <- [DW_OP_plus_uconst 144, DW_OP_stack_value] $rsp
	#DEBUG_VALUE: memcpy:__src <- [DW_OP_plus_uconst 144, DW_OP_stack_value] $rsp
	#DEBUG_VALUE: aegis256_init:k1_n1 <- $xmm0
	#DEBUG_VALUE: aegis256_update:tmp <- $xmm10
	#DEBUG_VALUE: aegis256_init:i <- 4
	#DEBUG_VALUE: aegis256_update:d <- $xmm0
	#DEBUG_VALUE: aegis256_update:tmp <- $xmm3
	#DEBUG_VALUE: encrypt_detached:state <- [DW_OP_LLVM_fragment 0 128] $xmm6
	#DEBUG_VALUE: encrypt_detached:state <- [DW_OP_LLVM_fragment 640 128] $xmm1
	#DEBUG_VALUE: encrypt_detached:state <- [DW_OP_LLVM_fragment 512 128] $xmm9
	#DEBUG_VALUE: encrypt_detached:state <- [DW_OP_LLVM_fragment 384 128] $xmm7
	#DEBUG_VALUE: encrypt_detached:state <- [DW_OP_LLVM_fragment 256 128] $xmm4
	#DEBUG_VALUE: encrypt_detached:state <- [DW_OP_LLVM_fragment 128 128] $xmm5
	#DEBUG_VALUE: encrypt_detached:i <- 0
	xorl	%ecx, %ecx
.Ltmp48:
	.p2align	4
.LBB0_5:                                # %.lr.ph
                                        # =>This Inner Loop Header: Depth=1
	#DEBUG_VALUE: encrypt_detached:c <- $r13
	#DEBUG_VALUE: encrypt_detached:mac <- [DW_OP_plus_uconst 72] [$rsp+0]
	#DEBUG_VALUE: encrypt_detached:maclen <- $rdx
	#DEBUG_VALUE: encrypt_detached:m <- $r12
	#DEBUG_VALUE: encrypt_detached:mlen <- $r15
	#DEBUG_VALUE: encrypt_detached:ad <- $r9
	#DEBUG_VALUE: encrypt_detached:adlen <- [DW_OP_plus_uconst 240] [$rsp+0]
	#DEBUG_VALUE: encrypt_detached:npub <- [DW_OP_plus_uconst 248] [$rsp+0]
	#DEBUG_VALUE: encrypt_detached:k <- [DW_OP_plus_uconst 256] [$rsp+0]
	#DEBUG_VALUE: encrypt_detached:state <- [DW_OP_LLVM_fragment 0 128] $xmm6
	#DEBUG_VALUE: encrypt_detached:state <- [DW_OP_LLVM_fragment 640 128] $xmm1
	#DEBUG_VALUE: encrypt_detached:state <- [DW_OP_LLVM_fragment 512 128] $xmm9
	#DEBUG_VALUE: encrypt_detached:state <- [DW_OP_LLVM_fragment 384 128] $xmm7
	#DEBUG_VALUE: encrypt_detached:state <- [DW_OP_LLVM_fragment 256 128] $xmm4
	#DEBUG_VALUE: encrypt_detached:state <- [DW_OP_LLVM_fragment 128 128] $xmm5
	#DEBUG_VALUE: encrypt_detached:i <- $rcx
	#DEBUG_VALUE: encrypt_detached:state <- [DW_OP_LLVM_fragment 0 128] $xmm6
	#DEBUG_VALUE: encrypt_detached:state <- [DW_OP_LLVM_fragment 128 128] $xmm5
	#DEBUG_VALUE: encrypt_detached:state <- [DW_OP_LLVM_fragment 256 128] $xmm4
	#DEBUG_VALUE: encrypt_detached:state <- [DW_OP_LLVM_fragment 384 128] $xmm7
	#DEBUG_VALUE: encrypt_detached:state <- [DW_OP_LLVM_fragment 512 128] $xmm9
	#DEBUG_VALUE: encrypt_detached:state <- [DW_OP_LLVM_fragment 640 128] $xmm1
	#DEBUG_VALUE: aegis256_absorb2:src <- [DW_OP_LLVM_arg 0, DW_OP_consts 32, DW_OP_div, DW_OP_consts 32, DW_OP_mul, DW_OP_LLVM_arg 1, DW_OP_plus, DW_OP_stack_value] $rcx, $r9
	#DEBUG_VALUE: aegis256_absorb2:state <- undef
	#DEBUG_VALUE: aegis256_absorb2:msg <- undef
	#DEBUG_VALUE: aegis256_absorb2:msg2 <- undef
	#DEBUG_VALUE: aegis256_update:state <- undef
	#DEBUG_VALUE: aegis256_update:d <- undef
	#DEBUG_VALUE: aegis256_update:tmp <- $xmm1
	.loc	5 46 16 is_stmt 1               # crypto_aead/aegis256/aegis256_aesni.c:46:16 @[ crypto_aead/aegis256/aegis256_common.h:81:5 @[ crypto_aead/aegis256/aegis256_common.h:152:9 ] ]
	vaesenc	%xmm1, %xmm9, %xmm0
	.loc	5 47 16                         # crypto_aead/aegis256/aegis256_aesni.c:47:16 @[ crypto_aead/aegis256/aegis256_common.h:81:5 @[ crypto_aead/aegis256/aegis256_common.h:152:9 ] ]
	vaesenc	%xmm9, %xmm7, %xmm2
	.loc	5 48 16                         # crypto_aead/aegis256/aegis256_aesni.c:48:16 @[ crypto_aead/aegis256/aegis256_common.h:81:5 @[ crypto_aead/aegis256/aegis256_common.h:152:9 ] ]
	vaesenc	%xmm7, %xmm4, %xmm3
	.loc	5 49 16                         # crypto_aead/aegis256/aegis256_aesni.c:49:16 @[ crypto_aead/aegis256/aegis256_common.h:81:5 @[ crypto_aead/aegis256/aegis256_common.h:152:9 ] ]
	vaesenc	%xmm4, %xmm5, %xmm4
.Ltmp49:
	.loc	5 50 16                         # crypto_aead/aegis256/aegis256_aesni.c:50:16 @[ crypto_aead/aegis256/aegis256_common.h:81:5 @[ crypto_aead/aegis256/aegis256_common.h:152:9 ] ]
	vaesenc	%xmm5, %xmm6, %xmm5
.Ltmp50:
	.loc	5 51 31                         # crypto_aead/aegis256/aegis256_aesni.c:51:31 @[ crypto_aead/aegis256/aegis256_common.h:81:5 @[ crypto_aead/aegis256/aegis256_common.h:152:9 ] ]
	vaesenc	%xmm6, %xmm1, %xmm1
.Ltmp51:
	.loc	5 51 16 is_stmt 0               # crypto_aead/aegis256/aegis256_aesni.c:51:16 @[ crypto_aead/aegis256/aegis256_common.h:81:5 @[ crypto_aead/aegis256/aegis256_common.h:152:9 ] ]
	vpxor	(%r9,%rcx), %xmm1, %xmm6
.Ltmp52:
	#DEBUG_VALUE: aegis256_update:state <- undef
	#DEBUG_VALUE: aegis256_update:d <- undef
	#DEBUG_VALUE: aegis256_update:tmp <- $xmm0
	.loc	5 46 16 is_stmt 1               # crypto_aead/aegis256/aegis256_aesni.c:46:16 @[ crypto_aead/aegis256/aegis256_common.h:82:5 @[ crypto_aead/aegis256/aegis256_common.h:152:9 ] ]
	vaesenc	%xmm0, %xmm2, %xmm1
.Ltmp53:
	#DEBUG_VALUE: encrypt_detached:state <- [DW_OP_LLVM_fragment 640 128] $xmm1
	.loc	5 47 16                         # crypto_aead/aegis256/aegis256_aesni.c:47:16 @[ crypto_aead/aegis256/aegis256_common.h:82:5 @[ crypto_aead/aegis256/aegis256_common.h:152:9 ] ]
	vaesenc	%xmm2, %xmm3, %xmm9
.Ltmp54:
	#DEBUG_VALUE: encrypt_detached:state <- [DW_OP_LLVM_fragment 512 128] $xmm9
	.loc	5 48 16                         # crypto_aead/aegis256/aegis256_aesni.c:48:16 @[ crypto_aead/aegis256/aegis256_common.h:82:5 @[ crypto_aead/aegis256/aegis256_common.h:152:9 ] ]
	vaesenc	%xmm3, %xmm4, %xmm7
.Ltmp55:
	#DEBUG_VALUE: encrypt_detached:state <- [DW_OP_LLVM_fragment 384 128] $xmm7
	.loc	5 49 16                         # crypto_aead/aegis256/aegis256_aesni.c:49:16 @[ crypto_aead/aegis256/aegis256_common.h:82:5 @[ crypto_aead/aegis256/aegis256_common.h:152:9 ] ]
	vaesenc	%xmm4, %xmm5, %xmm4
.Ltmp56:
	#DEBUG_VALUE: encrypt_detached:state <- [DW_OP_LLVM_fragment 256 128] $xmm4
	.loc	5 50 16                         # crypto_aead/aegis256/aegis256_aesni.c:50:16 @[ crypto_aead/aegis256/aegis256_common.h:82:5 @[ crypto_aead/aegis256/aegis256_common.h:152:9 ] ]
	vaesenc	%xmm5, %xmm6, %xmm5
.Ltmp57:
	#DEBUG_VALUE: encrypt_detached:state <- [DW_OP_LLVM_fragment 128 128] $xmm5
	.loc	5 51 31                         # crypto_aead/aegis256/aegis256_aesni.c:51:31 @[ crypto_aead/aegis256/aegis256_common.h:82:5 @[ crypto_aead/aegis256/aegis256_common.h:152:9 ] ]
	vaesenc	%xmm6, %xmm0, %xmm0
.Ltmp58:
	.loc	5 51 16 is_stmt 0               # crypto_aead/aegis256/aegis256_aesni.c:51:16 @[ crypto_aead/aegis256/aegis256_common.h:82:5 @[ crypto_aead/aegis256/aegis256_common.h:152:9 ] ]
	vpxor	16(%r9,%rcx), %xmm0, %xmm6
.Ltmp59:
	#DEBUG_VALUE: encrypt_detached:state <- [DW_OP_LLVM_fragment 0 128] $xmm6
	#DEBUG_VALUE: encrypt_detached:state <- [DW_OP_LLVM_fragment 128 128] $xmm5
	#DEBUG_VALUE: encrypt_detached:state <- [DW_OP_LLVM_fragment 256 128] $xmm4
	#DEBUG_VALUE: encrypt_detached:state <- [DW_OP_LLVM_fragment 384 128] $xmm7
	#DEBUG_VALUE: encrypt_detached:state <- [DW_OP_LLVM_fragment 512 128] $xmm9
	#DEBUG_VALUE: encrypt_detached:state <- [DW_OP_LLVM_fragment 640 128] $xmm1
	#DEBUG_VALUE: encrypt_detached:i <- [DW_OP_plus_uconst 32, DW_OP_stack_value] $rcx
	.loc	6 151 28 is_stmt 1              # crypto_aead/aegis256/aegis256_common.h:151:28
	leaq	32(%rcx), %rax
	addq	$64, %rcx
.Ltmp60:
	cmpq	%rbx, %rcx
	movq	%rax, %rcx
.Ltmp61:
	.loc	6 151 5 is_stmt 0               # crypto_aead/aegis256/aegis256_common.h:151:5
	jbe	.LBB0_5
.Ltmp62:
.LBB0_2:                                # %.preheader
	#DEBUG_VALUE: encrypt_detached:c <- $r13
	#DEBUG_VALUE: encrypt_detached:mac <- [DW_OP_plus_uconst 72] [$rsp+0]
	#DEBUG_VALUE: encrypt_detached:maclen <- $rdx
	#DEBUG_VALUE: encrypt_detached:m <- $r12
	#DEBUG_VALUE: encrypt_detached:mlen <- $r15
	#DEBUG_VALUE: encrypt_detached:ad <- $r9
	#DEBUG_VALUE: encrypt_detached:adlen <- [DW_OP_plus_uconst 240] [$rsp+0]
	#DEBUG_VALUE: encrypt_detached:npub <- [DW_OP_plus_uconst 248] [$rsp+0]
	#DEBUG_VALUE: encrypt_detached:k <- [DW_OP_plus_uconst 256] [$rsp+0]
	#DEBUG_VALUE: encrypt_detached:state <- [DW_OP_LLVM_fragment 0 128] $xmm6
	#DEBUG_VALUE: encrypt_detached:state <- [DW_OP_LLVM_fragment 640 128] $xmm1
	#DEBUG_VALUE: encrypt_detached:state <- [DW_OP_LLVM_fragment 512 128] $xmm9
	#DEBUG_VALUE: encrypt_detached:state <- [DW_OP_LLVM_fragment 384 128] $xmm7
	#DEBUG_VALUE: encrypt_detached:state <- [DW_OP_LLVM_fragment 256 128] $xmm4
	#DEBUG_VALUE: encrypt_detached:state <- [DW_OP_LLVM_fragment 128 128] $xmm5
	#DEBUG_VALUE: encrypt_detached:state <- [DW_OP_LLVM_fragment 0 128] $xmm6
	#DEBUG_VALUE: encrypt_detached:state <- [DW_OP_LLVM_fragment 128 128] $xmm5
	#DEBUG_VALUE: encrypt_detached:state <- [DW_OP_LLVM_fragment 256 128] $xmm4
	#DEBUG_VALUE: encrypt_detached:state <- [DW_OP_LLVM_fragment 384 128] $xmm7
	#DEBUG_VALUE: encrypt_detached:state <- [DW_OP_LLVM_fragment 512 128] $xmm9
	#DEBUG_VALUE: encrypt_detached:state <- [DW_OP_LLVM_fragment 640 128] $xmm1
	#DEBUG_VALUE: encrypt_detached:i <- $rax
	.loc	6 154 14 is_stmt 1              # crypto_aead/aegis256/aegis256_common.h:154:14
	movq	%rax, %rcx
	orq	$16, %rcx
	.loc	6 154 19 is_stmt 0              # crypto_aead/aegis256/aegis256_common.h:154:19
	cmpq	%rbx, %rcx
	movq	%rdx, 120(%rsp)                 # 8-byte Spill
.Ltmp63:
	#DEBUG_VALUE: encrypt_detached:maclen <- [DW_OP_plus_uconst 120] [$rsp+0]
	.loc	6 154 5                         # crypto_aead/aegis256/aegis256_common.h:154:5
	jbe	.LBB0_6
.Ltmp64:
# %bb.3:
	#DEBUG_VALUE: encrypt_detached:c <- $r13
	#DEBUG_VALUE: encrypt_detached:mac <- [DW_OP_plus_uconst 72] [$rsp+0]
	#DEBUG_VALUE: encrypt_detached:maclen <- [DW_OP_plus_uconst 120] [$rsp+0]
	#DEBUG_VALUE: encrypt_detached:m <- $r12
	#DEBUG_VALUE: encrypt_detached:mlen <- $r15
	#DEBUG_VALUE: encrypt_detached:ad <- $r9
	#DEBUG_VALUE: encrypt_detached:adlen <- [DW_OP_plus_uconst 240] [$rsp+0]
	#DEBUG_VALUE: encrypt_detached:npub <- [DW_OP_plus_uconst 248] [$rsp+0]
	#DEBUG_VALUE: encrypt_detached:k <- [DW_OP_plus_uconst 256] [$rsp+0]
	#DEBUG_VALUE: encrypt_detached:state <- [DW_OP_LLVM_fragment 0 128] $xmm6
	#DEBUG_VALUE: encrypt_detached:state <- [DW_OP_LLVM_fragment 640 128] $xmm1
	#DEBUG_VALUE: encrypt_detached:state <- [DW_OP_LLVM_fragment 512 128] $xmm9
	#DEBUG_VALUE: encrypt_detached:state <- [DW_OP_LLVM_fragment 384 128] $xmm7
	#DEBUG_VALUE: encrypt_detached:state <- [DW_OP_LLVM_fragment 256 128] $xmm4
	#DEBUG_VALUE: encrypt_detached:state <- [DW_OP_LLVM_fragment 128 128] $xmm5
	#DEBUG_VALUE: encrypt_detached:i <- $rax
	.loc	6 0 5                           # crypto_aead/aegis256/aegis256_common.h:0:5
	vmovdqa	%xmm1, %xmm8
	movq	%rax, %rcx
	.loc	6 154 5                         # crypto_aead/aegis256/aegis256_common.h:154:5
	jmp	.LBB0_7
.Ltmp65:
	.loc	6 0 5                           # :0:5
.Ltmp66:
	.p2align	4
.LBB0_6:                                # %.lr.ph109
                                        # =>This Inner Loop Header: Depth=1
	#DEBUG_VALUE: encrypt_detached:c <- $r13
	#DEBUG_VALUE: encrypt_detached:mac <- [DW_OP_plus_uconst 72] [$rsp+0]
	#DEBUG_VALUE: encrypt_detached:maclen <- [DW_OP_plus_uconst 120] [$rsp+0]
	#DEBUG_VALUE: encrypt_detached:m <- $r12
	#DEBUG_VALUE: encrypt_detached:mlen <- $r15
	#DEBUG_VALUE: encrypt_detached:ad <- $r9
	#DEBUG_VALUE: encrypt_detached:adlen <- [DW_OP_plus_uconst 240] [$rsp+0]
	#DEBUG_VALUE: encrypt_detached:npub <- [DW_OP_plus_uconst 248] [$rsp+0]
	#DEBUG_VALUE: encrypt_detached:k <- [DW_OP_plus_uconst 256] [$rsp+0]
	#DEBUG_VALUE: encrypt_detached:state <- [DW_OP_LLVM_fragment 0 128] $xmm6
	#DEBUG_VALUE: encrypt_detached:state <- [DW_OP_LLVM_fragment 512 128] $xmm9
	#DEBUG_VALUE: encrypt_detached:state <- [DW_OP_LLVM_fragment 384 128] $xmm7
	#DEBUG_VALUE: encrypt_detached:state <- [DW_OP_LLVM_fragment 256 128] $xmm4
	#DEBUG_VALUE: encrypt_detached:state <- [DW_OP_LLVM_fragment 128 128] $xmm5
	#DEBUG_VALUE: encrypt_detached:i <- $rax
	#DEBUG_VALUE: encrypt_detached:state <- [DW_OP_LLVM_fragment 0 128] $xmm6
	#DEBUG_VALUE: encrypt_detached:state <- [DW_OP_LLVM_fragment 128 128] $xmm5
	#DEBUG_VALUE: encrypt_detached:state <- [DW_OP_LLVM_fragment 256 128] $xmm4
	#DEBUG_VALUE: encrypt_detached:state <- [DW_OP_LLVM_fragment 384 128] $xmm7
	#DEBUG_VALUE: encrypt_detached:state <- [DW_OP_LLVM_fragment 512 128] $xmm9
	#DEBUG_VALUE: encrypt_detached:state <- [DW_OP_LLVM_fragment 640 128] $xmm1
	#DEBUG_VALUE: aegis256_absorb:src <- [DW_OP_LLVM_arg 0, DW_OP_LLVM_arg 1, DW_OP_minus, DW_OP_consts 16, DW_OP_div, DW_OP_consts 16, DW_OP_mul, DW_OP_LLVM_arg 1, DW_OP_LLVM_arg 2, DW_OP_plus, DW_OP_plus, DW_OP_stack_value] undef, undef, undef
	#DEBUG_VALUE: aegis256_absorb:state <- undef
	#DEBUG_VALUE: aegis256_absorb:msg <- undef
	#DEBUG_VALUE: aegis256_update:state <- undef
	#DEBUG_VALUE: aegis256_update:d <- undef
	#DEBUG_VALUE: aegis256_update:tmp <- $xmm1
	.loc	5 46 16 is_stmt 1               # crypto_aead/aegis256/aegis256_aesni.c:46:16 @[ crypto_aead/aegis256/aegis256_common.h:71:5 @[ crypto_aead/aegis256/aegis256_common.h:155:9 ] ]
	vaesenc	%xmm1, %xmm9, %xmm8
.Ltmp67:
	#DEBUG_VALUE: encrypt_detached:state <- [DW_OP_LLVM_fragment 640 128] $xmm8
	.loc	5 47 16                         # crypto_aead/aegis256/aegis256_aesni.c:47:16 @[ crypto_aead/aegis256/aegis256_common.h:71:5 @[ crypto_aead/aegis256/aegis256_common.h:155:9 ] ]
	vaesenc	%xmm9, %xmm7, %xmm9
.Ltmp68:
	#DEBUG_VALUE: encrypt_detached:state <- [DW_OP_LLVM_fragment 512 128] $xmm9
	.loc	5 48 16                         # crypto_aead/aegis256/aegis256_aesni.c:48:16 @[ crypto_aead/aegis256/aegis256_common.h:71:5 @[ crypto_aead/aegis256/aegis256_common.h:155:9 ] ]
	vaesenc	%xmm7, %xmm4, %xmm7
.Ltmp69:
	#DEBUG_VALUE: encrypt_detached:state <- [DW_OP_LLVM_fragment 384 128] $xmm7
	.loc	5 49 16                         # crypto_aead/aegis256/aegis256_aesni.c:49:16 @[ crypto_aead/aegis256/aegis256_common.h:71:5 @[ crypto_aead/aegis256/aegis256_common.h:155:9 ] ]
	vaesenc	%xmm4, %xmm5, %xmm4
.Ltmp70:
	#DEBUG_VALUE: encrypt_detached:state <- [DW_OP_LLVM_fragment 256 128] $xmm4
	.loc	5 50 16                         # crypto_aead/aegis256/aegis256_aesni.c:50:16 @[ crypto_aead/aegis256/aegis256_common.h:71:5 @[ crypto_aead/aegis256/aegis256_common.h:155:9 ] ]
	vaesenc	%xmm5, %xmm6, %xmm5
.Ltmp71:
	#DEBUG_VALUE: encrypt_detached:state <- [DW_OP_LLVM_fragment 128 128] $xmm5
	.loc	5 51 31                         # crypto_aead/aegis256/aegis256_aesni.c:51:31 @[ crypto_aead/aegis256/aegis256_common.h:71:5 @[ crypto_aead/aegis256/aegis256_common.h:155:9 ] ]
	vaesenc	%xmm6, %xmm1, %xmm0
	.loc	5 51 16 is_stmt 0               # crypto_aead/aegis256/aegis256_aesni.c:51:16 @[ crypto_aead/aegis256/aegis256_common.h:71:5 @[ crypto_aead/aegis256/aegis256_common.h:155:9 ] ]
	vpxor	(%r9,%rax), %xmm0, %xmm6
.Ltmp72:
	#DEBUG_VALUE: encrypt_detached:state <- [DW_OP_LLVM_fragment 0 128] $xmm6
	#DEBUG_VALUE: encrypt_detached:state <- [DW_OP_LLVM_fragment 128 128] $xmm5
	#DEBUG_VALUE: encrypt_detached:state <- [DW_OP_LLVM_fragment 256 128] $xmm4
	#DEBUG_VALUE: encrypt_detached:state <- [DW_OP_LLVM_fragment 384 128] $xmm7
	#DEBUG_VALUE: encrypt_detached:state <- [DW_OP_LLVM_fragment 512 128] $xmm9
	#DEBUG_VALUE: encrypt_detached:state <- [DW_OP_LLVM_fragment 640 128] $xmm8
	#DEBUG_VALUE: encrypt_detached:i <- [DW_OP_plus_uconst 16, DW_OP_stack_value] $rax
	.loc	6 154 19 is_stmt 1              # crypto_aead/aegis256/aegis256_common.h:154:19
	leaq	16(%rax), %rcx
	addq	$32, %rax
.Ltmp73:
	.loc	6 0 19 is_stmt 0                # crypto_aead/aegis256/aegis256_common.h:0:19
	vmovdqa	%xmm8, %xmm1
.Ltmp74:
	.loc	6 154 19                        # crypto_aead/aegis256/aegis256_common.h:154:19
	cmpq	%rbx, %rax
	movq	%rcx, %rax
.Ltmp75:
	.loc	6 154 5                         # crypto_aead/aegis256/aegis256_common.h:154:5
	jbe	.LBB0_6
.Ltmp76:
.LBB0_7:                                # %._crit_edge
	#DEBUG_VALUE: encrypt_detached:c <- $r13
	#DEBUG_VALUE: encrypt_detached:mac <- [DW_OP_plus_uconst 72] [$rsp+0]
	#DEBUG_VALUE: encrypt_detached:maclen <- [DW_OP_plus_uconst 120] [$rsp+0]
	#DEBUG_VALUE: encrypt_detached:m <- $r12
	#DEBUG_VALUE: encrypt_detached:mlen <- $r15
	#DEBUG_VALUE: encrypt_detached:ad <- $r9
	#DEBUG_VALUE: encrypt_detached:adlen <- [DW_OP_plus_uconst 240] [$rsp+0]
	#DEBUG_VALUE: encrypt_detached:npub <- [DW_OP_plus_uconst 248] [$rsp+0]
	#DEBUG_VALUE: encrypt_detached:k <- [DW_OP_plus_uconst 256] [$rsp+0]
	#DEBUG_VALUE: encrypt_detached:state <- [DW_OP_LLVM_fragment 0 128] $xmm6
	#DEBUG_VALUE: encrypt_detached:state <- [DW_OP_LLVM_fragment 512 128] $xmm9
	#DEBUG_VALUE: encrypt_detached:state <- [DW_OP_LLVM_fragment 384 128] $xmm7
	#DEBUG_VALUE: encrypt_detached:state <- [DW_OP_LLVM_fragment 256 128] $xmm4
	#DEBUG_VALUE: encrypt_detached:state <- [DW_OP_LLVM_fragment 128 128] $xmm5
	.loc	6 157 15 is_stmt 1              # crypto_aead/aegis256/aegis256_common.h:157:15
	movq	%rbx, %rdx
	andq	$15, %rdx
	je	.LBB0_9
.Ltmp77:
# %bb.8:
	#DEBUG_VALUE: encrypt_detached:c <- $r13
	#DEBUG_VALUE: encrypt_detached:mac <- [DW_OP_plus_uconst 72] [$rsp+0]
	#DEBUG_VALUE: encrypt_detached:maclen <- [DW_OP_plus_uconst 120] [$rsp+0]
	#DEBUG_VALUE: encrypt_detached:m <- $r12
	#DEBUG_VALUE: encrypt_detached:mlen <- $r15
	#DEBUG_VALUE: encrypt_detached:ad <- $r9
	#DEBUG_VALUE: encrypt_detached:adlen <- [DW_OP_plus_uconst 240] [$rsp+0]
	#DEBUG_VALUE: encrypt_detached:npub <- [DW_OP_plus_uconst 248] [$rsp+0]
	#DEBUG_VALUE: encrypt_detached:k <- [DW_OP_plus_uconst 256] [$rsp+0]
	#DEBUG_VALUE: encrypt_detached:state <- [DW_OP_LLVM_fragment 0 128] $xmm6
	#DEBUG_VALUE: encrypt_detached:state <- [DW_OP_LLVM_fragment 512 128] $xmm9
	#DEBUG_VALUE: encrypt_detached:state <- [DW_OP_LLVM_fragment 384 128] $xmm7
	#DEBUG_VALUE: encrypt_detached:state <- [DW_OP_LLVM_fragment 256 128] $xmm4
	#DEBUG_VALUE: encrypt_detached:state <- [DW_OP_LLVM_fragment 128 128] $xmm5
	#DEBUG_VALUE: memset:__dest <- [DW_OP_plus_uconst 160, DW_OP_stack_value] $rsp
	#DEBUG_VALUE: memset:__ch <- 0
	#DEBUG_VALUE: memset:__len <- 16
	.file	8 "/usr/include/x86_64-linux-gnu/bits" "string_fortified.h"
	.loc	8 59 10                         # /usr/include/x86_64-linux-gnu/bits/string_fortified.h:59:10 @[ crypto_aead/aegis256/aegis256_common.h:158:9 ]
	vpxor	%xmm0, %xmm0, %xmm0
	vmovdqa	%xmm0, 160(%rsp)
.Ltmp78:
	.loc	6 159 24                        # crypto_aead/aegis256/aegis256_common.h:159:24
	addq	%rcx, %r9
.Ltmp79:
	#DEBUG_VALUE: encrypt_detached:ad <- [DW_OP_LLVM_entry_value 1] $r9
	#DEBUG_VALUE: memcpy:__src <- $r9
	#DEBUG_VALUE: memcpy:__dest <- [DW_OP_plus_uconst 160, DW_OP_stack_value] $rsp
	#DEBUG_VALUE: memcpy:__len <- $rdx
	.loc	6 0 24 is_stmt 0                # crypto_aead/aegis256/aegis256_common.h:0:24
	leaq	160(%rsp), %rdi
.Ltmp80:
	.loc	8 29 10 is_stmt 1               # /usr/include/x86_64-linux-gnu/bits/string_fortified.h:29:10 @[ crypto_aead/aegis256/aegis256_common.h:159:9 ]
	movl	$16, %ecx
	movq	%r9, %rsi
	vmovdqa	%xmm7, 48(%rsp)                 # 16-byte Spill
.Ltmp81:
	#DEBUG_VALUE: encrypt_detached:state <- [DW_OP_plus_uconst 48, DW_OP_deref, DW_OP_LLVM_fragment 384 128] $rsp
	.loc	8 0 10 is_stmt 0                # /usr/include/x86_64-linux-gnu/bits/string_fortified.h:0:10
	vmovdqa	%xmm9, 32(%rsp)                 # 16-byte Spill
.Ltmp82:
	#DEBUG_VALUE: encrypt_detached:state <- [DW_OP_plus_uconst 32, DW_OP_deref, DW_OP_LLVM_fragment 512 128] $rsp
	vmovdqa	%xmm4, 16(%rsp)                 # 16-byte Spill
.Ltmp83:
	#DEBUG_VALUE: encrypt_detached:state <- [DW_OP_plus_uconst 16, DW_OP_deref, DW_OP_LLVM_fragment 256 128] $rsp
	vmovdqa	%xmm5, (%rsp)                   # 16-byte Spill
.Ltmp84:
	#DEBUG_VALUE: encrypt_detached:state <- [DW_OP_deref, DW_OP_LLVM_fragment 128 128] $rsp
	vmovdqa	%xmm6, 80(%rsp)                 # 16-byte Spill
.Ltmp85:
	#DEBUG_VALUE: encrypt_detached:state <- [DW_OP_plus_uconst 80, DW_OP_deref, DW_OP_LLVM_fragment 0 128] $rsp
	vmovdqa	%xmm8, 96(%rsp)                 # 16-byte Spill
	.loc	8 29 10                         # /usr/include/x86_64-linux-gnu/bits/string_fortified.h:29:10 @[ crypto_aead/aegis256/aegis256_common.h:159:9 ]
	callq	__memcpy_chk@PLT
.Ltmp86:
	.loc	8 0 10                          # /usr/include/x86_64-linux-gnu/bits/string_fortified.h:0:10
	vmovdqa	(%rsp), %xmm5                   # 16-byte Reload
	vmovdqa	16(%rsp), %xmm4                 # 16-byte Reload
	vmovdqa	32(%rsp), %xmm9                 # 16-byte Reload
	vmovdqa	48(%rsp), %xmm7                 # 16-byte Reload
.Ltmp87:
	#DEBUG_VALUE: aegis256_absorb:src <- [DW_OP_plus_uconst 160, DW_OP_stack_value] $rsp
	#DEBUG_VALUE: aegis256_absorb:state <- undef
	#DEBUG_VALUE: aegis256_update:state <- undef
	#DEBUG_VALUE: aegis256_update:tmp <- [DW_OP_plus_uconst 96, DW_OP_deref] $rsp
	#DEBUG_VALUE: aegis256_absorb:msg <- undef
	#DEBUG_VALUE: aegis256_update:d <- undef
	#DEBUG_VALUE: encrypt_detached:state <- [DW_OP_LLVM_fragment 640 128] undef
	#DEBUG_VALUE: encrypt_detached:state <- [DW_OP_LLVM_fragment 512 128] undef
	#DEBUG_VALUE: encrypt_detached:state <- [DW_OP_LLVM_fragment 384 128] undef
	#DEBUG_VALUE: encrypt_detached:state <- [DW_OP_LLVM_fragment 256 128] undef
	#DEBUG_VALUE: encrypt_detached:state <- [DW_OP_LLVM_fragment 128 128] undef
	vmovdqa	80(%rsp), %xmm2                 # 16-byte Reload
	vmovdqa	96(%rsp), %xmm1                 # 16-byte Reload
.Ltmp88:
	.loc	5 51 31 is_stmt 1               # crypto_aead/aegis256/aegis256_aesni.c:51:31 @[ crypto_aead/aegis256/aegis256_common.h:71:5 @[ crypto_aead/aegis256/aegis256_common.h:160:9 ] ]
	vaesenc	%xmm2, %xmm1, %xmm0
	.loc	5 46 16                         # crypto_aead/aegis256/aegis256_aesni.c:46:16 @[ crypto_aead/aegis256/aegis256_common.h:71:5 @[ crypto_aead/aegis256/aegis256_common.h:160:9 ] ]
	vaesenc	%xmm1, %xmm9, %xmm8
.Ltmp89:
	#DEBUG_VALUE: encrypt_detached:state <- [DW_OP_LLVM_fragment 640 128] $xmm8
	.loc	5 47 16                         # crypto_aead/aegis256/aegis256_aesni.c:47:16 @[ crypto_aead/aegis256/aegis256_common.h:71:5 @[ crypto_aead/aegis256/aegis256_common.h:160:9 ] ]
	vaesenc	%xmm9, %xmm7, %xmm9
.Ltmp90:
	#DEBUG_VALUE: encrypt_detached:state <- [DW_OP_LLVM_fragment 512 128] $xmm9
	.loc	5 48 16                         # crypto_aead/aegis256/aegis256_aesni.c:48:16 @[ crypto_aead/aegis256/aegis256_common.h:71:5 @[ crypto_aead/aegis256/aegis256_common.h:160:9 ] ]
	vaesenc	%xmm7, %xmm4, %xmm7
.Ltmp91:
	#DEBUG_VALUE: encrypt_detached:state <- [DW_OP_LLVM_fragment 384 128] $xmm7
	.loc	5 49 16                         # crypto_aead/aegis256/aegis256_aesni.c:49:16 @[ crypto_aead/aegis256/aegis256_common.h:71:5 @[ crypto_aead/aegis256/aegis256_common.h:160:9 ] ]
	vaesenc	%xmm4, %xmm5, %xmm4
.Ltmp92:
	#DEBUG_VALUE: encrypt_detached:state <- [DW_OP_LLVM_fragment 256 128] $xmm4
	.loc	5 50 16                         # crypto_aead/aegis256/aegis256_aesni.c:50:16 @[ crypto_aead/aegis256/aegis256_common.h:71:5 @[ crypto_aead/aegis256/aegis256_common.h:160:9 ] ]
	vaesenc	%xmm5, %xmm2, %xmm5
.Ltmp93:
	#DEBUG_VALUE: encrypt_detached:state <- [DW_OP_LLVM_fragment 128 128] $xmm5
	.loc	5 51 16                         # crypto_aead/aegis256/aegis256_aesni.c:51:16 @[ crypto_aead/aegis256/aegis256_common.h:71:5 @[ crypto_aead/aegis256/aegis256_common.h:160:9 ] ]
	vpxor	160(%rsp), %xmm0, %xmm6
.Ltmp94:
	#DEBUG_VALUE: encrypt_detached:state <- [DW_OP_LLVM_fragment 0 128] $xmm6
.LBB0_9:
	#DEBUG_VALUE: encrypt_detached:c <- $r13
	#DEBUG_VALUE: encrypt_detached:mac <- [DW_OP_plus_uconst 72] [$rsp+0]
	#DEBUG_VALUE: encrypt_detached:maclen <- [DW_OP_plus_uconst 120] [$rsp+0]
	#DEBUG_VALUE: encrypt_detached:m <- $r12
	#DEBUG_VALUE: encrypt_detached:mlen <- $r15
	#DEBUG_VALUE: encrypt_detached:ad <- [DW_OP_LLVM_entry_value 1] $r9
	#DEBUG_VALUE: encrypt_detached:adlen <- [DW_OP_plus_uconst 240] [$rsp+0]
	#DEBUG_VALUE: encrypt_detached:npub <- [DW_OP_plus_uconst 248] [$rsp+0]
	#DEBUG_VALUE: encrypt_detached:k <- [DW_OP_plus_uconst 256] [$rsp+0]
	#DEBUG_VALUE: encrypt_detached:state <- [DW_OP_LLVM_fragment 0 128] $xmm6
	#DEBUG_VALUE: encrypt_detached:state <- [DW_OP_LLVM_fragment 512 128] $xmm9
	#DEBUG_VALUE: encrypt_detached:state <- [DW_OP_LLVM_fragment 384 128] $xmm7
	#DEBUG_VALUE: encrypt_detached:state <- [DW_OP_LLVM_fragment 256 128] $xmm4
	#DEBUG_VALUE: encrypt_detached:state <- [DW_OP_LLVM_fragment 128 128] $xmm5
	#DEBUG_VALUE: encrypt_detached:state <- [DW_OP_LLVM_fragment 0 128] $xmm6
	#DEBUG_VALUE: encrypt_detached:state <- [DW_OP_LLVM_fragment 128 128] $xmm5
	#DEBUG_VALUE: encrypt_detached:state <- [DW_OP_LLVM_fragment 256 128] $xmm4
	#DEBUG_VALUE: encrypt_detached:state <- [DW_OP_LLVM_fragment 384 128] $xmm7
	#DEBUG_VALUE: encrypt_detached:state <- [DW_OP_LLVM_fragment 512 128] $xmm9
	#DEBUG_VALUE: encrypt_detached:state <- [DW_OP_LLVM_fragment 640 128] $xmm8
	#DEBUG_VALUE: encrypt_detached:i <- 0
	.loc	6 162 24                        # crypto_aead/aegis256/aegis256_common.h:162:24
	cmpq	$16, %r15
.Ltmp95:
	.loc	6 162 5 is_stmt 0               # crypto_aead/aegis256/aegis256_common.h:162:5
	jae	.LBB0_11
.Ltmp96:
# %bb.10:
	#DEBUG_VALUE: encrypt_detached:c <- $r13
	#DEBUG_VALUE: encrypt_detached:mac <- [DW_OP_plus_uconst 72] [$rsp+0]
	#DEBUG_VALUE: encrypt_detached:maclen <- [DW_OP_plus_uconst 120] [$rsp+0]
	#DEBUG_VALUE: encrypt_detached:m <- $r12
	#DEBUG_VALUE: encrypt_detached:mlen <- $r15
	#DEBUG_VALUE: encrypt_detached:ad <- [DW_OP_LLVM_entry_value 1] $r9
	#DEBUG_VALUE: encrypt_detached:adlen <- [DW_OP_plus_uconst 240] [$rsp+0]
	#DEBUG_VALUE: encrypt_detached:npub <- [DW_OP_plus_uconst 248] [$rsp+0]
	#DEBUG_VALUE: encrypt_detached:k <- [DW_OP_plus_uconst 256] [$rsp+0]
	#DEBUG_VALUE: encrypt_detached:state <- [DW_OP_LLVM_fragment 0 128] $xmm6
	#DEBUG_VALUE: encrypt_detached:state <- [DW_OP_LLVM_fragment 640 128] $xmm8
	#DEBUG_VALUE: encrypt_detached:state <- [DW_OP_LLVM_fragment 512 128] $xmm9
	#DEBUG_VALUE: encrypt_detached:state <- [DW_OP_LLVM_fragment 384 128] $xmm7
	#DEBUG_VALUE: encrypt_detached:state <- [DW_OP_LLVM_fragment 256 128] $xmm4
	#DEBUG_VALUE: encrypt_detached:state <- [DW_OP_LLVM_fragment 128 128] $xmm5
	#DEBUG_VALUE: encrypt_detached:i <- 0
	.loc	6 0 5                           # crypto_aead/aegis256/aegis256_common.h:0:5
	xorl	%r14d, %r14d
	.loc	6 162 5                         # crypto_aead/aegis256/aegis256_common.h:162:5
	jmp	.LBB0_13
.Ltmp97:
.LBB0_11:                               # %.lr.ph126.preheader
	#DEBUG_VALUE: encrypt_detached:c <- $r13
	#DEBUG_VALUE: encrypt_detached:mac <- [DW_OP_plus_uconst 72] [$rsp+0]
	#DEBUG_VALUE: encrypt_detached:maclen <- [DW_OP_plus_uconst 120] [$rsp+0]
	#DEBUG_VALUE: encrypt_detached:m <- $r12
	#DEBUG_VALUE: encrypt_detached:mlen <- $r15
	#DEBUG_VALUE: encrypt_detached:ad <- [DW_OP_LLVM_entry_value 1] $r9
	#DEBUG_VALUE: encrypt_detached:adlen <- [DW_OP_plus_uconst 240] [$rsp+0]
	#DEBUG_VALUE: encrypt_detached:npub <- [DW_OP_plus_uconst 248] [$rsp+0]
	#DEBUG_VALUE: encrypt_detached:k <- [DW_OP_plus_uconst 256] [$rsp+0]
	#DEBUG_VALUE: encrypt_detached:state <- [DW_OP_LLVM_fragment 0 128] $xmm6
	#DEBUG_VALUE: encrypt_detached:state <- [DW_OP_LLVM_fragment 640 128] $xmm8
	#DEBUG_VALUE: encrypt_detached:state <- [DW_OP_LLVM_fragment 512 128] $xmm9
	#DEBUG_VALUE: encrypt_detached:state <- [DW_OP_LLVM_fragment 384 128] $xmm7
	#DEBUG_VALUE: encrypt_detached:state <- [DW_OP_LLVM_fragment 256 128] $xmm4
	#DEBUG_VALUE: encrypt_detached:state <- [DW_OP_LLVM_fragment 128 128] $xmm5
	#DEBUG_VALUE: encrypt_detached:i <- 0
	.loc	6 0 5                           # crypto_aead/aegis256/aegis256_common.h:0:5
	xorl	%eax, %eax
	vmovdqa	%xmm8, %xmm0
.Ltmp98:
	.p2align	4
.LBB0_12:                               # %.lr.ph126
                                        # =>This Inner Loop Header: Depth=1
	#DEBUG_VALUE: encrypt_detached:c <- $r13
	#DEBUG_VALUE: encrypt_detached:mac <- [DW_OP_plus_uconst 72] [$rsp+0]
	#DEBUG_VALUE: encrypt_detached:maclen <- [DW_OP_plus_uconst 120] [$rsp+0]
	#DEBUG_VALUE: encrypt_detached:m <- $r12
	#DEBUG_VALUE: encrypt_detached:mlen <- $r15
	#DEBUG_VALUE: encrypt_detached:ad <- [DW_OP_LLVM_entry_value 1] $r9
	#DEBUG_VALUE: encrypt_detached:adlen <- [DW_OP_plus_uconst 240] [$rsp+0]
	#DEBUG_VALUE: encrypt_detached:npub <- [DW_OP_plus_uconst 248] [$rsp+0]
	#DEBUG_VALUE: encrypt_detached:k <- [DW_OP_plus_uconst 256] [$rsp+0]
	#DEBUG_VALUE: encrypt_detached:state <- [DW_OP_LLVM_fragment 0 128] $xmm6
	#DEBUG_VALUE: encrypt_detached:state <- [DW_OP_LLVM_fragment 640 128] $xmm8
	#DEBUG_VALUE: encrypt_detached:state <- [DW_OP_LLVM_fragment 512 128] $xmm9
	#DEBUG_VALUE: encrypt_detached:state <- [DW_OP_LLVM_fragment 384 128] $xmm7
	#DEBUG_VALUE: encrypt_detached:state <- [DW_OP_LLVM_fragment 256 128] $xmm4
	#DEBUG_VALUE: encrypt_detached:state <- [DW_OP_LLVM_fragment 128 128] $xmm5
	#DEBUG_VALUE: encrypt_detached:i <- $rax
	#DEBUG_VALUE: encrypt_detached:state <- [DW_OP_LLVM_fragment 0 128] $xmm6
	#DEBUG_VALUE: encrypt_detached:state <- [DW_OP_LLVM_fragment 128 128] $xmm5
	#DEBUG_VALUE: encrypt_detached:state <- [DW_OP_LLVM_fragment 256 128] $xmm4
	#DEBUG_VALUE: encrypt_detached:state <- [DW_OP_LLVM_fragment 384 128] $xmm7
	#DEBUG_VALUE: encrypt_detached:state <- [DW_OP_LLVM_fragment 512 128] $xmm9
	#DEBUG_VALUE: encrypt_detached:state <- [DW_OP_LLVM_fragment 640 128] $xmm0
	#DEBUG_VALUE: aegis256_enc:dst <- [DW_OP_LLVM_arg 0, DW_OP_consts 16, DW_OP_div, DW_OP_consts 16, DW_OP_mul, DW_OP_LLVM_arg 1, DW_OP_plus, DW_OP_stack_value] $rax, $r13
	#DEBUG_VALUE: aegis256_enc:src <- [DW_OP_LLVM_arg 0, DW_OP_consts 16, DW_OP_div, DW_OP_consts 16, DW_OP_mul, DW_OP_LLVM_arg 1, DW_OP_plus, DW_OP_stack_value] $rax, $r12
	#DEBUG_VALUE: aegis256_enc:state <- undef
	.loc	6 91 11 is_stmt 1               # crypto_aead/aegis256/aegis256_common.h:91:11 @[ crypto_aead/aegis256/aegis256_common.h:163:9 ]
	vmovdqu	(%r12,%rax), %xmm1
.Ltmp99:
	#DEBUG_VALUE: aegis256_enc:msg <- $xmm1
	#DEBUG_VALUE: aegis256_enc:tmp <- undef
	.loc	6 95 33                         # crypto_aead/aegis256/aegis256_common.h:95:33 @[ crypto_aead/aegis256/aegis256_common.h:163:9 ]
	vpand	%xmm7, %xmm4, %xmm2
	.loc	6 95 11 is_stmt 0               # crypto_aead/aegis256/aegis256_common.h:95:11 @[ crypto_aead/aegis256/aegis256_common.h:163:9 ]
	vpxor	%xmm0, %xmm9, %xmm3
	vpxor	%xmm2, %xmm3, %xmm2
	vpxor	%xmm5, %xmm2, %xmm2
	vpxor	%xmm1, %xmm2, %xmm2
.Ltmp100:
	#DEBUG_VALUE: aegis256_enc:tmp <- $xmm2
	.loc	6 96 5 is_stmt 1                # crypto_aead/aegis256/aegis256_common.h:96:5 @[ crypto_aead/aegis256/aegis256_common.h:163:9 ]
	vmovdqu	%xmm2, (%r13,%rax)
.Ltmp101:
	#DEBUG_VALUE: aegis256_update:state <- undef
	#DEBUG_VALUE: aegis256_update:d <- $xmm1
	#DEBUG_VALUE: aegis256_update:tmp <- $xmm0
	.loc	5 46 16                         # crypto_aead/aegis256/aegis256_aesni.c:46:16 @[ crypto_aead/aegis256/aegis256_common.h:98:5 @[ crypto_aead/aegis256/aegis256_common.h:163:9 ] ]
	vaesenc	%xmm0, %xmm9, %xmm8
.Ltmp102:
	#DEBUG_VALUE: encrypt_detached:state <- [DW_OP_LLVM_fragment 640 128] $xmm8
	.loc	5 47 16                         # crypto_aead/aegis256/aegis256_aesni.c:47:16 @[ crypto_aead/aegis256/aegis256_common.h:98:5 @[ crypto_aead/aegis256/aegis256_common.h:163:9 ] ]
	vaesenc	%xmm9, %xmm7, %xmm9
.Ltmp103:
	#DEBUG_VALUE: encrypt_detached:state <- [DW_OP_LLVM_fragment 512 128] $xmm9
	.loc	5 48 16                         # crypto_aead/aegis256/aegis256_aesni.c:48:16 @[ crypto_aead/aegis256/aegis256_common.h:98:5 @[ crypto_aead/aegis256/aegis256_common.h:163:9 ] ]
	vaesenc	%xmm7, %xmm4, %xmm7
.Ltmp104:
	#DEBUG_VALUE: encrypt_detached:state <- [DW_OP_LLVM_fragment 384 128] $xmm7
	.loc	5 49 16                         # crypto_aead/aegis256/aegis256_aesni.c:49:16 @[ crypto_aead/aegis256/aegis256_common.h:98:5 @[ crypto_aead/aegis256/aegis256_common.h:163:9 ] ]
	vaesenc	%xmm4, %xmm5, %xmm4
.Ltmp105:
	#DEBUG_VALUE: encrypt_detached:state <- [DW_OP_LLVM_fragment 256 128] $xmm4
	.loc	5 50 16                         # crypto_aead/aegis256/aegis256_aesni.c:50:16 @[ crypto_aead/aegis256/aegis256_common.h:98:5 @[ crypto_aead/aegis256/aegis256_common.h:163:9 ] ]
	vaesenc	%xmm5, %xmm6, %xmm5
.Ltmp106:
	#DEBUG_VALUE: encrypt_detached:state <- [DW_OP_LLVM_fragment 128 128] $xmm5
	.loc	5 51 31                         # crypto_aead/aegis256/aegis256_aesni.c:51:31 @[ crypto_aead/aegis256/aegis256_common.h:98:5 @[ crypto_aead/aegis256/aegis256_common.h:163:9 ] ]
	vaesenc	%xmm6, %xmm0, %xmm0
.Ltmp107:
	.loc	5 51 16 is_stmt 0               # crypto_aead/aegis256/aegis256_aesni.c:51:16 @[ crypto_aead/aegis256/aegis256_common.h:98:5 @[ crypto_aead/aegis256/aegis256_common.h:163:9 ] ]
	vpxor	%xmm1, %xmm0, %xmm6
.Ltmp108:
	#DEBUG_VALUE: encrypt_detached:state <- [DW_OP_LLVM_fragment 0 128] $xmm6
	#DEBUG_VALUE: encrypt_detached:state <- [DW_OP_LLVM_fragment 128 128] $xmm5
	#DEBUG_VALUE: encrypt_detached:state <- [DW_OP_LLVM_fragment 256 128] $xmm4
	#DEBUG_VALUE: encrypt_detached:state <- [DW_OP_LLVM_fragment 384 128] $xmm7
	#DEBUG_VALUE: encrypt_detached:state <- [DW_OP_LLVM_fragment 512 128] $xmm9
	#DEBUG_VALUE: encrypt_detached:state <- [DW_OP_LLVM_fragment 640 128] $xmm8
	#DEBUG_VALUE: encrypt_detached:i <- [DW_OP_plus_uconst 16, DW_OP_stack_value] $rax
	.loc	6 162 24 is_stmt 1              # crypto_aead/aegis256/aegis256_common.h:162:24
	leaq	16(%rax), %r14
	addq	$32, %rax
.Ltmp109:
	.loc	6 0 24 is_stmt 0                # crypto_aead/aegis256/aegis256_common.h:0:24
	vmovdqa	%xmm8, %xmm0
	.loc	6 162 24                        # crypto_aead/aegis256/aegis256_common.h:162:24
	cmpq	%r15, %rax
	movq	%r14, %rax
.Ltmp110:
	.loc	6 162 5                         # crypto_aead/aegis256/aegis256_common.h:162:5
	jbe	.LBB0_12
.Ltmp111:
.LBB0_13:                               # %._crit_edge127
	#DEBUG_VALUE: encrypt_detached:c <- $r13
	#DEBUG_VALUE: encrypt_detached:mac <- [DW_OP_plus_uconst 72] [$rsp+0]
	#DEBUG_VALUE: encrypt_detached:maclen <- [DW_OP_plus_uconst 120] [$rsp+0]
	#DEBUG_VALUE: encrypt_detached:m <- $r12
	#DEBUG_VALUE: encrypt_detached:mlen <- $r15
	#DEBUG_VALUE: encrypt_detached:ad <- [DW_OP_LLVM_entry_value 1] $r9
	#DEBUG_VALUE: encrypt_detached:adlen <- [DW_OP_plus_uconst 240] [$rsp+0]
	#DEBUG_VALUE: encrypt_detached:npub <- [DW_OP_plus_uconst 248] [$rsp+0]
	#DEBUG_VALUE: encrypt_detached:k <- [DW_OP_plus_uconst 256] [$rsp+0]
	#DEBUG_VALUE: encrypt_detached:state <- [DW_OP_LLVM_fragment 0 128] $xmm6
	#DEBUG_VALUE: encrypt_detached:state <- [DW_OP_LLVM_fragment 640 128] $xmm8
	#DEBUG_VALUE: encrypt_detached:state <- [DW_OP_LLVM_fragment 512 128] $xmm9
	#DEBUG_VALUE: encrypt_detached:state <- [DW_OP_LLVM_fragment 384 128] $xmm7
	#DEBUG_VALUE: encrypt_detached:state <- [DW_OP_LLVM_fragment 256 128] $xmm4
	#DEBUG_VALUE: encrypt_detached:state <- [DW_OP_LLVM_fragment 128 128] $xmm5
	.loc	6 165 14 is_stmt 1              # crypto_aead/aegis256/aegis256_common.h:165:14
	movq	%r15, %rbp
	andq	$15, %rbp
	je	.LBB0_15
.Ltmp112:
# %bb.14:
	#DEBUG_VALUE: encrypt_detached:c <- $r13
	#DEBUG_VALUE: encrypt_detached:mac <- [DW_OP_plus_uconst 72] [$rsp+0]
	#DEBUG_VALUE: encrypt_detached:maclen <- [DW_OP_plus_uconst 120] [$rsp+0]
	#DEBUG_VALUE: encrypt_detached:m <- $r12
	#DEBUG_VALUE: encrypt_detached:mlen <- $r15
	#DEBUG_VALUE: encrypt_detached:ad <- [DW_OP_LLVM_entry_value 1] $r9
	#DEBUG_VALUE: encrypt_detached:adlen <- [DW_OP_plus_uconst 240] [$rsp+0]
	#DEBUG_VALUE: encrypt_detached:npub <- [DW_OP_plus_uconst 248] [$rsp+0]
	#DEBUG_VALUE: encrypt_detached:k <- [DW_OP_plus_uconst 256] [$rsp+0]
	#DEBUG_VALUE: encrypt_detached:state <- [DW_OP_LLVM_fragment 0 128] $xmm6
	#DEBUG_VALUE: encrypt_detached:state <- [DW_OP_LLVM_fragment 640 128] $xmm8
	#DEBUG_VALUE: encrypt_detached:state <- [DW_OP_LLVM_fragment 512 128] $xmm9
	#DEBUG_VALUE: encrypt_detached:state <- [DW_OP_LLVM_fragment 384 128] $xmm7
	#DEBUG_VALUE: encrypt_detached:state <- [DW_OP_LLVM_fragment 256 128] $xmm4
	#DEBUG_VALUE: encrypt_detached:state <- [DW_OP_LLVM_fragment 128 128] $xmm5
	#DEBUG_VALUE: memset:__dest <- [DW_OP_plus_uconst 160, DW_OP_stack_value] $rsp
	#DEBUG_VALUE: memset:__ch <- 0
	#DEBUG_VALUE: memset:__len <- 16
	.loc	8 59 10                         # /usr/include/x86_64-linux-gnu/bits/string_fortified.h:59:10 @[ crypto_aead/aegis256/aegis256_common.h:166:9 ]
	vpxor	%xmm0, %xmm0, %xmm0
	vmovdqa	%xmm0, 160(%rsp)
.Ltmp113:
	.loc	6 167 23                        # crypto_aead/aegis256/aegis256_common.h:167:23
	addq	%r14, %r12
.Ltmp114:
	#DEBUG_VALUE: encrypt_detached:m <- [DW_OP_LLVM_entry_value 1] $rcx
	#DEBUG_VALUE: memcpy:__src <- $r12
	#DEBUG_VALUE: memcpy:__dest <- [DW_OP_plus_uconst 160, DW_OP_stack_value] $rsp
	#DEBUG_VALUE: memcpy:__len <- $rbp
	.loc	6 0 23 is_stmt 0                # crypto_aead/aegis256/aegis256_common.h:0:23
	leaq	160(%rsp), %rdi
.Ltmp115:
	.loc	8 29 10 is_stmt 1               # /usr/include/x86_64-linux-gnu/bits/string_fortified.h:29:10 @[ crypto_aead/aegis256/aegis256_common.h:167:9 ]
	movl	$16, %ecx
	movq	%r12, %rsi
	movq	%rbp, %rdx
	vmovdqa	%xmm7, 48(%rsp)                 # 16-byte Spill
.Ltmp116:
	#DEBUG_VALUE: encrypt_detached:state <- [DW_OP_plus_uconst 48, DW_OP_deref, DW_OP_LLVM_fragment 384 128] $rsp
	.loc	8 0 10 is_stmt 0                # /usr/include/x86_64-linux-gnu/bits/string_fortified.h:0:10
	vmovdqa	%xmm9, 32(%rsp)                 # 16-byte Spill
.Ltmp117:
	#DEBUG_VALUE: encrypt_detached:state <- [DW_OP_plus_uconst 32, DW_OP_deref, DW_OP_LLVM_fragment 512 128] $rsp
	vmovdqa	%xmm4, 16(%rsp)                 # 16-byte Spill
.Ltmp118:
	#DEBUG_VALUE: encrypt_detached:state <- [DW_OP_plus_uconst 16, DW_OP_deref, DW_OP_LLVM_fragment 256 128] $rsp
	vmovdqa	%xmm5, (%rsp)                   # 16-byte Spill
.Ltmp119:
	#DEBUG_VALUE: encrypt_detached:state <- [DW_OP_deref, DW_OP_LLVM_fragment 128 128] $rsp
	vmovdqa	%xmm6, 80(%rsp)                 # 16-byte Spill
.Ltmp120:
	#DEBUG_VALUE: encrypt_detached:state <- [DW_OP_plus_uconst 80, DW_OP_deref, DW_OP_LLVM_fragment 0 128] $rsp
	vmovdqa	%xmm8, 96(%rsp)                 # 16-byte Spill
.Ltmp121:
	#DEBUG_VALUE: encrypt_detached:state <- [DW_OP_plus_uconst 96, DW_OP_deref, DW_OP_LLVM_fragment 640 128] $rsp
	.loc	8 29 10                         # /usr/include/x86_64-linux-gnu/bits/string_fortified.h:29:10 @[ crypto_aead/aegis256/aegis256_common.h:167:9 ]
	callq	__memcpy_chk@PLT
.Ltmp122:
	#DEBUG_VALUE: aegis256_enc:dst <- undef
	#DEBUG_VALUE: aegis256_enc:src <- [DW_OP_plus_uconst 160, DW_OP_stack_value] $rsp
	#DEBUG_VALUE: aegis256_enc:state <- undef
	.loc	6 91 11 is_stmt 1               # crypto_aead/aegis256/aegis256_common.h:91:11 @[ crypto_aead/aegis256/aegis256_common.h:168:9 ]
	vmovdqa	160(%rsp), %xmm0
.Ltmp123:
	#DEBUG_VALUE: aegis256_enc:msg <- $xmm0
	#DEBUG_VALUE: aegis256_enc:tmp <- undef
	.loc	6 0 11 is_stmt 0                # crypto_aead/aegis256/aegis256_common.h:0:11
	vmovdqa	16(%rsp), %xmm1                 # 16-byte Reload
	.loc	6 95 33 is_stmt 1               # crypto_aead/aegis256/aegis256_common.h:95:33 @[ crypto_aead/aegis256/aegis256_common.h:168:9 ]
	vpand	48(%rsp), %xmm1, %xmm1          # 16-byte Folded Reload
	vmovdqa	96(%rsp), %xmm3                 # 16-byte Reload
	.loc	6 95 11 is_stmt 0               # crypto_aead/aegis256/aegis256_common.h:95:11 @[ crypto_aead/aegis256/aegis256_common.h:168:9 ]
	vpxor	32(%rsp), %xmm3, %xmm2          # 16-byte Folded Reload
	vpxor	%xmm1, %xmm2, %xmm1
	vpxor	(%rsp), %xmm0, %xmm2            # 16-byte Folded Reload
	vpxor	%xmm2, %xmm1, %xmm1
.Ltmp124:
	#DEBUG_VALUE: aegis256_enc:tmp <- $xmm1
	.loc	6 96 5 is_stmt 1                # crypto_aead/aegis256/aegis256_common.h:96:5 @[ crypto_aead/aegis256/aegis256_common.h:168:9 ]
	vmovdqa	%xmm1, 144(%rsp)
.Ltmp125:
	#DEBUG_VALUE: aegis256_update:state <- undef
	#DEBUG_VALUE: aegis256_update:tmp <- [DW_OP_plus_uconst 96, DW_OP_deref] $rsp
	#DEBUG_VALUE: aegis256_update:d <- $xmm0
	.loc	6 0 5 is_stmt 0                 # crypto_aead/aegis256/aegis256_common.h:0:5
	vmovdqa	32(%rsp), %xmm1                 # 16-byte Reload
.Ltmp126:
	.loc	5 46 16 is_stmt 1               # crypto_aead/aegis256/aegis256_aesni.c:46:16 @[ crypto_aead/aegis256/aegis256_common.h:98:5 @[ crypto_aead/aegis256/aegis256_common.h:168:9 ] ]
	vaesenc	%xmm3, %xmm1, %xmm1
.Ltmp127:
	#DEBUG_VALUE: encrypt_detached:state <- [DW_OP_LLVM_fragment 640 128] $xmm1
	.loc	5 0 16 is_stmt 0                # crypto_aead/aegis256/aegis256_aesni.c:0:16
	vmovdqa	%xmm1, 128(%rsp)                # 16-byte Spill
.Ltmp128:
	#DEBUG_VALUE: encrypt_detached:state <- [DW_OP_plus_uconst 128, DW_OP_deref, DW_OP_LLVM_fragment 640 128] $rsp
	vmovdqa	48(%rsp), %xmm1                 # 16-byte Reload
	vmovdqa	32(%rsp), %xmm2                 # 16-byte Reload
	.loc	5 47 16 is_stmt 1               # crypto_aead/aegis256/aegis256_aesni.c:47:16 @[ crypto_aead/aegis256/aegis256_common.h:98:5 @[ crypto_aead/aegis256/aegis256_common.h:168:9 ] ]
	vaesenc	%xmm2, %xmm1, %xmm2
.Ltmp129:
	#DEBUG_VALUE: encrypt_detached:state <- [DW_OP_LLVM_fragment 512 128] $xmm2
	.loc	5 0 16 is_stmt 0                # crypto_aead/aegis256/aegis256_aesni.c:0:16
	vmovdqa	%xmm2, 32(%rsp)                 # 16-byte Spill
.Ltmp130:
	#DEBUG_VALUE: encrypt_detached:state <- [DW_OP_plus_uconst 32, DW_OP_deref, DW_OP_LLVM_fragment 512 128] $rsp
	vmovdqa	48(%rsp), %xmm1                 # 16-byte Reload
	vmovdqa	16(%rsp), %xmm2                 # 16-byte Reload
	.loc	5 48 16 is_stmt 1               # crypto_aead/aegis256/aegis256_aesni.c:48:16 @[ crypto_aead/aegis256/aegis256_common.h:98:5 @[ crypto_aead/aegis256/aegis256_common.h:168:9 ] ]
	vaesenc	%xmm1, %xmm2, %xmm1
.Ltmp131:
	#DEBUG_VALUE: encrypt_detached:state <- [DW_OP_LLVM_fragment 384 128] $xmm1
	.loc	5 0 16 is_stmt 0                # crypto_aead/aegis256/aegis256_aesni.c:0:16
	vmovdqa	%xmm1, 48(%rsp)                 # 16-byte Spill
.Ltmp132:
	#DEBUG_VALUE: encrypt_detached:state <- [DW_OP_plus_uconst 48, DW_OP_deref, DW_OP_LLVM_fragment 384 128] $rsp
	vmovdqa	16(%rsp), %xmm1                 # 16-byte Reload
	vmovdqa	(%rsp), %xmm2                   # 16-byte Reload
	.loc	5 49 16 is_stmt 1               # crypto_aead/aegis256/aegis256_aesni.c:49:16 @[ crypto_aead/aegis256/aegis256_common.h:98:5 @[ crypto_aead/aegis256/aegis256_common.h:168:9 ] ]
	vaesenc	%xmm1, %xmm2, %xmm1
.Ltmp133:
	#DEBUG_VALUE: encrypt_detached:state <- [DW_OP_LLVM_fragment 256 128] $xmm1
	.loc	5 0 16 is_stmt 0                # crypto_aead/aegis256/aegis256_aesni.c:0:16
	vmovdqa	%xmm1, 16(%rsp)                 # 16-byte Spill
.Ltmp134:
	#DEBUG_VALUE: encrypt_detached:state <- [DW_OP_plus_uconst 16, DW_OP_deref, DW_OP_LLVM_fragment 256 128] $rsp
	vmovdqa	(%rsp), %xmm1                   # 16-byte Reload
	vmovdqa	80(%rsp), %xmm2                 # 16-byte Reload
	.loc	5 50 16 is_stmt 1               # crypto_aead/aegis256/aegis256_aesni.c:50:16 @[ crypto_aead/aegis256/aegis256_common.h:98:5 @[ crypto_aead/aegis256/aegis256_common.h:168:9 ] ]
	vaesenc	%xmm1, %xmm2, %xmm1
.Ltmp135:
	#DEBUG_VALUE: encrypt_detached:state <- [DW_OP_LLVM_fragment 128 128] $xmm1
	.loc	5 0 16 is_stmt 0                # crypto_aead/aegis256/aegis256_aesni.c:0:16
	vmovdqa	%xmm1, (%rsp)                   # 16-byte Spill
.Ltmp136:
	#DEBUG_VALUE: encrypt_detached:state <- [DW_OP_deref, DW_OP_LLVM_fragment 128 128] $rsp
	.loc	5 51 31 is_stmt 1               # crypto_aead/aegis256/aegis256_aesni.c:51:31 @[ crypto_aead/aegis256/aegis256_common.h:98:5 @[ crypto_aead/aegis256/aegis256_common.h:168:9 ] ]
	vaesenc	%xmm2, %xmm3, %xmm1
	.loc	5 51 16 is_stmt 0               # crypto_aead/aegis256/aegis256_aesni.c:51:16 @[ crypto_aead/aegis256/aegis256_common.h:98:5 @[ crypto_aead/aegis256/aegis256_common.h:168:9 ] ]
	vpxor	%xmm0, %xmm1, %xmm0
.Ltmp137:
	#DEBUG_VALUE: encrypt_detached:state <- [DW_OP_LLVM_fragment 0 128] $xmm0
	.loc	5 0 16                          # crypto_aead/aegis256/aegis256_aesni.c:0:16
	vmovdqa	%xmm0, 80(%rsp)                 # 16-byte Spill
.Ltmp138:
	#DEBUG_VALUE: encrypt_detached:state <- [DW_OP_plus_uconst 80, DW_OP_deref, DW_OP_LLVM_fragment 0 128] $rsp
	.loc	6 169 18 is_stmt 1              # crypto_aead/aegis256/aegis256_common.h:169:18
	addq	%r14, %r13
.Ltmp139:
	#DEBUG_VALUE: encrypt_detached:c <- [DW_OP_LLVM_entry_value 1] $rdi
	#DEBUG_VALUE: memcpy:__dest <- $r13
	#DEBUG_VALUE: memcpy:__src <- undef
	#DEBUG_VALUE: memcpy:__len <- $rbp
	.loc	6 0 18 is_stmt 0                # crypto_aead/aegis256/aegis256_common.h:0:18
	leaq	144(%rsp), %rsi
.Ltmp140:
	.loc	8 29 10 is_stmt 1               # /usr/include/x86_64-linux-gnu/bits/string_fortified.h:29:10 @[ crypto_aead/aegis256/aegis256_common.h:169:9 ]
	movq	%r13, %rdi
	movq	%rbp, %rdx
	callq	memcpy@PLT
.Ltmp141:
	.loc	8 0 10 is_stmt 0                # /usr/include/x86_64-linux-gnu/bits/string_fortified.h:0:10
	vmovdqa	80(%rsp), %xmm6                 # 16-byte Reload
	vmovdqa	(%rsp), %xmm5                   # 16-byte Reload
	vmovdqa	16(%rsp), %xmm4                 # 16-byte Reload
	vmovdqa	32(%rsp), %xmm9                 # 16-byte Reload
	vmovdqa	48(%rsp), %xmm7                 # 16-byte Reload
	vmovdqa	128(%rsp), %xmm8                # 16-byte Reload
.Ltmp142:
.LBB0_15:
	#DEBUG_VALUE: encrypt_detached:c <- [DW_OP_LLVM_entry_value 1] $rdi
	#DEBUG_VALUE: encrypt_detached:mac <- [DW_OP_plus_uconst 72] [$rsp+0]
	#DEBUG_VALUE: encrypt_detached:maclen <- [DW_OP_plus_uconst 120] [$rsp+0]
	#DEBUG_VALUE: encrypt_detached:m <- [DW_OP_LLVM_entry_value 1] $rcx
	#DEBUG_VALUE: encrypt_detached:mlen <- $r15
	#DEBUG_VALUE: encrypt_detached:ad <- [DW_OP_LLVM_entry_value 1] $r9
	#DEBUG_VALUE: encrypt_detached:adlen <- [DW_OP_plus_uconst 240] [$rsp+0]
	#DEBUG_VALUE: encrypt_detached:npub <- [DW_OP_plus_uconst 248] [$rsp+0]
	#DEBUG_VALUE: encrypt_detached:k <- [DW_OP_plus_uconst 256] [$rsp+0]
	#DEBUG_VALUE: encrypt_detached:state <- [DW_OP_LLVM_fragment 0 128] $xmm6
	#DEBUG_VALUE: encrypt_detached:state <- [DW_OP_LLVM_fragment 640 128] $xmm8
	#DEBUG_VALUE: encrypt_detached:state <- [DW_OP_LLVM_fragment 512 128] $xmm9
	#DEBUG_VALUE: encrypt_detached:state <- [DW_OP_LLVM_fragment 384 128] $xmm7
	#DEBUG_VALUE: encrypt_detached:state <- [DW_OP_LLVM_fragment 256 128] $xmm4
	#DEBUG_VALUE: encrypt_detached:state <- [DW_OP_LLVM_fragment 128 128] $xmm5
	#DEBUG_VALUE: encrypt_detached:state <- [DW_OP_LLVM_fragment 0 128] $xmm6
	#DEBUG_VALUE: encrypt_detached:state <- [DW_OP_LLVM_fragment 128 128] $xmm5
	#DEBUG_VALUE: encrypt_detached:state <- [DW_OP_LLVM_fragment 256 128] $xmm4
	#DEBUG_VALUE: encrypt_detached:state <- [DW_OP_LLVM_fragment 384 128] $xmm7
	#DEBUG_VALUE: encrypt_detached:state <- [DW_OP_LLVM_fragment 512 128] $xmm9
	#DEBUG_VALUE: encrypt_detached:state <- [DW_OP_LLVM_fragment 640 128] $xmm8
	#DEBUG_VALUE: aegis256_mac:mac <- [DW_OP_plus_uconst 72, DW_OP_deref] $rsp
	#DEBUG_VALUE: aegis256_mac:maclen <- [DW_OP_plus_uconst 120, DW_OP_deref] $rsp
	#DEBUG_VALUE: aegis256_mac:adlen <- $rbx
	#DEBUG_VALUE: aegis256_mac:mlen <- $r15
	#DEBUG_VALUE: aegis256_mac:state <- undef
	.loc	6 43 96 is_stmt 1               # crypto_aead/aegis256/aegis256_common.h:43:96 @[ crypto_aead/aegis256/aegis256_common.h:172:5 ]
	vmovq	%r15, %xmm0
	vmovq	%rbx, %xmm1
	vpunpcklqdq	%xmm0, %xmm1, %xmm0     # xmm0 = xmm1[0],xmm0[0]
	vpsllq	$3, %xmm0, %xmm0
.Ltmp143:
	#DEBUG_VALUE: aegis256_mac:tmp <- undef
	#DEBUG_VALUE: aegis256_mac:tmp <- undef
	#DEBUG_VALUE: aegis256_update:d <- undef
	#DEBUG_VALUE: aegis256_mac:i <- 0
	#DEBUG_VALUE: aegis256_update:state <- undef
	#DEBUG_VALUE: aegis256_update:tmp <- $xmm8
	.loc	5 46 16                         # crypto_aead/aegis256/aegis256_aesni.c:46:16 @[ crypto_aead/aegis256/aegis256_common.h:47:9 @[ crypto_aead/aegis256/aegis256_common.h:172:5 ] ]
	vaesenc	%xmm8, %xmm9, %xmm1
	.loc	5 47 16                         # crypto_aead/aegis256/aegis256_aesni.c:47:16 @[ crypto_aead/aegis256/aegis256_common.h:47:9 @[ crypto_aead/aegis256/aegis256_common.h:172:5 ] ]
	vaesenc	%xmm9, %xmm7, %xmm2
	.loc	5 48 16                         # crypto_aead/aegis256/aegis256_aesni.c:48:16 @[ crypto_aead/aegis256/aegis256_common.h:47:9 @[ crypto_aead/aegis256/aegis256_common.h:172:5 ] ]
	vaesenc	%xmm7, %xmm4, %xmm3
	.loc	5 49 16                         # crypto_aead/aegis256/aegis256_aesni.c:49:16 @[ crypto_aead/aegis256/aegis256_common.h:47:9 @[ crypto_aead/aegis256/aegis256_common.h:172:5 ] ]
	vaesenc	%xmm4, %xmm5, %xmm4
.Ltmp144:
	.loc	5 50 16                         # crypto_aead/aegis256/aegis256_aesni.c:50:16 @[ crypto_aead/aegis256/aegis256_common.h:47:9 @[ crypto_aead/aegis256/aegis256_common.h:172:5 ] ]
	vaesenc	%xmm5, %xmm6, %xmm5
.Ltmp145:
	.loc	6 44 11                         # crypto_aead/aegis256/aegis256_common.h:44:11 @[ crypto_aead/aegis256/aegis256_common.h:172:5 ]
	vpxor	%xmm0, %xmm7, %xmm0
.Ltmp146:
	#DEBUG_VALUE: aegis256_update:d <- $xmm0
	#DEBUG_VALUE: aegis256_mac:tmp <- $xmm0
	.loc	5 51 31                         # crypto_aead/aegis256/aegis256_aesni.c:51:31 @[ crypto_aead/aegis256/aegis256_common.h:47:9 @[ crypto_aead/aegis256/aegis256_common.h:172:5 ] ]
	vaesenc	%xmm6, %xmm8, %xmm6
.Ltmp147:
	.loc	5 51 16 is_stmt 0               # crypto_aead/aegis256/aegis256_aesni.c:51:16 @[ crypto_aead/aegis256/aegis256_common.h:47:9 @[ crypto_aead/aegis256/aegis256_common.h:172:5 ] ]
	vpxor	%xmm0, %xmm6, %xmm6
.Ltmp148:
	#DEBUG_VALUE: aegis256_mac:i <- 1
	#DEBUG_VALUE: aegis256_update:tmp <- $xmm1
	.loc	5 46 16 is_stmt 1               # crypto_aead/aegis256/aegis256_aesni.c:46:16 @[ crypto_aead/aegis256/aegis256_common.h:47:9 @[ crypto_aead/aegis256/aegis256_common.h:172:5 ] ]
	vaesenc	%xmm1, %xmm2, %xmm7
.Ltmp149:
	.loc	5 47 16                         # crypto_aead/aegis256/aegis256_aesni.c:47:16 @[ crypto_aead/aegis256/aegis256_common.h:47:9 @[ crypto_aead/aegis256/aegis256_common.h:172:5 ] ]
	vaesenc	%xmm2, %xmm3, %xmm2
	.loc	5 48 16                         # crypto_aead/aegis256/aegis256_aesni.c:48:16 @[ crypto_aead/aegis256/aegis256_common.h:47:9 @[ crypto_aead/aegis256/aegis256_common.h:172:5 ] ]
	vaesenc	%xmm3, %xmm4, %xmm3
	.loc	5 49 16                         # crypto_aead/aegis256/aegis256_aesni.c:49:16 @[ crypto_aead/aegis256/aegis256_common.h:47:9 @[ crypto_aead/aegis256/aegis256_common.h:172:5 ] ]
	vaesenc	%xmm4, %xmm5, %xmm4
	.loc	5 50 16                         # crypto_aead/aegis256/aegis256_aesni.c:50:16 @[ crypto_aead/aegis256/aegis256_common.h:47:9 @[ crypto_aead/aegis256/aegis256_common.h:172:5 ] ]
	vaesenc	%xmm5, %xmm6, %xmm5
	.loc	5 51 31                         # crypto_aead/aegis256/aegis256_aesni.c:51:31 @[ crypto_aead/aegis256/aegis256_common.h:47:9 @[ crypto_aead/aegis256/aegis256_common.h:172:5 ] ]
	vaesenc	%xmm6, %xmm1, %xmm1
.Ltmp150:
	.loc	5 51 16 is_stmt 0               # crypto_aead/aegis256/aegis256_aesni.c:51:16 @[ crypto_aead/aegis256/aegis256_common.h:47:9 @[ crypto_aead/aegis256/aegis256_common.h:172:5 ] ]
	vpxor	%xmm0, %xmm1, %xmm1
.Ltmp151:
	#DEBUG_VALUE: aegis256_mac:i <- 2
	#DEBUG_VALUE: aegis256_update:tmp <- $xmm7
	.loc	5 46 16 is_stmt 1               # crypto_aead/aegis256/aegis256_aesni.c:46:16 @[ crypto_aead/aegis256/aegis256_common.h:47:9 @[ crypto_aead/aegis256/aegis256_common.h:172:5 ] ]
	vaesenc	%xmm7, %xmm2, %xmm6
	.loc	5 47 16                         # crypto_aead/aegis256/aegis256_aesni.c:47:16 @[ crypto_aead/aegis256/aegis256_common.h:47:9 @[ crypto_aead/aegis256/aegis256_common.h:172:5 ] ]
	vaesenc	%xmm2, %xmm3, %xmm2
	.loc	5 48 16                         # crypto_aead/aegis256/aegis256_aesni.c:48:16 @[ crypto_aead/aegis256/aegis256_common.h:47:9 @[ crypto_aead/aegis256/aegis256_common.h:172:5 ] ]
	vaesenc	%xmm3, %xmm4, %xmm3
	.loc	5 49 16                         # crypto_aead/aegis256/aegis256_aesni.c:49:16 @[ crypto_aead/aegis256/aegis256_common.h:47:9 @[ crypto_aead/aegis256/aegis256_common.h:172:5 ] ]
	vaesenc	%xmm4, %xmm5, %xmm4
	.loc	5 50 16                         # crypto_aead/aegis256/aegis256_aesni.c:50:16 @[ crypto_aead/aegis256/aegis256_common.h:47:9 @[ crypto_aead/aegis256/aegis256_common.h:172:5 ] ]
	vaesenc	%xmm5, %xmm1, %xmm5
	.loc	5 51 31                         # crypto_aead/aegis256/aegis256_aesni.c:51:31 @[ crypto_aead/aegis256/aegis256_common.h:47:9 @[ crypto_aead/aegis256/aegis256_common.h:172:5 ] ]
	vaesenc	%xmm1, %xmm7, %xmm1
	.loc	5 51 16 is_stmt 0               # crypto_aead/aegis256/aegis256_aesni.c:51:16 @[ crypto_aead/aegis256/aegis256_common.h:47:9 @[ crypto_aead/aegis256/aegis256_common.h:172:5 ] ]
	vpxor	%xmm0, %xmm1, %xmm1
.Ltmp152:
	#DEBUG_VALUE: aegis256_mac:i <- 3
	#DEBUG_VALUE: aegis256_update:tmp <- $xmm6
	.loc	5 46 16 is_stmt 1               # crypto_aead/aegis256/aegis256_aesni.c:46:16 @[ crypto_aead/aegis256/aegis256_common.h:47:9 @[ crypto_aead/aegis256/aegis256_common.h:172:5 ] ]
	vaesenc	%xmm6, %xmm2, %xmm7
	.loc	5 47 16                         # crypto_aead/aegis256/aegis256_aesni.c:47:16 @[ crypto_aead/aegis256/aegis256_common.h:47:9 @[ crypto_aead/aegis256/aegis256_common.h:172:5 ] ]
	vaesenc	%xmm2, %xmm3, %xmm2
	.loc	5 48 16                         # crypto_aead/aegis256/aegis256_aesni.c:48:16 @[ crypto_aead/aegis256/aegis256_common.h:47:9 @[ crypto_aead/aegis256/aegis256_common.h:172:5 ] ]
	vaesenc	%xmm3, %xmm4, %xmm3
	.loc	5 49 16                         # crypto_aead/aegis256/aegis256_aesni.c:49:16 @[ crypto_aead/aegis256/aegis256_common.h:47:9 @[ crypto_aead/aegis256/aegis256_common.h:172:5 ] ]
	vaesenc	%xmm4, %xmm5, %xmm4
	.loc	5 50 16                         # crypto_aead/aegis256/aegis256_aesni.c:50:16 @[ crypto_aead/aegis256/aegis256_common.h:47:9 @[ crypto_aead/aegis256/aegis256_common.h:172:5 ] ]
	vaesenc	%xmm5, %xmm1, %xmm5
	.loc	5 51 31                         # crypto_aead/aegis256/aegis256_aesni.c:51:31 @[ crypto_aead/aegis256/aegis256_common.h:47:9 @[ crypto_aead/aegis256/aegis256_common.h:172:5 ] ]
	vaesenc	%xmm1, %xmm6, %xmm1
	.loc	5 51 16 is_stmt 0               # crypto_aead/aegis256/aegis256_aesni.c:51:16 @[ crypto_aead/aegis256/aegis256_common.h:47:9 @[ crypto_aead/aegis256/aegis256_common.h:172:5 ] ]
	vpxor	%xmm0, %xmm1, %xmm1
.Ltmp153:
	#DEBUG_VALUE: aegis256_mac:i <- 4
	#DEBUG_VALUE: aegis256_update:tmp <- $xmm7
	.loc	5 46 16 is_stmt 1               # crypto_aead/aegis256/aegis256_aesni.c:46:16 @[ crypto_aead/aegis256/aegis256_common.h:47:9 @[ crypto_aead/aegis256/aegis256_common.h:172:5 ] ]
	vaesenc	%xmm7, %xmm2, %xmm6
	.loc	5 47 16                         # crypto_aead/aegis256/aegis256_aesni.c:47:16 @[ crypto_aead/aegis256/aegis256_common.h:47:9 @[ crypto_aead/aegis256/aegis256_common.h:172:5 ] ]
	vaesenc	%xmm2, %xmm3, %xmm2
	.loc	5 48 16                         # crypto_aead/aegis256/aegis256_aesni.c:48:16 @[ crypto_aead/aegis256/aegis256_common.h:47:9 @[ crypto_aead/aegis256/aegis256_common.h:172:5 ] ]
	vaesenc	%xmm3, %xmm4, %xmm3
	.loc	5 49 16                         # crypto_aead/aegis256/aegis256_aesni.c:49:16 @[ crypto_aead/aegis256/aegis256_common.h:47:9 @[ crypto_aead/aegis256/aegis256_common.h:172:5 ] ]
	vaesenc	%xmm4, %xmm5, %xmm4
	.loc	5 50 16                         # crypto_aead/aegis256/aegis256_aesni.c:50:16 @[ crypto_aead/aegis256/aegis256_common.h:47:9 @[ crypto_aead/aegis256/aegis256_common.h:172:5 ] ]
	vaesenc	%xmm5, %xmm1, %xmm5
	.loc	5 51 31                         # crypto_aead/aegis256/aegis256_aesni.c:51:31 @[ crypto_aead/aegis256/aegis256_common.h:47:9 @[ crypto_aead/aegis256/aegis256_common.h:172:5 ] ]
	vaesenc	%xmm1, %xmm7, %xmm1
	.loc	5 51 16 is_stmt 0               # crypto_aead/aegis256/aegis256_aesni.c:51:16 @[ crypto_aead/aegis256/aegis256_common.h:47:9 @[ crypto_aead/aegis256/aegis256_common.h:172:5 ] ]
	vpxor	%xmm0, %xmm1, %xmm1
.Ltmp154:
	#DEBUG_VALUE: aegis256_mac:i <- 5
	#DEBUG_VALUE: aegis256_update:tmp <- $xmm6
	.loc	5 46 16 is_stmt 1               # crypto_aead/aegis256/aegis256_aesni.c:46:16 @[ crypto_aead/aegis256/aegis256_common.h:47:9 @[ crypto_aead/aegis256/aegis256_common.h:172:5 ] ]
	vaesenc	%xmm6, %xmm2, %xmm7
	.loc	5 47 16                         # crypto_aead/aegis256/aegis256_aesni.c:47:16 @[ crypto_aead/aegis256/aegis256_common.h:47:9 @[ crypto_aead/aegis256/aegis256_common.h:172:5 ] ]
	vaesenc	%xmm2, %xmm3, %xmm2
	.loc	5 48 16                         # crypto_aead/aegis256/aegis256_aesni.c:48:16 @[ crypto_aead/aegis256/aegis256_common.h:47:9 @[ crypto_aead/aegis256/aegis256_common.h:172:5 ] ]
	vaesenc	%xmm3, %xmm4, %xmm8
.Ltmp155:
	.loc	5 49 16                         # crypto_aead/aegis256/aegis256_aesni.c:49:16 @[ crypto_aead/aegis256/aegis256_common.h:47:9 @[ crypto_aead/aegis256/aegis256_common.h:172:5 ] ]
	vaesenc	%xmm4, %xmm5, %xmm4
	.loc	5 50 16                         # crypto_aead/aegis256/aegis256_aesni.c:50:16 @[ crypto_aead/aegis256/aegis256_common.h:47:9 @[ crypto_aead/aegis256/aegis256_common.h:172:5 ] ]
	vaesenc	%xmm5, %xmm1, %xmm5
	.loc	5 51 31                         # crypto_aead/aegis256/aegis256_aesni.c:51:31 @[ crypto_aead/aegis256/aegis256_common.h:47:9 @[ crypto_aead/aegis256/aegis256_common.h:172:5 ] ]
	vaesenc	%xmm1, %xmm6, %xmm1
	.loc	5 51 16 is_stmt 0               # crypto_aead/aegis256/aegis256_aesni.c:51:16 @[ crypto_aead/aegis256/aegis256_common.h:47:9 @[ crypto_aead/aegis256/aegis256_common.h:172:5 ] ]
	vpxor	%xmm0, %xmm1, %xmm6
.Ltmp156:
	#DEBUG_VALUE: aegis256_mac:i <- 6
	#DEBUG_VALUE: aegis256_update:tmp <- $xmm7
	.loc	5 46 16 is_stmt 1               # crypto_aead/aegis256/aegis256_aesni.c:46:16 @[ crypto_aead/aegis256/aegis256_common.h:47:9 @[ crypto_aead/aegis256/aegis256_common.h:172:5 ] ]
	vaesenc	%xmm7, %xmm2, %xmm1
	.loc	5 47 16                         # crypto_aead/aegis256/aegis256_aesni.c:47:16 @[ crypto_aead/aegis256/aegis256_common.h:47:9 @[ crypto_aead/aegis256/aegis256_common.h:172:5 ] ]
	vaesenc	%xmm2, %xmm8, %xmm3
	.loc	5 48 16                         # crypto_aead/aegis256/aegis256_aesni.c:48:16 @[ crypto_aead/aegis256/aegis256_common.h:47:9 @[ crypto_aead/aegis256/aegis256_common.h:172:5 ] ]
	vaesenc	%xmm8, %xmm4, %xmm2
	.loc	5 49 16                         # crypto_aead/aegis256/aegis256_aesni.c:49:16 @[ crypto_aead/aegis256/aegis256_common.h:47:9 @[ crypto_aead/aegis256/aegis256_common.h:172:5 ] ]
	vaesenc	%xmm4, %xmm5, %xmm4
	.loc	5 50 16                         # crypto_aead/aegis256/aegis256_aesni.c:50:16 @[ crypto_aead/aegis256/aegis256_common.h:47:9 @[ crypto_aead/aegis256/aegis256_common.h:172:5 ] ]
	vaesenc	%xmm5, %xmm6, %xmm5
	.loc	5 51 31                         # crypto_aead/aegis256/aegis256_aesni.c:51:31 @[ crypto_aead/aegis256/aegis256_common.h:47:9 @[ crypto_aead/aegis256/aegis256_common.h:172:5 ] ]
	vaesenc	%xmm6, %xmm7, %xmm6
	.loc	5 51 16 is_stmt 0               # crypto_aead/aegis256/aegis256_aesni.c:51:16 @[ crypto_aead/aegis256/aegis256_common.h:47:9 @[ crypto_aead/aegis256/aegis256_common.h:172:5 ] ]
	vpxor	%xmm0, %xmm6, %xmm0
.Ltmp157:
	#DEBUG_VALUE: encrypt_detached:state <- [DW_OP_LLVM_fragment 0 128] $xmm0
	#DEBUG_VALUE: aegis256_mac:i <- 7
	#DEBUG_VALUE: encrypt_detached:state <- [DW_OP_LLVM_fragment 640 128] $xmm1
	#DEBUG_VALUE: encrypt_detached:state <- [DW_OP_LLVM_fragment 512 128] $xmm3
	#DEBUG_VALUE: encrypt_detached:state <- [DW_OP_LLVM_fragment 384 128] $xmm2
	#DEBUG_VALUE: encrypt_detached:state <- [DW_OP_LLVM_fragment 256 128] $xmm4
	#DEBUG_VALUE: encrypt_detached:state <- [DW_OP_LLVM_fragment 128 128] $xmm5
	.loc	5 0 16                          # crypto_aead/aegis256/aegis256_aesni.c:0:16
	movq	120(%rsp), %rdx                 # 8-byte Reload
.Ltmp158:
	.loc	6 50 16 is_stmt 1               # crypto_aead/aegis256/aegis256_common.h:50:16 @[ crypto_aead/aegis256/aegis256_common.h:172:5 ]
	cmpq	$32, %rdx
	je	.LBB0_18
.Ltmp159:
# %bb.16:
	#DEBUG_VALUE: encrypt_detached:c <- [DW_OP_LLVM_entry_value 1] $rdi
	#DEBUG_VALUE: encrypt_detached:mac <- [DW_OP_plus_uconst 72] [$rsp+0]
	#DEBUG_VALUE: encrypt_detached:maclen <- [DW_OP_plus_uconst 120] [$rsp+0]
	#DEBUG_VALUE: encrypt_detached:m <- [DW_OP_LLVM_entry_value 1] $rcx
	#DEBUG_VALUE: encrypt_detached:mlen <- $r15
	#DEBUG_VALUE: encrypt_detached:ad <- [DW_OP_LLVM_entry_value 1] $r9
	#DEBUG_VALUE: encrypt_detached:adlen <- [DW_OP_plus_uconst 240] [$rsp+0]
	#DEBUG_VALUE: encrypt_detached:npub <- [DW_OP_plus_uconst 248] [$rsp+0]
	#DEBUG_VALUE: encrypt_detached:k <- [DW_OP_plus_uconst 256] [$rsp+0]
	#DEBUG_VALUE: encrypt_detached:state <- [DW_OP_LLVM_fragment 0 128] $xmm0
	#DEBUG_VALUE: encrypt_detached:state <- [DW_OP_LLVM_fragment 640 128] $xmm1
	#DEBUG_VALUE: encrypt_detached:state <- [DW_OP_LLVM_fragment 512 128] $xmm3
	#DEBUG_VALUE: encrypt_detached:state <- [DW_OP_LLVM_fragment 384 128] $xmm2
	#DEBUG_VALUE: encrypt_detached:state <- [DW_OP_LLVM_fragment 256 128] $xmm4
	#DEBUG_VALUE: encrypt_detached:state <- [DW_OP_LLVM_fragment 128 128] $xmm5
	#DEBUG_VALUE: aegis256_mac:mac <- [DW_OP_plus_uconst 72, DW_OP_deref] $rsp
	#DEBUG_VALUE: aegis256_mac:maclen <- [DW_OP_plus_uconst 120, DW_OP_deref] $rsp
	#DEBUG_VALUE: aegis256_mac:adlen <- $rbx
	#DEBUG_VALUE: aegis256_mac:mlen <- $r15
	#DEBUG_VALUE: aegis256_mac:i <- 7
	cmpq	$16, %rdx
	jne	.LBB0_19
.Ltmp160:
# %bb.17:
	#DEBUG_VALUE: encrypt_detached:c <- [DW_OP_LLVM_entry_value 1] $rdi
	#DEBUG_VALUE: encrypt_detached:mac <- [DW_OP_plus_uconst 72] [$rsp+0]
	#DEBUG_VALUE: encrypt_detached:maclen <- [DW_OP_plus_uconst 120] [$rsp+0]
	#DEBUG_VALUE: encrypt_detached:m <- [DW_OP_LLVM_entry_value 1] $rcx
	#DEBUG_VALUE: encrypt_detached:mlen <- $r15
	#DEBUG_VALUE: encrypt_detached:ad <- [DW_OP_LLVM_entry_value 1] $r9
	#DEBUG_VALUE: encrypt_detached:adlen <- [DW_OP_plus_uconst 240] [$rsp+0]
	#DEBUG_VALUE: encrypt_detached:npub <- [DW_OP_plus_uconst 248] [$rsp+0]
	#DEBUG_VALUE: encrypt_detached:k <- [DW_OP_plus_uconst 256] [$rsp+0]
	#DEBUG_VALUE: encrypt_detached:state <- [DW_OP_LLVM_fragment 0 128] $xmm0
	#DEBUG_VALUE: encrypt_detached:state <- [DW_OP_LLVM_fragment 640 128] $xmm1
	#DEBUG_VALUE: encrypt_detached:state <- [DW_OP_LLVM_fragment 512 128] $xmm3
	#DEBUG_VALUE: encrypt_detached:state <- [DW_OP_LLVM_fragment 384 128] $xmm2
	#DEBUG_VALUE: encrypt_detached:state <- [DW_OP_LLVM_fragment 256 128] $xmm4
	#DEBUG_VALUE: encrypt_detached:state <- [DW_OP_LLVM_fragment 128 128] $xmm5
	#DEBUG_VALUE: aegis256_mac:mac <- [DW_OP_plus_uconst 72, DW_OP_deref] $rsp
	#DEBUG_VALUE: aegis256_mac:maclen <- [DW_OP_plus_uconst 120, DW_OP_deref] $rsp
	#DEBUG_VALUE: aegis256_mac:adlen <- $rbx
	#DEBUG_VALUE: aegis256_mac:mlen <- $r15
	#DEBUG_VALUE: aegis256_mac:i <- 7
	#DEBUG_VALUE: aegis256_mac:tmp <- undef
	.loc	6 53 37                         # crypto_aead/aegis256/aegis256_common.h:53:37 @[ crypto_aead/aegis256/aegis256_common.h:172:5 ]
	vpxor	%xmm1, %xmm3, %xmm1
.Ltmp161:
	.loc	6 52 37                         # crypto_aead/aegis256/aegis256_common.h:52:37 @[ crypto_aead/aegis256/aegis256_common.h:172:5 ]
	vpxor	%xmm2, %xmm1, %xmm1
	.loc	6 51 15                         # crypto_aead/aegis256/aegis256_common.h:51:15 @[ crypto_aead/aegis256/aegis256_common.h:172:5 ]
	vpxor	%xmm4, %xmm1, %xmm1
	.loc	6 52 15                         # crypto_aead/aegis256/aegis256_common.h:52:15 @[ crypto_aead/aegis256/aegis256_common.h:172:5 ]
	vpxor	%xmm5, %xmm1, %xmm1
	.loc	6 53 15                         # crypto_aead/aegis256/aegis256_common.h:53:15 @[ crypto_aead/aegis256/aegis256_common.h:172:5 ]
	vpxor	%xmm0, %xmm1, %xmm0
.Ltmp162:
	#DEBUG_VALUE: aegis256_mac:tmp <- $xmm0
	.loc	6 0 15 is_stmt 0                # crypto_aead/aegis256/aegis256_common.h:0:15
	movq	72(%rsp), %rax                  # 8-byte Reload
	.loc	6 54 9 is_stmt 1                # crypto_aead/aegis256/aegis256_common.h:54:9 @[ crypto_aead/aegis256/aegis256_common.h:172:5 ]
	vmovdqu	%xmm0, (%rax)
	.loc	6 55 5                          # crypto_aead/aegis256/aegis256_common.h:55:5 @[ crypto_aead/aegis256/aegis256_common.h:172:5 ]
	jmp	.LBB0_20
.Ltmp163:
.LBB0_18:
	#DEBUG_VALUE: encrypt_detached:c <- [DW_OP_LLVM_entry_value 1] $rdi
	#DEBUG_VALUE: encrypt_detached:mac <- [DW_OP_plus_uconst 72] [$rsp+0]
	#DEBUG_VALUE: encrypt_detached:maclen <- [DW_OP_plus_uconst 120] [$rsp+0]
	#DEBUG_VALUE: encrypt_detached:m <- [DW_OP_LLVM_entry_value 1] $rcx
	#DEBUG_VALUE: encrypt_detached:mlen <- $r15
	#DEBUG_VALUE: encrypt_detached:ad <- [DW_OP_LLVM_entry_value 1] $r9
	#DEBUG_VALUE: encrypt_detached:adlen <- [DW_OP_plus_uconst 240] [$rsp+0]
	#DEBUG_VALUE: encrypt_detached:npub <- [DW_OP_plus_uconst 248] [$rsp+0]
	#DEBUG_VALUE: encrypt_detached:k <- [DW_OP_plus_uconst 256] [$rsp+0]
	#DEBUG_VALUE: encrypt_detached:state <- [DW_OP_LLVM_fragment 0 128] $xmm0
	#DEBUG_VALUE: encrypt_detached:state <- [DW_OP_LLVM_fragment 640 128] $xmm1
	#DEBUG_VALUE: encrypt_detached:state <- [DW_OP_LLVM_fragment 512 128] $xmm3
	#DEBUG_VALUE: encrypt_detached:state <- [DW_OP_LLVM_fragment 384 128] $xmm2
	#DEBUG_VALUE: encrypt_detached:state <- [DW_OP_LLVM_fragment 256 128] $xmm4
	#DEBUG_VALUE: encrypt_detached:state <- [DW_OP_LLVM_fragment 128 128] $xmm5
	#DEBUG_VALUE: aegis256_mac:mac <- [DW_OP_plus_uconst 72, DW_OP_deref] $rsp
	#DEBUG_VALUE: aegis256_mac:maclen <- [DW_OP_plus_uconst 120, DW_OP_deref] $rsp
	#DEBUG_VALUE: aegis256_mac:adlen <- $rbx
	#DEBUG_VALUE: aegis256_mac:mlen <- $r15
	#DEBUG_VALUE: aegis256_mac:i <- 7
	.loc	6 56 30                         # crypto_aead/aegis256/aegis256_common.h:56:30 @[ crypto_aead/aegis256/aegis256_common.h:172:5 ]
	vpxor	%xmm4, %xmm5, %xmm4
.Ltmp164:
	.loc	6 56 15 is_stmt 0               # crypto_aead/aegis256/aegis256_common.h:56:15 @[ crypto_aead/aegis256/aegis256_common.h:172:5 ]
	vpxor	%xmm0, %xmm4, %xmm0
.Ltmp165:
	#DEBUG_VALUE: aegis256_mac:tmp <- $xmm0
	.loc	6 0 15                          # crypto_aead/aegis256/aegis256_common.h:0:15
	movq	72(%rsp), %rax                  # 8-byte Reload
	.loc	6 57 9 is_stmt 1                # crypto_aead/aegis256/aegis256_common.h:57:9 @[ crypto_aead/aegis256/aegis256_common.h:172:5 ]
	vmovdqu	%xmm0, (%rax)
	.loc	6 58 30                         # crypto_aead/aegis256/aegis256_common.h:58:30 @[ crypto_aead/aegis256/aegis256_common.h:172:5 ]
	vpxor	%xmm1, %xmm3, %xmm0
.Ltmp166:
	.loc	6 58 15 is_stmt 0               # crypto_aead/aegis256/aegis256_common.h:58:15 @[ crypto_aead/aegis256/aegis256_common.h:172:5 ]
	vpxor	%xmm2, %xmm0, %xmm0
.Ltmp167:
	#DEBUG_VALUE: aegis256_mac:tmp <- $xmm0
	.loc	6 59 9 is_stmt 1                # crypto_aead/aegis256/aegis256_common.h:59:9 @[ crypto_aead/aegis256/aegis256_common.h:172:5 ]
	vmovdqu	%xmm0, 16(%rax)
	.loc	6 60 5                          # crypto_aead/aegis256/aegis256_common.h:60:5 @[ crypto_aead/aegis256/aegis256_common.h:172:5 ]
	jmp	.LBB0_20
.Ltmp168:
.LBB0_19:
	#DEBUG_VALUE: encrypt_detached:c <- [DW_OP_LLVM_entry_value 1] $rdi
	#DEBUG_VALUE: encrypt_detached:mac <- [DW_OP_plus_uconst 72] [$rsp+0]
	#DEBUG_VALUE: encrypt_detached:maclen <- [DW_OP_plus_uconst 120] [$rsp+0]
	#DEBUG_VALUE: encrypt_detached:m <- [DW_OP_LLVM_entry_value 1] $rcx
	#DEBUG_VALUE: encrypt_detached:mlen <- $r15
	#DEBUG_VALUE: encrypt_detached:ad <- [DW_OP_LLVM_entry_value 1] $r9
	#DEBUG_VALUE: encrypt_detached:adlen <- [DW_OP_plus_uconst 240] [$rsp+0]
	#DEBUG_VALUE: encrypt_detached:npub <- [DW_OP_plus_uconst 248] [$rsp+0]
	#DEBUG_VALUE: encrypt_detached:k <- [DW_OP_plus_uconst 256] [$rsp+0]
	#DEBUG_VALUE: encrypt_detached:state <- [DW_OP_LLVM_fragment 0 128] $xmm0
	#DEBUG_VALUE: encrypt_detached:state <- [DW_OP_LLVM_fragment 640 128] $xmm1
	#DEBUG_VALUE: encrypt_detached:state <- [DW_OP_LLVM_fragment 512 128] $xmm3
	#DEBUG_VALUE: encrypt_detached:state <- [DW_OP_LLVM_fragment 384 128] $xmm2
	#DEBUG_VALUE: encrypt_detached:state <- [DW_OP_LLVM_fragment 256 128] $xmm4
	#DEBUG_VALUE: encrypt_detached:state <- [DW_OP_LLVM_fragment 128 128] $xmm5
	#DEBUG_VALUE: aegis256_mac:mac <- [DW_OP_plus_uconst 72, DW_OP_deref] $rsp
	#DEBUG_VALUE: aegis256_mac:maclen <- [DW_OP_plus_uconst 120, DW_OP_deref] $rsp
	#DEBUG_VALUE: aegis256_mac:adlen <- $rbx
	#DEBUG_VALUE: aegis256_mac:mlen <- $r15
	#DEBUG_VALUE: aegis256_mac:i <- 7
	#DEBUG_VALUE: memset:__dest <- [DW_OP_plus_uconst 72, DW_OP_deref] $rsp
	#DEBUG_VALUE: memset:__ch <- 0
	#DEBUG_VALUE: memset:__len <- [DW_OP_plus_uconst 120, DW_OP_deref] $rsp
	.loc	6 0 5 is_stmt 0                 # crypto_aead/aegis256/aegis256_common.h:0:5
	movq	72(%rsp), %rdi                  # 8-byte Reload
.Ltmp169:
	.loc	8 59 10 is_stmt 1               # /usr/include/x86_64-linux-gnu/bits/string_fortified.h:59:10 @[ crypto_aead/aegis256/aegis256_common.h:61:9 @[ crypto_aead/aegis256/aegis256_common.h:172:5 ] ]
	xorl	%esi, %esi
	callq	memset@PLT
.Ltmp170:
.LBB0_20:                               # %aegis256_mac.exit
	#DEBUG_VALUE: encrypt_detached:c <- [DW_OP_LLVM_entry_value 1] $rdi
	#DEBUG_VALUE: encrypt_detached:mac <- [DW_OP_plus_uconst 72] [$rsp+0]
	#DEBUG_VALUE: encrypt_detached:maclen <- [DW_OP_plus_uconst 120] [$rsp+0]
	#DEBUG_VALUE: encrypt_detached:m <- [DW_OP_LLVM_entry_value 1] $rcx
	#DEBUG_VALUE: encrypt_detached:mlen <- $r15
	#DEBUG_VALUE: encrypt_detached:ad <- [DW_OP_LLVM_entry_value 1] $r9
	#DEBUG_VALUE: encrypt_detached:adlen <- [DW_OP_plus_uconst 240] [$rsp+0]
	#DEBUG_VALUE: encrypt_detached:npub <- [DW_OP_plus_uconst 248] [$rsp+0]
	#DEBUG_VALUE: encrypt_detached:k <- [DW_OP_plus_uconst 256] [$rsp+0]
	.loc	6 174 5                         # crypto_aead/aegis256/aegis256_common.h:174:5
	movq	%fs:40, %rax
	cmpq	176(%rsp), %rax
	jne	.LBB0_22
.Ltmp171:
# %bb.21:                               # %SP_return
	#DEBUG_VALUE: encrypt_detached:c <- [DW_OP_LLVM_entry_value 1] $rdi
	#DEBUG_VALUE: encrypt_detached:mac <- [DW_OP_plus_uconst 72] [$rsp+0]
	#DEBUG_VALUE: encrypt_detached:maclen <- [DW_OP_plus_uconst 120] [$rsp+0]
	#DEBUG_VALUE: encrypt_detached:m <- [DW_OP_LLVM_entry_value 1] $rcx
	#DEBUG_VALUE: encrypt_detached:mlen <- $r15
	#DEBUG_VALUE: encrypt_detached:ad <- [DW_OP_LLVM_entry_value 1] $r9
	#DEBUG_VALUE: encrypt_detached:adlen <- [DW_OP_plus_uconst 240] [$rsp+0]
	#DEBUG_VALUE: encrypt_detached:npub <- [DW_OP_plus_uconst 248] [$rsp+0]
	#DEBUG_VALUE: encrypt_detached:k <- [DW_OP_plus_uconst 256] [$rsp+0]
	xorl	%eax, %eax
	.loc	6 174 5 epilogue_begin is_stmt 0 # crypto_aead/aegis256/aegis256_common.h:174:5
	addq	$184, %rsp
	.cfi_def_cfa_offset 56
	popq	%rbx
	.cfi_def_cfa_offset 48
	popq	%r12
	.cfi_def_cfa_offset 40
	popq	%r13
	.cfi_def_cfa_offset 32
	popq	%r14
	.cfi_def_cfa_offset 24
	popq	%r15
.Ltmp172:
	#DEBUG_VALUE: encrypt_detached:mlen <- [DW_OP_LLVM_entry_value 1] $r8
	.cfi_def_cfa_offset 16
	popq	%rbp
	.cfi_def_cfa_offset 8
	retq
.Ltmp173:
.LBB0_22:                               # %CallStackCheckFailBlk
	.cfi_def_cfa_offset 240
	#DEBUG_VALUE: encrypt_detached:c <- [DW_OP_LLVM_entry_value 1] $rdi
	#DEBUG_VALUE: encrypt_detached:mac <- [DW_OP_plus_uconst 72] [$rsp+0]
	#DEBUG_VALUE: encrypt_detached:maclen <- [DW_OP_plus_uconst 120] [$rsp+0]
	#DEBUG_VALUE: encrypt_detached:m <- [DW_OP_LLVM_entry_value 1] $rcx
	#DEBUG_VALUE: encrypt_detached:mlen <- $r15
	#DEBUG_VALUE: encrypt_detached:ad <- [DW_OP_LLVM_entry_value 1] $r9
	#DEBUG_VALUE: encrypt_detached:adlen <- [DW_OP_plus_uconst 240] [$rsp+0]
	#DEBUG_VALUE: encrypt_detached:npub <- [DW_OP_plus_uconst 248] [$rsp+0]
	#DEBUG_VALUE: encrypt_detached:k <- [DW_OP_plus_uconst 256] [$rsp+0]
	.loc	6 0 0                           # crypto_aead/aegis256/aegis256_common.h:0
	callq	__stack_chk_fail@PLT
.Ltmp174:
.Lfunc_end0:
	.size	encrypt_detached, .Lfunc_end0-encrypt_detached
	.cfi_endproc
                                        # -- End function
	.section	.rodata.cst16,"aM",@progbits,16
	.p2align	4, 0x0                          # -- Begin function decrypt_detached
.LCPI1_0:
	.quad	939006032783409408              # 0xd08050302010100
	.quad	7095959494080274965             # 0x6279e99059372215
.LCPI1_1:
	.quad	-1067420811828642341            # 0xf12fc26d55183ddb
	.quad	-2510557285622673120            # 0xdd28b57342311120
	.text
	.p2align	4
	.type	decrypt_detached,@function
decrypt_detached:                       # @decrypt_detached
.Lfunc_begin1:
	.loc	6 180 0 is_stmt 1               # crypto_aead/aegis256/aegis256_common.h:180:0
	.cfi_startproc
# %bb.0:
	#DEBUG_VALUE: decrypt_detached:m <- $rdi
	#DEBUG_VALUE: decrypt_detached:c <- $rsi
	#DEBUG_VALUE: decrypt_detached:clen <- $rdx
	#DEBUG_VALUE: decrypt_detached:mac <- $rcx
	#DEBUG_VALUE: decrypt_detached:maclen <- $r8
	#DEBUG_VALUE: decrypt_detached:ad <- $r9
	pushq	%rbp
	.cfi_def_cfa_offset 16
	pushq	%r15
	.cfi_def_cfa_offset 24
	pushq	%r14
	.cfi_def_cfa_offset 32
	pushq	%r13
	.cfi_def_cfa_offset 40
	pushq	%r12
	.cfi_def_cfa_offset 48
	pushq	%rbx
	.cfi_def_cfa_offset 56
	subq	$200, %rsp
	.cfi_def_cfa_offset 256
	.cfi_offset %rbx, -56
	.cfi_offset %r12, -48
	.cfi_offset %r13, -40
	.cfi_offset %r14, -32
	.cfi_offset %r15, -24
	.cfi_offset %rbp, -16
.Ltmp175:
	#DEBUG_VALUE: decrypt_detached:adlen <- [DW_OP_plus_uconst 256] [$rsp+0]
	#DEBUG_VALUE: decrypt_detached:npub <- [DW_OP_plus_uconst 264] [$rsp+0]
	#DEBUG_VALUE: decrypt_detached:k <- [DW_OP_plus_uconst 272] [$rsp+0]
	movq	264(%rsp), %rax
.Ltmp176:
	#DEBUG_VALUE: aegis256_init:nonce <- $rax
	movq	272(%rsp), %r10
.Ltmp177:
	#DEBUG_VALUE: aegis256_init:key <- $r10
	movq	%fs:40, %r11
	movq	%r11, 192(%rsp)
.Ltmp178:
	#DEBUG_VALUE: decrypt_detached:dst <- [DW_OP_plus_uconst 160, DW_OP_deref] $rsp
	#DEBUG_VALUE: decrypt_detached:mlen <- undef
	.loc	6 15 28 prologue_end            # crypto_aead/aegis256/aegis256_common.h:15:28 @[ crypto_aead/aegis256/aegis256_common.h:189:5 ]
	vmovdqu	(%r10), %xmm3
.Ltmp179:
	#DEBUG_VALUE: aegis256_init:k0 <- $xmm3
	.loc	6 16 28                         # crypto_aead/aegis256/aegis256_common.h:16:28 @[ crypto_aead/aegis256/aegis256_common.h:189:5 ]
	vmovdqu	16(%r10), %xmm2
.Ltmp180:
	#DEBUG_VALUE: aegis256_init:k1 <- $xmm2
	#DEBUG_VALUE: aegis256_init:n0 <- undef
	#DEBUG_VALUE: aegis256_init:n1 <- undef
	.loc	6 19 31                         # crypto_aead/aegis256/aegis256_common.h:19:31 @[ crypto_aead/aegis256/aegis256_common.h:189:5 ]
	vpxor	(%rax), %xmm3, %xmm1
.Ltmp181:
	#DEBUG_VALUE: aegis256_init:k0_n0 <- $xmm1
	.loc	6 20 31                         # crypto_aead/aegis256/aegis256_common.h:20:31 @[ crypto_aead/aegis256/aegis256_common.h:189:5 ]
	vpxor	16(%rax), %xmm2, %xmm0
.Ltmp182:
	#DEBUG_VALUE: aegis256_init:k1_n1 <- $xmm0
	.loc	6 27 16                         # crypto_aead/aegis256/aegis256_common.h:27:16 @[ crypto_aead/aegis256/aegis256_common.h:189:5 ]
	vmovdqa	.LCPI1_0(%rip), %xmm4           # xmm4 = [939006032783409408,7095959494080274965]
.Ltmp183:
	#DEBUG_VALUE: aegis256_init:c0 <- $xmm4
	vpxor	%xmm4, %xmm3, %xmm5
	.loc	6 28 16                         # crypto_aead/aegis256/aegis256_common.h:28:16 @[ crypto_aead/aegis256/aegis256_common.h:189:5 ]
	vmovdqa	.LCPI1_1(%rip), %xmm6           # xmm6 = [17379323261880909275,15936186788086878496]
.Ltmp184:
	#DEBUG_VALUE: aegis256_init:c1 <- $xmm6
	vpxor	%xmm6, %xmm2, %xmm7
.Ltmp185:
	#DEBUG_VALUE: aegis256_update:tmp <- $xmm7
	#DEBUG_VALUE: aegis256_init:i <- 0
	#DEBUG_VALUE: aegis256_update:d <- $xmm3
	.loc	5 46 16                         # crypto_aead/aegis256/aegis256_aesni.c:46:16 @[ crypto_aead/aegis256/aegis256_common.h:30:9 @[ crypto_aead/aegis256/aegis256_common.h:189:5 ] ]
	vaesenc	%xmm7, %xmm5, %xmm8
	.loc	5 47 16                         # crypto_aead/aegis256/aegis256_aesni.c:47:16 @[ crypto_aead/aegis256/aegis256_common.h:30:9 @[ crypto_aead/aegis256/aegis256_common.h:189:5 ] ]
	vaesenc	%xmm5, %xmm4, %xmm5
	.loc	5 48 16                         # crypto_aead/aegis256/aegis256_aesni.c:48:16 @[ crypto_aead/aegis256/aegis256_common.h:30:9 @[ crypto_aead/aegis256/aegis256_common.h:189:5 ] ]
	vaesenc	%xmm4, %xmm6, %xmm4
.Ltmp186:
	.loc	5 49 16                         # crypto_aead/aegis256/aegis256_aesni.c:49:16 @[ crypto_aead/aegis256/aegis256_common.h:30:9 @[ crypto_aead/aegis256/aegis256_common.h:189:5 ] ]
	vaesenc	%xmm6, %xmm0, %xmm6
.Ltmp187:
	.loc	5 50 16                         # crypto_aead/aegis256/aegis256_aesni.c:50:16 @[ crypto_aead/aegis256/aegis256_common.h:30:9 @[ crypto_aead/aegis256/aegis256_common.h:189:5 ] ]
	vaesenc	%xmm0, %xmm1, %xmm9
	.loc	5 51 31                         # crypto_aead/aegis256/aegis256_aesni.c:51:31 @[ crypto_aead/aegis256/aegis256_common.h:30:9 @[ crypto_aead/aegis256/aegis256_common.h:189:5 ] ]
	vaesenc	%xmm1, %xmm7, %xmm7
.Ltmp188:
	.loc	5 51 16 is_stmt 0               # crypto_aead/aegis256/aegis256_aesni.c:51:16 @[ crypto_aead/aegis256/aegis256_common.h:30:9 @[ crypto_aead/aegis256/aegis256_common.h:189:5 ] ]
	vpxor	%xmm3, %xmm7, %xmm7
.Ltmp189:
	#DEBUG_VALUE: aegis256_update:d <- $xmm2
	#DEBUG_VALUE: aegis256_update:tmp <- $xmm8
	.loc	5 46 16 is_stmt 1               # crypto_aead/aegis256/aegis256_aesni.c:46:16 @[ crypto_aead/aegis256/aegis256_common.h:31:9 @[ crypto_aead/aegis256/aegis256_common.h:189:5 ] ]
	vaesenc	%xmm8, %xmm5, %xmm10
	.loc	5 47 16                         # crypto_aead/aegis256/aegis256_aesni.c:47:16 @[ crypto_aead/aegis256/aegis256_common.h:31:9 @[ crypto_aead/aegis256/aegis256_common.h:189:5 ] ]
	vaesenc	%xmm5, %xmm4, %xmm5
	.loc	5 48 16                         # crypto_aead/aegis256/aegis256_aesni.c:48:16 @[ crypto_aead/aegis256/aegis256_common.h:31:9 @[ crypto_aead/aegis256/aegis256_common.h:189:5 ] ]
	vaesenc	%xmm4, %xmm6, %xmm4
	.loc	5 49 16                         # crypto_aead/aegis256/aegis256_aesni.c:49:16 @[ crypto_aead/aegis256/aegis256_common.h:31:9 @[ crypto_aead/aegis256/aegis256_common.h:189:5 ] ]
	vaesenc	%xmm6, %xmm9, %xmm6
	.loc	5 50 16                         # crypto_aead/aegis256/aegis256_aesni.c:50:16 @[ crypto_aead/aegis256/aegis256_common.h:31:9 @[ crypto_aead/aegis256/aegis256_common.h:189:5 ] ]
	vaesenc	%xmm9, %xmm7, %xmm9
	.loc	5 51 31                         # crypto_aead/aegis256/aegis256_aesni.c:51:31 @[ crypto_aead/aegis256/aegis256_common.h:31:9 @[ crypto_aead/aegis256/aegis256_common.h:189:5 ] ]
	vaesenc	%xmm7, %xmm8, %xmm7
	.loc	5 51 16 is_stmt 0               # crypto_aead/aegis256/aegis256_aesni.c:51:16 @[ crypto_aead/aegis256/aegis256_common.h:31:9 @[ crypto_aead/aegis256/aegis256_common.h:189:5 ] ]
	vpxor	%xmm2, %xmm7, %xmm7
.Ltmp190:
	#DEBUG_VALUE: aegis256_update:d <- $xmm1
	#DEBUG_VALUE: aegis256_update:tmp <- $xmm10
	.loc	5 46 16 is_stmt 1               # crypto_aead/aegis256/aegis256_aesni.c:46:16 @[ crypto_aead/aegis256/aegis256_common.h:32:9 @[ crypto_aead/aegis256/aegis256_common.h:189:5 ] ]
	vaesenc	%xmm10, %xmm5, %xmm8
.Ltmp191:
	.loc	5 47 16                         # crypto_aead/aegis256/aegis256_aesni.c:47:16 @[ crypto_aead/aegis256/aegis256_common.h:32:9 @[ crypto_aead/aegis256/aegis256_common.h:189:5 ] ]
	vaesenc	%xmm5, %xmm4, %xmm5
	.loc	5 48 16                         # crypto_aead/aegis256/aegis256_aesni.c:48:16 @[ crypto_aead/aegis256/aegis256_common.h:32:9 @[ crypto_aead/aegis256/aegis256_common.h:189:5 ] ]
	vaesenc	%xmm4, %xmm6, %xmm4
	.loc	5 49 16                         # crypto_aead/aegis256/aegis256_aesni.c:49:16 @[ crypto_aead/aegis256/aegis256_common.h:32:9 @[ crypto_aead/aegis256/aegis256_common.h:189:5 ] ]
	vaesenc	%xmm6, %xmm9, %xmm6
	.loc	5 50 16                         # crypto_aead/aegis256/aegis256_aesni.c:50:16 @[ crypto_aead/aegis256/aegis256_common.h:32:9 @[ crypto_aead/aegis256/aegis256_common.h:189:5 ] ]
	vaesenc	%xmm9, %xmm7, %xmm9
	.loc	5 51 31                         # crypto_aead/aegis256/aegis256_aesni.c:51:31 @[ crypto_aead/aegis256/aegis256_common.h:32:9 @[ crypto_aead/aegis256/aegis256_common.h:189:5 ] ]
	vaesenc	%xmm7, %xmm10, %xmm7
	.loc	5 51 16 is_stmt 0               # crypto_aead/aegis256/aegis256_aesni.c:51:16 @[ crypto_aead/aegis256/aegis256_common.h:32:9 @[ crypto_aead/aegis256/aegis256_common.h:189:5 ] ]
	vpxor	%xmm1, %xmm7, %xmm7
.Ltmp192:
	#DEBUG_VALUE: aegis256_update:d <- $xmm0
	#DEBUG_VALUE: aegis256_update:tmp <- $xmm8
	.loc	5 46 16 is_stmt 1               # crypto_aead/aegis256/aegis256_aesni.c:46:16 @[ crypto_aead/aegis256/aegis256_common.h:33:9 @[ crypto_aead/aegis256/aegis256_common.h:189:5 ] ]
	vaesenc	%xmm8, %xmm5, %xmm10
.Ltmp193:
	.loc	5 47 16                         # crypto_aead/aegis256/aegis256_aesni.c:47:16 @[ crypto_aead/aegis256/aegis256_common.h:33:9 @[ crypto_aead/aegis256/aegis256_common.h:189:5 ] ]
	vaesenc	%xmm5, %xmm4, %xmm5
	.loc	5 48 16                         # crypto_aead/aegis256/aegis256_aesni.c:48:16 @[ crypto_aead/aegis256/aegis256_common.h:33:9 @[ crypto_aead/aegis256/aegis256_common.h:189:5 ] ]
	vaesenc	%xmm4, %xmm6, %xmm4
	.loc	5 49 16                         # crypto_aead/aegis256/aegis256_aesni.c:49:16 @[ crypto_aead/aegis256/aegis256_common.h:33:9 @[ crypto_aead/aegis256/aegis256_common.h:189:5 ] ]
	vaesenc	%xmm6, %xmm9, %xmm6
	.loc	5 50 16                         # crypto_aead/aegis256/aegis256_aesni.c:50:16 @[ crypto_aead/aegis256/aegis256_common.h:33:9 @[ crypto_aead/aegis256/aegis256_common.h:189:5 ] ]
	vaesenc	%xmm9, %xmm7, %xmm9
	.loc	5 51 31                         # crypto_aead/aegis256/aegis256_aesni.c:51:31 @[ crypto_aead/aegis256/aegis256_common.h:33:9 @[ crypto_aead/aegis256/aegis256_common.h:189:5 ] ]
	vaesenc	%xmm7, %xmm8, %xmm7
	.loc	5 51 16 is_stmt 0               # crypto_aead/aegis256/aegis256_aesni.c:51:16 @[ crypto_aead/aegis256/aegis256_common.h:33:9 @[ crypto_aead/aegis256/aegis256_common.h:189:5 ] ]
	vpxor	%xmm0, %xmm7, %xmm7
.Ltmp194:
	#DEBUG_VALUE: aegis256_init:i <- 1
	#DEBUG_VALUE: aegis256_update:tmp <- $xmm10
	.loc	5 46 16 is_stmt 1               # crypto_aead/aegis256/aegis256_aesni.c:46:16 @[ crypto_aead/aegis256/aegis256_common.h:30:9 @[ crypto_aead/aegis256/aegis256_common.h:189:5 ] ]
	vaesenc	%xmm10, %xmm5, %xmm8
.Ltmp195:
	.loc	5 47 16                         # crypto_aead/aegis256/aegis256_aesni.c:47:16 @[ crypto_aead/aegis256/aegis256_common.h:30:9 @[ crypto_aead/aegis256/aegis256_common.h:189:5 ] ]
	vaesenc	%xmm5, %xmm4, %xmm5
	.loc	5 48 16                         # crypto_aead/aegis256/aegis256_aesni.c:48:16 @[ crypto_aead/aegis256/aegis256_common.h:30:9 @[ crypto_aead/aegis256/aegis256_common.h:189:5 ] ]
	vaesenc	%xmm4, %xmm6, %xmm4
	.loc	5 49 16                         # crypto_aead/aegis256/aegis256_aesni.c:49:16 @[ crypto_aead/aegis256/aegis256_common.h:30:9 @[ crypto_aead/aegis256/aegis256_common.h:189:5 ] ]
	vaesenc	%xmm6, %xmm9, %xmm6
	.loc	5 50 16                         # crypto_aead/aegis256/aegis256_aesni.c:50:16 @[ crypto_aead/aegis256/aegis256_common.h:30:9 @[ crypto_aead/aegis256/aegis256_common.h:189:5 ] ]
	vaesenc	%xmm9, %xmm7, %xmm9
	.loc	5 51 31                         # crypto_aead/aegis256/aegis256_aesni.c:51:31 @[ crypto_aead/aegis256/aegis256_common.h:30:9 @[ crypto_aead/aegis256/aegis256_common.h:189:5 ] ]
	vaesenc	%xmm7, %xmm10, %xmm7
	.loc	5 51 16 is_stmt 0               # crypto_aead/aegis256/aegis256_aesni.c:51:16 @[ crypto_aead/aegis256/aegis256_common.h:30:9 @[ crypto_aead/aegis256/aegis256_common.h:189:5 ] ]
	vpxor	%xmm3, %xmm7, %xmm7
.Ltmp196:
	#DEBUG_VALUE: aegis256_update:tmp <- $xmm8
	.loc	5 46 16 is_stmt 1               # crypto_aead/aegis256/aegis256_aesni.c:46:16 @[ crypto_aead/aegis256/aegis256_common.h:31:9 @[ crypto_aead/aegis256/aegis256_common.h:189:5 ] ]
	vaesenc	%xmm8, %xmm5, %xmm10
.Ltmp197:
	.loc	5 47 16                         # crypto_aead/aegis256/aegis256_aesni.c:47:16 @[ crypto_aead/aegis256/aegis256_common.h:31:9 @[ crypto_aead/aegis256/aegis256_common.h:189:5 ] ]
	vaesenc	%xmm5, %xmm4, %xmm5
	.loc	5 48 16                         # crypto_aead/aegis256/aegis256_aesni.c:48:16 @[ crypto_aead/aegis256/aegis256_common.h:31:9 @[ crypto_aead/aegis256/aegis256_common.h:189:5 ] ]
	vaesenc	%xmm4, %xmm6, %xmm4
	.loc	5 49 16                         # crypto_aead/aegis256/aegis256_aesni.c:49:16 @[ crypto_aead/aegis256/aegis256_common.h:31:9 @[ crypto_aead/aegis256/aegis256_common.h:189:5 ] ]
	vaesenc	%xmm6, %xmm9, %xmm6
	.loc	5 50 16                         # crypto_aead/aegis256/aegis256_aesni.c:50:16 @[ crypto_aead/aegis256/aegis256_common.h:31:9 @[ crypto_aead/aegis256/aegis256_common.h:189:5 ] ]
	vaesenc	%xmm9, %xmm7, %xmm9
	.loc	5 51 31                         # crypto_aead/aegis256/aegis256_aesni.c:51:31 @[ crypto_aead/aegis256/aegis256_common.h:31:9 @[ crypto_aead/aegis256/aegis256_common.h:189:5 ] ]
	vaesenc	%xmm7, %xmm8, %xmm7
	.loc	5 51 16 is_stmt 0               # crypto_aead/aegis256/aegis256_aesni.c:51:16 @[ crypto_aead/aegis256/aegis256_common.h:31:9 @[ crypto_aead/aegis256/aegis256_common.h:189:5 ] ]
	vpxor	%xmm2, %xmm7, %xmm7
.Ltmp198:
	#DEBUG_VALUE: aegis256_update:tmp <- $xmm10
	.loc	5 46 16 is_stmt 1               # crypto_aead/aegis256/aegis256_aesni.c:46:16 @[ crypto_aead/aegis256/aegis256_common.h:32:9 @[ crypto_aead/aegis256/aegis256_common.h:189:5 ] ]
	vaesenc	%xmm10, %xmm5, %xmm8
.Ltmp199:
	.loc	5 47 16                         # crypto_aead/aegis256/aegis256_aesni.c:47:16 @[ crypto_aead/aegis256/aegis256_common.h:32:9 @[ crypto_aead/aegis256/aegis256_common.h:189:5 ] ]
	vaesenc	%xmm5, %xmm4, %xmm5
	.loc	5 48 16                         # crypto_aead/aegis256/aegis256_aesni.c:48:16 @[ crypto_aead/aegis256/aegis256_common.h:32:9 @[ crypto_aead/aegis256/aegis256_common.h:189:5 ] ]
	vaesenc	%xmm4, %xmm6, %xmm4
	.loc	5 49 16                         # crypto_aead/aegis256/aegis256_aesni.c:49:16 @[ crypto_aead/aegis256/aegis256_common.h:32:9 @[ crypto_aead/aegis256/aegis256_common.h:189:5 ] ]
	vaesenc	%xmm6, %xmm9, %xmm6
	.loc	5 50 16                         # crypto_aead/aegis256/aegis256_aesni.c:50:16 @[ crypto_aead/aegis256/aegis256_common.h:32:9 @[ crypto_aead/aegis256/aegis256_common.h:189:5 ] ]
	vaesenc	%xmm9, %xmm7, %xmm9
	.loc	5 51 31                         # crypto_aead/aegis256/aegis256_aesni.c:51:31 @[ crypto_aead/aegis256/aegis256_common.h:32:9 @[ crypto_aead/aegis256/aegis256_common.h:189:5 ] ]
	vaesenc	%xmm7, %xmm10, %xmm7
	.loc	5 51 16 is_stmt 0               # crypto_aead/aegis256/aegis256_aesni.c:51:16 @[ crypto_aead/aegis256/aegis256_common.h:32:9 @[ crypto_aead/aegis256/aegis256_common.h:189:5 ] ]
	vpxor	%xmm1, %xmm7, %xmm7
.Ltmp200:
	#DEBUG_VALUE: aegis256_update:tmp <- $xmm8
	.loc	5 46 16 is_stmt 1               # crypto_aead/aegis256/aegis256_aesni.c:46:16 @[ crypto_aead/aegis256/aegis256_common.h:33:9 @[ crypto_aead/aegis256/aegis256_common.h:189:5 ] ]
	vaesenc	%xmm8, %xmm5, %xmm10
.Ltmp201:
	.loc	5 47 16                         # crypto_aead/aegis256/aegis256_aesni.c:47:16 @[ crypto_aead/aegis256/aegis256_common.h:33:9 @[ crypto_aead/aegis256/aegis256_common.h:189:5 ] ]
	vaesenc	%xmm5, %xmm4, %xmm5
	.loc	5 48 16                         # crypto_aead/aegis256/aegis256_aesni.c:48:16 @[ crypto_aead/aegis256/aegis256_common.h:33:9 @[ crypto_aead/aegis256/aegis256_common.h:189:5 ] ]
	vaesenc	%xmm4, %xmm6, %xmm4
	.loc	5 49 16                         # crypto_aead/aegis256/aegis256_aesni.c:49:16 @[ crypto_aead/aegis256/aegis256_common.h:33:9 @[ crypto_aead/aegis256/aegis256_common.h:189:5 ] ]
	vaesenc	%xmm6, %xmm9, %xmm6
	.loc	5 50 16                         # crypto_aead/aegis256/aegis256_aesni.c:50:16 @[ crypto_aead/aegis256/aegis256_common.h:33:9 @[ crypto_aead/aegis256/aegis256_common.h:189:5 ] ]
	vaesenc	%xmm9, %xmm7, %xmm9
	.loc	5 51 31                         # crypto_aead/aegis256/aegis256_aesni.c:51:31 @[ crypto_aead/aegis256/aegis256_common.h:33:9 @[ crypto_aead/aegis256/aegis256_common.h:189:5 ] ]
	vaesenc	%xmm7, %xmm8, %xmm7
	.loc	5 51 16 is_stmt 0               # crypto_aead/aegis256/aegis256_aesni.c:51:16 @[ crypto_aead/aegis256/aegis256_common.h:33:9 @[ crypto_aead/aegis256/aegis256_common.h:189:5 ] ]
	vpxor	%xmm0, %xmm7, %xmm7
.Ltmp202:
	#DEBUG_VALUE: aegis256_init:i <- 2
	#DEBUG_VALUE: aegis256_update:tmp <- $xmm10
	.loc	5 46 16 is_stmt 1               # crypto_aead/aegis256/aegis256_aesni.c:46:16 @[ crypto_aead/aegis256/aegis256_common.h:30:9 @[ crypto_aead/aegis256/aegis256_common.h:189:5 ] ]
	vaesenc	%xmm10, %xmm5, %xmm8
.Ltmp203:
	.loc	5 47 16                         # crypto_aead/aegis256/aegis256_aesni.c:47:16 @[ crypto_aead/aegis256/aegis256_common.h:30:9 @[ crypto_aead/aegis256/aegis256_common.h:189:5 ] ]
	vaesenc	%xmm5, %xmm4, %xmm5
	.loc	5 48 16                         # crypto_aead/aegis256/aegis256_aesni.c:48:16 @[ crypto_aead/aegis256/aegis256_common.h:30:9 @[ crypto_aead/aegis256/aegis256_common.h:189:5 ] ]
	vaesenc	%xmm4, %xmm6, %xmm4
	.loc	5 49 16                         # crypto_aead/aegis256/aegis256_aesni.c:49:16 @[ crypto_aead/aegis256/aegis256_common.h:30:9 @[ crypto_aead/aegis256/aegis256_common.h:189:5 ] ]
	vaesenc	%xmm6, %xmm9, %xmm6
	.loc	5 50 16                         # crypto_aead/aegis256/aegis256_aesni.c:50:16 @[ crypto_aead/aegis256/aegis256_common.h:30:9 @[ crypto_aead/aegis256/aegis256_common.h:189:5 ] ]
	vaesenc	%xmm9, %xmm7, %xmm9
	.loc	5 51 31                         # crypto_aead/aegis256/aegis256_aesni.c:51:31 @[ crypto_aead/aegis256/aegis256_common.h:30:9 @[ crypto_aead/aegis256/aegis256_common.h:189:5 ] ]
	vaesenc	%xmm7, %xmm10, %xmm7
	.loc	5 51 16 is_stmt 0               # crypto_aead/aegis256/aegis256_aesni.c:51:16 @[ crypto_aead/aegis256/aegis256_common.h:30:9 @[ crypto_aead/aegis256/aegis256_common.h:189:5 ] ]
	vpxor	%xmm3, %xmm7, %xmm7
.Ltmp204:
	#DEBUG_VALUE: aegis256_update:tmp <- $xmm8
	.loc	5 46 16 is_stmt 1               # crypto_aead/aegis256/aegis256_aesni.c:46:16 @[ crypto_aead/aegis256/aegis256_common.h:31:9 @[ crypto_aead/aegis256/aegis256_common.h:189:5 ] ]
	vaesenc	%xmm8, %xmm5, %xmm10
.Ltmp205:
	.loc	5 47 16                         # crypto_aead/aegis256/aegis256_aesni.c:47:16 @[ crypto_aead/aegis256/aegis256_common.h:31:9 @[ crypto_aead/aegis256/aegis256_common.h:189:5 ] ]
	vaesenc	%xmm5, %xmm4, %xmm5
	.loc	5 48 16                         # crypto_aead/aegis256/aegis256_aesni.c:48:16 @[ crypto_aead/aegis256/aegis256_common.h:31:9 @[ crypto_aead/aegis256/aegis256_common.h:189:5 ] ]
	vaesenc	%xmm4, %xmm6, %xmm4
	.loc	5 49 16                         # crypto_aead/aegis256/aegis256_aesni.c:49:16 @[ crypto_aead/aegis256/aegis256_common.h:31:9 @[ crypto_aead/aegis256/aegis256_common.h:189:5 ] ]
	vaesenc	%xmm6, %xmm9, %xmm6
	.loc	5 50 16                         # crypto_aead/aegis256/aegis256_aesni.c:50:16 @[ crypto_aead/aegis256/aegis256_common.h:31:9 @[ crypto_aead/aegis256/aegis256_common.h:189:5 ] ]
	vaesenc	%xmm9, %xmm7, %xmm9
	.loc	5 51 31                         # crypto_aead/aegis256/aegis256_aesni.c:51:31 @[ crypto_aead/aegis256/aegis256_common.h:31:9 @[ crypto_aead/aegis256/aegis256_common.h:189:5 ] ]
	vaesenc	%xmm7, %xmm8, %xmm7
	.loc	5 51 16 is_stmt 0               # crypto_aead/aegis256/aegis256_aesni.c:51:16 @[ crypto_aead/aegis256/aegis256_common.h:31:9 @[ crypto_aead/aegis256/aegis256_common.h:189:5 ] ]
	vpxor	%xmm2, %xmm7, %xmm7
.Ltmp206:
	#DEBUG_VALUE: aegis256_update:tmp <- $xmm10
	.loc	5 46 16 is_stmt 1               # crypto_aead/aegis256/aegis256_aesni.c:46:16 @[ crypto_aead/aegis256/aegis256_common.h:32:9 @[ crypto_aead/aegis256/aegis256_common.h:189:5 ] ]
	vaesenc	%xmm10, %xmm5, %xmm8
.Ltmp207:
	.loc	5 47 16                         # crypto_aead/aegis256/aegis256_aesni.c:47:16 @[ crypto_aead/aegis256/aegis256_common.h:32:9 @[ crypto_aead/aegis256/aegis256_common.h:189:5 ] ]
	vaesenc	%xmm5, %xmm4, %xmm5
	.loc	5 48 16                         # crypto_aead/aegis256/aegis256_aesni.c:48:16 @[ crypto_aead/aegis256/aegis256_common.h:32:9 @[ crypto_aead/aegis256/aegis256_common.h:189:5 ] ]
	vaesenc	%xmm4, %xmm6, %xmm4
	.loc	5 49 16                         # crypto_aead/aegis256/aegis256_aesni.c:49:16 @[ crypto_aead/aegis256/aegis256_common.h:32:9 @[ crypto_aead/aegis256/aegis256_common.h:189:5 ] ]
	vaesenc	%xmm6, %xmm9, %xmm6
	.loc	5 50 16                         # crypto_aead/aegis256/aegis256_aesni.c:50:16 @[ crypto_aead/aegis256/aegis256_common.h:32:9 @[ crypto_aead/aegis256/aegis256_common.h:189:5 ] ]
	vaesenc	%xmm9, %xmm7, %xmm9
	.loc	5 51 31                         # crypto_aead/aegis256/aegis256_aesni.c:51:31 @[ crypto_aead/aegis256/aegis256_common.h:32:9 @[ crypto_aead/aegis256/aegis256_common.h:189:5 ] ]
	vaesenc	%xmm7, %xmm10, %xmm7
	movq	%rcx, %r12
	.loc	5 51 16 is_stmt 0               # crypto_aead/aegis256/aegis256_aesni.c:51:16 @[ crypto_aead/aegis256/aegis256_common.h:32:9 @[ crypto_aead/aegis256/aegis256_common.h:189:5 ] ]
	vpxor	%xmm1, %xmm7, %xmm7
.Ltmp208:
	#DEBUG_VALUE: aegis256_update:tmp <- $xmm8
	.loc	5 46 16 is_stmt 1               # crypto_aead/aegis256/aegis256_aesni.c:46:16 @[ crypto_aead/aegis256/aegis256_common.h:33:9 @[ crypto_aead/aegis256/aegis256_common.h:189:5 ] ]
	vaesenc	%xmm8, %xmm5, %xmm10
.Ltmp209:
	.loc	5 47 16                         # crypto_aead/aegis256/aegis256_aesni.c:47:16 @[ crypto_aead/aegis256/aegis256_common.h:33:9 @[ crypto_aead/aegis256/aegis256_common.h:189:5 ] ]
	vaesenc	%xmm5, %xmm4, %xmm5
	.loc	5 48 16                         # crypto_aead/aegis256/aegis256_aesni.c:48:16 @[ crypto_aead/aegis256/aegis256_common.h:33:9 @[ crypto_aead/aegis256/aegis256_common.h:189:5 ] ]
	vaesenc	%xmm4, %xmm6, %xmm4
	.loc	5 49 16                         # crypto_aead/aegis256/aegis256_aesni.c:49:16 @[ crypto_aead/aegis256/aegis256_common.h:33:9 @[ crypto_aead/aegis256/aegis256_common.h:189:5 ] ]
	vaesenc	%xmm6, %xmm9, %xmm6
	.loc	5 50 16                         # crypto_aead/aegis256/aegis256_aesni.c:50:16 @[ crypto_aead/aegis256/aegis256_common.h:33:9 @[ crypto_aead/aegis256/aegis256_common.h:189:5 ] ]
	vaesenc	%xmm9, %xmm7, %xmm9
	movq	%rdx, %rbx
	.loc	5 51 31                         # crypto_aead/aegis256/aegis256_aesni.c:51:31 @[ crypto_aead/aegis256/aegis256_common.h:33:9 @[ crypto_aead/aegis256/aegis256_common.h:189:5 ] ]
	vaesenc	%xmm7, %xmm8, %xmm7
	.loc	5 51 16 is_stmt 0               # crypto_aead/aegis256/aegis256_aesni.c:51:16 @[ crypto_aead/aegis256/aegis256_common.h:33:9 @[ crypto_aead/aegis256/aegis256_common.h:189:5 ] ]
	vpxor	%xmm0, %xmm7, %xmm7
.Ltmp210:
	#DEBUG_VALUE: aegis256_init:i <- 3
	#DEBUG_VALUE: aegis256_update:tmp <- $xmm10
	.loc	5 46 16 is_stmt 1               # crypto_aead/aegis256/aegis256_aesni.c:46:16 @[ crypto_aead/aegis256/aegis256_common.h:30:9 @[ crypto_aead/aegis256/aegis256_common.h:189:5 ] ]
	vaesenc	%xmm10, %xmm5, %xmm8
.Ltmp211:
	.loc	5 47 16                         # crypto_aead/aegis256/aegis256_aesni.c:47:16 @[ crypto_aead/aegis256/aegis256_common.h:30:9 @[ crypto_aead/aegis256/aegis256_common.h:189:5 ] ]
	vaesenc	%xmm5, %xmm4, %xmm5
	.loc	5 48 16                         # crypto_aead/aegis256/aegis256_aesni.c:48:16 @[ crypto_aead/aegis256/aegis256_common.h:30:9 @[ crypto_aead/aegis256/aegis256_common.h:189:5 ] ]
	vaesenc	%xmm4, %xmm6, %xmm4
	.loc	5 49 16                         # crypto_aead/aegis256/aegis256_aesni.c:49:16 @[ crypto_aead/aegis256/aegis256_common.h:30:9 @[ crypto_aead/aegis256/aegis256_common.h:189:5 ] ]
	vaesenc	%xmm6, %xmm9, %xmm6
	.loc	5 50 16                         # crypto_aead/aegis256/aegis256_aesni.c:50:16 @[ crypto_aead/aegis256/aegis256_common.h:30:9 @[ crypto_aead/aegis256/aegis256_common.h:189:5 ] ]
	vaesenc	%xmm9, %xmm7, %xmm9
	.loc	5 51 31                         # crypto_aead/aegis256/aegis256_aesni.c:51:31 @[ crypto_aead/aegis256/aegis256_common.h:30:9 @[ crypto_aead/aegis256/aegis256_common.h:189:5 ] ]
	vaesenc	%xmm7, %xmm10, %xmm7
	movq	%rsi, %r13
	.loc	5 51 16 is_stmt 0               # crypto_aead/aegis256/aegis256_aesni.c:51:16 @[ crypto_aead/aegis256/aegis256_common.h:30:9 @[ crypto_aead/aegis256/aegis256_common.h:189:5 ] ]
	vpxor	%xmm3, %xmm7, %xmm3
.Ltmp212:
	#DEBUG_VALUE: aegis256_update:tmp <- $xmm8
	.loc	5 46 16 is_stmt 1               # crypto_aead/aegis256/aegis256_aesni.c:46:16 @[ crypto_aead/aegis256/aegis256_common.h:31:9 @[ crypto_aead/aegis256/aegis256_common.h:189:5 ] ]
	vaesenc	%xmm8, %xmm5, %xmm7
	.loc	5 47 16                         # crypto_aead/aegis256/aegis256_aesni.c:47:16 @[ crypto_aead/aegis256/aegis256_common.h:31:9 @[ crypto_aead/aegis256/aegis256_common.h:189:5 ] ]
	vaesenc	%xmm5, %xmm4, %xmm5
	.loc	5 48 16                         # crypto_aead/aegis256/aegis256_aesni.c:48:16 @[ crypto_aead/aegis256/aegis256_common.h:31:9 @[ crypto_aead/aegis256/aegis256_common.h:189:5 ] ]
	vaesenc	%xmm4, %xmm6, %xmm4
	.loc	5 49 16                         # crypto_aead/aegis256/aegis256_aesni.c:49:16 @[ crypto_aead/aegis256/aegis256_common.h:31:9 @[ crypto_aead/aegis256/aegis256_common.h:189:5 ] ]
	vaesenc	%xmm6, %xmm9, %xmm6
	.loc	5 50 16                         # crypto_aead/aegis256/aegis256_aesni.c:50:16 @[ crypto_aead/aegis256/aegis256_common.h:31:9 @[ crypto_aead/aegis256/aegis256_common.h:189:5 ] ]
	vaesenc	%xmm9, %xmm3, %xmm9
	movq	%rdi, %r14
	.loc	5 51 31                         # crypto_aead/aegis256/aegis256_aesni.c:51:31 @[ crypto_aead/aegis256/aegis256_common.h:31:9 @[ crypto_aead/aegis256/aegis256_common.h:189:5 ] ]
	vaesenc	%xmm3, %xmm8, %xmm3
	.loc	5 51 16 is_stmt 0               # crypto_aead/aegis256/aegis256_aesni.c:51:16 @[ crypto_aead/aegis256/aegis256_common.h:31:9 @[ crypto_aead/aegis256/aegis256_common.h:189:5 ] ]
	vpxor	%xmm2, %xmm3, %xmm2
.Ltmp213:
	#DEBUG_VALUE: aegis256_update:tmp <- $xmm7
	.loc	5 46 16 is_stmt 1               # crypto_aead/aegis256/aegis256_aesni.c:46:16 @[ crypto_aead/aegis256/aegis256_common.h:32:9 @[ crypto_aead/aegis256/aegis256_common.h:189:5 ] ]
	vaesenc	%xmm7, %xmm5, %xmm3
	.loc	5 47 16                         # crypto_aead/aegis256/aegis256_aesni.c:47:16 @[ crypto_aead/aegis256/aegis256_common.h:32:9 @[ crypto_aead/aegis256/aegis256_common.h:189:5 ] ]
	vaesenc	%xmm5, %xmm4, %xmm5
	.loc	5 48 16                         # crypto_aead/aegis256/aegis256_aesni.c:48:16 @[ crypto_aead/aegis256/aegis256_common.h:32:9 @[ crypto_aead/aegis256/aegis256_common.h:189:5 ] ]
	vaesenc	%xmm4, %xmm6, %xmm4
	.loc	5 49 16                         # crypto_aead/aegis256/aegis256_aesni.c:49:16 @[ crypto_aead/aegis256/aegis256_common.h:32:9 @[ crypto_aead/aegis256/aegis256_common.h:189:5 ] ]
	vaesenc	%xmm6, %xmm9, %xmm6
	.loc	5 50 16                         # crypto_aead/aegis256/aegis256_aesni.c:50:16 @[ crypto_aead/aegis256/aegis256_common.h:32:9 @[ crypto_aead/aegis256/aegis256_common.h:189:5 ] ]
	vaesenc	%xmm9, %xmm2, %xmm8
.Ltmp214:
	.loc	5 51 31                         # crypto_aead/aegis256/aegis256_aesni.c:51:31 @[ crypto_aead/aegis256/aegis256_common.h:32:9 @[ crypto_aead/aegis256/aegis256_common.h:189:5 ] ]
	vaesenc	%xmm2, %xmm7, %xmm2
	movq	256(%rsp), %r15
	.loc	5 51 16 is_stmt 0               # crypto_aead/aegis256/aegis256_aesni.c:51:16 @[ crypto_aead/aegis256/aegis256_common.h:32:9 @[ crypto_aead/aegis256/aegis256_common.h:189:5 ] ]
	vpxor	%xmm1, %xmm2, %xmm2
.Ltmp215:
	#DEBUG_VALUE: aegis256_update:tmp <- $xmm3
	.loc	5 46 16 is_stmt 1               # crypto_aead/aegis256/aegis256_aesni.c:46:16 @[ crypto_aead/aegis256/aegis256_common.h:33:9 @[ crypto_aead/aegis256/aegis256_common.h:189:5 ] ]
	vaesenc	%xmm3, %xmm5, %xmm1
.Ltmp216:
	.loc	5 47 16                         # crypto_aead/aegis256/aegis256_aesni.c:47:16 @[ crypto_aead/aegis256/aegis256_common.h:33:9 @[ crypto_aead/aegis256/aegis256_common.h:189:5 ] ]
	vaesenc	%xmm5, %xmm4, %xmm9
	.loc	5 48 16                         # crypto_aead/aegis256/aegis256_aesni.c:48:16 @[ crypto_aead/aegis256/aegis256_common.h:33:9 @[ crypto_aead/aegis256/aegis256_common.h:189:5 ] ]
	vaesenc	%xmm4, %xmm6, %xmm7
.Ltmp217:
	.loc	5 49 16                         # crypto_aead/aegis256/aegis256_aesni.c:49:16 @[ crypto_aead/aegis256/aegis256_common.h:33:9 @[ crypto_aead/aegis256/aegis256_common.h:189:5 ] ]
	vaesenc	%xmm6, %xmm8, %xmm4
	.loc	5 50 16                         # crypto_aead/aegis256/aegis256_aesni.c:50:16 @[ crypto_aead/aegis256/aegis256_common.h:33:9 @[ crypto_aead/aegis256/aegis256_common.h:189:5 ] ]
	vaesenc	%xmm8, %xmm2, %xmm5
	.loc	5 51 31                         # crypto_aead/aegis256/aegis256_aesni.c:51:31 @[ crypto_aead/aegis256/aegis256_common.h:33:9 @[ crypto_aead/aegis256/aegis256_common.h:189:5 ] ]
	vaesenc	%xmm2, %xmm3, %xmm2
	.loc	5 51 16 is_stmt 0               # crypto_aead/aegis256/aegis256_aesni.c:51:16 @[ crypto_aead/aegis256/aegis256_common.h:33:9 @[ crypto_aead/aegis256/aegis256_common.h:189:5 ] ]
	vpxor	%xmm0, %xmm2, %xmm6
.Ltmp218:
	#DEBUG_VALUE: decrypt_detached:state <- [DW_OP_LLVM_fragment 0 128] $xmm6
	#DEBUG_VALUE: aegis256_init:i <- 4
	#DEBUG_VALUE: decrypt_detached:state <- [DW_OP_LLVM_fragment 640 128] $xmm1
	#DEBUG_VALUE: decrypt_detached:state <- [DW_OP_LLVM_fragment 512 128] $xmm9
	#DEBUG_VALUE: decrypt_detached:state <- [DW_OP_LLVM_fragment 384 128] $xmm7
	#DEBUG_VALUE: decrypt_detached:state <- [DW_OP_LLVM_fragment 256 128] $xmm4
	#DEBUG_VALUE: decrypt_detached:state <- [DW_OP_LLVM_fragment 128 128] $xmm5
	#DEBUG_VALUE: decrypt_detached:i <- 0
	.loc	6 191 28 is_stmt 1              # crypto_aead/aegis256/aegis256_common.h:191:28
	cmpq	$32, %r15
.Ltmp219:
	.loc	6 191 5 is_stmt 0               # crypto_aead/aegis256/aegis256_common.h:191:5
	jae	.LBB1_4
.Ltmp220:
# %bb.1:
	#DEBUG_VALUE: decrypt_detached:m <- $r14
	#DEBUG_VALUE: decrypt_detached:c <- $r13
	#DEBUG_VALUE: decrypt_detached:clen <- $rbx
	#DEBUG_VALUE: decrypt_detached:mac <- $r12
	#DEBUG_VALUE: decrypt_detached:maclen <- $r8
	#DEBUG_VALUE: decrypt_detached:ad <- $r9
	#DEBUG_VALUE: decrypt_detached:adlen <- [DW_OP_plus_uconst 256] [$rsp+0]
	#DEBUG_VALUE: decrypt_detached:npub <- [DW_OP_plus_uconst 264] [$rsp+0]
	#DEBUG_VALUE: decrypt_detached:k <- [DW_OP_plus_uconst 272] [$rsp+0]
	#DEBUG_VALUE: aegis256_init:nonce <- $rax
	#DEBUG_VALUE: aegis256_init:key <- $r10
	#DEBUG_VALUE: decrypt_detached:dst <- [DW_OP_plus_uconst 160, DW_OP_deref] $rsp
	#DEBUG_VALUE: aegis256_init:k1_n1 <- $xmm0
	#DEBUG_VALUE: aegis256_update:tmp <- $xmm10
	#DEBUG_VALUE: aegis256_init:i <- 4
	#DEBUG_VALUE: aegis256_update:d <- $xmm0
	#DEBUG_VALUE: aegis256_update:tmp <- $xmm3
	#DEBUG_VALUE: decrypt_detached:state <- [DW_OP_LLVM_fragment 0 128] $xmm6
	#DEBUG_VALUE: decrypt_detached:state <- [DW_OP_LLVM_fragment 640 128] $xmm1
	#DEBUG_VALUE: decrypt_detached:state <- [DW_OP_LLVM_fragment 512 128] $xmm9
	#DEBUG_VALUE: decrypt_detached:state <- [DW_OP_LLVM_fragment 384 128] $xmm7
	#DEBUG_VALUE: decrypt_detached:state <- [DW_OP_LLVM_fragment 256 128] $xmm4
	#DEBUG_VALUE: decrypt_detached:state <- [DW_OP_LLVM_fragment 128 128] $xmm5
	#DEBUG_VALUE: decrypt_detached:i <- 0
	.loc	6 0 5                           # crypto_aead/aegis256/aegis256_common.h:0:5
	xorl	%eax, %eax
	jmp	.LBB1_2
.Ltmp221:
.LBB1_4:                                # %.lr.ph.preheader
	#DEBUG_VALUE: decrypt_detached:m <- $r14
	#DEBUG_VALUE: decrypt_detached:c <- $r13
	#DEBUG_VALUE: decrypt_detached:clen <- $rbx
	#DEBUG_VALUE: decrypt_detached:mac <- $r12
	#DEBUG_VALUE: decrypt_detached:maclen <- $r8
	#DEBUG_VALUE: decrypt_detached:ad <- $r9
	#DEBUG_VALUE: decrypt_detached:adlen <- [DW_OP_plus_uconst 256] [$rsp+0]
	#DEBUG_VALUE: decrypt_detached:npub <- [DW_OP_plus_uconst 264] [$rsp+0]
	#DEBUG_VALUE: decrypt_detached:k <- [DW_OP_plus_uconst 272] [$rsp+0]
	#DEBUG_VALUE: aegis256_init:nonce <- $rax
	#DEBUG_VALUE: aegis256_init:key <- $r10
	#DEBUG_VALUE: decrypt_detached:dst <- [DW_OP_plus_uconst 160, DW_OP_deref] $rsp
	#DEBUG_VALUE: aegis256_init:k1_n1 <- $xmm0
	#DEBUG_VALUE: aegis256_update:tmp <- $xmm10
	#DEBUG_VALUE: aegis256_init:i <- 4
	#DEBUG_VALUE: aegis256_update:d <- $xmm0
	#DEBUG_VALUE: aegis256_update:tmp <- $xmm3
	#DEBUG_VALUE: decrypt_detached:state <- [DW_OP_LLVM_fragment 0 128] $xmm6
	#DEBUG_VALUE: decrypt_detached:state <- [DW_OP_LLVM_fragment 640 128] $xmm1
	#DEBUG_VALUE: decrypt_detached:state <- [DW_OP_LLVM_fragment 512 128] $xmm9
	#DEBUG_VALUE: decrypt_detached:state <- [DW_OP_LLVM_fragment 384 128] $xmm7
	#DEBUG_VALUE: decrypt_detached:state <- [DW_OP_LLVM_fragment 256 128] $xmm4
	#DEBUG_VALUE: decrypt_detached:state <- [DW_OP_LLVM_fragment 128 128] $xmm5
	#DEBUG_VALUE: decrypt_detached:i <- 0
	xorl	%ecx, %ecx
.Ltmp222:
	.p2align	4
.LBB1_5:                                # %.lr.ph
                                        # =>This Inner Loop Header: Depth=1
	#DEBUG_VALUE: decrypt_detached:m <- $r14
	#DEBUG_VALUE: decrypt_detached:c <- $r13
	#DEBUG_VALUE: decrypt_detached:clen <- $rbx
	#DEBUG_VALUE: decrypt_detached:mac <- $r12
	#DEBUG_VALUE: decrypt_detached:maclen <- $r8
	#DEBUG_VALUE: decrypt_detached:ad <- $r9
	#DEBUG_VALUE: decrypt_detached:adlen <- [DW_OP_plus_uconst 256] [$rsp+0]
	#DEBUG_VALUE: decrypt_detached:npub <- [DW_OP_plus_uconst 264] [$rsp+0]
	#DEBUG_VALUE: decrypt_detached:k <- [DW_OP_plus_uconst 272] [$rsp+0]
	#DEBUG_VALUE: decrypt_detached:dst <- [DW_OP_plus_uconst 160, DW_OP_deref] $rsp
	#DEBUG_VALUE: decrypt_detached:state <- [DW_OP_LLVM_fragment 0 128] $xmm6
	#DEBUG_VALUE: decrypt_detached:state <- [DW_OP_LLVM_fragment 640 128] $xmm1
	#DEBUG_VALUE: decrypt_detached:state <- [DW_OP_LLVM_fragment 512 128] $xmm9
	#DEBUG_VALUE: decrypt_detached:state <- [DW_OP_LLVM_fragment 384 128] $xmm7
	#DEBUG_VALUE: decrypt_detached:state <- [DW_OP_LLVM_fragment 256 128] $xmm4
	#DEBUG_VALUE: decrypt_detached:state <- [DW_OP_LLVM_fragment 128 128] $xmm5
	#DEBUG_VALUE: decrypt_detached:i <- $rcx
	#DEBUG_VALUE: decrypt_detached:state <- [DW_OP_LLVM_fragment 0 128] $xmm6
	#DEBUG_VALUE: decrypt_detached:state <- [DW_OP_LLVM_fragment 128 128] $xmm5
	#DEBUG_VALUE: decrypt_detached:state <- [DW_OP_LLVM_fragment 256 128] $xmm4
	#DEBUG_VALUE: decrypt_detached:state <- [DW_OP_LLVM_fragment 384 128] $xmm7
	#DEBUG_VALUE: decrypt_detached:state <- [DW_OP_LLVM_fragment 512 128] $xmm9
	#DEBUG_VALUE: decrypt_detached:state <- [DW_OP_LLVM_fragment 640 128] $xmm1
	#DEBUG_VALUE: aegis256_absorb2:src <- [DW_OP_LLVM_arg 0, DW_OP_consts 32, DW_OP_div, DW_OP_consts 32, DW_OP_mul, DW_OP_LLVM_arg 1, DW_OP_plus, DW_OP_stack_value] $rcx, $r9
	#DEBUG_VALUE: aegis256_absorb2:state <- undef
	#DEBUG_VALUE: aegis256_absorb2:msg <- undef
	#DEBUG_VALUE: aegis256_absorb2:msg2 <- undef
	#DEBUG_VALUE: aegis256_update:state <- undef
	#DEBUG_VALUE: aegis256_update:d <- undef
	#DEBUG_VALUE: aegis256_update:tmp <- $xmm1
	.loc	5 46 16 is_stmt 1               # crypto_aead/aegis256/aegis256_aesni.c:46:16 @[ crypto_aead/aegis256/aegis256_common.h:81:5 @[ crypto_aead/aegis256/aegis256_common.h:192:9 ] ]
	vaesenc	%xmm1, %xmm9, %xmm0
	.loc	5 47 16                         # crypto_aead/aegis256/aegis256_aesni.c:47:16 @[ crypto_aead/aegis256/aegis256_common.h:81:5 @[ crypto_aead/aegis256/aegis256_common.h:192:9 ] ]
	vaesenc	%xmm9, %xmm7, %xmm2
	.loc	5 48 16                         # crypto_aead/aegis256/aegis256_aesni.c:48:16 @[ crypto_aead/aegis256/aegis256_common.h:81:5 @[ crypto_aead/aegis256/aegis256_common.h:192:9 ] ]
	vaesenc	%xmm7, %xmm4, %xmm3
	.loc	5 49 16                         # crypto_aead/aegis256/aegis256_aesni.c:49:16 @[ crypto_aead/aegis256/aegis256_common.h:81:5 @[ crypto_aead/aegis256/aegis256_common.h:192:9 ] ]
	vaesenc	%xmm4, %xmm5, %xmm4
.Ltmp223:
	.loc	5 50 16                         # crypto_aead/aegis256/aegis256_aesni.c:50:16 @[ crypto_aead/aegis256/aegis256_common.h:81:5 @[ crypto_aead/aegis256/aegis256_common.h:192:9 ] ]
	vaesenc	%xmm5, %xmm6, %xmm5
.Ltmp224:
	.loc	5 51 31                         # crypto_aead/aegis256/aegis256_aesni.c:51:31 @[ crypto_aead/aegis256/aegis256_common.h:81:5 @[ crypto_aead/aegis256/aegis256_common.h:192:9 ] ]
	vaesenc	%xmm6, %xmm1, %xmm1
.Ltmp225:
	.loc	5 51 16 is_stmt 0               # crypto_aead/aegis256/aegis256_aesni.c:51:16 @[ crypto_aead/aegis256/aegis256_common.h:81:5 @[ crypto_aead/aegis256/aegis256_common.h:192:9 ] ]
	vpxor	(%r9,%rcx), %xmm1, %xmm6
.Ltmp226:
	#DEBUG_VALUE: aegis256_update:state <- undef
	#DEBUG_VALUE: aegis256_update:d <- undef
	#DEBUG_VALUE: aegis256_update:tmp <- $xmm0
	.loc	5 46 16 is_stmt 1               # crypto_aead/aegis256/aegis256_aesni.c:46:16 @[ crypto_aead/aegis256/aegis256_common.h:82:5 @[ crypto_aead/aegis256/aegis256_common.h:192:9 ] ]
	vaesenc	%xmm0, %xmm2, %xmm1
.Ltmp227:
	#DEBUG_VALUE: decrypt_detached:state <- [DW_OP_LLVM_fragment 640 128] $xmm1
	.loc	5 47 16                         # crypto_aead/aegis256/aegis256_aesni.c:47:16 @[ crypto_aead/aegis256/aegis256_common.h:82:5 @[ crypto_aead/aegis256/aegis256_common.h:192:9 ] ]
	vaesenc	%xmm2, %xmm3, %xmm9
.Ltmp228:
	#DEBUG_VALUE: decrypt_detached:state <- [DW_OP_LLVM_fragment 512 128] $xmm9
	.loc	5 48 16                         # crypto_aead/aegis256/aegis256_aesni.c:48:16 @[ crypto_aead/aegis256/aegis256_common.h:82:5 @[ crypto_aead/aegis256/aegis256_common.h:192:9 ] ]
	vaesenc	%xmm3, %xmm4, %xmm7
.Ltmp229:
	#DEBUG_VALUE: decrypt_detached:state <- [DW_OP_LLVM_fragment 384 128] $xmm7
	.loc	5 49 16                         # crypto_aead/aegis256/aegis256_aesni.c:49:16 @[ crypto_aead/aegis256/aegis256_common.h:82:5 @[ crypto_aead/aegis256/aegis256_common.h:192:9 ] ]
	vaesenc	%xmm4, %xmm5, %xmm4
.Ltmp230:
	#DEBUG_VALUE: decrypt_detached:state <- [DW_OP_LLVM_fragment 256 128] $xmm4
	.loc	5 50 16                         # crypto_aead/aegis256/aegis256_aesni.c:50:16 @[ crypto_aead/aegis256/aegis256_common.h:82:5 @[ crypto_aead/aegis256/aegis256_common.h:192:9 ] ]
	vaesenc	%xmm5, %xmm6, %xmm5
.Ltmp231:
	#DEBUG_VALUE: decrypt_detached:state <- [DW_OP_LLVM_fragment 128 128] $xmm5
	.loc	5 51 31                         # crypto_aead/aegis256/aegis256_aesni.c:51:31 @[ crypto_aead/aegis256/aegis256_common.h:82:5 @[ crypto_aead/aegis256/aegis256_common.h:192:9 ] ]
	vaesenc	%xmm6, %xmm0, %xmm0
.Ltmp232:
	.loc	5 51 16 is_stmt 0               # crypto_aead/aegis256/aegis256_aesni.c:51:16 @[ crypto_aead/aegis256/aegis256_common.h:82:5 @[ crypto_aead/aegis256/aegis256_common.h:192:9 ] ]
	vpxor	16(%r9,%rcx), %xmm0, %xmm6
.Ltmp233:
	#DEBUG_VALUE: decrypt_detached:state <- [DW_OP_LLVM_fragment 0 128] $xmm6
	#DEBUG_VALUE: decrypt_detached:state <- [DW_OP_LLVM_fragment 128 128] $xmm5
	#DEBUG_VALUE: decrypt_detached:state <- [DW_OP_LLVM_fragment 256 128] $xmm4
	#DEBUG_VALUE: decrypt_detached:state <- [DW_OP_LLVM_fragment 384 128] $xmm7
	#DEBUG_VALUE: decrypt_detached:state <- [DW_OP_LLVM_fragment 512 128] $xmm9
	#DEBUG_VALUE: decrypt_detached:state <- [DW_OP_LLVM_fragment 640 128] $xmm1
	#DEBUG_VALUE: decrypt_detached:i <- [DW_OP_plus_uconst 32, DW_OP_stack_value] $rcx
	.loc	6 191 28 is_stmt 1              # crypto_aead/aegis256/aegis256_common.h:191:28
	leaq	32(%rcx), %rax
	addq	$64, %rcx
.Ltmp234:
	cmpq	%r15, %rcx
	movq	%rax, %rcx
.Ltmp235:
	.loc	6 191 5 is_stmt 0               # crypto_aead/aegis256/aegis256_common.h:191:5
	jbe	.LBB1_5
.Ltmp236:
.LBB1_2:                                # %.preheader137
	#DEBUG_VALUE: decrypt_detached:m <- $r14
	#DEBUG_VALUE: decrypt_detached:c <- $r13
	#DEBUG_VALUE: decrypt_detached:clen <- $rbx
	#DEBUG_VALUE: decrypt_detached:mac <- $r12
	#DEBUG_VALUE: decrypt_detached:maclen <- $r8
	#DEBUG_VALUE: decrypt_detached:ad <- $r9
	#DEBUG_VALUE: decrypt_detached:adlen <- [DW_OP_plus_uconst 256] [$rsp+0]
	#DEBUG_VALUE: decrypt_detached:npub <- [DW_OP_plus_uconst 264] [$rsp+0]
	#DEBUG_VALUE: decrypt_detached:k <- [DW_OP_plus_uconst 272] [$rsp+0]
	#DEBUG_VALUE: decrypt_detached:dst <- [DW_OP_plus_uconst 160, DW_OP_deref] $rsp
	#DEBUG_VALUE: decrypt_detached:state <- [DW_OP_LLVM_fragment 0 128] $xmm6
	#DEBUG_VALUE: decrypt_detached:state <- [DW_OP_LLVM_fragment 640 128] $xmm1
	#DEBUG_VALUE: decrypt_detached:state <- [DW_OP_LLVM_fragment 512 128] $xmm9
	#DEBUG_VALUE: decrypt_detached:state <- [DW_OP_LLVM_fragment 384 128] $xmm7
	#DEBUG_VALUE: decrypt_detached:state <- [DW_OP_LLVM_fragment 256 128] $xmm4
	#DEBUG_VALUE: decrypt_detached:state <- [DW_OP_LLVM_fragment 128 128] $xmm5
	#DEBUG_VALUE: decrypt_detached:state <- [DW_OP_LLVM_fragment 0 128] $xmm6
	#DEBUG_VALUE: decrypt_detached:state <- [DW_OP_LLVM_fragment 128 128] $xmm5
	#DEBUG_VALUE: decrypt_detached:state <- [DW_OP_LLVM_fragment 256 128] $xmm4
	#DEBUG_VALUE: decrypt_detached:state <- [DW_OP_LLVM_fragment 384 128] $xmm7
	#DEBUG_VALUE: decrypt_detached:state <- [DW_OP_LLVM_fragment 512 128] $xmm9
	#DEBUG_VALUE: decrypt_detached:state <- [DW_OP_LLVM_fragment 640 128] $xmm1
	#DEBUG_VALUE: decrypt_detached:i <- $rax
	.loc	6 194 14 is_stmt 1              # crypto_aead/aegis256/aegis256_common.h:194:14
	movq	%rax, %rcx
	orq	$16, %rcx
	.loc	6 194 19 is_stmt 0              # crypto_aead/aegis256/aegis256_common.h:194:19
	cmpq	%r15, %rcx
.Ltmp237:
	.loc	6 194 5                         # crypto_aead/aegis256/aegis256_common.h:194:5
	jbe	.LBB1_6
.Ltmp238:
# %bb.3:
	#DEBUG_VALUE: decrypt_detached:m <- $r14
	#DEBUG_VALUE: decrypt_detached:c <- $r13
	#DEBUG_VALUE: decrypt_detached:clen <- $rbx
	#DEBUG_VALUE: decrypt_detached:mac <- $r12
	#DEBUG_VALUE: decrypt_detached:maclen <- $r8
	#DEBUG_VALUE: decrypt_detached:ad <- $r9
	#DEBUG_VALUE: decrypt_detached:adlen <- [DW_OP_plus_uconst 256] [$rsp+0]
	#DEBUG_VALUE: decrypt_detached:npub <- [DW_OP_plus_uconst 264] [$rsp+0]
	#DEBUG_VALUE: decrypt_detached:k <- [DW_OP_plus_uconst 272] [$rsp+0]
	#DEBUG_VALUE: decrypt_detached:dst <- [DW_OP_plus_uconst 160, DW_OP_deref] $rsp
	#DEBUG_VALUE: decrypt_detached:state <- [DW_OP_LLVM_fragment 0 128] $xmm6
	#DEBUG_VALUE: decrypt_detached:state <- [DW_OP_LLVM_fragment 640 128] $xmm1
	#DEBUG_VALUE: decrypt_detached:state <- [DW_OP_LLVM_fragment 512 128] $xmm9
	#DEBUG_VALUE: decrypt_detached:state <- [DW_OP_LLVM_fragment 384 128] $xmm7
	#DEBUG_VALUE: decrypt_detached:state <- [DW_OP_LLVM_fragment 256 128] $xmm4
	#DEBUG_VALUE: decrypt_detached:state <- [DW_OP_LLVM_fragment 128 128] $xmm5
	#DEBUG_VALUE: decrypt_detached:i <- $rax
	.loc	6 0 5                           # crypto_aead/aegis256/aegis256_common.h:0:5
	vmovdqa	%xmm1, %xmm8
	movq	%rax, %rcx
	.loc	6 194 5                         # crypto_aead/aegis256/aegis256_common.h:194:5
	jmp	.LBB1_7
.Ltmp239:
	.loc	6 0 5                           # :0:5
.Ltmp240:
	.p2align	4
.LBB1_6:                                # %.lr.ph160
                                        # =>This Inner Loop Header: Depth=1
	#DEBUG_VALUE: decrypt_detached:m <- $r14
	#DEBUG_VALUE: decrypt_detached:c <- $r13
	#DEBUG_VALUE: decrypt_detached:clen <- $rbx
	#DEBUG_VALUE: decrypt_detached:mac <- $r12
	#DEBUG_VALUE: decrypt_detached:maclen <- $r8
	#DEBUG_VALUE: decrypt_detached:ad <- $r9
	#DEBUG_VALUE: decrypt_detached:adlen <- [DW_OP_plus_uconst 256] [$rsp+0]
	#DEBUG_VALUE: decrypt_detached:npub <- [DW_OP_plus_uconst 264] [$rsp+0]
	#DEBUG_VALUE: decrypt_detached:k <- [DW_OP_plus_uconst 272] [$rsp+0]
	#DEBUG_VALUE: decrypt_detached:dst <- [DW_OP_plus_uconst 160, DW_OP_deref] $rsp
	#DEBUG_VALUE: decrypt_detached:state <- [DW_OP_LLVM_fragment 0 128] $xmm6
	#DEBUG_VALUE: decrypt_detached:state <- [DW_OP_LLVM_fragment 512 128] $xmm9
	#DEBUG_VALUE: decrypt_detached:state <- [DW_OP_LLVM_fragment 384 128] $xmm7
	#DEBUG_VALUE: decrypt_detached:state <- [DW_OP_LLVM_fragment 256 128] $xmm4
	#DEBUG_VALUE: decrypt_detached:state <- [DW_OP_LLVM_fragment 128 128] $xmm5
	#DEBUG_VALUE: decrypt_detached:i <- $rax
	#DEBUG_VALUE: decrypt_detached:state <- [DW_OP_LLVM_fragment 0 128] $xmm6
	#DEBUG_VALUE: decrypt_detached:state <- [DW_OP_LLVM_fragment 128 128] $xmm5
	#DEBUG_VALUE: decrypt_detached:state <- [DW_OP_LLVM_fragment 256 128] $xmm4
	#DEBUG_VALUE: decrypt_detached:state <- [DW_OP_LLVM_fragment 384 128] $xmm7
	#DEBUG_VALUE: decrypt_detached:state <- [DW_OP_LLVM_fragment 512 128] $xmm9
	#DEBUG_VALUE: decrypt_detached:state <- [DW_OP_LLVM_fragment 640 128] $xmm1
	#DEBUG_VALUE: aegis256_absorb:src <- [DW_OP_LLVM_arg 0, DW_OP_LLVM_arg 1, DW_OP_minus, DW_OP_consts 16, DW_OP_div, DW_OP_consts 16, DW_OP_mul, DW_OP_LLVM_arg 1, DW_OP_LLVM_arg 2, DW_OP_plus, DW_OP_plus, DW_OP_stack_value] undef, undef, undef
	#DEBUG_VALUE: aegis256_absorb:state <- undef
	#DEBUG_VALUE: aegis256_absorb:msg <- undef
	#DEBUG_VALUE: aegis256_update:state <- undef
	#DEBUG_VALUE: aegis256_update:d <- undef
	#DEBUG_VALUE: aegis256_update:tmp <- $xmm1
	.loc	5 46 16 is_stmt 1               # crypto_aead/aegis256/aegis256_aesni.c:46:16 @[ crypto_aead/aegis256/aegis256_common.h:71:5 @[ crypto_aead/aegis256/aegis256_common.h:195:9 ] ]
	vaesenc	%xmm1, %xmm9, %xmm8
.Ltmp241:
	#DEBUG_VALUE: decrypt_detached:state <- [DW_OP_LLVM_fragment 640 128] $xmm8
	.loc	5 47 16                         # crypto_aead/aegis256/aegis256_aesni.c:47:16 @[ crypto_aead/aegis256/aegis256_common.h:71:5 @[ crypto_aead/aegis256/aegis256_common.h:195:9 ] ]
	vaesenc	%xmm9, %xmm7, %xmm9
.Ltmp242:
	#DEBUG_VALUE: decrypt_detached:state <- [DW_OP_LLVM_fragment 512 128] $xmm9
	.loc	5 48 16                         # crypto_aead/aegis256/aegis256_aesni.c:48:16 @[ crypto_aead/aegis256/aegis256_common.h:71:5 @[ crypto_aead/aegis256/aegis256_common.h:195:9 ] ]
	vaesenc	%xmm7, %xmm4, %xmm7
.Ltmp243:
	#DEBUG_VALUE: decrypt_detached:state <- [DW_OP_LLVM_fragment 384 128] $xmm7
	.loc	5 49 16                         # crypto_aead/aegis256/aegis256_aesni.c:49:16 @[ crypto_aead/aegis256/aegis256_common.h:71:5 @[ crypto_aead/aegis256/aegis256_common.h:195:9 ] ]
	vaesenc	%xmm4, %xmm5, %xmm4
.Ltmp244:
	#DEBUG_VALUE: decrypt_detached:state <- [DW_OP_LLVM_fragment 256 128] $xmm4
	.loc	5 50 16                         # crypto_aead/aegis256/aegis256_aesni.c:50:16 @[ crypto_aead/aegis256/aegis256_common.h:71:5 @[ crypto_aead/aegis256/aegis256_common.h:195:9 ] ]
	vaesenc	%xmm5, %xmm6, %xmm5
.Ltmp245:
	#DEBUG_VALUE: decrypt_detached:state <- [DW_OP_LLVM_fragment 128 128] $xmm5
	.loc	5 51 31                         # crypto_aead/aegis256/aegis256_aesni.c:51:31 @[ crypto_aead/aegis256/aegis256_common.h:71:5 @[ crypto_aead/aegis256/aegis256_common.h:195:9 ] ]
	vaesenc	%xmm6, %xmm1, %xmm0
	.loc	5 51 16 is_stmt 0               # crypto_aead/aegis256/aegis256_aesni.c:51:16 @[ crypto_aead/aegis256/aegis256_common.h:71:5 @[ crypto_aead/aegis256/aegis256_common.h:195:9 ] ]
	vpxor	(%r9,%rax), %xmm0, %xmm6
.Ltmp246:
	#DEBUG_VALUE: decrypt_detached:state <- [DW_OP_LLVM_fragment 0 128] $xmm6
	#DEBUG_VALUE: decrypt_detached:state <- [DW_OP_LLVM_fragment 128 128] $xmm5
	#DEBUG_VALUE: decrypt_detached:state <- [DW_OP_LLVM_fragment 256 128] $xmm4
	#DEBUG_VALUE: decrypt_detached:state <- [DW_OP_LLVM_fragment 384 128] $xmm7
	#DEBUG_VALUE: decrypt_detached:state <- [DW_OP_LLVM_fragment 512 128] $xmm9
	#DEBUG_VALUE: decrypt_detached:state <- [DW_OP_LLVM_fragment 640 128] $xmm8
	#DEBUG_VALUE: decrypt_detached:i <- [DW_OP_plus_uconst 16, DW_OP_stack_value] $rax
	.loc	6 194 19 is_stmt 1              # crypto_aead/aegis256/aegis256_common.h:194:19
	leaq	16(%rax), %rcx
	addq	$32, %rax
.Ltmp247:
	.loc	6 0 19 is_stmt 0                # crypto_aead/aegis256/aegis256_common.h:0:19
	vmovdqa	%xmm8, %xmm1
.Ltmp248:
	.loc	6 194 19                        # crypto_aead/aegis256/aegis256_common.h:194:19
	cmpq	%r15, %rax
	movq	%rcx, %rax
.Ltmp249:
	.loc	6 194 5                         # crypto_aead/aegis256/aegis256_common.h:194:5
	jbe	.LBB1_6
.Ltmp250:
.LBB1_7:                                # %._crit_edge
	#DEBUG_VALUE: decrypt_detached:m <- $r14
	#DEBUG_VALUE: decrypt_detached:c <- $r13
	#DEBUG_VALUE: decrypt_detached:clen <- $rbx
	#DEBUG_VALUE: decrypt_detached:mac <- $r12
	#DEBUG_VALUE: decrypt_detached:maclen <- $r8
	#DEBUG_VALUE: decrypt_detached:ad <- $r9
	#DEBUG_VALUE: decrypt_detached:adlen <- [DW_OP_plus_uconst 256] [$rsp+0]
	#DEBUG_VALUE: decrypt_detached:npub <- [DW_OP_plus_uconst 264] [$rsp+0]
	#DEBUG_VALUE: decrypt_detached:k <- [DW_OP_plus_uconst 272] [$rsp+0]
	#DEBUG_VALUE: decrypt_detached:dst <- [DW_OP_plus_uconst 160, DW_OP_deref] $rsp
	#DEBUG_VALUE: decrypt_detached:state <- [DW_OP_LLVM_fragment 0 128] $xmm6
	#DEBUG_VALUE: decrypt_detached:state <- [DW_OP_LLVM_fragment 512 128] $xmm9
	#DEBUG_VALUE: decrypt_detached:state <- [DW_OP_LLVM_fragment 384 128] $xmm7
	#DEBUG_VALUE: decrypt_detached:state <- [DW_OP_LLVM_fragment 256 128] $xmm4
	#DEBUG_VALUE: decrypt_detached:state <- [DW_OP_LLVM_fragment 128 128] $xmm5
	.loc	6 0 5                           # crypto_aead/aegis256/aegis256_common.h:0:5
	movq	%r8, 120(%rsp)                  # 8-byte Spill
.Ltmp251:
	#DEBUG_VALUE: decrypt_detached:maclen <- [DW_OP_plus_uconst 120] [$rsp+0]
	.loc	6 197 15 is_stmt 1              # crypto_aead/aegis256/aegis256_common.h:197:15
	movq	%r15, %rdx
	andq	$15, %rdx
	je	.LBB1_9
.Ltmp252:
# %bb.8:
	#DEBUG_VALUE: decrypt_detached:m <- $r14
	#DEBUG_VALUE: decrypt_detached:c <- $r13
	#DEBUG_VALUE: decrypt_detached:clen <- $rbx
	#DEBUG_VALUE: decrypt_detached:mac <- $r12
	#DEBUG_VALUE: decrypt_detached:maclen <- [DW_OP_plus_uconst 120] [$rsp+0]
	#DEBUG_VALUE: decrypt_detached:ad <- $r9
	#DEBUG_VALUE: decrypt_detached:adlen <- [DW_OP_plus_uconst 256] [$rsp+0]
	#DEBUG_VALUE: decrypt_detached:npub <- [DW_OP_plus_uconst 264] [$rsp+0]
	#DEBUG_VALUE: decrypt_detached:k <- [DW_OP_plus_uconst 272] [$rsp+0]
	#DEBUG_VALUE: decrypt_detached:dst <- [DW_OP_plus_uconst 160, DW_OP_deref] $rsp
	#DEBUG_VALUE: decrypt_detached:state <- [DW_OP_LLVM_fragment 0 128] $xmm6
	#DEBUG_VALUE: decrypt_detached:state <- [DW_OP_LLVM_fragment 512 128] $xmm9
	#DEBUG_VALUE: decrypt_detached:state <- [DW_OP_LLVM_fragment 384 128] $xmm7
	#DEBUG_VALUE: decrypt_detached:state <- [DW_OP_LLVM_fragment 256 128] $xmm4
	#DEBUG_VALUE: decrypt_detached:state <- [DW_OP_LLVM_fragment 128 128] $xmm5
	#DEBUG_VALUE: memset:__dest <- [DW_OP_plus_uconst 176, DW_OP_stack_value] $rsp
	#DEBUG_VALUE: memset:__ch <- 0
	#DEBUG_VALUE: memset:__len <- 16
	.loc	8 59 10                         # /usr/include/x86_64-linux-gnu/bits/string_fortified.h:59:10 @[ crypto_aead/aegis256/aegis256_common.h:198:9 ]
	vpxor	%xmm0, %xmm0, %xmm0
	vmovdqa	%xmm0, 176(%rsp)
.Ltmp253:
	.loc	6 199 24                        # crypto_aead/aegis256/aegis256_common.h:199:24
	addq	%rcx, %r9
.Ltmp254:
	#DEBUG_VALUE: decrypt_detached:ad <- [DW_OP_LLVM_entry_value 1] $r9
	#DEBUG_VALUE: memcpy:__src <- $r9
	#DEBUG_VALUE: memcpy:__dest <- [DW_OP_plus_uconst 176, DW_OP_stack_value] $rsp
	#DEBUG_VALUE: memcpy:__len <- $rdx
	.loc	6 0 24 is_stmt 0                # crypto_aead/aegis256/aegis256_common.h:0:24
	leaq	176(%rsp), %rdi
.Ltmp255:
	.loc	8 29 10 is_stmt 1               # /usr/include/x86_64-linux-gnu/bits/string_fortified.h:29:10 @[ crypto_aead/aegis256/aegis256_common.h:199:9 ]
	movl	$16, %ecx
	movq	%r9, %rsi
	vmovdqa	%xmm7, 64(%rsp)                 # 16-byte Spill
.Ltmp256:
	#DEBUG_VALUE: decrypt_detached:state <- [DW_OP_plus_uconst 64, DW_OP_deref, DW_OP_LLVM_fragment 384 128] $rsp
	.loc	8 0 10 is_stmt 0                # /usr/include/x86_64-linux-gnu/bits/string_fortified.h:0:10
	vmovdqa	%xmm9, 48(%rsp)                 # 16-byte Spill
.Ltmp257:
	#DEBUG_VALUE: decrypt_detached:state <- [DW_OP_plus_uconst 48, DW_OP_deref, DW_OP_LLVM_fragment 512 128] $rsp
	vmovdqa	%xmm4, 32(%rsp)                 # 16-byte Spill
.Ltmp258:
	#DEBUG_VALUE: decrypt_detached:state <- [DW_OP_plus_uconst 32, DW_OP_deref, DW_OP_LLVM_fragment 256 128] $rsp
	vmovdqa	%xmm5, 16(%rsp)                 # 16-byte Spill
.Ltmp259:
	#DEBUG_VALUE: decrypt_detached:state <- [DW_OP_plus_uconst 16, DW_OP_deref, DW_OP_LLVM_fragment 128 128] $rsp
	vmovdqa	%xmm6, 96(%rsp)                 # 16-byte Spill
.Ltmp260:
	#DEBUG_VALUE: decrypt_detached:state <- [DW_OP_plus_uconst 96, DW_OP_deref, DW_OP_LLVM_fragment 0 128] $rsp
	vmovdqa	%xmm8, (%rsp)                   # 16-byte Spill
	.loc	8 29 10                         # /usr/include/x86_64-linux-gnu/bits/string_fortified.h:29:10 @[ crypto_aead/aegis256/aegis256_common.h:199:9 ]
	callq	__memcpy_chk@PLT
.Ltmp261:
	.loc	8 0 10                          # /usr/include/x86_64-linux-gnu/bits/string_fortified.h:0:10
	vmovdqa	16(%rsp), %xmm5                 # 16-byte Reload
	vmovdqa	32(%rsp), %xmm4                 # 16-byte Reload
	vmovdqa	48(%rsp), %xmm9                 # 16-byte Reload
	vmovdqa	64(%rsp), %xmm7                 # 16-byte Reload
.Ltmp262:
	#DEBUG_VALUE: aegis256_absorb:src <- [DW_OP_plus_uconst 176, DW_OP_stack_value] $rsp
	#DEBUG_VALUE: aegis256_absorb:state <- undef
	#DEBUG_VALUE: aegis256_update:state <- undef
	#DEBUG_VALUE: aegis256_update:tmp <- [DW_OP_deref] $rsp
	#DEBUG_VALUE: aegis256_absorb:msg <- undef
	#DEBUG_VALUE: aegis256_update:d <- undef
	#DEBUG_VALUE: decrypt_detached:state <- [DW_OP_LLVM_fragment 640 128] undef
	#DEBUG_VALUE: decrypt_detached:state <- [DW_OP_LLVM_fragment 512 128] undef
	#DEBUG_VALUE: decrypt_detached:state <- [DW_OP_LLVM_fragment 384 128] undef
	#DEBUG_VALUE: decrypt_detached:state <- [DW_OP_LLVM_fragment 256 128] undef
	#DEBUG_VALUE: decrypt_detached:state <- [DW_OP_LLVM_fragment 128 128] undef
	vmovdqa	96(%rsp), %xmm2                 # 16-byte Reload
	vmovdqa	(%rsp), %xmm1                   # 16-byte Reload
.Ltmp263:
	.loc	5 51 31 is_stmt 1               # crypto_aead/aegis256/aegis256_aesni.c:51:31 @[ crypto_aead/aegis256/aegis256_common.h:71:5 @[ crypto_aead/aegis256/aegis256_common.h:200:9 ] ]
	vaesenc	%xmm2, %xmm1, %xmm0
	.loc	5 46 16                         # crypto_aead/aegis256/aegis256_aesni.c:46:16 @[ crypto_aead/aegis256/aegis256_common.h:71:5 @[ crypto_aead/aegis256/aegis256_common.h:200:9 ] ]
	vaesenc	%xmm1, %xmm9, %xmm8
.Ltmp264:
	#DEBUG_VALUE: decrypt_detached:state <- [DW_OP_LLVM_fragment 640 128] $xmm8
	.loc	5 47 16                         # crypto_aead/aegis256/aegis256_aesni.c:47:16 @[ crypto_aead/aegis256/aegis256_common.h:71:5 @[ crypto_aead/aegis256/aegis256_common.h:200:9 ] ]
	vaesenc	%xmm9, %xmm7, %xmm9
.Ltmp265:
	#DEBUG_VALUE: decrypt_detached:state <- [DW_OP_LLVM_fragment 512 128] $xmm9
	.loc	5 48 16                         # crypto_aead/aegis256/aegis256_aesni.c:48:16 @[ crypto_aead/aegis256/aegis256_common.h:71:5 @[ crypto_aead/aegis256/aegis256_common.h:200:9 ] ]
	vaesenc	%xmm7, %xmm4, %xmm7
.Ltmp266:
	#DEBUG_VALUE: decrypt_detached:state <- [DW_OP_LLVM_fragment 384 128] $xmm7
	.loc	5 49 16                         # crypto_aead/aegis256/aegis256_aesni.c:49:16 @[ crypto_aead/aegis256/aegis256_common.h:71:5 @[ crypto_aead/aegis256/aegis256_common.h:200:9 ] ]
	vaesenc	%xmm4, %xmm5, %xmm4
.Ltmp267:
	#DEBUG_VALUE: decrypt_detached:state <- [DW_OP_LLVM_fragment 256 128] $xmm4
	.loc	5 50 16                         # crypto_aead/aegis256/aegis256_aesni.c:50:16 @[ crypto_aead/aegis256/aegis256_common.h:71:5 @[ crypto_aead/aegis256/aegis256_common.h:200:9 ] ]
	vaesenc	%xmm5, %xmm2, %xmm5
.Ltmp268:
	#DEBUG_VALUE: decrypt_detached:state <- [DW_OP_LLVM_fragment 128 128] $xmm5
	.loc	5 51 16                         # crypto_aead/aegis256/aegis256_aesni.c:51:16 @[ crypto_aead/aegis256/aegis256_common.h:71:5 @[ crypto_aead/aegis256/aegis256_common.h:200:9 ] ]
	vpxor	176(%rsp), %xmm0, %xmm6
.Ltmp269:
	#DEBUG_VALUE: decrypt_detached:state <- [DW_OP_LLVM_fragment 0 128] $xmm6
.LBB1_9:
	#DEBUG_VALUE: decrypt_detached:m <- $r14
	#DEBUG_VALUE: decrypt_detached:c <- $r13
	#DEBUG_VALUE: decrypt_detached:clen <- $rbx
	#DEBUG_VALUE: decrypt_detached:mac <- $r12
	#DEBUG_VALUE: decrypt_detached:maclen <- [DW_OP_plus_uconst 120] [$rsp+0]
	#DEBUG_VALUE: decrypt_detached:ad <- [DW_OP_LLVM_entry_value 1] $r9
	#DEBUG_VALUE: decrypt_detached:adlen <- [DW_OP_plus_uconst 256] [$rsp+0]
	#DEBUG_VALUE: decrypt_detached:npub <- [DW_OP_plus_uconst 264] [$rsp+0]
	#DEBUG_VALUE: decrypt_detached:k <- [DW_OP_plus_uconst 272] [$rsp+0]
	#DEBUG_VALUE: decrypt_detached:dst <- [DW_OP_plus_uconst 160, DW_OP_deref] $rsp
	#DEBUG_VALUE: decrypt_detached:state <- [DW_OP_LLVM_fragment 0 128] $xmm6
	#DEBUG_VALUE: decrypt_detached:state <- [DW_OP_LLVM_fragment 512 128] $xmm9
	#DEBUG_VALUE: decrypt_detached:state <- [DW_OP_LLVM_fragment 384 128] $xmm7
	#DEBUG_VALUE: decrypt_detached:state <- [DW_OP_LLVM_fragment 256 128] $xmm4
	#DEBUG_VALUE: decrypt_detached:state <- [DW_OP_LLVM_fragment 128 128] $xmm5
	#DEBUG_VALUE: decrypt_detached:state <- [DW_OP_LLVM_fragment 0 128] $xmm6
	#DEBUG_VALUE: decrypt_detached:state <- [DW_OP_LLVM_fragment 128 128] $xmm5
	#DEBUG_VALUE: decrypt_detached:state <- [DW_OP_LLVM_fragment 256 128] $xmm4
	#DEBUG_VALUE: decrypt_detached:state <- [DW_OP_LLVM_fragment 384 128] $xmm7
	#DEBUG_VALUE: decrypt_detached:state <- [DW_OP_LLVM_fragment 512 128] $xmm9
	#DEBUG_VALUE: decrypt_detached:state <- [DW_OP_LLVM_fragment 640 128] $xmm8
	.loc	6 202 11                        # crypto_aead/aegis256/aegis256_common.h:202:11
	testq	%r14, %r14
	je	.LBB1_10
.Ltmp270:
# %bb.12:                               # %.preheader
	#DEBUG_VALUE: decrypt_detached:m <- $r14
	#DEBUG_VALUE: decrypt_detached:c <- $r13
	#DEBUG_VALUE: decrypt_detached:clen <- $rbx
	#DEBUG_VALUE: decrypt_detached:mac <- $r12
	#DEBUG_VALUE: decrypt_detached:maclen <- [DW_OP_plus_uconst 120] [$rsp+0]
	#DEBUG_VALUE: decrypt_detached:ad <- [DW_OP_LLVM_entry_value 1] $r9
	#DEBUG_VALUE: decrypt_detached:adlen <- [DW_OP_plus_uconst 256] [$rsp+0]
	#DEBUG_VALUE: decrypt_detached:npub <- [DW_OP_plus_uconst 264] [$rsp+0]
	#DEBUG_VALUE: decrypt_detached:k <- [DW_OP_plus_uconst 272] [$rsp+0]
	#DEBUG_VALUE: decrypt_detached:dst <- [DW_OP_plus_uconst 160, DW_OP_deref] $rsp
	#DEBUG_VALUE: decrypt_detached:state <- [DW_OP_LLVM_fragment 0 128] $xmm6
	#DEBUG_VALUE: decrypt_detached:state <- [DW_OP_LLVM_fragment 640 128] $xmm8
	#DEBUG_VALUE: decrypt_detached:state <- [DW_OP_LLVM_fragment 512 128] $xmm9
	#DEBUG_VALUE: decrypt_detached:state <- [DW_OP_LLVM_fragment 384 128] $xmm7
	#DEBUG_VALUE: decrypt_detached:state <- [DW_OP_LLVM_fragment 256 128] $xmm4
	#DEBUG_VALUE: decrypt_detached:state <- [DW_OP_LLVM_fragment 128 128] $xmm5
	#DEBUG_VALUE: decrypt_detached:state <- [DW_OP_LLVM_fragment 0 128] $xmm6
	#DEBUG_VALUE: decrypt_detached:state <- [DW_OP_LLVM_fragment 128 128] $xmm5
	#DEBUG_VALUE: decrypt_detached:state <- [DW_OP_LLVM_fragment 256 128] $xmm4
	#DEBUG_VALUE: decrypt_detached:state <- [DW_OP_LLVM_fragment 384 128] $xmm7
	#DEBUG_VALUE: decrypt_detached:state <- [DW_OP_LLVM_fragment 512 128] $xmm9
	#DEBUG_VALUE: decrypt_detached:state <- [DW_OP_LLVM_fragment 640 128] $xmm8
	#DEBUG_VALUE: decrypt_detached:i <- 0
	.loc	6 203 28                        # crypto_aead/aegis256/aegis256_common.h:203:28
	cmpq	$16, %rbx
.Ltmp271:
	.loc	6 203 9 is_stmt 0               # crypto_aead/aegis256/aegis256_common.h:203:9
	jae	.LBB1_14
.Ltmp272:
# %bb.13:
	#DEBUG_VALUE: decrypt_detached:m <- $r14
	#DEBUG_VALUE: decrypt_detached:c <- $r13
	#DEBUG_VALUE: decrypt_detached:clen <- $rbx
	#DEBUG_VALUE: decrypt_detached:mac <- $r12
	#DEBUG_VALUE: decrypt_detached:maclen <- [DW_OP_plus_uconst 120] [$rsp+0]
	#DEBUG_VALUE: decrypt_detached:ad <- [DW_OP_LLVM_entry_value 1] $r9
	#DEBUG_VALUE: decrypt_detached:adlen <- [DW_OP_plus_uconst 256] [$rsp+0]
	#DEBUG_VALUE: decrypt_detached:npub <- [DW_OP_plus_uconst 264] [$rsp+0]
	#DEBUG_VALUE: decrypt_detached:k <- [DW_OP_plus_uconst 272] [$rsp+0]
	#DEBUG_VALUE: decrypt_detached:dst <- [DW_OP_plus_uconst 160, DW_OP_deref] $rsp
	#DEBUG_VALUE: decrypt_detached:state <- [DW_OP_LLVM_fragment 0 128] $xmm6
	#DEBUG_VALUE: decrypt_detached:state <- [DW_OP_LLVM_fragment 640 128] $xmm8
	#DEBUG_VALUE: decrypt_detached:state <- [DW_OP_LLVM_fragment 512 128] $xmm9
	#DEBUG_VALUE: decrypt_detached:state <- [DW_OP_LLVM_fragment 384 128] $xmm7
	#DEBUG_VALUE: decrypt_detached:state <- [DW_OP_LLVM_fragment 256 128] $xmm4
	#DEBUG_VALUE: decrypt_detached:state <- [DW_OP_LLVM_fragment 128 128] $xmm5
	#DEBUG_VALUE: decrypt_detached:i <- 0
	.loc	6 0 9                           # crypto_aead/aegis256/aegis256_common.h:0:9
	xorl	%ecx, %ecx
	.loc	6 203 9                         # crypto_aead/aegis256/aegis256_common.h:203:9
	jmp	.LBB1_16
.Ltmp273:
.LBB1_10:                               # %.preheader135
	#DEBUG_VALUE: decrypt_detached:m <- $r14
	#DEBUG_VALUE: decrypt_detached:c <- $r13
	#DEBUG_VALUE: decrypt_detached:clen <- $rbx
	#DEBUG_VALUE: decrypt_detached:mac <- $r12
	#DEBUG_VALUE: decrypt_detached:maclen <- [DW_OP_plus_uconst 120] [$rsp+0]
	#DEBUG_VALUE: decrypt_detached:ad <- [DW_OP_LLVM_entry_value 1] $r9
	#DEBUG_VALUE: decrypt_detached:adlen <- [DW_OP_plus_uconst 256] [$rsp+0]
	#DEBUG_VALUE: decrypt_detached:npub <- [DW_OP_plus_uconst 264] [$rsp+0]
	#DEBUG_VALUE: decrypt_detached:k <- [DW_OP_plus_uconst 272] [$rsp+0]
	#DEBUG_VALUE: decrypt_detached:dst <- [DW_OP_plus_uconst 160, DW_OP_deref] $rsp
	#DEBUG_VALUE: decrypt_detached:state <- [DW_OP_LLVM_fragment 0 128] $xmm6
	#DEBUG_VALUE: decrypt_detached:state <- [DW_OP_LLVM_fragment 640 128] $xmm8
	#DEBUG_VALUE: decrypt_detached:state <- [DW_OP_LLVM_fragment 512 128] $xmm9
	#DEBUG_VALUE: decrypt_detached:state <- [DW_OP_LLVM_fragment 384 128] $xmm7
	#DEBUG_VALUE: decrypt_detached:state <- [DW_OP_LLVM_fragment 256 128] $xmm4
	#DEBUG_VALUE: decrypt_detached:state <- [DW_OP_LLVM_fragment 128 128] $xmm5
	#DEBUG_VALUE: decrypt_detached:state <- [DW_OP_LLVM_fragment 0 128] $xmm6
	#DEBUG_VALUE: decrypt_detached:state <- [DW_OP_LLVM_fragment 128 128] $xmm5
	#DEBUG_VALUE: decrypt_detached:state <- [DW_OP_LLVM_fragment 256 128] $xmm4
	#DEBUG_VALUE: decrypt_detached:state <- [DW_OP_LLVM_fragment 384 128] $xmm7
	#DEBUG_VALUE: decrypt_detached:state <- [DW_OP_LLVM_fragment 512 128] $xmm9
	#DEBUG_VALUE: decrypt_detached:state <- [DW_OP_LLVM_fragment 640 128] $xmm8
	#DEBUG_VALUE: decrypt_detached:i <- 0
	.loc	6 207 28 is_stmt 1              # crypto_aead/aegis256/aegis256_common.h:207:28
	cmpq	$16, %rbx
.Ltmp274:
	.loc	6 207 9 is_stmt 0               # crypto_aead/aegis256/aegis256_common.h:207:9
	jae	.LBB1_18
.Ltmp275:
# %bb.11:
	#DEBUG_VALUE: decrypt_detached:m <- $r14
	#DEBUG_VALUE: decrypt_detached:c <- $r13
	#DEBUG_VALUE: decrypt_detached:clen <- $rbx
	#DEBUG_VALUE: decrypt_detached:mac <- $r12
	#DEBUG_VALUE: decrypt_detached:maclen <- [DW_OP_plus_uconst 120] [$rsp+0]
	#DEBUG_VALUE: decrypt_detached:ad <- [DW_OP_LLVM_entry_value 1] $r9
	#DEBUG_VALUE: decrypt_detached:adlen <- [DW_OP_plus_uconst 256] [$rsp+0]
	#DEBUG_VALUE: decrypt_detached:npub <- [DW_OP_plus_uconst 264] [$rsp+0]
	#DEBUG_VALUE: decrypt_detached:k <- [DW_OP_plus_uconst 272] [$rsp+0]
	#DEBUG_VALUE: decrypt_detached:dst <- [DW_OP_plus_uconst 160, DW_OP_deref] $rsp
	#DEBUG_VALUE: decrypt_detached:state <- [DW_OP_LLVM_fragment 0 128] $xmm6
	#DEBUG_VALUE: decrypt_detached:state <- [DW_OP_LLVM_fragment 640 128] $xmm8
	#DEBUG_VALUE: decrypt_detached:state <- [DW_OP_LLVM_fragment 512 128] $xmm9
	#DEBUG_VALUE: decrypt_detached:state <- [DW_OP_LLVM_fragment 384 128] $xmm7
	#DEBUG_VALUE: decrypt_detached:state <- [DW_OP_LLVM_fragment 256 128] $xmm4
	#DEBUG_VALUE: decrypt_detached:state <- [DW_OP_LLVM_fragment 128 128] $xmm5
	#DEBUG_VALUE: decrypt_detached:i <- 0
	.loc	6 0 9                           # crypto_aead/aegis256/aegis256_common.h:0:9
	vmovdqa	160(%rsp), %xmm0
	xorl	%ecx, %ecx
	.loc	6 207 9                         # crypto_aead/aegis256/aegis256_common.h:207:9
	jmp	.LBB1_20
.Ltmp276:
.LBB1_14:                               # %.lr.ph193.preheader
	#DEBUG_VALUE: decrypt_detached:m <- $r14
	#DEBUG_VALUE: decrypt_detached:c <- $r13
	#DEBUG_VALUE: decrypt_detached:clen <- $rbx
	#DEBUG_VALUE: decrypt_detached:mac <- $r12
	#DEBUG_VALUE: decrypt_detached:maclen <- [DW_OP_plus_uconst 120] [$rsp+0]
	#DEBUG_VALUE: decrypt_detached:ad <- [DW_OP_LLVM_entry_value 1] $r9
	#DEBUG_VALUE: decrypt_detached:adlen <- [DW_OP_plus_uconst 256] [$rsp+0]
	#DEBUG_VALUE: decrypt_detached:npub <- [DW_OP_plus_uconst 264] [$rsp+0]
	#DEBUG_VALUE: decrypt_detached:k <- [DW_OP_plus_uconst 272] [$rsp+0]
	#DEBUG_VALUE: decrypt_detached:dst <- [DW_OP_plus_uconst 160, DW_OP_deref] $rsp
	#DEBUG_VALUE: decrypt_detached:state <- [DW_OP_LLVM_fragment 0 128] $xmm6
	#DEBUG_VALUE: decrypt_detached:state <- [DW_OP_LLVM_fragment 640 128] $xmm8
	#DEBUG_VALUE: decrypt_detached:state <- [DW_OP_LLVM_fragment 512 128] $xmm9
	#DEBUG_VALUE: decrypt_detached:state <- [DW_OP_LLVM_fragment 384 128] $xmm7
	#DEBUG_VALUE: decrypt_detached:state <- [DW_OP_LLVM_fragment 256 128] $xmm4
	#DEBUG_VALUE: decrypt_detached:state <- [DW_OP_LLVM_fragment 128 128] $xmm5
	#DEBUG_VALUE: decrypt_detached:i <- 0
	.loc	6 0 9                           # crypto_aead/aegis256/aegis256_common.h:0:9
	xorl	%eax, %eax
	vmovdqa	%xmm8, %xmm0
.Ltmp277:
	.p2align	4
.LBB1_15:                               # %.lr.ph193
                                        # =>This Inner Loop Header: Depth=1
	#DEBUG_VALUE: decrypt_detached:m <- $r14
	#DEBUG_VALUE: decrypt_detached:c <- $r13
	#DEBUG_VALUE: decrypt_detached:clen <- $rbx
	#DEBUG_VALUE: decrypt_detached:mac <- $r12
	#DEBUG_VALUE: decrypt_detached:maclen <- [DW_OP_plus_uconst 120] [$rsp+0]
	#DEBUG_VALUE: decrypt_detached:ad <- [DW_OP_LLVM_entry_value 1] $r9
	#DEBUG_VALUE: decrypt_detached:adlen <- [DW_OP_plus_uconst 256] [$rsp+0]
	#DEBUG_VALUE: decrypt_detached:npub <- [DW_OP_plus_uconst 264] [$rsp+0]
	#DEBUG_VALUE: decrypt_detached:k <- [DW_OP_plus_uconst 272] [$rsp+0]
	#DEBUG_VALUE: decrypt_detached:dst <- [DW_OP_plus_uconst 160, DW_OP_deref] $rsp
	#DEBUG_VALUE: decrypt_detached:state <- [DW_OP_LLVM_fragment 0 128] $xmm6
	#DEBUG_VALUE: decrypt_detached:state <- [DW_OP_LLVM_fragment 640 128] $xmm8
	#DEBUG_VALUE: decrypt_detached:state <- [DW_OP_LLVM_fragment 512 128] $xmm9
	#DEBUG_VALUE: decrypt_detached:state <- [DW_OP_LLVM_fragment 384 128] $xmm7
	#DEBUG_VALUE: decrypt_detached:state <- [DW_OP_LLVM_fragment 256 128] $xmm4
	#DEBUG_VALUE: decrypt_detached:state <- [DW_OP_LLVM_fragment 128 128] $xmm5
	#DEBUG_VALUE: decrypt_detached:i <- $rax
	#DEBUG_VALUE: decrypt_detached:state <- [DW_OP_LLVM_fragment 0 128] $xmm6
	#DEBUG_VALUE: decrypt_detached:state <- [DW_OP_LLVM_fragment 128 128] $xmm5
	#DEBUG_VALUE: decrypt_detached:state <- [DW_OP_LLVM_fragment 256 128] $xmm4
	#DEBUG_VALUE: decrypt_detached:state <- [DW_OP_LLVM_fragment 384 128] $xmm7
	#DEBUG_VALUE: decrypt_detached:state <- [DW_OP_LLVM_fragment 512 128] $xmm9
	#DEBUG_VALUE: decrypt_detached:state <- [DW_OP_LLVM_fragment 640 128] $xmm0
	#DEBUG_VALUE: aegis256_dec:dst <- [DW_OP_LLVM_arg 0, DW_OP_consts 16, DW_OP_div, DW_OP_consts 16, DW_OP_mul, DW_OP_LLVM_arg 1, DW_OP_plus, DW_OP_stack_value] $rax, $r14
	#DEBUG_VALUE: aegis256_dec:src <- [DW_OP_LLVM_arg 0, DW_OP_consts 16, DW_OP_div, DW_OP_consts 16, DW_OP_mul, DW_OP_LLVM_arg 1, DW_OP_plus, DW_OP_stack_value] $rax, $r13
	#DEBUG_VALUE: aegis256_dec:state <- undef
	#DEBUG_VALUE: aegis256_dec:msg <- undef
	.loc	6 110 33 is_stmt 1              # crypto_aead/aegis256/aegis256_common.h:110:33 @[ crypto_aead/aegis256/aegis256_common.h:204:13 ]
	vpand	%xmm7, %xmm4, %xmm1
	.loc	6 110 11 is_stmt 0              # crypto_aead/aegis256/aegis256_common.h:110:11 @[ crypto_aead/aegis256/aegis256_common.h:204:13 ]
	vpxor	(%r13,%rax), %xmm1, %xmm1
	vpxor	%xmm0, %xmm9, %xmm2
	vpxor	%xmm5, %xmm2, %xmm2
	vpxor	%xmm2, %xmm1, %xmm1
.Ltmp278:
	#DEBUG_VALUE: aegis256_dec:msg <- $xmm1
	.loc	6 111 5 is_stmt 1               # crypto_aead/aegis256/aegis256_common.h:111:5 @[ crypto_aead/aegis256/aegis256_common.h:204:13 ]
	vmovdqu	%xmm1, (%r14,%rax)
.Ltmp279:
	#DEBUG_VALUE: aegis256_update:state <- undef
	#DEBUG_VALUE: aegis256_update:d <- $xmm1
	#DEBUG_VALUE: aegis256_update:tmp <- $xmm0
	.loc	5 46 16                         # crypto_aead/aegis256/aegis256_aesni.c:46:16 @[ crypto_aead/aegis256/aegis256_common.h:113:5 @[ crypto_aead/aegis256/aegis256_common.h:204:13 ] ]
	vaesenc	%xmm0, %xmm9, %xmm8
.Ltmp280:
	#DEBUG_VALUE: decrypt_detached:state <- [DW_OP_LLVM_fragment 640 128] $xmm8
	.loc	5 47 16                         # crypto_aead/aegis256/aegis256_aesni.c:47:16 @[ crypto_aead/aegis256/aegis256_common.h:113:5 @[ crypto_aead/aegis256/aegis256_common.h:204:13 ] ]
	vaesenc	%xmm9, %xmm7, %xmm9
.Ltmp281:
	#DEBUG_VALUE: decrypt_detached:state <- [DW_OP_LLVM_fragment 512 128] $xmm9
	.loc	5 48 16                         # crypto_aead/aegis256/aegis256_aesni.c:48:16 @[ crypto_aead/aegis256/aegis256_common.h:113:5 @[ crypto_aead/aegis256/aegis256_common.h:204:13 ] ]
	vaesenc	%xmm7, %xmm4, %xmm7
.Ltmp282:
	#DEBUG_VALUE: decrypt_detached:state <- [DW_OP_LLVM_fragment 384 128] $xmm7
	.loc	5 49 16                         # crypto_aead/aegis256/aegis256_aesni.c:49:16 @[ crypto_aead/aegis256/aegis256_common.h:113:5 @[ crypto_aead/aegis256/aegis256_common.h:204:13 ] ]
	vaesenc	%xmm4, %xmm5, %xmm4
.Ltmp283:
	#DEBUG_VALUE: decrypt_detached:state <- [DW_OP_LLVM_fragment 256 128] $xmm4
	.loc	5 50 16                         # crypto_aead/aegis256/aegis256_aesni.c:50:16 @[ crypto_aead/aegis256/aegis256_common.h:113:5 @[ crypto_aead/aegis256/aegis256_common.h:204:13 ] ]
	vaesenc	%xmm5, %xmm6, %xmm5
.Ltmp284:
	#DEBUG_VALUE: decrypt_detached:state <- [DW_OP_LLVM_fragment 128 128] $xmm5
	.loc	5 51 31                         # crypto_aead/aegis256/aegis256_aesni.c:51:31 @[ crypto_aead/aegis256/aegis256_common.h:113:5 @[ crypto_aead/aegis256/aegis256_common.h:204:13 ] ]
	vaesenc	%xmm6, %xmm0, %xmm0
.Ltmp285:
	.loc	5 51 16 is_stmt 0               # crypto_aead/aegis256/aegis256_aesni.c:51:16 @[ crypto_aead/aegis256/aegis256_common.h:113:5 @[ crypto_aead/aegis256/aegis256_common.h:204:13 ] ]
	vpxor	%xmm1, %xmm0, %xmm6
.Ltmp286:
	#DEBUG_VALUE: decrypt_detached:state <- [DW_OP_LLVM_fragment 0 128] $xmm6
	#DEBUG_VALUE: decrypt_detached:state <- [DW_OP_LLVM_fragment 128 128] $xmm5
	#DEBUG_VALUE: decrypt_detached:state <- [DW_OP_LLVM_fragment 256 128] $xmm4
	#DEBUG_VALUE: decrypt_detached:state <- [DW_OP_LLVM_fragment 384 128] $xmm7
	#DEBUG_VALUE: decrypt_detached:state <- [DW_OP_LLVM_fragment 512 128] $xmm9
	#DEBUG_VALUE: decrypt_detached:state <- [DW_OP_LLVM_fragment 640 128] $xmm8
	#DEBUG_VALUE: decrypt_detached:i <- [DW_OP_plus_uconst 16, DW_OP_stack_value] $rax
	.loc	6 203 28 is_stmt 1              # crypto_aead/aegis256/aegis256_common.h:203:28
	leaq	16(%rax), %rcx
	addq	$32, %rax
.Ltmp287:
	.loc	6 0 28 is_stmt 0                # crypto_aead/aegis256/aegis256_common.h:0:28
	vmovdqa	%xmm8, %xmm0
	.loc	6 203 28                        # crypto_aead/aegis256/aegis256_common.h:203:28
	cmpq	%rbx, %rax
	movq	%rcx, %rax
.Ltmp288:
	.loc	6 203 9                         # crypto_aead/aegis256/aegis256_common.h:203:9
	jbe	.LBB1_15
.Ltmp289:
.LBB1_16:                               # %.loopexit
	#DEBUG_VALUE: decrypt_detached:m <- $r14
	#DEBUG_VALUE: decrypt_detached:c <- $r13
	#DEBUG_VALUE: decrypt_detached:clen <- $rbx
	#DEBUG_VALUE: decrypt_detached:mac <- $r12
	#DEBUG_VALUE: decrypt_detached:maclen <- [DW_OP_plus_uconst 120] [$rsp+0]
	#DEBUG_VALUE: decrypt_detached:ad <- [DW_OP_LLVM_entry_value 1] $r9
	#DEBUG_VALUE: decrypt_detached:adlen <- [DW_OP_plus_uconst 256] [$rsp+0]
	#DEBUG_VALUE: decrypt_detached:npub <- [DW_OP_plus_uconst 264] [$rsp+0]
	#DEBUG_VALUE: decrypt_detached:k <- [DW_OP_plus_uconst 272] [$rsp+0]
	#DEBUG_VALUE: decrypt_detached:dst <- [DW_OP_plus_uconst 160, DW_OP_deref] $rsp
	#DEBUG_VALUE: decrypt_detached:state <- [DW_OP_LLVM_fragment 0 128] $xmm6
	#DEBUG_VALUE: decrypt_detached:state <- [DW_OP_LLVM_fragment 640 128] $xmm8
	#DEBUG_VALUE: decrypt_detached:state <- [DW_OP_LLVM_fragment 512 128] $xmm9
	#DEBUG_VALUE: decrypt_detached:state <- [DW_OP_LLVM_fragment 384 128] $xmm7
	#DEBUG_VALUE: decrypt_detached:state <- [DW_OP_LLVM_fragment 256 128] $xmm4
	#DEBUG_VALUE: decrypt_detached:state <- [DW_OP_LLVM_fragment 128 128] $xmm5
	#DEBUG_VALUE: decrypt_detached:state <- [DW_OP_LLVM_fragment 0 128] $xmm6
	#DEBUG_VALUE: decrypt_detached:state <- [DW_OP_LLVM_fragment 128 128] $xmm5
	#DEBUG_VALUE: decrypt_detached:state <- [DW_OP_LLVM_fragment 256 128] $xmm4
	#DEBUG_VALUE: decrypt_detached:state <- [DW_OP_LLVM_fragment 384 128] $xmm7
	#DEBUG_VALUE: decrypt_detached:state <- [DW_OP_LLVM_fragment 512 128] $xmm9
	#DEBUG_VALUE: decrypt_detached:state <- [DW_OP_LLVM_fragment 640 128] $xmm8
	#DEBUG_VALUE: decrypt_detached:i <- $rcx
	.loc	6 211 14 is_stmt 1              # crypto_aead/aegis256/aegis256_common.h:211:14
	movq	%rbx, %rbp
	andq	$15, %rbp
	je	.LBB1_23
.Ltmp290:
# %bb.17:
	#DEBUG_VALUE: decrypt_detached:m <- $r14
	#DEBUG_VALUE: decrypt_detached:c <- $r13
	#DEBUG_VALUE: decrypt_detached:clen <- $rbx
	#DEBUG_VALUE: decrypt_detached:mac <- $r12
	#DEBUG_VALUE: decrypt_detached:maclen <- [DW_OP_plus_uconst 120] [$rsp+0]
	#DEBUG_VALUE: decrypt_detached:ad <- [DW_OP_LLVM_entry_value 1] $r9
	#DEBUG_VALUE: decrypt_detached:adlen <- [DW_OP_plus_uconst 256] [$rsp+0]
	#DEBUG_VALUE: decrypt_detached:npub <- [DW_OP_plus_uconst 264] [$rsp+0]
	#DEBUG_VALUE: decrypt_detached:k <- [DW_OP_plus_uconst 272] [$rsp+0]
	#DEBUG_VALUE: decrypt_detached:dst <- [DW_OP_plus_uconst 160, DW_OP_deref] $rsp
	#DEBUG_VALUE: decrypt_detached:state <- [DW_OP_LLVM_fragment 0 128] $xmm6
	#DEBUG_VALUE: decrypt_detached:state <- [DW_OP_LLVM_fragment 640 128] $xmm8
	#DEBUG_VALUE: decrypt_detached:state <- [DW_OP_LLVM_fragment 512 128] $xmm9
	#DEBUG_VALUE: decrypt_detached:state <- [DW_OP_LLVM_fragment 384 128] $xmm7
	#DEBUG_VALUE: decrypt_detached:state <- [DW_OP_LLVM_fragment 256 128] $xmm4
	#DEBUG_VALUE: decrypt_detached:state <- [DW_OP_LLVM_fragment 128 128] $xmm5
	#DEBUG_VALUE: decrypt_detached:i <- $rcx
	.loc	6 213 32                        # crypto_aead/aegis256/aegis256_common.h:213:32
	leaq	(%r14,%rcx), %rax
	movq	%rax, 112(%rsp)                 # 8-byte Spill
	.loc	6 213 39 is_stmt 0              # crypto_aead/aegis256/aegis256_common.h:213:39
	addq	%rcx, %r13
.Ltmp291:
	#DEBUG_VALUE: decrypt_detached:c <- [DW_OP_LLVM_entry_value 1] $rsi
	#DEBUG_VALUE: aegis256_declast:src <- $r13
	#DEBUG_VALUE: aegis256_declast:pad <- [DW_OP_plus_uconst 128, DW_OP_deref] $rsp
	#DEBUG_VALUE: aegis256_declast:dst <- [DW_OP_plus_uconst 112, DW_OP_deref] $rsp
	#DEBUG_VALUE: aegis256_declast:len <- $rbp
	#DEBUG_VALUE: aegis256_declast:state <- undef
	#DEBUG_VALUE: memset:__dest <- [DW_OP_plus_uconst 128, DW_OP_stack_value] $rsp
	#DEBUG_VALUE: memset:__ch <- 0
	#DEBUG_VALUE: memset:__len <- 16
	.loc	8 59 10 is_stmt 1               # /usr/include/x86_64-linux-gnu/bits/string_fortified.h:59:10 @[ crypto_aead/aegis256/aegis256_common.h:122:5 @[ crypto_aead/aegis256/aegis256_common.h:213:13 ] ]
	vpxor	%xmm0, %xmm0, %xmm0
	vmovdqa	%xmm0, 128(%rsp)
.Ltmp292:
	#DEBUG_VALUE: memcpy:__dest <- [DW_OP_plus_uconst 128, DW_OP_stack_value] $rsp
	#DEBUG_VALUE: memcpy:__src <- $r13
	#DEBUG_VALUE: memcpy:__len <- $rbp
	.loc	8 0 10 is_stmt 0                # /usr/include/x86_64-linux-gnu/bits/string_fortified.h:0:10
	leaq	128(%rsp), %rdi
	movq	%r12, 88(%rsp)                  # 8-byte Spill
.Ltmp293:
	#DEBUG_VALUE: decrypt_detached:mac <- [DW_OP_plus_uconst 88] [$rsp+0]
	movl	$16, %r12d
.Ltmp294:
	.loc	8 29 10 is_stmt 1               # /usr/include/x86_64-linux-gnu/bits/string_fortified.h:29:10 @[ crypto_aead/aegis256/aegis256_common.h:123:5 @[ crypto_aead/aegis256/aegis256_common.h:213:13 ] ]
	movl	$16, %ecx
.Ltmp295:
	movq	%r13, %rsi
	movq	%rbp, %rdx
	vmovdqa	%xmm7, 64(%rsp)                 # 16-byte Spill
.Ltmp296:
	#DEBUG_VALUE: decrypt_detached:state <- [DW_OP_plus_uconst 64, DW_OP_deref, DW_OP_LLVM_fragment 384 128] $rsp
	.loc	8 0 10 is_stmt 0                # /usr/include/x86_64-linux-gnu/bits/string_fortified.h:0:10
	vmovdqa	%xmm9, 48(%rsp)                 # 16-byte Spill
.Ltmp297:
	#DEBUG_VALUE: decrypt_detached:state <- [DW_OP_plus_uconst 48, DW_OP_deref, DW_OP_LLVM_fragment 512 128] $rsp
	vmovdqa	%xmm4, 32(%rsp)                 # 16-byte Spill
.Ltmp298:
	#DEBUG_VALUE: decrypt_detached:state <- [DW_OP_plus_uconst 32, DW_OP_deref, DW_OP_LLVM_fragment 256 128] $rsp
	vmovdqa	%xmm5, 16(%rsp)                 # 16-byte Spill
.Ltmp299:
	#DEBUG_VALUE: decrypt_detached:state <- [DW_OP_plus_uconst 16, DW_OP_deref, DW_OP_LLVM_fragment 128 128] $rsp
	vmovdqa	%xmm6, 96(%rsp)                 # 16-byte Spill
.Ltmp300:
	#DEBUG_VALUE: decrypt_detached:state <- [DW_OP_plus_uconst 96, DW_OP_deref, DW_OP_LLVM_fragment 0 128] $rsp
	vmovdqa	%xmm8, (%rsp)                   # 16-byte Spill
.Ltmp301:
	#DEBUG_VALUE: decrypt_detached:state <- [DW_OP_deref, DW_OP_LLVM_fragment 640 128] $rsp
	.loc	8 29 10                         # /usr/include/x86_64-linux-gnu/bits/string_fortified.h:29:10 @[ crypto_aead/aegis256/aegis256_common.h:123:5 @[ crypto_aead/aegis256/aegis256_common.h:213:13 ] ]
	callq	__memcpy_chk@PLT
.Ltmp302:
	#DEBUG_VALUE: aegis256_declast:msg <- undef
	.loc	8 0 10                          # /usr/include/x86_64-linux-gnu/bits/string_fortified.h:0:10
	vmovaps	32(%rsp), %xmm0                 # 16-byte Reload
.Ltmp303:
	.loc	6 129 33 is_stmt 1              # crypto_aead/aegis256/aegis256_common.h:129:33 @[ crypto_aead/aegis256/aegis256_common.h:213:13 ]
	vandps	64(%rsp), %xmm0, %xmm0          # 16-byte Folded Reload
	.loc	6 129 11 is_stmt 0              # crypto_aead/aegis256/aegis256_common.h:129:11 @[ crypto_aead/aegis256/aegis256_common.h:213:13 ]
	vxorps	128(%rsp), %xmm0, %xmm0
	vmovaps	(%rsp), %xmm1                   # 16-byte Reload
	vxorps	48(%rsp), %xmm1, %xmm1          # 16-byte Folded Reload
	vxorps	16(%rsp), %xmm1, %xmm1          # 16-byte Folded Reload
	vxorps	%xmm1, %xmm0, %xmm0
.Ltmp304:
	#DEBUG_VALUE: aegis256_declast:msg <- $xmm0
	.loc	6 130 5 is_stmt 1               # crypto_aead/aegis256/aegis256_common.h:130:5 @[ crypto_aead/aegis256/aegis256_common.h:213:13 ]
	vmovaps	%xmm0, 128(%rsp)
	.loc	6 132 16                        # crypto_aead/aegis256/aegis256_common.h:132:16 @[ crypto_aead/aegis256/aegis256_common.h:213:13 ]
	leaq	(%rsp,%rbp), %rdi
	addq	$128, %rdi
	.loc	6 132 37 is_stmt 0              # crypto_aead/aegis256/aegis256_common.h:132:37 @[ crypto_aead/aegis256/aegis256_common.h:213:13 ]
	subq	%rbp, %r12
.Ltmp305:
	#DEBUG_VALUE: memset:__len <- $r12
	#DEBUG_VALUE: memset:__ch <- 0
	#DEBUG_VALUE: memset:__dest <- $rdi
	.loc	8 59 10 is_stmt 1               # /usr/include/x86_64-linux-gnu/bits/string_fortified.h:59:10 @[ crypto_aead/aegis256/aegis256_common.h:132:5 @[ crypto_aead/aegis256/aegis256_common.h:213:13 ] ]
	xorl	%esi, %esi
	movq	%r12, %rdx
	movq	88(%rsp), %r12                  # 8-byte Reload
.Ltmp306:
	callq	memset@PLT
.Ltmp307:
	#DEBUG_VALUE: memcpy:__dest <- [DW_OP_plus_uconst 112, DW_OP_deref] $rsp
	#DEBUG_VALUE: memcpy:__src <- [DW_OP_plus_uconst 128, DW_OP_stack_value] $rsp
	#DEBUG_VALUE: memcpy:__len <- $rbp
	.loc	8 0 10 is_stmt 0                # /usr/include/x86_64-linux-gnu/bits/string_fortified.h:0:10
	movq	112(%rsp), %rdi                 # 8-byte Reload
.Ltmp308:
	.loc	8 29 10 is_stmt 1               # /usr/include/x86_64-linux-gnu/bits/string_fortified.h:29:10 @[ crypto_aead/aegis256/aegis256_common.h:133:5 @[ crypto_aead/aegis256/aegis256_common.h:213:13 ] ]
	leaq	128(%rsp), %rsi
	movq	%rbp, %rdx
	callq	memcpy@PLT
.Ltmp309:
	.loc	8 0 10 is_stmt 0                # /usr/include/x86_64-linux-gnu/bits/string_fortified.h:0:10
	jmp	.LBB1_22
.Ltmp310:
.LBB1_18:                               # %.lr.ph176.preheader
	#DEBUG_VALUE: decrypt_detached:m <- $r14
	#DEBUG_VALUE: decrypt_detached:c <- $r13
	#DEBUG_VALUE: decrypt_detached:clen <- $rbx
	#DEBUG_VALUE: decrypt_detached:mac <- $r12
	#DEBUG_VALUE: decrypt_detached:maclen <- [DW_OP_plus_uconst 120] [$rsp+0]
	#DEBUG_VALUE: decrypt_detached:ad <- [DW_OP_LLVM_entry_value 1] $r9
	#DEBUG_VALUE: decrypt_detached:adlen <- [DW_OP_plus_uconst 256] [$rsp+0]
	#DEBUG_VALUE: decrypt_detached:npub <- [DW_OP_plus_uconst 264] [$rsp+0]
	#DEBUG_VALUE: decrypt_detached:k <- [DW_OP_plus_uconst 272] [$rsp+0]
	#DEBUG_VALUE: decrypt_detached:dst <- [DW_OP_plus_uconst 160, DW_OP_deref] $rsp
	#DEBUG_VALUE: decrypt_detached:state <- [DW_OP_LLVM_fragment 0 128] $xmm6
	#DEBUG_VALUE: decrypt_detached:state <- [DW_OP_LLVM_fragment 640 128] $xmm8
	#DEBUG_VALUE: decrypt_detached:state <- [DW_OP_LLVM_fragment 512 128] $xmm9
	#DEBUG_VALUE: decrypt_detached:state <- [DW_OP_LLVM_fragment 384 128] $xmm7
	#DEBUG_VALUE: decrypt_detached:state <- [DW_OP_LLVM_fragment 256 128] $xmm4
	#DEBUG_VALUE: decrypt_detached:state <- [DW_OP_LLVM_fragment 128 128] $xmm5
	#DEBUG_VALUE: decrypt_detached:i <- 0
	xorl	%eax, %eax
	vmovdqa	%xmm8, %xmm1
.Ltmp311:
	.p2align	4
.LBB1_19:                               # %.lr.ph176
                                        # =>This Inner Loop Header: Depth=1
	#DEBUG_VALUE: decrypt_detached:m <- $r14
	#DEBUG_VALUE: decrypt_detached:c <- $r13
	#DEBUG_VALUE: decrypt_detached:clen <- $rbx
	#DEBUG_VALUE: decrypt_detached:mac <- $r12
	#DEBUG_VALUE: decrypt_detached:maclen <- [DW_OP_plus_uconst 120] [$rsp+0]
	#DEBUG_VALUE: decrypt_detached:ad <- [DW_OP_LLVM_entry_value 1] $r9
	#DEBUG_VALUE: decrypt_detached:adlen <- [DW_OP_plus_uconst 256] [$rsp+0]
	#DEBUG_VALUE: decrypt_detached:npub <- [DW_OP_plus_uconst 264] [$rsp+0]
	#DEBUG_VALUE: decrypt_detached:k <- [DW_OP_plus_uconst 272] [$rsp+0]
	#DEBUG_VALUE: decrypt_detached:state <- [DW_OP_LLVM_fragment 0 128] $xmm6
	#DEBUG_VALUE: decrypt_detached:state <- [DW_OP_LLVM_fragment 640 128] $xmm8
	#DEBUG_VALUE: decrypt_detached:state <- [DW_OP_LLVM_fragment 512 128] $xmm9
	#DEBUG_VALUE: decrypt_detached:state <- [DW_OP_LLVM_fragment 384 128] $xmm7
	#DEBUG_VALUE: decrypt_detached:state <- [DW_OP_LLVM_fragment 256 128] $xmm4
	#DEBUG_VALUE: decrypt_detached:state <- [DW_OP_LLVM_fragment 128 128] $xmm5
	#DEBUG_VALUE: decrypt_detached:i <- $rax
	#DEBUG_VALUE: decrypt_detached:state <- [DW_OP_LLVM_fragment 0 128] $xmm6
	#DEBUG_VALUE: decrypt_detached:state <- [DW_OP_LLVM_fragment 128 128] $xmm5
	#DEBUG_VALUE: decrypt_detached:state <- [DW_OP_LLVM_fragment 256 128] $xmm4
	#DEBUG_VALUE: decrypt_detached:state <- [DW_OP_LLVM_fragment 384 128] $xmm7
	#DEBUG_VALUE: decrypt_detached:state <- [DW_OP_LLVM_fragment 512 128] $xmm9
	#DEBUG_VALUE: decrypt_detached:state <- [DW_OP_LLVM_fragment 640 128] $xmm1
	#DEBUG_VALUE: aegis256_dec:dst <- [DW_OP_plus_uconst 160, DW_OP_stack_value] $rsp
	#DEBUG_VALUE: aegis256_dec:src <- [DW_OP_LLVM_arg 0, DW_OP_consts 16, DW_OP_div, DW_OP_consts 16, DW_OP_mul, DW_OP_LLVM_arg 1, DW_OP_plus, DW_OP_stack_value] $rax, $r13
	#DEBUG_VALUE: aegis256_dec:state <- undef
	#DEBUG_VALUE: aegis256_dec:msg <- undef
	.loc	6 110 33 is_stmt 1              # crypto_aead/aegis256/aegis256_common.h:110:33 @[ crypto_aead/aegis256/aegis256_common.h:208:13 ]
	vpand	%xmm7, %xmm4, %xmm0
	.loc	6 110 11 is_stmt 0              # crypto_aead/aegis256/aegis256_common.h:110:11 @[ crypto_aead/aegis256/aegis256_common.h:208:13 ]
	vpxor	(%r13,%rax), %xmm0, %xmm0
	vpxor	%xmm1, %xmm9, %xmm2
	vpxor	%xmm5, %xmm2, %xmm2
	vpxor	%xmm2, %xmm0, %xmm0
.Ltmp312:
	#DEBUG_VALUE: aegis256_dec:msg <- $xmm0
	#DEBUG_VALUE: decrypt_detached:dst <- $xmm0
	#DEBUG_VALUE: aegis256_update:d <- $xmm0
	#DEBUG_VALUE: aegis256_update:state <- undef
	#DEBUG_VALUE: aegis256_update:tmp <- $xmm1
	.loc	5 46 16 is_stmt 1               # crypto_aead/aegis256/aegis256_aesni.c:46:16 @[ crypto_aead/aegis256/aegis256_common.h:113:5 @[ crypto_aead/aegis256/aegis256_common.h:208:13 ] ]
	vaesenc	%xmm1, %xmm9, %xmm8
.Ltmp313:
	#DEBUG_VALUE: decrypt_detached:state <- [DW_OP_LLVM_fragment 640 128] $xmm8
	.loc	5 47 16                         # crypto_aead/aegis256/aegis256_aesni.c:47:16 @[ crypto_aead/aegis256/aegis256_common.h:113:5 @[ crypto_aead/aegis256/aegis256_common.h:208:13 ] ]
	vaesenc	%xmm9, %xmm7, %xmm9
.Ltmp314:
	#DEBUG_VALUE: decrypt_detached:state <- [DW_OP_LLVM_fragment 512 128] $xmm9
	.loc	5 48 16                         # crypto_aead/aegis256/aegis256_aesni.c:48:16 @[ crypto_aead/aegis256/aegis256_common.h:113:5 @[ crypto_aead/aegis256/aegis256_common.h:208:13 ] ]
	vaesenc	%xmm7, %xmm4, %xmm7
.Ltmp315:
	#DEBUG_VALUE: decrypt_detached:state <- [DW_OP_LLVM_fragment 384 128] $xmm7
	.loc	5 49 16                         # crypto_aead/aegis256/aegis256_aesni.c:49:16 @[ crypto_aead/aegis256/aegis256_common.h:113:5 @[ crypto_aead/aegis256/aegis256_common.h:208:13 ] ]
	vaesenc	%xmm4, %xmm5, %xmm4
.Ltmp316:
	#DEBUG_VALUE: decrypt_detached:state <- [DW_OP_LLVM_fragment 256 128] $xmm4
	.loc	5 50 16                         # crypto_aead/aegis256/aegis256_aesni.c:50:16 @[ crypto_aead/aegis256/aegis256_common.h:113:5 @[ crypto_aead/aegis256/aegis256_common.h:208:13 ] ]
	vaesenc	%xmm5, %xmm6, %xmm5
.Ltmp317:
	#DEBUG_VALUE: decrypt_detached:state <- [DW_OP_LLVM_fragment 128 128] $xmm5
	.loc	5 51 31                         # crypto_aead/aegis256/aegis256_aesni.c:51:31 @[ crypto_aead/aegis256/aegis256_common.h:113:5 @[ crypto_aead/aegis256/aegis256_common.h:208:13 ] ]
	vaesenc	%xmm6, %xmm1, %xmm1
.Ltmp318:
	.loc	5 51 16 is_stmt 0               # crypto_aead/aegis256/aegis256_aesni.c:51:16 @[ crypto_aead/aegis256/aegis256_common.h:113:5 @[ crypto_aead/aegis256/aegis256_common.h:208:13 ] ]
	vpxor	%xmm0, %xmm1, %xmm6
.Ltmp319:
	#DEBUG_VALUE: decrypt_detached:state <- [DW_OP_LLVM_fragment 0 128] $xmm6
	#DEBUG_VALUE: decrypt_detached:state <- [DW_OP_LLVM_fragment 128 128] $xmm5
	#DEBUG_VALUE: decrypt_detached:state <- [DW_OP_LLVM_fragment 256 128] $xmm4
	#DEBUG_VALUE: decrypt_detached:state <- [DW_OP_LLVM_fragment 384 128] $xmm7
	#DEBUG_VALUE: decrypt_detached:state <- [DW_OP_LLVM_fragment 512 128] $xmm9
	#DEBUG_VALUE: decrypt_detached:state <- [DW_OP_LLVM_fragment 640 128] $xmm8
	#DEBUG_VALUE: decrypt_detached:i <- [DW_OP_plus_uconst 16, DW_OP_stack_value] $rax
	.loc	6 207 28 is_stmt 1              # crypto_aead/aegis256/aegis256_common.h:207:28
	leaq	16(%rax), %rcx
	addq	$32, %rax
.Ltmp320:
	.loc	6 0 28 is_stmt 0                # crypto_aead/aegis256/aegis256_common.h:0:28
	vmovdqa	%xmm8, %xmm1
	.loc	6 207 28                        # crypto_aead/aegis256/aegis256_common.h:207:28
	cmpq	%rbx, %rax
	movq	%rcx, %rax
.Ltmp321:
	.loc	6 207 9                         # crypto_aead/aegis256/aegis256_common.h:207:9
	jbe	.LBB1_19
.Ltmp322:
.LBB1_20:                               # %.loopexit.thread
	#DEBUG_VALUE: decrypt_detached:m <- $r14
	#DEBUG_VALUE: decrypt_detached:c <- $r13
	#DEBUG_VALUE: decrypt_detached:clen <- $rbx
	#DEBUG_VALUE: decrypt_detached:mac <- $r12
	#DEBUG_VALUE: decrypt_detached:maclen <- [DW_OP_plus_uconst 120] [$rsp+0]
	#DEBUG_VALUE: decrypt_detached:ad <- [DW_OP_LLVM_entry_value 1] $r9
	#DEBUG_VALUE: decrypt_detached:adlen <- [DW_OP_plus_uconst 256] [$rsp+0]
	#DEBUG_VALUE: decrypt_detached:npub <- [DW_OP_plus_uconst 264] [$rsp+0]
	#DEBUG_VALUE: decrypt_detached:k <- [DW_OP_plus_uconst 272] [$rsp+0]
	#DEBUG_VALUE: decrypt_detached:state <- [DW_OP_LLVM_fragment 0 128] $xmm6
	#DEBUG_VALUE: decrypt_detached:state <- [DW_OP_LLVM_fragment 640 128] $xmm8
	#DEBUG_VALUE: decrypt_detached:state <- [DW_OP_LLVM_fragment 512 128] $xmm9
	#DEBUG_VALUE: decrypt_detached:state <- [DW_OP_LLVM_fragment 384 128] $xmm7
	#DEBUG_VALUE: decrypt_detached:state <- [DW_OP_LLVM_fragment 256 128] $xmm4
	#DEBUG_VALUE: decrypt_detached:state <- [DW_OP_LLVM_fragment 128 128] $xmm5
	.loc	6 111 5 is_stmt 1               # crypto_aead/aegis256/aegis256_common.h:111:5 @[ crypto_aead/aegis256/aegis256_common.h:208:13 ]
	vmovdqa	%xmm0, 160(%rsp)
.Ltmp323:
	#DEBUG_VALUE: decrypt_detached:state <- [DW_OP_LLVM_fragment 0 128] $xmm6
	#DEBUG_VALUE: decrypt_detached:state <- [DW_OP_LLVM_fragment 128 128] $xmm5
	#DEBUG_VALUE: decrypt_detached:state <- [DW_OP_LLVM_fragment 256 128] $xmm4
	#DEBUG_VALUE: decrypt_detached:state <- [DW_OP_LLVM_fragment 384 128] $xmm7
	#DEBUG_VALUE: decrypt_detached:state <- [DW_OP_LLVM_fragment 512 128] $xmm9
	#DEBUG_VALUE: decrypt_detached:state <- [DW_OP_LLVM_fragment 640 128] $xmm8
	#DEBUG_VALUE: decrypt_detached:i <- $rcx
	.loc	6 211 14                        # crypto_aead/aegis256/aegis256_common.h:211:14
	movq	%rbx, %rbp
	andq	$15, %rbp
	je	.LBB1_23
.Ltmp324:
# %bb.21:                               # %.thread
	#DEBUG_VALUE: decrypt_detached:m <- $r14
	#DEBUG_VALUE: decrypt_detached:c <- $r13
	#DEBUG_VALUE: decrypt_detached:clen <- $rbx
	#DEBUG_VALUE: decrypt_detached:mac <- $r12
	#DEBUG_VALUE: decrypt_detached:maclen <- [DW_OP_plus_uconst 120] [$rsp+0]
	#DEBUG_VALUE: decrypt_detached:ad <- [DW_OP_LLVM_entry_value 1] $r9
	#DEBUG_VALUE: decrypt_detached:adlen <- [DW_OP_plus_uconst 256] [$rsp+0]
	#DEBUG_VALUE: decrypt_detached:npub <- [DW_OP_plus_uconst 264] [$rsp+0]
	#DEBUG_VALUE: decrypt_detached:k <- [DW_OP_plus_uconst 272] [$rsp+0]
	#DEBUG_VALUE: decrypt_detached:state <- [DW_OP_LLVM_fragment 0 128] $xmm6
	#DEBUG_VALUE: decrypt_detached:state <- [DW_OP_LLVM_fragment 640 128] $xmm8
	#DEBUG_VALUE: decrypt_detached:state <- [DW_OP_LLVM_fragment 512 128] $xmm9
	#DEBUG_VALUE: decrypt_detached:state <- [DW_OP_LLVM_fragment 384 128] $xmm7
	#DEBUG_VALUE: decrypt_detached:state <- [DW_OP_LLVM_fragment 256 128] $xmm4
	#DEBUG_VALUE: decrypt_detached:state <- [DW_OP_LLVM_fragment 128 128] $xmm5
	#DEBUG_VALUE: decrypt_detached:i <- $rcx
	.loc	6 215 37                        # crypto_aead/aegis256/aegis256_common.h:215:37
	addq	%rcx, %r13
.Ltmp325:
	#DEBUG_VALUE: decrypt_detached:c <- [DW_OP_LLVM_entry_value 1] $rsi
	#DEBUG_VALUE: aegis256_declast:src <- $r13
	#DEBUG_VALUE: aegis256_declast:pad <- [DW_OP_plus_uconst 128, DW_OP_deref] $rsp
	#DEBUG_VALUE: aegis256_declast:dst <- [DW_OP_plus_uconst 160, DW_OP_stack_value] $rsp
	#DEBUG_VALUE: aegis256_declast:len <- $rbp
	#DEBUG_VALUE: aegis256_declast:state <- undef
	#DEBUG_VALUE: memset:__dest <- [DW_OP_plus_uconst 128, DW_OP_stack_value] $rsp
	#DEBUG_VALUE: memset:__ch <- 0
	#DEBUG_VALUE: memset:__len <- 16
	.loc	8 59 10                         # /usr/include/x86_64-linux-gnu/bits/string_fortified.h:59:10 @[ crypto_aead/aegis256/aegis256_common.h:122:5 @[ crypto_aead/aegis256/aegis256_common.h:215:13 ] ]
	vpxor	%xmm0, %xmm0, %xmm0
	vmovdqa	%xmm0, 128(%rsp)
.Ltmp326:
	#DEBUG_VALUE: memcpy:__dest <- [DW_OP_plus_uconst 128, DW_OP_stack_value] $rsp
	#DEBUG_VALUE: memcpy:__src <- $r13
	#DEBUG_VALUE: memcpy:__len <- $rbp
	.loc	8 0 10 is_stmt 0                # /usr/include/x86_64-linux-gnu/bits/string_fortified.h:0:10
	leaq	128(%rsp), %rdi
	movq	%r12, 88(%rsp)                  # 8-byte Spill
.Ltmp327:
	#DEBUG_VALUE: decrypt_detached:mac <- [DW_OP_plus_uconst 88] [$rsp+0]
	movl	$16, %r12d
.Ltmp328:
	.loc	8 29 10 is_stmt 1               # /usr/include/x86_64-linux-gnu/bits/string_fortified.h:29:10 @[ crypto_aead/aegis256/aegis256_common.h:123:5 @[ crypto_aead/aegis256/aegis256_common.h:215:13 ] ]
	movl	$16, %ecx
.Ltmp329:
	movq	%r13, %rsi
	movq	%rbp, %rdx
	vmovdqa	%xmm7, 64(%rsp)                 # 16-byte Spill
.Ltmp330:
	#DEBUG_VALUE: decrypt_detached:state <- [DW_OP_plus_uconst 64, DW_OP_deref, DW_OP_LLVM_fragment 384 128] $rsp
	.loc	8 0 10 is_stmt 0                # /usr/include/x86_64-linux-gnu/bits/string_fortified.h:0:10
	vmovdqa	%xmm9, 48(%rsp)                 # 16-byte Spill
.Ltmp331:
	#DEBUG_VALUE: decrypt_detached:state <- [DW_OP_plus_uconst 48, DW_OP_deref, DW_OP_LLVM_fragment 512 128] $rsp
	vmovdqa	%xmm4, 32(%rsp)                 # 16-byte Spill
.Ltmp332:
	#DEBUG_VALUE: decrypt_detached:state <- [DW_OP_plus_uconst 32, DW_OP_deref, DW_OP_LLVM_fragment 256 128] $rsp
	vmovdqa	%xmm5, 16(%rsp)                 # 16-byte Spill
.Ltmp333:
	#DEBUG_VALUE: decrypt_detached:state <- [DW_OP_plus_uconst 16, DW_OP_deref, DW_OP_LLVM_fragment 128 128] $rsp
	vmovdqa	%xmm6, 96(%rsp)                 # 16-byte Spill
.Ltmp334:
	#DEBUG_VALUE: decrypt_detached:state <- [DW_OP_plus_uconst 96, DW_OP_deref, DW_OP_LLVM_fragment 0 128] $rsp
	vmovdqa	%xmm8, (%rsp)                   # 16-byte Spill
.Ltmp335:
	#DEBUG_VALUE: decrypt_detached:state <- [DW_OP_deref, DW_OP_LLVM_fragment 640 128] $rsp
	.loc	8 29 10                         # /usr/include/x86_64-linux-gnu/bits/string_fortified.h:29:10 @[ crypto_aead/aegis256/aegis256_common.h:123:5 @[ crypto_aead/aegis256/aegis256_common.h:215:13 ] ]
	callq	__memcpy_chk@PLT
.Ltmp336:
	#DEBUG_VALUE: aegis256_declast:msg <- undef
	.loc	8 0 10                          # /usr/include/x86_64-linux-gnu/bits/string_fortified.h:0:10
	vmovaps	32(%rsp), %xmm0                 # 16-byte Reload
.Ltmp337:
	.loc	6 129 33 is_stmt 1              # crypto_aead/aegis256/aegis256_common.h:129:33 @[ crypto_aead/aegis256/aegis256_common.h:215:13 ]
	vandps	64(%rsp), %xmm0, %xmm0          # 16-byte Folded Reload
	.loc	6 129 11 is_stmt 0              # crypto_aead/aegis256/aegis256_common.h:129:11 @[ crypto_aead/aegis256/aegis256_common.h:215:13 ]
	vxorps	128(%rsp), %xmm0, %xmm0
	vmovaps	(%rsp), %xmm1                   # 16-byte Reload
	vxorps	48(%rsp), %xmm1, %xmm1          # 16-byte Folded Reload
	vxorps	16(%rsp), %xmm1, %xmm1          # 16-byte Folded Reload
	vxorps	%xmm1, %xmm0, %xmm0
.Ltmp338:
	#DEBUG_VALUE: aegis256_declast:msg <- $xmm0
	.loc	6 130 5 is_stmt 1               # crypto_aead/aegis256/aegis256_common.h:130:5 @[ crypto_aead/aegis256/aegis256_common.h:215:13 ]
	vmovaps	%xmm0, 128(%rsp)
	.loc	6 132 16                        # crypto_aead/aegis256/aegis256_common.h:132:16 @[ crypto_aead/aegis256/aegis256_common.h:215:13 ]
	leaq	(%rsp,%rbp), %rdi
	addq	$128, %rdi
	.loc	6 132 37 is_stmt 0              # crypto_aead/aegis256/aegis256_common.h:132:37 @[ crypto_aead/aegis256/aegis256_common.h:215:13 ]
	subq	%rbp, %r12
.Ltmp339:
	#DEBUG_VALUE: memset:__len <- $r12
	#DEBUG_VALUE: memset:__ch <- 0
	#DEBUG_VALUE: memset:__dest <- $rdi
	.loc	8 59 10 is_stmt 1               # /usr/include/x86_64-linux-gnu/bits/string_fortified.h:59:10 @[ crypto_aead/aegis256/aegis256_common.h:132:5 @[ crypto_aead/aegis256/aegis256_common.h:215:13 ] ]
	xorl	%esi, %esi
	movq	%r12, %rdx
	movq	88(%rsp), %r12                  # 8-byte Reload
.Ltmp340:
	callq	memset@PLT
.Ltmp341:
	#DEBUG_VALUE: memcpy:__dest <- [DW_OP_plus_uconst 160, DW_OP_stack_value] $rsp
	#DEBUG_VALUE: memcpy:__src <- [DW_OP_plus_uconst 128, DW_OP_stack_value] $rsp
	#DEBUG_VALUE: memcpy:__len <- $rbp
	.loc	8 0 10 is_stmt 0                # /usr/include/x86_64-linux-gnu/bits/string_fortified.h:0:10
	leaq	160(%rsp), %rdi
.Ltmp342:
	.loc	8 29 10 is_stmt 1               # /usr/include/x86_64-linux-gnu/bits/string_fortified.h:29:10 @[ crypto_aead/aegis256/aegis256_common.h:133:5 @[ crypto_aead/aegis256/aegis256_common.h:215:13 ] ]
	movl	$16, %ecx
	leaq	128(%rsp), %rsi
	movq	%rbp, %rdx
	callq	__memcpy_chk@PLT
.Ltmp343:
.LBB1_22:
	#DEBUG_VALUE: decrypt_detached:m <- $r14
	#DEBUG_VALUE: decrypt_detached:c <- [DW_OP_LLVM_entry_value 1] $rsi
	#DEBUG_VALUE: decrypt_detached:clen <- $rbx
	#DEBUG_VALUE: decrypt_detached:mac <- [DW_OP_plus_uconst 88] [$rsp+0]
	#DEBUG_VALUE: decrypt_detached:maclen <- [DW_OP_plus_uconst 120] [$rsp+0]
	#DEBUG_VALUE: decrypt_detached:ad <- [DW_OP_LLVM_entry_value 1] $r9
	#DEBUG_VALUE: decrypt_detached:adlen <- [DW_OP_plus_uconst 256] [$rsp+0]
	#DEBUG_VALUE: decrypt_detached:npub <- [DW_OP_plus_uconst 264] [$rsp+0]
	#DEBUG_VALUE: decrypt_detached:k <- [DW_OP_plus_uconst 272] [$rsp+0]
	#DEBUG_VALUE: decrypt_detached:state <- [DW_OP_plus_uconst 96, DW_OP_deref, DW_OP_LLVM_fragment 0 128] $rsp
	#DEBUG_VALUE: decrypt_detached:state <- [DW_OP_deref, DW_OP_LLVM_fragment 640 128] $rsp
	#DEBUG_VALUE: decrypt_detached:state <- [DW_OP_plus_uconst 48, DW_OP_deref, DW_OP_LLVM_fragment 512 128] $rsp
	#DEBUG_VALUE: decrypt_detached:state <- [DW_OP_plus_uconst 64, DW_OP_deref, DW_OP_LLVM_fragment 384 128] $rsp
	#DEBUG_VALUE: decrypt_detached:state <- [DW_OP_plus_uconst 32, DW_OP_deref, DW_OP_LLVM_fragment 256 128] $rsp
	#DEBUG_VALUE: decrypt_detached:state <- [DW_OP_plus_uconst 16, DW_OP_deref, DW_OP_LLVM_fragment 128 128] $rsp
	.loc	8 0 10 is_stmt 0                # /usr/include/x86_64-linux-gnu/bits/string_fortified.h:0:10
	vmovdqa	16(%rsp), %xmm5                 # 16-byte Reload
	vmovdqa	32(%rsp), %xmm4                 # 16-byte Reload
	vmovdqa	48(%rsp), %xmm9                 # 16-byte Reload
	vmovdqa	64(%rsp), %xmm7                 # 16-byte Reload
.Ltmp344:
	#DEBUG_VALUE: aegis256_update:state <- undef
	#DEBUG_VALUE: aegis256_update:d <- undef
	#DEBUG_VALUE: decrypt_detached:state <- [DW_OP_LLVM_fragment 640 128] undef
	#DEBUG_VALUE: decrypt_detached:state <- [DW_OP_LLVM_fragment 512 128] undef
	#DEBUG_VALUE: decrypt_detached:state <- [DW_OP_LLVM_fragment 384 128] undef
	#DEBUG_VALUE: decrypt_detached:state <- [DW_OP_LLVM_fragment 256 128] undef
	#DEBUG_VALUE: decrypt_detached:state <- [DW_OP_LLVM_fragment 128 128] undef
	vmovdqa	96(%rsp), %xmm2                 # 16-byte Reload
	vmovdqa	(%rsp), %xmm1                   # 16-byte Reload
.Ltmp345:
	.loc	5 51 31 is_stmt 1               # crypto_aead/aegis256/aegis256_aesni.c:51:31 @[ crypto_aead/aegis256/aegis256_common.h:137:5 @[ crypto_aead/aegis256/aegis256_common.h:0 ] ]
	vaesenc	%xmm2, %xmm1, %xmm0
	.loc	5 46 16                         # crypto_aead/aegis256/aegis256_aesni.c:46:16 @[ crypto_aead/aegis256/aegis256_common.h:137:5 @[ crypto_aead/aegis256/aegis256_common.h:0 ] ]
	vaesenc	%xmm1, %xmm9, %xmm8
.Ltmp346:
	#DEBUG_VALUE: decrypt_detached:state <- [DW_OP_LLVM_fragment 640 128] $xmm8
	.loc	5 47 16                         # crypto_aead/aegis256/aegis256_aesni.c:47:16 @[ crypto_aead/aegis256/aegis256_common.h:137:5 @[ crypto_aead/aegis256/aegis256_common.h:0 ] ]
	vaesenc	%xmm9, %xmm7, %xmm9
.Ltmp347:
	#DEBUG_VALUE: decrypt_detached:state <- [DW_OP_LLVM_fragment 512 128] $xmm9
	.loc	5 48 16                         # crypto_aead/aegis256/aegis256_aesni.c:48:16 @[ crypto_aead/aegis256/aegis256_common.h:137:5 @[ crypto_aead/aegis256/aegis256_common.h:0 ] ]
	vaesenc	%xmm7, %xmm4, %xmm7
.Ltmp348:
	#DEBUG_VALUE: decrypt_detached:state <- [DW_OP_LLVM_fragment 384 128] $xmm7
	.loc	5 49 16                         # crypto_aead/aegis256/aegis256_aesni.c:49:16 @[ crypto_aead/aegis256/aegis256_common.h:137:5 @[ crypto_aead/aegis256/aegis256_common.h:0 ] ]
	vaesenc	%xmm4, %xmm5, %xmm4
.Ltmp349:
	#DEBUG_VALUE: decrypt_detached:state <- [DW_OP_LLVM_fragment 256 128] $xmm4
	.loc	5 50 16                         # crypto_aead/aegis256/aegis256_aesni.c:50:16 @[ crypto_aead/aegis256/aegis256_common.h:137:5 @[ crypto_aead/aegis256/aegis256_common.h:0 ] ]
	vaesenc	%xmm5, %xmm2, %xmm5
.Ltmp350:
	#DEBUG_VALUE: decrypt_detached:state <- [DW_OP_LLVM_fragment 128 128] $xmm5
	.loc	5 51 16                         # crypto_aead/aegis256/aegis256_aesni.c:51:16 @[ crypto_aead/aegis256/aegis256_common.h:137:5 @[ crypto_aead/aegis256/aegis256_common.h:0 ] ]
	vpxor	128(%rsp), %xmm0, %xmm6
.Ltmp351:
	#DEBUG_VALUE: decrypt_detached:state <- [DW_OP_LLVM_fragment 0 128] $xmm6
.LBB1_23:
	#DEBUG_VALUE: decrypt_detached:m <- $r14
	#DEBUG_VALUE: decrypt_detached:c <- [DW_OP_LLVM_entry_value 1] $rsi
	#DEBUG_VALUE: decrypt_detached:clen <- $rbx
	#DEBUG_VALUE: decrypt_detached:mac <- $r12
	#DEBUG_VALUE: decrypt_detached:maclen <- [DW_OP_plus_uconst 120] [$rsp+0]
	#DEBUG_VALUE: decrypt_detached:ad <- [DW_OP_LLVM_entry_value 1] $r9
	#DEBUG_VALUE: decrypt_detached:adlen <- [DW_OP_plus_uconst 256] [$rsp+0]
	#DEBUG_VALUE: decrypt_detached:npub <- [DW_OP_plus_uconst 264] [$rsp+0]
	#DEBUG_VALUE: decrypt_detached:k <- [DW_OP_plus_uconst 272] [$rsp+0]
	#DEBUG_VALUE: decrypt_detached:state <- [DW_OP_LLVM_fragment 0 128] $xmm6
	#DEBUG_VALUE: decrypt_detached:state <- [DW_OP_LLVM_fragment 640 128] $xmm8
	#DEBUG_VALUE: decrypt_detached:state <- [DW_OP_LLVM_fragment 512 128] $xmm9
	#DEBUG_VALUE: decrypt_detached:state <- [DW_OP_LLVM_fragment 384 128] $xmm7
	#DEBUG_VALUE: decrypt_detached:state <- [DW_OP_LLVM_fragment 256 128] $xmm4
	#DEBUG_VALUE: decrypt_detached:state <- [DW_OP_LLVM_fragment 128 128] $xmm5
	#DEBUG_VALUE: decrypt_detached:state <- [DW_OP_LLVM_fragment 0 128] $xmm6
	#DEBUG_VALUE: decrypt_detached:state <- [DW_OP_LLVM_fragment 128 128] $xmm5
	#DEBUG_VALUE: decrypt_detached:state <- [DW_OP_LLVM_fragment 256 128] $xmm4
	#DEBUG_VALUE: decrypt_detached:state <- [DW_OP_LLVM_fragment 384 128] $xmm7
	#DEBUG_VALUE: decrypt_detached:state <- [DW_OP_LLVM_fragment 512 128] $xmm9
	#DEBUG_VALUE: decrypt_detached:state <- [DW_OP_LLVM_fragment 640 128] $xmm8
	#DEBUG_VALUE: aegis256_mac:mac <- [DW_OP_plus_uconst 128, DW_OP_stack_value] $rsp
	#DEBUG_VALUE: aegis256_mac:maclen <- [DW_OP_plus_uconst 120, DW_OP_deref] $rsp
	#DEBUG_VALUE: aegis256_mac:adlen <- $r15
	#DEBUG_VALUE: aegis256_mac:mlen <- $rbx
	#DEBUG_VALUE: aegis256_mac:state <- undef
	.loc	6 43 96                         # crypto_aead/aegis256/aegis256_common.h:43:96 @[ crypto_aead/aegis256/aegis256_common.h:220:5 ]
	vmovq	%rbx, %xmm0
	vmovq	%r15, %xmm1
	vpunpcklqdq	%xmm0, %xmm1, %xmm0     # xmm0 = xmm1[0],xmm0[0]
	vpsllq	$3, %xmm0, %xmm0
.Ltmp352:
	#DEBUG_VALUE: aegis256_mac:tmp <- undef
	#DEBUG_VALUE: aegis256_mac:tmp <- undef
	#DEBUG_VALUE: aegis256_update:d <- undef
	#DEBUG_VALUE: aegis256_mac:i <- 0
	#DEBUG_VALUE: aegis256_update:state <- undef
	#DEBUG_VALUE: aegis256_update:tmp <- $xmm8
	.loc	5 46 16                         # crypto_aead/aegis256/aegis256_aesni.c:46:16 @[ crypto_aead/aegis256/aegis256_common.h:47:9 @[ crypto_aead/aegis256/aegis256_common.h:220:5 ] ]
	vaesenc	%xmm8, %xmm9, %xmm1
	.loc	5 47 16                         # crypto_aead/aegis256/aegis256_aesni.c:47:16 @[ crypto_aead/aegis256/aegis256_common.h:47:9 @[ crypto_aead/aegis256/aegis256_common.h:220:5 ] ]
	vaesenc	%xmm9, %xmm7, %xmm2
	.loc	5 48 16                         # crypto_aead/aegis256/aegis256_aesni.c:48:16 @[ crypto_aead/aegis256/aegis256_common.h:47:9 @[ crypto_aead/aegis256/aegis256_common.h:220:5 ] ]
	vaesenc	%xmm7, %xmm4, %xmm3
	.loc	5 49 16                         # crypto_aead/aegis256/aegis256_aesni.c:49:16 @[ crypto_aead/aegis256/aegis256_common.h:47:9 @[ crypto_aead/aegis256/aegis256_common.h:220:5 ] ]
	vaesenc	%xmm4, %xmm5, %xmm4
.Ltmp353:
	.loc	5 50 16                         # crypto_aead/aegis256/aegis256_aesni.c:50:16 @[ crypto_aead/aegis256/aegis256_common.h:47:9 @[ crypto_aead/aegis256/aegis256_common.h:220:5 ] ]
	vaesenc	%xmm5, %xmm6, %xmm5
.Ltmp354:
	.loc	6 44 11                         # crypto_aead/aegis256/aegis256_common.h:44:11 @[ crypto_aead/aegis256/aegis256_common.h:220:5 ]
	vpxor	%xmm0, %xmm7, %xmm0
.Ltmp355:
	#DEBUG_VALUE: aegis256_update:d <- $xmm0
	#DEBUG_VALUE: aegis256_mac:tmp <- $xmm0
	.loc	5 51 31                         # crypto_aead/aegis256/aegis256_aesni.c:51:31 @[ crypto_aead/aegis256/aegis256_common.h:47:9 @[ crypto_aead/aegis256/aegis256_common.h:220:5 ] ]
	vaesenc	%xmm6, %xmm8, %xmm6
.Ltmp356:
	.loc	5 51 16 is_stmt 0               # crypto_aead/aegis256/aegis256_aesni.c:51:16 @[ crypto_aead/aegis256/aegis256_common.h:47:9 @[ crypto_aead/aegis256/aegis256_common.h:220:5 ] ]
	vpxor	%xmm0, %xmm6, %xmm6
.Ltmp357:
	#DEBUG_VALUE: aegis256_mac:i <- 1
	#DEBUG_VALUE: aegis256_update:tmp <- $xmm1
	.loc	5 46 16 is_stmt 1               # crypto_aead/aegis256/aegis256_aesni.c:46:16 @[ crypto_aead/aegis256/aegis256_common.h:47:9 @[ crypto_aead/aegis256/aegis256_common.h:220:5 ] ]
	vaesenc	%xmm1, %xmm2, %xmm7
.Ltmp358:
	.loc	5 47 16                         # crypto_aead/aegis256/aegis256_aesni.c:47:16 @[ crypto_aead/aegis256/aegis256_common.h:47:9 @[ crypto_aead/aegis256/aegis256_common.h:220:5 ] ]
	vaesenc	%xmm2, %xmm3, %xmm2
	.loc	5 48 16                         # crypto_aead/aegis256/aegis256_aesni.c:48:16 @[ crypto_aead/aegis256/aegis256_common.h:47:9 @[ crypto_aead/aegis256/aegis256_common.h:220:5 ] ]
	vaesenc	%xmm3, %xmm4, %xmm3
	.loc	5 49 16                         # crypto_aead/aegis256/aegis256_aesni.c:49:16 @[ crypto_aead/aegis256/aegis256_common.h:47:9 @[ crypto_aead/aegis256/aegis256_common.h:220:5 ] ]
	vaesenc	%xmm4, %xmm5, %xmm4
	.loc	5 50 16                         # crypto_aead/aegis256/aegis256_aesni.c:50:16 @[ crypto_aead/aegis256/aegis256_common.h:47:9 @[ crypto_aead/aegis256/aegis256_common.h:220:5 ] ]
	vaesenc	%xmm5, %xmm6, %xmm5
	.loc	5 51 31                         # crypto_aead/aegis256/aegis256_aesni.c:51:31 @[ crypto_aead/aegis256/aegis256_common.h:47:9 @[ crypto_aead/aegis256/aegis256_common.h:220:5 ] ]
	vaesenc	%xmm6, %xmm1, %xmm1
.Ltmp359:
	.loc	5 51 16 is_stmt 0               # crypto_aead/aegis256/aegis256_aesni.c:51:16 @[ crypto_aead/aegis256/aegis256_common.h:47:9 @[ crypto_aead/aegis256/aegis256_common.h:220:5 ] ]
	vpxor	%xmm0, %xmm1, %xmm1
.Ltmp360:
	#DEBUG_VALUE: aegis256_mac:i <- 2
	#DEBUG_VALUE: aegis256_update:tmp <- $xmm7
	.loc	5 46 16 is_stmt 1               # crypto_aead/aegis256/aegis256_aesni.c:46:16 @[ crypto_aead/aegis256/aegis256_common.h:47:9 @[ crypto_aead/aegis256/aegis256_common.h:220:5 ] ]
	vaesenc	%xmm7, %xmm2, %xmm6
	.loc	5 47 16                         # crypto_aead/aegis256/aegis256_aesni.c:47:16 @[ crypto_aead/aegis256/aegis256_common.h:47:9 @[ crypto_aead/aegis256/aegis256_common.h:220:5 ] ]
	vaesenc	%xmm2, %xmm3, %xmm2
	.loc	5 48 16                         # crypto_aead/aegis256/aegis256_aesni.c:48:16 @[ crypto_aead/aegis256/aegis256_common.h:47:9 @[ crypto_aead/aegis256/aegis256_common.h:220:5 ] ]
	vaesenc	%xmm3, %xmm4, %xmm3
	.loc	5 49 16                         # crypto_aead/aegis256/aegis256_aesni.c:49:16 @[ crypto_aead/aegis256/aegis256_common.h:47:9 @[ crypto_aead/aegis256/aegis256_common.h:220:5 ] ]
	vaesenc	%xmm4, %xmm5, %xmm4
	.loc	5 50 16                         # crypto_aead/aegis256/aegis256_aesni.c:50:16 @[ crypto_aead/aegis256/aegis256_common.h:47:9 @[ crypto_aead/aegis256/aegis256_common.h:220:5 ] ]
	vaesenc	%xmm5, %xmm1, %xmm5
	.loc	5 51 31                         # crypto_aead/aegis256/aegis256_aesni.c:51:31 @[ crypto_aead/aegis256/aegis256_common.h:47:9 @[ crypto_aead/aegis256/aegis256_common.h:220:5 ] ]
	vaesenc	%xmm1, %xmm7, %xmm1
	.loc	5 51 16 is_stmt 0               # crypto_aead/aegis256/aegis256_aesni.c:51:16 @[ crypto_aead/aegis256/aegis256_common.h:47:9 @[ crypto_aead/aegis256/aegis256_common.h:220:5 ] ]
	vpxor	%xmm0, %xmm1, %xmm1
.Ltmp361:
	#DEBUG_VALUE: aegis256_mac:i <- 3
	#DEBUG_VALUE: aegis256_update:tmp <- $xmm6
	.loc	5 46 16 is_stmt 1               # crypto_aead/aegis256/aegis256_aesni.c:46:16 @[ crypto_aead/aegis256/aegis256_common.h:47:9 @[ crypto_aead/aegis256/aegis256_common.h:220:5 ] ]
	vaesenc	%xmm6, %xmm2, %xmm7
	.loc	5 47 16                         # crypto_aead/aegis256/aegis256_aesni.c:47:16 @[ crypto_aead/aegis256/aegis256_common.h:47:9 @[ crypto_aead/aegis256/aegis256_common.h:220:5 ] ]
	vaesenc	%xmm2, %xmm3, %xmm2
	.loc	5 48 16                         # crypto_aead/aegis256/aegis256_aesni.c:48:16 @[ crypto_aead/aegis256/aegis256_common.h:47:9 @[ crypto_aead/aegis256/aegis256_common.h:220:5 ] ]
	vaesenc	%xmm3, %xmm4, %xmm3
	.loc	5 49 16                         # crypto_aead/aegis256/aegis256_aesni.c:49:16 @[ crypto_aead/aegis256/aegis256_common.h:47:9 @[ crypto_aead/aegis256/aegis256_common.h:220:5 ] ]
	vaesenc	%xmm4, %xmm5, %xmm4
	.loc	5 50 16                         # crypto_aead/aegis256/aegis256_aesni.c:50:16 @[ crypto_aead/aegis256/aegis256_common.h:47:9 @[ crypto_aead/aegis256/aegis256_common.h:220:5 ] ]
	vaesenc	%xmm5, %xmm1, %xmm5
	.loc	5 51 31                         # crypto_aead/aegis256/aegis256_aesni.c:51:31 @[ crypto_aead/aegis256/aegis256_common.h:47:9 @[ crypto_aead/aegis256/aegis256_common.h:220:5 ] ]
	vaesenc	%xmm1, %xmm6, %xmm1
	.loc	5 51 16 is_stmt 0               # crypto_aead/aegis256/aegis256_aesni.c:51:16 @[ crypto_aead/aegis256/aegis256_common.h:47:9 @[ crypto_aead/aegis256/aegis256_common.h:220:5 ] ]
	vpxor	%xmm0, %xmm1, %xmm1
.Ltmp362:
	#DEBUG_VALUE: aegis256_mac:i <- 4
	#DEBUG_VALUE: aegis256_update:tmp <- $xmm7
	.loc	5 46 16 is_stmt 1               # crypto_aead/aegis256/aegis256_aesni.c:46:16 @[ crypto_aead/aegis256/aegis256_common.h:47:9 @[ crypto_aead/aegis256/aegis256_common.h:220:5 ] ]
	vaesenc	%xmm7, %xmm2, %xmm6
	.loc	5 47 16                         # crypto_aead/aegis256/aegis256_aesni.c:47:16 @[ crypto_aead/aegis256/aegis256_common.h:47:9 @[ crypto_aead/aegis256/aegis256_common.h:220:5 ] ]
	vaesenc	%xmm2, %xmm3, %xmm2
	.loc	5 48 16                         # crypto_aead/aegis256/aegis256_aesni.c:48:16 @[ crypto_aead/aegis256/aegis256_common.h:47:9 @[ crypto_aead/aegis256/aegis256_common.h:220:5 ] ]
	vaesenc	%xmm3, %xmm4, %xmm3
	.loc	5 49 16                         # crypto_aead/aegis256/aegis256_aesni.c:49:16 @[ crypto_aead/aegis256/aegis256_common.h:47:9 @[ crypto_aead/aegis256/aegis256_common.h:220:5 ] ]
	vaesenc	%xmm4, %xmm5, %xmm4
	.loc	5 50 16                         # crypto_aead/aegis256/aegis256_aesni.c:50:16 @[ crypto_aead/aegis256/aegis256_common.h:47:9 @[ crypto_aead/aegis256/aegis256_common.h:220:5 ] ]
	vaesenc	%xmm5, %xmm1, %xmm5
	.loc	5 51 31                         # crypto_aead/aegis256/aegis256_aesni.c:51:31 @[ crypto_aead/aegis256/aegis256_common.h:47:9 @[ crypto_aead/aegis256/aegis256_common.h:220:5 ] ]
	vaesenc	%xmm1, %xmm7, %xmm1
	.loc	5 51 16 is_stmt 0               # crypto_aead/aegis256/aegis256_aesni.c:51:16 @[ crypto_aead/aegis256/aegis256_common.h:47:9 @[ crypto_aead/aegis256/aegis256_common.h:220:5 ] ]
	vpxor	%xmm0, %xmm1, %xmm1
.Ltmp363:
	#DEBUG_VALUE: aegis256_mac:i <- 5
	#DEBUG_VALUE: aegis256_update:tmp <- $xmm6
	.loc	5 46 16 is_stmt 1               # crypto_aead/aegis256/aegis256_aesni.c:46:16 @[ crypto_aead/aegis256/aegis256_common.h:47:9 @[ crypto_aead/aegis256/aegis256_common.h:220:5 ] ]
	vaesenc	%xmm6, %xmm2, %xmm7
	.loc	5 47 16                         # crypto_aead/aegis256/aegis256_aesni.c:47:16 @[ crypto_aead/aegis256/aegis256_common.h:47:9 @[ crypto_aead/aegis256/aegis256_common.h:220:5 ] ]
	vaesenc	%xmm2, %xmm3, %xmm2
	.loc	5 48 16                         # crypto_aead/aegis256/aegis256_aesni.c:48:16 @[ crypto_aead/aegis256/aegis256_common.h:47:9 @[ crypto_aead/aegis256/aegis256_common.h:220:5 ] ]
	vaesenc	%xmm3, %xmm4, %xmm8
.Ltmp364:
	.loc	5 49 16                         # crypto_aead/aegis256/aegis256_aesni.c:49:16 @[ crypto_aead/aegis256/aegis256_common.h:47:9 @[ crypto_aead/aegis256/aegis256_common.h:220:5 ] ]
	vaesenc	%xmm4, %xmm5, %xmm4
	.loc	5 50 16                         # crypto_aead/aegis256/aegis256_aesni.c:50:16 @[ crypto_aead/aegis256/aegis256_common.h:47:9 @[ crypto_aead/aegis256/aegis256_common.h:220:5 ] ]
	vaesenc	%xmm5, %xmm1, %xmm5
	.loc	5 51 31                         # crypto_aead/aegis256/aegis256_aesni.c:51:31 @[ crypto_aead/aegis256/aegis256_common.h:47:9 @[ crypto_aead/aegis256/aegis256_common.h:220:5 ] ]
	vaesenc	%xmm1, %xmm6, %xmm1
	.loc	5 51 16 is_stmt 0               # crypto_aead/aegis256/aegis256_aesni.c:51:16 @[ crypto_aead/aegis256/aegis256_common.h:47:9 @[ crypto_aead/aegis256/aegis256_common.h:220:5 ] ]
	vpxor	%xmm0, %xmm1, %xmm6
.Ltmp365:
	#DEBUG_VALUE: aegis256_mac:i <- 6
	#DEBUG_VALUE: aegis256_update:tmp <- $xmm7
	.loc	5 46 16 is_stmt 1               # crypto_aead/aegis256/aegis256_aesni.c:46:16 @[ crypto_aead/aegis256/aegis256_common.h:47:9 @[ crypto_aead/aegis256/aegis256_common.h:220:5 ] ]
	vaesenc	%xmm7, %xmm2, %xmm1
	.loc	5 47 16                         # crypto_aead/aegis256/aegis256_aesni.c:47:16 @[ crypto_aead/aegis256/aegis256_common.h:47:9 @[ crypto_aead/aegis256/aegis256_common.h:220:5 ] ]
	vaesenc	%xmm2, %xmm8, %xmm3
	.loc	5 48 16                         # crypto_aead/aegis256/aegis256_aesni.c:48:16 @[ crypto_aead/aegis256/aegis256_common.h:47:9 @[ crypto_aead/aegis256/aegis256_common.h:220:5 ] ]
	vaesenc	%xmm8, %xmm4, %xmm2
	.loc	5 49 16                         # crypto_aead/aegis256/aegis256_aesni.c:49:16 @[ crypto_aead/aegis256/aegis256_common.h:47:9 @[ crypto_aead/aegis256/aegis256_common.h:220:5 ] ]
	vaesenc	%xmm4, %xmm5, %xmm4
	.loc	5 50 16                         # crypto_aead/aegis256/aegis256_aesni.c:50:16 @[ crypto_aead/aegis256/aegis256_common.h:47:9 @[ crypto_aead/aegis256/aegis256_common.h:220:5 ] ]
	vaesenc	%xmm5, %xmm6, %xmm5
	.loc	5 51 31                         # crypto_aead/aegis256/aegis256_aesni.c:51:31 @[ crypto_aead/aegis256/aegis256_common.h:47:9 @[ crypto_aead/aegis256/aegis256_common.h:220:5 ] ]
	vaesenc	%xmm6, %xmm7, %xmm6
	.loc	5 51 16 is_stmt 0               # crypto_aead/aegis256/aegis256_aesni.c:51:16 @[ crypto_aead/aegis256/aegis256_common.h:47:9 @[ crypto_aead/aegis256/aegis256_common.h:220:5 ] ]
	vpxor	%xmm0, %xmm6, %xmm0
.Ltmp366:
	#DEBUG_VALUE: decrypt_detached:state <- [DW_OP_LLVM_fragment 0 128] $xmm0
	#DEBUG_VALUE: aegis256_mac:i <- 7
	#DEBUG_VALUE: decrypt_detached:state <- [DW_OP_LLVM_fragment 640 128] $xmm1
	#DEBUG_VALUE: decrypt_detached:state <- [DW_OP_LLVM_fragment 512 128] $xmm3
	#DEBUG_VALUE: decrypt_detached:state <- [DW_OP_LLVM_fragment 384 128] $xmm2
	#DEBUG_VALUE: decrypt_detached:state <- [DW_OP_LLVM_fragment 256 128] $xmm4
	#DEBUG_VALUE: decrypt_detached:state <- [DW_OP_LLVM_fragment 128 128] $xmm5
	.loc	5 0 16                          # crypto_aead/aegis256/aegis256_aesni.c:0:16
	movq	120(%rsp), %rdx                 # 8-byte Reload
.Ltmp367:
	.loc	6 50 16 is_stmt 1               # crypto_aead/aegis256/aegis256_common.h:50:16 @[ crypto_aead/aegis256/aegis256_common.h:220:5 ]
	cmpq	$32, %rdx
	je	.LBB1_26
.Ltmp368:
# %bb.24:
	#DEBUG_VALUE: decrypt_detached:m <- $r14
	#DEBUG_VALUE: decrypt_detached:c <- [DW_OP_LLVM_entry_value 1] $rsi
	#DEBUG_VALUE: decrypt_detached:clen <- $rbx
	#DEBUG_VALUE: decrypt_detached:mac <- $r12
	#DEBUG_VALUE: decrypt_detached:maclen <- [DW_OP_plus_uconst 120] [$rsp+0]
	#DEBUG_VALUE: decrypt_detached:ad <- [DW_OP_LLVM_entry_value 1] $r9
	#DEBUG_VALUE: decrypt_detached:adlen <- [DW_OP_plus_uconst 256] [$rsp+0]
	#DEBUG_VALUE: decrypt_detached:npub <- [DW_OP_plus_uconst 264] [$rsp+0]
	#DEBUG_VALUE: decrypt_detached:k <- [DW_OP_plus_uconst 272] [$rsp+0]
	#DEBUG_VALUE: decrypt_detached:state <- [DW_OP_LLVM_fragment 0 128] $xmm0
	#DEBUG_VALUE: decrypt_detached:state <- [DW_OP_LLVM_fragment 640 128] $xmm1
	#DEBUG_VALUE: decrypt_detached:state <- [DW_OP_LLVM_fragment 512 128] $xmm3
	#DEBUG_VALUE: decrypt_detached:state <- [DW_OP_LLVM_fragment 384 128] $xmm2
	#DEBUG_VALUE: decrypt_detached:state <- [DW_OP_LLVM_fragment 256 128] $xmm4
	#DEBUG_VALUE: decrypt_detached:state <- [DW_OP_LLVM_fragment 128 128] $xmm5
	#DEBUG_VALUE: aegis256_mac:mac <- [DW_OP_plus_uconst 128, DW_OP_stack_value] $rsp
	#DEBUG_VALUE: aegis256_mac:maclen <- [DW_OP_plus_uconst 120, DW_OP_deref] $rsp
	#DEBUG_VALUE: aegis256_mac:adlen <- $r15
	#DEBUG_VALUE: aegis256_mac:mlen <- $rbx
	#DEBUG_VALUE: aegis256_mac:i <- 7
	cmpq	$16, %rdx
	jne	.LBB1_27
.Ltmp369:
# %bb.25:                               # %aegis256_mac.exit.thread
	#DEBUG_VALUE: decrypt_detached:m <- $r14
	#DEBUG_VALUE: decrypt_detached:c <- [DW_OP_LLVM_entry_value 1] $rsi
	#DEBUG_VALUE: decrypt_detached:clen <- $rbx
	#DEBUG_VALUE: decrypt_detached:mac <- $r12
	#DEBUG_VALUE: decrypt_detached:maclen <- [DW_OP_plus_uconst 120] [$rsp+0]
	#DEBUG_VALUE: decrypt_detached:ad <- [DW_OP_LLVM_entry_value 1] $r9
	#DEBUG_VALUE: decrypt_detached:adlen <- [DW_OP_plus_uconst 256] [$rsp+0]
	#DEBUG_VALUE: decrypt_detached:npub <- [DW_OP_plus_uconst 264] [$rsp+0]
	#DEBUG_VALUE: decrypt_detached:k <- [DW_OP_plus_uconst 272] [$rsp+0]
	#DEBUG_VALUE: decrypt_detached:state <- [DW_OP_LLVM_fragment 0 128] $xmm0
	#DEBUG_VALUE: decrypt_detached:state <- [DW_OP_LLVM_fragment 640 128] $xmm1
	#DEBUG_VALUE: decrypt_detached:state <- [DW_OP_LLVM_fragment 512 128] $xmm3
	#DEBUG_VALUE: decrypt_detached:state <- [DW_OP_LLVM_fragment 384 128] $xmm2
	#DEBUG_VALUE: decrypt_detached:state <- [DW_OP_LLVM_fragment 256 128] $xmm4
	#DEBUG_VALUE: decrypt_detached:state <- [DW_OP_LLVM_fragment 128 128] $xmm5
	#DEBUG_VALUE: aegis256_mac:mac <- [DW_OP_plus_uconst 128, DW_OP_stack_value] $rsp
	#DEBUG_VALUE: aegis256_mac:maclen <- [DW_OP_plus_uconst 120, DW_OP_deref] $rsp
	#DEBUG_VALUE: aegis256_mac:adlen <- $r15
	#DEBUG_VALUE: aegis256_mac:mlen <- $rbx
	#DEBUG_VALUE: aegis256_mac:i <- 7
	#DEBUG_VALUE: aegis256_mac:tmp <- undef
	.loc	6 53 37                         # crypto_aead/aegis256/aegis256_common.h:53:37 @[ crypto_aead/aegis256/aegis256_common.h:220:5 ]
	vpxor	%xmm1, %xmm3, %xmm1
.Ltmp370:
	.loc	6 52 37                         # crypto_aead/aegis256/aegis256_common.h:52:37 @[ crypto_aead/aegis256/aegis256_common.h:220:5 ]
	vpxor	%xmm2, %xmm1, %xmm1
	.loc	6 51 15                         # crypto_aead/aegis256/aegis256_common.h:51:15 @[ crypto_aead/aegis256/aegis256_common.h:220:5 ]
	vpxor	%xmm4, %xmm1, %xmm1
	.loc	6 52 15                         # crypto_aead/aegis256/aegis256_common.h:52:15 @[ crypto_aead/aegis256/aegis256_common.h:220:5 ]
	vpxor	%xmm5, %xmm1, %xmm1
	.loc	6 53 15                         # crypto_aead/aegis256/aegis256_common.h:53:15 @[ crypto_aead/aegis256/aegis256_common.h:220:5 ]
	vpxor	%xmm0, %xmm1, %xmm0
.Ltmp371:
	#DEBUG_VALUE: aegis256_mac:tmp <- $xmm0
	.loc	6 54 9                          # crypto_aead/aegis256/aegis256_common.h:54:9 @[ crypto_aead/aegis256/aegis256_common.h:220:5 ]
	vmovdqa	%xmm0, 128(%rsp)
.Ltmp372:
	#DEBUG_VALUE: decrypt_detached:ret <- -1
	.loc	6 0 9 is_stmt 0                 # crypto_aead/aegis256/aegis256_common.h:0:9
	leaq	128(%rsp), %rdi
.Ltmp373:
	.loc	6 223 15 is_stmt 1              # crypto_aead/aegis256/aegis256_common.h:223:15
	movq	%r12, %rsi
	callq	crypto_verify_16@PLT
.Ltmp374:
	#DEBUG_VALUE: decrypt_detached:ret <- $eax
	.loc	6 226 5                         # crypto_aead/aegis256/aegis256_common.h:226:5
	jmp	.LBB1_28
.Ltmp375:
.LBB1_26:                               # %aegis256_mac.exit.thread134
	#DEBUG_VALUE: decrypt_detached:m <- $r14
	#DEBUG_VALUE: decrypt_detached:c <- [DW_OP_LLVM_entry_value 1] $rsi
	#DEBUG_VALUE: decrypt_detached:clen <- $rbx
	#DEBUG_VALUE: decrypt_detached:mac <- $r12
	#DEBUG_VALUE: decrypt_detached:maclen <- [DW_OP_plus_uconst 120] [$rsp+0]
	#DEBUG_VALUE: decrypt_detached:ad <- [DW_OP_LLVM_entry_value 1] $r9
	#DEBUG_VALUE: decrypt_detached:adlen <- [DW_OP_plus_uconst 256] [$rsp+0]
	#DEBUG_VALUE: decrypt_detached:npub <- [DW_OP_plus_uconst 264] [$rsp+0]
	#DEBUG_VALUE: decrypt_detached:k <- [DW_OP_plus_uconst 272] [$rsp+0]
	#DEBUG_VALUE: decrypt_detached:state <- [DW_OP_LLVM_fragment 0 128] $xmm0
	#DEBUG_VALUE: decrypt_detached:state <- [DW_OP_LLVM_fragment 640 128] $xmm1
	#DEBUG_VALUE: decrypt_detached:state <- [DW_OP_LLVM_fragment 512 128] $xmm3
	#DEBUG_VALUE: decrypt_detached:state <- [DW_OP_LLVM_fragment 384 128] $xmm2
	#DEBUG_VALUE: decrypt_detached:state <- [DW_OP_LLVM_fragment 256 128] $xmm4
	#DEBUG_VALUE: decrypt_detached:state <- [DW_OP_LLVM_fragment 128 128] $xmm5
	#DEBUG_VALUE: aegis256_mac:mac <- [DW_OP_plus_uconst 128, DW_OP_stack_value] $rsp
	#DEBUG_VALUE: aegis256_mac:maclen <- [DW_OP_plus_uconst 120, DW_OP_deref] $rsp
	#DEBUG_VALUE: aegis256_mac:adlen <- $r15
	#DEBUG_VALUE: aegis256_mac:mlen <- $rbx
	#DEBUG_VALUE: aegis256_mac:i <- 7
	.loc	6 56 30                         # crypto_aead/aegis256/aegis256_common.h:56:30 @[ crypto_aead/aegis256/aegis256_common.h:220:5 ]
	vpxor	%xmm4, %xmm5, %xmm4
.Ltmp376:
	.loc	6 56 15 is_stmt 0               # crypto_aead/aegis256/aegis256_common.h:56:15 @[ crypto_aead/aegis256/aegis256_common.h:220:5 ]
	vpxor	%xmm0, %xmm4, %xmm0
.Ltmp377:
	#DEBUG_VALUE: aegis256_mac:tmp <- $xmm0
	.loc	6 57 9 is_stmt 1                # crypto_aead/aegis256/aegis256_common.h:57:9 @[ crypto_aead/aegis256/aegis256_common.h:220:5 ]
	vmovdqa	%xmm0, 128(%rsp)
	.loc	6 58 30                         # crypto_aead/aegis256/aegis256_common.h:58:30 @[ crypto_aead/aegis256/aegis256_common.h:220:5 ]
	vpxor	%xmm1, %xmm3, %xmm0
.Ltmp378:
	.loc	6 58 15 is_stmt 0               # crypto_aead/aegis256/aegis256_common.h:58:15 @[ crypto_aead/aegis256/aegis256_common.h:220:5 ]
	vpxor	%xmm2, %xmm0, %xmm0
.Ltmp379:
	#DEBUG_VALUE: aegis256_mac:tmp <- $xmm0
	.loc	6 59 9 is_stmt 1                # crypto_aead/aegis256/aegis256_common.h:59:9 @[ crypto_aead/aegis256/aegis256_common.h:220:5 ]
	vmovdqa	%xmm0, 144(%rsp)
.Ltmp380:
	#DEBUG_VALUE: decrypt_detached:ret <- -1
	.loc	6 0 9 is_stmt 0                 # crypto_aead/aegis256/aegis256_common.h:0:9
	leaq	128(%rsp), %rdi
.Ltmp381:
	.loc	6 225 15 is_stmt 1              # crypto_aead/aegis256/aegis256_common.h:225:15
	movq	%r12, %rsi
	callq	crypto_verify_32@PLT
.Ltmp382:
	#DEBUG_VALUE: decrypt_detached:ret <- $eax
	.loc	6 226 5                         # crypto_aead/aegis256/aegis256_common.h:226:5
	jmp	.LBB1_28
.Ltmp383:
.LBB1_27:                               # %aegis256_mac.exit
	#DEBUG_VALUE: decrypt_detached:m <- $r14
	#DEBUG_VALUE: decrypt_detached:c <- [DW_OP_LLVM_entry_value 1] $rsi
	#DEBUG_VALUE: decrypt_detached:clen <- $rbx
	#DEBUG_VALUE: decrypt_detached:mac <- $r12
	#DEBUG_VALUE: decrypt_detached:maclen <- [DW_OP_plus_uconst 120] [$rsp+0]
	#DEBUG_VALUE: decrypt_detached:ad <- [DW_OP_LLVM_entry_value 1] $r9
	#DEBUG_VALUE: decrypt_detached:adlen <- [DW_OP_plus_uconst 256] [$rsp+0]
	#DEBUG_VALUE: decrypt_detached:npub <- [DW_OP_plus_uconst 264] [$rsp+0]
	#DEBUG_VALUE: decrypt_detached:k <- [DW_OP_plus_uconst 272] [$rsp+0]
	#DEBUG_VALUE: decrypt_detached:state <- [DW_OP_LLVM_fragment 0 128] $xmm0
	#DEBUG_VALUE: decrypt_detached:state <- [DW_OP_LLVM_fragment 640 128] $xmm1
	#DEBUG_VALUE: decrypt_detached:state <- [DW_OP_LLVM_fragment 512 128] $xmm3
	#DEBUG_VALUE: decrypt_detached:state <- [DW_OP_LLVM_fragment 384 128] $xmm2
	#DEBUG_VALUE: decrypt_detached:state <- [DW_OP_LLVM_fragment 256 128] $xmm4
	#DEBUG_VALUE: decrypt_detached:state <- [DW_OP_LLVM_fragment 128 128] $xmm5
	#DEBUG_VALUE: aegis256_mac:mac <- [DW_OP_plus_uconst 128, DW_OP_stack_value] $rsp
	#DEBUG_VALUE: aegis256_mac:maclen <- [DW_OP_plus_uconst 120, DW_OP_deref] $rsp
	#DEBUG_VALUE: aegis256_mac:adlen <- $r15
	#DEBUG_VALUE: aegis256_mac:mlen <- $rbx
	#DEBUG_VALUE: aegis256_mac:i <- 7
	#DEBUG_VALUE: memset:__dest <- [DW_OP_plus_uconst 128, DW_OP_stack_value] $rsp
	#DEBUG_VALUE: memset:__ch <- 0
	#DEBUG_VALUE: memset:__len <- [DW_OP_plus_uconst 120, DW_OP_deref] $rsp
	.loc	6 0 5 is_stmt 0                 # crypto_aead/aegis256/aegis256_common.h:0:5
	leaq	128(%rsp), %rdi
.Ltmp384:
	.loc	8 59 10 is_stmt 1               # /usr/include/x86_64-linux-gnu/bits/string_fortified.h:59:10 @[ crypto_aead/aegis256/aegis256_common.h:61:9 @[ crypto_aead/aegis256/aegis256_common.h:220:5 ] ]
	movl	$32, %ecx
	xorl	%esi, %esi
	callq	__memset_chk@PLT
.Ltmp385:
	.loc	8 0 10 is_stmt 0                # /usr/include/x86_64-linux-gnu/bits/string_fortified.h:0:10
	movl	$-1, %eax
.Ltmp386:
	#DEBUG_VALUE: decrypt_detached:ret <- -1
.LBB1_28:
	#DEBUG_VALUE: decrypt_detached:m <- $r14
	#DEBUG_VALUE: decrypt_detached:c <- [DW_OP_LLVM_entry_value 1] $rsi
	#DEBUG_VALUE: decrypt_detached:clen <- $rbx
	#DEBUG_VALUE: decrypt_detached:mac <- $r12
	#DEBUG_VALUE: decrypt_detached:maclen <- [DW_OP_plus_uconst 120] [$rsp+0]
	#DEBUG_VALUE: decrypt_detached:ad <- [DW_OP_LLVM_entry_value 1] $r9
	#DEBUG_VALUE: decrypt_detached:adlen <- [DW_OP_plus_uconst 256] [$rsp+0]
	#DEBUG_VALUE: decrypt_detached:npub <- [DW_OP_plus_uconst 264] [$rsp+0]
	#DEBUG_VALUE: decrypt_detached:k <- [DW_OP_plus_uconst 272] [$rsp+0]
	.loc	6 202 11 is_stmt 1              # crypto_aead/aegis256/aegis256_common.h:202:11
	testq	%r14, %r14
	sete	%cl
.Ltmp387:
	#DEBUG_VALUE: decrypt_detached:ret <- $eax
	.loc	6 227 13                        # crypto_aead/aegis256/aegis256_common.h:227:13
	testl	%eax, %eax
	sete	%dl
	.loc	6 227 18 is_stmt 0              # crypto_aead/aegis256/aegis256_common.h:227:18
	orb	%cl, %dl
	jne	.LBB1_30
.Ltmp388:
# %bb.29:
	#DEBUG_VALUE: decrypt_detached:m <- $r14
	#DEBUG_VALUE: decrypt_detached:c <- [DW_OP_LLVM_entry_value 1] $rsi
	#DEBUG_VALUE: decrypt_detached:clen <- $rbx
	#DEBUG_VALUE: decrypt_detached:mac <- $r12
	#DEBUG_VALUE: decrypt_detached:maclen <- [DW_OP_plus_uconst 120] [$rsp+0]
	#DEBUG_VALUE: decrypt_detached:ad <- [DW_OP_LLVM_entry_value 1] $r9
	#DEBUG_VALUE: decrypt_detached:adlen <- [DW_OP_plus_uconst 256] [$rsp+0]
	#DEBUG_VALUE: decrypt_detached:npub <- [DW_OP_plus_uconst 264] [$rsp+0]
	#DEBUG_VALUE: decrypt_detached:k <- [DW_OP_plus_uconst 272] [$rsp+0]
	#DEBUG_VALUE: decrypt_detached:ret <- $eax
	#DEBUG_VALUE: memset:__dest <- $r14
	#DEBUG_VALUE: memset:__ch <- 0
	#DEBUG_VALUE: memset:__len <- $rbx
	.loc	8 59 10 is_stmt 1               # /usr/include/x86_64-linux-gnu/bits/string_fortified.h:59:10 @[ crypto_aead/aegis256/aegis256_common.h:228:9 ]
	movq	%r14, %rdi
	xorl	%esi, %esi
	movq	%rbx, %rdx
	movl	%eax, %ebx
.Ltmp389:
	#DEBUG_VALUE: decrypt_detached:ret <- $ebx
	#DEBUG_VALUE: memset:__len <- $rdx
	#DEBUG_VALUE: decrypt_detached:clen <- $rdx
	callq	memset@PLT
.Ltmp390:
	#DEBUG_VALUE: decrypt_detached:clen <- [DW_OP_LLVM_entry_value 1] $rdx
	.loc	8 0 10 is_stmt 0                # /usr/include/x86_64-linux-gnu/bits/string_fortified.h:0:10
	movl	%ebx, %eax
.Ltmp391:
.LBB1_30:
	#DEBUG_VALUE: decrypt_detached:m <- $r14
	#DEBUG_VALUE: decrypt_detached:c <- [DW_OP_LLVM_entry_value 1] $rsi
	#DEBUG_VALUE: decrypt_detached:clen <- [DW_OP_LLVM_entry_value 1] $rdx
	#DEBUG_VALUE: decrypt_detached:mac <- $r12
	#DEBUG_VALUE: decrypt_detached:maclen <- [DW_OP_plus_uconst 120] [$rsp+0]
	#DEBUG_VALUE: decrypt_detached:ad <- [DW_OP_LLVM_entry_value 1] $r9
	#DEBUG_VALUE: decrypt_detached:adlen <- [DW_OP_plus_uconst 256] [$rsp+0]
	#DEBUG_VALUE: decrypt_detached:npub <- [DW_OP_plus_uconst 264] [$rsp+0]
	#DEBUG_VALUE: decrypt_detached:k <- [DW_OP_plus_uconst 272] [$rsp+0]
	.loc	6 230 5 is_stmt 1               # crypto_aead/aegis256/aegis256_common.h:230:5
	movq	%fs:40, %rcx
	cmpq	192(%rsp), %rcx
	jne	.LBB1_32
.Ltmp392:
# %bb.31:                               # %SP_return
	#DEBUG_VALUE: decrypt_detached:m <- $r14
	#DEBUG_VALUE: decrypt_detached:c <- [DW_OP_LLVM_entry_value 1] $rsi
	#DEBUG_VALUE: decrypt_detached:clen <- [DW_OP_LLVM_entry_value 1] $rdx
	#DEBUG_VALUE: decrypt_detached:mac <- $r12
	#DEBUG_VALUE: decrypt_detached:maclen <- [DW_OP_plus_uconst 120] [$rsp+0]
	#DEBUG_VALUE: decrypt_detached:ad <- [DW_OP_LLVM_entry_value 1] $r9
	#DEBUG_VALUE: decrypt_detached:adlen <- [DW_OP_plus_uconst 256] [$rsp+0]
	#DEBUG_VALUE: decrypt_detached:npub <- [DW_OP_plus_uconst 264] [$rsp+0]
	#DEBUG_VALUE: decrypt_detached:k <- [DW_OP_plus_uconst 272] [$rsp+0]
	.loc	6 230 5 epilogue_begin is_stmt 0 # crypto_aead/aegis256/aegis256_common.h:230:5
	addq	$200, %rsp
	.cfi_def_cfa_offset 56
	popq	%rbx
	.cfi_def_cfa_offset 48
	popq	%r12
.Ltmp393:
	#DEBUG_VALUE: decrypt_detached:mac <- [DW_OP_LLVM_entry_value 1] $rcx
	.cfi_def_cfa_offset 40
	popq	%r13
	.cfi_def_cfa_offset 32
	popq	%r14
.Ltmp394:
	#DEBUG_VALUE: decrypt_detached:m <- [DW_OP_LLVM_entry_value 1] $rdi
	.cfi_def_cfa_offset 24
	popq	%r15
	.cfi_def_cfa_offset 16
	popq	%rbp
	.cfi_def_cfa_offset 8
	retq
.Ltmp395:
.LBB1_32:                               # %CallStackCheckFailBlk
	.cfi_def_cfa_offset 256
	#DEBUG_VALUE: decrypt_detached:m <- $r14
	#DEBUG_VALUE: decrypt_detached:c <- [DW_OP_LLVM_entry_value 1] $rsi
	#DEBUG_VALUE: decrypt_detached:clen <- [DW_OP_LLVM_entry_value 1] $rdx
	#DEBUG_VALUE: decrypt_detached:mac <- $r12
	#DEBUG_VALUE: decrypt_detached:maclen <- [DW_OP_plus_uconst 120] [$rsp+0]
	#DEBUG_VALUE: decrypt_detached:ad <- [DW_OP_LLVM_entry_value 1] $r9
	#DEBUG_VALUE: decrypt_detached:adlen <- [DW_OP_plus_uconst 256] [$rsp+0]
	#DEBUG_VALUE: decrypt_detached:npub <- [DW_OP_plus_uconst 264] [$rsp+0]
	#DEBUG_VALUE: decrypt_detached:k <- [DW_OP_plus_uconst 272] [$rsp+0]
	.loc	6 0 0                           # crypto_aead/aegis256/aegis256_common.h:0
	callq	__stack_chk_fail@PLT
.Ltmp396:
.Lfunc_end1:
	.size	decrypt_detached, .Lfunc_end1-decrypt_detached
	.cfi_endproc
	.file	9 "./include/sodium" "crypto_verify_16.h"
	.file	10 "./include/sodium" "crypto_verify_32.h"
	.file	11 "/usr/include/x86_64-linux-gnu/bits" "strings_fortified.h"
                                        # -- End function
	.hidden	aegis256_aesni_implementation   # @aegis256_aesni_implementation
	.type	aegis256_aesni_implementation,@object
	.data
	.globl	aegis256_aesni_implementation
	.p2align	3, 0x0
aegis256_aesni_implementation:
	.quad	encrypt_detached
	.quad	decrypt_detached
	.size	aegis256_aesni_implementation, 16

	.section	".note.GNU-stack","",@progbits
	.addrsig
	.addrsig_sym encrypt_detached
	.addrsig_sym decrypt_detached
	.addrsig_sym __stack_chk_fail