	.file	"aegis128l_aesni.c"
	.file	0 "/home/leizhenyuu/opt/Anonymous_Repo/libsodium_o2_attr_inline/src/libsodium" "aegis128l_aesni.c" md5 0x7631cec11dabcdfa45b8efd564c57e93
	.file	1 "/usr/include/x86_64-linux-gnu/bits" "types.h"
	.file	2 "/usr/include/x86_64-linux-gnu/bits" "stdint-uintn.h"
	.file	3 "/home/leizhenyuu/opt/Anonymous_Repo" "llvm-project/build/lib/clang/21/include/__stddef_size_t.h"
	.file	4 "crypto_aead/aegis128l" "implementations.h"
	.file	5 "crypto_aead/aegis128l" "aegis128l_aesni.c"
	.file	6 "crypto_aead/aegis128l" "aegis128l_common.h"
	.file	7 "/home/leizhenyuu/opt/Anonymous_Repo" "llvm-project/build/lib/clang/21/include/emmintrin.h"
	.section	.rodata.cst16,"aM",@progbits,16
	.p2align	4, 0x0                          # -- Begin function encrypt_detached
.LCPI0_0:
	.quad	939006032783409408              # 0xd08050302010100
	.quad	7095959494080274965             # 0x6279e99059372215
.LCPI0_1:
	.quad	-1067420811828642341            # 0xf12fc26d55183ddb
	.quad	-2510557285622673120            # 0xdd28b57342311120
	.text
	.p2align	4
	.type	encrypt_detached,@function
encrypt_detached:                       # @encrypt_detached
.Lfunc_begin0:
	.loc	6 160 0                         # crypto_aead/aegis128l/aegis128l_common.h:160:0
	.cfi_startproc
# %bb.0:
	#DEBUG_VALUE: encrypt_detached:c <- $rdi
	#DEBUG_VALUE: encrypt_detached:mac <- $rsi
	#DEBUG_VALUE: encrypt_detached:maclen <- $rdx
	#DEBUG_VALUE: encrypt_detached:m <- $rcx
	#DEBUG_VALUE: encrypt_detached:mlen <- $r8
	#DEBUG_VALUE: encrypt_detached:ad <- $r9
	pushq	%rbp
	.cfi_def_cfa_offset 16
	.cfi_offset %rbp, -16
	movq	%rsp, %rbp
	.cfi_def_cfa_register %rbp
	pushq	%r15
	pushq	%r14
	pushq	%r13
	pushq	%r12
	pushq	%rbx
	andq	$-32, %rsp
	subq	$288, %rsp                      # imm = 0x120
	.cfi_offset %rbx, -56
	.cfi_offset %r12, -48
	.cfi_offset %r13, -40
	.cfi_offset %r14, -32
	.cfi_offset %r15, -24
.Ltmp0:
	#DEBUG_VALUE: encrypt_detached:adlen <- [DW_OP_plus_uconst 16] [$rbp+0]
	#DEBUG_VALUE: encrypt_detached:npub <- [DW_OP_plus_uconst 24] [$rbp+0]
	#DEBUG_VALUE: encrypt_detached:k <- [DW_OP_plus_uconst 32] [$rbp+0]
	movq	%r8, %r15
	movq	%rcx, %r13
	movq	%rdx, 168(%rsp)                 # 8-byte Spill
.Ltmp1:
	#DEBUG_VALUE: encrypt_detached:maclen <- [DW_OP_plus_uconst 168] [$rsp+0]
	movq	%rsi, 104(%rsp)                 # 8-byte Spill
.Ltmp2:
	#DEBUG_VALUE: encrypt_detached:mac <- [DW_OP_plus_uconst 104] [$rsp+0]
	movq	%rdi, %r12
	movq	24(%rbp), %rax
.Ltmp3:
	#DEBUG_VALUE: aegis128l_init:nonce <- $rax
	movq	32(%rbp), %rcx
.Ltmp4:
	#DEBUG_VALUE: encrypt_detached:m <- $r13
	#DEBUG_VALUE: aegis128l_init:key <- $rcx
	movq	%fs:40, %rdx
	movq	%rdx, 256(%rsp)
.Ltmp5:
	.loc	6 19 9 prologue_end             # crypto_aead/aegis128l/aegis128l_common.h:19:9 @[ crypto_aead/aegis128l/aegis128l_common.h:166:5 ]
	vmovdqu	(%rcx), %xmm1
.Ltmp6:
	#DEBUG_VALUE: aegis128l_init:k <- $xmm1
	.loc	6 20 9                          # crypto_aead/aegis128l/aegis128l_common.h:20:9 @[ crypto_aead/aegis128l/aegis128l_common.h:166:5 ]
	vmovdqu	(%rax), %xmm2
.Ltmp7:
	#DEBUG_VALUE: aegis128l_init:n <- $xmm2
	.loc	6 22 16                         # crypto_aead/aegis128l/aegis128l_common.h:22:16 @[ crypto_aead/aegis128l/aegis128l_common.h:166:5 ]
	vpxor	%xmm1, %xmm2, %xmm0
	.loc	6 27 16                         # crypto_aead/aegis128l/aegis128l_common.h:27:16 @[ crypto_aead/aegis128l/aegis128l_common.h:166:5 ]
	vmovdqa	.LCPI0_0(%rip), %xmm3           # xmm3 = [939006032783409408,7095959494080274965]
.Ltmp8:
	#DEBUG_VALUE: aegis128l_init:c0 <- $xmm3
	vpxor	%xmm3, %xmm1, %xmm4
.Ltmp9:
	#DEBUG_VALUE: aegis128l_update:tmp <- $xmm4
	.loc	6 28 16                         # crypto_aead/aegis128l/aegis128l_common.h:28:16 @[ crypto_aead/aegis128l/aegis128l_common.h:166:5 ]
	vmovdqa	.LCPI0_1(%rip), %xmm5           # xmm5 = [17379323261880909275,15936186788086878496]
.Ltmp10:
	#DEBUG_VALUE: aegis128l_init:c1 <- $xmm5
	vpxor	%xmm5, %xmm1, %xmm6
.Ltmp11:
	#DEBUG_VALUE: aegis128l_init:i <- 0
	#DEBUG_VALUE: aegis128l_update:d1 <- $xmm2
	#DEBUG_VALUE: aegis128l_update:d2 <- $xmm1
	.loc	5 46 16                         # crypto_aead/aegis128l/aegis128l_aesni.c:46:16 @[ crypto_aead/aegis128l/aegis128l_common.h:31:9 @[ crypto_aead/aegis128l/aegis128l_common.h:166:5 ] ]
	vaesenc	%xmm4, %xmm6, %xmm7
	.loc	5 47 16                         # crypto_aead/aegis128l/aegis128l_aesni.c:47:16 @[ crypto_aead/aegis128l/aegis128l_common.h:31:9 @[ crypto_aead/aegis128l/aegis128l_common.h:166:5 ] ]
	vaesenc	%xmm6, %xmm4, %xmm6
	.loc	5 48 16                         # crypto_aead/aegis128l/aegis128l_aesni.c:48:16 @[ crypto_aead/aegis128l/aegis128l_common.h:31:9 @[ crypto_aead/aegis128l/aegis128l_common.h:166:5 ] ]
	vaesenc	%xmm4, %xmm0, %xmm8
	.loc	5 49 16                         # crypto_aead/aegis128l/aegis128l_aesni.c:49:16 @[ crypto_aead/aegis128l/aegis128l_common.h:31:9 @[ crypto_aead/aegis128l/aegis128l_common.h:166:5 ] ]
	vaesenc	%xmm0, %xmm5, %xmm9
	.loc	5 50 16                         # crypto_aead/aegis128l/aegis128l_aesni.c:50:16 @[ crypto_aead/aegis128l/aegis128l_common.h:31:9 @[ crypto_aead/aegis128l/aegis128l_common.h:166:5 ] ]
	vaesenc	%xmm5, %xmm3, %xmm10
	.loc	5 51 16                         # crypto_aead/aegis128l/aegis128l_aesni.c:51:16 @[ crypto_aead/aegis128l/aegis128l_common.h:31:9 @[ crypto_aead/aegis128l/aegis128l_common.h:166:5 ] ]
	vaesenc	%xmm3, %xmm5, %xmm3
.Ltmp12:
	.loc	5 52 16                         # crypto_aead/aegis128l/aegis128l_aesni.c:52:16 @[ crypto_aead/aegis128l/aegis128l_common.h:31:9 @[ crypto_aead/aegis128l/aegis128l_common.h:166:5 ] ]
	vaesenc	%xmm5, %xmm0, %xmm5
.Ltmp13:
	.loc	5 53 16                         # crypto_aead/aegis128l/aegis128l_aesni.c:53:16 @[ crypto_aead/aegis128l/aegis128l_common.h:31:9 @[ crypto_aead/aegis128l/aegis128l_common.h:166:5 ] ]
	vaesenc	%xmm0, %xmm4, %xmm0
	.loc	5 55 16                         # crypto_aead/aegis128l/aegis128l_aesni.c:55:16 @[ crypto_aead/aegis128l/aegis128l_common.h:31:9 @[ crypto_aead/aegis128l/aegis128l_common.h:166:5 ] ]
	vpxor	%xmm2, %xmm0, %xmm0
	.loc	5 56 16                         # crypto_aead/aegis128l/aegis128l_aesni.c:56:16 @[ crypto_aead/aegis128l/aegis128l_common.h:31:9 @[ crypto_aead/aegis128l/aegis128l_common.h:166:5 ] ]
	vpxor	%xmm1, %xmm9, %xmm4
.Ltmp14:
	#DEBUG_VALUE: aegis128l_init:i <- 1
	#DEBUG_VALUE: aegis128l_update:tmp <- $xmm7
	.loc	5 46 16                         # crypto_aead/aegis128l/aegis128l_aesni.c:46:16 @[ crypto_aead/aegis128l/aegis128l_common.h:31:9 @[ crypto_aead/aegis128l/aegis128l_common.h:166:5 ] ]
	vaesenc	%xmm7, %xmm6, %xmm9
	.loc	5 47 16                         # crypto_aead/aegis128l/aegis128l_aesni.c:47:16 @[ crypto_aead/aegis128l/aegis128l_common.h:31:9 @[ crypto_aead/aegis128l/aegis128l_common.h:166:5 ] ]
	vaesenc	%xmm6, %xmm8, %xmm6
	.loc	5 48 16                         # crypto_aead/aegis128l/aegis128l_aesni.c:48:16 @[ crypto_aead/aegis128l/aegis128l_common.h:31:9 @[ crypto_aead/aegis128l/aegis128l_common.h:166:5 ] ]
	vaesenc	%xmm8, %xmm4, %xmm8
	.loc	5 49 16                         # crypto_aead/aegis128l/aegis128l_aesni.c:49:16 @[ crypto_aead/aegis128l/aegis128l_common.h:31:9 @[ crypto_aead/aegis128l/aegis128l_common.h:166:5 ] ]
	vaesenc	%xmm4, %xmm10, %xmm4
	.loc	5 50 16                         # crypto_aead/aegis128l/aegis128l_aesni.c:50:16 @[ crypto_aead/aegis128l/aegis128l_common.h:31:9 @[ crypto_aead/aegis128l/aegis128l_common.h:166:5 ] ]
	vaesenc	%xmm10, %xmm3, %xmm10
	.loc	5 51 16                         # crypto_aead/aegis128l/aegis128l_aesni.c:51:16 @[ crypto_aead/aegis128l/aegis128l_common.h:31:9 @[ crypto_aead/aegis128l/aegis128l_common.h:166:5 ] ]
	vaesenc	%xmm3, %xmm5, %xmm3
	.loc	5 52 16                         # crypto_aead/aegis128l/aegis128l_aesni.c:52:16 @[ crypto_aead/aegis128l/aegis128l_common.h:31:9 @[ crypto_aead/aegis128l/aegis128l_common.h:166:5 ] ]
	vaesenc	%xmm5, %xmm0, %xmm5
	.loc	5 53 16                         # crypto_aead/aegis128l/aegis128l_aesni.c:53:16 @[ crypto_aead/aegis128l/aegis128l_common.h:31:9 @[ crypto_aead/aegis128l/aegis128l_common.h:166:5 ] ]
	vaesenc	%xmm0, %xmm7, %xmm0
	.loc	5 55 16                         # crypto_aead/aegis128l/aegis128l_aesni.c:55:16 @[ crypto_aead/aegis128l/aegis128l_common.h:31:9 @[ crypto_aead/aegis128l/aegis128l_common.h:166:5 ] ]
	vpxor	%xmm2, %xmm0, %xmm0
	.loc	5 56 16                         # crypto_aead/aegis128l/aegis128l_aesni.c:56:16 @[ crypto_aead/aegis128l/aegis128l_common.h:31:9 @[ crypto_aead/aegis128l/aegis128l_common.h:166:5 ] ]
	vpxor	%xmm1, %xmm4, %xmm4
.Ltmp15:
	#DEBUG_VALUE: aegis128l_init:i <- 2
	#DEBUG_VALUE: aegis128l_update:tmp <- $xmm9
	.loc	5 46 16                         # crypto_aead/aegis128l/aegis128l_aesni.c:46:16 @[ crypto_aead/aegis128l/aegis128l_common.h:31:9 @[ crypto_aead/aegis128l/aegis128l_common.h:166:5 ] ]
	vaesenc	%xmm9, %xmm6, %xmm7
	.loc	5 47 16                         # crypto_aead/aegis128l/aegis128l_aesni.c:47:16 @[ crypto_aead/aegis128l/aegis128l_common.h:31:9 @[ crypto_aead/aegis128l/aegis128l_common.h:166:5 ] ]
	vaesenc	%xmm6, %xmm8, %xmm6
	.loc	5 48 16                         # crypto_aead/aegis128l/aegis128l_aesni.c:48:16 @[ crypto_aead/aegis128l/aegis128l_common.h:31:9 @[ crypto_aead/aegis128l/aegis128l_common.h:166:5 ] ]
	vaesenc	%xmm8, %xmm4, %xmm8
	.loc	5 49 16                         # crypto_aead/aegis128l/aegis128l_aesni.c:49:16 @[ crypto_aead/aegis128l/aegis128l_common.h:31:9 @[ crypto_aead/aegis128l/aegis128l_common.h:166:5 ] ]
	vaesenc	%xmm4, %xmm10, %xmm4
	.loc	5 50 16                         # crypto_aead/aegis128l/aegis128l_aesni.c:50:16 @[ crypto_aead/aegis128l/aegis128l_common.h:31:9 @[ crypto_aead/aegis128l/aegis128l_common.h:166:5 ] ]
	vaesenc	%xmm10, %xmm3, %xmm10
	.loc	5 51 16                         # crypto_aead/aegis128l/aegis128l_aesni.c:51:16 @[ crypto_aead/aegis128l/aegis128l_common.h:31:9 @[ crypto_aead/aegis128l/aegis128l_common.h:166:5 ] ]
	vaesenc	%xmm3, %xmm5, %xmm3
	.loc	5 52 16                         # crypto_aead/aegis128l/aegis128l_aesni.c:52:16 @[ crypto_aead/aegis128l/aegis128l_common.h:31:9 @[ crypto_aead/aegis128l/aegis128l_common.h:166:5 ] ]
	vaesenc	%xmm5, %xmm0, %xmm5
	.loc	5 53 16                         # crypto_aead/aegis128l/aegis128l_aesni.c:53:16 @[ crypto_aead/aegis128l/aegis128l_common.h:31:9 @[ crypto_aead/aegis128l/aegis128l_common.h:166:5 ] ]
	vaesenc	%xmm0, %xmm9, %xmm0
	.loc	5 55 16                         # crypto_aead/aegis128l/aegis128l_aesni.c:55:16 @[ crypto_aead/aegis128l/aegis128l_common.h:31:9 @[ crypto_aead/aegis128l/aegis128l_common.h:166:5 ] ]
	vpxor	%xmm2, %xmm0, %xmm0
	.loc	5 56 16                         # crypto_aead/aegis128l/aegis128l_aesni.c:56:16 @[ crypto_aead/aegis128l/aegis128l_common.h:31:9 @[ crypto_aead/aegis128l/aegis128l_common.h:166:5 ] ]
	vpxor	%xmm1, %xmm4, %xmm4
.Ltmp16:
	#DEBUG_VALUE: aegis128l_init:i <- 3
	#DEBUG_VALUE: aegis128l_update:tmp <- $xmm7
	.loc	5 46 16                         # crypto_aead/aegis128l/aegis128l_aesni.c:46:16 @[ crypto_aead/aegis128l/aegis128l_common.h:31:9 @[ crypto_aead/aegis128l/aegis128l_common.h:166:5 ] ]
	vaesenc	%xmm7, %xmm6, %xmm9
	.loc	5 47 16                         # crypto_aead/aegis128l/aegis128l_aesni.c:47:16 @[ crypto_aead/aegis128l/aegis128l_common.h:31:9 @[ crypto_aead/aegis128l/aegis128l_common.h:166:5 ] ]
	vaesenc	%xmm6, %xmm8, %xmm6
	.loc	5 48 16                         # crypto_aead/aegis128l/aegis128l_aesni.c:48:16 @[ crypto_aead/aegis128l/aegis128l_common.h:31:9 @[ crypto_aead/aegis128l/aegis128l_common.h:166:5 ] ]
	vaesenc	%xmm8, %xmm4, %xmm8
	.loc	5 49 16                         # crypto_aead/aegis128l/aegis128l_aesni.c:49:16 @[ crypto_aead/aegis128l/aegis128l_common.h:31:9 @[ crypto_aead/aegis128l/aegis128l_common.h:166:5 ] ]
	vaesenc	%xmm4, %xmm10, %xmm4
	.loc	5 50 16                         # crypto_aead/aegis128l/aegis128l_aesni.c:50:16 @[ crypto_aead/aegis128l/aegis128l_common.h:31:9 @[ crypto_aead/aegis128l/aegis128l_common.h:166:5 ] ]
	vaesenc	%xmm10, %xmm3, %xmm10
	.loc	5 51 16                         # crypto_aead/aegis128l/aegis128l_aesni.c:51:16 @[ crypto_aead/aegis128l/aegis128l_common.h:31:9 @[ crypto_aead/aegis128l/aegis128l_common.h:166:5 ] ]
	vaesenc	%xmm3, %xmm5, %xmm3
	.loc	5 52 16                         # crypto_aead/aegis128l/aegis128l_aesni.c:52:16 @[ crypto_aead/aegis128l/aegis128l_common.h:31:9 @[ crypto_aead/aegis128l/aegis128l_common.h:166:5 ] ]
	vaesenc	%xmm5, %xmm0, %xmm5
	.loc	5 53 16                         # crypto_aead/aegis128l/aegis128l_aesni.c:53:16 @[ crypto_aead/aegis128l/aegis128l_common.h:31:9 @[ crypto_aead/aegis128l/aegis128l_common.h:166:5 ] ]
	vaesenc	%xmm0, %xmm7, %xmm0
	.loc	5 55 16                         # crypto_aead/aegis128l/aegis128l_aesni.c:55:16 @[ crypto_aead/aegis128l/aegis128l_common.h:31:9 @[ crypto_aead/aegis128l/aegis128l_common.h:166:5 ] ]
	vpxor	%xmm2, %xmm0, %xmm0
	.loc	5 56 16                         # crypto_aead/aegis128l/aegis128l_aesni.c:56:16 @[ crypto_aead/aegis128l/aegis128l_common.h:31:9 @[ crypto_aead/aegis128l/aegis128l_common.h:166:5 ] ]
	vpxor	%xmm1, %xmm4, %xmm4
.Ltmp17:
	#DEBUG_VALUE: aegis128l_init:i <- 4
	#DEBUG_VALUE: aegis128l_update:tmp <- $xmm9
	.loc	5 46 16                         # crypto_aead/aegis128l/aegis128l_aesni.c:46:16 @[ crypto_aead/aegis128l/aegis128l_common.h:31:9 @[ crypto_aead/aegis128l/aegis128l_common.h:166:5 ] ]
	vaesenc	%xmm9, %xmm6, %xmm7
	.loc	5 47 16                         # crypto_aead/aegis128l/aegis128l_aesni.c:47:16 @[ crypto_aead/aegis128l/aegis128l_common.h:31:9 @[ crypto_aead/aegis128l/aegis128l_common.h:166:5 ] ]
	vaesenc	%xmm6, %xmm8, %xmm6
	.loc	5 48 16                         # crypto_aead/aegis128l/aegis128l_aesni.c:48:16 @[ crypto_aead/aegis128l/aegis128l_common.h:31:9 @[ crypto_aead/aegis128l/aegis128l_common.h:166:5 ] ]
	vaesenc	%xmm8, %xmm4, %xmm8
	.loc	5 49 16                         # crypto_aead/aegis128l/aegis128l_aesni.c:49:16 @[ crypto_aead/aegis128l/aegis128l_common.h:31:9 @[ crypto_aead/aegis128l/aegis128l_common.h:166:5 ] ]
	vaesenc	%xmm4, %xmm10, %xmm4
	.loc	5 50 16                         # crypto_aead/aegis128l/aegis128l_aesni.c:50:16 @[ crypto_aead/aegis128l/aegis128l_common.h:31:9 @[ crypto_aead/aegis128l/aegis128l_common.h:166:5 ] ]
	vaesenc	%xmm10, %xmm3, %xmm10
	.loc	5 51 16                         # crypto_aead/aegis128l/aegis128l_aesni.c:51:16 @[ crypto_aead/aegis128l/aegis128l_common.h:31:9 @[ crypto_aead/aegis128l/aegis128l_common.h:166:5 ] ]
	vaesenc	%xmm3, %xmm5, %xmm3
	.loc	5 52 16                         # crypto_aead/aegis128l/aegis128l_aesni.c:52:16 @[ crypto_aead/aegis128l/aegis128l_common.h:31:9 @[ crypto_aead/aegis128l/aegis128l_common.h:166:5 ] ]
	vaesenc	%xmm5, %xmm0, %xmm5
	.loc	5 53 16                         # crypto_aead/aegis128l/aegis128l_aesni.c:53:16 @[ crypto_aead/aegis128l/aegis128l_common.h:31:9 @[ crypto_aead/aegis128l/aegis128l_common.h:166:5 ] ]
	vaesenc	%xmm0, %xmm9, %xmm0
	.loc	5 55 16                         # crypto_aead/aegis128l/aegis128l_aesni.c:55:16 @[ crypto_aead/aegis128l/aegis128l_common.h:31:9 @[ crypto_aead/aegis128l/aegis128l_common.h:166:5 ] ]
	vpxor	%xmm2, %xmm0, %xmm0
	.loc	5 56 16                         # crypto_aead/aegis128l/aegis128l_aesni.c:56:16 @[ crypto_aead/aegis128l/aegis128l_common.h:31:9 @[ crypto_aead/aegis128l/aegis128l_common.h:166:5 ] ]
	vpxor	%xmm1, %xmm4, %xmm4
.Ltmp18:
	#DEBUG_VALUE: aegis128l_init:i <- 5
	#DEBUG_VALUE: aegis128l_update:tmp <- $xmm7
	.loc	5 46 16                         # crypto_aead/aegis128l/aegis128l_aesni.c:46:16 @[ crypto_aead/aegis128l/aegis128l_common.h:31:9 @[ crypto_aead/aegis128l/aegis128l_common.h:166:5 ] ]
	vaesenc	%xmm7, %xmm6, %xmm9
	.loc	5 47 16                         # crypto_aead/aegis128l/aegis128l_aesni.c:47:16 @[ crypto_aead/aegis128l/aegis128l_common.h:31:9 @[ crypto_aead/aegis128l/aegis128l_common.h:166:5 ] ]
	vaesenc	%xmm6, %xmm8, %xmm6
	.loc	5 48 16                         # crypto_aead/aegis128l/aegis128l_aesni.c:48:16 @[ crypto_aead/aegis128l/aegis128l_common.h:31:9 @[ crypto_aead/aegis128l/aegis128l_common.h:166:5 ] ]
	vaesenc	%xmm8, %xmm4, %xmm8
	.loc	5 49 16                         # crypto_aead/aegis128l/aegis128l_aesni.c:49:16 @[ crypto_aead/aegis128l/aegis128l_common.h:31:9 @[ crypto_aead/aegis128l/aegis128l_common.h:166:5 ] ]
	vaesenc	%xmm4, %xmm10, %xmm4
	.loc	5 50 16                         # crypto_aead/aegis128l/aegis128l_aesni.c:50:16 @[ crypto_aead/aegis128l/aegis128l_common.h:31:9 @[ crypto_aead/aegis128l/aegis128l_common.h:166:5 ] ]
	vaesenc	%xmm10, %xmm3, %xmm10
	.loc	5 51 16                         # crypto_aead/aegis128l/aegis128l_aesni.c:51:16 @[ crypto_aead/aegis128l/aegis128l_common.h:31:9 @[ crypto_aead/aegis128l/aegis128l_common.h:166:5 ] ]
	vaesenc	%xmm3, %xmm5, %xmm3
	.loc	5 52 16                         # crypto_aead/aegis128l/aegis128l_aesni.c:52:16 @[ crypto_aead/aegis128l/aegis128l_common.h:31:9 @[ crypto_aead/aegis128l/aegis128l_common.h:166:5 ] ]
	vaesenc	%xmm5, %xmm0, %xmm5
	.loc	5 53 16                         # crypto_aead/aegis128l/aegis128l_aesni.c:53:16 @[ crypto_aead/aegis128l/aegis128l_common.h:31:9 @[ crypto_aead/aegis128l/aegis128l_common.h:166:5 ] ]
	vaesenc	%xmm0, %xmm7, %xmm0
	.loc	5 55 16                         # crypto_aead/aegis128l/aegis128l_aesni.c:55:16 @[ crypto_aead/aegis128l/aegis128l_common.h:31:9 @[ crypto_aead/aegis128l/aegis128l_common.h:166:5 ] ]
	vpxor	%xmm2, %xmm0, %xmm0
	.loc	5 56 16                         # crypto_aead/aegis128l/aegis128l_aesni.c:56:16 @[ crypto_aead/aegis128l/aegis128l_common.h:31:9 @[ crypto_aead/aegis128l/aegis128l_common.h:166:5 ] ]
	vpxor	%xmm1, %xmm4, %xmm4
.Ltmp19:
	#DEBUG_VALUE: aegis128l_init:i <- 6
	#DEBUG_VALUE: aegis128l_update:tmp <- $xmm9
	.loc	5 46 16                         # crypto_aead/aegis128l/aegis128l_aesni.c:46:16 @[ crypto_aead/aegis128l/aegis128l_common.h:31:9 @[ crypto_aead/aegis128l/aegis128l_common.h:166:5 ] ]
	vaesenc	%xmm9, %xmm6, %xmm7
	.loc	5 47 16                         # crypto_aead/aegis128l/aegis128l_aesni.c:47:16 @[ crypto_aead/aegis128l/aegis128l_common.h:31:9 @[ crypto_aead/aegis128l/aegis128l_common.h:166:5 ] ]
	vaesenc	%xmm6, %xmm8, %xmm6
	.loc	5 48 16                         # crypto_aead/aegis128l/aegis128l_aesni.c:48:16 @[ crypto_aead/aegis128l/aegis128l_common.h:31:9 @[ crypto_aead/aegis128l/aegis128l_common.h:166:5 ] ]
	vaesenc	%xmm8, %xmm4, %xmm8
	.loc	5 49 16                         # crypto_aead/aegis128l/aegis128l_aesni.c:49:16 @[ crypto_aead/aegis128l/aegis128l_common.h:31:9 @[ crypto_aead/aegis128l/aegis128l_common.h:166:5 ] ]
	vaesenc	%xmm4, %xmm10, %xmm4
	.loc	5 50 16                         # crypto_aead/aegis128l/aegis128l_aesni.c:50:16 @[ crypto_aead/aegis128l/aegis128l_common.h:31:9 @[ crypto_aead/aegis128l/aegis128l_common.h:166:5 ] ]
	vaesenc	%xmm10, %xmm3, %xmm10
	.loc	5 51 16                         # crypto_aead/aegis128l/aegis128l_aesni.c:51:16 @[ crypto_aead/aegis128l/aegis128l_common.h:31:9 @[ crypto_aead/aegis128l/aegis128l_common.h:166:5 ] ]
	vaesenc	%xmm3, %xmm5, %xmm3
	.loc	5 52 16                         # crypto_aead/aegis128l/aegis128l_aesni.c:52:16 @[ crypto_aead/aegis128l/aegis128l_common.h:31:9 @[ crypto_aead/aegis128l/aegis128l_common.h:166:5 ] ]
	vaesenc	%xmm5, %xmm0, %xmm5
	.loc	5 53 16                         # crypto_aead/aegis128l/aegis128l_aesni.c:53:16 @[ crypto_aead/aegis128l/aegis128l_common.h:31:9 @[ crypto_aead/aegis128l/aegis128l_common.h:166:5 ] ]
	vaesenc	%xmm0, %xmm9, %xmm0
	.loc	5 55 16                         # crypto_aead/aegis128l/aegis128l_aesni.c:55:16 @[ crypto_aead/aegis128l/aegis128l_common.h:31:9 @[ crypto_aead/aegis128l/aegis128l_common.h:166:5 ] ]
	vpxor	%xmm2, %xmm0, %xmm0
	.loc	5 56 16                         # crypto_aead/aegis128l/aegis128l_aesni.c:56:16 @[ crypto_aead/aegis128l/aegis128l_common.h:31:9 @[ crypto_aead/aegis128l/aegis128l_common.h:166:5 ] ]
	vpxor	%xmm1, %xmm4, %xmm4
.Ltmp20:
	#DEBUG_VALUE: aegis128l_init:i <- 7
	#DEBUG_VALUE: aegis128l_update:tmp <- $xmm7
	.loc	5 46 16                         # crypto_aead/aegis128l/aegis128l_aesni.c:46:16 @[ crypto_aead/aegis128l/aegis128l_common.h:31:9 @[ crypto_aead/aegis128l/aegis128l_common.h:166:5 ] ]
	vaesenc	%xmm7, %xmm6, %xmm9
	.loc	5 47 16                         # crypto_aead/aegis128l/aegis128l_aesni.c:47:16 @[ crypto_aead/aegis128l/aegis128l_common.h:31:9 @[ crypto_aead/aegis128l/aegis128l_common.h:166:5 ] ]
	vaesenc	%xmm6, %xmm8, %xmm6
	.loc	5 48 16                         # crypto_aead/aegis128l/aegis128l_aesni.c:48:16 @[ crypto_aead/aegis128l/aegis128l_common.h:31:9 @[ crypto_aead/aegis128l/aegis128l_common.h:166:5 ] ]
	vaesenc	%xmm8, %xmm4, %xmm8
	.loc	5 49 16                         # crypto_aead/aegis128l/aegis128l_aesni.c:49:16 @[ crypto_aead/aegis128l/aegis128l_common.h:31:9 @[ crypto_aead/aegis128l/aegis128l_common.h:166:5 ] ]
	vaesenc	%xmm4, %xmm10, %xmm4
	.loc	5 50 16                         # crypto_aead/aegis128l/aegis128l_aesni.c:50:16 @[ crypto_aead/aegis128l/aegis128l_common.h:31:9 @[ crypto_aead/aegis128l/aegis128l_common.h:166:5 ] ]
	vaesenc	%xmm10, %xmm3, %xmm10
	.loc	5 51 16                         # crypto_aead/aegis128l/aegis128l_aesni.c:51:16 @[ crypto_aead/aegis128l/aegis128l_common.h:31:9 @[ crypto_aead/aegis128l/aegis128l_common.h:166:5 ] ]
	vaesenc	%xmm3, %xmm5, %xmm3
	.loc	5 52 16                         # crypto_aead/aegis128l/aegis128l_aesni.c:52:16 @[ crypto_aead/aegis128l/aegis128l_common.h:31:9 @[ crypto_aead/aegis128l/aegis128l_common.h:166:5 ] ]
	vaesenc	%xmm5, %xmm0, %xmm5
	.loc	5 53 16                         # crypto_aead/aegis128l/aegis128l_aesni.c:53:16 @[ crypto_aead/aegis128l/aegis128l_common.h:31:9 @[ crypto_aead/aegis128l/aegis128l_common.h:166:5 ] ]
	vaesenc	%xmm0, %xmm7, %xmm0
	.loc	5 55 16                         # crypto_aead/aegis128l/aegis128l_aesni.c:55:16 @[ crypto_aead/aegis128l/aegis128l_common.h:31:9 @[ crypto_aead/aegis128l/aegis128l_common.h:166:5 ] ]
	vpxor	%xmm2, %xmm0, %xmm0
	.loc	5 56 16                         # crypto_aead/aegis128l/aegis128l_aesni.c:56:16 @[ crypto_aead/aegis128l/aegis128l_common.h:31:9 @[ crypto_aead/aegis128l/aegis128l_common.h:166:5 ] ]
	vpxor	%xmm1, %xmm4, %xmm4
.Ltmp21:
	#DEBUG_VALUE: aegis128l_init:i <- 8
	#DEBUG_VALUE: aegis128l_update:tmp <- $xmm9
	.loc	5 46 16                         # crypto_aead/aegis128l/aegis128l_aesni.c:46:16 @[ crypto_aead/aegis128l/aegis128l_common.h:31:9 @[ crypto_aead/aegis128l/aegis128l_common.h:166:5 ] ]
	vaesenc	%xmm9, %xmm6, %xmm7
	.loc	5 47 16                         # crypto_aead/aegis128l/aegis128l_aesni.c:47:16 @[ crypto_aead/aegis128l/aegis128l_common.h:31:9 @[ crypto_aead/aegis128l/aegis128l_common.h:166:5 ] ]
	vaesenc	%xmm6, %xmm8, %xmm6
	.loc	5 48 16                         # crypto_aead/aegis128l/aegis128l_aesni.c:48:16 @[ crypto_aead/aegis128l/aegis128l_common.h:31:9 @[ crypto_aead/aegis128l/aegis128l_common.h:166:5 ] ]
	vaesenc	%xmm8, %xmm4, %xmm8
	.loc	5 49 16                         # crypto_aead/aegis128l/aegis128l_aesni.c:49:16 @[ crypto_aead/aegis128l/aegis128l_common.h:31:9 @[ crypto_aead/aegis128l/aegis128l_common.h:166:5 ] ]
	vaesenc	%xmm4, %xmm10, %xmm4
	.loc	5 50 16                         # crypto_aead/aegis128l/aegis128l_aesni.c:50:16 @[ crypto_aead/aegis128l/aegis128l_common.h:31:9 @[ crypto_aead/aegis128l/aegis128l_common.h:166:5 ] ]
	vaesenc	%xmm10, %xmm3, %xmm10
	.loc	5 51 16                         # crypto_aead/aegis128l/aegis128l_aesni.c:51:16 @[ crypto_aead/aegis128l/aegis128l_common.h:31:9 @[ crypto_aead/aegis128l/aegis128l_common.h:166:5 ] ]
	vaesenc	%xmm3, %xmm5, %xmm3
	.loc	5 52 16                         # crypto_aead/aegis128l/aegis128l_aesni.c:52:16 @[ crypto_aead/aegis128l/aegis128l_common.h:31:9 @[ crypto_aead/aegis128l/aegis128l_common.h:166:5 ] ]
	vaesenc	%xmm5, %xmm0, %xmm5
	.loc	5 53 16                         # crypto_aead/aegis128l/aegis128l_aesni.c:53:16 @[ crypto_aead/aegis128l/aegis128l_common.h:31:9 @[ crypto_aead/aegis128l/aegis128l_common.h:166:5 ] ]
	vaesenc	%xmm0, %xmm9, %xmm0
	.loc	5 55 16                         # crypto_aead/aegis128l/aegis128l_aesni.c:55:16 @[ crypto_aead/aegis128l/aegis128l_common.h:31:9 @[ crypto_aead/aegis128l/aegis128l_common.h:166:5 ] ]
	vpxor	%xmm2, %xmm0, %xmm9
.Ltmp22:
	.loc	5 56 16                         # crypto_aead/aegis128l/aegis128l_aesni.c:56:16 @[ crypto_aead/aegis128l/aegis128l_common.h:31:9 @[ crypto_aead/aegis128l/aegis128l_common.h:166:5 ] ]
	vpxor	%xmm1, %xmm4, %xmm4
.Ltmp23:
	#DEBUG_VALUE: aegis128l_init:i <- 9
	#DEBUG_VALUE: aegis128l_update:tmp <- $xmm7
	.loc	5 46 16                         # crypto_aead/aegis128l/aegis128l_aesni.c:46:16 @[ crypto_aead/aegis128l/aegis128l_common.h:31:9 @[ crypto_aead/aegis128l/aegis128l_common.h:166:5 ] ]
	vaesenc	%xmm7, %xmm6, %xmm0
	.loc	5 47 16                         # crypto_aead/aegis128l/aegis128l_aesni.c:47:16 @[ crypto_aead/aegis128l/aegis128l_common.h:31:9 @[ crypto_aead/aegis128l/aegis128l_common.h:166:5 ] ]
	vaesenc	%xmm6, %xmm8, %xmm11
	.loc	5 48 16                         # crypto_aead/aegis128l/aegis128l_aesni.c:48:16 @[ crypto_aead/aegis128l/aegis128l_common.h:31:9 @[ crypto_aead/aegis128l/aegis128l_common.h:166:5 ] ]
	vaesenc	%xmm8, %xmm4, %xmm12
	.loc	5 49 16                         # crypto_aead/aegis128l/aegis128l_aesni.c:49:16 @[ crypto_aead/aegis128l/aegis128l_common.h:31:9 @[ crypto_aead/aegis128l/aegis128l_common.h:166:5 ] ]
	vaesenc	%xmm4, %xmm10, %xmm4
	.loc	5 50 16                         # crypto_aead/aegis128l/aegis128l_aesni.c:50:16 @[ crypto_aead/aegis128l/aegis128l_common.h:31:9 @[ crypto_aead/aegis128l/aegis128l_common.h:166:5 ] ]
	vaesenc	%xmm10, %xmm3, %xmm10
	.loc	5 51 16                         # crypto_aead/aegis128l/aegis128l_aesni.c:51:16 @[ crypto_aead/aegis128l/aegis128l_common.h:31:9 @[ crypto_aead/aegis128l/aegis128l_common.h:166:5 ] ]
	vaesenc	%xmm3, %xmm5, %xmm6
	.loc	5 52 16                         # crypto_aead/aegis128l/aegis128l_aesni.c:52:16 @[ crypto_aead/aegis128l/aegis128l_common.h:31:9 @[ crypto_aead/aegis128l/aegis128l_common.h:166:5 ] ]
	vaesenc	%xmm5, %xmm9, %xmm13
	.loc	5 53 16                         # crypto_aead/aegis128l/aegis128l_aesni.c:53:16 @[ crypto_aead/aegis128l/aegis128l_common.h:31:9 @[ crypto_aead/aegis128l/aegis128l_common.h:166:5 ] ]
	vaesenc	%xmm9, %xmm7, %xmm3
	movq	16(%rbp), %r14
	.loc	5 55 16                         # crypto_aead/aegis128l/aegis128l_aesni.c:55:16 @[ crypto_aead/aegis128l/aegis128l_common.h:31:9 @[ crypto_aead/aegis128l/aegis128l_common.h:166:5 ] ]
	vpxor	%xmm2, %xmm3, %xmm8
	.loc	5 56 16                         # crypto_aead/aegis128l/aegis128l_aesni.c:56:16 @[ crypto_aead/aegis128l/aegis128l_common.h:31:9 @[ crypto_aead/aegis128l/aegis128l_common.h:166:5 ] ]
	vpxor	%xmm1, %xmm4, %xmm7
.Ltmp24:
	#DEBUG_VALUE: encrypt_detached:state <- [DW_OP_LLVM_fragment 512 128] $xmm7
	#DEBUG_VALUE: aegis128l_init:i <- 10
	#DEBUG_VALUE: encrypt_detached:state <- [DW_OP_LLVM_fragment 896 128] $xmm0
	#DEBUG_VALUE: encrypt_detached:state <- [DW_OP_LLVM_fragment 768 128] $xmm11
	#DEBUG_VALUE: encrypt_detached:state <- [DW_OP_LLVM_fragment 640 128] $xmm12
	#DEBUG_VALUE: encrypt_detached:state <- [DW_OP_LLVM_fragment 384 128] $xmm10
	#DEBUG_VALUE: encrypt_detached:state <- [DW_OP_LLVM_fragment 256 128] $xmm6
	#DEBUG_VALUE: encrypt_detached:state <- [DW_OP_LLVM_fragment 128 128] $xmm13
	#DEBUG_VALUE: encrypt_detached:state <- [DW_OP_LLVM_fragment 0 128] $xmm8
	#DEBUG_VALUE: encrypt_detached:i <- 0
	.loc	6 168 28                        # crypto_aead/aegis128l/aegis128l_common.h:168:28
	cmpq	$64, %r14
.Ltmp25:
	.loc	6 168 5 is_stmt 0               # crypto_aead/aegis128l/aegis128l_common.h:168:5
	jae	.LBB0_4
.Ltmp26:
# %bb.1:
	#DEBUG_VALUE: encrypt_detached:c <- $r12
	#DEBUG_VALUE: encrypt_detached:mac <- [DW_OP_plus_uconst 104] [$rsp+0]
	#DEBUG_VALUE: encrypt_detached:maclen <- [DW_OP_plus_uconst 168] [$rsp+0]
	#DEBUG_VALUE: encrypt_detached:m <- $r13
	#DEBUG_VALUE: encrypt_detached:mlen <- $r15
	#DEBUG_VALUE: encrypt_detached:ad <- $r9
	#DEBUG_VALUE: encrypt_detached:adlen <- [DW_OP_plus_uconst 16] [$rbp+0]
	#DEBUG_VALUE: encrypt_detached:npub <- [DW_OP_plus_uconst 24] [$rbp+0]
	#DEBUG_VALUE: encrypt_detached:k <- [DW_OP_plus_uconst 32] [$rbp+0]
	#DEBUG_VALUE: aegis128l_init:nonce <- $rax
	#DEBUG_VALUE: aegis128l_init:key <- $rcx
	#DEBUG_VALUE: aegis128l_init:k <- $xmm1
	#DEBUG_VALUE: aegis128l_init:n <- $xmm2
	#DEBUG_VALUE: aegis128l_init:i <- 10
	#DEBUG_VALUE: aegis128l_update:d1 <- $xmm2
	#DEBUG_VALUE: aegis128l_update:d2 <- $xmm1
	#DEBUG_VALUE: encrypt_detached:state <- [DW_OP_LLVM_fragment 512 128] $xmm7
	#DEBUG_VALUE: encrypt_detached:state <- [DW_OP_LLVM_fragment 896 128] $xmm0
	#DEBUG_VALUE: encrypt_detached:state <- [DW_OP_LLVM_fragment 768 128] $xmm11
	#DEBUG_VALUE: encrypt_detached:state <- [DW_OP_LLVM_fragment 640 128] $xmm12
	#DEBUG_VALUE: encrypt_detached:state <- [DW_OP_LLVM_fragment 384 128] $xmm10
	#DEBUG_VALUE: encrypt_detached:state <- [DW_OP_LLVM_fragment 256 128] $xmm6
	#DEBUG_VALUE: encrypt_detached:state <- [DW_OP_LLVM_fragment 128 128] $xmm13
	#DEBUG_VALUE: encrypt_detached:state <- [DW_OP_LLVM_fragment 0 128] $xmm8
	#DEBUG_VALUE: encrypt_detached:i <- 0
	.loc	6 0 5                           # crypto_aead/aegis128l/aegis128l_common.h:0:5
	xorl	%eax, %eax
	jmp	.LBB0_2
.Ltmp27:
.LBB0_4:                                # %.lr.ph.preheader
	#DEBUG_VALUE: encrypt_detached:c <- $r12
	#DEBUG_VALUE: encrypt_detached:mac <- [DW_OP_plus_uconst 104] [$rsp+0]
	#DEBUG_VALUE: encrypt_detached:maclen <- [DW_OP_plus_uconst 168] [$rsp+0]
	#DEBUG_VALUE: encrypt_detached:m <- $r13
	#DEBUG_VALUE: encrypt_detached:mlen <- $r15
	#DEBUG_VALUE: encrypt_detached:ad <- $r9
	#DEBUG_VALUE: encrypt_detached:adlen <- [DW_OP_plus_uconst 16] [$rbp+0]
	#DEBUG_VALUE: encrypt_detached:npub <- [DW_OP_plus_uconst 24] [$rbp+0]
	#DEBUG_VALUE: encrypt_detached:k <- [DW_OP_plus_uconst 32] [$rbp+0]
	#DEBUG_VALUE: aegis128l_init:nonce <- $rax
	#DEBUG_VALUE: aegis128l_init:key <- $rcx
	#DEBUG_VALUE: aegis128l_init:k <- $xmm1
	#DEBUG_VALUE: aegis128l_init:n <- $xmm2
	#DEBUG_VALUE: aegis128l_init:i <- 10
	#DEBUG_VALUE: aegis128l_update:d1 <- $xmm2
	#DEBUG_VALUE: aegis128l_update:d2 <- $xmm1
	#DEBUG_VALUE: encrypt_detached:state <- [DW_OP_LLVM_fragment 512 128] $xmm7
	#DEBUG_VALUE: encrypt_detached:state <- [DW_OP_LLVM_fragment 896 128] $xmm0
	#DEBUG_VALUE: encrypt_detached:state <- [DW_OP_LLVM_fragment 768 128] $xmm11
	#DEBUG_VALUE: encrypt_detached:state <- [DW_OP_LLVM_fragment 640 128] $xmm12
	#DEBUG_VALUE: encrypt_detached:state <- [DW_OP_LLVM_fragment 384 128] $xmm10
	#DEBUG_VALUE: encrypt_detached:state <- [DW_OP_LLVM_fragment 256 128] $xmm6
	#DEBUG_VALUE: encrypt_detached:state <- [DW_OP_LLVM_fragment 128 128] $xmm13
	#DEBUG_VALUE: encrypt_detached:state <- [DW_OP_LLVM_fragment 0 128] $xmm8
	#DEBUG_VALUE: encrypt_detached:i <- 0
	xorl	%ecx, %ecx
.Ltmp28:
	.p2align	4
.LBB0_5:                                # %.lr.ph
                                        # =>This Inner Loop Header: Depth=1
	#DEBUG_VALUE: encrypt_detached:c <- $r12
	#DEBUG_VALUE: encrypt_detached:mac <- [DW_OP_plus_uconst 104] [$rsp+0]
	#DEBUG_VALUE: encrypt_detached:maclen <- [DW_OP_plus_uconst 168] [$rsp+0]
	#DEBUG_VALUE: encrypt_detached:m <- $r13
	#DEBUG_VALUE: encrypt_detached:mlen <- $r15
	#DEBUG_VALUE: encrypt_detached:ad <- $r9
	#DEBUG_VALUE: encrypt_detached:adlen <- [DW_OP_plus_uconst 16] [$rbp+0]
	#DEBUG_VALUE: encrypt_detached:npub <- [DW_OP_plus_uconst 24] [$rbp+0]
	#DEBUG_VALUE: encrypt_detached:k <- [DW_OP_plus_uconst 32] [$rbp+0]
	#DEBUG_VALUE: encrypt_detached:state <- [DW_OP_LLVM_fragment 512 128] $xmm7
	#DEBUG_VALUE: encrypt_detached:state <- [DW_OP_LLVM_fragment 896 128] $xmm0
	#DEBUG_VALUE: encrypt_detached:state <- [DW_OP_LLVM_fragment 768 128] $xmm11
	#DEBUG_VALUE: encrypt_detached:state <- [DW_OP_LLVM_fragment 640 128] $xmm12
	#DEBUG_VALUE: encrypt_detached:state <- [DW_OP_LLVM_fragment 384 128] $xmm10
	#DEBUG_VALUE: encrypt_detached:state <- [DW_OP_LLVM_fragment 256 128] $xmm6
	#DEBUG_VALUE: encrypt_detached:state <- [DW_OP_LLVM_fragment 128 128] $xmm13
	#DEBUG_VALUE: encrypt_detached:state <- [DW_OP_LLVM_fragment 0 128] $xmm8
	#DEBUG_VALUE: encrypt_detached:i <- $rcx
	#DEBUG_VALUE: encrypt_detached:state <- [DW_OP_LLVM_fragment 0 128] $xmm8
	#DEBUG_VALUE: encrypt_detached:state <- [DW_OP_LLVM_fragment 128 128] $xmm13
	#DEBUG_VALUE: encrypt_detached:state <- [DW_OP_LLVM_fragment 256 128] $xmm6
	#DEBUG_VALUE: encrypt_detached:state <- [DW_OP_LLVM_fragment 384 128] $xmm10
	#DEBUG_VALUE: encrypt_detached:state <- [DW_OP_LLVM_fragment 512 128] $xmm7
	#DEBUG_VALUE: encrypt_detached:state <- [DW_OP_LLVM_fragment 640 128] $xmm12
	#DEBUG_VALUE: encrypt_detached:state <- [DW_OP_LLVM_fragment 768 128] $xmm11
	#DEBUG_VALUE: encrypt_detached:state <- [DW_OP_LLVM_fragment 896 128] $xmm0
	#DEBUG_VALUE: aegis128l_absorb2:src <- [DW_OP_LLVM_arg 0, DW_OP_consts 64, DW_OP_div, DW_OP_consts 64, DW_OP_mul, DW_OP_LLVM_arg 1, DW_OP_plus, DW_OP_stack_value] $rcx, $r9
	#DEBUG_VALUE: aegis128l_absorb2:state <- undef
	#DEBUG_VALUE: aegis128l_absorb2:msg0 <- undef
	#DEBUG_VALUE: aegis128l_absorb2:msg1 <- undef
	#DEBUG_VALUE: aegis128l_absorb2:msg2 <- undef
	#DEBUG_VALUE: aegis128l_absorb2:msg3 <- undef
	#DEBUG_VALUE: aegis128l_update:state <- undef
	#DEBUG_VALUE: aegis128l_update:d1 <- undef
	#DEBUG_VALUE: aegis128l_update:d2 <- undef
	#DEBUG_VALUE: aegis128l_update:tmp <- $xmm0
	.loc	5 46 16 is_stmt 1               # crypto_aead/aegis128l/aegis128l_aesni.c:46:16 @[ crypto_aead/aegis128l/aegis128l_common.h:84:5 @[ crypto_aead/aegis128l/aegis128l_common.h:169:9 ] ]
	vaesenc	%xmm0, %xmm11, %xmm1
	.loc	5 47 16                         # crypto_aead/aegis128l/aegis128l_aesni.c:47:16 @[ crypto_aead/aegis128l/aegis128l_common.h:84:5 @[ crypto_aead/aegis128l/aegis128l_common.h:169:9 ] ]
	vaesenc	%xmm11, %xmm12, %xmm2
	.loc	5 48 16                         # crypto_aead/aegis128l/aegis128l_aesni.c:48:16 @[ crypto_aead/aegis128l/aegis128l_common.h:84:5 @[ crypto_aead/aegis128l/aegis128l_common.h:169:9 ] ]
	vaesenc	%xmm12, %xmm7, %xmm3
	.loc	5 49 16                         # crypto_aead/aegis128l/aegis128l_aesni.c:49:16 @[ crypto_aead/aegis128l/aegis128l_common.h:84:5 @[ crypto_aead/aegis128l/aegis128l_common.h:169:9 ] ]
	vaesenc	%xmm7, %xmm10, %xmm4
	.loc	5 50 16                         # crypto_aead/aegis128l/aegis128l_aesni.c:50:16 @[ crypto_aead/aegis128l/aegis128l_common.h:84:5 @[ crypto_aead/aegis128l/aegis128l_common.h:169:9 ] ]
	vaesenc	%xmm10, %xmm6, %xmm5
	.loc	5 51 16                         # crypto_aead/aegis128l/aegis128l_aesni.c:51:16 @[ crypto_aead/aegis128l/aegis128l_common.h:84:5 @[ crypto_aead/aegis128l/aegis128l_common.h:169:9 ] ]
	vaesenc	%xmm6, %xmm13, %xmm6
.Ltmp29:
	.loc	5 52 16                         # crypto_aead/aegis128l/aegis128l_aesni.c:52:16 @[ crypto_aead/aegis128l/aegis128l_common.h:84:5 @[ crypto_aead/aegis128l/aegis128l_common.h:169:9 ] ]
	vaesenc	%xmm13, %xmm8, %xmm7
.Ltmp30:
	.loc	5 53 16                         # crypto_aead/aegis128l/aegis128l_aesni.c:53:16 @[ crypto_aead/aegis128l/aegis128l_common.h:84:5 @[ crypto_aead/aegis128l/aegis128l_common.h:169:9 ] ]
	vaesenc	%xmm8, %xmm0, %xmm0
.Ltmp31:
	.loc	5 55 16                         # crypto_aead/aegis128l/aegis128l_aesni.c:55:16 @[ crypto_aead/aegis128l/aegis128l_common.h:84:5 @[ crypto_aead/aegis128l/aegis128l_common.h:169:9 ] ]
	vpxor	(%r9,%rcx), %xmm0, %xmm8
.Ltmp32:
	.loc	5 56 16                         # crypto_aead/aegis128l/aegis128l_aesni.c:56:16 @[ crypto_aead/aegis128l/aegis128l_common.h:84:5 @[ crypto_aead/aegis128l/aegis128l_common.h:169:9 ] ]
	vpxor	16(%r9,%rcx), %xmm4, %xmm4
.Ltmp33:
	#DEBUG_VALUE: aegis128l_update:state <- undef
	#DEBUG_VALUE: aegis128l_update:d1 <- undef
	#DEBUG_VALUE: aegis128l_update:d2 <- undef
	#DEBUG_VALUE: aegis128l_update:tmp <- $xmm1
	.loc	5 46 16                         # crypto_aead/aegis128l/aegis128l_aesni.c:46:16 @[ crypto_aead/aegis128l/aegis128l_common.h:85:5 @[ crypto_aead/aegis128l/aegis128l_common.h:169:9 ] ]
	vaesenc	%xmm1, %xmm2, %xmm0
.Ltmp34:
	#DEBUG_VALUE: encrypt_detached:state <- [DW_OP_LLVM_fragment 896 128] $xmm0
	.loc	5 47 16                         # crypto_aead/aegis128l/aegis128l_aesni.c:47:16 @[ crypto_aead/aegis128l/aegis128l_common.h:85:5 @[ crypto_aead/aegis128l/aegis128l_common.h:169:9 ] ]
	vaesenc	%xmm2, %xmm3, %xmm11
.Ltmp35:
	#DEBUG_VALUE: encrypt_detached:state <- [DW_OP_LLVM_fragment 768 128] $xmm11
	.loc	5 48 16                         # crypto_aead/aegis128l/aegis128l_aesni.c:48:16 @[ crypto_aead/aegis128l/aegis128l_common.h:85:5 @[ crypto_aead/aegis128l/aegis128l_common.h:169:9 ] ]
	vaesenc	%xmm3, %xmm4, %xmm12
.Ltmp36:
	#DEBUG_VALUE: encrypt_detached:state <- [DW_OP_LLVM_fragment 640 128] $xmm12
	.loc	5 49 16                         # crypto_aead/aegis128l/aegis128l_aesni.c:49:16 @[ crypto_aead/aegis128l/aegis128l_common.h:85:5 @[ crypto_aead/aegis128l/aegis128l_common.h:169:9 ] ]
	vaesenc	%xmm4, %xmm5, %xmm2
	.loc	5 50 16                         # crypto_aead/aegis128l/aegis128l_aesni.c:50:16 @[ crypto_aead/aegis128l/aegis128l_common.h:85:5 @[ crypto_aead/aegis128l/aegis128l_common.h:169:9 ] ]
	vaesenc	%xmm5, %xmm6, %xmm10
.Ltmp37:
	#DEBUG_VALUE: encrypt_detached:state <- [DW_OP_LLVM_fragment 384 128] $xmm10
	.loc	5 51 16                         # crypto_aead/aegis128l/aegis128l_aesni.c:51:16 @[ crypto_aead/aegis128l/aegis128l_common.h:85:5 @[ crypto_aead/aegis128l/aegis128l_common.h:169:9 ] ]
	vaesenc	%xmm6, %xmm7, %xmm6
.Ltmp38:
	#DEBUG_VALUE: encrypt_detached:state <- [DW_OP_LLVM_fragment 256 128] $xmm6
	.loc	5 52 16                         # crypto_aead/aegis128l/aegis128l_aesni.c:52:16 @[ crypto_aead/aegis128l/aegis128l_common.h:85:5 @[ crypto_aead/aegis128l/aegis128l_common.h:169:9 ] ]
	vaesenc	%xmm7, %xmm8, %xmm13
.Ltmp39:
	#DEBUG_VALUE: encrypt_detached:state <- [DW_OP_LLVM_fragment 128 128] $xmm13
	.loc	5 53 16                         # crypto_aead/aegis128l/aegis128l_aesni.c:53:16 @[ crypto_aead/aegis128l/aegis128l_common.h:85:5 @[ crypto_aead/aegis128l/aegis128l_common.h:169:9 ] ]
	vaesenc	%xmm8, %xmm1, %xmm1
.Ltmp40:
	.loc	5 55 16                         # crypto_aead/aegis128l/aegis128l_aesni.c:55:16 @[ crypto_aead/aegis128l/aegis128l_common.h:85:5 @[ crypto_aead/aegis128l/aegis128l_common.h:169:9 ] ]
	vpxor	32(%r9,%rcx), %xmm1, %xmm8
.Ltmp41:
	#DEBUG_VALUE: encrypt_detached:state <- [DW_OP_LLVM_fragment 0 128] $xmm8
	.loc	5 56 16                         # crypto_aead/aegis128l/aegis128l_aesni.c:56:16 @[ crypto_aead/aegis128l/aegis128l_common.h:85:5 @[ crypto_aead/aegis128l/aegis128l_common.h:169:9 ] ]
	vpxor	48(%r9,%rcx), %xmm2, %xmm7
.Ltmp42:
	#DEBUG_VALUE: encrypt_detached:state <- [DW_OP_LLVM_fragment 512 128] $xmm7
	#DEBUG_VALUE: encrypt_detached:state <- [DW_OP_LLVM_fragment 128 128] $xmm13
	#DEBUG_VALUE: encrypt_detached:state <- [DW_OP_LLVM_fragment 256 128] $xmm6
	#DEBUG_VALUE: encrypt_detached:state <- [DW_OP_LLVM_fragment 384 128] $xmm10
	#DEBUG_VALUE: encrypt_detached:state <- [DW_OP_LLVM_fragment 640 128] $xmm12
	#DEBUG_VALUE: encrypt_detached:state <- [DW_OP_LLVM_fragment 768 128] $xmm11
	#DEBUG_VALUE: encrypt_detached:state <- [DW_OP_LLVM_fragment 896 128] $xmm0
	#DEBUG_VALUE: encrypt_detached:i <- [DW_OP_plus_uconst 64, DW_OP_stack_value] $rcx
	.loc	6 168 28                        # crypto_aead/aegis128l/aegis128l_common.h:168:28
	leaq	64(%rcx), %rax
	subq	$-128, %rcx
.Ltmp43:
	cmpq	%r14, %rcx
	movq	%rax, %rcx
.Ltmp44:
	.loc	6 168 5 is_stmt 0               # crypto_aead/aegis128l/aegis128l_common.h:168:5
	jbe	.LBB0_5
.Ltmp45:
.LBB0_2:                                # %.preheader
	#DEBUG_VALUE: encrypt_detached:c <- $r12
	#DEBUG_VALUE: encrypt_detached:mac <- [DW_OP_plus_uconst 104] [$rsp+0]
	#DEBUG_VALUE: encrypt_detached:maclen <- [DW_OP_plus_uconst 168] [$rsp+0]
	#DEBUG_VALUE: encrypt_detached:m <- $r13
	#DEBUG_VALUE: encrypt_detached:mlen <- $r15
	#DEBUG_VALUE: encrypt_detached:ad <- $r9
	#DEBUG_VALUE: encrypt_detached:adlen <- [DW_OP_plus_uconst 16] [$rbp+0]
	#DEBUG_VALUE: encrypt_detached:npub <- [DW_OP_plus_uconst 24] [$rbp+0]
	#DEBUG_VALUE: encrypt_detached:k <- [DW_OP_plus_uconst 32] [$rbp+0]
	#DEBUG_VALUE: encrypt_detached:state <- [DW_OP_LLVM_fragment 512 128] $xmm7
	#DEBUG_VALUE: encrypt_detached:state <- [DW_OP_LLVM_fragment 896 128] $xmm0
	#DEBUG_VALUE: encrypt_detached:state <- [DW_OP_LLVM_fragment 768 128] $xmm11
	#DEBUG_VALUE: encrypt_detached:state <- [DW_OP_LLVM_fragment 640 128] $xmm12
	#DEBUG_VALUE: encrypt_detached:state <- [DW_OP_LLVM_fragment 384 128] $xmm10
	#DEBUG_VALUE: encrypt_detached:state <- [DW_OP_LLVM_fragment 256 128] $xmm6
	#DEBUG_VALUE: encrypt_detached:state <- [DW_OP_LLVM_fragment 128 128] $xmm13
	#DEBUG_VALUE: encrypt_detached:state <- [DW_OP_LLVM_fragment 0 128] $xmm8
	#DEBUG_VALUE: encrypt_detached:state <- [DW_OP_LLVM_fragment 0 128] $xmm8
	#DEBUG_VALUE: encrypt_detached:state <- [DW_OP_LLVM_fragment 128 128] $xmm13
	#DEBUG_VALUE: encrypt_detached:state <- [DW_OP_LLVM_fragment 256 128] $xmm6
	#DEBUG_VALUE: encrypt_detached:state <- [DW_OP_LLVM_fragment 384 128] $xmm10
	#DEBUG_VALUE: encrypt_detached:state <- [DW_OP_LLVM_fragment 512 128] $xmm7
	#DEBUG_VALUE: encrypt_detached:state <- [DW_OP_LLVM_fragment 640 128] $xmm12
	#DEBUG_VALUE: encrypt_detached:state <- [DW_OP_LLVM_fragment 768 128] $xmm11
	#DEBUG_VALUE: encrypt_detached:state <- [DW_OP_LLVM_fragment 896 128] $xmm0
	#DEBUG_VALUE: encrypt_detached:i <- $rax
	.loc	6 171 14 is_stmt 1              # crypto_aead/aegis128l/aegis128l_common.h:171:14
	movq	%rax, %rcx
	orq	$32, %rcx
	.loc	6 171 19 is_stmt 0              # crypto_aead/aegis128l/aegis128l_common.h:171:19
	cmpq	%r14, %rcx
.Ltmp46:
	.loc	6 171 5                         # crypto_aead/aegis128l/aegis128l_common.h:171:5
	jbe	.LBB0_6
.Ltmp47:
# %bb.3:
	#DEBUG_VALUE: encrypt_detached:c <- $r12
	#DEBUG_VALUE: encrypt_detached:mac <- [DW_OP_plus_uconst 104] [$rsp+0]
	#DEBUG_VALUE: encrypt_detached:maclen <- [DW_OP_plus_uconst 168] [$rsp+0]
	#DEBUG_VALUE: encrypt_detached:m <- $r13
	#DEBUG_VALUE: encrypt_detached:mlen <- $r15
	#DEBUG_VALUE: encrypt_detached:ad <- $r9
	#DEBUG_VALUE: encrypt_detached:adlen <- [DW_OP_plus_uconst 16] [$rbp+0]
	#DEBUG_VALUE: encrypt_detached:npub <- [DW_OP_plus_uconst 24] [$rbp+0]
	#DEBUG_VALUE: encrypt_detached:k <- [DW_OP_plus_uconst 32] [$rbp+0]
	#DEBUG_VALUE: encrypt_detached:state <- [DW_OP_LLVM_fragment 512 128] $xmm7
	#DEBUG_VALUE: encrypt_detached:state <- [DW_OP_LLVM_fragment 896 128] $xmm0
	#DEBUG_VALUE: encrypt_detached:state <- [DW_OP_LLVM_fragment 768 128] $xmm11
	#DEBUG_VALUE: encrypt_detached:state <- [DW_OP_LLVM_fragment 640 128] $xmm12
	#DEBUG_VALUE: encrypt_detached:state <- [DW_OP_LLVM_fragment 384 128] $xmm10
	#DEBUG_VALUE: encrypt_detached:state <- [DW_OP_LLVM_fragment 256 128] $xmm6
	#DEBUG_VALUE: encrypt_detached:state <- [DW_OP_LLVM_fragment 128 128] $xmm13
	#DEBUG_VALUE: encrypt_detached:state <- [DW_OP_LLVM_fragment 0 128] $xmm8
	#DEBUG_VALUE: encrypt_detached:i <- $rax
	.loc	6 0 5                           # crypto_aead/aegis128l/aegis128l_common.h:0:5
	vmovdqa	%xmm0, %xmm9
	movq	%rax, %rcx
	.loc	6 171 5                         # crypto_aead/aegis128l/aegis128l_common.h:171:5
	jmp	.LBB0_7
.Ltmp48:
	.loc	6 0 5                           # :0:5
.Ltmp49:
	.p2align	4
.LBB0_6:                                # %.lr.ph128
                                        # =>This Inner Loop Header: Depth=1
	#DEBUG_VALUE: encrypt_detached:c <- $r12
	#DEBUG_VALUE: encrypt_detached:mac <- [DW_OP_plus_uconst 104] [$rsp+0]
	#DEBUG_VALUE: encrypt_detached:maclen <- [DW_OP_plus_uconst 168] [$rsp+0]
	#DEBUG_VALUE: encrypt_detached:m <- $r13
	#DEBUG_VALUE: encrypt_detached:mlen <- $r15
	#DEBUG_VALUE: encrypt_detached:ad <- $r9
	#DEBUG_VALUE: encrypt_detached:adlen <- [DW_OP_plus_uconst 16] [$rbp+0]
	#DEBUG_VALUE: encrypt_detached:npub <- [DW_OP_plus_uconst 24] [$rbp+0]
	#DEBUG_VALUE: encrypt_detached:k <- [DW_OP_plus_uconst 32] [$rbp+0]
	#DEBUG_VALUE: encrypt_detached:state <- [DW_OP_LLVM_fragment 512 128] $xmm7
	#DEBUG_VALUE: encrypt_detached:state <- [DW_OP_LLVM_fragment 768 128] $xmm11
	#DEBUG_VALUE: encrypt_detached:state <- [DW_OP_LLVM_fragment 640 128] $xmm12
	#DEBUG_VALUE: encrypt_detached:state <- [DW_OP_LLVM_fragment 384 128] $xmm10
	#DEBUG_VALUE: encrypt_detached:state <- [DW_OP_LLVM_fragment 256 128] $xmm6
	#DEBUG_VALUE: encrypt_detached:state <- [DW_OP_LLVM_fragment 128 128] $xmm13
	#DEBUG_VALUE: encrypt_detached:state <- [DW_OP_LLVM_fragment 0 128] $xmm8
	#DEBUG_VALUE: encrypt_detached:i <- $rax
	#DEBUG_VALUE: encrypt_detached:state <- [DW_OP_LLVM_fragment 0 128] $xmm8
	#DEBUG_VALUE: encrypt_detached:state <- [DW_OP_LLVM_fragment 128 128] $xmm13
	#DEBUG_VALUE: encrypt_detached:state <- [DW_OP_LLVM_fragment 256 128] $xmm6
	#DEBUG_VALUE: encrypt_detached:state <- [DW_OP_LLVM_fragment 384 128] $xmm10
	#DEBUG_VALUE: encrypt_detached:state <- [DW_OP_LLVM_fragment 512 128] $xmm7
	#DEBUG_VALUE: encrypt_detached:state <- [DW_OP_LLVM_fragment 640 128] $xmm12
	#DEBUG_VALUE: encrypt_detached:state <- [DW_OP_LLVM_fragment 768 128] $xmm11
	#DEBUG_VALUE: encrypt_detached:state <- [DW_OP_LLVM_fragment 896 128] $xmm0
	#DEBUG_VALUE: aegis128l_absorb:src <- [DW_OP_LLVM_arg 0, DW_OP_LLVM_arg 1, DW_OP_minus, DW_OP_consts 32, DW_OP_div, DW_OP_consts 32, DW_OP_mul, DW_OP_LLVM_arg 1, DW_OP_LLVM_arg 2, DW_OP_plus, DW_OP_plus, DW_OP_stack_value] undef, undef, undef
	#DEBUG_VALUE: aegis128l_absorb:state <- undef
	#DEBUG_VALUE: aegis128l_absorb:msg0 <- undef
	#DEBUG_VALUE: aegis128l_absorb:msg1 <- undef
	#DEBUG_VALUE: aegis128l_update:state <- undef
	#DEBUG_VALUE: aegis128l_update:d1 <- undef
	#DEBUG_VALUE: aegis128l_update:d2 <- undef
	#DEBUG_VALUE: aegis128l_update:tmp <- $xmm0
	.loc	5 46 16 is_stmt 1               # crypto_aead/aegis128l/aegis128l_aesni.c:46:16 @[ crypto_aead/aegis128l/aegis128l_common.h:72:5 @[ crypto_aead/aegis128l/aegis128l_common.h:172:9 ] ]
	vaesenc	%xmm0, %xmm11, %xmm9
.Ltmp50:
	#DEBUG_VALUE: encrypt_detached:state <- [DW_OP_LLVM_fragment 896 128] $xmm9
	.loc	5 47 16                         # crypto_aead/aegis128l/aegis128l_aesni.c:47:16 @[ crypto_aead/aegis128l/aegis128l_common.h:72:5 @[ crypto_aead/aegis128l/aegis128l_common.h:172:9 ] ]
	vaesenc	%xmm11, %xmm12, %xmm11
.Ltmp51:
	#DEBUG_VALUE: encrypt_detached:state <- [DW_OP_LLVM_fragment 768 128] $xmm11
	.loc	5 48 16                         # crypto_aead/aegis128l/aegis128l_aesni.c:48:16 @[ crypto_aead/aegis128l/aegis128l_common.h:72:5 @[ crypto_aead/aegis128l/aegis128l_common.h:172:9 ] ]
	vaesenc	%xmm12, %xmm7, %xmm12
.Ltmp52:
	#DEBUG_VALUE: encrypt_detached:state <- [DW_OP_LLVM_fragment 640 128] $xmm12
	.loc	5 49 16                         # crypto_aead/aegis128l/aegis128l_aesni.c:49:16 @[ crypto_aead/aegis128l/aegis128l_common.h:72:5 @[ crypto_aead/aegis128l/aegis128l_common.h:172:9 ] ]
	vaesenc	%xmm7, %xmm10, %xmm1
	.loc	5 50 16                         # crypto_aead/aegis128l/aegis128l_aesni.c:50:16 @[ crypto_aead/aegis128l/aegis128l_common.h:72:5 @[ crypto_aead/aegis128l/aegis128l_common.h:172:9 ] ]
	vaesenc	%xmm10, %xmm6, %xmm10
.Ltmp53:
	#DEBUG_VALUE: encrypt_detached:state <- [DW_OP_LLVM_fragment 384 128] $xmm10
	.loc	5 51 16                         # crypto_aead/aegis128l/aegis128l_aesni.c:51:16 @[ crypto_aead/aegis128l/aegis128l_common.h:72:5 @[ crypto_aead/aegis128l/aegis128l_common.h:172:9 ] ]
	vaesenc	%xmm6, %xmm13, %xmm6
.Ltmp54:
	#DEBUG_VALUE: encrypt_detached:state <- [DW_OP_LLVM_fragment 256 128] $xmm6
	.loc	5 52 16                         # crypto_aead/aegis128l/aegis128l_aesni.c:52:16 @[ crypto_aead/aegis128l/aegis128l_common.h:72:5 @[ crypto_aead/aegis128l/aegis128l_common.h:172:9 ] ]
	vaesenc	%xmm13, %xmm8, %xmm13
.Ltmp55:
	#DEBUG_VALUE: encrypt_detached:state <- [DW_OP_LLVM_fragment 128 128] $xmm13
	.loc	5 53 16                         # crypto_aead/aegis128l/aegis128l_aesni.c:53:16 @[ crypto_aead/aegis128l/aegis128l_common.h:72:5 @[ crypto_aead/aegis128l/aegis128l_common.h:172:9 ] ]
	vaesenc	%xmm8, %xmm0, %xmm0
.Ltmp56:
	.loc	5 55 16                         # crypto_aead/aegis128l/aegis128l_aesni.c:55:16 @[ crypto_aead/aegis128l/aegis128l_common.h:72:5 @[ crypto_aead/aegis128l/aegis128l_common.h:172:9 ] ]
	vpxor	(%r9,%rax), %xmm0, %xmm8
.Ltmp57:
	#DEBUG_VALUE: encrypt_detached:state <- [DW_OP_LLVM_fragment 0 128] $xmm8
	.loc	5 56 16                         # crypto_aead/aegis128l/aegis128l_aesni.c:56:16 @[ crypto_aead/aegis128l/aegis128l_common.h:72:5 @[ crypto_aead/aegis128l/aegis128l_common.h:172:9 ] ]
	vpxor	16(%r9,%rax), %xmm1, %xmm7
.Ltmp58:
	#DEBUG_VALUE: encrypt_detached:state <- [DW_OP_LLVM_fragment 512 128] $xmm7
	#DEBUG_VALUE: encrypt_detached:state <- [DW_OP_LLVM_fragment 128 128] $xmm13
	#DEBUG_VALUE: encrypt_detached:state <- [DW_OP_LLVM_fragment 256 128] $xmm6
	#DEBUG_VALUE: encrypt_detached:state <- [DW_OP_LLVM_fragment 384 128] $xmm10
	#DEBUG_VALUE: encrypt_detached:state <- [DW_OP_LLVM_fragment 640 128] $xmm12
	#DEBUG_VALUE: encrypt_detached:state <- [DW_OP_LLVM_fragment 768 128] $xmm11
	#DEBUG_VALUE: encrypt_detached:state <- [DW_OP_LLVM_fragment 896 128] $xmm9
	#DEBUG_VALUE: encrypt_detached:i <- [DW_OP_plus_uconst 32, DW_OP_stack_value] $rax
	.loc	6 171 19                        # crypto_aead/aegis128l/aegis128l_common.h:171:19
	leaq	32(%rax), %rcx
	addq	$64, %rax
.Ltmp59:
	.loc	6 0 19 is_stmt 0                # crypto_aead/aegis128l/aegis128l_common.h:0:19
	vmovdqa	%xmm9, %xmm0
	.loc	6 171 19                        # crypto_aead/aegis128l/aegis128l_common.h:171:19
	cmpq	%r14, %rax
	movq	%rcx, %rax
.Ltmp60:
	.loc	6 171 5                         # crypto_aead/aegis128l/aegis128l_common.h:171:5
	jbe	.LBB0_6
.Ltmp61:
.LBB0_7:                                # %._crit_edge
	#DEBUG_VALUE: encrypt_detached:c <- $r12
	#DEBUG_VALUE: encrypt_detached:mac <- [DW_OP_plus_uconst 104] [$rsp+0]
	#DEBUG_VALUE: encrypt_detached:maclen <- [DW_OP_plus_uconst 168] [$rsp+0]
	#DEBUG_VALUE: encrypt_detached:m <- $r13
	#DEBUG_VALUE: encrypt_detached:mlen <- $r15
	#DEBUG_VALUE: encrypt_detached:ad <- $r9
	#DEBUG_VALUE: encrypt_detached:adlen <- [DW_OP_plus_uconst 16] [$rbp+0]
	#DEBUG_VALUE: encrypt_detached:npub <- [DW_OP_plus_uconst 24] [$rbp+0]
	#DEBUG_VALUE: encrypt_detached:k <- [DW_OP_plus_uconst 32] [$rbp+0]
	#DEBUG_VALUE: encrypt_detached:state <- [DW_OP_LLVM_fragment 512 128] $xmm7
	#DEBUG_VALUE: encrypt_detached:state <- [DW_OP_LLVM_fragment 768 128] $xmm11
	#DEBUG_VALUE: encrypt_detached:state <- [DW_OP_LLVM_fragment 640 128] $xmm12
	#DEBUG_VALUE: encrypt_detached:state <- [DW_OP_LLVM_fragment 384 128] $xmm10
	#DEBUG_VALUE: encrypt_detached:state <- [DW_OP_LLVM_fragment 256 128] $xmm6
	#DEBUG_VALUE: encrypt_detached:state <- [DW_OP_LLVM_fragment 128 128] $xmm13
	#DEBUG_VALUE: encrypt_detached:state <- [DW_OP_LLVM_fragment 0 128] $xmm8
	.loc	6 174 15 is_stmt 1              # crypto_aead/aegis128l/aegis128l_common.h:174:15
	movq	%r14, %rdx
	andq	$31, %rdx
	je	.LBB0_9
.Ltmp62:
# %bb.8:
	#DEBUG_VALUE: encrypt_detached:c <- $r12
	#DEBUG_VALUE: encrypt_detached:mac <- [DW_OP_plus_uconst 104] [$rsp+0]
	#DEBUG_VALUE: encrypt_detached:maclen <- [DW_OP_plus_uconst 168] [$rsp+0]
	#DEBUG_VALUE: encrypt_detached:m <- $r13
	#DEBUG_VALUE: encrypt_detached:mlen <- $r15
	#DEBUG_VALUE: encrypt_detached:ad <- $r9
	#DEBUG_VALUE: encrypt_detached:adlen <- [DW_OP_plus_uconst 16] [$rbp+0]
	#DEBUG_VALUE: encrypt_detached:npub <- [DW_OP_plus_uconst 24] [$rbp+0]
	#DEBUG_VALUE: encrypt_detached:k <- [DW_OP_plus_uconst 32] [$rbp+0]
	#DEBUG_VALUE: encrypt_detached:state <- [DW_OP_LLVM_fragment 512 128] $xmm7
	#DEBUG_VALUE: encrypt_detached:state <- [DW_OP_LLVM_fragment 768 128] $xmm11
	#DEBUG_VALUE: encrypt_detached:state <- [DW_OP_LLVM_fragment 640 128] $xmm12
	#DEBUG_VALUE: encrypt_detached:state <- [DW_OP_LLVM_fragment 384 128] $xmm10
	#DEBUG_VALUE: encrypt_detached:state <- [DW_OP_LLVM_fragment 256 128] $xmm6
	#DEBUG_VALUE: encrypt_detached:state <- [DW_OP_LLVM_fragment 128 128] $xmm13
	#DEBUG_VALUE: encrypt_detached:state <- [DW_OP_LLVM_fragment 0 128] $xmm8
	#DEBUG_VALUE: memset:__dest <- [DW_OP_plus_uconst 224, DW_OP_stack_value] $rsp
	#DEBUG_VALUE: memset:__ch <- 0
	#DEBUG_VALUE: memset:__len <- 32
	.file	8 "/usr/include/x86_64-linux-gnu/bits" "string_fortified.h"
	.loc	8 59 10                         # /usr/include/x86_64-linux-gnu/bits/string_fortified.h:59:10 @[ crypto_aead/aegis128l/aegis128l_common.h:175:9 ]
	vpxor	%xmm0, %xmm0, %xmm0
	vmovdqa	%ymm0, 224(%rsp)
.Ltmp63:
	.loc	6 176 24                        # crypto_aead/aegis128l/aegis128l_common.h:176:24
	addq	%rcx, %r9
.Ltmp64:
	#DEBUG_VALUE: encrypt_detached:ad <- [DW_OP_LLVM_entry_value 1] $r9
	#DEBUG_VALUE: memcpy:__src <- $r9
	#DEBUG_VALUE: memcpy:__dest <- [DW_OP_plus_uconst 224, DW_OP_stack_value] $rsp
	#DEBUG_VALUE: memcpy:__len <- $rdx
	.loc	6 0 24 is_stmt 0                # crypto_aead/aegis128l/aegis128l_common.h:0:24
	leaq	224(%rsp), %rdi
.Ltmp65:
	.loc	8 29 10 is_stmt 1               # /usr/include/x86_64-linux-gnu/bits/string_fortified.h:29:10 @[ crypto_aead/aegis128l/aegis128l_common.h:176:9 ]
	movl	$32, %ecx
	movq	%r9, %rsi
	vmovdqa	%xmm11, 32(%rsp)                # 16-byte Spill
.Ltmp66:
	#DEBUG_VALUE: encrypt_detached:state <- [DW_OP_plus_uconst 32, DW_OP_deref, DW_OP_LLVM_fragment 768 128] $rsp
	.loc	8 0 10 is_stmt 0                # /usr/include/x86_64-linux-gnu/bits/string_fortified.h:0:10
	vmovdqa	%xmm12, 80(%rsp)                # 16-byte Spill
.Ltmp67:
	#DEBUG_VALUE: encrypt_detached:state <- [DW_OP_plus_uconst 80, DW_OP_deref, DW_OP_LLVM_fragment 640 128] $rsp
	vmovdqa	%xmm10, 64(%rsp)                # 16-byte Spill
.Ltmp68:
	#DEBUG_VALUE: encrypt_detached:state <- [DW_OP_plus_uconst 64, DW_OP_deref, DW_OP_LLVM_fragment 384 128] $rsp
	vmovdqa	%xmm6, 16(%rsp)                 # 16-byte Spill
.Ltmp69:
	#DEBUG_VALUE: encrypt_detached:state <- [DW_OP_plus_uconst 16, DW_OP_deref, DW_OP_LLVM_fragment 256 128] $rsp
	vmovdqa	%xmm13, 48(%rsp)                # 16-byte Spill
.Ltmp70:
	#DEBUG_VALUE: encrypt_detached:state <- [DW_OP_plus_uconst 48, DW_OP_deref, DW_OP_LLVM_fragment 128 128] $rsp
	vmovdqa	%xmm8, 128(%rsp)                # 16-byte Spill
.Ltmp71:
	#DEBUG_VALUE: encrypt_detached:state <- [DW_OP_plus_uconst 128, DW_OP_deref, DW_OP_LLVM_fragment 0 128] $rsp
	vmovdqa	%xmm7, 112(%rsp)                # 16-byte Spill
.Ltmp72:
	#DEBUG_VALUE: encrypt_detached:state <- [DW_OP_plus_uconst 112, DW_OP_deref, DW_OP_LLVM_fragment 512 128] $rsp
	vmovdqa	%xmm9, 144(%rsp)                # 16-byte Spill
	.loc	8 29 10                         # /usr/include/x86_64-linux-gnu/bits/string_fortified.h:29:10 @[ crypto_aead/aegis128l/aegis128l_common.h:176:9 ]
	vzeroupper
	callq	__memcpy_chk@PLT
.Ltmp73:
	.loc	8 0 10                          # /usr/include/x86_64-linux-gnu/bits/string_fortified.h:0:10
	vmovdqa	48(%rsp), %xmm13                # 16-byte Reload
	vmovdqa	16(%rsp), %xmm6                 # 16-byte Reload
	vmovdqa	64(%rsp), %xmm10                # 16-byte Reload
	vmovdqa	80(%rsp), %xmm12                # 16-byte Reload
	vmovdqa	32(%rsp), %xmm11                # 16-byte Reload
.Ltmp74:
	#DEBUG_VALUE: aegis128l_absorb:src <- [DW_OP_plus_uconst 224, DW_OP_stack_value] $rsp
	#DEBUG_VALUE: aegis128l_absorb:state <- undef
	#DEBUG_VALUE: aegis128l_absorb:msg0 <- undef
	#DEBUG_VALUE: aegis128l_update:state <- undef
	#DEBUG_VALUE: aegis128l_update:tmp <- [DW_OP_plus_uconst 144, DW_OP_deref] $rsp
	#DEBUG_VALUE: aegis128l_absorb:msg1 <- undef
	#DEBUG_VALUE: aegis128l_update:d2 <- undef
	#DEBUG_VALUE: aegis128l_update:d1 <- undef
	#DEBUG_VALUE: encrypt_detached:state <- [DW_OP_LLVM_fragment 896 128] undef
	#DEBUG_VALUE: encrypt_detached:state <- [DW_OP_LLVM_fragment 768 128] undef
	#DEBUG_VALUE: encrypt_detached:state <- [DW_OP_LLVM_fragment 640 128] undef
	#DEBUG_VALUE: encrypt_detached:state <- [DW_OP_LLVM_fragment 384 128] undef
	#DEBUG_VALUE: encrypt_detached:state <- [DW_OP_LLVM_fragment 256 128] undef
	#DEBUG_VALUE: encrypt_detached:state <- [DW_OP_LLVM_fragment 128 128] undef
	vmovdqa	128(%rsp), %xmm3                # 16-byte Reload
	vmovdqa	144(%rsp), %xmm1                # 16-byte Reload
.Ltmp75:
	.loc	5 53 16 is_stmt 1               # crypto_aead/aegis128l/aegis128l_aesni.c:53:16 @[ crypto_aead/aegis128l/aegis128l_common.h:72:5 @[ crypto_aead/aegis128l/aegis128l_common.h:177:9 ] ]
	vaesenc	%xmm3, %xmm1, %xmm0
	.loc	5 46 16                         # crypto_aead/aegis128l/aegis128l_aesni.c:46:16 @[ crypto_aead/aegis128l/aegis128l_common.h:72:5 @[ crypto_aead/aegis128l/aegis128l_common.h:177:9 ] ]
	vaesenc	%xmm1, %xmm11, %xmm9
.Ltmp76:
	#DEBUG_VALUE: encrypt_detached:state <- [DW_OP_LLVM_fragment 896 128] $xmm9
	.loc	5 47 16                         # crypto_aead/aegis128l/aegis128l_aesni.c:47:16 @[ crypto_aead/aegis128l/aegis128l_common.h:72:5 @[ crypto_aead/aegis128l/aegis128l_common.h:177:9 ] ]
	vaesenc	%xmm11, %xmm12, %xmm11
.Ltmp77:
	#DEBUG_VALUE: encrypt_detached:state <- [DW_OP_LLVM_fragment 768 128] $xmm11
	.loc	5 0 16 is_stmt 0                # crypto_aead/aegis128l/aegis128l_aesni.c:0:16
	vmovdqa	112(%rsp), %xmm2                # 16-byte Reload
	.loc	5 48 16 is_stmt 1               # crypto_aead/aegis128l/aegis128l_aesni.c:48:16 @[ crypto_aead/aegis128l/aegis128l_common.h:72:5 @[ crypto_aead/aegis128l/aegis128l_common.h:177:9 ] ]
	vaesenc	%xmm12, %xmm2, %xmm12
.Ltmp78:
	#DEBUG_VALUE: encrypt_detached:state <- [DW_OP_LLVM_fragment 640 128] $xmm12
	.loc	5 49 16                         # crypto_aead/aegis128l/aegis128l_aesni.c:49:16 @[ crypto_aead/aegis128l/aegis128l_common.h:72:5 @[ crypto_aead/aegis128l/aegis128l_common.h:177:9 ] ]
	vaesenc	%xmm2, %xmm10, %xmm2
	.loc	5 50 16                         # crypto_aead/aegis128l/aegis128l_aesni.c:50:16 @[ crypto_aead/aegis128l/aegis128l_common.h:72:5 @[ crypto_aead/aegis128l/aegis128l_common.h:177:9 ] ]
	vaesenc	%xmm10, %xmm6, %xmm10
.Ltmp79:
	#DEBUG_VALUE: encrypt_detached:state <- [DW_OP_LLVM_fragment 384 128] $xmm10
	.loc	5 51 16                         # crypto_aead/aegis128l/aegis128l_aesni.c:51:16 @[ crypto_aead/aegis128l/aegis128l_common.h:72:5 @[ crypto_aead/aegis128l/aegis128l_common.h:177:9 ] ]
	vaesenc	%xmm6, %xmm13, %xmm6
.Ltmp80:
	#DEBUG_VALUE: encrypt_detached:state <- [DW_OP_LLVM_fragment 256 128] $xmm6
	.loc	5 52 16                         # crypto_aead/aegis128l/aegis128l_aesni.c:52:16 @[ crypto_aead/aegis128l/aegis128l_common.h:72:5 @[ crypto_aead/aegis128l/aegis128l_common.h:177:9 ] ]
	vaesenc	%xmm13, %xmm3, %xmm13
.Ltmp81:
	#DEBUG_VALUE: encrypt_detached:state <- [DW_OP_LLVM_fragment 128 128] $xmm13
	.loc	5 55 16                         # crypto_aead/aegis128l/aegis128l_aesni.c:55:16 @[ crypto_aead/aegis128l/aegis128l_common.h:72:5 @[ crypto_aead/aegis128l/aegis128l_common.h:177:9 ] ]
	vpxor	224(%rsp), %xmm0, %xmm8
.Ltmp82:
	#DEBUG_VALUE: encrypt_detached:state <- [DW_OP_LLVM_fragment 0 128] $xmm8
	.loc	5 56 16                         # crypto_aead/aegis128l/aegis128l_aesni.c:56:16 @[ crypto_aead/aegis128l/aegis128l_common.h:72:5 @[ crypto_aead/aegis128l/aegis128l_common.h:177:9 ] ]
	vpxor	240(%rsp), %xmm2, %xmm7
.Ltmp83:
	#DEBUG_VALUE: encrypt_detached:state <- [DW_OP_LLVM_fragment 512 128] $xmm7
.LBB0_9:
	#DEBUG_VALUE: encrypt_detached:c <- $r12
	#DEBUG_VALUE: encrypt_detached:mac <- [DW_OP_plus_uconst 104] [$rsp+0]
	#DEBUG_VALUE: encrypt_detached:maclen <- [DW_OP_plus_uconst 168] [$rsp+0]
	#DEBUG_VALUE: encrypt_detached:m <- $r13
	#DEBUG_VALUE: encrypt_detached:mlen <- $r15
	#DEBUG_VALUE: encrypt_detached:ad <- [DW_OP_LLVM_entry_value 1] $r9
	#DEBUG_VALUE: encrypt_detached:adlen <- [DW_OP_plus_uconst 16] [$rbp+0]
	#DEBUG_VALUE: encrypt_detached:npub <- [DW_OP_plus_uconst 24] [$rbp+0]
	#DEBUG_VALUE: encrypt_detached:k <- [DW_OP_plus_uconst 32] [$rbp+0]
	#DEBUG_VALUE: encrypt_detached:state <- [DW_OP_LLVM_fragment 512 128] $xmm7
	#DEBUG_VALUE: encrypt_detached:state <- [DW_OP_LLVM_fragment 768 128] $xmm11
	#DEBUG_VALUE: encrypt_detached:state <- [DW_OP_LLVM_fragment 640 128] $xmm12
	#DEBUG_VALUE: encrypt_detached:state <- [DW_OP_LLVM_fragment 384 128] $xmm10
	#DEBUG_VALUE: encrypt_detached:state <- [DW_OP_LLVM_fragment 256 128] $xmm6
	#DEBUG_VALUE: encrypt_detached:state <- [DW_OP_LLVM_fragment 128 128] $xmm13
	#DEBUG_VALUE: encrypt_detached:state <- [DW_OP_LLVM_fragment 0 128] $xmm8
	#DEBUG_VALUE: encrypt_detached:state <- [DW_OP_LLVM_fragment 0 128] $xmm8
	#DEBUG_VALUE: encrypt_detached:state <- [DW_OP_LLVM_fragment 128 128] $xmm13
	#DEBUG_VALUE: encrypt_detached:state <- [DW_OP_LLVM_fragment 256 128] $xmm6
	#DEBUG_VALUE: encrypt_detached:state <- [DW_OP_LLVM_fragment 384 128] $xmm10
	#DEBUG_VALUE: encrypt_detached:state <- [DW_OP_LLVM_fragment 512 128] $xmm7
	#DEBUG_VALUE: encrypt_detached:state <- [DW_OP_LLVM_fragment 640 128] $xmm12
	#DEBUG_VALUE: encrypt_detached:state <- [DW_OP_LLVM_fragment 768 128] $xmm11
	#DEBUG_VALUE: encrypt_detached:state <- [DW_OP_LLVM_fragment 896 128] $xmm9
	#DEBUG_VALUE: encrypt_detached:i <- 0
	.loc	6 179 24                        # crypto_aead/aegis128l/aegis128l_common.h:179:24
	cmpq	$32, %r15
.Ltmp84:
	.loc	6 179 5 is_stmt 0               # crypto_aead/aegis128l/aegis128l_common.h:179:5
	jae	.LBB0_11
.Ltmp85:
# %bb.10:
	#DEBUG_VALUE: encrypt_detached:c <- $r12
	#DEBUG_VALUE: encrypt_detached:mac <- [DW_OP_plus_uconst 104] [$rsp+0]
	#DEBUG_VALUE: encrypt_detached:maclen <- [DW_OP_plus_uconst 168] [$rsp+0]
	#DEBUG_VALUE: encrypt_detached:m <- $r13
	#DEBUG_VALUE: encrypt_detached:mlen <- $r15
	#DEBUG_VALUE: encrypt_detached:ad <- [DW_OP_LLVM_entry_value 1] $r9
	#DEBUG_VALUE: encrypt_detached:adlen <- [DW_OP_plus_uconst 16] [$rbp+0]
	#DEBUG_VALUE: encrypt_detached:npub <- [DW_OP_plus_uconst 24] [$rbp+0]
	#DEBUG_VALUE: encrypt_detached:k <- [DW_OP_plus_uconst 32] [$rbp+0]
	#DEBUG_VALUE: encrypt_detached:state <- [DW_OP_LLVM_fragment 512 128] $xmm7
	#DEBUG_VALUE: encrypt_detached:state <- [DW_OP_LLVM_fragment 896 128] $xmm9
	#DEBUG_VALUE: encrypt_detached:state <- [DW_OP_LLVM_fragment 768 128] $xmm11
	#DEBUG_VALUE: encrypt_detached:state <- [DW_OP_LLVM_fragment 640 128] $xmm12
	#DEBUG_VALUE: encrypt_detached:state <- [DW_OP_LLVM_fragment 384 128] $xmm10
	#DEBUG_VALUE: encrypt_detached:state <- [DW_OP_LLVM_fragment 256 128] $xmm6
	#DEBUG_VALUE: encrypt_detached:state <- [DW_OP_LLVM_fragment 128 128] $xmm13
	#DEBUG_VALUE: encrypt_detached:state <- [DW_OP_LLVM_fragment 0 128] $xmm8
	#DEBUG_VALUE: encrypt_detached:i <- 0
	.loc	6 0 5                           # crypto_aead/aegis128l/aegis128l_common.h:0:5
	xorl	%ebx, %ebx
	.loc	6 179 5                         # crypto_aead/aegis128l/aegis128l_common.h:179:5
	jmp	.LBB0_13
.Ltmp86:
.LBB0_11:                               # %.lr.ph149.preheader
	#DEBUG_VALUE: encrypt_detached:c <- $r12
	#DEBUG_VALUE: encrypt_detached:mac <- [DW_OP_plus_uconst 104] [$rsp+0]
	#DEBUG_VALUE: encrypt_detached:maclen <- [DW_OP_plus_uconst 168] [$rsp+0]
	#DEBUG_VALUE: encrypt_detached:m <- $r13
	#DEBUG_VALUE: encrypt_detached:mlen <- $r15
	#DEBUG_VALUE: encrypt_detached:ad <- [DW_OP_LLVM_entry_value 1] $r9
	#DEBUG_VALUE: encrypt_detached:adlen <- [DW_OP_plus_uconst 16] [$rbp+0]
	#DEBUG_VALUE: encrypt_detached:npub <- [DW_OP_plus_uconst 24] [$rbp+0]
	#DEBUG_VALUE: encrypt_detached:k <- [DW_OP_plus_uconst 32] [$rbp+0]
	#DEBUG_VALUE: encrypt_detached:state <- [DW_OP_LLVM_fragment 512 128] $xmm7
	#DEBUG_VALUE: encrypt_detached:state <- [DW_OP_LLVM_fragment 896 128] $xmm9
	#DEBUG_VALUE: encrypt_detached:state <- [DW_OP_LLVM_fragment 768 128] $xmm11
	#DEBUG_VALUE: encrypt_detached:state <- [DW_OP_LLVM_fragment 640 128] $xmm12
	#DEBUG_VALUE: encrypt_detached:state <- [DW_OP_LLVM_fragment 384 128] $xmm10
	#DEBUG_VALUE: encrypt_detached:state <- [DW_OP_LLVM_fragment 256 128] $xmm6
	#DEBUG_VALUE: encrypt_detached:state <- [DW_OP_LLVM_fragment 128 128] $xmm13
	#DEBUG_VALUE: encrypt_detached:state <- [DW_OP_LLVM_fragment 0 128] $xmm8
	#DEBUG_VALUE: encrypt_detached:i <- 0
	.loc	6 0 5                           # crypto_aead/aegis128l/aegis128l_common.h:0:5
	xorl	%eax, %eax
	vmovdqa	%xmm9, %xmm0
.Ltmp87:
	.p2align	4
.LBB0_12:                               # %.lr.ph149
                                        # =>This Inner Loop Header: Depth=1
	#DEBUG_VALUE: encrypt_detached:c <- $r12
	#DEBUG_VALUE: encrypt_detached:mac <- [DW_OP_plus_uconst 104] [$rsp+0]
	#DEBUG_VALUE: encrypt_detached:maclen <- [DW_OP_plus_uconst 168] [$rsp+0]
	#DEBUG_VALUE: encrypt_detached:m <- $r13
	#DEBUG_VALUE: encrypt_detached:mlen <- $r15
	#DEBUG_VALUE: encrypt_detached:ad <- [DW_OP_LLVM_entry_value 1] $r9
	#DEBUG_VALUE: encrypt_detached:adlen <- [DW_OP_plus_uconst 16] [$rbp+0]
	#DEBUG_VALUE: encrypt_detached:npub <- [DW_OP_plus_uconst 24] [$rbp+0]
	#DEBUG_VALUE: encrypt_detached:k <- [DW_OP_plus_uconst 32] [$rbp+0]
	#DEBUG_VALUE: encrypt_detached:state <- [DW_OP_LLVM_fragment 512 128] $xmm7
	#DEBUG_VALUE: encrypt_detached:state <- [DW_OP_LLVM_fragment 896 128] $xmm9
	#DEBUG_VALUE: encrypt_detached:state <- [DW_OP_LLVM_fragment 768 128] $xmm11
	#DEBUG_VALUE: encrypt_detached:state <- [DW_OP_LLVM_fragment 640 128] $xmm12
	#DEBUG_VALUE: encrypt_detached:state <- [DW_OP_LLVM_fragment 384 128] $xmm10
	#DEBUG_VALUE: encrypt_detached:state <- [DW_OP_LLVM_fragment 256 128] $xmm6
	#DEBUG_VALUE: encrypt_detached:state <- [DW_OP_LLVM_fragment 128 128] $xmm13
	#DEBUG_VALUE: encrypt_detached:state <- [DW_OP_LLVM_fragment 0 128] $xmm8
	#DEBUG_VALUE: encrypt_detached:i <- $rax
	#DEBUG_VALUE: encrypt_detached:state <- [DW_OP_LLVM_fragment 0 128] $xmm8
	#DEBUG_VALUE: encrypt_detached:state <- [DW_OP_LLVM_fragment 128 128] $xmm13
	#DEBUG_VALUE: encrypt_detached:state <- [DW_OP_LLVM_fragment 256 128] $xmm6
	#DEBUG_VALUE: encrypt_detached:state <- [DW_OP_LLVM_fragment 384 128] $xmm10
	#DEBUG_VALUE: encrypt_detached:state <- [DW_OP_LLVM_fragment 512 128] $xmm7
	#DEBUG_VALUE: encrypt_detached:state <- [DW_OP_LLVM_fragment 640 128] $xmm12
	#DEBUG_VALUE: encrypt_detached:state <- [DW_OP_LLVM_fragment 768 128] $xmm11
	#DEBUG_VALUE: encrypt_detached:state <- [DW_OP_LLVM_fragment 896 128] $xmm0
	#DEBUG_VALUE: aegis128l_enc:dst <- [DW_OP_LLVM_arg 0, DW_OP_consts 32, DW_OP_div, DW_OP_consts 32, DW_OP_mul, DW_OP_LLVM_arg 1, DW_OP_plus, DW_OP_stack_value] $rax, $r12
	#DEBUG_VALUE: aegis128l_enc:src <- [DW_OP_LLVM_arg 0, DW_OP_consts 32, DW_OP_div, DW_OP_consts 32, DW_OP_mul, DW_OP_LLVM_arg 1, DW_OP_plus, DW_OP_stack_value] $rax, $r13
	#DEBUG_VALUE: aegis128l_enc:state <- undef
	.loc	6 94 12 is_stmt 1               # crypto_aead/aegis128l/aegis128l_common.h:94:12 @[ crypto_aead/aegis128l/aegis128l_common.h:180:9 ]
	vmovdqu	(%r13,%rax), %xmm1
.Ltmp88:
	#DEBUG_VALUE: aegis128l_enc:msg0 <- $xmm1
	.loc	6 95 12                         # crypto_aead/aegis128l/aegis128l_common.h:95:12 @[ crypto_aead/aegis128l/aegis128l_common.h:180:9 ]
	vmovdqu	16(%r13,%rax), %xmm2
.Ltmp89:
	#DEBUG_VALUE: aegis128l_enc:msg1 <- $xmm2
	#DEBUG_VALUE: aegis128l_enc:tmp1 <- [DW_OP_LLVM_arg 0, DW_OP_LLVM_arg 2, DW_OP_xor, DW_OP_LLVM_arg 1, DW_OP_xor, DW_OP_stack_value] $xmm2, $xmm6, $xmm12
	#DEBUG_VALUE: aegis128l_enc:tmp0 <- [DW_OP_LLVM_arg 0, DW_OP_LLVM_arg 2, DW_OP_xor, DW_OP_LLVM_arg 1, DW_OP_xor, DW_OP_stack_value] $xmm11, $xmm1, $xmm13
	.loc	6 100 35                        # crypto_aead/aegis128l/aegis128l_common.h:100:35 @[ crypto_aead/aegis128l/aegis128l_common.h:180:9 ]
	vpand	%xmm6, %xmm10, %xmm3
	.loc	6 100 12 is_stmt 0              # crypto_aead/aegis128l/aegis128l_common.h:100:12 @[ crypto_aead/aegis128l/aegis128l_common.h:180:9 ]
	vpxor	%xmm13, %xmm11, %xmm4
	vpxor	%xmm4, %xmm3, %xmm3
	vpxor	%xmm1, %xmm3, %xmm3
.Ltmp90:
	#DEBUG_VALUE: aegis128l_enc:tmp0 <- $xmm3
	.loc	6 101 35 is_stmt 1              # crypto_aead/aegis128l/aegis128l_common.h:101:35 @[ crypto_aead/aegis128l/aegis128l_common.h:180:9 ]
	vpand	%xmm0, %xmm11, %xmm4
	.loc	6 101 12 is_stmt 0              # crypto_aead/aegis128l/aegis128l_common.h:101:12 @[ crypto_aead/aegis128l/aegis128l_common.h:180:9 ]
	vpxor	%xmm6, %xmm12, %xmm5
	vpxor	%xmm5, %xmm4, %xmm4
	vpxor	%xmm2, %xmm4, %xmm4
.Ltmp91:
	#DEBUG_VALUE: aegis128l_enc:tmp1 <- $xmm4
	.loc	6 102 5 is_stmt 1               # crypto_aead/aegis128l/aegis128l_common.h:102:5 @[ crypto_aead/aegis128l/aegis128l_common.h:180:9 ]
	vmovdqu	%xmm3, (%r12,%rax)
.Ltmp92:
	#DEBUG_VALUE: aegis128l_update:d1 <- $xmm1
	#DEBUG_VALUE: aegis128l_update:d2 <- $xmm2
	#DEBUG_VALUE: aegis128l_update:tmp <- $xmm0
	.loc	5 46 16                         # crypto_aead/aegis128l/aegis128l_aesni.c:46:16 @[ crypto_aead/aegis128l/aegis128l_common.h:105:5 @[ crypto_aead/aegis128l/aegis128l_common.h:180:9 ] ]
	vaesenc	%xmm0, %xmm11, %xmm9
.Ltmp93:
	#DEBUG_VALUE: encrypt_detached:state <- [DW_OP_LLVM_fragment 896 128] $xmm9
	.loc	5 47 16                         # crypto_aead/aegis128l/aegis128l_aesni.c:47:16 @[ crypto_aead/aegis128l/aegis128l_common.h:105:5 @[ crypto_aead/aegis128l/aegis128l_common.h:180:9 ] ]
	vaesenc	%xmm11, %xmm12, %xmm11
.Ltmp94:
	#DEBUG_VALUE: encrypt_detached:state <- [DW_OP_LLVM_fragment 768 128] $xmm11
	.loc	5 48 16                         # crypto_aead/aegis128l/aegis128l_aesni.c:48:16 @[ crypto_aead/aegis128l/aegis128l_common.h:105:5 @[ crypto_aead/aegis128l/aegis128l_common.h:180:9 ] ]
	vaesenc	%xmm12, %xmm7, %xmm12
.Ltmp95:
	#DEBUG_VALUE: encrypt_detached:state <- [DW_OP_LLVM_fragment 640 128] $xmm12
	.loc	5 49 16                         # crypto_aead/aegis128l/aegis128l_aesni.c:49:16 @[ crypto_aead/aegis128l/aegis128l_common.h:105:5 @[ crypto_aead/aegis128l/aegis128l_common.h:180:9 ] ]
	vaesenc	%xmm7, %xmm10, %xmm3
.Ltmp96:
	.loc	5 50 16                         # crypto_aead/aegis128l/aegis128l_aesni.c:50:16 @[ crypto_aead/aegis128l/aegis128l_common.h:105:5 @[ crypto_aead/aegis128l/aegis128l_common.h:180:9 ] ]
	vaesenc	%xmm10, %xmm6, %xmm10
.Ltmp97:
	#DEBUG_VALUE: encrypt_detached:state <- [DW_OP_LLVM_fragment 384 128] $xmm10
	.loc	5 51 16                         # crypto_aead/aegis128l/aegis128l_aesni.c:51:16 @[ crypto_aead/aegis128l/aegis128l_common.h:105:5 @[ crypto_aead/aegis128l/aegis128l_common.h:180:9 ] ]
	vaesenc	%xmm6, %xmm13, %xmm6
.Ltmp98:
	#DEBUG_VALUE: encrypt_detached:state <- [DW_OP_LLVM_fragment 256 128] $xmm6
	.loc	5 52 16                         # crypto_aead/aegis128l/aegis128l_aesni.c:52:16 @[ crypto_aead/aegis128l/aegis128l_common.h:105:5 @[ crypto_aead/aegis128l/aegis128l_common.h:180:9 ] ]
	vaesenc	%xmm13, %xmm8, %xmm13
.Ltmp99:
	#DEBUG_VALUE: encrypt_detached:state <- [DW_OP_LLVM_fragment 128 128] $xmm13
	.loc	5 53 16                         # crypto_aead/aegis128l/aegis128l_aesni.c:53:16 @[ crypto_aead/aegis128l/aegis128l_common.h:105:5 @[ crypto_aead/aegis128l/aegis128l_common.h:180:9 ] ]
	vaesenc	%xmm8, %xmm0, %xmm0
.Ltmp100:
	.loc	6 103 5                         # crypto_aead/aegis128l/aegis128l_common.h:103:5 @[ crypto_aead/aegis128l/aegis128l_common.h:180:9 ]
	vmovdqu	%xmm4, 16(%r12,%rax)
.Ltmp101:
	#DEBUG_VALUE: aegis128l_update:state <- undef
	.loc	5 55 16                         # crypto_aead/aegis128l/aegis128l_aesni.c:55:16 @[ crypto_aead/aegis128l/aegis128l_common.h:105:5 @[ crypto_aead/aegis128l/aegis128l_common.h:180:9 ] ]
	vpxor	%xmm1, %xmm0, %xmm8
.Ltmp102:
	#DEBUG_VALUE: encrypt_detached:state <- [DW_OP_LLVM_fragment 0 128] $xmm8
	.loc	5 56 16                         # crypto_aead/aegis128l/aegis128l_aesni.c:56:16 @[ crypto_aead/aegis128l/aegis128l_common.h:105:5 @[ crypto_aead/aegis128l/aegis128l_common.h:180:9 ] ]
	vpxor	%xmm2, %xmm3, %xmm7
.Ltmp103:
	#DEBUG_VALUE: encrypt_detached:state <- [DW_OP_LLVM_fragment 512 128] $xmm7
	#DEBUG_VALUE: encrypt_detached:state <- [DW_OP_LLVM_fragment 128 128] $xmm13
	#DEBUG_VALUE: encrypt_detached:state <- [DW_OP_LLVM_fragment 256 128] $xmm6
	#DEBUG_VALUE: encrypt_detached:state <- [DW_OP_LLVM_fragment 384 128] $xmm10
	#DEBUG_VALUE: encrypt_detached:state <- [DW_OP_LLVM_fragment 640 128] $xmm12
	#DEBUG_VALUE: encrypt_detached:state <- [DW_OP_LLVM_fragment 768 128] $xmm11
	#DEBUG_VALUE: encrypt_detached:state <- [DW_OP_LLVM_fragment 896 128] $xmm9
	#DEBUG_VALUE: encrypt_detached:i <- [DW_OP_plus_uconst 32, DW_OP_stack_value] $rax
	.loc	6 179 24                        # crypto_aead/aegis128l/aegis128l_common.h:179:24
	leaq	32(%rax), %rbx
	addq	$64, %rax
.Ltmp104:
	.loc	6 0 24 is_stmt 0                # crypto_aead/aegis128l/aegis128l_common.h:0:24
	vmovdqa	%xmm9, %xmm0
	.loc	6 179 24                        # crypto_aead/aegis128l/aegis128l_common.h:179:24
	cmpq	%r15, %rax
	movq	%rbx, %rax
.Ltmp105:
	.loc	6 179 5                         # crypto_aead/aegis128l/aegis128l_common.h:179:5
	jbe	.LBB0_12
.Ltmp106:
.LBB0_13:                               # %._crit_edge150
	#DEBUG_VALUE: encrypt_detached:c <- $r12
	#DEBUG_VALUE: encrypt_detached:mac <- [DW_OP_plus_uconst 104] [$rsp+0]
	#DEBUG_VALUE: encrypt_detached:maclen <- [DW_OP_plus_uconst 168] [$rsp+0]
	#DEBUG_VALUE: encrypt_detached:m <- $r13
	#DEBUG_VALUE: encrypt_detached:mlen <- $r15
	#DEBUG_VALUE: encrypt_detached:ad <- [DW_OP_LLVM_entry_value 1] $r9
	#DEBUG_VALUE: encrypt_detached:adlen <- [DW_OP_plus_uconst 16] [$rbp+0]
	#DEBUG_VALUE: encrypt_detached:npub <- [DW_OP_plus_uconst 24] [$rbp+0]
	#DEBUG_VALUE: encrypt_detached:k <- [DW_OP_plus_uconst 32] [$rbp+0]
	#DEBUG_VALUE: encrypt_detached:state <- [DW_OP_LLVM_fragment 512 128] $xmm7
	#DEBUG_VALUE: encrypt_detached:state <- [DW_OP_LLVM_fragment 896 128] $xmm9
	#DEBUG_VALUE: encrypt_detached:state <- [DW_OP_LLVM_fragment 768 128] $xmm11
	#DEBUG_VALUE: encrypt_detached:state <- [DW_OP_LLVM_fragment 640 128] $xmm12
	#DEBUG_VALUE: encrypt_detached:state <- [DW_OP_LLVM_fragment 384 128] $xmm10
	#DEBUG_VALUE: encrypt_detached:state <- [DW_OP_LLVM_fragment 256 128] $xmm6
	#DEBUG_VALUE: encrypt_detached:state <- [DW_OP_LLVM_fragment 128 128] $xmm13
	#DEBUG_VALUE: encrypt_detached:state <- [DW_OP_LLVM_fragment 0 128] $xmm8
	.loc	6 0 5                           # crypto_aead/aegis128l/aegis128l_common.h:0:5
	movq	%r15, 160(%rsp)                 # 8-byte Spill
.Ltmp107:
	#DEBUG_VALUE: encrypt_detached:mlen <- [DW_OP_plus_uconst 160] [$rsp+0]
	.loc	6 182 14 is_stmt 1              # crypto_aead/aegis128l/aegis128l_common.h:182:14
	andq	$31, %r15
	je	.LBB0_15
.Ltmp108:
# %bb.14:
	#DEBUG_VALUE: encrypt_detached:c <- $r12
	#DEBUG_VALUE: encrypt_detached:mac <- [DW_OP_plus_uconst 104] [$rsp+0]
	#DEBUG_VALUE: encrypt_detached:maclen <- [DW_OP_plus_uconst 168] [$rsp+0]
	#DEBUG_VALUE: encrypt_detached:m <- $r13
	#DEBUG_VALUE: encrypt_detached:mlen <- [DW_OP_plus_uconst 160] [$rsp+0]
	#DEBUG_VALUE: encrypt_detached:ad <- [DW_OP_LLVM_entry_value 1] $r9
	#DEBUG_VALUE: encrypt_detached:adlen <- [DW_OP_plus_uconst 16] [$rbp+0]
	#DEBUG_VALUE: encrypt_detached:npub <- [DW_OP_plus_uconst 24] [$rbp+0]
	#DEBUG_VALUE: encrypt_detached:k <- [DW_OP_plus_uconst 32] [$rbp+0]
	#DEBUG_VALUE: encrypt_detached:state <- [DW_OP_LLVM_fragment 512 128] $xmm7
	#DEBUG_VALUE: encrypt_detached:state <- [DW_OP_LLVM_fragment 896 128] $xmm9
	#DEBUG_VALUE: encrypt_detached:state <- [DW_OP_LLVM_fragment 768 128] $xmm11
	#DEBUG_VALUE: encrypt_detached:state <- [DW_OP_LLVM_fragment 640 128] $xmm12
	#DEBUG_VALUE: encrypt_detached:state <- [DW_OP_LLVM_fragment 384 128] $xmm10
	#DEBUG_VALUE: encrypt_detached:state <- [DW_OP_LLVM_fragment 256 128] $xmm6
	#DEBUG_VALUE: encrypt_detached:state <- [DW_OP_LLVM_fragment 128 128] $xmm13
	#DEBUG_VALUE: encrypt_detached:state <- [DW_OP_LLVM_fragment 0 128] $xmm8
	#DEBUG_VALUE: memset:__dest <- [DW_OP_plus_uconst 224, DW_OP_stack_value] $rsp
	#DEBUG_VALUE: memset:__ch <- 0
	#DEBUG_VALUE: memset:__len <- 32
	.loc	8 59 10                         # /usr/include/x86_64-linux-gnu/bits/string_fortified.h:59:10 @[ crypto_aead/aegis128l/aegis128l_common.h:183:9 ]
	vpxor	%xmm0, %xmm0, %xmm0
	vmovdqa	%ymm0, 224(%rsp)
.Ltmp109:
	.loc	6 184 23                        # crypto_aead/aegis128l/aegis128l_common.h:184:23
	addq	%rbx, %r13
.Ltmp110:
	#DEBUG_VALUE: encrypt_detached:m <- [DW_OP_LLVM_entry_value 1] $rcx
	#DEBUG_VALUE: memcpy:__src <- $r13
	#DEBUG_VALUE: memcpy:__dest <- [DW_OP_plus_uconst 224, DW_OP_stack_value] $rsp
	#DEBUG_VALUE: memcpy:__len <- $r15
	.loc	6 0 23 is_stmt 0                # crypto_aead/aegis128l/aegis128l_common.h:0:23
	leaq	224(%rsp), %rdi
.Ltmp111:
	.loc	8 29 10 is_stmt 1               # /usr/include/x86_64-linux-gnu/bits/string_fortified.h:29:10 @[ crypto_aead/aegis128l/aegis128l_common.h:184:9 ]
	movl	$32, %ecx
	movq	%r13, %rsi
	movq	%r15, %rdx
	vmovdqa	%xmm11, 32(%rsp)                # 16-byte Spill
.Ltmp112:
	#DEBUG_VALUE: encrypt_detached:state <- [DW_OP_plus_uconst 32, DW_OP_deref, DW_OP_LLVM_fragment 768 128] $rsp
	.loc	8 0 10 is_stmt 0                # /usr/include/x86_64-linux-gnu/bits/string_fortified.h:0:10
	vmovdqa	%xmm12, 80(%rsp)                # 16-byte Spill
.Ltmp113:
	#DEBUG_VALUE: encrypt_detached:state <- [DW_OP_plus_uconst 80, DW_OP_deref, DW_OP_LLVM_fragment 640 128] $rsp
	vmovdqa	%xmm10, 64(%rsp)                # 16-byte Spill
.Ltmp114:
	#DEBUG_VALUE: encrypt_detached:state <- [DW_OP_plus_uconst 64, DW_OP_deref, DW_OP_LLVM_fragment 384 128] $rsp
	vmovdqa	%xmm6, 16(%rsp)                 # 16-byte Spill
.Ltmp115:
	#DEBUG_VALUE: encrypt_detached:state <- [DW_OP_plus_uconst 16, DW_OP_deref, DW_OP_LLVM_fragment 256 128] $rsp
	vmovdqa	%xmm13, 48(%rsp)                # 16-byte Spill
.Ltmp116:
	#DEBUG_VALUE: encrypt_detached:state <- [DW_OP_plus_uconst 48, DW_OP_deref, DW_OP_LLVM_fragment 128 128] $rsp
	vmovdqa	%xmm8, 128(%rsp)                # 16-byte Spill
.Ltmp117:
	#DEBUG_VALUE: encrypt_detached:state <- [DW_OP_plus_uconst 128, DW_OP_deref, DW_OP_LLVM_fragment 0 128] $rsp
	vmovdqa	%xmm7, 112(%rsp)                # 16-byte Spill
.Ltmp118:
	#DEBUG_VALUE: encrypt_detached:state <- [DW_OP_plus_uconst 112, DW_OP_deref, DW_OP_LLVM_fragment 512 128] $rsp
	vmovdqa	%xmm9, 144(%rsp)                # 16-byte Spill
.Ltmp119:
	#DEBUG_VALUE: encrypt_detached:state <- [DW_OP_plus_uconst 144, DW_OP_deref, DW_OP_LLVM_fragment 896 128] $rsp
	.loc	8 29 10                         # /usr/include/x86_64-linux-gnu/bits/string_fortified.h:29:10 @[ crypto_aead/aegis128l/aegis128l_common.h:184:9 ]
	vzeroupper
	callq	__memcpy_chk@PLT
.Ltmp120:
	#DEBUG_VALUE: aegis128l_enc:dst <- [DW_OP_plus_uconst 192, DW_OP_stack_value] $rsp
	#DEBUG_VALUE: aegis128l_enc:src <- [DW_OP_plus_uconst 224, DW_OP_stack_value] $rsp
	#DEBUG_VALUE: aegis128l_enc:state <- undef
	.loc	6 94 12 is_stmt 1               # crypto_aead/aegis128l/aegis128l_common.h:94:12 @[ crypto_aead/aegis128l/aegis128l_common.h:185:9 ]
	vmovdqa	224(%rsp), %xmm0
.Ltmp121:
	#DEBUG_VALUE: aegis128l_enc:msg0 <- $xmm0
	.loc	6 95 12                         # crypto_aead/aegis128l/aegis128l_common.h:95:12 @[ crypto_aead/aegis128l/aegis128l_common.h:185:9 ]
	vmovdqa	240(%rsp), %xmm1
.Ltmp122:
	#DEBUG_VALUE: aegis128l_enc:msg1 <- $xmm1
	#DEBUG_VALUE: aegis128l_enc:tmp1 <- [DW_OP_LLVM_arg 0, DW_OP_LLVM_arg 2, DW_OP_plus_uconst 80, DW_OP_deref, DW_OP_xor, DW_OP_LLVM_arg 1, DW_OP_plus_uconst 16, DW_OP_deref, DW_OP_xor, DW_OP_stack_value] $xmm1, $rsp, $rsp
	#DEBUG_VALUE: aegis128l_enc:tmp0 <- [DW_OP_LLVM_arg 0, DW_OP_plus_uconst 32, DW_OP_deref, DW_OP_LLVM_arg 2, DW_OP_plus_uconst 48, DW_OP_deref, DW_OP_xor, DW_OP_LLVM_arg 1, DW_OP_xor, DW_OP_stack_value] $rsp, $xmm0, $rsp
	.loc	6 0 12 is_stmt 0                # crypto_aead/aegis128l/aegis128l_common.h:0:12
	vmovdqa	16(%rsp), %xmm2                 # 16-byte Reload
	.loc	6 100 35 is_stmt 1              # crypto_aead/aegis128l/aegis128l_common.h:100:35 @[ crypto_aead/aegis128l/aegis128l_common.h:185:9 ]
	vpand	64(%rsp), %xmm2, %xmm2          # 16-byte Folded Reload
	vmovdqa	48(%rsp), %xmm3                 # 16-byte Reload
	.loc	6 100 12 is_stmt 0              # crypto_aead/aegis128l/aegis128l_common.h:100:12 @[ crypto_aead/aegis128l/aegis128l_common.h:185:9 ]
	vpxor	32(%rsp), %xmm3, %xmm3          # 16-byte Folded Reload
	vpxor	%xmm3, %xmm2, %xmm2
	vpxor	%xmm0, %xmm2, %xmm2
.Ltmp123:
	#DEBUG_VALUE: aegis128l_enc:tmp0 <- $xmm2
	.loc	6 0 12                          # crypto_aead/aegis128l/aegis128l_common.h:0:12
	vmovdqa	144(%rsp), %xmm6                # 16-byte Reload
	.loc	6 101 35 is_stmt 1              # crypto_aead/aegis128l/aegis128l_common.h:101:35 @[ crypto_aead/aegis128l/aegis128l_common.h:185:9 ]
	vpand	32(%rsp), %xmm6, %xmm3          # 16-byte Folded Reload
	vmovdqa	16(%rsp), %xmm4                 # 16-byte Reload
	.loc	6 101 12 is_stmt 0              # crypto_aead/aegis128l/aegis128l_common.h:101:12 @[ crypto_aead/aegis128l/aegis128l_common.h:185:9 ]
	vpxor	80(%rsp), %xmm4, %xmm4          # 16-byte Folded Reload
	vpxor	%xmm4, %xmm3, %xmm3
	vpxor	%xmm1, %xmm3, %xmm3
.Ltmp124:
	#DEBUG_VALUE: aegis128l_enc:tmp1 <- $xmm3
	.loc	6 102 5 is_stmt 1               # crypto_aead/aegis128l/aegis128l_common.h:102:5 @[ crypto_aead/aegis128l/aegis128l_common.h:185:9 ]
	vmovdqa	%xmm2, 192(%rsp)
.Ltmp125:
	#DEBUG_VALUE: aegis128l_update:tmp <- [DW_OP_plus_uconst 144, DW_OP_deref] $rsp
	#DEBUG_VALUE: aegis128l_update:d2 <- $xmm1
	#DEBUG_VALUE: aegis128l_update:d1 <- $xmm0
	.loc	6 0 5 is_stmt 0                 # crypto_aead/aegis128l/aegis128l_common.h:0:5
	vmovdqa	32(%rsp), %xmm2                 # 16-byte Reload
.Ltmp126:
	.loc	5 46 16 is_stmt 1               # crypto_aead/aegis128l/aegis128l_aesni.c:46:16 @[ crypto_aead/aegis128l/aegis128l_common.h:105:5 @[ crypto_aead/aegis128l/aegis128l_common.h:185:9 ] ]
	vaesenc	%xmm6, %xmm2, %xmm2
.Ltmp127:
	#DEBUG_VALUE: encrypt_detached:state <- [DW_OP_LLVM_fragment 896 128] $xmm2
	.loc	5 0 16 is_stmt 0                # crypto_aead/aegis128l/aegis128l_aesni.c:0:16
	vmovdqa	%xmm2, 176(%rsp)                # 16-byte Spill
.Ltmp128:
	#DEBUG_VALUE: encrypt_detached:state <- [DW_OP_plus_uconst 176, DW_OP_deref, DW_OP_LLVM_fragment 896 128] $rsp
	vmovdqa	32(%rsp), %xmm2                 # 16-byte Reload
	vmovdqa	80(%rsp), %xmm4                 # 16-byte Reload
	.loc	5 47 16 is_stmt 1               # crypto_aead/aegis128l/aegis128l_aesni.c:47:16 @[ crypto_aead/aegis128l/aegis128l_common.h:105:5 @[ crypto_aead/aegis128l/aegis128l_common.h:185:9 ] ]
	vaesenc	%xmm2, %xmm4, %xmm2
.Ltmp129:
	#DEBUG_VALUE: encrypt_detached:state <- [DW_OP_LLVM_fragment 768 128] $xmm2
	.loc	5 0 16 is_stmt 0                # crypto_aead/aegis128l/aegis128l_aesni.c:0:16
	vmovdqa	%xmm2, 32(%rsp)                 # 16-byte Spill
.Ltmp130:
	#DEBUG_VALUE: encrypt_detached:state <- [DW_OP_plus_uconst 32, DW_OP_deref, DW_OP_LLVM_fragment 768 128] $rsp
	vmovdqa	80(%rsp), %xmm2                 # 16-byte Reload
	vmovdqa	112(%rsp), %xmm4                # 16-byte Reload
	.loc	5 48 16 is_stmt 1               # crypto_aead/aegis128l/aegis128l_aesni.c:48:16 @[ crypto_aead/aegis128l/aegis128l_common.h:105:5 @[ crypto_aead/aegis128l/aegis128l_common.h:185:9 ] ]
	vaesenc	%xmm2, %xmm4, %xmm2
.Ltmp131:
	#DEBUG_VALUE: encrypt_detached:state <- [DW_OP_LLVM_fragment 640 128] $xmm2
	.loc	5 0 16 is_stmt 0                # crypto_aead/aegis128l/aegis128l_aesni.c:0:16
	vmovdqa	%xmm2, 80(%rsp)                 # 16-byte Spill
.Ltmp132:
	#DEBUG_VALUE: encrypt_detached:state <- [DW_OP_plus_uconst 80, DW_OP_deref, DW_OP_LLVM_fragment 640 128] $rsp
	vmovdqa	64(%rsp), %xmm2                 # 16-byte Reload
	.loc	5 49 16 is_stmt 1               # crypto_aead/aegis128l/aegis128l_aesni.c:49:16 @[ crypto_aead/aegis128l/aegis128l_common.h:105:5 @[ crypto_aead/aegis128l/aegis128l_common.h:185:9 ] ]
	vaesenc	%xmm4, %xmm2, %xmm2
	vmovdqa	64(%rsp), %xmm4                 # 16-byte Reload
	vmovdqa	16(%rsp), %xmm5                 # 16-byte Reload
	.loc	5 50 16                         # crypto_aead/aegis128l/aegis128l_aesni.c:50:16 @[ crypto_aead/aegis128l/aegis128l_common.h:105:5 @[ crypto_aead/aegis128l/aegis128l_common.h:185:9 ] ]
	vaesenc	%xmm4, %xmm5, %xmm4
.Ltmp133:
	#DEBUG_VALUE: encrypt_detached:state <- [DW_OP_LLVM_fragment 384 128] $xmm4
	.loc	5 0 16 is_stmt 0                # crypto_aead/aegis128l/aegis128l_aesni.c:0:16
	vmovdqa	%xmm4, 64(%rsp)                 # 16-byte Spill
.Ltmp134:
	#DEBUG_VALUE: encrypt_detached:state <- [DW_OP_plus_uconst 64, DW_OP_deref, DW_OP_LLVM_fragment 384 128] $rsp
	vmovdqa	16(%rsp), %xmm4                 # 16-byte Reload
	vmovdqa	48(%rsp), %xmm5                 # 16-byte Reload
	.loc	5 51 16 is_stmt 1               # crypto_aead/aegis128l/aegis128l_aesni.c:51:16 @[ crypto_aead/aegis128l/aegis128l_common.h:105:5 @[ crypto_aead/aegis128l/aegis128l_common.h:185:9 ] ]
	vaesenc	%xmm4, %xmm5, %xmm4
.Ltmp135:
	#DEBUG_VALUE: encrypt_detached:state <- [DW_OP_LLVM_fragment 256 128] $xmm4
	.loc	5 0 16 is_stmt 0                # crypto_aead/aegis128l/aegis128l_aesni.c:0:16
	vmovdqa	%xmm4, 16(%rsp)                 # 16-byte Spill
.Ltmp136:
	#DEBUG_VALUE: encrypt_detached:state <- [DW_OP_plus_uconst 16, DW_OP_deref, DW_OP_LLVM_fragment 256 128] $rsp
	vmovdqa	48(%rsp), %xmm4                 # 16-byte Reload
	vmovdqa	128(%rsp), %xmm5                # 16-byte Reload
	.loc	5 52 16 is_stmt 1               # crypto_aead/aegis128l/aegis128l_aesni.c:52:16 @[ crypto_aead/aegis128l/aegis128l_common.h:105:5 @[ crypto_aead/aegis128l/aegis128l_common.h:185:9 ] ]
	vaesenc	%xmm4, %xmm5, %xmm4
.Ltmp137:
	#DEBUG_VALUE: encrypt_detached:state <- [DW_OP_LLVM_fragment 128 128] $xmm4
	.loc	5 0 16 is_stmt 0                # crypto_aead/aegis128l/aegis128l_aesni.c:0:16
	vmovdqa	%xmm4, 48(%rsp)                 # 16-byte Spill
.Ltmp138:
	#DEBUG_VALUE: encrypt_detached:state <- [DW_OP_plus_uconst 48, DW_OP_deref, DW_OP_LLVM_fragment 128 128] $rsp
	.loc	5 53 16 is_stmt 1               # crypto_aead/aegis128l/aegis128l_aesni.c:53:16 @[ crypto_aead/aegis128l/aegis128l_common.h:105:5 @[ crypto_aead/aegis128l/aegis128l_common.h:185:9 ] ]
	vaesenc	%xmm5, %xmm6, %xmm4
.Ltmp139:
	.loc	6 103 5                         # crypto_aead/aegis128l/aegis128l_common.h:103:5 @[ crypto_aead/aegis128l/aegis128l_common.h:185:9 ]
	vmovdqa	%xmm3, 208(%rsp)
.Ltmp140:
	#DEBUG_VALUE: aegis128l_update:state <- undef
	.loc	5 55 16                         # crypto_aead/aegis128l/aegis128l_aesni.c:55:16 @[ crypto_aead/aegis128l/aegis128l_common.h:105:5 @[ crypto_aead/aegis128l/aegis128l_common.h:185:9 ] ]
	vpxor	%xmm0, %xmm4, %xmm0
.Ltmp141:
	#DEBUG_VALUE: encrypt_detached:state <- [DW_OP_LLVM_fragment 0 128] $xmm0
	.loc	5 0 16 is_stmt 0                # crypto_aead/aegis128l/aegis128l_aesni.c:0:16
	vmovdqa	%xmm0, 128(%rsp)                # 16-byte Spill
.Ltmp142:
	#DEBUG_VALUE: encrypt_detached:state <- [DW_OP_plus_uconst 128, DW_OP_deref, DW_OP_LLVM_fragment 0 128] $rsp
	.loc	5 56 16 is_stmt 1               # crypto_aead/aegis128l/aegis128l_aesni.c:56:16 @[ crypto_aead/aegis128l/aegis128l_common.h:105:5 @[ crypto_aead/aegis128l/aegis128l_common.h:185:9 ] ]
	vpxor	%xmm1, %xmm2, %xmm0
.Ltmp143:
	#DEBUG_VALUE: encrypt_detached:state <- [DW_OP_LLVM_fragment 512 128] $xmm0
	.loc	5 0 16 is_stmt 0                # crypto_aead/aegis128l/aegis128l_aesni.c:0:16
	vmovdqa	%xmm0, 112(%rsp)                # 16-byte Spill
.Ltmp144:
	#DEBUG_VALUE: encrypt_detached:state <- [DW_OP_plus_uconst 112, DW_OP_deref, DW_OP_LLVM_fragment 512 128] $rsp
	.loc	6 186 18 is_stmt 1              # crypto_aead/aegis128l/aegis128l_common.h:186:18
	addq	%rbx, %r12
.Ltmp145:
	#DEBUG_VALUE: encrypt_detached:c <- [DW_OP_LLVM_entry_value 1] $rdi
	#DEBUG_VALUE: memcpy:__dest <- $r12
	#DEBUG_VALUE: memcpy:__src <- [DW_OP_plus_uconst 192, DW_OP_stack_value] $rsp
	#DEBUG_VALUE: memcpy:__len <- $r15
	.loc	6 0 18 is_stmt 0                # crypto_aead/aegis128l/aegis128l_common.h:0:18
	leaq	192(%rsp), %rsi
.Ltmp146:
	.loc	8 29 10 is_stmt 1               # /usr/include/x86_64-linux-gnu/bits/string_fortified.h:29:10 @[ crypto_aead/aegis128l/aegis128l_common.h:186:9 ]
	movq	%r12, %rdi
	movq	%r15, %rdx
	callq	memcpy@PLT
.Ltmp147:
	.loc	8 0 10 is_stmt 0                # /usr/include/x86_64-linux-gnu/bits/string_fortified.h:0:10
	vmovdqa	112(%rsp), %xmm7                # 16-byte Reload
	vmovdqa	128(%rsp), %xmm8                # 16-byte Reload
	vmovdqa	48(%rsp), %xmm13                # 16-byte Reload
	vmovdqa	16(%rsp), %xmm6                 # 16-byte Reload
	vmovdqa	64(%rsp), %xmm10                # 16-byte Reload
	vmovdqa	80(%rsp), %xmm12                # 16-byte Reload
	vmovdqa	32(%rsp), %xmm11                # 16-byte Reload
	vmovdqa	176(%rsp), %xmm9                # 16-byte Reload
.Ltmp148:
.LBB0_15:
	#DEBUG_VALUE: encrypt_detached:c <- [DW_OP_LLVM_entry_value 1] $rdi
	#DEBUG_VALUE: encrypt_detached:mac <- [DW_OP_plus_uconst 104] [$rsp+0]
	#DEBUG_VALUE: encrypt_detached:maclen <- [DW_OP_plus_uconst 168] [$rsp+0]
	#DEBUG_VALUE: encrypt_detached:m <- [DW_OP_LLVM_entry_value 1] $rcx
	#DEBUG_VALUE: encrypt_detached:mlen <- [DW_OP_plus_uconst 160] [$rsp+0]
	#DEBUG_VALUE: encrypt_detached:ad <- [DW_OP_LLVM_entry_value 1] $r9
	#DEBUG_VALUE: encrypt_detached:adlen <- [DW_OP_plus_uconst 16] [$rbp+0]
	#DEBUG_VALUE: encrypt_detached:npub <- [DW_OP_plus_uconst 24] [$rbp+0]
	#DEBUG_VALUE: encrypt_detached:k <- [DW_OP_plus_uconst 32] [$rbp+0]
	#DEBUG_VALUE: encrypt_detached:state <- [DW_OP_LLVM_fragment 512 128] $xmm7
	#DEBUG_VALUE: encrypt_detached:state <- [DW_OP_LLVM_fragment 896 128] $xmm9
	#DEBUG_VALUE: encrypt_detached:state <- [DW_OP_LLVM_fragment 768 128] $xmm11
	#DEBUG_VALUE: encrypt_detached:state <- [DW_OP_LLVM_fragment 640 128] $xmm12
	#DEBUG_VALUE: encrypt_detached:state <- [DW_OP_LLVM_fragment 384 128] $xmm10
	#DEBUG_VALUE: encrypt_detached:state <- [DW_OP_LLVM_fragment 256 128] $xmm6
	#DEBUG_VALUE: encrypt_detached:state <- [DW_OP_LLVM_fragment 128 128] $xmm13
	#DEBUG_VALUE: encrypt_detached:state <- [DW_OP_LLVM_fragment 0 128] $xmm8
	#DEBUG_VALUE: encrypt_detached:state <- [DW_OP_LLVM_fragment 0 128] $xmm8
	#DEBUG_VALUE: encrypt_detached:state <- [DW_OP_LLVM_fragment 128 128] $xmm13
	#DEBUG_VALUE: encrypt_detached:state <- [DW_OP_LLVM_fragment 256 128] $xmm6
	#DEBUG_VALUE: encrypt_detached:state <- [DW_OP_LLVM_fragment 384 128] $xmm10
	#DEBUG_VALUE: encrypt_detached:state <- [DW_OP_LLVM_fragment 512 128] $xmm7
	#DEBUG_VALUE: encrypt_detached:state <- [DW_OP_LLVM_fragment 640 128] $xmm12
	#DEBUG_VALUE: encrypt_detached:state <- [DW_OP_LLVM_fragment 768 128] $xmm11
	#DEBUG_VALUE: encrypt_detached:state <- [DW_OP_LLVM_fragment 896 128] $xmm9
	#DEBUG_VALUE: aegis128l_mac:mac <- [DW_OP_plus_uconst 104, DW_OP_deref] $rsp
	#DEBUG_VALUE: aegis128l_mac:maclen <- [DW_OP_plus_uconst 168, DW_OP_deref] $rsp
	#DEBUG_VALUE: aegis128l_mac:adlen <- $r14
	#DEBUG_VALUE: aegis128l_mac:mlen <- [DW_OP_plus_uconst 160, DW_OP_deref] $rsp
	#DEBUG_VALUE: aegis128l_mac:state <- undef
	.loc	6 41 96 is_stmt 1               # crypto_aead/aegis128l/aegis128l_common.h:41:96 @[ crypto_aead/aegis128l/aegis128l_common.h:189:5 ]
	vmovq	160(%rsp), %xmm0                # 8-byte Folded Reload
                                        # xmm0 = mem[0],zero
	vmovq	%r14, %xmm1
	vpunpcklqdq	%xmm0, %xmm1, %xmm0     # xmm0 = xmm1[0],xmm0[0]
	vpsllq	$3, %xmm0, %xmm0
.Ltmp149:
	#DEBUG_VALUE: aegis128l_mac:tmp <- undef
	.loc	6 42 11                         # crypto_aead/aegis128l/aegis128l_common.h:42:11 @[ crypto_aead/aegis128l/aegis128l_common.h:189:5 ]
	vpxor	%xmm0, %xmm6, %xmm0
.Ltmp150:
	#DEBUG_VALUE: aegis128l_mac:tmp <- $xmm0
	#DEBUG_VALUE: aegis128l_update:d1 <- $xmm0
	#DEBUG_VALUE: aegis128l_update:d2 <- $xmm0
	#DEBUG_VALUE: aegis128l_mac:i <- 0
	#DEBUG_VALUE: aegis128l_update:state <- undef
	#DEBUG_VALUE: aegis128l_update:tmp <- $xmm9
	.loc	5 46 16                         # crypto_aead/aegis128l/aegis128l_aesni.c:46:16 @[ crypto_aead/aegis128l/aegis128l_common.h:45:9 @[ crypto_aead/aegis128l/aegis128l_common.h:189:5 ] ]
	vaesenc	%xmm9, %xmm11, %xmm1
	.loc	5 47 16                         # crypto_aead/aegis128l/aegis128l_aesni.c:47:16 @[ crypto_aead/aegis128l/aegis128l_common.h:45:9 @[ crypto_aead/aegis128l/aegis128l_common.h:189:5 ] ]
	vaesenc	%xmm11, %xmm12, %xmm2
	.loc	5 48 16                         # crypto_aead/aegis128l/aegis128l_aesni.c:48:16 @[ crypto_aead/aegis128l/aegis128l_common.h:45:9 @[ crypto_aead/aegis128l/aegis128l_common.h:189:5 ] ]
	vaesenc	%xmm12, %xmm7, %xmm3
	.loc	5 49 16                         # crypto_aead/aegis128l/aegis128l_aesni.c:49:16 @[ crypto_aead/aegis128l/aegis128l_common.h:45:9 @[ crypto_aead/aegis128l/aegis128l_common.h:189:5 ] ]
	vaesenc	%xmm7, %xmm10, %xmm4
	.loc	5 50 16                         # crypto_aead/aegis128l/aegis128l_aesni.c:50:16 @[ crypto_aead/aegis128l/aegis128l_common.h:45:9 @[ crypto_aead/aegis128l/aegis128l_common.h:189:5 ] ]
	vaesenc	%xmm10, %xmm6, %xmm5
	.loc	5 51 16                         # crypto_aead/aegis128l/aegis128l_aesni.c:51:16 @[ crypto_aead/aegis128l/aegis128l_common.h:45:9 @[ crypto_aead/aegis128l/aegis128l_common.h:189:5 ] ]
	vaesenc	%xmm6, %xmm13, %xmm6
.Ltmp151:
	.loc	5 52 16                         # crypto_aead/aegis128l/aegis128l_aesni.c:52:16 @[ crypto_aead/aegis128l/aegis128l_common.h:45:9 @[ crypto_aead/aegis128l/aegis128l_common.h:189:5 ] ]
	vaesenc	%xmm13, %xmm8, %xmm7
.Ltmp152:
	.loc	5 53 16                         # crypto_aead/aegis128l/aegis128l_aesni.c:53:16 @[ crypto_aead/aegis128l/aegis128l_common.h:45:9 @[ crypto_aead/aegis128l/aegis128l_common.h:189:5 ] ]
	vaesenc	%xmm8, %xmm9, %xmm8
.Ltmp153:
	.loc	5 55 16                         # crypto_aead/aegis128l/aegis128l_aesni.c:55:16 @[ crypto_aead/aegis128l/aegis128l_common.h:45:9 @[ crypto_aead/aegis128l/aegis128l_common.h:189:5 ] ]
	vpxor	%xmm0, %xmm8, %xmm8
	.loc	5 56 16                         # crypto_aead/aegis128l/aegis128l_aesni.c:56:16 @[ crypto_aead/aegis128l/aegis128l_common.h:45:9 @[ crypto_aead/aegis128l/aegis128l_common.h:189:5 ] ]
	vpxor	%xmm0, %xmm4, %xmm4
.Ltmp154:
	#DEBUG_VALUE: aegis128l_mac:i <- 1
	#DEBUG_VALUE: aegis128l_update:tmp <- $xmm1
	.loc	5 46 16                         # crypto_aead/aegis128l/aegis128l_aesni.c:46:16 @[ crypto_aead/aegis128l/aegis128l_common.h:45:9 @[ crypto_aead/aegis128l/aegis128l_common.h:189:5 ] ]
	vaesenc	%xmm1, %xmm2, %xmm9
.Ltmp155:
	.loc	5 47 16                         # crypto_aead/aegis128l/aegis128l_aesni.c:47:16 @[ crypto_aead/aegis128l/aegis128l_common.h:45:9 @[ crypto_aead/aegis128l/aegis128l_common.h:189:5 ] ]
	vaesenc	%xmm2, %xmm3, %xmm2
	.loc	5 48 16                         # crypto_aead/aegis128l/aegis128l_aesni.c:48:16 @[ crypto_aead/aegis128l/aegis128l_common.h:45:9 @[ crypto_aead/aegis128l/aegis128l_common.h:189:5 ] ]
	vaesenc	%xmm3, %xmm4, %xmm3
	.loc	5 49 16                         # crypto_aead/aegis128l/aegis128l_aesni.c:49:16 @[ crypto_aead/aegis128l/aegis128l_common.h:45:9 @[ crypto_aead/aegis128l/aegis128l_common.h:189:5 ] ]
	vaesenc	%xmm4, %xmm5, %xmm4
	.loc	5 50 16                         # crypto_aead/aegis128l/aegis128l_aesni.c:50:16 @[ crypto_aead/aegis128l/aegis128l_common.h:45:9 @[ crypto_aead/aegis128l/aegis128l_common.h:189:5 ] ]
	vaesenc	%xmm5, %xmm6, %xmm5
	.loc	5 51 16                         # crypto_aead/aegis128l/aegis128l_aesni.c:51:16 @[ crypto_aead/aegis128l/aegis128l_common.h:45:9 @[ crypto_aead/aegis128l/aegis128l_common.h:189:5 ] ]
	vaesenc	%xmm6, %xmm7, %xmm6
	.loc	5 52 16                         # crypto_aead/aegis128l/aegis128l_aesni.c:52:16 @[ crypto_aead/aegis128l/aegis128l_common.h:45:9 @[ crypto_aead/aegis128l/aegis128l_common.h:189:5 ] ]
	vaesenc	%xmm7, %xmm8, %xmm7
	.loc	5 53 16                         # crypto_aead/aegis128l/aegis128l_aesni.c:53:16 @[ crypto_aead/aegis128l/aegis128l_common.h:45:9 @[ crypto_aead/aegis128l/aegis128l_common.h:189:5 ] ]
	vaesenc	%xmm8, %xmm1, %xmm1
.Ltmp156:
	.loc	5 55 16                         # crypto_aead/aegis128l/aegis128l_aesni.c:55:16 @[ crypto_aead/aegis128l/aegis128l_common.h:45:9 @[ crypto_aead/aegis128l/aegis128l_common.h:189:5 ] ]
	vpxor	%xmm0, %xmm1, %xmm1
	.loc	5 56 16                         # crypto_aead/aegis128l/aegis128l_aesni.c:56:16 @[ crypto_aead/aegis128l/aegis128l_common.h:45:9 @[ crypto_aead/aegis128l/aegis128l_common.h:189:5 ] ]
	vpxor	%xmm0, %xmm4, %xmm4
.Ltmp157:
	#DEBUG_VALUE: aegis128l_mac:i <- 2
	#DEBUG_VALUE: aegis128l_update:tmp <- $xmm9
	.loc	5 46 16                         # crypto_aead/aegis128l/aegis128l_aesni.c:46:16 @[ crypto_aead/aegis128l/aegis128l_common.h:45:9 @[ crypto_aead/aegis128l/aegis128l_common.h:189:5 ] ]
	vaesenc	%xmm9, %xmm2, %xmm8
	.loc	5 47 16                         # crypto_aead/aegis128l/aegis128l_aesni.c:47:16 @[ crypto_aead/aegis128l/aegis128l_common.h:45:9 @[ crypto_aead/aegis128l/aegis128l_common.h:189:5 ] ]
	vaesenc	%xmm2, %xmm3, %xmm2
	.loc	5 48 16                         # crypto_aead/aegis128l/aegis128l_aesni.c:48:16 @[ crypto_aead/aegis128l/aegis128l_common.h:45:9 @[ crypto_aead/aegis128l/aegis128l_common.h:189:5 ] ]
	vaesenc	%xmm3, %xmm4, %xmm3
	.loc	5 49 16                         # crypto_aead/aegis128l/aegis128l_aesni.c:49:16 @[ crypto_aead/aegis128l/aegis128l_common.h:45:9 @[ crypto_aead/aegis128l/aegis128l_common.h:189:5 ] ]
	vaesenc	%xmm4, %xmm5, %xmm4
	.loc	5 50 16                         # crypto_aead/aegis128l/aegis128l_aesni.c:50:16 @[ crypto_aead/aegis128l/aegis128l_common.h:45:9 @[ crypto_aead/aegis128l/aegis128l_common.h:189:5 ] ]
	vaesenc	%xmm5, %xmm6, %xmm5
	.loc	5 51 16                         # crypto_aead/aegis128l/aegis128l_aesni.c:51:16 @[ crypto_aead/aegis128l/aegis128l_common.h:45:9 @[ crypto_aead/aegis128l/aegis128l_common.h:189:5 ] ]
	vaesenc	%xmm6, %xmm7, %xmm6
	.loc	5 52 16                         # crypto_aead/aegis128l/aegis128l_aesni.c:52:16 @[ crypto_aead/aegis128l/aegis128l_common.h:45:9 @[ crypto_aead/aegis128l/aegis128l_common.h:189:5 ] ]
	vaesenc	%xmm7, %xmm1, %xmm7
	.loc	5 53 16                         # crypto_aead/aegis128l/aegis128l_aesni.c:53:16 @[ crypto_aead/aegis128l/aegis128l_common.h:45:9 @[ crypto_aead/aegis128l/aegis128l_common.h:189:5 ] ]
	vaesenc	%xmm1, %xmm9, %xmm1
	.loc	5 55 16                         # crypto_aead/aegis128l/aegis128l_aesni.c:55:16 @[ crypto_aead/aegis128l/aegis128l_common.h:45:9 @[ crypto_aead/aegis128l/aegis128l_common.h:189:5 ] ]
	vpxor	%xmm0, %xmm1, %xmm1
	.loc	5 56 16                         # crypto_aead/aegis128l/aegis128l_aesni.c:56:16 @[ crypto_aead/aegis128l/aegis128l_common.h:45:9 @[ crypto_aead/aegis128l/aegis128l_common.h:189:5 ] ]
	vpxor	%xmm0, %xmm4, %xmm4
.Ltmp158:
	#DEBUG_VALUE: aegis128l_mac:i <- 3
	#DEBUG_VALUE: aegis128l_update:tmp <- $xmm8
	.loc	5 46 16                         # crypto_aead/aegis128l/aegis128l_aesni.c:46:16 @[ crypto_aead/aegis128l/aegis128l_common.h:45:9 @[ crypto_aead/aegis128l/aegis128l_common.h:189:5 ] ]
	vaesenc	%xmm8, %xmm2, %xmm9
	.loc	5 47 16                         # crypto_aead/aegis128l/aegis128l_aesni.c:47:16 @[ crypto_aead/aegis128l/aegis128l_common.h:45:9 @[ crypto_aead/aegis128l/aegis128l_common.h:189:5 ] ]
	vaesenc	%xmm2, %xmm3, %xmm2
	.loc	5 48 16                         # crypto_aead/aegis128l/aegis128l_aesni.c:48:16 @[ crypto_aead/aegis128l/aegis128l_common.h:45:9 @[ crypto_aead/aegis128l/aegis128l_common.h:189:5 ] ]
	vaesenc	%xmm3, %xmm4, %xmm3
	.loc	5 49 16                         # crypto_aead/aegis128l/aegis128l_aesni.c:49:16 @[ crypto_aead/aegis128l/aegis128l_common.h:45:9 @[ crypto_aead/aegis128l/aegis128l_common.h:189:5 ] ]
	vaesenc	%xmm4, %xmm5, %xmm4
	.loc	5 50 16                         # crypto_aead/aegis128l/aegis128l_aesni.c:50:16 @[ crypto_aead/aegis128l/aegis128l_common.h:45:9 @[ crypto_aead/aegis128l/aegis128l_common.h:189:5 ] ]
	vaesenc	%xmm5, %xmm6, %xmm5
	.loc	5 51 16                         # crypto_aead/aegis128l/aegis128l_aesni.c:51:16 @[ crypto_aead/aegis128l/aegis128l_common.h:45:9 @[ crypto_aead/aegis128l/aegis128l_common.h:189:5 ] ]
	vaesenc	%xmm6, %xmm7, %xmm6
	.loc	5 52 16                         # crypto_aead/aegis128l/aegis128l_aesni.c:52:16 @[ crypto_aead/aegis128l/aegis128l_common.h:45:9 @[ crypto_aead/aegis128l/aegis128l_common.h:189:5 ] ]
	vaesenc	%xmm7, %xmm1, %xmm7
	.loc	5 53 16                         # crypto_aead/aegis128l/aegis128l_aesni.c:53:16 @[ crypto_aead/aegis128l/aegis128l_common.h:45:9 @[ crypto_aead/aegis128l/aegis128l_common.h:189:5 ] ]
	vaesenc	%xmm1, %xmm8, %xmm1
	.loc	5 55 16                         # crypto_aead/aegis128l/aegis128l_aesni.c:55:16 @[ crypto_aead/aegis128l/aegis128l_common.h:45:9 @[ crypto_aead/aegis128l/aegis128l_common.h:189:5 ] ]
	vpxor	%xmm0, %xmm1, %xmm1
	.loc	5 56 16                         # crypto_aead/aegis128l/aegis128l_aesni.c:56:16 @[ crypto_aead/aegis128l/aegis128l_common.h:45:9 @[ crypto_aead/aegis128l/aegis128l_common.h:189:5 ] ]
	vpxor	%xmm0, %xmm4, %xmm4
.Ltmp159:
	#DEBUG_VALUE: aegis128l_mac:i <- 4
	#DEBUG_VALUE: aegis128l_update:tmp <- $xmm9
	.loc	5 46 16                         # crypto_aead/aegis128l/aegis128l_aesni.c:46:16 @[ crypto_aead/aegis128l/aegis128l_common.h:45:9 @[ crypto_aead/aegis128l/aegis128l_common.h:189:5 ] ]
	vaesenc	%xmm9, %xmm2, %xmm8
	.loc	5 47 16                         # crypto_aead/aegis128l/aegis128l_aesni.c:47:16 @[ crypto_aead/aegis128l/aegis128l_common.h:45:9 @[ crypto_aead/aegis128l/aegis128l_common.h:189:5 ] ]
	vaesenc	%xmm2, %xmm3, %xmm2
	.loc	5 48 16                         # crypto_aead/aegis128l/aegis128l_aesni.c:48:16 @[ crypto_aead/aegis128l/aegis128l_common.h:45:9 @[ crypto_aead/aegis128l/aegis128l_common.h:189:5 ] ]
	vaesenc	%xmm3, %xmm4, %xmm10
.Ltmp160:
	.loc	5 49 16                         # crypto_aead/aegis128l/aegis128l_aesni.c:49:16 @[ crypto_aead/aegis128l/aegis128l_common.h:45:9 @[ crypto_aead/aegis128l/aegis128l_common.h:189:5 ] ]
	vaesenc	%xmm4, %xmm5, %xmm3
	.loc	5 50 16                         # crypto_aead/aegis128l/aegis128l_aesni.c:50:16 @[ crypto_aead/aegis128l/aegis128l_common.h:45:9 @[ crypto_aead/aegis128l/aegis128l_common.h:189:5 ] ]
	vaesenc	%xmm5, %xmm6, %xmm5
	.loc	5 51 16                         # crypto_aead/aegis128l/aegis128l_aesni.c:51:16 @[ crypto_aead/aegis128l/aegis128l_common.h:45:9 @[ crypto_aead/aegis128l/aegis128l_common.h:189:5 ] ]
	vaesenc	%xmm6, %xmm7, %xmm6
	.loc	5 52 16                         # crypto_aead/aegis128l/aegis128l_aesni.c:52:16 @[ crypto_aead/aegis128l/aegis128l_common.h:45:9 @[ crypto_aead/aegis128l/aegis128l_common.h:189:5 ] ]
	vaesenc	%xmm7, %xmm1, %xmm7
	.loc	5 53 16                         # crypto_aead/aegis128l/aegis128l_aesni.c:53:16 @[ crypto_aead/aegis128l/aegis128l_common.h:45:9 @[ crypto_aead/aegis128l/aegis128l_common.h:189:5 ] ]
	vaesenc	%xmm1, %xmm9, %xmm1
	.loc	5 55 16                         # crypto_aead/aegis128l/aegis128l_aesni.c:55:16 @[ crypto_aead/aegis128l/aegis128l_common.h:45:9 @[ crypto_aead/aegis128l/aegis128l_common.h:189:5 ] ]
	vpxor	%xmm0, %xmm1, %xmm1
	.loc	5 56 16                         # crypto_aead/aegis128l/aegis128l_aesni.c:56:16 @[ crypto_aead/aegis128l/aegis128l_common.h:45:9 @[ crypto_aead/aegis128l/aegis128l_common.h:189:5 ] ]
	vpxor	%xmm0, %xmm3, %xmm9
.Ltmp161:
	#DEBUG_VALUE: aegis128l_mac:i <- 5
	#DEBUG_VALUE: aegis128l_update:tmp <- $xmm8
	.loc	5 46 16                         # crypto_aead/aegis128l/aegis128l_aesni.c:46:16 @[ crypto_aead/aegis128l/aegis128l_common.h:45:9 @[ crypto_aead/aegis128l/aegis128l_common.h:189:5 ] ]
	vaesenc	%xmm8, %xmm2, %xmm3
	.loc	5 47 16                         # crypto_aead/aegis128l/aegis128l_aesni.c:47:16 @[ crypto_aead/aegis128l/aegis128l_common.h:45:9 @[ crypto_aead/aegis128l/aegis128l_common.h:189:5 ] ]
	vaesenc	%xmm2, %xmm10, %xmm4
	.loc	5 48 16                         # crypto_aead/aegis128l/aegis128l_aesni.c:48:16 @[ crypto_aead/aegis128l/aegis128l_common.h:45:9 @[ crypto_aead/aegis128l/aegis128l_common.h:189:5 ] ]
	vaesenc	%xmm10, %xmm9, %xmm2
	.loc	5 49 16                         # crypto_aead/aegis128l/aegis128l_aesni.c:49:16 @[ crypto_aead/aegis128l/aegis128l_common.h:45:9 @[ crypto_aead/aegis128l/aegis128l_common.h:189:5 ] ]
	vaesenc	%xmm9, %xmm5, %xmm9
	.loc	5 50 16                         # crypto_aead/aegis128l/aegis128l_aesni.c:50:16 @[ crypto_aead/aegis128l/aegis128l_common.h:45:9 @[ crypto_aead/aegis128l/aegis128l_common.h:189:5 ] ]
	vaesenc	%xmm5, %xmm6, %xmm5
	.loc	5 51 16                         # crypto_aead/aegis128l/aegis128l_aesni.c:51:16 @[ crypto_aead/aegis128l/aegis128l_common.h:45:9 @[ crypto_aead/aegis128l/aegis128l_common.h:189:5 ] ]
	vaesenc	%xmm6, %xmm7, %xmm6
	.loc	5 52 16                         # crypto_aead/aegis128l/aegis128l_aesni.c:52:16 @[ crypto_aead/aegis128l/aegis128l_common.h:45:9 @[ crypto_aead/aegis128l/aegis128l_common.h:189:5 ] ]
	vaesenc	%xmm7, %xmm1, %xmm7
	.loc	5 53 16                         # crypto_aead/aegis128l/aegis128l_aesni.c:53:16 @[ crypto_aead/aegis128l/aegis128l_common.h:45:9 @[ crypto_aead/aegis128l/aegis128l_common.h:189:5 ] ]
	vaesenc	%xmm1, %xmm8, %xmm1
	.loc	5 55 16                         # crypto_aead/aegis128l/aegis128l_aesni.c:55:16 @[ crypto_aead/aegis128l/aegis128l_common.h:45:9 @[ crypto_aead/aegis128l/aegis128l_common.h:189:5 ] ]
	vpxor	%xmm0, %xmm1, %xmm10
	.loc	5 56 16                         # crypto_aead/aegis128l/aegis128l_aesni.c:56:16 @[ crypto_aead/aegis128l/aegis128l_common.h:45:9 @[ crypto_aead/aegis128l/aegis128l_common.h:189:5 ] ]
	vpxor	%xmm0, %xmm9, %xmm8
.Ltmp162:
	#DEBUG_VALUE: aegis128l_mac:i <- 6
	#DEBUG_VALUE: aegis128l_update:tmp <- $xmm3
	.loc	5 47 16                         # crypto_aead/aegis128l/aegis128l_aesni.c:47:16 @[ crypto_aead/aegis128l/aegis128l_common.h:45:9 @[ crypto_aead/aegis128l/aegis128l_common.h:189:5 ] ]
	vaesenc	%xmm4, %xmm2, %xmm1
	.loc	5 48 16                         # crypto_aead/aegis128l/aegis128l_aesni.c:48:16 @[ crypto_aead/aegis128l/aegis128l_common.h:45:9 @[ crypto_aead/aegis128l/aegis128l_common.h:189:5 ] ]
	vaesenc	%xmm2, %xmm8, %xmm2
	.loc	5 49 16                         # crypto_aead/aegis128l/aegis128l_aesni.c:49:16 @[ crypto_aead/aegis128l/aegis128l_common.h:45:9 @[ crypto_aead/aegis128l/aegis128l_common.h:189:5 ] ]
	vaesenc	%xmm8, %xmm5, %xmm9
	.loc	5 50 16                         # crypto_aead/aegis128l/aegis128l_aesni.c:50:16 @[ crypto_aead/aegis128l/aegis128l_common.h:45:9 @[ crypto_aead/aegis128l/aegis128l_common.h:189:5 ] ]
	vaesenc	%xmm5, %xmm6, %xmm5
	.loc	5 51 16                         # crypto_aead/aegis128l/aegis128l_aesni.c:51:16 @[ crypto_aead/aegis128l/aegis128l_common.h:45:9 @[ crypto_aead/aegis128l/aegis128l_common.h:189:5 ] ]
	vaesenc	%xmm6, %xmm7, %xmm8
	.loc	5 52 16                         # crypto_aead/aegis128l/aegis128l_aesni.c:52:16 @[ crypto_aead/aegis128l/aegis128l_common.h:45:9 @[ crypto_aead/aegis128l/aegis128l_common.h:189:5 ] ]
	vaesenc	%xmm7, %xmm10, %xmm6
	.loc	5 53 16                         # crypto_aead/aegis128l/aegis128l_aesni.c:53:16 @[ crypto_aead/aegis128l/aegis128l_common.h:45:9 @[ crypto_aead/aegis128l/aegis128l_common.h:189:5 ] ]
	vaesenc	%xmm10, %xmm3, %xmm7
	.loc	5 55 16                         # crypto_aead/aegis128l/aegis128l_aesni.c:55:16 @[ crypto_aead/aegis128l/aegis128l_common.h:45:9 @[ crypto_aead/aegis128l/aegis128l_common.h:189:5 ] ]
	vpxor	%xmm0, %xmm7, %xmm7
	.loc	5 56 16                         # crypto_aead/aegis128l/aegis128l_aesni.c:56:16 @[ crypto_aead/aegis128l/aegis128l_common.h:45:9 @[ crypto_aead/aegis128l/aegis128l_common.h:189:5 ] ]
	vpxor	%xmm0, %xmm9, %xmm0
.Ltmp163:
	#DEBUG_VALUE: encrypt_detached:state <- [DW_OP_LLVM_fragment 512 128] $xmm0
	#DEBUG_VALUE: aegis128l_mac:i <- 7
	#DEBUG_VALUE: encrypt_detached:state <- [DW_OP_LLVM_fragment 896 128] undef
	#DEBUG_VALUE: encrypt_detached:state <- [DW_OP_LLVM_fragment 768 128] $xmm1
	#DEBUG_VALUE: encrypt_detached:state <- [DW_OP_LLVM_fragment 640 128] $xmm2
	#DEBUG_VALUE: encrypt_detached:state <- [DW_OP_LLVM_fragment 384 128] $xmm5
	#DEBUG_VALUE: encrypt_detached:state <- [DW_OP_LLVM_fragment 256 128] $xmm8
	#DEBUG_VALUE: encrypt_detached:state <- [DW_OP_LLVM_fragment 128 128] $xmm6
	#DEBUG_VALUE: encrypt_detached:state <- [DW_OP_LLVM_fragment 0 128] $xmm7
	.loc	5 0 16 is_stmt 0                # crypto_aead/aegis128l/aegis128l_aesni.c:0:16
	movq	168(%rsp), %rdx                 # 8-byte Reload
.Ltmp164:
	.loc	6 48 16 is_stmt 1               # crypto_aead/aegis128l/aegis128l_common.h:48:16 @[ crypto_aead/aegis128l/aegis128l_common.h:189:5 ]
	cmpq	$32, %rdx
	je	.LBB0_18
.Ltmp165:
# %bb.16:
	#DEBUG_VALUE: encrypt_detached:c <- [DW_OP_LLVM_entry_value 1] $rdi
	#DEBUG_VALUE: encrypt_detached:mac <- [DW_OP_plus_uconst 104] [$rsp+0]
	#DEBUG_VALUE: encrypt_detached:maclen <- [DW_OP_plus_uconst 168] [$rsp+0]
	#DEBUG_VALUE: encrypt_detached:m <- [DW_OP_LLVM_entry_value 1] $rcx
	#DEBUG_VALUE: encrypt_detached:mlen <- [DW_OP_plus_uconst 160] [$rsp+0]
	#DEBUG_VALUE: encrypt_detached:ad <- [DW_OP_LLVM_entry_value 1] $r9
	#DEBUG_VALUE: encrypt_detached:adlen <- [DW_OP_plus_uconst 16] [$rbp+0]
	#DEBUG_VALUE: encrypt_detached:npub <- [DW_OP_plus_uconst 24] [$rbp+0]
	#DEBUG_VALUE: encrypt_detached:k <- [DW_OP_plus_uconst 32] [$rbp+0]
	#DEBUG_VALUE: encrypt_detached:state <- [DW_OP_LLVM_fragment 512 128] $xmm0
	#DEBUG_VALUE: encrypt_detached:state <- [DW_OP_LLVM_fragment 768 128] $xmm1
	#DEBUG_VALUE: encrypt_detached:state <- [DW_OP_LLVM_fragment 640 128] $xmm2
	#DEBUG_VALUE: encrypt_detached:state <- [DW_OP_LLVM_fragment 384 128] $xmm5
	#DEBUG_VALUE: encrypt_detached:state <- [DW_OP_LLVM_fragment 256 128] $xmm8
	#DEBUG_VALUE: encrypt_detached:state <- [DW_OP_LLVM_fragment 128 128] $xmm6
	#DEBUG_VALUE: encrypt_detached:state <- [DW_OP_LLVM_fragment 0 128] $xmm7
	#DEBUG_VALUE: aegis128l_mac:mac <- [DW_OP_plus_uconst 104, DW_OP_deref] $rsp
	#DEBUG_VALUE: aegis128l_mac:maclen <- [DW_OP_plus_uconst 168, DW_OP_deref] $rsp
	#DEBUG_VALUE: aegis128l_mac:adlen <- $r14
	#DEBUG_VALUE: aegis128l_mac:mlen <- [DW_OP_plus_uconst 160, DW_OP_deref] $rsp
	#DEBUG_VALUE: aegis128l_mac:i <- 7
	cmpq	$16, %rdx
	jne	.LBB0_19
.Ltmp166:
# %bb.17:
	#DEBUG_VALUE: encrypt_detached:c <- [DW_OP_LLVM_entry_value 1] $rdi
	#DEBUG_VALUE: encrypt_detached:mac <- [DW_OP_plus_uconst 104] [$rsp+0]
	#DEBUG_VALUE: encrypt_detached:maclen <- [DW_OP_plus_uconst 168] [$rsp+0]
	#DEBUG_VALUE: encrypt_detached:m <- [DW_OP_LLVM_entry_value 1] $rcx
	#DEBUG_VALUE: encrypt_detached:mlen <- [DW_OP_plus_uconst 160] [$rsp+0]
	#DEBUG_VALUE: encrypt_detached:ad <- [DW_OP_LLVM_entry_value 1] $r9
	#DEBUG_VALUE: encrypt_detached:adlen <- [DW_OP_plus_uconst 16] [$rbp+0]
	#DEBUG_VALUE: encrypt_detached:npub <- [DW_OP_plus_uconst 24] [$rbp+0]
	#DEBUG_VALUE: encrypt_detached:k <- [DW_OP_plus_uconst 32] [$rbp+0]
	#DEBUG_VALUE: encrypt_detached:state <- [DW_OP_LLVM_fragment 512 128] $xmm0
	#DEBUG_VALUE: encrypt_detached:state <- [DW_OP_LLVM_fragment 768 128] $xmm1
	#DEBUG_VALUE: encrypt_detached:state <- [DW_OP_LLVM_fragment 640 128] $xmm2
	#DEBUG_VALUE: encrypt_detached:state <- [DW_OP_LLVM_fragment 384 128] $xmm5
	#DEBUG_VALUE: encrypt_detached:state <- [DW_OP_LLVM_fragment 256 128] $xmm8
	#DEBUG_VALUE: encrypt_detached:state <- [DW_OP_LLVM_fragment 128 128] $xmm6
	#DEBUG_VALUE: encrypt_detached:state <- [DW_OP_LLVM_fragment 0 128] $xmm7
	#DEBUG_VALUE: aegis128l_mac:mac <- [DW_OP_plus_uconst 104, DW_OP_deref] $rsp
	#DEBUG_VALUE: aegis128l_mac:maclen <- [DW_OP_plus_uconst 168, DW_OP_deref] $rsp
	#DEBUG_VALUE: aegis128l_mac:adlen <- $r14
	#DEBUG_VALUE: aegis128l_mac:mlen <- [DW_OP_plus_uconst 160, DW_OP_deref] $rsp
	#DEBUG_VALUE: aegis128l_mac:i <- 7
	#DEBUG_VALUE: aegis128l_mac:tmp <- undef
	.loc	6 51 37                         # crypto_aead/aegis128l/aegis128l_common.h:51:37 @[ crypto_aead/aegis128l/aegis128l_common.h:189:5 ]
	vpxor	%xmm1, %xmm2, %xmm1
.Ltmp167:
	.loc	6 50 37                         # crypto_aead/aegis128l/aegis128l_common.h:50:37 @[ crypto_aead/aegis128l/aegis128l_common.h:189:5 ]
	vpxor	%xmm0, %xmm1, %xmm0
.Ltmp168:
	.loc	6 49 42                         # crypto_aead/aegis128l/aegis128l_common.h:49:42 @[ crypto_aead/aegis128l/aegis128l_common.h:189:5 ]
	vpxor	%xmm5, %xmm8, %xmm1
	.loc	6 49 15 is_stmt 0               # crypto_aead/aegis128l/aegis128l_common.h:49:15 @[ crypto_aead/aegis128l/aegis128l_common.h:189:5 ]
	vpxor	%xmm6, %xmm1, %xmm1
	.loc	6 50 15 is_stmt 1               # crypto_aead/aegis128l/aegis128l_common.h:50:15 @[ crypto_aead/aegis128l/aegis128l_common.h:189:5 ]
	vpxor	%xmm7, %xmm1, %xmm1
	.loc	6 51 15                         # crypto_aead/aegis128l/aegis128l_common.h:51:15 @[ crypto_aead/aegis128l/aegis128l_common.h:189:5 ]
	vpxor	%xmm1, %xmm0, %xmm0
.Ltmp169:
	#DEBUG_VALUE: aegis128l_mac:tmp <- $xmm0
	.loc	6 0 15 is_stmt 0                # crypto_aead/aegis128l/aegis128l_common.h:0:15
	movq	104(%rsp), %rax                 # 8-byte Reload
	.loc	6 52 9 is_stmt 1                # crypto_aead/aegis128l/aegis128l_common.h:52:9 @[ crypto_aead/aegis128l/aegis128l_common.h:189:5 ]
	vmovdqu	%xmm0, (%rax)
	.loc	6 53 5                          # crypto_aead/aegis128l/aegis128l_common.h:53:5 @[ crypto_aead/aegis128l/aegis128l_common.h:189:5 ]
	jmp	.LBB0_20
.Ltmp170:
.LBB0_18:
	#DEBUG_VALUE: encrypt_detached:c <- [DW_OP_LLVM_entry_value 1] $rdi
	#DEBUG_VALUE: encrypt_detached:mac <- [DW_OP_plus_uconst 104] [$rsp+0]
	#DEBUG_VALUE: encrypt_detached:maclen <- [DW_OP_plus_uconst 168] [$rsp+0]
	#DEBUG_VALUE: encrypt_detached:m <- [DW_OP_LLVM_entry_value 1] $rcx
	#DEBUG_VALUE: encrypt_detached:mlen <- [DW_OP_plus_uconst 160] [$rsp+0]
	#DEBUG_VALUE: encrypt_detached:ad <- [DW_OP_LLVM_entry_value 1] $r9
	#DEBUG_VALUE: encrypt_detached:adlen <- [DW_OP_plus_uconst 16] [$rbp+0]
	#DEBUG_VALUE: encrypt_detached:npub <- [DW_OP_plus_uconst 24] [$rbp+0]
	#DEBUG_VALUE: encrypt_detached:k <- [DW_OP_plus_uconst 32] [$rbp+0]
	#DEBUG_VALUE: encrypt_detached:state <- [DW_OP_LLVM_fragment 512 128] $xmm0
	#DEBUG_VALUE: encrypt_detached:state <- [DW_OP_LLVM_fragment 768 128] $xmm1
	#DEBUG_VALUE: encrypt_detached:state <- [DW_OP_LLVM_fragment 640 128] $xmm2
	#DEBUG_VALUE: encrypt_detached:state <- [DW_OP_LLVM_fragment 384 128] $xmm5
	#DEBUG_VALUE: encrypt_detached:state <- [DW_OP_LLVM_fragment 256 128] $xmm8
	#DEBUG_VALUE: encrypt_detached:state <- [DW_OP_LLVM_fragment 128 128] $xmm6
	#DEBUG_VALUE: encrypt_detached:state <- [DW_OP_LLVM_fragment 0 128] $xmm7
	#DEBUG_VALUE: aegis128l_mac:mac <- [DW_OP_plus_uconst 104, DW_OP_deref] $rsp
	#DEBUG_VALUE: aegis128l_mac:maclen <- [DW_OP_plus_uconst 168, DW_OP_deref] $rsp
	#DEBUG_VALUE: aegis128l_mac:adlen <- $r14
	#DEBUG_VALUE: aegis128l_mac:mlen <- [DW_OP_plus_uconst 160, DW_OP_deref] $rsp
	#DEBUG_VALUE: aegis128l_mac:i <- 7
	#DEBUG_VALUE: aegis128l_update:tmp <- $xmm3
	.loc	5 46 16                         # crypto_aead/aegis128l/aegis128l_aesni.c:46:16 @[ crypto_aead/aegis128l/aegis128l_common.h:45:9 @[ crypto_aead/aegis128l/aegis128l_common.h:189:5 ] ]
	vaesenc	%xmm3, %xmm4, %xmm3
.Ltmp171:
	#DEBUG_VALUE: encrypt_detached:state <- [DW_OP_LLVM_fragment 896 128] $xmm3
	#DEBUG_VALUE: aegis128l_mac:tmp <- undef
	.loc	6 55 37                         # crypto_aead/aegis128l/aegis128l_common.h:55:37 @[ crypto_aead/aegis128l/aegis128l_common.h:189:5 ]
	vpxor	%xmm5, %xmm8, %xmm4
	.loc	6 54 15                         # crypto_aead/aegis128l/aegis128l_common.h:54:15 @[ crypto_aead/aegis128l/aegis128l_common.h:189:5 ]
	vpxor	%xmm6, %xmm4, %xmm4
	.loc	6 55 15                         # crypto_aead/aegis128l/aegis128l_common.h:55:15 @[ crypto_aead/aegis128l/aegis128l_common.h:189:5 ]
	vpxor	%xmm7, %xmm4, %xmm4
.Ltmp172:
	#DEBUG_VALUE: aegis128l_mac:tmp <- $xmm4
	.loc	6 0 15 is_stmt 0                # crypto_aead/aegis128l/aegis128l_common.h:0:15
	movq	104(%rsp), %rax                 # 8-byte Reload
	.loc	6 56 9 is_stmt 1                # crypto_aead/aegis128l/aegis128l_common.h:56:9 @[ crypto_aead/aegis128l/aegis128l_common.h:189:5 ]
	vmovdqu	%xmm4, (%rax)
	.loc	6 58 15                         # crypto_aead/aegis128l/aegis128l_common.h:58:15 @[ crypto_aead/aegis128l/aegis128l_common.h:189:5 ]
	vpxor	%xmm3, %xmm1, %xmm1
.Ltmp173:
	vpxor	%xmm2, %xmm1, %xmm1
	vpxor	%xmm0, %xmm1, %xmm0
.Ltmp174:
	#DEBUG_VALUE: aegis128l_mac:tmp <- $xmm0
	.loc	6 59 9                          # crypto_aead/aegis128l/aegis128l_common.h:59:9 @[ crypto_aead/aegis128l/aegis128l_common.h:189:5 ]
	vmovdqu	%xmm0, 16(%rax)
	.loc	6 60 5                          # crypto_aead/aegis128l/aegis128l_common.h:60:5 @[ crypto_aead/aegis128l/aegis128l_common.h:189:5 ]
	jmp	.LBB0_20
.Ltmp175:
.LBB0_19:
	#DEBUG_VALUE: encrypt_detached:c <- [DW_OP_LLVM_entry_value 1] $rdi
	#DEBUG_VALUE: encrypt_detached:mac <- [DW_OP_plus_uconst 104] [$rsp+0]
	#DEBUG_VALUE: encrypt_detached:maclen <- [DW_OP_plus_uconst 168] [$rsp+0]
	#DEBUG_VALUE: encrypt_detached:m <- [DW_OP_LLVM_entry_value 1] $rcx
	#DEBUG_VALUE: encrypt_detached:mlen <- [DW_OP_plus_uconst 160] [$rsp+0]
	#DEBUG_VALUE: encrypt_detached:ad <- [DW_OP_LLVM_entry_value 1] $r9
	#DEBUG_VALUE: encrypt_detached:adlen <- [DW_OP_plus_uconst 16] [$rbp+0]
	#DEBUG_VALUE: encrypt_detached:npub <- [DW_OP_plus_uconst 24] [$rbp+0]
	#DEBUG_VALUE: encrypt_detached:k <- [DW_OP_plus_uconst 32] [$rbp+0]
	#DEBUG_VALUE: encrypt_detached:state <- [DW_OP_LLVM_fragment 512 128] $xmm0
	#DEBUG_VALUE: encrypt_detached:state <- [DW_OP_LLVM_fragment 768 128] $xmm1
	#DEBUG_VALUE: encrypt_detached:state <- [DW_OP_LLVM_fragment 640 128] $xmm2
	#DEBUG_VALUE: encrypt_detached:state <- [DW_OP_LLVM_fragment 384 128] $xmm5
	#DEBUG_VALUE: encrypt_detached:state <- [DW_OP_LLVM_fragment 256 128] $xmm8
	#DEBUG_VALUE: encrypt_detached:state <- [DW_OP_LLVM_fragment 128 128] $xmm6
	#DEBUG_VALUE: encrypt_detached:state <- [DW_OP_LLVM_fragment 0 128] $xmm7
	#DEBUG_VALUE: aegis128l_mac:mac <- [DW_OP_plus_uconst 104, DW_OP_deref] $rsp
	#DEBUG_VALUE: aegis128l_mac:maclen <- [DW_OP_plus_uconst 168, DW_OP_deref] $rsp
	#DEBUG_VALUE: aegis128l_mac:adlen <- $r14
	#DEBUG_VALUE: aegis128l_mac:mlen <- [DW_OP_plus_uconst 160, DW_OP_deref] $rsp
	#DEBUG_VALUE: aegis128l_mac:i <- 7
	#DEBUG_VALUE: memset:__dest <- [DW_OP_plus_uconst 104, DW_OP_deref] $rsp
	#DEBUG_VALUE: memset:__ch <- 0
	#DEBUG_VALUE: memset:__len <- [DW_OP_plus_uconst 168, DW_OP_deref] $rsp
	.loc	6 0 5 is_stmt 0                 # crypto_aead/aegis128l/aegis128l_common.h:0:5
	movq	104(%rsp), %rdi                 # 8-byte Reload
.Ltmp176:
	.loc	8 59 10 is_stmt 1               # /usr/include/x86_64-linux-gnu/bits/string_fortified.h:59:10 @[ crypto_aead/aegis128l/aegis128l_common.h:61:9 @[ crypto_aead/aegis128l/aegis128l_common.h:189:5 ] ]
	xorl	%esi, %esi
	callq	memset@PLT
.Ltmp177:
.LBB0_20:                               # %aegis128l_mac.exit
	#DEBUG_VALUE: encrypt_detached:c <- [DW_OP_LLVM_entry_value 1] $rdi
	#DEBUG_VALUE: encrypt_detached:mac <- [DW_OP_plus_uconst 104] [$rsp+0]
	#DEBUG_VALUE: encrypt_detached:maclen <- [DW_OP_plus_uconst 168] [$rsp+0]
	#DEBUG_VALUE: encrypt_detached:m <- [DW_OP_LLVM_entry_value 1] $rcx
	#DEBUG_VALUE: encrypt_detached:mlen <- [DW_OP_plus_uconst 160] [$rsp+0]
	#DEBUG_VALUE: encrypt_detached:ad <- [DW_OP_LLVM_entry_value 1] $r9
	#DEBUG_VALUE: encrypt_detached:adlen <- [DW_OP_plus_uconst 16] [$rbp+0]
	#DEBUG_VALUE: encrypt_detached:npub <- [DW_OP_plus_uconst 24] [$rbp+0]
	#DEBUG_VALUE: encrypt_detached:k <- [DW_OP_plus_uconst 32] [$rbp+0]
	.loc	6 191 5                         # crypto_aead/aegis128l/aegis128l_common.h:191:5
	movq	%fs:40, %rax
	cmpq	256(%rsp), %rax
	jne	.LBB0_22
.Ltmp178:
# %bb.21:                               # %SP_return
	#DEBUG_VALUE: encrypt_detached:c <- [DW_OP_LLVM_entry_value 1] $rdi
	#DEBUG_VALUE: encrypt_detached:mac <- [DW_OP_plus_uconst 104] [$rsp+0]
	#DEBUG_VALUE: encrypt_detached:maclen <- [DW_OP_plus_uconst 168] [$rsp+0]
	#DEBUG_VALUE: encrypt_detached:m <- [DW_OP_LLVM_entry_value 1] $rcx
	#DEBUG_VALUE: encrypt_detached:mlen <- [DW_OP_plus_uconst 160] [$rsp+0]
	#DEBUG_VALUE: encrypt_detached:ad <- [DW_OP_LLVM_entry_value 1] $r9
	#DEBUG_VALUE: encrypt_detached:adlen <- [DW_OP_plus_uconst 16] [$rbp+0]
	#DEBUG_VALUE: encrypt_detached:npub <- [DW_OP_plus_uconst 24] [$rbp+0]
	#DEBUG_VALUE: encrypt_detached:k <- [DW_OP_plus_uconst 32] [$rbp+0]
	xorl	%eax, %eax
	leaq	-40(%rbp), %rsp
.Ltmp179:
	.loc	6 191 5 epilogue_begin is_stmt 0 # crypto_aead/aegis128l/aegis128l_common.h:191:5
	popq	%rbx
	popq	%r12
	popq	%r13
	popq	%r14
	popq	%r15
	popq	%rbp
	.cfi_def_cfa %rsp, 8
	retq
.Ltmp180:
.LBB0_22:                               # %CallStackCheckFailBlk
	.cfi_def_cfa %rbp, 16
	#DEBUG_VALUE: encrypt_detached:c <- [DW_OP_LLVM_entry_value 1] $rdi
	#DEBUG_VALUE: encrypt_detached:mac <- [DW_OP_plus_uconst 104] [$rsp+0]
	#DEBUG_VALUE: encrypt_detached:maclen <- [DW_OP_plus_uconst 168] [$rsp+0]
	#DEBUG_VALUE: encrypt_detached:m <- [DW_OP_LLVM_entry_value 1] $rcx
	#DEBUG_VALUE: encrypt_detached:mlen <- [DW_OP_plus_uconst 160] [$rsp+0]
	#DEBUG_VALUE: encrypt_detached:ad <- [DW_OP_LLVM_entry_value 1] $r9
	#DEBUG_VALUE: encrypt_detached:adlen <- [DW_OP_plus_uconst 16] [$rbp+0]
	#DEBUG_VALUE: encrypt_detached:npub <- [DW_OP_plus_uconst 24] [$rbp+0]
	#DEBUG_VALUE: encrypt_detached:k <- [DW_OP_plus_uconst 32] [$rbp+0]
	.loc	6 0 0                           # crypto_aead/aegis128l/aegis128l_common.h:0
	callq	__stack_chk_fail@PLT
.Ltmp181:
.Lfunc_end0:
	.size	encrypt_detached, .Lfunc_end0-encrypt_detached
	.cfi_endproc
                                        # -- End function
	.section	.rodata.cst16,"aM",@progbits,16
	.p2align	4, 0x0                          # -- Begin function decrypt_detached
.LCPI1_0:
	.quad	939006032783409408              # 0xd08050302010100
	.quad	7095959494080274965             # 0x6279e99059372215
.LCPI1_1:
	.quad	-1067420811828642341            # 0xf12fc26d55183ddb
	.quad	-2510557285622673120            # 0xdd28b57342311120
	.text
	.p2align	4
	.type	decrypt_detached,@function
decrypt_detached:                       # @decrypt_detached
.Lfunc_begin1:
	.loc	6 197 0 is_stmt 1               # crypto_aead/aegis128l/aegis128l_common.h:197:0
	.cfi_startproc
# %bb.0:
	#DEBUG_VALUE: decrypt_detached:m <- $rdi
	#DEBUG_VALUE: decrypt_detached:c <- $rsi
	#DEBUG_VALUE: decrypt_detached:clen <- $rdx
	#DEBUG_VALUE: decrypt_detached:mac <- $rcx
	#DEBUG_VALUE: decrypt_detached:maclen <- $r8
	#DEBUG_VALUE: decrypt_detached:ad <- $r9
	pushq	%rbp
	.cfi_def_cfa_offset 16
	.cfi_offset %rbp, -16
	movq	%rsp, %rbp
	.cfi_def_cfa_register %rbp
	pushq	%r15
	pushq	%r14
	pushq	%r13
	pushq	%r12
	pushq	%rbx
	andq	$-32, %rsp
	subq	$320, %rsp                      # imm = 0x140
	.cfi_offset %rbx, -56
	.cfi_offset %r12, -48
	.cfi_offset %r13, -40
	.cfi_offset %r14, -32
	.cfi_offset %r15, -24
.Ltmp182:
	#DEBUG_VALUE: decrypt_detached:adlen <- [DW_OP_plus_uconst 16] [$rbp+0]
	#DEBUG_VALUE: decrypt_detached:npub <- [DW_OP_plus_uconst 24] [$rbp+0]
	#DEBUG_VALUE: decrypt_detached:k <- [DW_OP_plus_uconst 32] [$rbp+0]
	movq	%rcx, 168(%rsp)                 # 8-byte Spill
.Ltmp183:
	#DEBUG_VALUE: decrypt_detached:mac <- [DW_OP_plus_uconst 168] [$rsp+0]
	movq	%rdx, %r12
	movq	%rsi, %r13
	movq	%rdi, %r14
	movq	24(%rbp), %rax
.Ltmp184:
	#DEBUG_VALUE: aegis128l_init:nonce <- $rax
	movq	32(%rbp), %rcx
.Ltmp185:
	#DEBUG_VALUE: aegis128l_init:key <- $rcx
	movq	%fs:40, %rdx
.Ltmp186:
	#DEBUG_VALUE: decrypt_detached:clen <- $r12
	movq	%rdx, 288(%rsp)
.Ltmp187:
	#DEBUG_VALUE: decrypt_detached:dst <- [DW_OP_plus_uconst 192, DW_OP_deref] $rsp
	#DEBUG_VALUE: decrypt_detached:mlen <- undef
	.loc	6 19 9 prologue_end             # crypto_aead/aegis128l/aegis128l_common.h:19:9 @[ crypto_aead/aegis128l/aegis128l_common.h:206:5 ]
	vmovdqu	(%rcx), %xmm1
.Ltmp188:
	#DEBUG_VALUE: aegis128l_init:k <- $xmm1
	.loc	6 20 9                          # crypto_aead/aegis128l/aegis128l_common.h:20:9 @[ crypto_aead/aegis128l/aegis128l_common.h:206:5 ]
	vmovdqu	(%rax), %xmm2
.Ltmp189:
	#DEBUG_VALUE: aegis128l_init:n <- $xmm2
	.loc	6 22 16                         # crypto_aead/aegis128l/aegis128l_common.h:22:16 @[ crypto_aead/aegis128l/aegis128l_common.h:206:5 ]
	vpxor	%xmm1, %xmm2, %xmm0
	.loc	6 27 16                         # crypto_aead/aegis128l/aegis128l_common.h:27:16 @[ crypto_aead/aegis128l/aegis128l_common.h:206:5 ]
	vmovdqa	.LCPI1_0(%rip), %xmm3           # xmm3 = [939006032783409408,7095959494080274965]
.Ltmp190:
	#DEBUG_VALUE: aegis128l_init:c0 <- $xmm3
	vpxor	%xmm3, %xmm1, %xmm4
.Ltmp191:
	#DEBUG_VALUE: aegis128l_update:tmp <- $xmm4
	.loc	6 28 16                         # crypto_aead/aegis128l/aegis128l_common.h:28:16 @[ crypto_aead/aegis128l/aegis128l_common.h:206:5 ]
	vmovdqa	.LCPI1_1(%rip), %xmm5           # xmm5 = [17379323261880909275,15936186788086878496]
.Ltmp192:
	#DEBUG_VALUE: aegis128l_init:c1 <- $xmm5
	vpxor	%xmm5, %xmm1, %xmm6
.Ltmp193:
	#DEBUG_VALUE: aegis128l_init:i <- 0
	#DEBUG_VALUE: aegis128l_update:d1 <- $xmm2
	#DEBUG_VALUE: aegis128l_update:d2 <- $xmm1
	.loc	5 46 16                         # crypto_aead/aegis128l/aegis128l_aesni.c:46:16 @[ crypto_aead/aegis128l/aegis128l_common.h:31:9 @[ crypto_aead/aegis128l/aegis128l_common.h:206:5 ] ]
	vaesenc	%xmm4, %xmm6, %xmm7
	.loc	5 47 16                         # crypto_aead/aegis128l/aegis128l_aesni.c:47:16 @[ crypto_aead/aegis128l/aegis128l_common.h:31:9 @[ crypto_aead/aegis128l/aegis128l_common.h:206:5 ] ]
	vaesenc	%xmm6, %xmm4, %xmm6
	.loc	5 48 16                         # crypto_aead/aegis128l/aegis128l_aesni.c:48:16 @[ crypto_aead/aegis128l/aegis128l_common.h:31:9 @[ crypto_aead/aegis128l/aegis128l_common.h:206:5 ] ]
	vaesenc	%xmm4, %xmm0, %xmm8
	.loc	5 49 16                         # crypto_aead/aegis128l/aegis128l_aesni.c:49:16 @[ crypto_aead/aegis128l/aegis128l_common.h:31:9 @[ crypto_aead/aegis128l/aegis128l_common.h:206:5 ] ]
	vaesenc	%xmm0, %xmm5, %xmm9
	.loc	5 50 16                         # crypto_aead/aegis128l/aegis128l_aesni.c:50:16 @[ crypto_aead/aegis128l/aegis128l_common.h:31:9 @[ crypto_aead/aegis128l/aegis128l_common.h:206:5 ] ]
	vaesenc	%xmm5, %xmm3, %xmm10
	.loc	5 51 16                         # crypto_aead/aegis128l/aegis128l_aesni.c:51:16 @[ crypto_aead/aegis128l/aegis128l_common.h:31:9 @[ crypto_aead/aegis128l/aegis128l_common.h:206:5 ] ]
	vaesenc	%xmm3, %xmm5, %xmm3
.Ltmp194:
	.loc	5 52 16                         # crypto_aead/aegis128l/aegis128l_aesni.c:52:16 @[ crypto_aead/aegis128l/aegis128l_common.h:31:9 @[ crypto_aead/aegis128l/aegis128l_common.h:206:5 ] ]
	vaesenc	%xmm5, %xmm0, %xmm5
.Ltmp195:
	.loc	5 53 16                         # crypto_aead/aegis128l/aegis128l_aesni.c:53:16 @[ crypto_aead/aegis128l/aegis128l_common.h:31:9 @[ crypto_aead/aegis128l/aegis128l_common.h:206:5 ] ]
	vaesenc	%xmm0, %xmm4, %xmm0
	.loc	5 55 16                         # crypto_aead/aegis128l/aegis128l_aesni.c:55:16 @[ crypto_aead/aegis128l/aegis128l_common.h:31:9 @[ crypto_aead/aegis128l/aegis128l_common.h:206:5 ] ]
	vpxor	%xmm2, %xmm0, %xmm0
	.loc	5 56 16                         # crypto_aead/aegis128l/aegis128l_aesni.c:56:16 @[ crypto_aead/aegis128l/aegis128l_common.h:31:9 @[ crypto_aead/aegis128l/aegis128l_common.h:206:5 ] ]
	vpxor	%xmm1, %xmm9, %xmm4
.Ltmp196:
	#DEBUG_VALUE: aegis128l_init:i <- 1
	#DEBUG_VALUE: aegis128l_update:tmp <- $xmm7
	.loc	5 46 16                         # crypto_aead/aegis128l/aegis128l_aesni.c:46:16 @[ crypto_aead/aegis128l/aegis128l_common.h:31:9 @[ crypto_aead/aegis128l/aegis128l_common.h:206:5 ] ]
	vaesenc	%xmm7, %xmm6, %xmm9
	.loc	5 47 16                         # crypto_aead/aegis128l/aegis128l_aesni.c:47:16 @[ crypto_aead/aegis128l/aegis128l_common.h:31:9 @[ crypto_aead/aegis128l/aegis128l_common.h:206:5 ] ]
	vaesenc	%xmm6, %xmm8, %xmm6
	.loc	5 48 16                         # crypto_aead/aegis128l/aegis128l_aesni.c:48:16 @[ crypto_aead/aegis128l/aegis128l_common.h:31:9 @[ crypto_aead/aegis128l/aegis128l_common.h:206:5 ] ]
	vaesenc	%xmm8, %xmm4, %xmm8
	.loc	5 49 16                         # crypto_aead/aegis128l/aegis128l_aesni.c:49:16 @[ crypto_aead/aegis128l/aegis128l_common.h:31:9 @[ crypto_aead/aegis128l/aegis128l_common.h:206:5 ] ]
	vaesenc	%xmm4, %xmm10, %xmm4
	.loc	5 50 16                         # crypto_aead/aegis128l/aegis128l_aesni.c:50:16 @[ crypto_aead/aegis128l/aegis128l_common.h:31:9 @[ crypto_aead/aegis128l/aegis128l_common.h:206:5 ] ]
	vaesenc	%xmm10, %xmm3, %xmm10
	.loc	5 51 16                         # crypto_aead/aegis128l/aegis128l_aesni.c:51:16 @[ crypto_aead/aegis128l/aegis128l_common.h:31:9 @[ crypto_aead/aegis128l/aegis128l_common.h:206:5 ] ]
	vaesenc	%xmm3, %xmm5, %xmm3
	.loc	5 52 16                         # crypto_aead/aegis128l/aegis128l_aesni.c:52:16 @[ crypto_aead/aegis128l/aegis128l_common.h:31:9 @[ crypto_aead/aegis128l/aegis128l_common.h:206:5 ] ]
	vaesenc	%xmm5, %xmm0, %xmm5
	.loc	5 53 16                         # crypto_aead/aegis128l/aegis128l_aesni.c:53:16 @[ crypto_aead/aegis128l/aegis128l_common.h:31:9 @[ crypto_aead/aegis128l/aegis128l_common.h:206:5 ] ]
	vaesenc	%xmm0, %xmm7, %xmm0
	.loc	5 55 16                         # crypto_aead/aegis128l/aegis128l_aesni.c:55:16 @[ crypto_aead/aegis128l/aegis128l_common.h:31:9 @[ crypto_aead/aegis128l/aegis128l_common.h:206:5 ] ]
	vpxor	%xmm2, %xmm0, %xmm0
	.loc	5 56 16                         # crypto_aead/aegis128l/aegis128l_aesni.c:56:16 @[ crypto_aead/aegis128l/aegis128l_common.h:31:9 @[ crypto_aead/aegis128l/aegis128l_common.h:206:5 ] ]
	vpxor	%xmm1, %xmm4, %xmm4
.Ltmp197:
	#DEBUG_VALUE: aegis128l_init:i <- 2
	#DEBUG_VALUE: aegis128l_update:tmp <- $xmm9
	.loc	5 46 16                         # crypto_aead/aegis128l/aegis128l_aesni.c:46:16 @[ crypto_aead/aegis128l/aegis128l_common.h:31:9 @[ crypto_aead/aegis128l/aegis128l_common.h:206:5 ] ]
	vaesenc	%xmm9, %xmm6, %xmm7
	.loc	5 47 16                         # crypto_aead/aegis128l/aegis128l_aesni.c:47:16 @[ crypto_aead/aegis128l/aegis128l_common.h:31:9 @[ crypto_aead/aegis128l/aegis128l_common.h:206:5 ] ]
	vaesenc	%xmm6, %xmm8, %xmm6
	.loc	5 48 16                         # crypto_aead/aegis128l/aegis128l_aesni.c:48:16 @[ crypto_aead/aegis128l/aegis128l_common.h:31:9 @[ crypto_aead/aegis128l/aegis128l_common.h:206:5 ] ]
	vaesenc	%xmm8, %xmm4, %xmm8
	.loc	5 49 16                         # crypto_aead/aegis128l/aegis128l_aesni.c:49:16 @[ crypto_aead/aegis128l/aegis128l_common.h:31:9 @[ crypto_aead/aegis128l/aegis128l_common.h:206:5 ] ]
	vaesenc	%xmm4, %xmm10, %xmm4
	.loc	5 50 16                         # crypto_aead/aegis128l/aegis128l_aesni.c:50:16 @[ crypto_aead/aegis128l/aegis128l_common.h:31:9 @[ crypto_aead/aegis128l/aegis128l_common.h:206:5 ] ]
	vaesenc	%xmm10, %xmm3, %xmm10
	.loc	5 51 16                         # crypto_aead/aegis128l/aegis128l_aesni.c:51:16 @[ crypto_aead/aegis128l/aegis128l_common.h:31:9 @[ crypto_aead/aegis128l/aegis128l_common.h:206:5 ] ]
	vaesenc	%xmm3, %xmm5, %xmm3
	.loc	5 52 16                         # crypto_aead/aegis128l/aegis128l_aesni.c:52:16 @[ crypto_aead/aegis128l/aegis128l_common.h:31:9 @[ crypto_aead/aegis128l/aegis128l_common.h:206:5 ] ]
	vaesenc	%xmm5, %xmm0, %xmm5
	.loc	5 53 16                         # crypto_aead/aegis128l/aegis128l_aesni.c:53:16 @[ crypto_aead/aegis128l/aegis128l_common.h:31:9 @[ crypto_aead/aegis128l/aegis128l_common.h:206:5 ] ]
	vaesenc	%xmm0, %xmm9, %xmm0
	.loc	5 55 16                         # crypto_aead/aegis128l/aegis128l_aesni.c:55:16 @[ crypto_aead/aegis128l/aegis128l_common.h:31:9 @[ crypto_aead/aegis128l/aegis128l_common.h:206:5 ] ]
	vpxor	%xmm2, %xmm0, %xmm0
	.loc	5 56 16                         # crypto_aead/aegis128l/aegis128l_aesni.c:56:16 @[ crypto_aead/aegis128l/aegis128l_common.h:31:9 @[ crypto_aead/aegis128l/aegis128l_common.h:206:5 ] ]
	vpxor	%xmm1, %xmm4, %xmm4
.Ltmp198:
	#DEBUG_VALUE: aegis128l_init:i <- 3
	#DEBUG_VALUE: aegis128l_update:tmp <- $xmm7
	.loc	5 46 16                         # crypto_aead/aegis128l/aegis128l_aesni.c:46:16 @[ crypto_aead/aegis128l/aegis128l_common.h:31:9 @[ crypto_aead/aegis128l/aegis128l_common.h:206:5 ] ]
	vaesenc	%xmm7, %xmm6, %xmm9
	.loc	5 47 16                         # crypto_aead/aegis128l/aegis128l_aesni.c:47:16 @[ crypto_aead/aegis128l/aegis128l_common.h:31:9 @[ crypto_aead/aegis128l/aegis128l_common.h:206:5 ] ]
	vaesenc	%xmm6, %xmm8, %xmm6
	.loc	5 48 16                         # crypto_aead/aegis128l/aegis128l_aesni.c:48:16 @[ crypto_aead/aegis128l/aegis128l_common.h:31:9 @[ crypto_aead/aegis128l/aegis128l_common.h:206:5 ] ]
	vaesenc	%xmm8, %xmm4, %xmm8
	.loc	5 49 16                         # crypto_aead/aegis128l/aegis128l_aesni.c:49:16 @[ crypto_aead/aegis128l/aegis128l_common.h:31:9 @[ crypto_aead/aegis128l/aegis128l_common.h:206:5 ] ]
	vaesenc	%xmm4, %xmm10, %xmm4
	.loc	5 50 16                         # crypto_aead/aegis128l/aegis128l_aesni.c:50:16 @[ crypto_aead/aegis128l/aegis128l_common.h:31:9 @[ crypto_aead/aegis128l/aegis128l_common.h:206:5 ] ]
	vaesenc	%xmm10, %xmm3, %xmm10
	.loc	5 51 16                         # crypto_aead/aegis128l/aegis128l_aesni.c:51:16 @[ crypto_aead/aegis128l/aegis128l_common.h:31:9 @[ crypto_aead/aegis128l/aegis128l_common.h:206:5 ] ]
	vaesenc	%xmm3, %xmm5, %xmm3
	.loc	5 52 16                         # crypto_aead/aegis128l/aegis128l_aesni.c:52:16 @[ crypto_aead/aegis128l/aegis128l_common.h:31:9 @[ crypto_aead/aegis128l/aegis128l_common.h:206:5 ] ]
	vaesenc	%xmm5, %xmm0, %xmm5
	.loc	5 53 16                         # crypto_aead/aegis128l/aegis128l_aesni.c:53:16 @[ crypto_aead/aegis128l/aegis128l_common.h:31:9 @[ crypto_aead/aegis128l/aegis128l_common.h:206:5 ] ]
	vaesenc	%xmm0, %xmm7, %xmm0
	.loc	5 55 16                         # crypto_aead/aegis128l/aegis128l_aesni.c:55:16 @[ crypto_aead/aegis128l/aegis128l_common.h:31:9 @[ crypto_aead/aegis128l/aegis128l_common.h:206:5 ] ]
	vpxor	%xmm2, %xmm0, %xmm0
	.loc	5 56 16                         # crypto_aead/aegis128l/aegis128l_aesni.c:56:16 @[ crypto_aead/aegis128l/aegis128l_common.h:31:9 @[ crypto_aead/aegis128l/aegis128l_common.h:206:5 ] ]
	vpxor	%xmm1, %xmm4, %xmm4
.Ltmp199:
	#DEBUG_VALUE: aegis128l_init:i <- 4
	#DEBUG_VALUE: aegis128l_update:tmp <- $xmm9
	.loc	5 46 16                         # crypto_aead/aegis128l/aegis128l_aesni.c:46:16 @[ crypto_aead/aegis128l/aegis128l_common.h:31:9 @[ crypto_aead/aegis128l/aegis128l_common.h:206:5 ] ]
	vaesenc	%xmm9, %xmm6, %xmm7
	.loc	5 47 16                         # crypto_aead/aegis128l/aegis128l_aesni.c:47:16 @[ crypto_aead/aegis128l/aegis128l_common.h:31:9 @[ crypto_aead/aegis128l/aegis128l_common.h:206:5 ] ]
	vaesenc	%xmm6, %xmm8, %xmm6
	.loc	5 48 16                         # crypto_aead/aegis128l/aegis128l_aesni.c:48:16 @[ crypto_aead/aegis128l/aegis128l_common.h:31:9 @[ crypto_aead/aegis128l/aegis128l_common.h:206:5 ] ]
	vaesenc	%xmm8, %xmm4, %xmm8
	.loc	5 49 16                         # crypto_aead/aegis128l/aegis128l_aesni.c:49:16 @[ crypto_aead/aegis128l/aegis128l_common.h:31:9 @[ crypto_aead/aegis128l/aegis128l_common.h:206:5 ] ]
	vaesenc	%xmm4, %xmm10, %xmm4
	.loc	5 50 16                         # crypto_aead/aegis128l/aegis128l_aesni.c:50:16 @[ crypto_aead/aegis128l/aegis128l_common.h:31:9 @[ crypto_aead/aegis128l/aegis128l_common.h:206:5 ] ]
	vaesenc	%xmm10, %xmm3, %xmm10
	.loc	5 51 16                         # crypto_aead/aegis128l/aegis128l_aesni.c:51:16 @[ crypto_aead/aegis128l/aegis128l_common.h:31:9 @[ crypto_aead/aegis128l/aegis128l_common.h:206:5 ] ]
	vaesenc	%xmm3, %xmm5, %xmm3
	.loc	5 52 16                         # crypto_aead/aegis128l/aegis128l_aesni.c:52:16 @[ crypto_aead/aegis128l/aegis128l_common.h:31:9 @[ crypto_aead/aegis128l/aegis128l_common.h:206:5 ] ]
	vaesenc	%xmm5, %xmm0, %xmm5
	.loc	5 53 16                         # crypto_aead/aegis128l/aegis128l_aesni.c:53:16 @[ crypto_aead/aegis128l/aegis128l_common.h:31:9 @[ crypto_aead/aegis128l/aegis128l_common.h:206:5 ] ]
	vaesenc	%xmm0, %xmm9, %xmm0
	.loc	5 55 16                         # crypto_aead/aegis128l/aegis128l_aesni.c:55:16 @[ crypto_aead/aegis128l/aegis128l_common.h:31:9 @[ crypto_aead/aegis128l/aegis128l_common.h:206:5 ] ]
	vpxor	%xmm2, %xmm0, %xmm0
	.loc	5 56 16                         # crypto_aead/aegis128l/aegis128l_aesni.c:56:16 @[ crypto_aead/aegis128l/aegis128l_common.h:31:9 @[ crypto_aead/aegis128l/aegis128l_common.h:206:5 ] ]
	vpxor	%xmm1, %xmm4, %xmm4
.Ltmp200:
	#DEBUG_VALUE: aegis128l_init:i <- 5
	#DEBUG_VALUE: aegis128l_update:tmp <- $xmm7
	.loc	5 46 16                         # crypto_aead/aegis128l/aegis128l_aesni.c:46:16 @[ crypto_aead/aegis128l/aegis128l_common.h:31:9 @[ crypto_aead/aegis128l/aegis128l_common.h:206:5 ] ]
	vaesenc	%xmm7, %xmm6, %xmm9
	.loc	5 47 16                         # crypto_aead/aegis128l/aegis128l_aesni.c:47:16 @[ crypto_aead/aegis128l/aegis128l_common.h:31:9 @[ crypto_aead/aegis128l/aegis128l_common.h:206:5 ] ]
	vaesenc	%xmm6, %xmm8, %xmm6
	.loc	5 48 16                         # crypto_aead/aegis128l/aegis128l_aesni.c:48:16 @[ crypto_aead/aegis128l/aegis128l_common.h:31:9 @[ crypto_aead/aegis128l/aegis128l_common.h:206:5 ] ]
	vaesenc	%xmm8, %xmm4, %xmm8
	.loc	5 49 16                         # crypto_aead/aegis128l/aegis128l_aesni.c:49:16 @[ crypto_aead/aegis128l/aegis128l_common.h:31:9 @[ crypto_aead/aegis128l/aegis128l_common.h:206:5 ] ]
	vaesenc	%xmm4, %xmm10, %xmm4
	.loc	5 50 16                         # crypto_aead/aegis128l/aegis128l_aesni.c:50:16 @[ crypto_aead/aegis128l/aegis128l_common.h:31:9 @[ crypto_aead/aegis128l/aegis128l_common.h:206:5 ] ]
	vaesenc	%xmm10, %xmm3, %xmm10
	.loc	5 51 16                         # crypto_aead/aegis128l/aegis128l_aesni.c:51:16 @[ crypto_aead/aegis128l/aegis128l_common.h:31:9 @[ crypto_aead/aegis128l/aegis128l_common.h:206:5 ] ]
	vaesenc	%xmm3, %xmm5, %xmm3
	.loc	5 52 16                         # crypto_aead/aegis128l/aegis128l_aesni.c:52:16 @[ crypto_aead/aegis128l/aegis128l_common.h:31:9 @[ crypto_aead/aegis128l/aegis128l_common.h:206:5 ] ]
	vaesenc	%xmm5, %xmm0, %xmm5
	.loc	5 53 16                         # crypto_aead/aegis128l/aegis128l_aesni.c:53:16 @[ crypto_aead/aegis128l/aegis128l_common.h:31:9 @[ crypto_aead/aegis128l/aegis128l_common.h:206:5 ] ]
	vaesenc	%xmm0, %xmm7, %xmm0
	.loc	5 55 16                         # crypto_aead/aegis128l/aegis128l_aesni.c:55:16 @[ crypto_aead/aegis128l/aegis128l_common.h:31:9 @[ crypto_aead/aegis128l/aegis128l_common.h:206:5 ] ]
	vpxor	%xmm2, %xmm0, %xmm0
	.loc	5 56 16                         # crypto_aead/aegis128l/aegis128l_aesni.c:56:16 @[ crypto_aead/aegis128l/aegis128l_common.h:31:9 @[ crypto_aead/aegis128l/aegis128l_common.h:206:5 ] ]
	vpxor	%xmm1, %xmm4, %xmm4
.Ltmp201:
	#DEBUG_VALUE: aegis128l_init:i <- 6
	#DEBUG_VALUE: aegis128l_update:tmp <- $xmm9
	.loc	5 46 16                         # crypto_aead/aegis128l/aegis128l_aesni.c:46:16 @[ crypto_aead/aegis128l/aegis128l_common.h:31:9 @[ crypto_aead/aegis128l/aegis128l_common.h:206:5 ] ]
	vaesenc	%xmm9, %xmm6, %xmm7
	.loc	5 47 16                         # crypto_aead/aegis128l/aegis128l_aesni.c:47:16 @[ crypto_aead/aegis128l/aegis128l_common.h:31:9 @[ crypto_aead/aegis128l/aegis128l_common.h:206:5 ] ]
	vaesenc	%xmm6, %xmm8, %xmm6
	.loc	5 48 16                         # crypto_aead/aegis128l/aegis128l_aesni.c:48:16 @[ crypto_aead/aegis128l/aegis128l_common.h:31:9 @[ crypto_aead/aegis128l/aegis128l_common.h:206:5 ] ]
	vaesenc	%xmm8, %xmm4, %xmm8
	.loc	5 49 16                         # crypto_aead/aegis128l/aegis128l_aesni.c:49:16 @[ crypto_aead/aegis128l/aegis128l_common.h:31:9 @[ crypto_aead/aegis128l/aegis128l_common.h:206:5 ] ]
	vaesenc	%xmm4, %xmm10, %xmm4
	.loc	5 50 16                         # crypto_aead/aegis128l/aegis128l_aesni.c:50:16 @[ crypto_aead/aegis128l/aegis128l_common.h:31:9 @[ crypto_aead/aegis128l/aegis128l_common.h:206:5 ] ]
	vaesenc	%xmm10, %xmm3, %xmm10
	.loc	5 51 16                         # crypto_aead/aegis128l/aegis128l_aesni.c:51:16 @[ crypto_aead/aegis128l/aegis128l_common.h:31:9 @[ crypto_aead/aegis128l/aegis128l_common.h:206:5 ] ]
	vaesenc	%xmm3, %xmm5, %xmm3
	.loc	5 52 16                         # crypto_aead/aegis128l/aegis128l_aesni.c:52:16 @[ crypto_aead/aegis128l/aegis128l_common.h:31:9 @[ crypto_aead/aegis128l/aegis128l_common.h:206:5 ] ]
	vaesenc	%xmm5, %xmm0, %xmm5
	.loc	5 53 16                         # crypto_aead/aegis128l/aegis128l_aesni.c:53:16 @[ crypto_aead/aegis128l/aegis128l_common.h:31:9 @[ crypto_aead/aegis128l/aegis128l_common.h:206:5 ] ]
	vaesenc	%xmm0, %xmm9, %xmm0
	.loc	5 55 16                         # crypto_aead/aegis128l/aegis128l_aesni.c:55:16 @[ crypto_aead/aegis128l/aegis128l_common.h:31:9 @[ crypto_aead/aegis128l/aegis128l_common.h:206:5 ] ]
	vpxor	%xmm2, %xmm0, %xmm0
	.loc	5 56 16                         # crypto_aead/aegis128l/aegis128l_aesni.c:56:16 @[ crypto_aead/aegis128l/aegis128l_common.h:31:9 @[ crypto_aead/aegis128l/aegis128l_common.h:206:5 ] ]
	vpxor	%xmm1, %xmm4, %xmm4
.Ltmp202:
	#DEBUG_VALUE: aegis128l_init:i <- 7
	#DEBUG_VALUE: aegis128l_update:tmp <- $xmm7
	.loc	5 46 16                         # crypto_aead/aegis128l/aegis128l_aesni.c:46:16 @[ crypto_aead/aegis128l/aegis128l_common.h:31:9 @[ crypto_aead/aegis128l/aegis128l_common.h:206:5 ] ]
	vaesenc	%xmm7, %xmm6, %xmm9
	.loc	5 47 16                         # crypto_aead/aegis128l/aegis128l_aesni.c:47:16 @[ crypto_aead/aegis128l/aegis128l_common.h:31:9 @[ crypto_aead/aegis128l/aegis128l_common.h:206:5 ] ]
	vaesenc	%xmm6, %xmm8, %xmm6
	.loc	5 48 16                         # crypto_aead/aegis128l/aegis128l_aesni.c:48:16 @[ crypto_aead/aegis128l/aegis128l_common.h:31:9 @[ crypto_aead/aegis128l/aegis128l_common.h:206:5 ] ]
	vaesenc	%xmm8, %xmm4, %xmm8
	.loc	5 49 16                         # crypto_aead/aegis128l/aegis128l_aesni.c:49:16 @[ crypto_aead/aegis128l/aegis128l_common.h:31:9 @[ crypto_aead/aegis128l/aegis128l_common.h:206:5 ] ]
	vaesenc	%xmm4, %xmm10, %xmm4
	.loc	5 50 16                         # crypto_aead/aegis128l/aegis128l_aesni.c:50:16 @[ crypto_aead/aegis128l/aegis128l_common.h:31:9 @[ crypto_aead/aegis128l/aegis128l_common.h:206:5 ] ]
	vaesenc	%xmm10, %xmm3, %xmm10
	.loc	5 51 16                         # crypto_aead/aegis128l/aegis128l_aesni.c:51:16 @[ crypto_aead/aegis128l/aegis128l_common.h:31:9 @[ crypto_aead/aegis128l/aegis128l_common.h:206:5 ] ]
	vaesenc	%xmm3, %xmm5, %xmm3
	.loc	5 52 16                         # crypto_aead/aegis128l/aegis128l_aesni.c:52:16 @[ crypto_aead/aegis128l/aegis128l_common.h:31:9 @[ crypto_aead/aegis128l/aegis128l_common.h:206:5 ] ]
	vaesenc	%xmm5, %xmm0, %xmm5
	.loc	5 53 16                         # crypto_aead/aegis128l/aegis128l_aesni.c:53:16 @[ crypto_aead/aegis128l/aegis128l_common.h:31:9 @[ crypto_aead/aegis128l/aegis128l_common.h:206:5 ] ]
	vaesenc	%xmm0, %xmm7, %xmm0
	.loc	5 55 16                         # crypto_aead/aegis128l/aegis128l_aesni.c:55:16 @[ crypto_aead/aegis128l/aegis128l_common.h:31:9 @[ crypto_aead/aegis128l/aegis128l_common.h:206:5 ] ]
	vpxor	%xmm2, %xmm0, %xmm0
	.loc	5 56 16                         # crypto_aead/aegis128l/aegis128l_aesni.c:56:16 @[ crypto_aead/aegis128l/aegis128l_common.h:31:9 @[ crypto_aead/aegis128l/aegis128l_common.h:206:5 ] ]
	vpxor	%xmm1, %xmm4, %xmm4
.Ltmp203:
	#DEBUG_VALUE: aegis128l_init:i <- 8
	#DEBUG_VALUE: aegis128l_update:tmp <- $xmm9
	.loc	5 46 16                         # crypto_aead/aegis128l/aegis128l_aesni.c:46:16 @[ crypto_aead/aegis128l/aegis128l_common.h:31:9 @[ crypto_aead/aegis128l/aegis128l_common.h:206:5 ] ]
	vaesenc	%xmm9, %xmm6, %xmm7
	.loc	5 47 16                         # crypto_aead/aegis128l/aegis128l_aesni.c:47:16 @[ crypto_aead/aegis128l/aegis128l_common.h:31:9 @[ crypto_aead/aegis128l/aegis128l_common.h:206:5 ] ]
	vaesenc	%xmm6, %xmm8, %xmm6
	.loc	5 48 16                         # crypto_aead/aegis128l/aegis128l_aesni.c:48:16 @[ crypto_aead/aegis128l/aegis128l_common.h:31:9 @[ crypto_aead/aegis128l/aegis128l_common.h:206:5 ] ]
	vaesenc	%xmm8, %xmm4, %xmm8
	.loc	5 49 16                         # crypto_aead/aegis128l/aegis128l_aesni.c:49:16 @[ crypto_aead/aegis128l/aegis128l_common.h:31:9 @[ crypto_aead/aegis128l/aegis128l_common.h:206:5 ] ]
	vaesenc	%xmm4, %xmm10, %xmm4
	.loc	5 50 16                         # crypto_aead/aegis128l/aegis128l_aesni.c:50:16 @[ crypto_aead/aegis128l/aegis128l_common.h:31:9 @[ crypto_aead/aegis128l/aegis128l_common.h:206:5 ] ]
	vaesenc	%xmm10, %xmm3, %xmm10
	.loc	5 51 16                         # crypto_aead/aegis128l/aegis128l_aesni.c:51:16 @[ crypto_aead/aegis128l/aegis128l_common.h:31:9 @[ crypto_aead/aegis128l/aegis128l_common.h:206:5 ] ]
	vaesenc	%xmm3, %xmm5, %xmm3
	.loc	5 52 16                         # crypto_aead/aegis128l/aegis128l_aesni.c:52:16 @[ crypto_aead/aegis128l/aegis128l_common.h:31:9 @[ crypto_aead/aegis128l/aegis128l_common.h:206:5 ] ]
	vaesenc	%xmm5, %xmm0, %xmm5
	.loc	5 53 16                         # crypto_aead/aegis128l/aegis128l_aesni.c:53:16 @[ crypto_aead/aegis128l/aegis128l_common.h:31:9 @[ crypto_aead/aegis128l/aegis128l_common.h:206:5 ] ]
	vaesenc	%xmm0, %xmm9, %xmm0
	.loc	5 55 16                         # crypto_aead/aegis128l/aegis128l_aesni.c:55:16 @[ crypto_aead/aegis128l/aegis128l_common.h:31:9 @[ crypto_aead/aegis128l/aegis128l_common.h:206:5 ] ]
	vpxor	%xmm2, %xmm0, %xmm9
.Ltmp204:
	.loc	5 56 16                         # crypto_aead/aegis128l/aegis128l_aesni.c:56:16 @[ crypto_aead/aegis128l/aegis128l_common.h:31:9 @[ crypto_aead/aegis128l/aegis128l_common.h:206:5 ] ]
	vpxor	%xmm1, %xmm4, %xmm4
.Ltmp205:
	#DEBUG_VALUE: aegis128l_init:i <- 9
	#DEBUG_VALUE: aegis128l_update:tmp <- $xmm7
	.loc	5 46 16                         # crypto_aead/aegis128l/aegis128l_aesni.c:46:16 @[ crypto_aead/aegis128l/aegis128l_common.h:31:9 @[ crypto_aead/aegis128l/aegis128l_common.h:206:5 ] ]
	vaesenc	%xmm7, %xmm6, %xmm0
	.loc	5 47 16                         # crypto_aead/aegis128l/aegis128l_aesni.c:47:16 @[ crypto_aead/aegis128l/aegis128l_common.h:31:9 @[ crypto_aead/aegis128l/aegis128l_common.h:206:5 ] ]
	vaesenc	%xmm6, %xmm8, %xmm11
	.loc	5 48 16                         # crypto_aead/aegis128l/aegis128l_aesni.c:48:16 @[ crypto_aead/aegis128l/aegis128l_common.h:31:9 @[ crypto_aead/aegis128l/aegis128l_common.h:206:5 ] ]
	vaesenc	%xmm8, %xmm4, %xmm12
	.loc	5 49 16                         # crypto_aead/aegis128l/aegis128l_aesni.c:49:16 @[ crypto_aead/aegis128l/aegis128l_common.h:31:9 @[ crypto_aead/aegis128l/aegis128l_common.h:206:5 ] ]
	vaesenc	%xmm4, %xmm10, %xmm4
	.loc	5 50 16                         # crypto_aead/aegis128l/aegis128l_aesni.c:50:16 @[ crypto_aead/aegis128l/aegis128l_common.h:31:9 @[ crypto_aead/aegis128l/aegis128l_common.h:206:5 ] ]
	vaesenc	%xmm10, %xmm3, %xmm10
	.loc	5 51 16                         # crypto_aead/aegis128l/aegis128l_aesni.c:51:16 @[ crypto_aead/aegis128l/aegis128l_common.h:31:9 @[ crypto_aead/aegis128l/aegis128l_common.h:206:5 ] ]
	vaesenc	%xmm3, %xmm5, %xmm6
	.loc	5 52 16                         # crypto_aead/aegis128l/aegis128l_aesni.c:52:16 @[ crypto_aead/aegis128l/aegis128l_common.h:31:9 @[ crypto_aead/aegis128l/aegis128l_common.h:206:5 ] ]
	vaesenc	%xmm5, %xmm9, %xmm13
	.loc	5 53 16                         # crypto_aead/aegis128l/aegis128l_aesni.c:53:16 @[ crypto_aead/aegis128l/aegis128l_common.h:31:9 @[ crypto_aead/aegis128l/aegis128l_common.h:206:5 ] ]
	vaesenc	%xmm9, %xmm7, %xmm3
	movq	16(%rbp), %r15
	.loc	5 55 16                         # crypto_aead/aegis128l/aegis128l_aesni.c:55:16 @[ crypto_aead/aegis128l/aegis128l_common.h:31:9 @[ crypto_aead/aegis128l/aegis128l_common.h:206:5 ] ]
	vpxor	%xmm2, %xmm3, %xmm8
	.loc	5 56 16                         # crypto_aead/aegis128l/aegis128l_aesni.c:56:16 @[ crypto_aead/aegis128l/aegis128l_common.h:31:9 @[ crypto_aead/aegis128l/aegis128l_common.h:206:5 ] ]
	vpxor	%xmm1, %xmm4, %xmm5
.Ltmp206:
	#DEBUG_VALUE: decrypt_detached:state <- [DW_OP_LLVM_fragment 512 128] $xmm5
	#DEBUG_VALUE: aegis128l_init:i <- 10
	#DEBUG_VALUE: decrypt_detached:state <- [DW_OP_LLVM_fragment 896 128] $xmm0
	#DEBUG_VALUE: decrypt_detached:state <- [DW_OP_LLVM_fragment 768 128] $xmm11
	#DEBUG_VALUE: decrypt_detached:state <- [DW_OP_LLVM_fragment 640 128] $xmm12
	#DEBUG_VALUE: decrypt_detached:state <- [DW_OP_LLVM_fragment 384 128] $xmm10
	#DEBUG_VALUE: decrypt_detached:state <- [DW_OP_LLVM_fragment 256 128] $xmm6
	#DEBUG_VALUE: decrypt_detached:state <- [DW_OP_LLVM_fragment 128 128] $xmm13
	#DEBUG_VALUE: decrypt_detached:state <- [DW_OP_LLVM_fragment 0 128] $xmm8
	#DEBUG_VALUE: decrypt_detached:i <- 0
	.loc	6 208 28                        # crypto_aead/aegis128l/aegis128l_common.h:208:28
	cmpq	$64, %r15
.Ltmp207:
	.loc	6 208 5 is_stmt 0               # crypto_aead/aegis128l/aegis128l_common.h:208:5
	jae	.LBB1_4
.Ltmp208:
# %bb.1:
	#DEBUG_VALUE: decrypt_detached:m <- $r14
	#DEBUG_VALUE: decrypt_detached:c <- $r13
	#DEBUG_VALUE: decrypt_detached:clen <- $r12
	#DEBUG_VALUE: decrypt_detached:mac <- [DW_OP_plus_uconst 168] [$rsp+0]
	#DEBUG_VALUE: decrypt_detached:maclen <- $r8
	#DEBUG_VALUE: decrypt_detached:ad <- $r9
	#DEBUG_VALUE: decrypt_detached:adlen <- [DW_OP_plus_uconst 16] [$rbp+0]
	#DEBUG_VALUE: decrypt_detached:npub <- [DW_OP_plus_uconst 24] [$rbp+0]
	#DEBUG_VALUE: decrypt_detached:k <- [DW_OP_plus_uconst 32] [$rbp+0]
	#DEBUG_VALUE: aegis128l_init:nonce <- $rax
	#DEBUG_VALUE: aegis128l_init:key <- $rcx
	#DEBUG_VALUE: decrypt_detached:dst <- [DW_OP_plus_uconst 192, DW_OP_deref] $rsp
	#DEBUG_VALUE: aegis128l_init:k <- $xmm1
	#DEBUG_VALUE: aegis128l_init:n <- $xmm2
	#DEBUG_VALUE: aegis128l_update:tmp <- $xmm7
	#DEBUG_VALUE: aegis128l_init:i <- 10
	#DEBUG_VALUE: aegis128l_update:d1 <- $xmm2
	#DEBUG_VALUE: aegis128l_update:d2 <- $xmm1
	#DEBUG_VALUE: decrypt_detached:state <- [DW_OP_LLVM_fragment 512 128] $xmm5
	#DEBUG_VALUE: decrypt_detached:state <- [DW_OP_LLVM_fragment 896 128] $xmm0
	#DEBUG_VALUE: decrypt_detached:state <- [DW_OP_LLVM_fragment 768 128] $xmm11
	#DEBUG_VALUE: decrypt_detached:state <- [DW_OP_LLVM_fragment 640 128] $xmm12
	#DEBUG_VALUE: decrypt_detached:state <- [DW_OP_LLVM_fragment 384 128] $xmm10
	#DEBUG_VALUE: decrypt_detached:state <- [DW_OP_LLVM_fragment 256 128] $xmm6
	#DEBUG_VALUE: decrypt_detached:state <- [DW_OP_LLVM_fragment 128 128] $xmm13
	#DEBUG_VALUE: decrypt_detached:state <- [DW_OP_LLVM_fragment 0 128] $xmm8
	#DEBUG_VALUE: decrypt_detached:i <- 0
	.loc	6 0 5                           # crypto_aead/aegis128l/aegis128l_common.h:0:5
	xorl	%eax, %eax
	jmp	.LBB1_2
.Ltmp209:
.LBB1_4:                                # %.lr.ph.preheader
	#DEBUG_VALUE: decrypt_detached:m <- $r14
	#DEBUG_VALUE: decrypt_detached:c <- $r13
	#DEBUG_VALUE: decrypt_detached:clen <- $r12
	#DEBUG_VALUE: decrypt_detached:mac <- [DW_OP_plus_uconst 168] [$rsp+0]
	#DEBUG_VALUE: decrypt_detached:maclen <- $r8
	#DEBUG_VALUE: decrypt_detached:ad <- $r9
	#DEBUG_VALUE: decrypt_detached:adlen <- [DW_OP_plus_uconst 16] [$rbp+0]
	#DEBUG_VALUE: decrypt_detached:npub <- [DW_OP_plus_uconst 24] [$rbp+0]
	#DEBUG_VALUE: decrypt_detached:k <- [DW_OP_plus_uconst 32] [$rbp+0]
	#DEBUG_VALUE: aegis128l_init:nonce <- $rax
	#DEBUG_VALUE: aegis128l_init:key <- $rcx
	#DEBUG_VALUE: decrypt_detached:dst <- [DW_OP_plus_uconst 192, DW_OP_deref] $rsp
	#DEBUG_VALUE: aegis128l_init:k <- $xmm1
	#DEBUG_VALUE: aegis128l_init:n <- $xmm2
	#DEBUG_VALUE: aegis128l_update:tmp <- $xmm7
	#DEBUG_VALUE: aegis128l_init:i <- 10
	#DEBUG_VALUE: aegis128l_update:d1 <- $xmm2
	#DEBUG_VALUE: aegis128l_update:d2 <- $xmm1
	#DEBUG_VALUE: decrypt_detached:state <- [DW_OP_LLVM_fragment 512 128] $xmm5
	#DEBUG_VALUE: decrypt_detached:state <- [DW_OP_LLVM_fragment 896 128] $xmm0
	#DEBUG_VALUE: decrypt_detached:state <- [DW_OP_LLVM_fragment 768 128] $xmm11
	#DEBUG_VALUE: decrypt_detached:state <- [DW_OP_LLVM_fragment 640 128] $xmm12
	#DEBUG_VALUE: decrypt_detached:state <- [DW_OP_LLVM_fragment 384 128] $xmm10
	#DEBUG_VALUE: decrypt_detached:state <- [DW_OP_LLVM_fragment 256 128] $xmm6
	#DEBUG_VALUE: decrypt_detached:state <- [DW_OP_LLVM_fragment 128 128] $xmm13
	#DEBUG_VALUE: decrypt_detached:state <- [DW_OP_LLVM_fragment 0 128] $xmm8
	#DEBUG_VALUE: decrypt_detached:i <- 0
	xorl	%ecx, %ecx
.Ltmp210:
	.p2align	4
.LBB1_5:                                # %.lr.ph
                                        # =>This Inner Loop Header: Depth=1
	#DEBUG_VALUE: decrypt_detached:m <- $r14
	#DEBUG_VALUE: decrypt_detached:c <- $r13
	#DEBUG_VALUE: decrypt_detached:clen <- $r12
	#DEBUG_VALUE: decrypt_detached:mac <- [DW_OP_plus_uconst 168] [$rsp+0]
	#DEBUG_VALUE: decrypt_detached:maclen <- $r8
	#DEBUG_VALUE: decrypt_detached:ad <- $r9
	#DEBUG_VALUE: decrypt_detached:adlen <- [DW_OP_plus_uconst 16] [$rbp+0]
	#DEBUG_VALUE: decrypt_detached:npub <- [DW_OP_plus_uconst 24] [$rbp+0]
	#DEBUG_VALUE: decrypt_detached:k <- [DW_OP_plus_uconst 32] [$rbp+0]
	#DEBUG_VALUE: decrypt_detached:dst <- [DW_OP_plus_uconst 192, DW_OP_deref] $rsp
	#DEBUG_VALUE: decrypt_detached:state <- [DW_OP_LLVM_fragment 512 128] $xmm5
	#DEBUG_VALUE: decrypt_detached:state <- [DW_OP_LLVM_fragment 896 128] $xmm0
	#DEBUG_VALUE: decrypt_detached:state <- [DW_OP_LLVM_fragment 768 128] $xmm11
	#DEBUG_VALUE: decrypt_detached:state <- [DW_OP_LLVM_fragment 640 128] $xmm12
	#DEBUG_VALUE: decrypt_detached:state <- [DW_OP_LLVM_fragment 384 128] $xmm10
	#DEBUG_VALUE: decrypt_detached:state <- [DW_OP_LLVM_fragment 256 128] $xmm6
	#DEBUG_VALUE: decrypt_detached:state <- [DW_OP_LLVM_fragment 128 128] $xmm13
	#DEBUG_VALUE: decrypt_detached:state <- [DW_OP_LLVM_fragment 0 128] $xmm8
	#DEBUG_VALUE: decrypt_detached:i <- $rcx
	#DEBUG_VALUE: decrypt_detached:state <- [DW_OP_LLVM_fragment 0 128] $xmm8
	#DEBUG_VALUE: decrypt_detached:state <- [DW_OP_LLVM_fragment 128 128] $xmm13
	#DEBUG_VALUE: decrypt_detached:state <- [DW_OP_LLVM_fragment 256 128] $xmm6
	#DEBUG_VALUE: decrypt_detached:state <- [DW_OP_LLVM_fragment 384 128] $xmm10
	#DEBUG_VALUE: decrypt_detached:state <- [DW_OP_LLVM_fragment 512 128] $xmm5
	#DEBUG_VALUE: decrypt_detached:state <- [DW_OP_LLVM_fragment 640 128] $xmm12
	#DEBUG_VALUE: decrypt_detached:state <- [DW_OP_LLVM_fragment 768 128] $xmm11
	#DEBUG_VALUE: decrypt_detached:state <- [DW_OP_LLVM_fragment 896 128] $xmm0
	#DEBUG_VALUE: aegis128l_absorb2:src <- [DW_OP_LLVM_arg 0, DW_OP_consts 64, DW_OP_div, DW_OP_consts 64, DW_OP_mul, DW_OP_LLVM_arg 1, DW_OP_plus, DW_OP_stack_value] $rcx, $r9
	#DEBUG_VALUE: aegis128l_absorb2:state <- undef
	#DEBUG_VALUE: aegis128l_absorb2:msg0 <- undef
	#DEBUG_VALUE: aegis128l_absorb2:msg1 <- undef
	#DEBUG_VALUE: aegis128l_absorb2:msg2 <- undef
	#DEBUG_VALUE: aegis128l_absorb2:msg3 <- undef
	#DEBUG_VALUE: aegis128l_update:state <- undef
	#DEBUG_VALUE: aegis128l_update:d1 <- undef
	#DEBUG_VALUE: aegis128l_update:d2 <- undef
	#DEBUG_VALUE: aegis128l_update:tmp <- $xmm0
	.loc	5 46 16 is_stmt 1               # crypto_aead/aegis128l/aegis128l_aesni.c:46:16 @[ crypto_aead/aegis128l/aegis128l_common.h:84:5 @[ crypto_aead/aegis128l/aegis128l_common.h:209:9 ] ]
	vaesenc	%xmm0, %xmm11, %xmm1
	.loc	5 47 16                         # crypto_aead/aegis128l/aegis128l_aesni.c:47:16 @[ crypto_aead/aegis128l/aegis128l_common.h:84:5 @[ crypto_aead/aegis128l/aegis128l_common.h:209:9 ] ]
	vaesenc	%xmm11, %xmm12, %xmm2
	.loc	5 48 16                         # crypto_aead/aegis128l/aegis128l_aesni.c:48:16 @[ crypto_aead/aegis128l/aegis128l_common.h:84:5 @[ crypto_aead/aegis128l/aegis128l_common.h:209:9 ] ]
	vaesenc	%xmm12, %xmm5, %xmm3
	.loc	5 49 16                         # crypto_aead/aegis128l/aegis128l_aesni.c:49:16 @[ crypto_aead/aegis128l/aegis128l_common.h:84:5 @[ crypto_aead/aegis128l/aegis128l_common.h:209:9 ] ]
	vaesenc	%xmm5, %xmm10, %xmm4
	.loc	5 50 16                         # crypto_aead/aegis128l/aegis128l_aesni.c:50:16 @[ crypto_aead/aegis128l/aegis128l_common.h:84:5 @[ crypto_aead/aegis128l/aegis128l_common.h:209:9 ] ]
	vaesenc	%xmm10, %xmm6, %xmm5
.Ltmp211:
	.loc	5 51 16                         # crypto_aead/aegis128l/aegis128l_aesni.c:51:16 @[ crypto_aead/aegis128l/aegis128l_common.h:84:5 @[ crypto_aead/aegis128l/aegis128l_common.h:209:9 ] ]
	vaesenc	%xmm6, %xmm13, %xmm6
.Ltmp212:
	.loc	5 52 16                         # crypto_aead/aegis128l/aegis128l_aesni.c:52:16 @[ crypto_aead/aegis128l/aegis128l_common.h:84:5 @[ crypto_aead/aegis128l/aegis128l_common.h:209:9 ] ]
	vaesenc	%xmm13, %xmm8, %xmm7
	.loc	5 53 16                         # crypto_aead/aegis128l/aegis128l_aesni.c:53:16 @[ crypto_aead/aegis128l/aegis128l_common.h:84:5 @[ crypto_aead/aegis128l/aegis128l_common.h:209:9 ] ]
	vaesenc	%xmm8, %xmm0, %xmm0
.Ltmp213:
	.loc	5 55 16                         # crypto_aead/aegis128l/aegis128l_aesni.c:55:16 @[ crypto_aead/aegis128l/aegis128l_common.h:84:5 @[ crypto_aead/aegis128l/aegis128l_common.h:209:9 ] ]
	vpxor	(%r9,%rcx), %xmm0, %xmm8
.Ltmp214:
	.loc	5 56 16                         # crypto_aead/aegis128l/aegis128l_aesni.c:56:16 @[ crypto_aead/aegis128l/aegis128l_common.h:84:5 @[ crypto_aead/aegis128l/aegis128l_common.h:209:9 ] ]
	vpxor	16(%r9,%rcx), %xmm4, %xmm4
.Ltmp215:
	#DEBUG_VALUE: aegis128l_update:state <- undef
	#DEBUG_VALUE: aegis128l_update:d1 <- undef
	#DEBUG_VALUE: aegis128l_update:d2 <- undef
	#DEBUG_VALUE: aegis128l_update:tmp <- $xmm1
	.loc	5 46 16                         # crypto_aead/aegis128l/aegis128l_aesni.c:46:16 @[ crypto_aead/aegis128l/aegis128l_common.h:85:5 @[ crypto_aead/aegis128l/aegis128l_common.h:209:9 ] ]
	vaesenc	%xmm1, %xmm2, %xmm0
.Ltmp216:
	#DEBUG_VALUE: decrypt_detached:state <- [DW_OP_LLVM_fragment 896 128] $xmm0
	.loc	5 47 16                         # crypto_aead/aegis128l/aegis128l_aesni.c:47:16 @[ crypto_aead/aegis128l/aegis128l_common.h:85:5 @[ crypto_aead/aegis128l/aegis128l_common.h:209:9 ] ]
	vaesenc	%xmm2, %xmm3, %xmm11
.Ltmp217:
	#DEBUG_VALUE: decrypt_detached:state <- [DW_OP_LLVM_fragment 768 128] $xmm11
	.loc	5 48 16                         # crypto_aead/aegis128l/aegis128l_aesni.c:48:16 @[ crypto_aead/aegis128l/aegis128l_common.h:85:5 @[ crypto_aead/aegis128l/aegis128l_common.h:209:9 ] ]
	vaesenc	%xmm3, %xmm4, %xmm12
.Ltmp218:
	#DEBUG_VALUE: decrypt_detached:state <- [DW_OP_LLVM_fragment 640 128] $xmm12
	.loc	5 49 16                         # crypto_aead/aegis128l/aegis128l_aesni.c:49:16 @[ crypto_aead/aegis128l/aegis128l_common.h:85:5 @[ crypto_aead/aegis128l/aegis128l_common.h:209:9 ] ]
	vaesenc	%xmm4, %xmm5, %xmm2
	.loc	5 50 16                         # crypto_aead/aegis128l/aegis128l_aesni.c:50:16 @[ crypto_aead/aegis128l/aegis128l_common.h:85:5 @[ crypto_aead/aegis128l/aegis128l_common.h:209:9 ] ]
	vaesenc	%xmm5, %xmm6, %xmm10
.Ltmp219:
	#DEBUG_VALUE: decrypt_detached:state <- [DW_OP_LLVM_fragment 384 128] $xmm10
	.loc	5 51 16                         # crypto_aead/aegis128l/aegis128l_aesni.c:51:16 @[ crypto_aead/aegis128l/aegis128l_common.h:85:5 @[ crypto_aead/aegis128l/aegis128l_common.h:209:9 ] ]
	vaesenc	%xmm6, %xmm7, %xmm6
.Ltmp220:
	#DEBUG_VALUE: decrypt_detached:state <- [DW_OP_LLVM_fragment 256 128] $xmm6
	.loc	5 52 16                         # crypto_aead/aegis128l/aegis128l_aesni.c:52:16 @[ crypto_aead/aegis128l/aegis128l_common.h:85:5 @[ crypto_aead/aegis128l/aegis128l_common.h:209:9 ] ]
	vaesenc	%xmm7, %xmm8, %xmm13
.Ltmp221:
	#DEBUG_VALUE: decrypt_detached:state <- [DW_OP_LLVM_fragment 128 128] $xmm13
	.loc	5 53 16                         # crypto_aead/aegis128l/aegis128l_aesni.c:53:16 @[ crypto_aead/aegis128l/aegis128l_common.h:85:5 @[ crypto_aead/aegis128l/aegis128l_common.h:209:9 ] ]
	vaesenc	%xmm8, %xmm1, %xmm1
.Ltmp222:
	.loc	5 55 16                         # crypto_aead/aegis128l/aegis128l_aesni.c:55:16 @[ crypto_aead/aegis128l/aegis128l_common.h:85:5 @[ crypto_aead/aegis128l/aegis128l_common.h:209:9 ] ]
	vpxor	32(%r9,%rcx), %xmm1, %xmm8
.Ltmp223:
	#DEBUG_VALUE: decrypt_detached:state <- [DW_OP_LLVM_fragment 0 128] $xmm8
	.loc	5 56 16                         # crypto_aead/aegis128l/aegis128l_aesni.c:56:16 @[ crypto_aead/aegis128l/aegis128l_common.h:85:5 @[ crypto_aead/aegis128l/aegis128l_common.h:209:9 ] ]
	vpxor	48(%r9,%rcx), %xmm2, %xmm5
.Ltmp224:
	#DEBUG_VALUE: decrypt_detached:state <- [DW_OP_LLVM_fragment 512 128] $xmm5
	#DEBUG_VALUE: decrypt_detached:state <- [DW_OP_LLVM_fragment 128 128] $xmm13
	#DEBUG_VALUE: decrypt_detached:state <- [DW_OP_LLVM_fragment 256 128] $xmm6
	#DEBUG_VALUE: decrypt_detached:state <- [DW_OP_LLVM_fragment 384 128] $xmm10
	#DEBUG_VALUE: decrypt_detached:state <- [DW_OP_LLVM_fragment 640 128] $xmm12
	#DEBUG_VALUE: decrypt_detached:state <- [DW_OP_LLVM_fragment 768 128] $xmm11
	#DEBUG_VALUE: decrypt_detached:state <- [DW_OP_LLVM_fragment 896 128] $xmm0
	#DEBUG_VALUE: decrypt_detached:i <- [DW_OP_plus_uconst 64, DW_OP_stack_value] $rcx
	.loc	6 208 28                        # crypto_aead/aegis128l/aegis128l_common.h:208:28
	leaq	64(%rcx), %rax
	subq	$-128, %rcx
.Ltmp225:
	cmpq	%r15, %rcx
	movq	%rax, %rcx
.Ltmp226:
	.loc	6 208 5 is_stmt 0               # crypto_aead/aegis128l/aegis128l_common.h:208:5
	jbe	.LBB1_5
.Ltmp227:
.LBB1_2:                                # %.preheader156
	#DEBUG_VALUE: decrypt_detached:m <- $r14
	#DEBUG_VALUE: decrypt_detached:c <- $r13
	#DEBUG_VALUE: decrypt_detached:clen <- $r12
	#DEBUG_VALUE: decrypt_detached:mac <- [DW_OP_plus_uconst 168] [$rsp+0]
	#DEBUG_VALUE: decrypt_detached:maclen <- $r8
	#DEBUG_VALUE: decrypt_detached:ad <- $r9
	#DEBUG_VALUE: decrypt_detached:adlen <- [DW_OP_plus_uconst 16] [$rbp+0]
	#DEBUG_VALUE: decrypt_detached:npub <- [DW_OP_plus_uconst 24] [$rbp+0]
	#DEBUG_VALUE: decrypt_detached:k <- [DW_OP_plus_uconst 32] [$rbp+0]
	#DEBUG_VALUE: decrypt_detached:dst <- [DW_OP_plus_uconst 192, DW_OP_deref] $rsp
	#DEBUG_VALUE: decrypt_detached:state <- [DW_OP_LLVM_fragment 512 128] $xmm5
	#DEBUG_VALUE: decrypt_detached:state <- [DW_OP_LLVM_fragment 896 128] $xmm0
	#DEBUG_VALUE: decrypt_detached:state <- [DW_OP_LLVM_fragment 768 128] $xmm11
	#DEBUG_VALUE: decrypt_detached:state <- [DW_OP_LLVM_fragment 640 128] $xmm12
	#DEBUG_VALUE: decrypt_detached:state <- [DW_OP_LLVM_fragment 384 128] $xmm10
	#DEBUG_VALUE: decrypt_detached:state <- [DW_OP_LLVM_fragment 256 128] $xmm6
	#DEBUG_VALUE: decrypt_detached:state <- [DW_OP_LLVM_fragment 128 128] $xmm13
	#DEBUG_VALUE: decrypt_detached:state <- [DW_OP_LLVM_fragment 0 128] $xmm8
	#DEBUG_VALUE: decrypt_detached:state <- [DW_OP_LLVM_fragment 0 128] $xmm8
	#DEBUG_VALUE: decrypt_detached:state <- [DW_OP_LLVM_fragment 128 128] $xmm13
	#DEBUG_VALUE: decrypt_detached:state <- [DW_OP_LLVM_fragment 256 128] $xmm6
	#DEBUG_VALUE: decrypt_detached:state <- [DW_OP_LLVM_fragment 384 128] $xmm10
	#DEBUG_VALUE: decrypt_detached:state <- [DW_OP_LLVM_fragment 512 128] $xmm5
	#DEBUG_VALUE: decrypt_detached:state <- [DW_OP_LLVM_fragment 640 128] $xmm12
	#DEBUG_VALUE: decrypt_detached:state <- [DW_OP_LLVM_fragment 768 128] $xmm11
	#DEBUG_VALUE: decrypt_detached:state <- [DW_OP_LLVM_fragment 896 128] $xmm0
	#DEBUG_VALUE: decrypt_detached:i <- $rax
	.loc	6 211 14 is_stmt 1              # crypto_aead/aegis128l/aegis128l_common.h:211:14
	movq	%rax, %rcx
	orq	$32, %rcx
	.loc	6 211 19 is_stmt 0              # crypto_aead/aegis128l/aegis128l_common.h:211:19
	cmpq	%r15, %rcx
.Ltmp228:
	.loc	6 211 5                         # crypto_aead/aegis128l/aegis128l_common.h:211:5
	jbe	.LBB1_6
.Ltmp229:
# %bb.3:
	#DEBUG_VALUE: decrypt_detached:m <- $r14
	#DEBUG_VALUE: decrypt_detached:c <- $r13
	#DEBUG_VALUE: decrypt_detached:clen <- $r12
	#DEBUG_VALUE: decrypt_detached:mac <- [DW_OP_plus_uconst 168] [$rsp+0]
	#DEBUG_VALUE: decrypt_detached:maclen <- $r8
	#DEBUG_VALUE: decrypt_detached:ad <- $r9
	#DEBUG_VALUE: decrypt_detached:adlen <- [DW_OP_plus_uconst 16] [$rbp+0]
	#DEBUG_VALUE: decrypt_detached:npub <- [DW_OP_plus_uconst 24] [$rbp+0]
	#DEBUG_VALUE: decrypt_detached:k <- [DW_OP_plus_uconst 32] [$rbp+0]
	#DEBUG_VALUE: decrypt_detached:dst <- [DW_OP_plus_uconst 192, DW_OP_deref] $rsp
	#DEBUG_VALUE: decrypt_detached:state <- [DW_OP_LLVM_fragment 512 128] $xmm5
	#DEBUG_VALUE: decrypt_detached:state <- [DW_OP_LLVM_fragment 896 128] $xmm0
	#DEBUG_VALUE: decrypt_detached:state <- [DW_OP_LLVM_fragment 768 128] $xmm11
	#DEBUG_VALUE: decrypt_detached:state <- [DW_OP_LLVM_fragment 640 128] $xmm12
	#DEBUG_VALUE: decrypt_detached:state <- [DW_OP_LLVM_fragment 384 128] $xmm10
	#DEBUG_VALUE: decrypt_detached:state <- [DW_OP_LLVM_fragment 256 128] $xmm6
	#DEBUG_VALUE: decrypt_detached:state <- [DW_OP_LLVM_fragment 128 128] $xmm13
	#DEBUG_VALUE: decrypt_detached:state <- [DW_OP_LLVM_fragment 0 128] $xmm8
	#DEBUG_VALUE: decrypt_detached:i <- $rax
	.loc	6 0 5                           # crypto_aead/aegis128l/aegis128l_common.h:0:5
	vmovdqa	%xmm0, %xmm9
	movq	%rax, %rcx
	.loc	6 211 5                         # crypto_aead/aegis128l/aegis128l_common.h:211:5
	jmp	.LBB1_7
.Ltmp230:
	.loc	6 0 5                           # :0:5
.Ltmp231:
	.p2align	4
.LBB1_6:                                # %.lr.ph185
                                        # =>This Inner Loop Header: Depth=1
	#DEBUG_VALUE: decrypt_detached:m <- $r14
	#DEBUG_VALUE: decrypt_detached:c <- $r13
	#DEBUG_VALUE: decrypt_detached:clen <- $r12
	#DEBUG_VALUE: decrypt_detached:mac <- [DW_OP_plus_uconst 168] [$rsp+0]
	#DEBUG_VALUE: decrypt_detached:maclen <- $r8
	#DEBUG_VALUE: decrypt_detached:ad <- $r9
	#DEBUG_VALUE: decrypt_detached:adlen <- [DW_OP_plus_uconst 16] [$rbp+0]
	#DEBUG_VALUE: decrypt_detached:npub <- [DW_OP_plus_uconst 24] [$rbp+0]
	#DEBUG_VALUE: decrypt_detached:k <- [DW_OP_plus_uconst 32] [$rbp+0]
	#DEBUG_VALUE: decrypt_detached:dst <- [DW_OP_plus_uconst 192, DW_OP_deref] $rsp
	#DEBUG_VALUE: decrypt_detached:state <- [DW_OP_LLVM_fragment 512 128] $xmm5
	#DEBUG_VALUE: decrypt_detached:state <- [DW_OP_LLVM_fragment 768 128] $xmm11
	#DEBUG_VALUE: decrypt_detached:state <- [DW_OP_LLVM_fragment 640 128] $xmm12
	#DEBUG_VALUE: decrypt_detached:state <- [DW_OP_LLVM_fragment 384 128] $xmm10
	#DEBUG_VALUE: decrypt_detached:state <- [DW_OP_LLVM_fragment 256 128] $xmm6
	#DEBUG_VALUE: decrypt_detached:state <- [DW_OP_LLVM_fragment 128 128] $xmm13
	#DEBUG_VALUE: decrypt_detached:state <- [DW_OP_LLVM_fragment 0 128] $xmm8
	#DEBUG_VALUE: decrypt_detached:i <- $rax
	#DEBUG_VALUE: decrypt_detached:state <- [DW_OP_LLVM_fragment 0 128] $xmm8
	#DEBUG_VALUE: decrypt_detached:state <- [DW_OP_LLVM_fragment 128 128] $xmm13
	#DEBUG_VALUE: decrypt_detached:state <- [DW_OP_LLVM_fragment 256 128] $xmm6
	#DEBUG_VALUE: decrypt_detached:state <- [DW_OP_LLVM_fragment 384 128] $xmm10
	#DEBUG_VALUE: decrypt_detached:state <- [DW_OP_LLVM_fragment 512 128] $xmm5
	#DEBUG_VALUE: decrypt_detached:state <- [DW_OP_LLVM_fragment 640 128] $xmm12
	#DEBUG_VALUE: decrypt_detached:state <- [DW_OP_LLVM_fragment 768 128] $xmm11
	#DEBUG_VALUE: decrypt_detached:state <- [DW_OP_LLVM_fragment 896 128] $xmm0
	#DEBUG_VALUE: aegis128l_absorb:src <- [DW_OP_LLVM_arg 0, DW_OP_LLVM_arg 1, DW_OP_minus, DW_OP_consts 32, DW_OP_div, DW_OP_consts 32, DW_OP_mul, DW_OP_LLVM_arg 1, DW_OP_LLVM_arg 2, DW_OP_plus, DW_OP_plus, DW_OP_stack_value] undef, undef, undef
	#DEBUG_VALUE: aegis128l_absorb:state <- undef
	#DEBUG_VALUE: aegis128l_absorb:msg0 <- undef
	#DEBUG_VALUE: aegis128l_absorb:msg1 <- undef
	#DEBUG_VALUE: aegis128l_update:state <- undef
	#DEBUG_VALUE: aegis128l_update:d1 <- undef
	#DEBUG_VALUE: aegis128l_update:d2 <- undef
	#DEBUG_VALUE: aegis128l_update:tmp <- $xmm0
	.loc	5 46 16 is_stmt 1               # crypto_aead/aegis128l/aegis128l_aesni.c:46:16 @[ crypto_aead/aegis128l/aegis128l_common.h:72:5 @[ crypto_aead/aegis128l/aegis128l_common.h:212:9 ] ]
	vaesenc	%xmm0, %xmm11, %xmm9
.Ltmp232:
	#DEBUG_VALUE: decrypt_detached:state <- [DW_OP_LLVM_fragment 896 128] $xmm9
	.loc	5 47 16                         # crypto_aead/aegis128l/aegis128l_aesni.c:47:16 @[ crypto_aead/aegis128l/aegis128l_common.h:72:5 @[ crypto_aead/aegis128l/aegis128l_common.h:212:9 ] ]
	vaesenc	%xmm11, %xmm12, %xmm11
.Ltmp233:
	#DEBUG_VALUE: decrypt_detached:state <- [DW_OP_LLVM_fragment 768 128] $xmm11
	.loc	5 48 16                         # crypto_aead/aegis128l/aegis128l_aesni.c:48:16 @[ crypto_aead/aegis128l/aegis128l_common.h:72:5 @[ crypto_aead/aegis128l/aegis128l_common.h:212:9 ] ]
	vaesenc	%xmm12, %xmm5, %xmm12
.Ltmp234:
	#DEBUG_VALUE: decrypt_detached:state <- [DW_OP_LLVM_fragment 640 128] $xmm12
	.loc	5 49 16                         # crypto_aead/aegis128l/aegis128l_aesni.c:49:16 @[ crypto_aead/aegis128l/aegis128l_common.h:72:5 @[ crypto_aead/aegis128l/aegis128l_common.h:212:9 ] ]
	vaesenc	%xmm5, %xmm10, %xmm1
	.loc	5 50 16                         # crypto_aead/aegis128l/aegis128l_aesni.c:50:16 @[ crypto_aead/aegis128l/aegis128l_common.h:72:5 @[ crypto_aead/aegis128l/aegis128l_common.h:212:9 ] ]
	vaesenc	%xmm10, %xmm6, %xmm10
.Ltmp235:
	#DEBUG_VALUE: decrypt_detached:state <- [DW_OP_LLVM_fragment 384 128] $xmm10
	.loc	5 51 16                         # crypto_aead/aegis128l/aegis128l_aesni.c:51:16 @[ crypto_aead/aegis128l/aegis128l_common.h:72:5 @[ crypto_aead/aegis128l/aegis128l_common.h:212:9 ] ]
	vaesenc	%xmm6, %xmm13, %xmm6
.Ltmp236:
	#DEBUG_VALUE: decrypt_detached:state <- [DW_OP_LLVM_fragment 256 128] $xmm6
	.loc	5 52 16                         # crypto_aead/aegis128l/aegis128l_aesni.c:52:16 @[ crypto_aead/aegis128l/aegis128l_common.h:72:5 @[ crypto_aead/aegis128l/aegis128l_common.h:212:9 ] ]
	vaesenc	%xmm13, %xmm8, %xmm13
.Ltmp237:
	#DEBUG_VALUE: decrypt_detached:state <- [DW_OP_LLVM_fragment 128 128] $xmm13
	.loc	5 53 16                         # crypto_aead/aegis128l/aegis128l_aesni.c:53:16 @[ crypto_aead/aegis128l/aegis128l_common.h:72:5 @[ crypto_aead/aegis128l/aegis128l_common.h:212:9 ] ]
	vaesenc	%xmm8, %xmm0, %xmm0
.Ltmp238:
	.loc	5 55 16                         # crypto_aead/aegis128l/aegis128l_aesni.c:55:16 @[ crypto_aead/aegis128l/aegis128l_common.h:72:5 @[ crypto_aead/aegis128l/aegis128l_common.h:212:9 ] ]
	vpxor	(%r9,%rax), %xmm0, %xmm8
.Ltmp239:
	#DEBUG_VALUE: decrypt_detached:state <- [DW_OP_LLVM_fragment 0 128] $xmm8
	.loc	5 56 16                         # crypto_aead/aegis128l/aegis128l_aesni.c:56:16 @[ crypto_aead/aegis128l/aegis128l_common.h:72:5 @[ crypto_aead/aegis128l/aegis128l_common.h:212:9 ] ]
	vpxor	16(%r9,%rax), %xmm1, %xmm5
.Ltmp240:
	#DEBUG_VALUE: decrypt_detached:state <- [DW_OP_LLVM_fragment 512 128] $xmm5
	#DEBUG_VALUE: decrypt_detached:state <- [DW_OP_LLVM_fragment 128 128] $xmm13
	#DEBUG_VALUE: decrypt_detached:state <- [DW_OP_LLVM_fragment 256 128] $xmm6
	#DEBUG_VALUE: decrypt_detached:state <- [DW_OP_LLVM_fragment 384 128] $xmm10
	#DEBUG_VALUE: decrypt_detached:state <- [DW_OP_LLVM_fragment 640 128] $xmm12
	#DEBUG_VALUE: decrypt_detached:state <- [DW_OP_LLVM_fragment 768 128] $xmm11
	#DEBUG_VALUE: decrypt_detached:state <- [DW_OP_LLVM_fragment 896 128] $xmm9
	#DEBUG_VALUE: decrypt_detached:i <- [DW_OP_plus_uconst 32, DW_OP_stack_value] $rax
	.loc	6 211 19                        # crypto_aead/aegis128l/aegis128l_common.h:211:19
	leaq	32(%rax), %rcx
	addq	$64, %rax
.Ltmp241:
	.loc	6 0 19 is_stmt 0                # crypto_aead/aegis128l/aegis128l_common.h:0:19
	vmovdqa	%xmm9, %xmm0
	.loc	6 211 19                        # crypto_aead/aegis128l/aegis128l_common.h:211:19
	cmpq	%r15, %rax
	movq	%rcx, %rax
.Ltmp242:
	.loc	6 211 5                         # crypto_aead/aegis128l/aegis128l_common.h:211:5
	jbe	.LBB1_6
.Ltmp243:
.LBB1_7:                                # %._crit_edge
	#DEBUG_VALUE: decrypt_detached:m <- $r14
	#DEBUG_VALUE: decrypt_detached:c <- $r13
	#DEBUG_VALUE: decrypt_detached:clen <- $r12
	#DEBUG_VALUE: decrypt_detached:mac <- [DW_OP_plus_uconst 168] [$rsp+0]
	#DEBUG_VALUE: decrypt_detached:maclen <- $r8
	#DEBUG_VALUE: decrypt_detached:ad <- $r9
	#DEBUG_VALUE: decrypt_detached:adlen <- [DW_OP_plus_uconst 16] [$rbp+0]
	#DEBUG_VALUE: decrypt_detached:npub <- [DW_OP_plus_uconst 24] [$rbp+0]
	#DEBUG_VALUE: decrypt_detached:k <- [DW_OP_plus_uconst 32] [$rbp+0]
	#DEBUG_VALUE: decrypt_detached:dst <- [DW_OP_plus_uconst 192, DW_OP_deref] $rsp
	#DEBUG_VALUE: decrypt_detached:state <- [DW_OP_LLVM_fragment 512 128] $xmm5
	#DEBUG_VALUE: decrypt_detached:state <- [DW_OP_LLVM_fragment 768 128] $xmm11
	#DEBUG_VALUE: decrypt_detached:state <- [DW_OP_LLVM_fragment 640 128] $xmm12
	#DEBUG_VALUE: decrypt_detached:state <- [DW_OP_LLVM_fragment 384 128] $xmm10
	#DEBUG_VALUE: decrypt_detached:state <- [DW_OP_LLVM_fragment 256 128] $xmm6
	#DEBUG_VALUE: decrypt_detached:state <- [DW_OP_LLVM_fragment 128 128] $xmm13
	#DEBUG_VALUE: decrypt_detached:state <- [DW_OP_LLVM_fragment 0 128] $xmm8
	.loc	6 0 5                           # crypto_aead/aegis128l/aegis128l_common.h:0:5
	movq	%r8, 184(%rsp)                  # 8-byte Spill
.Ltmp244:
	#DEBUG_VALUE: decrypt_detached:maclen <- [DW_OP_plus_uconst 184] [$rsp+0]
	.loc	6 214 15 is_stmt 1              # crypto_aead/aegis128l/aegis128l_common.h:214:15
	movq	%r15, %rdx
	andq	$31, %rdx
	je	.LBB1_9
.Ltmp245:
# %bb.8:
	#DEBUG_VALUE: decrypt_detached:m <- $r14
	#DEBUG_VALUE: decrypt_detached:c <- $r13
	#DEBUG_VALUE: decrypt_detached:clen <- $r12
	#DEBUG_VALUE: decrypt_detached:mac <- [DW_OP_plus_uconst 168] [$rsp+0]
	#DEBUG_VALUE: decrypt_detached:maclen <- [DW_OP_plus_uconst 184] [$rsp+0]
	#DEBUG_VALUE: decrypt_detached:ad <- $r9
	#DEBUG_VALUE: decrypt_detached:adlen <- [DW_OP_plus_uconst 16] [$rbp+0]
	#DEBUG_VALUE: decrypt_detached:npub <- [DW_OP_plus_uconst 24] [$rbp+0]
	#DEBUG_VALUE: decrypt_detached:k <- [DW_OP_plus_uconst 32] [$rbp+0]
	#DEBUG_VALUE: decrypt_detached:dst <- [DW_OP_plus_uconst 192, DW_OP_deref] $rsp
	#DEBUG_VALUE: decrypt_detached:state <- [DW_OP_LLVM_fragment 512 128] $xmm5
	#DEBUG_VALUE: decrypt_detached:state <- [DW_OP_LLVM_fragment 768 128] $xmm11
	#DEBUG_VALUE: decrypt_detached:state <- [DW_OP_LLVM_fragment 640 128] $xmm12
	#DEBUG_VALUE: decrypt_detached:state <- [DW_OP_LLVM_fragment 384 128] $xmm10
	#DEBUG_VALUE: decrypt_detached:state <- [DW_OP_LLVM_fragment 256 128] $xmm6
	#DEBUG_VALUE: decrypt_detached:state <- [DW_OP_LLVM_fragment 128 128] $xmm13
	#DEBUG_VALUE: decrypt_detached:state <- [DW_OP_LLVM_fragment 0 128] $xmm8
	#DEBUG_VALUE: memset:__dest <- [DW_OP_plus_uconst 224, DW_OP_stack_value] $rsp
	#DEBUG_VALUE: memset:__ch <- 0
	#DEBUG_VALUE: memset:__len <- 32
	.loc	8 59 10                         # /usr/include/x86_64-linux-gnu/bits/string_fortified.h:59:10 @[ crypto_aead/aegis128l/aegis128l_common.h:215:9 ]
	vpxor	%xmm0, %xmm0, %xmm0
	vmovdqa	%ymm0, 224(%rsp)
.Ltmp246:
	.loc	6 216 24                        # crypto_aead/aegis128l/aegis128l_common.h:216:24
	addq	%rcx, %r9
.Ltmp247:
	#DEBUG_VALUE: decrypt_detached:ad <- [DW_OP_LLVM_entry_value 1] $r9
	#DEBUG_VALUE: memcpy:__src <- $r9
	#DEBUG_VALUE: memcpy:__dest <- [DW_OP_plus_uconst 224, DW_OP_stack_value] $rsp
	#DEBUG_VALUE: memcpy:__len <- $rdx
	.loc	6 0 24 is_stmt 0                # crypto_aead/aegis128l/aegis128l_common.h:0:24
	leaq	224(%rsp), %rdi
.Ltmp248:
	.loc	8 29 10 is_stmt 1               # /usr/include/x86_64-linux-gnu/bits/string_fortified.h:29:10 @[ crypto_aead/aegis128l/aegis128l_common.h:216:9 ]
	movl	$32, %ecx
	movq	%r9, %rsi
	vmovdqa	%xmm11, 32(%rsp)                # 16-byte Spill
.Ltmp249:
	#DEBUG_VALUE: decrypt_detached:state <- [DW_OP_plus_uconst 32, DW_OP_deref, DW_OP_LLVM_fragment 768 128] $rsp
	.loc	8 0 10 is_stmt 0                # /usr/include/x86_64-linux-gnu/bits/string_fortified.h:0:10
	vmovdqa	%xmm12, 96(%rsp)                # 16-byte Spill
.Ltmp250:
	#DEBUG_VALUE: decrypt_detached:state <- [DW_OP_plus_uconst 96, DW_OP_deref, DW_OP_LLVM_fragment 640 128] $rsp
	vmovdqa	%xmm10, 80(%rsp)                # 16-byte Spill
.Ltmp251:
	#DEBUG_VALUE: decrypt_detached:state <- [DW_OP_plus_uconst 80, DW_OP_deref, DW_OP_LLVM_fragment 384 128] $rsp
	vmovdqa	%xmm6, 16(%rsp)                 # 16-byte Spill
.Ltmp252:
	#DEBUG_VALUE: decrypt_detached:state <- [DW_OP_plus_uconst 16, DW_OP_deref, DW_OP_LLVM_fragment 256 128] $rsp
	vmovdqa	%xmm13, 64(%rsp)                # 16-byte Spill
.Ltmp253:
	#DEBUG_VALUE: decrypt_detached:state <- [DW_OP_plus_uconst 64, DW_OP_deref, DW_OP_LLVM_fragment 128 128] $rsp
	vmovdqa	%xmm8, 128(%rsp)                # 16-byte Spill
.Ltmp254:
	#DEBUG_VALUE: decrypt_detached:state <- [DW_OP_plus_uconst 128, DW_OP_deref, DW_OP_LLVM_fragment 0 128] $rsp
	vmovdqa	%xmm5, 144(%rsp)                # 16-byte Spill
.Ltmp255:
	#DEBUG_VALUE: decrypt_detached:state <- [DW_OP_plus_uconst 144, DW_OP_deref, DW_OP_LLVM_fragment 512 128] $rsp
	vmovdqa	%xmm9, 48(%rsp)                 # 16-byte Spill
	.loc	8 29 10                         # /usr/include/x86_64-linux-gnu/bits/string_fortified.h:29:10 @[ crypto_aead/aegis128l/aegis128l_common.h:216:9 ]
	vzeroupper
	callq	__memcpy_chk@PLT
.Ltmp256:
	.loc	8 0 10                          # /usr/include/x86_64-linux-gnu/bits/string_fortified.h:0:10
	vmovdqa	64(%rsp), %xmm13                # 16-byte Reload
	vmovdqa	16(%rsp), %xmm6                 # 16-byte Reload
	vmovdqa	80(%rsp), %xmm10                # 16-byte Reload
	vmovdqa	96(%rsp), %xmm12                # 16-byte Reload
	vmovdqa	32(%rsp), %xmm11                # 16-byte Reload
.Ltmp257:
	#DEBUG_VALUE: aegis128l_absorb:src <- [DW_OP_plus_uconst 224, DW_OP_stack_value] $rsp
	#DEBUG_VALUE: aegis128l_absorb:state <- undef
	#DEBUG_VALUE: aegis128l_absorb:msg0 <- undef
	#DEBUG_VALUE: aegis128l_update:state <- undef
	#DEBUG_VALUE: aegis128l_update:tmp <- [DW_OP_plus_uconst 48, DW_OP_deref] $rsp
	#DEBUG_VALUE: aegis128l_absorb:msg1 <- undef
	#DEBUG_VALUE: aegis128l_update:d2 <- undef
	#DEBUG_VALUE: aegis128l_update:d1 <- undef
	#DEBUG_VALUE: decrypt_detached:state <- [DW_OP_LLVM_fragment 896 128] undef
	#DEBUG_VALUE: decrypt_detached:state <- [DW_OP_LLVM_fragment 768 128] undef
	#DEBUG_VALUE: decrypt_detached:state <- [DW_OP_LLVM_fragment 640 128] undef
	#DEBUG_VALUE: decrypt_detached:state <- [DW_OP_LLVM_fragment 384 128] undef
	#DEBUG_VALUE: decrypt_detached:state <- [DW_OP_LLVM_fragment 256 128] undef
	#DEBUG_VALUE: decrypt_detached:state <- [DW_OP_LLVM_fragment 128 128] undef
	vmovdqa	128(%rsp), %xmm3                # 16-byte Reload
	vmovdqa	48(%rsp), %xmm1                 # 16-byte Reload
.Ltmp258:
	.loc	5 53 16 is_stmt 1               # crypto_aead/aegis128l/aegis128l_aesni.c:53:16 @[ crypto_aead/aegis128l/aegis128l_common.h:72:5 @[ crypto_aead/aegis128l/aegis128l_common.h:217:9 ] ]
	vaesenc	%xmm3, %xmm1, %xmm0
	.loc	5 46 16                         # crypto_aead/aegis128l/aegis128l_aesni.c:46:16 @[ crypto_aead/aegis128l/aegis128l_common.h:72:5 @[ crypto_aead/aegis128l/aegis128l_common.h:217:9 ] ]
	vaesenc	%xmm1, %xmm11, %xmm9
.Ltmp259:
	#DEBUG_VALUE: decrypt_detached:state <- [DW_OP_LLVM_fragment 896 128] $xmm9
	.loc	5 47 16                         # crypto_aead/aegis128l/aegis128l_aesni.c:47:16 @[ crypto_aead/aegis128l/aegis128l_common.h:72:5 @[ crypto_aead/aegis128l/aegis128l_common.h:217:9 ] ]
	vaesenc	%xmm11, %xmm12, %xmm11
.Ltmp260:
	#DEBUG_VALUE: decrypt_detached:state <- [DW_OP_LLVM_fragment 768 128] $xmm11
	.loc	5 0 16 is_stmt 0                # crypto_aead/aegis128l/aegis128l_aesni.c:0:16
	vmovdqa	144(%rsp), %xmm2                # 16-byte Reload
	.loc	5 48 16 is_stmt 1               # crypto_aead/aegis128l/aegis128l_aesni.c:48:16 @[ crypto_aead/aegis128l/aegis128l_common.h:72:5 @[ crypto_aead/aegis128l/aegis128l_common.h:217:9 ] ]
	vaesenc	%xmm12, %xmm2, %xmm12
.Ltmp261:
	#DEBUG_VALUE: decrypt_detached:state <- [DW_OP_LLVM_fragment 640 128] $xmm12
	.loc	5 49 16                         # crypto_aead/aegis128l/aegis128l_aesni.c:49:16 @[ crypto_aead/aegis128l/aegis128l_common.h:72:5 @[ crypto_aead/aegis128l/aegis128l_common.h:217:9 ] ]
	vaesenc	%xmm2, %xmm10, %xmm2
	.loc	5 50 16                         # crypto_aead/aegis128l/aegis128l_aesni.c:50:16 @[ crypto_aead/aegis128l/aegis128l_common.h:72:5 @[ crypto_aead/aegis128l/aegis128l_common.h:217:9 ] ]
	vaesenc	%xmm10, %xmm6, %xmm10
.Ltmp262:
	#DEBUG_VALUE: decrypt_detached:state <- [DW_OP_LLVM_fragment 384 128] $xmm10
	.loc	5 51 16                         # crypto_aead/aegis128l/aegis128l_aesni.c:51:16 @[ crypto_aead/aegis128l/aegis128l_common.h:72:5 @[ crypto_aead/aegis128l/aegis128l_common.h:217:9 ] ]
	vaesenc	%xmm6, %xmm13, %xmm6
.Ltmp263:
	#DEBUG_VALUE: decrypt_detached:state <- [DW_OP_LLVM_fragment 256 128] $xmm6
	.loc	5 52 16                         # crypto_aead/aegis128l/aegis128l_aesni.c:52:16 @[ crypto_aead/aegis128l/aegis128l_common.h:72:5 @[ crypto_aead/aegis128l/aegis128l_common.h:217:9 ] ]
	vaesenc	%xmm13, %xmm3, %xmm13
.Ltmp264:
	#DEBUG_VALUE: decrypt_detached:state <- [DW_OP_LLVM_fragment 128 128] $xmm13
	.loc	5 55 16                         # crypto_aead/aegis128l/aegis128l_aesni.c:55:16 @[ crypto_aead/aegis128l/aegis128l_common.h:72:5 @[ crypto_aead/aegis128l/aegis128l_common.h:217:9 ] ]
	vpxor	224(%rsp), %xmm0, %xmm8
.Ltmp265:
	#DEBUG_VALUE: decrypt_detached:state <- [DW_OP_LLVM_fragment 0 128] $xmm8
	.loc	5 56 16                         # crypto_aead/aegis128l/aegis128l_aesni.c:56:16 @[ crypto_aead/aegis128l/aegis128l_common.h:72:5 @[ crypto_aead/aegis128l/aegis128l_common.h:217:9 ] ]
	vpxor	240(%rsp), %xmm2, %xmm5
.Ltmp266:
	#DEBUG_VALUE: decrypt_detached:state <- [DW_OP_LLVM_fragment 512 128] $xmm5
.LBB1_9:
	#DEBUG_VALUE: decrypt_detached:m <- $r14
	#DEBUG_VALUE: decrypt_detached:c <- $r13
	#DEBUG_VALUE: decrypt_detached:clen <- $r12
	#DEBUG_VALUE: decrypt_detached:mac <- [DW_OP_plus_uconst 168] [$rsp+0]
	#DEBUG_VALUE: decrypt_detached:maclen <- [DW_OP_plus_uconst 184] [$rsp+0]
	#DEBUG_VALUE: decrypt_detached:ad <- [DW_OP_LLVM_entry_value 1] $r9
	#DEBUG_VALUE: decrypt_detached:adlen <- [DW_OP_plus_uconst 16] [$rbp+0]
	#DEBUG_VALUE: decrypt_detached:npub <- [DW_OP_plus_uconst 24] [$rbp+0]
	#DEBUG_VALUE: decrypt_detached:k <- [DW_OP_plus_uconst 32] [$rbp+0]
	#DEBUG_VALUE: decrypt_detached:dst <- [DW_OP_plus_uconst 192, DW_OP_deref] $rsp
	#DEBUG_VALUE: decrypt_detached:state <- [DW_OP_LLVM_fragment 512 128] $xmm5
	#DEBUG_VALUE: decrypt_detached:state <- [DW_OP_LLVM_fragment 768 128] $xmm11
	#DEBUG_VALUE: decrypt_detached:state <- [DW_OP_LLVM_fragment 640 128] $xmm12
	#DEBUG_VALUE: decrypt_detached:state <- [DW_OP_LLVM_fragment 384 128] $xmm10
	#DEBUG_VALUE: decrypt_detached:state <- [DW_OP_LLVM_fragment 256 128] $xmm6
	#DEBUG_VALUE: decrypt_detached:state <- [DW_OP_LLVM_fragment 128 128] $xmm13
	#DEBUG_VALUE: decrypt_detached:state <- [DW_OP_LLVM_fragment 0 128] $xmm8
	#DEBUG_VALUE: decrypt_detached:state <- [DW_OP_LLVM_fragment 0 128] $xmm8
	#DEBUG_VALUE: decrypt_detached:state <- [DW_OP_LLVM_fragment 128 128] $xmm13
	#DEBUG_VALUE: decrypt_detached:state <- [DW_OP_LLVM_fragment 256 128] $xmm6
	#DEBUG_VALUE: decrypt_detached:state <- [DW_OP_LLVM_fragment 384 128] $xmm10
	#DEBUG_VALUE: decrypt_detached:state <- [DW_OP_LLVM_fragment 512 128] $xmm5
	#DEBUG_VALUE: decrypt_detached:state <- [DW_OP_LLVM_fragment 640 128] $xmm12
	#DEBUG_VALUE: decrypt_detached:state <- [DW_OP_LLVM_fragment 768 128] $xmm11
	#DEBUG_VALUE: decrypt_detached:state <- [DW_OP_LLVM_fragment 896 128] $xmm9
	.loc	6 219 11                        # crypto_aead/aegis128l/aegis128l_common.h:219:11
	testq	%r14, %r14
	je	.LBB1_10
.Ltmp267:
# %bb.12:                               # %.preheader
	#DEBUG_VALUE: decrypt_detached:m <- $r14
	#DEBUG_VALUE: decrypt_detached:c <- $r13
	#DEBUG_VALUE: decrypt_detached:clen <- $r12
	#DEBUG_VALUE: decrypt_detached:mac <- [DW_OP_plus_uconst 168] [$rsp+0]
	#DEBUG_VALUE: decrypt_detached:maclen <- [DW_OP_plus_uconst 184] [$rsp+0]
	#DEBUG_VALUE: decrypt_detached:ad <- [DW_OP_LLVM_entry_value 1] $r9
	#DEBUG_VALUE: decrypt_detached:adlen <- [DW_OP_plus_uconst 16] [$rbp+0]
	#DEBUG_VALUE: decrypt_detached:npub <- [DW_OP_plus_uconst 24] [$rbp+0]
	#DEBUG_VALUE: decrypt_detached:k <- [DW_OP_plus_uconst 32] [$rbp+0]
	#DEBUG_VALUE: decrypt_detached:dst <- [DW_OP_plus_uconst 192, DW_OP_deref] $rsp
	#DEBUG_VALUE: decrypt_detached:state <- [DW_OP_LLVM_fragment 512 128] $xmm5
	#DEBUG_VALUE: decrypt_detached:state <- [DW_OP_LLVM_fragment 896 128] $xmm9
	#DEBUG_VALUE: decrypt_detached:state <- [DW_OP_LLVM_fragment 768 128] $xmm11
	#DEBUG_VALUE: decrypt_detached:state <- [DW_OP_LLVM_fragment 640 128] $xmm12
	#DEBUG_VALUE: decrypt_detached:state <- [DW_OP_LLVM_fragment 384 128] $xmm10
	#DEBUG_VALUE: decrypt_detached:state <- [DW_OP_LLVM_fragment 256 128] $xmm6
	#DEBUG_VALUE: decrypt_detached:state <- [DW_OP_LLVM_fragment 128 128] $xmm13
	#DEBUG_VALUE: decrypt_detached:state <- [DW_OP_LLVM_fragment 0 128] $xmm8
	#DEBUG_VALUE: decrypt_detached:state <- [DW_OP_LLVM_fragment 0 128] $xmm8
	#DEBUG_VALUE: decrypt_detached:state <- [DW_OP_LLVM_fragment 128 128] $xmm13
	#DEBUG_VALUE: decrypt_detached:state <- [DW_OP_LLVM_fragment 256 128] $xmm6
	#DEBUG_VALUE: decrypt_detached:state <- [DW_OP_LLVM_fragment 384 128] $xmm10
	#DEBUG_VALUE: decrypt_detached:state <- [DW_OP_LLVM_fragment 512 128] $xmm5
	#DEBUG_VALUE: decrypt_detached:state <- [DW_OP_LLVM_fragment 640 128] $xmm12
	#DEBUG_VALUE: decrypt_detached:state <- [DW_OP_LLVM_fragment 768 128] $xmm11
	#DEBUG_VALUE: decrypt_detached:state <- [DW_OP_LLVM_fragment 896 128] $xmm9
	#DEBUG_VALUE: decrypt_detached:i <- 0
	.loc	6 220 28                        # crypto_aead/aegis128l/aegis128l_common.h:220:28
	cmpq	$32, %r12
.Ltmp268:
	.loc	6 220 9 is_stmt 0               # crypto_aead/aegis128l/aegis128l_common.h:220:9
	jae	.LBB1_14
.Ltmp269:
# %bb.13:
	#DEBUG_VALUE: decrypt_detached:m <- $r14
	#DEBUG_VALUE: decrypt_detached:c <- $r13
	#DEBUG_VALUE: decrypt_detached:clen <- $r12
	#DEBUG_VALUE: decrypt_detached:mac <- [DW_OP_plus_uconst 168] [$rsp+0]
	#DEBUG_VALUE: decrypt_detached:maclen <- [DW_OP_plus_uconst 184] [$rsp+0]
	#DEBUG_VALUE: decrypt_detached:ad <- [DW_OP_LLVM_entry_value 1] $r9
	#DEBUG_VALUE: decrypt_detached:adlen <- [DW_OP_plus_uconst 16] [$rbp+0]
	#DEBUG_VALUE: decrypt_detached:npub <- [DW_OP_plus_uconst 24] [$rbp+0]
	#DEBUG_VALUE: decrypt_detached:k <- [DW_OP_plus_uconst 32] [$rbp+0]
	#DEBUG_VALUE: decrypt_detached:dst <- [DW_OP_plus_uconst 192, DW_OP_deref] $rsp
	#DEBUG_VALUE: decrypt_detached:state <- [DW_OP_LLVM_fragment 512 128] $xmm5
	#DEBUG_VALUE: decrypt_detached:state <- [DW_OP_LLVM_fragment 896 128] $xmm9
	#DEBUG_VALUE: decrypt_detached:state <- [DW_OP_LLVM_fragment 768 128] $xmm11
	#DEBUG_VALUE: decrypt_detached:state <- [DW_OP_LLVM_fragment 640 128] $xmm12
	#DEBUG_VALUE: decrypt_detached:state <- [DW_OP_LLVM_fragment 384 128] $xmm10
	#DEBUG_VALUE: decrypt_detached:state <- [DW_OP_LLVM_fragment 256 128] $xmm6
	#DEBUG_VALUE: decrypt_detached:state <- [DW_OP_LLVM_fragment 128 128] $xmm13
	#DEBUG_VALUE: decrypt_detached:state <- [DW_OP_LLVM_fragment 0 128] $xmm8
	#DEBUG_VALUE: decrypt_detached:i <- 0
	.loc	6 0 9                           # crypto_aead/aegis128l/aegis128l_common.h:0:9
	xorl	%ecx, %ecx
	.loc	6 220 9                         # crypto_aead/aegis128l/aegis128l_common.h:220:9
	jmp	.LBB1_16
.Ltmp270:
.LBB1_10:                               # %.preheader154
	#DEBUG_VALUE: decrypt_detached:m <- $r14
	#DEBUG_VALUE: decrypt_detached:c <- $r13
	#DEBUG_VALUE: decrypt_detached:clen <- $r12
	#DEBUG_VALUE: decrypt_detached:mac <- [DW_OP_plus_uconst 168] [$rsp+0]
	#DEBUG_VALUE: decrypt_detached:maclen <- [DW_OP_plus_uconst 184] [$rsp+0]
	#DEBUG_VALUE: decrypt_detached:ad <- [DW_OP_LLVM_entry_value 1] $r9
	#DEBUG_VALUE: decrypt_detached:adlen <- [DW_OP_plus_uconst 16] [$rbp+0]
	#DEBUG_VALUE: decrypt_detached:npub <- [DW_OP_plus_uconst 24] [$rbp+0]
	#DEBUG_VALUE: decrypt_detached:k <- [DW_OP_plus_uconst 32] [$rbp+0]
	#DEBUG_VALUE: decrypt_detached:dst <- [DW_OP_plus_uconst 192, DW_OP_deref] $rsp
	#DEBUG_VALUE: decrypt_detached:state <- [DW_OP_LLVM_fragment 512 128] $xmm5
	#DEBUG_VALUE: decrypt_detached:state <- [DW_OP_LLVM_fragment 896 128] $xmm9
	#DEBUG_VALUE: decrypt_detached:state <- [DW_OP_LLVM_fragment 768 128] $xmm11
	#DEBUG_VALUE: decrypt_detached:state <- [DW_OP_LLVM_fragment 640 128] $xmm12
	#DEBUG_VALUE: decrypt_detached:state <- [DW_OP_LLVM_fragment 384 128] $xmm10
	#DEBUG_VALUE: decrypt_detached:state <- [DW_OP_LLVM_fragment 256 128] $xmm6
	#DEBUG_VALUE: decrypt_detached:state <- [DW_OP_LLVM_fragment 128 128] $xmm13
	#DEBUG_VALUE: decrypt_detached:state <- [DW_OP_LLVM_fragment 0 128] $xmm8
	#DEBUG_VALUE: decrypt_detached:state <- [DW_OP_LLVM_fragment 0 128] $xmm8
	#DEBUG_VALUE: decrypt_detached:state <- [DW_OP_LLVM_fragment 128 128] $xmm13
	#DEBUG_VALUE: decrypt_detached:state <- [DW_OP_LLVM_fragment 256 128] $xmm6
	#DEBUG_VALUE: decrypt_detached:state <- [DW_OP_LLVM_fragment 384 128] $xmm10
	#DEBUG_VALUE: decrypt_detached:state <- [DW_OP_LLVM_fragment 512 128] $xmm5
	#DEBUG_VALUE: decrypt_detached:state <- [DW_OP_LLVM_fragment 640 128] $xmm12
	#DEBUG_VALUE: decrypt_detached:state <- [DW_OP_LLVM_fragment 768 128] $xmm11
	#DEBUG_VALUE: decrypt_detached:state <- [DW_OP_LLVM_fragment 896 128] $xmm9
	#DEBUG_VALUE: decrypt_detached:i <- 0
	.loc	6 224 28 is_stmt 1              # crypto_aead/aegis128l/aegis128l_common.h:224:28
	cmpq	$32, %r12
.Ltmp271:
	.loc	6 224 9 is_stmt 0               # crypto_aead/aegis128l/aegis128l_common.h:224:9
	jae	.LBB1_18
.Ltmp272:
# %bb.11:
	#DEBUG_VALUE: decrypt_detached:m <- $r14
	#DEBUG_VALUE: decrypt_detached:c <- $r13
	#DEBUG_VALUE: decrypt_detached:clen <- $r12
	#DEBUG_VALUE: decrypt_detached:mac <- [DW_OP_plus_uconst 168] [$rsp+0]
	#DEBUG_VALUE: decrypt_detached:maclen <- [DW_OP_plus_uconst 184] [$rsp+0]
	#DEBUG_VALUE: decrypt_detached:ad <- [DW_OP_LLVM_entry_value 1] $r9
	#DEBUG_VALUE: decrypt_detached:adlen <- [DW_OP_plus_uconst 16] [$rbp+0]
	#DEBUG_VALUE: decrypt_detached:npub <- [DW_OP_plus_uconst 24] [$rbp+0]
	#DEBUG_VALUE: decrypt_detached:k <- [DW_OP_plus_uconst 32] [$rbp+0]
	#DEBUG_VALUE: decrypt_detached:dst <- [DW_OP_plus_uconst 192, DW_OP_deref] $rsp
	#DEBUG_VALUE: decrypt_detached:state <- [DW_OP_LLVM_fragment 512 128] $xmm5
	#DEBUG_VALUE: decrypt_detached:state <- [DW_OP_LLVM_fragment 896 128] $xmm9
	#DEBUG_VALUE: decrypt_detached:state <- [DW_OP_LLVM_fragment 768 128] $xmm11
	#DEBUG_VALUE: decrypt_detached:state <- [DW_OP_LLVM_fragment 640 128] $xmm12
	#DEBUG_VALUE: decrypt_detached:state <- [DW_OP_LLVM_fragment 384 128] $xmm10
	#DEBUG_VALUE: decrypt_detached:state <- [DW_OP_LLVM_fragment 256 128] $xmm6
	#DEBUG_VALUE: decrypt_detached:state <- [DW_OP_LLVM_fragment 128 128] $xmm13
	#DEBUG_VALUE: decrypt_detached:state <- [DW_OP_LLVM_fragment 0 128] $xmm8
	#DEBUG_VALUE: decrypt_detached:i <- 0
	.loc	6 0 9                           # crypto_aead/aegis128l/aegis128l_common.h:0:9
	vmovdqa	192(%rsp), %xmm0
	xorl	%eax, %eax
	.loc	6 224 9                         # crypto_aead/aegis128l/aegis128l_common.h:224:9
	jmp	.LBB1_21
.Ltmp273:
.LBB1_14:                               # %.lr.ph227.preheader
	#DEBUG_VALUE: decrypt_detached:m <- $r14
	#DEBUG_VALUE: decrypt_detached:c <- $r13
	#DEBUG_VALUE: decrypt_detached:clen <- $r12
	#DEBUG_VALUE: decrypt_detached:mac <- [DW_OP_plus_uconst 168] [$rsp+0]
	#DEBUG_VALUE: decrypt_detached:maclen <- [DW_OP_plus_uconst 184] [$rsp+0]
	#DEBUG_VALUE: decrypt_detached:ad <- [DW_OP_LLVM_entry_value 1] $r9
	#DEBUG_VALUE: decrypt_detached:adlen <- [DW_OP_plus_uconst 16] [$rbp+0]
	#DEBUG_VALUE: decrypt_detached:npub <- [DW_OP_plus_uconst 24] [$rbp+0]
	#DEBUG_VALUE: decrypt_detached:k <- [DW_OP_plus_uconst 32] [$rbp+0]
	#DEBUG_VALUE: decrypt_detached:dst <- [DW_OP_plus_uconst 192, DW_OP_deref] $rsp
	#DEBUG_VALUE: decrypt_detached:state <- [DW_OP_LLVM_fragment 512 128] $xmm5
	#DEBUG_VALUE: decrypt_detached:state <- [DW_OP_LLVM_fragment 896 128] $xmm9
	#DEBUG_VALUE: decrypt_detached:state <- [DW_OP_LLVM_fragment 768 128] $xmm11
	#DEBUG_VALUE: decrypt_detached:state <- [DW_OP_LLVM_fragment 640 128] $xmm12
	#DEBUG_VALUE: decrypt_detached:state <- [DW_OP_LLVM_fragment 384 128] $xmm10
	#DEBUG_VALUE: decrypt_detached:state <- [DW_OP_LLVM_fragment 256 128] $xmm6
	#DEBUG_VALUE: decrypt_detached:state <- [DW_OP_LLVM_fragment 128 128] $xmm13
	#DEBUG_VALUE: decrypt_detached:state <- [DW_OP_LLVM_fragment 0 128] $xmm8
	#DEBUG_VALUE: decrypt_detached:i <- 0
	.loc	6 0 9                           # crypto_aead/aegis128l/aegis128l_common.h:0:9
	xorl	%eax, %eax
	vmovdqa	%xmm9, %xmm0
.Ltmp274:
	.p2align	4
.LBB1_15:                               # %.lr.ph227
                                        # =>This Inner Loop Header: Depth=1
	#DEBUG_VALUE: decrypt_detached:m <- $r14
	#DEBUG_VALUE: decrypt_detached:c <- $r13
	#DEBUG_VALUE: decrypt_detached:clen <- $r12
	#DEBUG_VALUE: decrypt_detached:mac <- [DW_OP_plus_uconst 168] [$rsp+0]
	#DEBUG_VALUE: decrypt_detached:maclen <- [DW_OP_plus_uconst 184] [$rsp+0]
	#DEBUG_VALUE: decrypt_detached:ad <- [DW_OP_LLVM_entry_value 1] $r9
	#DEBUG_VALUE: decrypt_detached:adlen <- [DW_OP_plus_uconst 16] [$rbp+0]
	#DEBUG_VALUE: decrypt_detached:npub <- [DW_OP_plus_uconst 24] [$rbp+0]
	#DEBUG_VALUE: decrypt_detached:k <- [DW_OP_plus_uconst 32] [$rbp+0]
	#DEBUG_VALUE: decrypt_detached:dst <- [DW_OP_plus_uconst 192, DW_OP_deref] $rsp
	#DEBUG_VALUE: decrypt_detached:state <- [DW_OP_LLVM_fragment 512 128] $xmm5
	#DEBUG_VALUE: decrypt_detached:state <- [DW_OP_LLVM_fragment 896 128] $xmm9
	#DEBUG_VALUE: decrypt_detached:state <- [DW_OP_LLVM_fragment 768 128] $xmm11
	#DEBUG_VALUE: decrypt_detached:state <- [DW_OP_LLVM_fragment 640 128] $xmm12
	#DEBUG_VALUE: decrypt_detached:state <- [DW_OP_LLVM_fragment 384 128] $xmm10
	#DEBUG_VALUE: decrypt_detached:state <- [DW_OP_LLVM_fragment 256 128] $xmm6
	#DEBUG_VALUE: decrypt_detached:state <- [DW_OP_LLVM_fragment 128 128] $xmm13
	#DEBUG_VALUE: decrypt_detached:state <- [DW_OP_LLVM_fragment 0 128] $xmm8
	#DEBUG_VALUE: decrypt_detached:i <- $rax
	#DEBUG_VALUE: decrypt_detached:state <- [DW_OP_LLVM_fragment 0 128] $xmm8
	#DEBUG_VALUE: decrypt_detached:state <- [DW_OP_LLVM_fragment 128 128] $xmm13
	#DEBUG_VALUE: decrypt_detached:state <- [DW_OP_LLVM_fragment 256 128] $xmm6
	#DEBUG_VALUE: decrypt_detached:state <- [DW_OP_LLVM_fragment 384 128] $xmm10
	#DEBUG_VALUE: decrypt_detached:state <- [DW_OP_LLVM_fragment 512 128] $xmm5
	#DEBUG_VALUE: decrypt_detached:state <- [DW_OP_LLVM_fragment 640 128] $xmm12
	#DEBUG_VALUE: decrypt_detached:state <- [DW_OP_LLVM_fragment 768 128] $xmm11
	#DEBUG_VALUE: decrypt_detached:state <- [DW_OP_LLVM_fragment 896 128] $xmm0
	#DEBUG_VALUE: aegis128l_dec:dst <- [DW_OP_LLVM_arg 0, DW_OP_consts 32, DW_OP_div, DW_OP_consts 32, DW_OP_mul, DW_OP_LLVM_arg 1, DW_OP_plus, DW_OP_stack_value] $rax, $r14
	#DEBUG_VALUE: aegis128l_dec:src <- [DW_OP_LLVM_arg 0, DW_OP_consts 32, DW_OP_div, DW_OP_consts 32, DW_OP_mul, DW_OP_LLVM_arg 1, DW_OP_plus, DW_OP_stack_value] $rax, $r13
	#DEBUG_VALUE: aegis128l_dec:state <- undef
	#DEBUG_VALUE: aegis128l_dec:msg0 <- undef
	#DEBUG_VALUE: aegis128l_dec:msg1 <- undef
	.loc	6 119 35 is_stmt 1              # crypto_aead/aegis128l/aegis128l_common.h:119:35 @[ crypto_aead/aegis128l/aegis128l_common.h:221:13 ]
	vpand	%xmm6, %xmm10, %xmm1
	.loc	6 119 12 is_stmt 0              # crypto_aead/aegis128l/aegis128l_common.h:119:12 @[ crypto_aead/aegis128l/aegis128l_common.h:221:13 ]
	vpxor	(%r13,%rax), %xmm1, %xmm1
	vpxor	%xmm13, %xmm11, %xmm2
	#DEBUG_VALUE: aegis128l_dec:msg0 <- undef
	.loc	6 120 35 is_stmt 1              # crypto_aead/aegis128l/aegis128l_common.h:120:35 @[ crypto_aead/aegis128l/aegis128l_common.h:221:13 ]
	vpand	%xmm0, %xmm11, %xmm3
	.loc	6 120 12 is_stmt 0              # crypto_aead/aegis128l/aegis128l_common.h:120:12 @[ crypto_aead/aegis128l/aegis128l_common.h:221:13 ]
	vpxor	16(%r13,%rax), %xmm3, %xmm3
	.loc	6 119 12 is_stmt 1              # crypto_aead/aegis128l/aegis128l_common.h:119:12 @[ crypto_aead/aegis128l/aegis128l_common.h:221:13 ]
	vpxor	%xmm2, %xmm1, %xmm1
.Ltmp275:
	#DEBUG_VALUE: aegis128l_dec:msg0 <- $xmm1
	.loc	6 120 12                        # crypto_aead/aegis128l/aegis128l_common.h:120:12 @[ crypto_aead/aegis128l/aegis128l_common.h:221:13 ]
	vpxor	%xmm6, %xmm12, %xmm2
	vpxor	%xmm2, %xmm3, %xmm2
.Ltmp276:
	#DEBUG_VALUE: aegis128l_dec:msg1 <- $xmm2
	.loc	6 121 5                         # crypto_aead/aegis128l/aegis128l_common.h:121:5 @[ crypto_aead/aegis128l/aegis128l_common.h:221:13 ]
	vmovdqu	%xmm1, (%r14,%rax)
.Ltmp277:
	#DEBUG_VALUE: aegis128l_update:d1 <- $xmm1
	#DEBUG_VALUE: aegis128l_update:d2 <- $xmm2
	#DEBUG_VALUE: aegis128l_update:tmp <- $xmm0
	.loc	5 46 16                         # crypto_aead/aegis128l/aegis128l_aesni.c:46:16 @[ crypto_aead/aegis128l/aegis128l_common.h:124:5 @[ crypto_aead/aegis128l/aegis128l_common.h:221:13 ] ]
	vaesenc	%xmm0, %xmm11, %xmm9
.Ltmp278:
	#DEBUG_VALUE: decrypt_detached:state <- [DW_OP_LLVM_fragment 896 128] $xmm9
	.loc	5 47 16                         # crypto_aead/aegis128l/aegis128l_aesni.c:47:16 @[ crypto_aead/aegis128l/aegis128l_common.h:124:5 @[ crypto_aead/aegis128l/aegis128l_common.h:221:13 ] ]
	vaesenc	%xmm11, %xmm12, %xmm11
.Ltmp279:
	#DEBUG_VALUE: decrypt_detached:state <- [DW_OP_LLVM_fragment 768 128] $xmm11
	.loc	5 48 16                         # crypto_aead/aegis128l/aegis128l_aesni.c:48:16 @[ crypto_aead/aegis128l/aegis128l_common.h:124:5 @[ crypto_aead/aegis128l/aegis128l_common.h:221:13 ] ]
	vaesenc	%xmm12, %xmm5, %xmm12
.Ltmp280:
	#DEBUG_VALUE: decrypt_detached:state <- [DW_OP_LLVM_fragment 640 128] $xmm12
	.loc	5 49 16                         # crypto_aead/aegis128l/aegis128l_aesni.c:49:16 @[ crypto_aead/aegis128l/aegis128l_common.h:124:5 @[ crypto_aead/aegis128l/aegis128l_common.h:221:13 ] ]
	vaesenc	%xmm5, %xmm10, %xmm3
	.loc	5 50 16                         # crypto_aead/aegis128l/aegis128l_aesni.c:50:16 @[ crypto_aead/aegis128l/aegis128l_common.h:124:5 @[ crypto_aead/aegis128l/aegis128l_common.h:221:13 ] ]
	vaesenc	%xmm10, %xmm6, %xmm10
.Ltmp281:
	#DEBUG_VALUE: decrypt_detached:state <- [DW_OP_LLVM_fragment 384 128] $xmm10
	.loc	5 51 16                         # crypto_aead/aegis128l/aegis128l_aesni.c:51:16 @[ crypto_aead/aegis128l/aegis128l_common.h:124:5 @[ crypto_aead/aegis128l/aegis128l_common.h:221:13 ] ]
	vaesenc	%xmm6, %xmm13, %xmm6
.Ltmp282:
	#DEBUG_VALUE: decrypt_detached:state <- [DW_OP_LLVM_fragment 256 128] $xmm6
	.loc	5 52 16                         # crypto_aead/aegis128l/aegis128l_aesni.c:52:16 @[ crypto_aead/aegis128l/aegis128l_common.h:124:5 @[ crypto_aead/aegis128l/aegis128l_common.h:221:13 ] ]
	vaesenc	%xmm13, %xmm8, %xmm13
.Ltmp283:
	#DEBUG_VALUE: decrypt_detached:state <- [DW_OP_LLVM_fragment 128 128] $xmm13
	.loc	5 53 16                         # crypto_aead/aegis128l/aegis128l_aesni.c:53:16 @[ crypto_aead/aegis128l/aegis128l_common.h:124:5 @[ crypto_aead/aegis128l/aegis128l_common.h:221:13 ] ]
	vaesenc	%xmm8, %xmm0, %xmm0
.Ltmp284:
	.loc	6 122 5                         # crypto_aead/aegis128l/aegis128l_common.h:122:5 @[ crypto_aead/aegis128l/aegis128l_common.h:221:13 ]
	vmovdqu	%xmm2, 16(%r14,%rax)
.Ltmp285:
	#DEBUG_VALUE: aegis128l_update:state <- undef
	.loc	5 55 16                         # crypto_aead/aegis128l/aegis128l_aesni.c:55:16 @[ crypto_aead/aegis128l/aegis128l_common.h:124:5 @[ crypto_aead/aegis128l/aegis128l_common.h:221:13 ] ]
	vpxor	%xmm1, %xmm0, %xmm8
.Ltmp286:
	#DEBUG_VALUE: decrypt_detached:state <- [DW_OP_LLVM_fragment 0 128] $xmm8
	.loc	5 56 16                         # crypto_aead/aegis128l/aegis128l_aesni.c:56:16 @[ crypto_aead/aegis128l/aegis128l_common.h:124:5 @[ crypto_aead/aegis128l/aegis128l_common.h:221:13 ] ]
	vpxor	%xmm2, %xmm3, %xmm5
.Ltmp287:
	#DEBUG_VALUE: decrypt_detached:state <- [DW_OP_LLVM_fragment 512 128] $xmm5
	#DEBUG_VALUE: decrypt_detached:state <- [DW_OP_LLVM_fragment 128 128] $xmm13
	#DEBUG_VALUE: decrypt_detached:state <- [DW_OP_LLVM_fragment 256 128] $xmm6
	#DEBUG_VALUE: decrypt_detached:state <- [DW_OP_LLVM_fragment 384 128] $xmm10
	#DEBUG_VALUE: decrypt_detached:state <- [DW_OP_LLVM_fragment 640 128] $xmm12
	#DEBUG_VALUE: decrypt_detached:state <- [DW_OP_LLVM_fragment 768 128] $xmm11
	#DEBUG_VALUE: decrypt_detached:state <- [DW_OP_LLVM_fragment 896 128] $xmm9
	#DEBUG_VALUE: decrypt_detached:i <- [DW_OP_plus_uconst 32, DW_OP_stack_value] $rax
	.loc	6 220 28                        # crypto_aead/aegis128l/aegis128l_common.h:220:28
	leaq	32(%rax), %rcx
	addq	$64, %rax
.Ltmp288:
	.loc	6 0 28 is_stmt 0                # crypto_aead/aegis128l/aegis128l_common.h:0:28
	vmovdqa	%xmm9, %xmm0
	.loc	6 220 28                        # crypto_aead/aegis128l/aegis128l_common.h:220:28
	cmpq	%r12, %rax
	movq	%rcx, %rax
.Ltmp289:
	.loc	6 220 9                         # crypto_aead/aegis128l/aegis128l_common.h:220:9
	jbe	.LBB1_15
.Ltmp290:
.LBB1_16:                               # %.loopexit
	#DEBUG_VALUE: decrypt_detached:m <- $r14
	#DEBUG_VALUE: decrypt_detached:c <- $r13
	#DEBUG_VALUE: decrypt_detached:clen <- $r12
	#DEBUG_VALUE: decrypt_detached:mac <- [DW_OP_plus_uconst 168] [$rsp+0]
	#DEBUG_VALUE: decrypt_detached:maclen <- [DW_OP_plus_uconst 184] [$rsp+0]
	#DEBUG_VALUE: decrypt_detached:ad <- [DW_OP_LLVM_entry_value 1] $r9
	#DEBUG_VALUE: decrypt_detached:adlen <- [DW_OP_plus_uconst 16] [$rbp+0]
	#DEBUG_VALUE: decrypt_detached:npub <- [DW_OP_plus_uconst 24] [$rbp+0]
	#DEBUG_VALUE: decrypt_detached:k <- [DW_OP_plus_uconst 32] [$rbp+0]
	#DEBUG_VALUE: decrypt_detached:dst <- [DW_OP_plus_uconst 192, DW_OP_deref] $rsp
	#DEBUG_VALUE: decrypt_detached:state <- [DW_OP_LLVM_fragment 512 128] $xmm5
	#DEBUG_VALUE: decrypt_detached:state <- [DW_OP_LLVM_fragment 896 128] $xmm9
	#DEBUG_VALUE: decrypt_detached:state <- [DW_OP_LLVM_fragment 768 128] $xmm11
	#DEBUG_VALUE: decrypt_detached:state <- [DW_OP_LLVM_fragment 640 128] $xmm12
	#DEBUG_VALUE: decrypt_detached:state <- [DW_OP_LLVM_fragment 384 128] $xmm10
	#DEBUG_VALUE: decrypt_detached:state <- [DW_OP_LLVM_fragment 256 128] $xmm6
	#DEBUG_VALUE: decrypt_detached:state <- [DW_OP_LLVM_fragment 128 128] $xmm13
	#DEBUG_VALUE: decrypt_detached:state <- [DW_OP_LLVM_fragment 0 128] $xmm8
	#DEBUG_VALUE: decrypt_detached:state <- [DW_OP_LLVM_fragment 0 128] $xmm8
	#DEBUG_VALUE: decrypt_detached:state <- [DW_OP_LLVM_fragment 128 128] $xmm13
	#DEBUG_VALUE: decrypt_detached:state <- [DW_OP_LLVM_fragment 256 128] $xmm6
	#DEBUG_VALUE: decrypt_detached:state <- [DW_OP_LLVM_fragment 384 128] $xmm10
	#DEBUG_VALUE: decrypt_detached:state <- [DW_OP_LLVM_fragment 512 128] $xmm5
	#DEBUG_VALUE: decrypt_detached:state <- [DW_OP_LLVM_fragment 640 128] $xmm12
	#DEBUG_VALUE: decrypt_detached:state <- [DW_OP_LLVM_fragment 768 128] $xmm11
	#DEBUG_VALUE: decrypt_detached:state <- [DW_OP_LLVM_fragment 896 128] $xmm9
	#DEBUG_VALUE: decrypt_detached:i <- $rcx
	.loc	6 228 14 is_stmt 1              # crypto_aead/aegis128l/aegis128l_common.h:228:14
	movq	%r12, %rbx
	andq	$31, %rbx
	je	.LBB1_24
.Ltmp291:
# %bb.17:
	#DEBUG_VALUE: decrypt_detached:m <- $r14
	#DEBUG_VALUE: decrypt_detached:c <- $r13
	#DEBUG_VALUE: decrypt_detached:clen <- $r12
	#DEBUG_VALUE: decrypt_detached:mac <- [DW_OP_plus_uconst 168] [$rsp+0]
	#DEBUG_VALUE: decrypt_detached:maclen <- [DW_OP_plus_uconst 184] [$rsp+0]
	#DEBUG_VALUE: decrypt_detached:ad <- [DW_OP_LLVM_entry_value 1] $r9
	#DEBUG_VALUE: decrypt_detached:adlen <- [DW_OP_plus_uconst 16] [$rbp+0]
	#DEBUG_VALUE: decrypt_detached:npub <- [DW_OP_plus_uconst 24] [$rbp+0]
	#DEBUG_VALUE: decrypt_detached:k <- [DW_OP_plus_uconst 32] [$rbp+0]
	#DEBUG_VALUE: decrypt_detached:dst <- [DW_OP_plus_uconst 192, DW_OP_deref] $rsp
	#DEBUG_VALUE: decrypt_detached:state <- [DW_OP_LLVM_fragment 512 128] $xmm5
	#DEBUG_VALUE: decrypt_detached:state <- [DW_OP_LLVM_fragment 896 128] $xmm9
	#DEBUG_VALUE: decrypt_detached:state <- [DW_OP_LLVM_fragment 768 128] $xmm11
	#DEBUG_VALUE: decrypt_detached:state <- [DW_OP_LLVM_fragment 640 128] $xmm12
	#DEBUG_VALUE: decrypt_detached:state <- [DW_OP_LLVM_fragment 384 128] $xmm10
	#DEBUG_VALUE: decrypt_detached:state <- [DW_OP_LLVM_fragment 256 128] $xmm6
	#DEBUG_VALUE: decrypt_detached:state <- [DW_OP_LLVM_fragment 128 128] $xmm13
	#DEBUG_VALUE: decrypt_detached:state <- [DW_OP_LLVM_fragment 0 128] $xmm8
	#DEBUG_VALUE: decrypt_detached:i <- $rcx
	.loc	6 230 33                        # crypto_aead/aegis128l/aegis128l_common.h:230:33
	leaq	(%r14,%rcx), %rax
	movq	%rax, 176(%rsp)                 # 8-byte Spill
	.loc	6 230 40 is_stmt 0              # crypto_aead/aegis128l/aegis128l_common.h:230:40
	addq	%rcx, %r13
.Ltmp292:
	#DEBUG_VALUE: decrypt_detached:c <- [DW_OP_LLVM_entry_value 1] $rsi
	#DEBUG_VALUE: aegis128l_declast:src <- $r13
	#DEBUG_VALUE: aegis128l_declast:pad <- [DW_OP_plus_uconst 256, DW_OP_deref] $rsp
	#DEBUG_VALUE: aegis128l_declast:dst <- [DW_OP_plus_uconst 176, DW_OP_deref] $rsp
	#DEBUG_VALUE: aegis128l_declast:len <- $rbx
	#DEBUG_VALUE: aegis128l_declast:state <- undef
	#DEBUG_VALUE: memset:__dest <- [DW_OP_plus_uconst 256, DW_OP_stack_value] $rsp
	#DEBUG_VALUE: memset:__ch <- 0
	#DEBUG_VALUE: memset:__len <- 32
	.loc	8 59 10 is_stmt 1               # /usr/include/x86_64-linux-gnu/bits/string_fortified.h:59:10 @[ crypto_aead/aegis128l/aegis128l_common.h:134:5 @[ crypto_aead/aegis128l/aegis128l_common.h:230:13 ] ]
	vpxor	%xmm0, %xmm0, %xmm0
	vmovdqa	%ymm0, 256(%rsp)
.Ltmp293:
	#DEBUG_VALUE: memcpy:__dest <- [DW_OP_plus_uconst 256, DW_OP_stack_value] $rsp
	#DEBUG_VALUE: memcpy:__src <- $r13
	#DEBUG_VALUE: memcpy:__len <- $rbx
	.loc	8 0 10 is_stmt 0                # /usr/include/x86_64-linux-gnu/bits/string_fortified.h:0:10
	leaq	256(%rsp), %rdi
	movq	%r12, 120(%rsp)                 # 8-byte Spill
.Ltmp294:
	#DEBUG_VALUE: decrypt_detached:clen <- [DW_OP_plus_uconst 120] [$rsp+0]
	movl	$32, %r12d
.Ltmp295:
	.loc	8 29 10 is_stmt 1               # /usr/include/x86_64-linux-gnu/bits/string_fortified.h:29:10 @[ crypto_aead/aegis128l/aegis128l_common.h:135:5 @[ crypto_aead/aegis128l/aegis128l_common.h:230:13 ] ]
	movl	$32, %ecx
.Ltmp296:
	movq	%r13, %rsi
	movq	%rbx, %rdx
	vmovdqa	%xmm11, 32(%rsp)                # 16-byte Spill
.Ltmp297:
	#DEBUG_VALUE: decrypt_detached:state <- [DW_OP_plus_uconst 32, DW_OP_deref, DW_OP_LLVM_fragment 768 128] $rsp
	.loc	8 0 10 is_stmt 0                # /usr/include/x86_64-linux-gnu/bits/string_fortified.h:0:10
	vmovdqa	%xmm12, 96(%rsp)                # 16-byte Spill
.Ltmp298:
	#DEBUG_VALUE: decrypt_detached:state <- [DW_OP_plus_uconst 96, DW_OP_deref, DW_OP_LLVM_fragment 640 128] $rsp
	vmovdqa	%xmm10, 80(%rsp)                # 16-byte Spill
.Ltmp299:
	#DEBUG_VALUE: decrypt_detached:state <- [DW_OP_plus_uconst 80, DW_OP_deref, DW_OP_LLVM_fragment 384 128] $rsp
	vmovdqa	%xmm6, 16(%rsp)                 # 16-byte Spill
.Ltmp300:
	#DEBUG_VALUE: decrypt_detached:state <- [DW_OP_plus_uconst 16, DW_OP_deref, DW_OP_LLVM_fragment 256 128] $rsp
	vmovdqa	%xmm13, 64(%rsp)                # 16-byte Spill
.Ltmp301:
	#DEBUG_VALUE: decrypt_detached:state <- [DW_OP_plus_uconst 64, DW_OP_deref, DW_OP_LLVM_fragment 128 128] $rsp
	vmovdqa	%xmm8, 128(%rsp)                # 16-byte Spill
.Ltmp302:
	#DEBUG_VALUE: decrypt_detached:state <- [DW_OP_plus_uconst 128, DW_OP_deref, DW_OP_LLVM_fragment 0 128] $rsp
	vmovdqa	%xmm5, 144(%rsp)                # 16-byte Spill
.Ltmp303:
	#DEBUG_VALUE: decrypt_detached:state <- [DW_OP_plus_uconst 144, DW_OP_deref, DW_OP_LLVM_fragment 512 128] $rsp
	vmovdqa	%xmm9, 48(%rsp)                 # 16-byte Spill
.Ltmp304:
	#DEBUG_VALUE: decrypt_detached:state <- [DW_OP_plus_uconst 48, DW_OP_deref, DW_OP_LLVM_fragment 896 128] $rsp
	.loc	8 29 10                         # /usr/include/x86_64-linux-gnu/bits/string_fortified.h:29:10 @[ crypto_aead/aegis128l/aegis128l_common.h:135:5 @[ crypto_aead/aegis128l/aegis128l_common.h:230:13 ] ]
	vzeroupper
	callq	__memcpy_chk@PLT
.Ltmp305:
	#DEBUG_VALUE: aegis128l_declast:msg0 <- undef
	#DEBUG_VALUE: aegis128l_declast:msg1 <- undef
	.loc	8 0 10                          # /usr/include/x86_64-linux-gnu/bits/string_fortified.h:0:10
	vmovaps	16(%rsp), %xmm0                 # 16-byte Reload
.Ltmp306:
	.loc	6 143 35 is_stmt 1              # crypto_aead/aegis128l/aegis128l_common.h:143:35 @[ crypto_aead/aegis128l/aegis128l_common.h:230:13 ]
	vandps	80(%rsp), %xmm0, %xmm0          # 16-byte Folded Reload
	.loc	6 143 12 is_stmt 0              # crypto_aead/aegis128l/aegis128l_common.h:143:12 @[ crypto_aead/aegis128l/aegis128l_common.h:230:13 ]
	vxorps	256(%rsp), %xmm0, %xmm0
	vmovaps	64(%rsp), %xmm1                 # 16-byte Reload
	vxorps	32(%rsp), %xmm1, %xmm1          # 16-byte Folded Reload
	vxorps	%xmm1, %xmm0, %xmm0
.Ltmp307:
	#DEBUG_VALUE: aegis128l_declast:msg0 <- $xmm0
	.loc	6 0 12                          # crypto_aead/aegis128l/aegis128l_common.h:0:12
	vmovaps	48(%rsp), %xmm1                 # 16-byte Reload
	.loc	6 144 35 is_stmt 1              # crypto_aead/aegis128l/aegis128l_common.h:144:35 @[ crypto_aead/aegis128l/aegis128l_common.h:230:13 ]
	vandps	32(%rsp), %xmm1, %xmm1          # 16-byte Folded Reload
	.loc	6 144 12 is_stmt 0              # crypto_aead/aegis128l/aegis128l_common.h:144:12 @[ crypto_aead/aegis128l/aegis128l_common.h:230:13 ]
	vxorps	272(%rsp), %xmm1, %xmm1
	vmovaps	16(%rsp), %xmm2                 # 16-byte Reload
	vxorps	96(%rsp), %xmm2, %xmm2          # 16-byte Folded Reload
	vxorps	%xmm2, %xmm1, %xmm1
.Ltmp308:
	#DEBUG_VALUE: aegis128l_declast:msg1 <- $xmm1
	.loc	6 145 5 is_stmt 1               # crypto_aead/aegis128l/aegis128l_common.h:145:5 @[ crypto_aead/aegis128l/aegis128l_common.h:230:13 ]
	vmovaps	%xmm0, 256(%rsp)
	.loc	6 146 5                         # crypto_aead/aegis128l/aegis128l_common.h:146:5 @[ crypto_aead/aegis128l/aegis128l_common.h:230:13 ]
	vmovaps	%xmm1, 272(%rsp)
	.loc	6 148 16                        # crypto_aead/aegis128l/aegis128l_common.h:148:16 @[ crypto_aead/aegis128l/aegis128l_common.h:230:13 ]
	leaq	(%rsp,%rbx), %rdi
	addq	$256, %rdi                      # imm = 0x100
	.loc	6 148 37 is_stmt 0              # crypto_aead/aegis128l/aegis128l_common.h:148:37 @[ crypto_aead/aegis128l/aegis128l_common.h:230:13 ]
	subq	%rbx, %r12
.Ltmp309:
	#DEBUG_VALUE: memset:__len <- $r12
	#DEBUG_VALUE: memset:__ch <- 0
	#DEBUG_VALUE: memset:__dest <- $rdi
	.loc	8 59 10 is_stmt 1               # /usr/include/x86_64-linux-gnu/bits/string_fortified.h:59:10 @[ crypto_aead/aegis128l/aegis128l_common.h:148:5 @[ crypto_aead/aegis128l/aegis128l_common.h:230:13 ] ]
	xorl	%esi, %esi
	movq	%r12, %rdx
	movq	120(%rsp), %r12                 # 8-byte Reload
.Ltmp310:
	callq	memset@PLT
.Ltmp311:
	#DEBUG_VALUE: memcpy:__dest <- [DW_OP_plus_uconst 176, DW_OP_deref] $rsp
	#DEBUG_VALUE: memcpy:__src <- [DW_OP_plus_uconst 256, DW_OP_stack_value] $rsp
	#DEBUG_VALUE: memcpy:__len <- $rbx
	.loc	8 0 10 is_stmt 0                # /usr/include/x86_64-linux-gnu/bits/string_fortified.h:0:10
	movq	176(%rsp), %rdi                 # 8-byte Reload
.Ltmp312:
	.loc	8 29 10 is_stmt 1               # /usr/include/x86_64-linux-gnu/bits/string_fortified.h:29:10 @[ crypto_aead/aegis128l/aegis128l_common.h:149:5 @[ crypto_aead/aegis128l/aegis128l_common.h:230:13 ] ]
	leaq	256(%rsp), %rsi
	movq	%rbx, %rdx
	callq	memcpy@PLT
.Ltmp313:
	.loc	8 0 10 is_stmt 0                # /usr/include/x86_64-linux-gnu/bits/string_fortified.h:0:10
	jmp	.LBB1_23
.Ltmp314:
.LBB1_18:                               # %.lr.ph205.preheader
	#DEBUG_VALUE: decrypt_detached:m <- $r14
	#DEBUG_VALUE: decrypt_detached:c <- $r13
	#DEBUG_VALUE: decrypt_detached:clen <- $r12
	#DEBUG_VALUE: decrypt_detached:mac <- [DW_OP_plus_uconst 168] [$rsp+0]
	#DEBUG_VALUE: decrypt_detached:maclen <- [DW_OP_plus_uconst 184] [$rsp+0]
	#DEBUG_VALUE: decrypt_detached:ad <- [DW_OP_LLVM_entry_value 1] $r9
	#DEBUG_VALUE: decrypt_detached:adlen <- [DW_OP_plus_uconst 16] [$rbp+0]
	#DEBUG_VALUE: decrypt_detached:npub <- [DW_OP_plus_uconst 24] [$rbp+0]
	#DEBUG_VALUE: decrypt_detached:k <- [DW_OP_plus_uconst 32] [$rbp+0]
	#DEBUG_VALUE: decrypt_detached:dst <- [DW_OP_plus_uconst 192, DW_OP_deref] $rsp
	#DEBUG_VALUE: decrypt_detached:state <- [DW_OP_LLVM_fragment 512 128] $xmm5
	#DEBUG_VALUE: decrypt_detached:state <- [DW_OP_LLVM_fragment 896 128] $xmm9
	#DEBUG_VALUE: decrypt_detached:state <- [DW_OP_LLVM_fragment 768 128] $xmm11
	#DEBUG_VALUE: decrypt_detached:state <- [DW_OP_LLVM_fragment 640 128] $xmm12
	#DEBUG_VALUE: decrypt_detached:state <- [DW_OP_LLVM_fragment 384 128] $xmm10
	#DEBUG_VALUE: decrypt_detached:state <- [DW_OP_LLVM_fragment 256 128] $xmm6
	#DEBUG_VALUE: decrypt_detached:state <- [DW_OP_LLVM_fragment 128 128] $xmm13
	#DEBUG_VALUE: decrypt_detached:state <- [DW_OP_LLVM_fragment 0 128] $xmm8
	#DEBUG_VALUE: decrypt_detached:i <- 0
	xorl	%eax, %eax
.Ltmp315:
	.p2align	4
.LBB1_19:                               # %.lr.ph205
                                        # =>This Inner Loop Header: Depth=1
	#DEBUG_VALUE: decrypt_detached:m <- $r14
	#DEBUG_VALUE: decrypt_detached:c <- $r13
	#DEBUG_VALUE: decrypt_detached:clen <- $r12
	#DEBUG_VALUE: decrypt_detached:mac <- [DW_OP_plus_uconst 168] [$rsp+0]
	#DEBUG_VALUE: decrypt_detached:maclen <- [DW_OP_plus_uconst 184] [$rsp+0]
	#DEBUG_VALUE: decrypt_detached:ad <- [DW_OP_LLVM_entry_value 1] $r9
	#DEBUG_VALUE: decrypt_detached:adlen <- [DW_OP_plus_uconst 16] [$rbp+0]
	#DEBUG_VALUE: decrypt_detached:npub <- [DW_OP_plus_uconst 24] [$rbp+0]
	#DEBUG_VALUE: decrypt_detached:k <- [DW_OP_plus_uconst 32] [$rbp+0]
	#DEBUG_VALUE: decrypt_detached:state <- [DW_OP_LLVM_fragment 512 128] $xmm5
	#DEBUG_VALUE: decrypt_detached:state <- [DW_OP_LLVM_fragment 896 128] $xmm9
	#DEBUG_VALUE: decrypt_detached:state <- [DW_OP_LLVM_fragment 768 128] $xmm11
	#DEBUG_VALUE: decrypt_detached:state <- [DW_OP_LLVM_fragment 640 128] $xmm12
	#DEBUG_VALUE: decrypt_detached:state <- [DW_OP_LLVM_fragment 384 128] $xmm10
	#DEBUG_VALUE: decrypt_detached:state <- [DW_OP_LLVM_fragment 256 128] $xmm6
	#DEBUG_VALUE: decrypt_detached:state <- [DW_OP_LLVM_fragment 128 128] $xmm13
	#DEBUG_VALUE: decrypt_detached:state <- [DW_OP_LLVM_fragment 0 128] $xmm8
	movq	%rax, %rcx
.Ltmp316:
	#DEBUG_VALUE: decrypt_detached:i <- $rcx
	#DEBUG_VALUE: decrypt_detached:state <- [DW_OP_LLVM_fragment 0 128] $xmm8
	#DEBUG_VALUE: decrypt_detached:state <- [DW_OP_LLVM_fragment 128 128] $xmm13
	#DEBUG_VALUE: decrypt_detached:state <- [DW_OP_LLVM_fragment 256 128] $xmm6
	#DEBUG_VALUE: decrypt_detached:state <- [DW_OP_LLVM_fragment 384 128] $xmm10
	#DEBUG_VALUE: decrypt_detached:state <- [DW_OP_LLVM_fragment 512 128] $xmm5
	#DEBUG_VALUE: decrypt_detached:state <- [DW_OP_LLVM_fragment 640 128] $xmm12
	#DEBUG_VALUE: decrypt_detached:state <- [DW_OP_LLVM_fragment 768 128] $xmm11
	#DEBUG_VALUE: decrypt_detached:state <- [DW_OP_LLVM_fragment 896 128] $xmm9
	#DEBUG_VALUE: aegis128l_dec:dst <- [DW_OP_plus_uconst 192, DW_OP_stack_value] $rsp
	#DEBUG_VALUE: aegis128l_dec:src <- [DW_OP_LLVM_arg 0, DW_OP_consts 32, DW_OP_div, DW_OP_consts 32, DW_OP_mul, DW_OP_LLVM_arg 1, DW_OP_plus, DW_OP_stack_value] $rcx, $r13
	#DEBUG_VALUE: aegis128l_dec:state <- undef
	#DEBUG_VALUE: aegis128l_dec:msg0 <- undef
	#DEBUG_VALUE: aegis128l_dec:msg1 <- undef
	.loc	6 119 35 is_stmt 1              # crypto_aead/aegis128l/aegis128l_common.h:119:35 @[ crypto_aead/aegis128l/aegis128l_common.h:225:13 ]
	vpand	%xmm6, %xmm10, %xmm0
	.loc	6 119 12 is_stmt 0              # crypto_aead/aegis128l/aegis128l_common.h:119:12 @[ crypto_aead/aegis128l/aegis128l_common.h:225:13 ]
	vpxor	(%r13,%rax), %xmm0, %xmm0
	vpxor	%xmm13, %xmm11, %xmm2
	#DEBUG_VALUE: aegis128l_dec:msg0 <- undef
	.loc	6 120 35 is_stmt 1              # crypto_aead/aegis128l/aegis128l_common.h:120:35 @[ crypto_aead/aegis128l/aegis128l_common.h:225:13 ]
	vpand	%xmm9, %xmm11, %xmm3
	.loc	6 120 12 is_stmt 0              # crypto_aead/aegis128l/aegis128l_common.h:120:12 @[ crypto_aead/aegis128l/aegis128l_common.h:225:13 ]
	vpxor	16(%r13,%rax), %xmm3, %xmm3
	.loc	6 119 12 is_stmt 1              # crypto_aead/aegis128l/aegis128l_common.h:119:12 @[ crypto_aead/aegis128l/aegis128l_common.h:225:13 ]
	vpxor	%xmm2, %xmm0, %xmm0
.Ltmp317:
	#DEBUG_VALUE: aegis128l_dec:msg0 <- $xmm0
	.loc	6 120 12                        # crypto_aead/aegis128l/aegis128l_common.h:120:12 @[ crypto_aead/aegis128l/aegis128l_common.h:225:13 ]
	vpxor	%xmm6, %xmm12, %xmm2
	#DEBUG_VALUE: aegis128l_dec:msg1 <- undef
.Ltmp318:
	#DEBUG_VALUE: decrypt_detached:dst <- [DW_OP_LLVM_fragment 128 128] undef
	#DEBUG_VALUE: aegis128l_update:d2 <- undef
	#DEBUG_VALUE: decrypt_detached:dst <- [DW_OP_LLVM_fragment 0 128] $xmm0
	#DEBUG_VALUE: aegis128l_update:state <- undef
	#DEBUG_VALUE: aegis128l_update:d1 <- $xmm0
	#DEBUG_VALUE: aegis128l_update:tmp <- $xmm9
	#DEBUG_VALUE: decrypt_detached:state <- [DW_OP_LLVM_fragment 896 128] undef
	#DEBUG_VALUE: decrypt_detached:state <- [DW_OP_LLVM_fragment 768 128] undef
	#DEBUG_VALUE: decrypt_detached:state <- [DW_OP_LLVM_fragment 640 128] undef
	#DEBUG_VALUE: decrypt_detached:state <- [DW_OP_LLVM_fragment 384 128] undef
	#DEBUG_VALUE: decrypt_detached:state <- [DW_OP_LLVM_fragment 256 128] undef
	#DEBUG_VALUE: decrypt_detached:state <- [DW_OP_LLVM_fragment 128 128] undef
	.loc	5 53 16                         # crypto_aead/aegis128l/aegis128l_aesni.c:53:16 @[ crypto_aead/aegis128l/aegis128l_common.h:124:5 @[ crypto_aead/aegis128l/aegis128l_common.h:225:13 ] ]
	vaesenc	%xmm8, %xmm9, %xmm4
	.loc	5 46 16                         # crypto_aead/aegis128l/aegis128l_aesni.c:46:16 @[ crypto_aead/aegis128l/aegis128l_common.h:124:5 @[ crypto_aead/aegis128l/aegis128l_common.h:225:13 ] ]
	vaesenc	%xmm9, %xmm11, %xmm9
.Ltmp319:
	#DEBUG_VALUE: decrypt_detached:state <- [DW_OP_LLVM_fragment 896 128] $xmm9
	.loc	5 47 16                         # crypto_aead/aegis128l/aegis128l_aesni.c:47:16 @[ crypto_aead/aegis128l/aegis128l_common.h:124:5 @[ crypto_aead/aegis128l/aegis128l_common.h:225:13 ] ]
	vaesenc	%xmm11, %xmm12, %xmm11
.Ltmp320:
	#DEBUG_VALUE: decrypt_detached:state <- [DW_OP_LLVM_fragment 768 128] $xmm11
	.loc	5 48 16                         # crypto_aead/aegis128l/aegis128l_aesni.c:48:16 @[ crypto_aead/aegis128l/aegis128l_common.h:124:5 @[ crypto_aead/aegis128l/aegis128l_common.h:225:13 ] ]
	vaesenc	%xmm12, %xmm5, %xmm12
.Ltmp321:
	#DEBUG_VALUE: decrypt_detached:state <- [DW_OP_LLVM_fragment 640 128] $xmm12
	.loc	5 49 16                         # crypto_aead/aegis128l/aegis128l_aesni.c:49:16 @[ crypto_aead/aegis128l/aegis128l_common.h:124:5 @[ crypto_aead/aegis128l/aegis128l_common.h:225:13 ] ]
	vaesenc	%xmm5, %xmm10, %xmm5
.Ltmp322:
	.loc	5 50 16                         # crypto_aead/aegis128l/aegis128l_aesni.c:50:16 @[ crypto_aead/aegis128l/aegis128l_common.h:124:5 @[ crypto_aead/aegis128l/aegis128l_common.h:225:13 ] ]
	vaesenc	%xmm10, %xmm6, %xmm10
.Ltmp323:
	#DEBUG_VALUE: decrypt_detached:state <- [DW_OP_LLVM_fragment 384 128] $xmm10
	.loc	5 51 16                         # crypto_aead/aegis128l/aegis128l_aesni.c:51:16 @[ crypto_aead/aegis128l/aegis128l_common.h:124:5 @[ crypto_aead/aegis128l/aegis128l_common.h:225:13 ] ]
	vaesenc	%xmm6, %xmm13, %xmm6
.Ltmp324:
	#DEBUG_VALUE: decrypt_detached:state <- [DW_OP_LLVM_fragment 256 128] $xmm6
	.loc	6 120 12                        # crypto_aead/aegis128l/aegis128l_common.h:120:12 @[ crypto_aead/aegis128l/aegis128l_common.h:225:13 ]
	vpxor	%xmm2, %xmm3, %xmm1
.Ltmp325:
	#DEBUG_VALUE: aegis128l_update:d2 <- $xmm1
	#DEBUG_VALUE: aegis128l_dec:msg1 <- $xmm1
	#DEBUG_VALUE: decrypt_detached:dst <- [DW_OP_LLVM_fragment 128 128] $xmm1
	.loc	5 52 16                         # crypto_aead/aegis128l/aegis128l_aesni.c:52:16 @[ crypto_aead/aegis128l/aegis128l_common.h:124:5 @[ crypto_aead/aegis128l/aegis128l_common.h:225:13 ] ]
	vaesenc	%xmm13, %xmm8, %xmm13
.Ltmp326:
	#DEBUG_VALUE: decrypt_detached:state <- [DW_OP_LLVM_fragment 128 128] $xmm13
	.loc	5 55 16                         # crypto_aead/aegis128l/aegis128l_aesni.c:55:16 @[ crypto_aead/aegis128l/aegis128l_common.h:124:5 @[ crypto_aead/aegis128l/aegis128l_common.h:225:13 ] ]
	vpxor	%xmm0, %xmm4, %xmm8
.Ltmp327:
	#DEBUG_VALUE: decrypt_detached:state <- [DW_OP_LLVM_fragment 0 128] $xmm8
	.loc	5 56 16                         # crypto_aead/aegis128l/aegis128l_aesni.c:56:16 @[ crypto_aead/aegis128l/aegis128l_common.h:124:5 @[ crypto_aead/aegis128l/aegis128l_common.h:225:13 ] ]
	vpxor	%xmm1, %xmm5, %xmm5
.Ltmp328:
	#DEBUG_VALUE: decrypt_detached:state <- [DW_OP_LLVM_fragment 512 128] $xmm5
	#DEBUG_VALUE: decrypt_detached:state <- [DW_OP_LLVM_fragment 128 128] $xmm13
	#DEBUG_VALUE: decrypt_detached:state <- [DW_OP_LLVM_fragment 256 128] $xmm6
	#DEBUG_VALUE: decrypt_detached:state <- [DW_OP_LLVM_fragment 384 128] $xmm10
	#DEBUG_VALUE: decrypt_detached:state <- [DW_OP_LLVM_fragment 640 128] $xmm12
	#DEBUG_VALUE: decrypt_detached:state <- [DW_OP_LLVM_fragment 768 128] $xmm11
	#DEBUG_VALUE: decrypt_detached:state <- [DW_OP_LLVM_fragment 896 128] $xmm9
	#DEBUG_VALUE: decrypt_detached:i <- [DW_OP_plus_uconst 32, DW_OP_stack_value] $rcx
	.loc	6 224 28                        # crypto_aead/aegis128l/aegis128l_common.h:224:28
	addq	$32, %rax
	addq	$64, %rcx
.Ltmp329:
	cmpq	%r12, %rcx
.Ltmp330:
	.loc	6 224 9 is_stmt 0               # crypto_aead/aegis128l/aegis128l_common.h:224:9
	jbe	.LBB1_19
.Ltmp331:
# %bb.20:                               # %..loopexit155_crit_edge
	#DEBUG_VALUE: decrypt_detached:m <- $r14
	#DEBUG_VALUE: decrypt_detached:c <- $r13
	#DEBUG_VALUE: decrypt_detached:clen <- $r12
	#DEBUG_VALUE: decrypt_detached:mac <- [DW_OP_plus_uconst 168] [$rsp+0]
	#DEBUG_VALUE: decrypt_detached:maclen <- [DW_OP_plus_uconst 184] [$rsp+0]
	#DEBUG_VALUE: decrypt_detached:ad <- [DW_OP_LLVM_entry_value 1] $r9
	#DEBUG_VALUE: decrypt_detached:adlen <- [DW_OP_plus_uconst 16] [$rbp+0]
	#DEBUG_VALUE: decrypt_detached:npub <- [DW_OP_plus_uconst 24] [$rbp+0]
	#DEBUG_VALUE: decrypt_detached:k <- [DW_OP_plus_uconst 32] [$rbp+0]
	#DEBUG_VALUE: decrypt_detached:dst <- [DW_OP_LLVM_fragment 128 128] $xmm1
	#DEBUG_VALUE: decrypt_detached:dst <- [DW_OP_LLVM_fragment 0 128] $xmm0
	#DEBUG_VALUE: decrypt_detached:state <- [DW_OP_LLVM_fragment 512 128] $xmm5
	#DEBUG_VALUE: decrypt_detached:state <- [DW_OP_LLVM_fragment 896 128] $xmm9
	#DEBUG_VALUE: decrypt_detached:state <- [DW_OP_LLVM_fragment 768 128] $xmm11
	#DEBUG_VALUE: decrypt_detached:state <- [DW_OP_LLVM_fragment 640 128] $xmm12
	#DEBUG_VALUE: decrypt_detached:state <- [DW_OP_LLVM_fragment 384 128] $xmm10
	#DEBUG_VALUE: decrypt_detached:state <- [DW_OP_LLVM_fragment 256 128] $xmm6
	#DEBUG_VALUE: decrypt_detached:state <- [DW_OP_LLVM_fragment 128 128] $xmm13
	#DEBUG_VALUE: decrypt_detached:state <- [DW_OP_LLVM_fragment 0 128] $xmm8
	#DEBUG_VALUE: aegis128l_dec:dst <- [DW_OP_plus_uconst 192, DW_OP_stack_value] $rsp
	#DEBUG_VALUE: aegis128l_dec:msg0 <- $xmm0
	#DEBUG_VALUE: aegis128l_dec:msg1 <- $xmm1
	.loc	6 122 5 is_stmt 1               # crypto_aead/aegis128l/aegis128l_common.h:122:5 @[ crypto_aead/aegis128l/aegis128l_common.h:225:13 ]
	vmovdqa	%xmm1, 208(%rsp)
.Ltmp332:
	#DEBUG_VALUE: decrypt_detached:dst <- [DW_OP_plus_uconst 192, DW_OP_plus_uconst 16, DW_OP_deref, DW_OP_LLVM_fragment 128 128] $rsp
.LBB1_21:                               # %.loopexit.thread
	#DEBUG_VALUE: decrypt_detached:m <- $r14
	#DEBUG_VALUE: decrypt_detached:c <- $r13
	#DEBUG_VALUE: decrypt_detached:clen <- $r12
	#DEBUG_VALUE: decrypt_detached:mac <- [DW_OP_plus_uconst 168] [$rsp+0]
	#DEBUG_VALUE: decrypt_detached:maclen <- [DW_OP_plus_uconst 184] [$rsp+0]
	#DEBUG_VALUE: decrypt_detached:ad <- [DW_OP_LLVM_entry_value 1] $r9
	#DEBUG_VALUE: decrypt_detached:adlen <- [DW_OP_plus_uconst 16] [$rbp+0]
	#DEBUG_VALUE: decrypt_detached:npub <- [DW_OP_plus_uconst 24] [$rbp+0]
	#DEBUG_VALUE: decrypt_detached:k <- [DW_OP_plus_uconst 32] [$rbp+0]
	#DEBUG_VALUE: decrypt_detached:state <- [DW_OP_LLVM_fragment 512 128] $xmm5
	#DEBUG_VALUE: decrypt_detached:state <- [DW_OP_LLVM_fragment 896 128] $xmm9
	#DEBUG_VALUE: decrypt_detached:state <- [DW_OP_LLVM_fragment 768 128] $xmm11
	#DEBUG_VALUE: decrypt_detached:state <- [DW_OP_LLVM_fragment 640 128] $xmm12
	#DEBUG_VALUE: decrypt_detached:state <- [DW_OP_LLVM_fragment 384 128] $xmm10
	#DEBUG_VALUE: decrypt_detached:state <- [DW_OP_LLVM_fragment 256 128] $xmm6
	#DEBUG_VALUE: decrypt_detached:state <- [DW_OP_LLVM_fragment 128 128] $xmm13
	#DEBUG_VALUE: decrypt_detached:state <- [DW_OP_LLVM_fragment 0 128] $xmm8
	.loc	6 121 5                         # crypto_aead/aegis128l/aegis128l_common.h:121:5 @[ crypto_aead/aegis128l/aegis128l_common.h:225:13 ]
	vmovdqa	%xmm0, 192(%rsp)
.Ltmp333:
	#DEBUG_VALUE: decrypt_detached:state <- [DW_OP_LLVM_fragment 0 128] $xmm8
	#DEBUG_VALUE: decrypt_detached:state <- [DW_OP_LLVM_fragment 128 128] $xmm13
	#DEBUG_VALUE: decrypt_detached:state <- [DW_OP_LLVM_fragment 256 128] $xmm6
	#DEBUG_VALUE: decrypt_detached:state <- [DW_OP_LLVM_fragment 384 128] $xmm10
	#DEBUG_VALUE: decrypt_detached:state <- [DW_OP_LLVM_fragment 512 128] $xmm5
	#DEBUG_VALUE: decrypt_detached:state <- [DW_OP_LLVM_fragment 640 128] $xmm12
	#DEBUG_VALUE: decrypt_detached:state <- [DW_OP_LLVM_fragment 768 128] $xmm11
	#DEBUG_VALUE: decrypt_detached:state <- [DW_OP_LLVM_fragment 896 128] $xmm9
	#DEBUG_VALUE: decrypt_detached:i <- $rax
	.loc	6 228 14                        # crypto_aead/aegis128l/aegis128l_common.h:228:14
	movq	%r12, %rbx
	andq	$31, %rbx
	je	.LBB1_24
.Ltmp334:
# %bb.22:                               # %.thread
	#DEBUG_VALUE: decrypt_detached:m <- $r14
	#DEBUG_VALUE: decrypt_detached:c <- $r13
	#DEBUG_VALUE: decrypt_detached:clen <- $r12
	#DEBUG_VALUE: decrypt_detached:mac <- [DW_OP_plus_uconst 168] [$rsp+0]
	#DEBUG_VALUE: decrypt_detached:maclen <- [DW_OP_plus_uconst 184] [$rsp+0]
	#DEBUG_VALUE: decrypt_detached:ad <- [DW_OP_LLVM_entry_value 1] $r9
	#DEBUG_VALUE: decrypt_detached:adlen <- [DW_OP_plus_uconst 16] [$rbp+0]
	#DEBUG_VALUE: decrypt_detached:npub <- [DW_OP_plus_uconst 24] [$rbp+0]
	#DEBUG_VALUE: decrypt_detached:k <- [DW_OP_plus_uconst 32] [$rbp+0]
	#DEBUG_VALUE: decrypt_detached:state <- [DW_OP_LLVM_fragment 512 128] $xmm5
	#DEBUG_VALUE: decrypt_detached:state <- [DW_OP_LLVM_fragment 896 128] $xmm9
	#DEBUG_VALUE: decrypt_detached:state <- [DW_OP_LLVM_fragment 768 128] $xmm11
	#DEBUG_VALUE: decrypt_detached:state <- [DW_OP_LLVM_fragment 640 128] $xmm12
	#DEBUG_VALUE: decrypt_detached:state <- [DW_OP_LLVM_fragment 384 128] $xmm10
	#DEBUG_VALUE: decrypt_detached:state <- [DW_OP_LLVM_fragment 256 128] $xmm6
	#DEBUG_VALUE: decrypt_detached:state <- [DW_OP_LLVM_fragment 128 128] $xmm13
	#DEBUG_VALUE: decrypt_detached:state <- [DW_OP_LLVM_fragment 0 128] $xmm8
	#DEBUG_VALUE: decrypt_detached:i <- $rax
	.loc	6 232 38                        # crypto_aead/aegis128l/aegis128l_common.h:232:38
	addq	%rax, %r13
.Ltmp335:
	#DEBUG_VALUE: decrypt_detached:c <- [DW_OP_LLVM_entry_value 1] $rsi
	#DEBUG_VALUE: aegis128l_declast:src <- $r13
	#DEBUG_VALUE: aegis128l_declast:pad <- [DW_OP_plus_uconst 256, DW_OP_deref] $rsp
	#DEBUG_VALUE: aegis128l_declast:dst <- [DW_OP_plus_uconst 192, DW_OP_stack_value] $rsp
	#DEBUG_VALUE: aegis128l_declast:len <- $rbx
	#DEBUG_VALUE: aegis128l_declast:state <- undef
	#DEBUG_VALUE: memset:__dest <- [DW_OP_plus_uconst 256, DW_OP_stack_value] $rsp
	#DEBUG_VALUE: memset:__ch <- 0
	#DEBUG_VALUE: memset:__len <- 32
	.loc	8 59 10                         # /usr/include/x86_64-linux-gnu/bits/string_fortified.h:59:10 @[ crypto_aead/aegis128l/aegis128l_common.h:134:5 @[ crypto_aead/aegis128l/aegis128l_common.h:232:13 ] ]
	vpxor	%xmm0, %xmm0, %xmm0
	vmovdqa	%ymm0, 256(%rsp)
.Ltmp336:
	#DEBUG_VALUE: memcpy:__dest <- [DW_OP_plus_uconst 256, DW_OP_stack_value] $rsp
	#DEBUG_VALUE: memcpy:__src <- $r13
	#DEBUG_VALUE: memcpy:__len <- $rbx
	.loc	8 0 10 is_stmt 0                # /usr/include/x86_64-linux-gnu/bits/string_fortified.h:0:10
	leaq	256(%rsp), %rdi
	movq	%r12, 120(%rsp)                 # 8-byte Spill
.Ltmp337:
	#DEBUG_VALUE: decrypt_detached:clen <- [DW_OP_plus_uconst 120] [$rsp+0]
	movl	$32, %r12d
.Ltmp338:
	.loc	8 29 10 is_stmt 1               # /usr/include/x86_64-linux-gnu/bits/string_fortified.h:29:10 @[ crypto_aead/aegis128l/aegis128l_common.h:135:5 @[ crypto_aead/aegis128l/aegis128l_common.h:232:13 ] ]
	movl	$32, %ecx
	movq	%r13, %rsi
	movq	%rbx, %rdx
	vmovdqa	%xmm11, 32(%rsp)                # 16-byte Spill
.Ltmp339:
	#DEBUG_VALUE: decrypt_detached:state <- [DW_OP_plus_uconst 32, DW_OP_deref, DW_OP_LLVM_fragment 768 128] $rsp
	.loc	8 0 10 is_stmt 0                # /usr/include/x86_64-linux-gnu/bits/string_fortified.h:0:10
	vmovdqa	%xmm12, 96(%rsp)                # 16-byte Spill
.Ltmp340:
	#DEBUG_VALUE: decrypt_detached:state <- [DW_OP_plus_uconst 96, DW_OP_deref, DW_OP_LLVM_fragment 640 128] $rsp
	vmovdqa	%xmm10, 80(%rsp)                # 16-byte Spill
.Ltmp341:
	#DEBUG_VALUE: decrypt_detached:state <- [DW_OP_plus_uconst 80, DW_OP_deref, DW_OP_LLVM_fragment 384 128] $rsp
	vmovdqa	%xmm6, 16(%rsp)                 # 16-byte Spill
.Ltmp342:
	#DEBUG_VALUE: decrypt_detached:state <- [DW_OP_plus_uconst 16, DW_OP_deref, DW_OP_LLVM_fragment 256 128] $rsp
	vmovdqa	%xmm13, 64(%rsp)                # 16-byte Spill
.Ltmp343:
	#DEBUG_VALUE: decrypt_detached:state <- [DW_OP_plus_uconst 64, DW_OP_deref, DW_OP_LLVM_fragment 128 128] $rsp
	vmovdqa	%xmm8, 128(%rsp)                # 16-byte Spill
.Ltmp344:
	#DEBUG_VALUE: decrypt_detached:state <- [DW_OP_plus_uconst 128, DW_OP_deref, DW_OP_LLVM_fragment 0 128] $rsp
	vmovdqa	%xmm5, 144(%rsp)                # 16-byte Spill
.Ltmp345:
	#DEBUG_VALUE: decrypt_detached:state <- [DW_OP_plus_uconst 144, DW_OP_deref, DW_OP_LLVM_fragment 512 128] $rsp
	vmovdqa	%xmm9, 48(%rsp)                 # 16-byte Spill
.Ltmp346:
	#DEBUG_VALUE: decrypt_detached:state <- [DW_OP_plus_uconst 48, DW_OP_deref, DW_OP_LLVM_fragment 896 128] $rsp
	.loc	8 29 10                         # /usr/include/x86_64-linux-gnu/bits/string_fortified.h:29:10 @[ crypto_aead/aegis128l/aegis128l_common.h:135:5 @[ crypto_aead/aegis128l/aegis128l_common.h:232:13 ] ]
	vzeroupper
	callq	__memcpy_chk@PLT
.Ltmp347:
	#DEBUG_VALUE: aegis128l_declast:msg0 <- undef
	#DEBUG_VALUE: aegis128l_declast:msg1 <- undef
	.loc	8 0 10                          # /usr/include/x86_64-linux-gnu/bits/string_fortified.h:0:10
	vmovaps	16(%rsp), %xmm0                 # 16-byte Reload
.Ltmp348:
	.loc	6 143 35 is_stmt 1              # crypto_aead/aegis128l/aegis128l_common.h:143:35 @[ crypto_aead/aegis128l/aegis128l_common.h:232:13 ]
	vandps	80(%rsp), %xmm0, %xmm0          # 16-byte Folded Reload
	.loc	6 143 12 is_stmt 0              # crypto_aead/aegis128l/aegis128l_common.h:143:12 @[ crypto_aead/aegis128l/aegis128l_common.h:232:13 ]
	vxorps	256(%rsp), %xmm0, %xmm0
	vmovaps	64(%rsp), %xmm1                 # 16-byte Reload
	vxorps	32(%rsp), %xmm1, %xmm1          # 16-byte Folded Reload
	vxorps	%xmm1, %xmm0, %xmm0
.Ltmp349:
	#DEBUG_VALUE: aegis128l_declast:msg0 <- $xmm0
	.loc	6 0 12                          # crypto_aead/aegis128l/aegis128l_common.h:0:12
	vmovaps	48(%rsp), %xmm1                 # 16-byte Reload
	.loc	6 144 35 is_stmt 1              # crypto_aead/aegis128l/aegis128l_common.h:144:35 @[ crypto_aead/aegis128l/aegis128l_common.h:232:13 ]
	vandps	32(%rsp), %xmm1, %xmm1          # 16-byte Folded Reload
	.loc	6 144 12 is_stmt 0              # crypto_aead/aegis128l/aegis128l_common.h:144:12 @[ crypto_aead/aegis128l/aegis128l_common.h:232:13 ]
	vxorps	272(%rsp), %xmm1, %xmm1
	vmovaps	16(%rsp), %xmm2                 # 16-byte Reload
	vxorps	96(%rsp), %xmm2, %xmm2          # 16-byte Folded Reload
	vxorps	%xmm2, %xmm1, %xmm1
.Ltmp350:
	#DEBUG_VALUE: aegis128l_declast:msg1 <- $xmm1
	.loc	6 145 5 is_stmt 1               # crypto_aead/aegis128l/aegis128l_common.h:145:5 @[ crypto_aead/aegis128l/aegis128l_common.h:232:13 ]
	vmovaps	%xmm0, 256(%rsp)
	.loc	6 146 5                         # crypto_aead/aegis128l/aegis128l_common.h:146:5 @[ crypto_aead/aegis128l/aegis128l_common.h:232:13 ]
	vmovaps	%xmm1, 272(%rsp)
	.loc	6 148 16                        # crypto_aead/aegis128l/aegis128l_common.h:148:16 @[ crypto_aead/aegis128l/aegis128l_common.h:232:13 ]
	leaq	(%rsp,%rbx), %rdi
	addq	$256, %rdi                      # imm = 0x100
	.loc	6 148 37 is_stmt 0              # crypto_aead/aegis128l/aegis128l_common.h:148:37 @[ crypto_aead/aegis128l/aegis128l_common.h:232:13 ]
	subq	%rbx, %r12
.Ltmp351:
	#DEBUG_VALUE: memset:__len <- $r12
	#DEBUG_VALUE: memset:__ch <- 0
	#DEBUG_VALUE: memset:__dest <- $rdi
	.loc	8 59 10 is_stmt 1               # /usr/include/x86_64-linux-gnu/bits/string_fortified.h:59:10 @[ crypto_aead/aegis128l/aegis128l_common.h:148:5 @[ crypto_aead/aegis128l/aegis128l_common.h:232:13 ] ]
	xorl	%esi, %esi
	movq	%r12, %rdx
	movq	120(%rsp), %r12                 # 8-byte Reload
.Ltmp352:
	callq	memset@PLT
.Ltmp353:
	#DEBUG_VALUE: memcpy:__dest <- [DW_OP_plus_uconst 192, DW_OP_stack_value] $rsp
	#DEBUG_VALUE: memcpy:__src <- [DW_OP_plus_uconst 256, DW_OP_stack_value] $rsp
	#DEBUG_VALUE: memcpy:__len <- $rbx
	.loc	8 0 10 is_stmt 0                # /usr/include/x86_64-linux-gnu/bits/string_fortified.h:0:10
	leaq	192(%rsp), %rdi
.Ltmp354:
	.loc	8 29 10 is_stmt 1               # /usr/include/x86_64-linux-gnu/bits/string_fortified.h:29:10 @[ crypto_aead/aegis128l/aegis128l_common.h:149:5 @[ crypto_aead/aegis128l/aegis128l_common.h:232:13 ] ]
	movl	$32, %ecx
	leaq	256(%rsp), %rsi
	movq	%rbx, %rdx
	callq	__memcpy_chk@PLT
.Ltmp355:
.LBB1_23:
	#DEBUG_VALUE: decrypt_detached:m <- $r14
	#DEBUG_VALUE: decrypt_detached:c <- [DW_OP_LLVM_entry_value 1] $rsi
	#DEBUG_VALUE: decrypt_detached:clen <- [DW_OP_plus_uconst 120] [$rsp+0]
	#DEBUG_VALUE: decrypt_detached:mac <- [DW_OP_plus_uconst 168] [$rsp+0]
	#DEBUG_VALUE: decrypt_detached:maclen <- [DW_OP_plus_uconst 184] [$rsp+0]
	#DEBUG_VALUE: decrypt_detached:ad <- [DW_OP_LLVM_entry_value 1] $r9
	#DEBUG_VALUE: decrypt_detached:adlen <- [DW_OP_plus_uconst 16] [$rbp+0]
	#DEBUG_VALUE: decrypt_detached:npub <- [DW_OP_plus_uconst 24] [$rbp+0]
	#DEBUG_VALUE: decrypt_detached:k <- [DW_OP_plus_uconst 32] [$rbp+0]
	#DEBUG_VALUE: decrypt_detached:state <- [DW_OP_plus_uconst 144, DW_OP_deref, DW_OP_LLVM_fragment 512 128] $rsp
	#DEBUG_VALUE: decrypt_detached:state <- [DW_OP_plus_uconst 48, DW_OP_deref, DW_OP_LLVM_fragment 896 128] $rsp
	#DEBUG_VALUE: decrypt_detached:state <- [DW_OP_plus_uconst 32, DW_OP_deref, DW_OP_LLVM_fragment 768 128] $rsp
	#DEBUG_VALUE: decrypt_detached:state <- [DW_OP_plus_uconst 96, DW_OP_deref, DW_OP_LLVM_fragment 640 128] $rsp
	#DEBUG_VALUE: decrypt_detached:state <- [DW_OP_plus_uconst 80, DW_OP_deref, DW_OP_LLVM_fragment 384 128] $rsp
	#DEBUG_VALUE: decrypt_detached:state <- [DW_OP_plus_uconst 16, DW_OP_deref, DW_OP_LLVM_fragment 256 128] $rsp
	#DEBUG_VALUE: decrypt_detached:state <- [DW_OP_plus_uconst 64, DW_OP_deref, DW_OP_LLVM_fragment 128 128] $rsp
	#DEBUG_VALUE: decrypt_detached:state <- [DW_OP_plus_uconst 128, DW_OP_deref, DW_OP_LLVM_fragment 0 128] $rsp
	.loc	8 0 10 is_stmt 0                # /usr/include/x86_64-linux-gnu/bits/string_fortified.h:0:10
	vmovdqa	64(%rsp), %xmm13                # 16-byte Reload
	vmovdqa	16(%rsp), %xmm6                 # 16-byte Reload
	vmovdqa	80(%rsp), %xmm10                # 16-byte Reload
	vmovdqa	96(%rsp), %xmm12                # 16-byte Reload
	vmovdqa	32(%rsp), %xmm11                # 16-byte Reload
.Ltmp356:
	#DEBUG_VALUE: aegis128l_update:state <- undef
	#DEBUG_VALUE: aegis128l_update:d2 <- undef
	#DEBUG_VALUE: aegis128l_update:d1 <- undef
	#DEBUG_VALUE: decrypt_detached:state <- [DW_OP_LLVM_fragment 896 128] undef
	#DEBUG_VALUE: decrypt_detached:state <- [DW_OP_LLVM_fragment 768 128] undef
	#DEBUG_VALUE: decrypt_detached:state <- [DW_OP_LLVM_fragment 640 128] undef
	#DEBUG_VALUE: decrypt_detached:state <- [DW_OP_LLVM_fragment 384 128] undef
	#DEBUG_VALUE: decrypt_detached:state <- [DW_OP_LLVM_fragment 256 128] undef
	#DEBUG_VALUE: decrypt_detached:state <- [DW_OP_LLVM_fragment 128 128] undef
	vmovdqa	128(%rsp), %xmm3                # 16-byte Reload
	vmovdqa	48(%rsp), %xmm1                 # 16-byte Reload
.Ltmp357:
	.loc	5 53 16 is_stmt 1               # crypto_aead/aegis128l/aegis128l_aesni.c:53:16 @[ crypto_aead/aegis128l/aegis128l_common.h:154:5 @[ crypto_aead/aegis128l/aegis128l_common.h:0 ] ]
	vaesenc	%xmm3, %xmm1, %xmm0
	.loc	5 46 16                         # crypto_aead/aegis128l/aegis128l_aesni.c:46:16 @[ crypto_aead/aegis128l/aegis128l_common.h:154:5 @[ crypto_aead/aegis128l/aegis128l_common.h:0 ] ]
	vaesenc	%xmm1, %xmm11, %xmm9
.Ltmp358:
	#DEBUG_VALUE: decrypt_detached:state <- [DW_OP_LLVM_fragment 896 128] $xmm9
	.loc	5 47 16                         # crypto_aead/aegis128l/aegis128l_aesni.c:47:16 @[ crypto_aead/aegis128l/aegis128l_common.h:154:5 @[ crypto_aead/aegis128l/aegis128l_common.h:0 ] ]
	vaesenc	%xmm11, %xmm12, %xmm11
.Ltmp359:
	#DEBUG_VALUE: decrypt_detached:state <- [DW_OP_LLVM_fragment 768 128] $xmm11
	.loc	5 0 16 is_stmt 0                # crypto_aead/aegis128l/aegis128l_aesni.c:0:16
	vmovdqa	144(%rsp), %xmm2                # 16-byte Reload
	.loc	5 48 16 is_stmt 1               # crypto_aead/aegis128l/aegis128l_aesni.c:48:16 @[ crypto_aead/aegis128l/aegis128l_common.h:154:5 @[ crypto_aead/aegis128l/aegis128l_common.h:0 ] ]
	vaesenc	%xmm12, %xmm2, %xmm12
.Ltmp360:
	#DEBUG_VALUE: decrypt_detached:state <- [DW_OP_LLVM_fragment 640 128] $xmm12
	.loc	5 49 16                         # crypto_aead/aegis128l/aegis128l_aesni.c:49:16 @[ crypto_aead/aegis128l/aegis128l_common.h:154:5 @[ crypto_aead/aegis128l/aegis128l_common.h:0 ] ]
	vaesenc	%xmm2, %xmm10, %xmm2
	.loc	5 50 16                         # crypto_aead/aegis128l/aegis128l_aesni.c:50:16 @[ crypto_aead/aegis128l/aegis128l_common.h:154:5 @[ crypto_aead/aegis128l/aegis128l_common.h:0 ] ]
	vaesenc	%xmm10, %xmm6, %xmm10
.Ltmp361:
	#DEBUG_VALUE: decrypt_detached:state <- [DW_OP_LLVM_fragment 384 128] $xmm10
	.loc	5 51 16                         # crypto_aead/aegis128l/aegis128l_aesni.c:51:16 @[ crypto_aead/aegis128l/aegis128l_common.h:154:5 @[ crypto_aead/aegis128l/aegis128l_common.h:0 ] ]
	vaesenc	%xmm6, %xmm13, %xmm6
.Ltmp362:
	#DEBUG_VALUE: decrypt_detached:state <- [DW_OP_LLVM_fragment 256 128] $xmm6
	.loc	5 52 16                         # crypto_aead/aegis128l/aegis128l_aesni.c:52:16 @[ crypto_aead/aegis128l/aegis128l_common.h:154:5 @[ crypto_aead/aegis128l/aegis128l_common.h:0 ] ]
	vaesenc	%xmm13, %xmm3, %xmm13
.Ltmp363:
	#DEBUG_VALUE: decrypt_detached:state <- [DW_OP_LLVM_fragment 128 128] $xmm13
	.loc	5 55 16                         # crypto_aead/aegis128l/aegis128l_aesni.c:55:16 @[ crypto_aead/aegis128l/aegis128l_common.h:154:5 @[ crypto_aead/aegis128l/aegis128l_common.h:0 ] ]
	vpxor	256(%rsp), %xmm0, %xmm8
.Ltmp364:
	#DEBUG_VALUE: decrypt_detached:state <- [DW_OP_LLVM_fragment 0 128] $xmm8
	.loc	5 56 16                         # crypto_aead/aegis128l/aegis128l_aesni.c:56:16 @[ crypto_aead/aegis128l/aegis128l_common.h:154:5 @[ crypto_aead/aegis128l/aegis128l_common.h:0 ] ]
	vpxor	272(%rsp), %xmm2, %xmm5
.Ltmp365:
	#DEBUG_VALUE: decrypt_detached:state <- [DW_OP_LLVM_fragment 512 128] $xmm5
.LBB1_24:
	#DEBUG_VALUE: decrypt_detached:m <- $r14
	#DEBUG_VALUE: decrypt_detached:c <- [DW_OP_LLVM_entry_value 1] $rsi
	#DEBUG_VALUE: decrypt_detached:clen <- $r12
	#DEBUG_VALUE: decrypt_detached:mac <- [DW_OP_plus_uconst 168] [$rsp+0]
	#DEBUG_VALUE: decrypt_detached:maclen <- [DW_OP_plus_uconst 184] [$rsp+0]
	#DEBUG_VALUE: decrypt_detached:ad <- [DW_OP_LLVM_entry_value 1] $r9
	#DEBUG_VALUE: decrypt_detached:adlen <- [DW_OP_plus_uconst 16] [$rbp+0]
	#DEBUG_VALUE: decrypt_detached:npub <- [DW_OP_plus_uconst 24] [$rbp+0]
	#DEBUG_VALUE: decrypt_detached:k <- [DW_OP_plus_uconst 32] [$rbp+0]
	#DEBUG_VALUE: decrypt_detached:state <- [DW_OP_LLVM_fragment 512 128] $xmm5
	#DEBUG_VALUE: decrypt_detached:state <- [DW_OP_LLVM_fragment 896 128] $xmm9
	#DEBUG_VALUE: decrypt_detached:state <- [DW_OP_LLVM_fragment 768 128] $xmm11
	#DEBUG_VALUE: decrypt_detached:state <- [DW_OP_LLVM_fragment 640 128] $xmm12
	#DEBUG_VALUE: decrypt_detached:state <- [DW_OP_LLVM_fragment 384 128] $xmm10
	#DEBUG_VALUE: decrypt_detached:state <- [DW_OP_LLVM_fragment 256 128] $xmm6
	#DEBUG_VALUE: decrypt_detached:state <- [DW_OP_LLVM_fragment 128 128] $xmm13
	#DEBUG_VALUE: decrypt_detached:state <- [DW_OP_LLVM_fragment 0 128] $xmm8
	#DEBUG_VALUE: decrypt_detached:state <- [DW_OP_LLVM_fragment 0 128] $xmm8
	#DEBUG_VALUE: decrypt_detached:state <- [DW_OP_LLVM_fragment 128 128] $xmm13
	#DEBUG_VALUE: decrypt_detached:state <- [DW_OP_LLVM_fragment 256 128] $xmm6
	#DEBUG_VALUE: decrypt_detached:state <- [DW_OP_LLVM_fragment 384 128] $xmm10
	#DEBUG_VALUE: decrypt_detached:state <- [DW_OP_LLVM_fragment 512 128] $xmm5
	#DEBUG_VALUE: decrypt_detached:state <- [DW_OP_LLVM_fragment 640 128] $xmm12
	#DEBUG_VALUE: decrypt_detached:state <- [DW_OP_LLVM_fragment 768 128] $xmm11
	#DEBUG_VALUE: decrypt_detached:state <- [DW_OP_LLVM_fragment 896 128] $xmm9
	#DEBUG_VALUE: aegis128l_mac:mac <- [DW_OP_plus_uconst 256, DW_OP_stack_value] $rsp
	#DEBUG_VALUE: aegis128l_mac:maclen <- [DW_OP_plus_uconst 184, DW_OP_deref] $rsp
	#DEBUG_VALUE: aegis128l_mac:adlen <- $r15
	#DEBUG_VALUE: aegis128l_mac:mlen <- $r12
	#DEBUG_VALUE: aegis128l_mac:state <- undef
	.loc	6 41 96                         # crypto_aead/aegis128l/aegis128l_common.h:41:96 @[ crypto_aead/aegis128l/aegis128l_common.h:237:5 ]
	vmovq	%r12, %xmm0
	vmovq	%r15, %xmm1
	vpunpcklqdq	%xmm0, %xmm1, %xmm0     # xmm0 = xmm1[0],xmm0[0]
	vpsllq	$3, %xmm0, %xmm0
.Ltmp366:
	#DEBUG_VALUE: aegis128l_mac:tmp <- undef
	.loc	6 42 11                         # crypto_aead/aegis128l/aegis128l_common.h:42:11 @[ crypto_aead/aegis128l/aegis128l_common.h:237:5 ]
	vpxor	%xmm0, %xmm6, %xmm0
.Ltmp367:
	#DEBUG_VALUE: aegis128l_mac:tmp <- $xmm0
	#DEBUG_VALUE: aegis128l_update:d1 <- $xmm0
	#DEBUG_VALUE: aegis128l_update:d2 <- $xmm0
	#DEBUG_VALUE: aegis128l_mac:i <- 0
	#DEBUG_VALUE: aegis128l_update:state <- undef
	#DEBUG_VALUE: aegis128l_update:tmp <- $xmm9
	.loc	5 46 16                         # crypto_aead/aegis128l/aegis128l_aesni.c:46:16 @[ crypto_aead/aegis128l/aegis128l_common.h:45:9 @[ crypto_aead/aegis128l/aegis128l_common.h:237:5 ] ]
	vaesenc	%xmm9, %xmm11, %xmm1
	.loc	5 47 16                         # crypto_aead/aegis128l/aegis128l_aesni.c:47:16 @[ crypto_aead/aegis128l/aegis128l_common.h:45:9 @[ crypto_aead/aegis128l/aegis128l_common.h:237:5 ] ]
	vaesenc	%xmm11, %xmm12, %xmm2
	.loc	5 48 16                         # crypto_aead/aegis128l/aegis128l_aesni.c:48:16 @[ crypto_aead/aegis128l/aegis128l_common.h:45:9 @[ crypto_aead/aegis128l/aegis128l_common.h:237:5 ] ]
	vaesenc	%xmm12, %xmm5, %xmm3
	.loc	5 49 16                         # crypto_aead/aegis128l/aegis128l_aesni.c:49:16 @[ crypto_aead/aegis128l/aegis128l_common.h:45:9 @[ crypto_aead/aegis128l/aegis128l_common.h:237:5 ] ]
	vaesenc	%xmm5, %xmm10, %xmm4
	.loc	5 50 16                         # crypto_aead/aegis128l/aegis128l_aesni.c:50:16 @[ crypto_aead/aegis128l/aegis128l_common.h:45:9 @[ crypto_aead/aegis128l/aegis128l_common.h:237:5 ] ]
	vaesenc	%xmm10, %xmm6, %xmm5
.Ltmp368:
	.loc	5 51 16                         # crypto_aead/aegis128l/aegis128l_aesni.c:51:16 @[ crypto_aead/aegis128l/aegis128l_common.h:45:9 @[ crypto_aead/aegis128l/aegis128l_common.h:237:5 ] ]
	vaesenc	%xmm6, %xmm13, %xmm6
.Ltmp369:
	.loc	5 52 16                         # crypto_aead/aegis128l/aegis128l_aesni.c:52:16 @[ crypto_aead/aegis128l/aegis128l_common.h:45:9 @[ crypto_aead/aegis128l/aegis128l_common.h:237:5 ] ]
	vaesenc	%xmm13, %xmm8, %xmm7
	.loc	5 53 16                         # crypto_aead/aegis128l/aegis128l_aesni.c:53:16 @[ crypto_aead/aegis128l/aegis128l_common.h:45:9 @[ crypto_aead/aegis128l/aegis128l_common.h:237:5 ] ]
	vaesenc	%xmm8, %xmm9, %xmm8
.Ltmp370:
	.loc	5 55 16                         # crypto_aead/aegis128l/aegis128l_aesni.c:55:16 @[ crypto_aead/aegis128l/aegis128l_common.h:45:9 @[ crypto_aead/aegis128l/aegis128l_common.h:237:5 ] ]
	vpxor	%xmm0, %xmm8, %xmm8
	.loc	5 56 16                         # crypto_aead/aegis128l/aegis128l_aesni.c:56:16 @[ crypto_aead/aegis128l/aegis128l_common.h:45:9 @[ crypto_aead/aegis128l/aegis128l_common.h:237:5 ] ]
	vpxor	%xmm0, %xmm4, %xmm4
.Ltmp371:
	#DEBUG_VALUE: aegis128l_mac:i <- 1
	#DEBUG_VALUE: aegis128l_update:tmp <- $xmm1
	.loc	5 46 16                         # crypto_aead/aegis128l/aegis128l_aesni.c:46:16 @[ crypto_aead/aegis128l/aegis128l_common.h:45:9 @[ crypto_aead/aegis128l/aegis128l_common.h:237:5 ] ]
	vaesenc	%xmm1, %xmm2, %xmm9
.Ltmp372:
	.loc	5 47 16                         # crypto_aead/aegis128l/aegis128l_aesni.c:47:16 @[ crypto_aead/aegis128l/aegis128l_common.h:45:9 @[ crypto_aead/aegis128l/aegis128l_common.h:237:5 ] ]
	vaesenc	%xmm2, %xmm3, %xmm2
	.loc	5 48 16                         # crypto_aead/aegis128l/aegis128l_aesni.c:48:16 @[ crypto_aead/aegis128l/aegis128l_common.h:45:9 @[ crypto_aead/aegis128l/aegis128l_common.h:237:5 ] ]
	vaesenc	%xmm3, %xmm4, %xmm3
	.loc	5 49 16                         # crypto_aead/aegis128l/aegis128l_aesni.c:49:16 @[ crypto_aead/aegis128l/aegis128l_common.h:45:9 @[ crypto_aead/aegis128l/aegis128l_common.h:237:5 ] ]
	vaesenc	%xmm4, %xmm5, %xmm4
	.loc	5 50 16                         # crypto_aead/aegis128l/aegis128l_aesni.c:50:16 @[ crypto_aead/aegis128l/aegis128l_common.h:45:9 @[ crypto_aead/aegis128l/aegis128l_common.h:237:5 ] ]
	vaesenc	%xmm5, %xmm6, %xmm5
	.loc	5 51 16                         # crypto_aead/aegis128l/aegis128l_aesni.c:51:16 @[ crypto_aead/aegis128l/aegis128l_common.h:45:9 @[ crypto_aead/aegis128l/aegis128l_common.h:237:5 ] ]
	vaesenc	%xmm6, %xmm7, %xmm6
	.loc	5 52 16                         # crypto_aead/aegis128l/aegis128l_aesni.c:52:16 @[ crypto_aead/aegis128l/aegis128l_common.h:45:9 @[ crypto_aead/aegis128l/aegis128l_common.h:237:5 ] ]
	vaesenc	%xmm7, %xmm8, %xmm7
	.loc	5 53 16                         # crypto_aead/aegis128l/aegis128l_aesni.c:53:16 @[ crypto_aead/aegis128l/aegis128l_common.h:45:9 @[ crypto_aead/aegis128l/aegis128l_common.h:237:5 ] ]
	vaesenc	%xmm8, %xmm1, %xmm1
.Ltmp373:
	.loc	5 55 16                         # crypto_aead/aegis128l/aegis128l_aesni.c:55:16 @[ crypto_aead/aegis128l/aegis128l_common.h:45:9 @[ crypto_aead/aegis128l/aegis128l_common.h:237:5 ] ]
	vpxor	%xmm0, %xmm1, %xmm1
	.loc	5 56 16                         # crypto_aead/aegis128l/aegis128l_aesni.c:56:16 @[ crypto_aead/aegis128l/aegis128l_common.h:45:9 @[ crypto_aead/aegis128l/aegis128l_common.h:237:5 ] ]
	vpxor	%xmm0, %xmm4, %xmm4
.Ltmp374:
	#DEBUG_VALUE: aegis128l_mac:i <- 2
	#DEBUG_VALUE: aegis128l_update:tmp <- $xmm9
	.loc	5 46 16                         # crypto_aead/aegis128l/aegis128l_aesni.c:46:16 @[ crypto_aead/aegis128l/aegis128l_common.h:45:9 @[ crypto_aead/aegis128l/aegis128l_common.h:237:5 ] ]
	vaesenc	%xmm9, %xmm2, %xmm8
	.loc	5 47 16                         # crypto_aead/aegis128l/aegis128l_aesni.c:47:16 @[ crypto_aead/aegis128l/aegis128l_common.h:45:9 @[ crypto_aead/aegis128l/aegis128l_common.h:237:5 ] ]
	vaesenc	%xmm2, %xmm3, %xmm2
	.loc	5 48 16                         # crypto_aead/aegis128l/aegis128l_aesni.c:48:16 @[ crypto_aead/aegis128l/aegis128l_common.h:45:9 @[ crypto_aead/aegis128l/aegis128l_common.h:237:5 ] ]
	vaesenc	%xmm3, %xmm4, %xmm3
	.loc	5 49 16                         # crypto_aead/aegis128l/aegis128l_aesni.c:49:16 @[ crypto_aead/aegis128l/aegis128l_common.h:45:9 @[ crypto_aead/aegis128l/aegis128l_common.h:237:5 ] ]
	vaesenc	%xmm4, %xmm5, %xmm4
	.loc	5 50 16                         # crypto_aead/aegis128l/aegis128l_aesni.c:50:16 @[ crypto_aead/aegis128l/aegis128l_common.h:45:9 @[ crypto_aead/aegis128l/aegis128l_common.h:237:5 ] ]
	vaesenc	%xmm5, %xmm6, %xmm5
	.loc	5 51 16                         # crypto_aead/aegis128l/aegis128l_aesni.c:51:16 @[ crypto_aead/aegis128l/aegis128l_common.h:45:9 @[ crypto_aead/aegis128l/aegis128l_common.h:237:5 ] ]
	vaesenc	%xmm6, %xmm7, %xmm6
	.loc	5 52 16                         # crypto_aead/aegis128l/aegis128l_aesni.c:52:16 @[ crypto_aead/aegis128l/aegis128l_common.h:45:9 @[ crypto_aead/aegis128l/aegis128l_common.h:237:5 ] ]
	vaesenc	%xmm7, %xmm1, %xmm7
	.loc	5 53 16                         # crypto_aead/aegis128l/aegis128l_aesni.c:53:16 @[ crypto_aead/aegis128l/aegis128l_common.h:45:9 @[ crypto_aead/aegis128l/aegis128l_common.h:237:5 ] ]
	vaesenc	%xmm1, %xmm9, %xmm1
	.loc	5 55 16                         # crypto_aead/aegis128l/aegis128l_aesni.c:55:16 @[ crypto_aead/aegis128l/aegis128l_common.h:45:9 @[ crypto_aead/aegis128l/aegis128l_common.h:237:5 ] ]
	vpxor	%xmm0, %xmm1, %xmm1
	.loc	5 56 16                         # crypto_aead/aegis128l/aegis128l_aesni.c:56:16 @[ crypto_aead/aegis128l/aegis128l_common.h:45:9 @[ crypto_aead/aegis128l/aegis128l_common.h:237:5 ] ]
	vpxor	%xmm0, %xmm4, %xmm4
.Ltmp375:
	#DEBUG_VALUE: aegis128l_mac:i <- 3
	#DEBUG_VALUE: aegis128l_update:tmp <- $xmm8
	.loc	5 46 16                         # crypto_aead/aegis128l/aegis128l_aesni.c:46:16 @[ crypto_aead/aegis128l/aegis128l_common.h:45:9 @[ crypto_aead/aegis128l/aegis128l_common.h:237:5 ] ]
	vaesenc	%xmm8, %xmm2, %xmm9
	.loc	5 47 16                         # crypto_aead/aegis128l/aegis128l_aesni.c:47:16 @[ crypto_aead/aegis128l/aegis128l_common.h:45:9 @[ crypto_aead/aegis128l/aegis128l_common.h:237:5 ] ]
	vaesenc	%xmm2, %xmm3, %xmm2
	.loc	5 48 16                         # crypto_aead/aegis128l/aegis128l_aesni.c:48:16 @[ crypto_aead/aegis128l/aegis128l_common.h:45:9 @[ crypto_aead/aegis128l/aegis128l_common.h:237:5 ] ]
	vaesenc	%xmm3, %xmm4, %xmm3
	.loc	5 49 16                         # crypto_aead/aegis128l/aegis128l_aesni.c:49:16 @[ crypto_aead/aegis128l/aegis128l_common.h:45:9 @[ crypto_aead/aegis128l/aegis128l_common.h:237:5 ] ]
	vaesenc	%xmm4, %xmm5, %xmm4
	.loc	5 50 16                         # crypto_aead/aegis128l/aegis128l_aesni.c:50:16 @[ crypto_aead/aegis128l/aegis128l_common.h:45:9 @[ crypto_aead/aegis128l/aegis128l_common.h:237:5 ] ]
	vaesenc	%xmm5, %xmm6, %xmm5
	.loc	5 51 16                         # crypto_aead/aegis128l/aegis128l_aesni.c:51:16 @[ crypto_aead/aegis128l/aegis128l_common.h:45:9 @[ crypto_aead/aegis128l/aegis128l_common.h:237:5 ] ]
	vaesenc	%xmm6, %xmm7, %xmm6
	.loc	5 52 16                         # crypto_aead/aegis128l/aegis128l_aesni.c:52:16 @[ crypto_aead/aegis128l/aegis128l_common.h:45:9 @[ crypto_aead/aegis128l/aegis128l_common.h:237:5 ] ]
	vaesenc	%xmm7, %xmm1, %xmm7
	.loc	5 53 16                         # crypto_aead/aegis128l/aegis128l_aesni.c:53:16 @[ crypto_aead/aegis128l/aegis128l_common.h:45:9 @[ crypto_aead/aegis128l/aegis128l_common.h:237:5 ] ]
	vaesenc	%xmm1, %xmm8, %xmm1
	.loc	5 55 16                         # crypto_aead/aegis128l/aegis128l_aesni.c:55:16 @[ crypto_aead/aegis128l/aegis128l_common.h:45:9 @[ crypto_aead/aegis128l/aegis128l_common.h:237:5 ] ]
	vpxor	%xmm0, %xmm1, %xmm1
	.loc	5 56 16                         # crypto_aead/aegis128l/aegis128l_aesni.c:56:16 @[ crypto_aead/aegis128l/aegis128l_common.h:45:9 @[ crypto_aead/aegis128l/aegis128l_common.h:237:5 ] ]
	vpxor	%xmm0, %xmm4, %xmm4
.Ltmp376:
	#DEBUG_VALUE: aegis128l_mac:i <- 4
	#DEBUG_VALUE: aegis128l_update:tmp <- $xmm9
	.loc	5 46 16                         # crypto_aead/aegis128l/aegis128l_aesni.c:46:16 @[ crypto_aead/aegis128l/aegis128l_common.h:45:9 @[ crypto_aead/aegis128l/aegis128l_common.h:237:5 ] ]
	vaesenc	%xmm9, %xmm2, %xmm8
	.loc	5 47 16                         # crypto_aead/aegis128l/aegis128l_aesni.c:47:16 @[ crypto_aead/aegis128l/aegis128l_common.h:45:9 @[ crypto_aead/aegis128l/aegis128l_common.h:237:5 ] ]
	vaesenc	%xmm2, %xmm3, %xmm2
	.loc	5 48 16                         # crypto_aead/aegis128l/aegis128l_aesni.c:48:16 @[ crypto_aead/aegis128l/aegis128l_common.h:45:9 @[ crypto_aead/aegis128l/aegis128l_common.h:237:5 ] ]
	vaesenc	%xmm3, %xmm4, %xmm10
.Ltmp377:
	.loc	5 49 16                         # crypto_aead/aegis128l/aegis128l_aesni.c:49:16 @[ crypto_aead/aegis128l/aegis128l_common.h:45:9 @[ crypto_aead/aegis128l/aegis128l_common.h:237:5 ] ]
	vaesenc	%xmm4, %xmm5, %xmm3
	.loc	5 50 16                         # crypto_aead/aegis128l/aegis128l_aesni.c:50:16 @[ crypto_aead/aegis128l/aegis128l_common.h:45:9 @[ crypto_aead/aegis128l/aegis128l_common.h:237:5 ] ]
	vaesenc	%xmm5, %xmm6, %xmm5
