	.file	"aegis128l_soft.c"
	.file	0 "/home/leizhenyuu/opt/Anonymous_Repo/libsodium_o2_attr_inline/src/libsodium" "aegis128l_soft.c" md5 0xf7f11f91e84d854a8897b8af8baa91f9
	.file	1 "/usr/include/x86_64-linux-gnu/bits" "types.h"
	.file	2 "/usr/include/x86_64-linux-gnu/bits" "stdint-uintn.h"
	.file	3 "/home/leizhenyuu/opt/Anonymous_Repo" "llvm-project/build/lib/clang/21/include/__stddef_size_t.h"
	.file	4 "crypto_aead/aegis128l" "implementations.h"
	.file	5 "crypto_aead/aegis128l" "aegis128l_soft.c"
	.file	6 "crypto_aead/aegis128l" "aegis128l_common.h"
	.text
	.p2align	4                               # -- Begin function encrypt_detached
	.type	encrypt_detached,@function
encrypt_detached:                       # @encrypt_detached
.Lfunc_begin0:
	.loc	6 160 0                         # crypto_aead/aegis128l/aegis128l_common.h:160:0
	.cfi_startproc
# %bb.0:
	#DEBUG_VALUE: encrypt_detached:c <- $rdi
	#DEBUG_VALUE: encrypt_detached:mac <- $rsi
	#DEBUG_VALUE: encrypt_detached:maclen <- $rdx
	#DEBUG_VALUE: encrypt_detached:m <- $rcx
	#DEBUG_VALUE: encrypt_detached:mlen <- $r8
	#DEBUG_VALUE: encrypt_detached:ad <- $r9
	pushq	%rbp
	.cfi_def_cfa_offset 16
	.cfi_offset %rbp, -16
	movq	%rsp, %rbp
	.cfi_def_cfa_register %rbp
	pushq	%r15
	pushq	%r14
	pushq	%r13
	pushq	%r12
	pushq	%rbx
	andq	$-32, %rsp
	subq	$512, %rsp                      # imm = 0x200
	.cfi_offset %rbx, -56
	.cfi_offset %r12, -48
	.cfi_offset %r13, -40
	.cfi_offset %r14, -32
	.cfi_offset %r15, -24
.Ltmp0:
	#DEBUG_VALUE: encrypt_detached:adlen <- [DW_OP_plus_uconst 16] [$rbp+0]
	#DEBUG_VALUE: encrypt_detached:npub <- [DW_OP_plus_uconst 24] [$rbp+0]
	#DEBUG_VALUE: encrypt_detached:k <- [DW_OP_plus_uconst 32] [$rbp+0]
	movq	%r9, 296(%rsp)                  # 8-byte Spill
.Ltmp1:
	#DEBUG_VALUE: encrypt_detached:ad <- [DW_OP_plus_uconst 296] [$rsp+0]
	movq	%r8, %r13
	movq	%rcx, 368(%rsp)                 # 8-byte Spill
.Ltmp2:
	#DEBUG_VALUE: encrypt_detached:m <- [DW_OP_plus_uconst 368] [$rsp+0]
	movq	%rdx, 392(%rsp)                 # 8-byte Spill
.Ltmp3:
	#DEBUG_VALUE: encrypt_detached:maclen <- [DW_OP_plus_uconst 392] [$rsp+0]
	movq	%rsi, 384(%rsp)                 # 8-byte Spill
.Ltmp4:
	#DEBUG_VALUE: encrypt_detached:mac <- [DW_OP_plus_uconst 384] [$rsp+0]
	movq	%rdi, %r14
	movq	16(%rbp), %rbx
	movq	32(%rbp), %rdi
.Ltmp5:
	#DEBUG_VALUE: encrypt_detached:c <- $r14
	movq	24(%rbp), %rsi
	movq	%fs:40, %rax
	movq	%rax, 480(%rsp)
.Ltmp6:
	#DEBUG_VALUE: encrypt_detached:state <- [DW_OP_plus_uconst 128, DW_OP_deref] $rsp
	leaq	128(%rsp), %rdx
.Ltmp7:
	.loc	6 166 5 prologue_end            # crypto_aead/aegis128l/aegis128l_common.h:166:5
	callq	aegis128l_init
.Ltmp8:
	#DEBUG_VALUE: encrypt_detached:mlen <- $r13
	#DEBUG_VALUE: encrypt_detached:i <- 0
	.loc	6 168 28                        # crypto_aead/aegis128l/aegis128l_common.h:168:28
	cmpq	$64, %rbx
	movq	%r14, 376(%rsp)                 # 8-byte Spill
.Ltmp9:
	#DEBUG_VALUE: encrypt_detached:c <- [DW_OP_plus_uconst 376] [$rsp+0]
	.loc	6 0 28 is_stmt 0                # crypto_aead/aegis128l/aegis128l_common.h:0:28
	movq	%r13, 360(%rsp)                 # 8-byte Spill
.Ltmp10:
	#DEBUG_VALUE: encrypt_detached:mlen <- [DW_OP_plus_uconst 360] [$rsp+0]
	.loc	6 168 5                         # crypto_aead/aegis128l/aegis128l_common.h:168:5
	jae	.LBB0_11
.Ltmp11:
# %bb.1:
	#DEBUG_VALUE: encrypt_detached:c <- [DW_OP_plus_uconst 376] [$rsp+0]
	#DEBUG_VALUE: encrypt_detached:mac <- [DW_OP_plus_uconst 384] [$rsp+0]
	#DEBUG_VALUE: encrypt_detached:maclen <- [DW_OP_plus_uconst 392] [$rsp+0]
	#DEBUG_VALUE: encrypt_detached:m <- [DW_OP_plus_uconst 368] [$rsp+0]
	#DEBUG_VALUE: encrypt_detached:mlen <- [DW_OP_plus_uconst 360] [$rsp+0]
	#DEBUG_VALUE: encrypt_detached:ad <- [DW_OP_plus_uconst 296] [$rsp+0]
	#DEBUG_VALUE: encrypt_detached:adlen <- [DW_OP_plus_uconst 16] [$rbp+0]
	#DEBUG_VALUE: encrypt_detached:npub <- [DW_OP_plus_uconst 24] [$rbp+0]
	#DEBUG_VALUE: encrypt_detached:k <- [DW_OP_plus_uconst 32] [$rbp+0]
	#DEBUG_VALUE: encrypt_detached:state <- [DW_OP_plus_uconst 128, DW_OP_deref] $rsp
	#DEBUG_VALUE: encrypt_detached:i <- 0
	.loc	6 0 5                           # crypto_aead/aegis128l/aegis128l_common.h:0:5
	movq	%rbx, %rdx
	xorl	%r8d, %r8d
	jmp	.LBB0_3
.Ltmp12:
.LBB0_11:                               # %.lr.ph
	#DEBUG_VALUE: encrypt_detached:c <- [DW_OP_plus_uconst 376] [$rsp+0]
	#DEBUG_VALUE: encrypt_detached:mac <- [DW_OP_plus_uconst 384] [$rsp+0]
	#DEBUG_VALUE: encrypt_detached:maclen <- [DW_OP_plus_uconst 392] [$rsp+0]
	#DEBUG_VALUE: encrypt_detached:m <- [DW_OP_plus_uconst 368] [$rsp+0]
	#DEBUG_VALUE: encrypt_detached:mlen <- [DW_OP_plus_uconst 360] [$rsp+0]
	#DEBUG_VALUE: encrypt_detached:ad <- [DW_OP_plus_uconst 296] [$rsp+0]
	#DEBUG_VALUE: encrypt_detached:adlen <- [DW_OP_plus_uconst 16] [$rbp+0]
	#DEBUG_VALUE: encrypt_detached:npub <- [DW_OP_plus_uconst 24] [$rbp+0]
	#DEBUG_VALUE: encrypt_detached:k <- [DW_OP_plus_uconst 32] [$rbp+0]
	#DEBUG_VALUE: encrypt_detached:state <- [DW_OP_plus_uconst 128, DW_OP_deref] $rsp
	#DEBUG_VALUE: encrypt_detached:i <- 0
	movq	128(%rsp), %rsi
	movq	136(%rsp), %rdi
	movq	240(%rsp), %rax
	movq	%rax, 48(%rsp)                  # 8-byte Spill
	movq	248(%rsp), %rax
	movq	%rax, 56(%rsp)                  # 8-byte Spill
	movq	224(%rsp), %rax
	movq	%rax, 96(%rsp)                  # 8-byte Spill
	movq	232(%rsp), %rax
	movq	%rax, 16(%rsp)                  # 8-byte Spill
	movq	208(%rsp), %rax
	movq	%rax, 40(%rsp)                  # 8-byte Spill
	movq	216(%rsp), %rax
	movq	%rax, 32(%rsp)                  # 8-byte Spill
	movq	192(%rsp), %rax
	movq	%rax, 112(%rsp)                 # 8-byte Spill
	movq	200(%rsp), %r13
	movq	176(%rsp), %rax
	movq	%rax, 104(%rsp)                 # 8-byte Spill
	movq	184(%rsp), %rax
	movq	%rax, 24(%rsp)                  # 8-byte Spill
	movq	160(%rsp), %rax
	movq	%rax, 80(%rsp)                  # 8-byte Spill
	movq	168(%rsp), %rax
	movq	%rax, 88(%rsp)                  # 8-byte Spill
	movq	144(%rsp), %rax
	movq	%rax, 64(%rsp)                  # 8-byte Spill
	movq	152(%rsp), %rax
	movq	%rax, 72(%rsp)                  # 8-byte Spill
	xorl	%r8d, %r8d
.Ltmp13:
	.p2align	4
.LBB0_12:                               # =>This Inner Loop Header: Depth=1
	#DEBUG_VALUE: encrypt_detached:c <- [DW_OP_plus_uconst 376] [$rsp+0]
	#DEBUG_VALUE: encrypt_detached:mac <- [DW_OP_plus_uconst 384] [$rsp+0]
	#DEBUG_VALUE: encrypt_detached:maclen <- [DW_OP_plus_uconst 392] [$rsp+0]
	#DEBUG_VALUE: encrypt_detached:m <- [DW_OP_plus_uconst 368] [$rsp+0]
	#DEBUG_VALUE: encrypt_detached:mlen <- [DW_OP_plus_uconst 360] [$rsp+0]
	#DEBUG_VALUE: encrypt_detached:ad <- [DW_OP_plus_uconst 296] [$rsp+0]
	#DEBUG_VALUE: encrypt_detached:adlen <- [DW_OP_plus_uconst 16] [$rbp+0]
	#DEBUG_VALUE: encrypt_detached:npub <- [DW_OP_plus_uconst 24] [$rbp+0]
	#DEBUG_VALUE: encrypt_detached:k <- [DW_OP_plus_uconst 32] [$rbp+0]
	movq	%rsi, 400(%rsp)                 # 8-byte Spill
	movq	%rdi, 408(%rsp)                 # 8-byte Spill
.Ltmp14:
	#DEBUG_VALUE: encrypt_detached:i <- $r8
	#DEBUG_VALUE: aegis128l_absorb2:src <- [DW_OP_LLVM_arg 0, DW_OP_consts 64, DW_OP_div, DW_OP_consts 64, DW_OP_mul, DW_OP_LLVM_arg 1, DW_OP_plus_uconst 296, DW_OP_deref, DW_OP_plus, DW_OP_stack_value] $r8, $rsp
	#DEBUG_VALUE: aegis128l_absorb2:state <- [DW_OP_plus_uconst 128, DW_OP_stack_value] $rsp
	#DEBUG_VALUE: softaes_block_load:in <- [DW_OP_LLVM_arg 0, DW_OP_consts 64, DW_OP_div, DW_OP_consts 64, DW_OP_mul, DW_OP_LLVM_arg 1, DW_OP_plus_uconst 296, DW_OP_deref, DW_OP_plus, DW_OP_stack_value] $r8, $rsp
	#DEBUG_VALUE: load32_le:w <- undef
	#DEBUG_VALUE: load32_le:src <- [DW_OP_LLVM_arg 0, DW_OP_consts 64, DW_OP_div, DW_OP_consts 64, DW_OP_mul, DW_OP_LLVM_arg 1, DW_OP_plus_uconst 296, DW_OP_deref, DW_OP_plus, DW_OP_stack_value] $r8, $rsp
	#DEBUG_VALUE: memcpy:__dest <- undef
	#DEBUG_VALUE: memcpy:__src <- [DW_OP_LLVM_arg 0, DW_OP_consts 64, DW_OP_div, DW_OP_consts 64, DW_OP_mul, DW_OP_LLVM_arg 1, DW_OP_plus_uconst 296, DW_OP_deref, DW_OP_plus, DW_OP_stack_value] $r8, $rsp
	#DEBUG_VALUE: memcpy:__len <- 4
	movq	%r8, 320(%rsp)                  # 8-byte Spill
.Ltmp15:
	#DEBUG_VALUE: memcpy:__src <- [DW_OP_LLVM_arg 0, DW_OP_plus_uconst 320, DW_OP_deref, DW_OP_consts 64, DW_OP_div, DW_OP_consts 64, DW_OP_mul, DW_OP_LLVM_arg 1, DW_OP_plus_uconst 296, DW_OP_deref, DW_OP_plus, DW_OP_stack_value] $rsp, $rsp
	#DEBUG_VALUE: load32_le:src <- [DW_OP_LLVM_arg 0, DW_OP_plus_uconst 320, DW_OP_deref, DW_OP_consts 64, DW_OP_div, DW_OP_consts 64, DW_OP_mul, DW_OP_LLVM_arg 1, DW_OP_plus_uconst 296, DW_OP_deref, DW_OP_plus, DW_OP_stack_value] $rsp, $rsp
	#DEBUG_VALUE: softaes_block_load:in <- [DW_OP_LLVM_arg 0, DW_OP_plus_uconst 320, DW_OP_deref, DW_OP_consts 64, DW_OP_div, DW_OP_consts 64, DW_OP_mul, DW_OP_LLVM_arg 1, DW_OP_plus_uconst 296, DW_OP_deref, DW_OP_plus, DW_OP_stack_value] $rsp, $rsp
	#DEBUG_VALUE: aegis128l_absorb2:src <- [DW_OP_LLVM_arg 0, DW_OP_plus_uconst 320, DW_OP_deref, DW_OP_consts 64, DW_OP_div, DW_OP_consts 64, DW_OP_mul, DW_OP_LLVM_arg 1, DW_OP_plus_uconst 296, DW_OP_deref, DW_OP_plus, DW_OP_stack_value] $rsp, $rsp
	#DEBUG_VALUE: encrypt_detached:i <- [DW_OP_plus_uconst 320, DW_OP_deref] $rsp
	movq	296(%rsp), %rax                 # 8-byte Reload
.Ltmp16:
	.file	7 "/usr/include/x86_64-linux-gnu/bits" "string_fortified.h"
	.loc	7 29 10 is_stmt 1               # /usr/include/x86_64-linux-gnu/bits/string_fortified.h:29:10 @[ ./include/sodium/private/common.h:106:5 @[ ./include/sodium/private/softaes.h:20:32 @[ crypto_aead/aegis128l/aegis128l_common.h:80:12 @[ crypto_aead/aegis128l/aegis128l_common.h:169:9 ] ] ] ]
	movq	(%rax,%r8), %rcx
.Ltmp17:
	#DEBUG_VALUE: softaes_block_load:out <- [DW_OP_LLVM_fragment 0 32] undef
	#DEBUG_VALUE: load32_le:w <- undef
	#DEBUG_VALUE: memcpy:__dest <- undef
	#DEBUG_VALUE: memcpy:__len <- 4
	#DEBUG_VALUE: softaes_block_load:out <- [DW_OP_LLVM_fragment 32 32] undef
	#DEBUG_VALUE: load32_le:w <- undef
	#DEBUG_VALUE: load32_le:src <- [DW_OP_LLVM_arg 0, DW_OP_plus_uconst 320, DW_OP_deref, DW_OP_consts 64, DW_OP_div, DW_OP_consts 64, DW_OP_mul, DW_OP_consts 8, DW_OP_LLVM_arg 1, DW_OP_plus_uconst 296, DW_OP_deref, DW_OP_plus, DW_OP_plus, DW_OP_stack_value] $rsp, $rsp
	#DEBUG_VALUE: memcpy:__dest <- undef
	#DEBUG_VALUE: memcpy:__src <- [DW_OP_LLVM_arg 0, DW_OP_plus_uconst 320, DW_OP_deref, DW_OP_consts 64, DW_OP_div, DW_OP_consts 64, DW_OP_mul, DW_OP_consts 8, DW_OP_LLVM_arg 1, DW_OP_plus_uconst 296, DW_OP_deref, DW_OP_plus, DW_OP_plus, DW_OP_stack_value] $rsp, $rsp
	#DEBUG_VALUE: memcpy:__len <- 4
	.loc	7 0 10 is_stmt 0                # /usr/include/x86_64-linux-gnu/bits/string_fortified.h:0:10
	movq	%rcx, 272(%rsp)                 # 8-byte Spill
.Ltmp18:
	.loc	7 29 10                         # /usr/include/x86_64-linux-gnu/bits/string_fortified.h:29:10 @[ ./include/sodium/private/common.h:106:5 @[ ./include/sodium/private/softaes.h:20:70 @[ crypto_aead/aegis128l/aegis128l_common.h:80:12 @[ crypto_aead/aegis128l/aegis128l_common.h:169:9 ] ] ] ]
	movq	8(%rax,%r8), %rcx
.Ltmp19:
	#DEBUG_VALUE: aegis128l_absorb2:msg0 <- [DW_OP_LLVM_fragment 64 64] $rcx
	#DEBUG_VALUE: softaes_block_load:out <- [DW_OP_LLVM_fragment 64 32] undef
	#DEBUG_VALUE: load32_le:w <- undef
	#DEBUG_VALUE: memcpy:__dest <- undef
	#DEBUG_VALUE: memcpy:__len <- 4
	#DEBUG_VALUE: softaes_block_load:out <- [DW_OP_LLVM_fragment 96 32] undef
	#DEBUG_VALUE: aegis128l_absorb2:msg0 <- [DW_OP_plus_uconst 272, DW_OP_deref, DW_OP_LLVM_fragment 0 64] $rsp
	#DEBUG_VALUE: softaes_block_load:in <- [DW_OP_LLVM_arg 0, DW_OP_plus_uconst 320, DW_OP_deref, DW_OP_consts 64, DW_OP_div, DW_OP_consts 64, DW_OP_mul, DW_OP_consts 16, DW_OP_LLVM_arg 1, DW_OP_plus_uconst 296, DW_OP_deref, DW_OP_plus, DW_OP_plus, DW_OP_stack_value] $rsp, $rsp
	#DEBUG_VALUE: load32_le:w <- undef
	#DEBUG_VALUE: load32_le:src <- [DW_OP_LLVM_arg 0, DW_OP_plus_uconst 320, DW_OP_deref, DW_OP_consts 64, DW_OP_div, DW_OP_consts 64, DW_OP_mul, DW_OP_consts 16, DW_OP_LLVM_arg 1, DW_OP_plus_uconst 296, DW_OP_deref, DW_OP_plus, DW_OP_plus, DW_OP_stack_value] $rsp, $rsp
	#DEBUG_VALUE: memcpy:__dest <- undef
	#DEBUG_VALUE: memcpy:__src <- [DW_OP_LLVM_arg 0, DW_OP_plus_uconst 320, DW_OP_deref, DW_OP_consts 64, DW_OP_div, DW_OP_consts 64, DW_OP_mul, DW_OP_consts 16, DW_OP_LLVM_arg 1, DW_OP_plus_uconst 296, DW_OP_deref, DW_OP_plus, DW_OP_plus, DW_OP_stack_value] $rsp, $rsp
	#DEBUG_VALUE: memcpy:__len <- 4
	.loc	7 0 10                          # /usr/include/x86_64-linux-gnu/bits/string_fortified.h:0:10
	movq	%rcx, 264(%rsp)                 # 8-byte Spill
.Ltmp20:
	#DEBUG_VALUE: aegis128l_absorb2:msg0 <- [DW_OP_plus_uconst 264, DW_OP_deref, DW_OP_LLVM_fragment 64 64] $rsp
	.loc	7 29 10                         # /usr/include/x86_64-linux-gnu/bits/string_fortified.h:29:10 @[ ./include/sodium/private/common.h:106:5 @[ ./include/sodium/private/softaes.h:20:32 @[ crypto_aead/aegis128l/aegis128l_common.h:81:12 @[ crypto_aead/aegis128l/aegis128l_common.h:169:9 ] ] ] ]
	movq	16(%rax,%r8), %rcx
.Ltmp21:
	#DEBUG_VALUE: softaes_block_load:out <- [DW_OP_LLVM_fragment 0 32] undef
	#DEBUG_VALUE: load32_le:w <- undef
	#DEBUG_VALUE: memcpy:__dest <- undef
	#DEBUG_VALUE: memcpy:__len <- 4
	#DEBUG_VALUE: softaes_block_load:out <- [DW_OP_LLVM_fragment 32 32] undef
	#DEBUG_VALUE: load32_le:w <- undef
	#DEBUG_VALUE: load32_le:src <- [DW_OP_LLVM_arg 0, DW_OP_plus_uconst 320, DW_OP_deref, DW_OP_consts 64, DW_OP_div, DW_OP_consts 64, DW_OP_mul, DW_OP_consts 24, DW_OP_LLVM_arg 1, DW_OP_plus_uconst 296, DW_OP_deref, DW_OP_plus, DW_OP_plus, DW_OP_stack_value] $rsp, $rsp
	#DEBUG_VALUE: memcpy:__dest <- undef
	#DEBUG_VALUE: memcpy:__src <- [DW_OP_LLVM_arg 0, DW_OP_plus_uconst 320, DW_OP_deref, DW_OP_consts 64, DW_OP_div, DW_OP_consts 64, DW_OP_mul, DW_OP_consts 24, DW_OP_LLVM_arg 1, DW_OP_plus_uconst 296, DW_OP_deref, DW_OP_plus, DW_OP_plus, DW_OP_stack_value] $rsp, $rsp
	#DEBUG_VALUE: memcpy:__len <- 4
	.loc	7 0 10                          # /usr/include/x86_64-linux-gnu/bits/string_fortified.h:0:10
	movq	%rcx, 304(%rsp)                 # 8-byte Spill
.Ltmp22:
	.loc	7 29 10                         # /usr/include/x86_64-linux-gnu/bits/string_fortified.h:29:10 @[ ./include/sodium/private/common.h:106:5 @[ ./include/sodium/private/softaes.h:20:70 @[ crypto_aead/aegis128l/aegis128l_common.h:81:12 @[ crypto_aead/aegis128l/aegis128l_common.h:169:9 ] ] ] ]
	movq	24(%rax,%r8), %rcx
.Ltmp23:
	#DEBUG_VALUE: aegis128l_absorb2:msg1 <- [DW_OP_LLVM_fragment 64 64] $rcx
	#DEBUG_VALUE: softaes_block_load:out <- [DW_OP_LLVM_fragment 64 32] undef
	#DEBUG_VALUE: load32_le:w <- undef
	#DEBUG_VALUE: memcpy:__dest <- undef
	#DEBUG_VALUE: memcpy:__len <- 4
	#DEBUG_VALUE: softaes_block_load:out <- [DW_OP_LLVM_fragment 96 32] undef
	#DEBUG_VALUE: aegis128l_absorb2:msg1 <- [DW_OP_plus_uconst 304, DW_OP_deref, DW_OP_LLVM_fragment 0 64] $rsp
	#DEBUG_VALUE: softaes_block_load:in <- [DW_OP_LLVM_arg 0, DW_OP_plus_uconst 320, DW_OP_deref, DW_OP_consts 64, DW_OP_div, DW_OP_consts 64, DW_OP_mul, DW_OP_consts 32, DW_OP_LLVM_arg 1, DW_OP_plus_uconst 296, DW_OP_deref, DW_OP_plus, DW_OP_plus, DW_OP_stack_value] $rsp, $rsp
	#DEBUG_VALUE: load32_le:w <- undef
	#DEBUG_VALUE: load32_le:src <- [DW_OP_LLVM_arg 0, DW_OP_plus_uconst 320, DW_OP_deref, DW_OP_consts 64, DW_OP_div, DW_OP_consts 64, DW_OP_mul, DW_OP_consts 32, DW_OP_LLVM_arg 1, DW_OP_plus_uconst 296, DW_OP_deref, DW_OP_plus, DW_OP_plus, DW_OP_stack_value] $rsp, $rsp
	#DEBUG_VALUE: memcpy:__dest <- undef
	#DEBUG_VALUE: memcpy:__src <- [DW_OP_LLVM_arg 0, DW_OP_plus_uconst 320, DW_OP_deref, DW_OP_consts 64, DW_OP_div, DW_OP_consts 64, DW_OP_mul, DW_OP_consts 32, DW_OP_LLVM_arg 1, DW_OP_plus_uconst 296, DW_OP_deref, DW_OP_plus, DW_OP_plus, DW_OP_stack_value] $rsp, $rsp
	#DEBUG_VALUE: memcpy:__len <- 4
	.loc	7 0 10                          # /usr/include/x86_64-linux-gnu/bits/string_fortified.h:0:10
	movq	%rcx, 312(%rsp)                 # 8-byte Spill
.Ltmp24:
	#DEBUG_VALUE: aegis128l_absorb2:msg1 <- [DW_OP_plus_uconst 312, DW_OP_deref, DW_OP_LLVM_fragment 64 64] $rsp
	.loc	7 29 10                         # /usr/include/x86_64-linux-gnu/bits/string_fortified.h:29:10 @[ ./include/sodium/private/common.h:106:5 @[ ./include/sodium/private/softaes.h:20:32 @[ crypto_aead/aegis128l/aegis128l_common.h:82:12 @[ crypto_aead/aegis128l/aegis128l_common.h:169:9 ] ] ] ]
	movq	32(%rax,%r8), %rcx
.Ltmp25:
	#DEBUG_VALUE: softaes_block_load:out <- [DW_OP_LLVM_fragment 0 32] undef
	#DEBUG_VALUE: load32_le:w <- undef
	#DEBUG_VALUE: memcpy:__dest <- undef
	#DEBUG_VALUE: memcpy:__len <- 4
	#DEBUG_VALUE: softaes_block_load:out <- [DW_OP_LLVM_fragment 32 32] undef
	#DEBUG_VALUE: load32_le:w <- undef
	#DEBUG_VALUE: load32_le:src <- [DW_OP_LLVM_arg 0, DW_OP_plus_uconst 320, DW_OP_deref, DW_OP_consts 64, DW_OP_div, DW_OP_consts 64, DW_OP_mul, DW_OP_consts 40, DW_OP_LLVM_arg 1, DW_OP_plus_uconst 296, DW_OP_deref, DW_OP_plus, DW_OP_plus, DW_OP_stack_value] $rsp, $rsp
	#DEBUG_VALUE: memcpy:__dest <- undef
	#DEBUG_VALUE: memcpy:__src <- [DW_OP_LLVM_arg 0, DW_OP_plus_uconst 320, DW_OP_deref, DW_OP_consts 64, DW_OP_div, DW_OP_consts 64, DW_OP_mul, DW_OP_consts 40, DW_OP_LLVM_arg 1, DW_OP_plus_uconst 296, DW_OP_deref, DW_OP_plus, DW_OP_plus, DW_OP_stack_value] $rsp, $rsp
	#DEBUG_VALUE: memcpy:__len <- 4
	.loc	7 0 10                          # /usr/include/x86_64-linux-gnu/bits/string_fortified.h:0:10
	movq	%rcx, 328(%rsp)                 # 8-byte Spill
.Ltmp26:
	.loc	7 29 10                         # /usr/include/x86_64-linux-gnu/bits/string_fortified.h:29:10 @[ ./include/sodium/private/common.h:106:5 @[ ./include/sodium/private/softaes.h:20:70 @[ crypto_aead/aegis128l/aegis128l_common.h:82:12 @[ crypto_aead/aegis128l/aegis128l_common.h:169:9 ] ] ] ]
	movq	40(%rax,%r8), %rcx
.Ltmp27:
	#DEBUG_VALUE: aegis128l_absorb2:msg2 <- [DW_OP_LLVM_fragment 64 64] $rcx
	#DEBUG_VALUE: softaes_block_load:out <- [DW_OP_LLVM_fragment 64 32] undef
	#DEBUG_VALUE: load32_le:w <- undef
	#DEBUG_VALUE: memcpy:__dest <- undef
	#DEBUG_VALUE: memcpy:__len <- 4
	#DEBUG_VALUE: softaes_block_load:out <- [DW_OP_LLVM_fragment 96 32] undef
	#DEBUG_VALUE: aegis128l_absorb2:msg2 <- [DW_OP_plus_uconst 328, DW_OP_deref, DW_OP_LLVM_fragment 0 64] $rsp
	#DEBUG_VALUE: softaes_block_load:in <- [DW_OP_LLVM_arg 0, DW_OP_plus_uconst 320, DW_OP_deref, DW_OP_consts 64, DW_OP_div, DW_OP_consts 64, DW_OP_mul, DW_OP_consts 48, DW_OP_LLVM_arg 1, DW_OP_plus_uconst 296, DW_OP_deref, DW_OP_plus, DW_OP_plus, DW_OP_stack_value] $rsp, $rsp
	#DEBUG_VALUE: load32_le:w <- undef
	#DEBUG_VALUE: load32_le:src <- [DW_OP_LLVM_arg 0, DW_OP_plus_uconst 320, DW_OP_deref, DW_OP_consts 64, DW_OP_div, DW_OP_consts 64, DW_OP_mul, DW_OP_consts 48, DW_OP_LLVM_arg 1, DW_OP_plus_uconst 296, DW_OP_deref, DW_OP_plus, DW_OP_plus, DW_OP_stack_value] $rsp, $rsp
	#DEBUG_VALUE: memcpy:__dest <- undef
	#DEBUG_VALUE: memcpy:__src <- [DW_OP_LLVM_arg 0, DW_OP_plus_uconst 320, DW_OP_deref, DW_OP_consts 64, DW_OP_div, DW_OP_consts 64, DW_OP_mul, DW_OP_consts 48, DW_OP_LLVM_arg 1, DW_OP_plus_uconst 296, DW_OP_deref, DW_OP_plus, DW_OP_plus, DW_OP_stack_value] $rsp, $rsp
	#DEBUG_VALUE: memcpy:__len <- 4
	.loc	7 0 10                          # /usr/include/x86_64-linux-gnu/bits/string_fortified.h:0:10
	movq	%rcx, 336(%rsp)                 # 8-byte Spill
.Ltmp28:
	#DEBUG_VALUE: aegis128l_absorb2:msg2 <- [DW_OP_plus_uconst 336, DW_OP_deref, DW_OP_LLVM_fragment 64 64] $rsp
	.loc	7 29 10                         # /usr/include/x86_64-linux-gnu/bits/string_fortified.h:29:10 @[ ./include/sodium/private/common.h:106:5 @[ ./include/sodium/private/softaes.h:20:32 @[ crypto_aead/aegis128l/aegis128l_common.h:83:12 @[ crypto_aead/aegis128l/aegis128l_common.h:169:9 ] ] ] ]
	movq	48(%rax,%r8), %rcx
.Ltmp29:
	#DEBUG_VALUE: softaes_block_load:out <- [DW_OP_LLVM_fragment 0 32] undef
	#DEBUG_VALUE: load32_le:w <- undef
	#DEBUG_VALUE: memcpy:__dest <- undef
	#DEBUG_VALUE: memcpy:__len <- 4
	#DEBUG_VALUE: softaes_block_load:out <- [DW_OP_LLVM_fragment 32 32] undef
	#DEBUG_VALUE: load32_le:w <- undef
	#DEBUG_VALUE: load32_le:src <- [DW_OP_LLVM_arg 0, DW_OP_plus_uconst 320, DW_OP_deref, DW_OP_consts 64, DW_OP_div, DW_OP_consts 64, DW_OP_mul, DW_OP_consts 56, DW_OP_LLVM_arg 1, DW_OP_plus_uconst 296, DW_OP_deref, DW_OP_plus, DW_OP_plus, DW_OP_stack_value] $rsp, $rsp
	#DEBUG_VALUE: memcpy:__dest <- undef
	#DEBUG_VALUE: memcpy:__src <- [DW_OP_LLVM_arg 0, DW_OP_plus_uconst 320, DW_OP_deref, DW_OP_consts 64, DW_OP_div, DW_OP_consts 64, DW_OP_mul, DW_OP_consts 56, DW_OP_LLVM_arg 1, DW_OP_plus_uconst 296, DW_OP_deref, DW_OP_plus, DW_OP_plus, DW_OP_stack_value] $rsp, $rsp
	#DEBUG_VALUE: memcpy:__len <- 4
	.loc	7 0 10                          # /usr/include/x86_64-linux-gnu/bits/string_fortified.h:0:10
	movq	%rcx, 344(%rsp)                 # 8-byte Spill
.Ltmp30:
	.loc	7 29 10                         # /usr/include/x86_64-linux-gnu/bits/string_fortified.h:29:10 @[ ./include/sodium/private/common.h:106:5 @[ ./include/sodium/private/softaes.h:20:70 @[ crypto_aead/aegis128l/aegis128l_common.h:83:12 @[ crypto_aead/aegis128l/aegis128l_common.h:169:9 ] ] ] ]
	movq	56(%rax,%r8), %rax
.Ltmp31:
	#DEBUG_VALUE: aegis128l_absorb2:msg3 <- [DW_OP_LLVM_fragment 64 64] $rax
	#DEBUG_VALUE: softaes_block_load:out <- [DW_OP_LLVM_fragment 64 32] undef
	#DEBUG_VALUE: load32_le:w <- undef
	#DEBUG_VALUE: memcpy:__dest <- undef
	#DEBUG_VALUE: memcpy:__len <- 4
	#DEBUG_VALUE: softaes_block_load:out <- [DW_OP_LLVM_fragment 96 32] undef
	#DEBUG_VALUE: aegis128l_absorb2:msg3 <- [DW_OP_plus_uconst 344, DW_OP_deref, DW_OP_LLVM_fragment 0 64] $rsp
	#DEBUG_VALUE: aegis128l_update:d1 <- [DW_OP_plus_uconst 272, DW_OP_deref, DW_OP_LLVM_fragment 0 64] $rsp
	#DEBUG_VALUE: aegis128l_update:d1 <- [DW_OP_plus_uconst 264, DW_OP_deref, DW_OP_LLVM_fragment 64 64] $rsp
	#DEBUG_VALUE: aegis128l_update:d2 <- [DW_OP_plus_uconst 304, DW_OP_deref, DW_OP_LLVM_fragment 0 64] $rsp
	#DEBUG_VALUE: aegis128l_update:d2 <- [DW_OP_plus_uconst 312, DW_OP_deref, DW_OP_LLVM_fragment 64 64] $rsp
	#DEBUG_VALUE: aegis128l_update:state <- [DW_OP_plus_uconst 128, DW_OP_stack_value] $rsp
	#DEBUG_VALUE: aegis128l_update:tmp <- [DW_OP_plus_uconst 48, DW_OP_deref, DW_OP_LLVM_fragment 0 64] $rsp
	#DEBUG_VALUE: aegis128l_update:tmp <- [DW_OP_plus_uconst 56, DW_OP_deref, DW_OP_LLVM_fragment 64 64] $rsp
	.loc	7 0 10                          # /usr/include/x86_64-linux-gnu/bits/string_fortified.h:0:10
	movq	%rax, 352(%rsp)                 # 8-byte Spill
.Ltmp32:
	#DEBUG_VALUE: aegis128l_absorb2:msg3 <- [DW_OP_plus_uconst 352, DW_OP_deref, DW_OP_LLVM_fragment 64 64] $rsp
	movq	96(%rsp), %r12                  # 8-byte Reload
.Ltmp33:
	.loc	5 39 16 is_stmt 1               # crypto_aead/aegis128l/aegis128l_soft.c:39:16 @[ crypto_aead/aegis128l/aegis128l_common.h:84:5 @[ crypto_aead/aegis128l/aegis128l_common.h:169:9 ] ]
	movq	%r12, %rdi
	movq	32(%rsp), %rbx                  # 8-byte Reload
	movq	16(%rsp), %r14                  # 8-byte Reload
	movq	%r14, %rsi
	movq	48(%rsp), %rdx                  # 8-byte Reload
	movq	56(%rsp), %rcx                  # 8-byte Reload
	callq	softaes_block_encrypt@PLT
.Ltmp34:
	.loc	5 0 16 is_stmt 0                # crypto_aead/aegis128l/aegis128l_soft.c:0:16
	movq	%rax, 280(%rsp)                 # 8-byte Spill
.Ltmp35:
	#DEBUG_VALUE: encrypt_detached:state <- [DW_OP_plus_uconst 280, DW_OP_deref, DW_OP_LLVM_fragment 896 64] $rsp
	#DEBUG_VALUE: aegis128l_update:tmp <- [DW_OP_plus_uconst 280, DW_OP_deref, DW_OP_LLVM_fragment 0 64] $rsp
	movq	%rdx, 288(%rsp)                 # 8-byte Spill
.Ltmp36:
	#DEBUG_VALUE: encrypt_detached:state <- [DW_OP_plus_uconst 288, DW_OP_deref, DW_OP_LLVM_fragment 960 64] $rsp
	#DEBUG_VALUE: aegis128l_update:tmp <- [DW_OP_plus_uconst 288, DW_OP_deref, DW_OP_LLVM_fragment 64 64] $rsp
	movq	40(%rsp), %r15                  # 8-byte Reload
	.loc	5 40 16 is_stmt 1               # crypto_aead/aegis128l/aegis128l_soft.c:40:16 @[ crypto_aead/aegis128l/aegis128l_common.h:84:5 @[ crypto_aead/aegis128l/aegis128l_common.h:169:9 ] ]
	movq	%r15, %rdi
	movq	%rbx, %rsi
	movq	%r12, %rdx
	movq	%r14, %rcx
	callq	softaes_block_encrypt@PLT
.Ltmp37:
	.loc	5 0 16 is_stmt 0                # crypto_aead/aegis128l/aegis128l_soft.c:0:16
	movq	%rax, 96(%rsp)                  # 8-byte Spill
.Ltmp38:
	#DEBUG_VALUE: encrypt_detached:state <- [DW_OP_plus_uconst 96, DW_OP_deref, DW_OP_LLVM_fragment 768 64] $rsp
	movq	%rdx, 16(%rsp)                  # 8-byte Spill
.Ltmp39:
	#DEBUG_VALUE: encrypt_detached:state <- [DW_OP_plus_uconst 16, DW_OP_deref, DW_OP_LLVM_fragment 832 64] $rsp
	movq	112(%rsp), %r12                 # 8-byte Reload
	.loc	5 41 16 is_stmt 1               # crypto_aead/aegis128l/aegis128l_soft.c:41:16 @[ crypto_aead/aegis128l/aegis128l_common.h:84:5 @[ crypto_aead/aegis128l/aegis128l_common.h:169:9 ] ]
	movq	%r12, %rdi
	movq	%r13, %rsi
	movq	%r15, %rdx
	movq	%rbx, %rcx
	callq	softaes_block_encrypt@PLT
.Ltmp40:
	.loc	5 0 16 is_stmt 0                # crypto_aead/aegis128l/aegis128l_soft.c:0:16
	movq	%rax, 40(%rsp)                  # 8-byte Spill
.Ltmp41:
	#DEBUG_VALUE: encrypt_detached:state <- [DW_OP_plus_uconst 40, DW_OP_deref, DW_OP_LLVM_fragment 640 64] $rsp
	movq	%rdx, 32(%rsp)                  # 8-byte Spill
.Ltmp42:
	#DEBUG_VALUE: encrypt_detached:state <- [DW_OP_plus_uconst 32, DW_OP_deref, DW_OP_LLVM_fragment 704 64] $rsp
	movq	104(%rsp), %r14                 # 8-byte Reload
	.loc	5 42 16 is_stmt 1               # crypto_aead/aegis128l/aegis128l_soft.c:42:16 @[ crypto_aead/aegis128l/aegis128l_common.h:84:5 @[ crypto_aead/aegis128l/aegis128l_common.h:169:9 ] ]
	movq	%r14, %rdi
	movq	24(%rsp), %rbx                  # 8-byte Reload
	movq	%rbx, %rsi
	movq	%r12, %rdx
	movq	%r13, %rcx
	callq	softaes_block_encrypt@PLT
.Ltmp43:
	movq	%rax, %r12
.Ltmp44:
	#DEBUG_VALUE: encrypt_detached:state <- [DW_OP_LLVM_fragment 512 64] $r12
	#DEBUG_VALUE: softaes_block_xor:a <- [DW_OP_LLVM_convert 64 7, DW_OP_LLVM_convert 32 7, DW_OP_stack_value, DW_OP_LLVM_fragment 0 32] $r12
	#DEBUG_VALUE: softaes_block_xor:a <- [DW_OP_constu 32, DW_OP_shr, DW_OP_LLVM_convert 64 7, DW_OP_LLVM_convert 32 7, DW_OP_stack_value, DW_OP_LLVM_fragment 32 32] $r12
	.loc	5 0 16 is_stmt 0                # crypto_aead/aegis128l/aegis128l_soft.c:0:16
	movq	%rdx, 112(%rsp)                 # 8-byte Spill
.Ltmp45:
	#DEBUG_VALUE: encrypt_detached:state <- [DW_OP_plus_uconst 112, DW_OP_deref, DW_OP_LLVM_fragment 576 64] $rsp
	#DEBUG_VALUE: softaes_block_xor:a <- [DW_OP_plus_uconst 112, DW_OP_deref_size 8, DW_OP_LLVM_convert 64 7, DW_OP_LLVM_convert 32 7, DW_OP_stack_value, DW_OP_LLVM_fragment 64 32] $rsp
	#DEBUG_VALUE: softaes_block_xor:a <- [DW_OP_plus_uconst 112, DW_OP_deref_size 8, DW_OP_constu 32, DW_OP_shr, DW_OP_LLVM_convert 64 7, DW_OP_LLVM_convert 32 7, DW_OP_stack_value, DW_OP_LLVM_fragment 96 32] $rsp
	movq	80(%rsp), %r15                  # 8-byte Reload
	.loc	5 43 16 is_stmt 1               # crypto_aead/aegis128l/aegis128l_soft.c:43:16 @[ crypto_aead/aegis128l/aegis128l_common.h:84:5 @[ crypto_aead/aegis128l/aegis128l_common.h:169:9 ] ]
	movq	%r15, %rdi
	movq	88(%rsp), %r13                  # 8-byte Reload
	movq	%r13, %rsi
	movq	%r14, %rdx
	movq	%rbx, %rcx
	callq	softaes_block_encrypt@PLT
.Ltmp46:
	.loc	5 0 16 is_stmt 0                # crypto_aead/aegis128l/aegis128l_soft.c:0:16
	movq	%rax, 24(%rsp)                  # 8-byte Spill
.Ltmp47:
	#DEBUG_VALUE: encrypt_detached:state <- [DW_OP_plus_uconst 24, DW_OP_deref, DW_OP_LLVM_fragment 384 64] $rsp
	movq	%rdx, 104(%rsp)                 # 8-byte Spill
.Ltmp48:
	#DEBUG_VALUE: encrypt_detached:state <- [DW_OP_plus_uconst 104, DW_OP_deref, DW_OP_LLVM_fragment 448 64] $rsp
	movq	64(%rsp), %r14                  # 8-byte Reload
	.loc	5 44 16 is_stmt 1               # crypto_aead/aegis128l/aegis128l_soft.c:44:16 @[ crypto_aead/aegis128l/aegis128l_common.h:84:5 @[ crypto_aead/aegis128l/aegis128l_common.h:169:9 ] ]
	movq	%r14, %rdi
	movq	72(%rsp), %rbx                  # 8-byte Reload
	movq	%rbx, %rsi
	movq	%r15, %rdx
	movq	%r13, %rcx
	callq	softaes_block_encrypt@PLT
.Ltmp49:
	.loc	5 0 16 is_stmt 0                # crypto_aead/aegis128l/aegis128l_soft.c:0:16
	movq	%rax, 88(%rsp)                  # 8-byte Spill
.Ltmp50:
	#DEBUG_VALUE: encrypt_detached:state <- [DW_OP_plus_uconst 88, DW_OP_deref, DW_OP_LLVM_fragment 256 64] $rsp
	movq	%rdx, 80(%rsp)                  # 8-byte Spill
.Ltmp51:
	#DEBUG_VALUE: encrypt_detached:state <- [DW_OP_plus_uconst 80, DW_OP_deref, DW_OP_LLVM_fragment 320 64] $rsp
	movq	400(%rsp), %r13                 # 8-byte Reload
	.loc	5 45 16 is_stmt 1               # crypto_aead/aegis128l/aegis128l_soft.c:45:16 @[ crypto_aead/aegis128l/aegis128l_common.h:84:5 @[ crypto_aead/aegis128l/aegis128l_common.h:169:9 ] ]
	movq	%r13, %rdi
	movq	408(%rsp), %r15                 # 8-byte Reload
	movq	%r15, %rsi
	movq	%r14, %rdx
	movq	%rbx, %rcx
	callq	softaes_block_encrypt@PLT
.Ltmp52:
	.loc	5 0 16 is_stmt 0                # crypto_aead/aegis128l/aegis128l_soft.c:0:16
	movq	%rax, 72(%rsp)                  # 8-byte Spill
.Ltmp53:
	#DEBUG_VALUE: encrypt_detached:state <- [DW_OP_plus_uconst 72, DW_OP_deref, DW_OP_LLVM_fragment 128 64] $rsp
	movq	%rdx, 64(%rsp)                  # 8-byte Spill
.Ltmp54:
	#DEBUG_VALUE: encrypt_detached:state <- [DW_OP_plus_uconst 64, DW_OP_deref, DW_OP_LLVM_fragment 192 64] $rsp
	movq	48(%rsp), %rdi                  # 8-byte Reload
	movq	56(%rsp), %rsi                  # 8-byte Reload
	.loc	5 46 16 is_stmt 1               # crypto_aead/aegis128l/aegis128l_soft.c:46:16 @[ crypto_aead/aegis128l/aegis128l_common.h:84:5 @[ crypto_aead/aegis128l/aegis128l_common.h:169:9 ] ]
	movq	%r13, %rdx
	movq	%r15, %rcx
	callq	softaes_block_encrypt@PLT
.Ltmp55:
	#DEBUG_VALUE: softaes_block_xor:a <- [DW_OP_LLVM_convert 64 7, DW_OP_LLVM_convert 32 7, DW_OP_stack_value, DW_OP_LLVM_fragment 0 32] $rax
	#DEBUG_VALUE: softaes_block_xor:a <- [DW_OP_constu 32, DW_OP_shr, DW_OP_LLVM_convert 64 7, DW_OP_LLVM_convert 32 7, DW_OP_stack_value, DW_OP_LLVM_fragment 32 32] $rax
	#DEBUG_VALUE: softaes_block_xor:a <- [DW_OP_LLVM_convert 64 7, DW_OP_LLVM_convert 32 7, DW_OP_stack_value, DW_OP_LLVM_fragment 64 32] $rdx
	#DEBUG_VALUE: softaes_block_xor:a <- [DW_OP_constu 32, DW_OP_shr, DW_OP_LLVM_convert 64 7, DW_OP_LLVM_convert 32 7, DW_OP_stack_value, DW_OP_LLVM_fragment 96 32] $rdx
	#DEBUG_VALUE: softaes_block_xor:b <- [DW_OP_plus_uconst 272, DW_OP_deref_size 8, DW_OP_LLVM_convert 64 7, DW_OP_LLVM_convert 32 7, DW_OP_stack_value, DW_OP_LLVM_fragment 0 32] $rsp
	#DEBUG_VALUE: softaes_block_xor:b <- [DW_OP_plus_uconst 272, DW_OP_deref_size 8, DW_OP_constu 32, DW_OP_shr, DW_OP_LLVM_convert 64 7, DW_OP_LLVM_convert 32 7, DW_OP_stack_value, DW_OP_LLVM_fragment 32 32] $rsp
	#DEBUG_VALUE: softaes_block_xor:b <- [DW_OP_plus_uconst 264, DW_OP_deref_size 8, DW_OP_LLVM_convert 64 7, DW_OP_LLVM_convert 32 7, DW_OP_stack_value, DW_OP_LLVM_fragment 64 32] $rsp
	#DEBUG_VALUE: softaes_block_xor:b <- [DW_OP_plus_uconst 264, DW_OP_deref_size 8, DW_OP_constu 32, DW_OP_shr, DW_OP_LLVM_convert 64 7, DW_OP_LLVM_convert 32 7, DW_OP_stack_value, DW_OP_LLVM_fragment 96 32] $rsp
	.file	8 "./include/sodium/private" "softaes.h"
	.loc	8 45 37                         # ./include/sodium/private/softaes.h:45:37 @[ crypto_aead/aegis128l/aegis128l_soft.c:48:16 @[ crypto_aead/aegis128l/aegis128l_common.h:84:5 @[ crypto_aead/aegis128l/aegis128l_common.h:169:9 ] ] ]
	xorq	%rax, 272(%rsp)                 # 8-byte Folded Spill
.Ltmp56:
	#DEBUG_VALUE: softaes_block_xor:b <- [DW_OP_constu 32, DW_OP_shr, DW_OP_LLVM_convert 64 7, DW_OP_LLVM_convert 32 7, DW_OP_stack_value, DW_OP_LLVM_fragment 32 32] undef
	#DEBUG_VALUE: softaes_block_xor:b <- [DW_OP_LLVM_convert 64 7, DW_OP_LLVM_convert 32 7, DW_OP_stack_value, DW_OP_LLVM_fragment 0 32] undef
	#DEBUG_VALUE: aegis128l_update:d1 <- [DW_OP_LLVM_fragment 0 64] undef
	#DEBUG_VALUE: aegis128l_absorb2:msg0 <- [DW_OP_LLVM_fragment 0 64] undef
	#DEBUG_VALUE: softaes_block_xor:out <- [DW_OP_plus_uconst 272, DW_OP_deref_size 8, DW_OP_LLVM_convert 64 7, DW_OP_LLVM_convert 32 7, DW_OP_stack_value, DW_OP_LLVM_fragment 0 32] $rsp
	#DEBUG_VALUE: softaes_block_xor:out <- [DW_OP_plus_uconst 272, DW_OP_deref_size 8, DW_OP_constu 32, DW_OP_shr, DW_OP_LLVM_convert 64 7, DW_OP_LLVM_convert 32 7, DW_OP_stack_value, DW_OP_LLVM_fragment 32 32] $rsp
	.loc	8 45 63 is_stmt 0               # ./include/sodium/private/softaes.h:45:63 @[ crypto_aead/aegis128l/aegis128l_soft.c:48:16 @[ crypto_aead/aegis128l/aegis128l_common.h:84:5 @[ crypto_aead/aegis128l/aegis128l_common.h:169:9 ] ] ]
	xorq	%rdx, 264(%rsp)                 # 8-byte Folded Spill
.Ltmp57:
	#DEBUG_VALUE: softaes_block_xor:b <- [DW_OP_constu 32, DW_OP_shr, DW_OP_LLVM_convert 64 7, DW_OP_LLVM_convert 32 7, DW_OP_stack_value, DW_OP_LLVM_fragment 96 32] undef
	#DEBUG_VALUE: softaes_block_xor:b <- [DW_OP_LLVM_convert 64 7, DW_OP_LLVM_convert 32 7, DW_OP_stack_value, DW_OP_LLVM_fragment 64 32] undef
	#DEBUG_VALUE: aegis128l_update:d1 <- [DW_OP_LLVM_fragment 64 64] undef
	#DEBUG_VALUE: aegis128l_absorb2:msg0 <- [DW_OP_LLVM_fragment 64 64] undef
	#DEBUG_VALUE: softaes_block_xor:out <- [DW_OP_plus_uconst 264, DW_OP_deref_size 8, DW_OP_LLVM_convert 64 7, DW_OP_LLVM_convert 32 7, DW_OP_stack_value, DW_OP_LLVM_fragment 64 32] $rsp
	#DEBUG_VALUE: softaes_block_xor:out <- [DW_OP_plus_uconst 264, DW_OP_deref_size 8, DW_OP_constu 32, DW_OP_shr, DW_OP_LLVM_convert 64 7, DW_OP_LLVM_convert 32 7, DW_OP_stack_value, DW_OP_LLVM_fragment 96 32] $rsp
	#DEBUG_VALUE: encrypt_detached:state <- [DW_OP_plus_uconst 264, DW_OP_deref, DW_OP_LLVM_fragment 64 64] $rsp
	#DEBUG_VALUE: encrypt_detached:state <- [DW_OP_plus_uconst 272, DW_OP_deref, DW_OP_LLVM_fragment 0 64] $rsp
	#DEBUG_VALUE: softaes_block_xor:b <- [DW_OP_plus_uconst 304, DW_OP_deref_size 8, DW_OP_LLVM_convert 64 7, DW_OP_LLVM_convert 32 7, DW_OP_stack_value, DW_OP_LLVM_fragment 0 32] $rsp
	#DEBUG_VALUE: softaes_block_xor:b <- [DW_OP_plus_uconst 304, DW_OP_deref_size 8, DW_OP_constu 32, DW_OP_shr, DW_OP_LLVM_convert 64 7, DW_OP_LLVM_convert 32 7, DW_OP_stack_value, DW_OP_LLVM_fragment 32 32] $rsp
	#DEBUG_VALUE: softaes_block_xor:b <- [DW_OP_plus_uconst 312, DW_OP_deref_size 8, DW_OP_LLVM_convert 64 7, DW_OP_LLVM_convert 32 7, DW_OP_stack_value, DW_OP_LLVM_fragment 64 32] $rsp
	#DEBUG_VALUE: softaes_block_xor:b <- [DW_OP_plus_uconst 312, DW_OP_deref_size 8, DW_OP_constu 32, DW_OP_shr, DW_OP_LLVM_convert 64 7, DW_OP_LLVM_convert 32 7, DW_OP_stack_value, DW_OP_LLVM_fragment 96 32] $rsp
	.loc	8 45 37                         # ./include/sodium/private/softaes.h:45:37 @[ crypto_aead/aegis128l/aegis128l_soft.c:49:16 @[ crypto_aead/aegis128l/aegis128l_common.h:84:5 @[ crypto_aead/aegis128l/aegis128l_common.h:169:9 ] ] ]
	xorq	304(%rsp), %r12                 # 8-byte Folded Reload
.Ltmp58:
	#DEBUG_VALUE: softaes_block_xor:out <- [DW_OP_LLVM_convert 64 7, DW_OP_LLVM_convert 32 7, DW_OP_stack_value, DW_OP_LLVM_fragment 0 32] $r12
	#DEBUG_VALUE: softaes_block_xor:out <- [DW_OP_constu 32, DW_OP_shr, DW_OP_LLVM_convert 64 7, DW_OP_LLVM_convert 32 7, DW_OP_stack_value, DW_OP_LLVM_fragment 32 32] $r12
	.loc	8 0 37                          # ./include/sodium/private/softaes.h:0:37
	movq	%r12, 304(%rsp)                 # 8-byte Spill
.Ltmp59:
	#DEBUG_VALUE: softaes_block_xor:out <- [DW_OP_plus_uconst 304, DW_OP_deref_size 8, DW_OP_constu 32, DW_OP_shr, DW_OP_LLVM_convert 64 7, DW_OP_LLVM_convert 32 7, DW_OP_stack_value, DW_OP_LLVM_fragment 32 32] $rsp
	#DEBUG_VALUE: softaes_block_xor:out <- [DW_OP_plus_uconst 304, DW_OP_deref_size 8, DW_OP_LLVM_convert 64 7, DW_OP_LLVM_convert 32 7, DW_OP_stack_value, DW_OP_LLVM_fragment 0 32] $rsp
	#DEBUG_VALUE: softaes_block_xor:b <- [DW_OP_constu 32, DW_OP_shr, DW_OP_LLVM_convert 64 7, DW_OP_LLVM_convert 32 7, DW_OP_stack_value, DW_OP_LLVM_fragment 32 32] undef
	#DEBUG_VALUE: softaes_block_xor:b <- [DW_OP_LLVM_convert 64 7, DW_OP_LLVM_convert 32 7, DW_OP_stack_value, DW_OP_LLVM_fragment 0 32] undef
	#DEBUG_VALUE: aegis128l_update:d2 <- [DW_OP_LLVM_fragment 0 64] undef
	#DEBUG_VALUE: aegis128l_absorb2:msg1 <- [DW_OP_LLVM_fragment 0 64] undef
	movq	112(%rsp), %r13                 # 8-byte Reload
	.loc	8 45 63                         # ./include/sodium/private/softaes.h:45:63 @[ crypto_aead/aegis128l/aegis128l_soft.c:49:16 @[ crypto_aead/aegis128l/aegis128l_common.h:84:5 @[ crypto_aead/aegis128l/aegis128l_common.h:169:9 ] ] ]
	xorq	312(%rsp), %r13                 # 8-byte Folded Reload
.Ltmp60:
	#DEBUG_VALUE: softaes_block_xor:out <- [DW_OP_LLVM_convert 64 7, DW_OP_LLVM_convert 32 7, DW_OP_stack_value, DW_OP_LLVM_fragment 64 32] $r13
	#DEBUG_VALUE: softaes_block_xor:out <- [DW_OP_constu 32, DW_OP_shr, DW_OP_LLVM_convert 64 7, DW_OP_LLVM_convert 32 7, DW_OP_stack_value, DW_OP_LLVM_fragment 96 32] $r13
	#DEBUG_VALUE: encrypt_detached:state <- [DW_OP_LLVM_fragment 576 64] $r13
	#DEBUG_VALUE: encrypt_detached:state <- [DW_OP_plus_uconst 304, DW_OP_deref, DW_OP_LLVM_fragment 512 64] $rsp
	#DEBUG_VALUE: aegis128l_update:d1 <- [DW_OP_plus_uconst 328, DW_OP_deref, DW_OP_LLVM_fragment 0 64] $rsp
	#DEBUG_VALUE: aegis128l_update:d1 <- [DW_OP_plus_uconst 336, DW_OP_deref, DW_OP_LLVM_fragment 64 64] $rsp
	#DEBUG_VALUE: aegis128l_update:d2 <- [DW_OP_plus_uconst 344, DW_OP_deref, DW_OP_LLVM_fragment 0 64] $rsp
	#DEBUG_VALUE: aegis128l_update:d2 <- [DW_OP_plus_uconst 352, DW_OP_deref, DW_OP_LLVM_fragment 64 64] $rsp
	#DEBUG_VALUE: aegis128l_update:state <- [DW_OP_plus_uconst 128, DW_OP_stack_value] $rsp
	.loc	8 0 63                          # ./include/sodium/private/softaes.h:0:63
	movq	96(%rsp), %r15                  # 8-byte Reload
.Ltmp61:
	.loc	5 39 16 is_stmt 1               # crypto_aead/aegis128l/aegis128l_soft.c:39:16 @[ crypto_aead/aegis128l/aegis128l_common.h:85:5 @[ crypto_aead/aegis128l/aegis128l_common.h:169:9 ] ]
	movq	%r15, %rdi
	movq	16(%rsp), %rsi                  # 8-byte Reload
	movq	280(%rsp), %rdx                 # 8-byte Reload
.Ltmp62:
	.loc	5 0 16 is_stmt 0                # crypto_aead/aegis128l/aegis128l_soft.c:0:16
	movq	288(%rsp), %rcx                 # 8-byte Reload
	.loc	5 39 16                         # crypto_aead/aegis128l/aegis128l_soft.c:39:16 @[ crypto_aead/aegis128l/aegis128l_common.h:85:5 @[ crypto_aead/aegis128l/aegis128l_common.h:169:9 ] ]
	callq	softaes_block_encrypt@PLT
.Ltmp63:
	.loc	5 0 16                          # crypto_aead/aegis128l/aegis128l_soft.c:0:16
	movq	%rax, 48(%rsp)                  # 8-byte Spill
.Ltmp64:
	#DEBUG_VALUE: aegis128l_update:tmp <- [DW_OP_LLVM_fragment 0 64] undef
	#DEBUG_VALUE: encrypt_detached:state <- [DW_OP_plus_uconst 48, DW_OP_deref, DW_OP_LLVM_fragment 896 64] $rsp
	movq	%rdx, 56(%rsp)                  # 8-byte Spill
.Ltmp65:
	#DEBUG_VALUE: aegis128l_update:tmp <- [DW_OP_LLVM_fragment 64 64] undef
	#DEBUG_VALUE: encrypt_detached:state <- [DW_OP_plus_uconst 56, DW_OP_deref, DW_OP_LLVM_fragment 960 64] $rsp
	movq	40(%rsp), %r14                  # 8-byte Reload
	.loc	5 40 16 is_stmt 1               # crypto_aead/aegis128l/aegis128l_soft.c:40:16 @[ crypto_aead/aegis128l/aegis128l_common.h:85:5 @[ crypto_aead/aegis128l/aegis128l_common.h:169:9 ] ]
	movq	%r14, %rdi
	movq	32(%rsp), %rbx                  # 8-byte Reload
	movq	%rbx, %rsi
	movq	%r15, %rdx
	#DEBUG_VALUE: softaes_block_xor:a <- [DW_OP_plus_uconst 56, DW_OP_deref_size 8, DW_OP_constu 32, DW_OP_shr, DW_OP_LLVM_convert 64 7, DW_OP_LLVM_convert 32 7, DW_OP_stack_value, DW_OP_LLVM_fragment 96 32] $rsp
	#DEBUG_VALUE: softaes_block_xor:a <- [DW_OP_plus_uconst 56, DW_OP_deref_size 8, DW_OP_LLVM_convert 64 7, DW_OP_LLVM_convert 32 7, DW_OP_stack_value, DW_OP_LLVM_fragment 64 32] $rsp
	movq	16(%rsp), %rcx                  # 8-byte Reload
	callq	softaes_block_encrypt@PLT
.Ltmp66:
	.loc	5 0 16 is_stmt 0                # crypto_aead/aegis128l/aegis128l_soft.c:0:16
	movq	%rax, 96(%rsp)                  # 8-byte Spill
.Ltmp67:
	#DEBUG_VALUE: encrypt_detached:state <- [DW_OP_LLVM_fragment 768 64] $r15
	#DEBUG_VALUE: encrypt_detached:state <- [DW_OP_plus_uconst 96, DW_OP_deref, DW_OP_LLVM_fragment 768 64] $rsp
	movq	%rdx, 16(%rsp)                  # 8-byte Spill
.Ltmp68:
	#DEBUG_VALUE: encrypt_detached:state <- [DW_OP_LLVM_fragment 832 64] undef
	#DEBUG_VALUE: encrypt_detached:state <- [DW_OP_plus_uconst 16, DW_OP_deref, DW_OP_LLVM_fragment 832 64] $rsp
	.loc	5 41 16 is_stmt 1               # crypto_aead/aegis128l/aegis128l_soft.c:41:16 @[ crypto_aead/aegis128l/aegis128l_common.h:85:5 @[ crypto_aead/aegis128l/aegis128l_common.h:169:9 ] ]
	movq	%r12, %rdi
	movq	%r13, %rsi
	movq	%r13, %r15
.Ltmp69:
	#DEBUG_VALUE: softaes_block_xor:out <- [DW_OP_constu 32, DW_OP_shr, DW_OP_LLVM_convert 64 7, DW_OP_LLVM_convert 32 7, DW_OP_stack_value, DW_OP_LLVM_fragment 96 32] $r15
	#DEBUG_VALUE: softaes_block_xor:out <- [DW_OP_LLVM_convert 64 7, DW_OP_LLVM_convert 32 7, DW_OP_stack_value, DW_OP_LLVM_fragment 64 32] $r15
	#DEBUG_VALUE: encrypt_detached:state <- [DW_OP_LLVM_fragment 576 64] $r15
	movq	%r14, %rdx
	movq	%rbx, %rcx
	callq	softaes_block_encrypt@PLT
.Ltmp70:
	.loc	5 0 16 is_stmt 0                # crypto_aead/aegis128l/aegis128l_soft.c:0:16
	movq	%rax, 40(%rsp)                  # 8-byte Spill
.Ltmp71:
	#DEBUG_VALUE: encrypt_detached:state <- [DW_OP_LLVM_fragment 640 64] $r14
	#DEBUG_VALUE: encrypt_detached:state <- [DW_OP_plus_uconst 40, DW_OP_deref, DW_OP_LLVM_fragment 640 64] $rsp
	movq	%rdx, 32(%rsp)                  # 8-byte Spill
.Ltmp72:
	#DEBUG_VALUE: encrypt_detached:state <- [DW_OP_LLVM_fragment 704 64] $rbx
	#DEBUG_VALUE: encrypt_detached:state <- [DW_OP_plus_uconst 32, DW_OP_deref, DW_OP_LLVM_fragment 704 64] $rsp
	movq	24(%rsp), %r13                  # 8-byte Reload
	.loc	5 42 16 is_stmt 1               # crypto_aead/aegis128l/aegis128l_soft.c:42:16 @[ crypto_aead/aegis128l/aegis128l_common.h:85:5 @[ crypto_aead/aegis128l/aegis128l_common.h:169:9 ] ]
	movq	%r13, %rdi
	movq	104(%rsp), %r12                 # 8-byte Reload
	movq	%r12, %rsi
	movq	304(%rsp), %rdx                 # 8-byte Reload
	movq	%r15, %rcx
	callq	softaes_block_encrypt@PLT
.Ltmp73:
	.loc	5 0 16 is_stmt 0                # crypto_aead/aegis128l/aegis128l_soft.c:0:16
	movq	%rax, 112(%rsp)                 # 8-byte Spill
.Ltmp74:
	#DEBUG_VALUE: softaes_block_xor:a <- [DW_OP_constu 32, DW_OP_shr, DW_OP_LLVM_convert 64 7, DW_OP_LLVM_convert 32 7, DW_OP_stack_value, DW_OP_LLVM_fragment 96 32] undef
	#DEBUG_VALUE: softaes_block_xor:a <- [DW_OP_LLVM_convert 64 7, DW_OP_LLVM_convert 32 7, DW_OP_stack_value, DW_OP_LLVM_fragment 64 32] undef
	#DEBUG_VALUE: encrypt_detached:state <- [DW_OP_plus_uconst 112, DW_OP_deref, DW_OP_LLVM_fragment 512 64] $rsp
	#DEBUG_VALUE: softaes_block_xor:a <- [DW_OP_plus_uconst 112, DW_OP_deref_size 8, DW_OP_LLVM_convert 64 7, DW_OP_LLVM_convert 32 7, DW_OP_stack_value, DW_OP_LLVM_fragment 0 32] $rsp
	#DEBUG_VALUE: softaes_block_xor:a <- [DW_OP_plus_uconst 112, DW_OP_deref_size 8, DW_OP_constu 32, DW_OP_shr, DW_OP_LLVM_convert 64 7, DW_OP_LLVM_convert 32 7, DW_OP_stack_value, DW_OP_LLVM_fragment 32 32] $rsp
	movq	%rdx, 312(%rsp)                 # 8-byte Spill
.Ltmp75:
	#DEBUG_VALUE: softaes_block_xor:b <- [DW_OP_constu 32, DW_OP_shr, DW_OP_LLVM_convert 64 7, DW_OP_LLVM_convert 32 7, DW_OP_stack_value, DW_OP_LLVM_fragment 96 32] undef
	#DEBUG_VALUE: softaes_block_xor:b <- [DW_OP_LLVM_convert 64 7, DW_OP_LLVM_convert 32 7, DW_OP_stack_value, DW_OP_LLVM_fragment 64 32] undef
	#DEBUG_VALUE: aegis128l_update:d2 <- [DW_OP_LLVM_fragment 64 64] undef
	#DEBUG_VALUE: aegis128l_absorb2:msg1 <- [DW_OP_LLVM_fragment 64 64] undef
	#DEBUG_VALUE: encrypt_detached:state <- [DW_OP_plus_uconst 312, DW_OP_deref, DW_OP_LLVM_fragment 576 64] $rsp
	#DEBUG_VALUE: softaes_block_xor:a <- [DW_OP_plus_uconst 312, DW_OP_deref_size 8, DW_OP_LLVM_convert 64 7, DW_OP_LLVM_convert 32 7, DW_OP_stack_value, DW_OP_LLVM_fragment 64 32] $rsp
	#DEBUG_VALUE: softaes_block_xor:a <- [DW_OP_plus_uconst 312, DW_OP_deref_size 8, DW_OP_constu 32, DW_OP_shr, DW_OP_LLVM_convert 64 7, DW_OP_LLVM_convert 32 7, DW_OP_stack_value, DW_OP_LLVM_fragment 96 32] $rsp
	movq	88(%rsp), %r14                  # 8-byte Reload
	.loc	5 43 16 is_stmt 1               # crypto_aead/aegis128l/aegis128l_soft.c:43:16 @[ crypto_aead/aegis128l/aegis128l_common.h:85:5 @[ crypto_aead/aegis128l/aegis128l_common.h:169:9 ] ]
	movq	%r14, %rdi
	movq	80(%rsp), %r15                  # 8-byte Reload
.Ltmp76:
	movq	%r15, %rsi
	movq	%r13, %rdx
	movq	%r12, %rcx
	callq	softaes_block_encrypt@PLT
.Ltmp77:
	.loc	5 0 16 is_stmt 0                # crypto_aead/aegis128l/aegis128l_soft.c:0:16
	movq	%rax, 104(%rsp)                 # 8-byte Spill
.Ltmp78:
	#DEBUG_VALUE: encrypt_detached:state <- [DW_OP_LLVM_fragment 448 64] $r12
	#DEBUG_VALUE: encrypt_detached:state <- [DW_OP_plus_uconst 104, DW_OP_deref, DW_OP_LLVM_fragment 384 64] $rsp
	movq	%rdx, 24(%rsp)                  # 8-byte Spill
.Ltmp79:
	#DEBUG_VALUE: encrypt_detached:state <- [DW_OP_plus_uconst 24, DW_OP_deref, DW_OP_LLVM_fragment 448 64] $rsp
	movq	72(%rsp), %r13                  # 8-byte Reload
	.loc	5 44 16 is_stmt 1               # crypto_aead/aegis128l/aegis128l_soft.c:44:16 @[ crypto_aead/aegis128l/aegis128l_common.h:85:5 @[ crypto_aead/aegis128l/aegis128l_common.h:169:9 ] ]
	movq	%r13, %rdi
	movq	64(%rsp), %r12                  # 8-byte Reload
	movq	%r12, %rsi
	movq	%r14, %rdx
	movq	%r15, %rcx
	callq	softaes_block_encrypt@PLT
.Ltmp80:
	.loc	5 0 16 is_stmt 0                # crypto_aead/aegis128l/aegis128l_soft.c:0:16
	movq	%rax, 80(%rsp)                  # 8-byte Spill
.Ltmp81:
	#DEBUG_VALUE: encrypt_detached:state <- [DW_OP_LLVM_fragment 320 64] $r15
	#DEBUG_VALUE: encrypt_detached:state <- [DW_OP_plus_uconst 80, DW_OP_deref, DW_OP_LLVM_fragment 256 64] $rsp
	movq	%rdx, 88(%rsp)                  # 8-byte Spill
.Ltmp82:
	#DEBUG_VALUE: encrypt_detached:state <- [DW_OP_plus_uconst 88, DW_OP_deref, DW_OP_LLVM_fragment 320 64] $rsp
	movq	272(%rsp), %r15                 # 8-byte Reload
	.loc	5 45 16 is_stmt 1               # crypto_aead/aegis128l/aegis128l_soft.c:45:16 @[ crypto_aead/aegis128l/aegis128l_common.h:85:5 @[ crypto_aead/aegis128l/aegis128l_common.h:169:9 ] ]
	movq	%r15, %rdi
	movq	264(%rsp), %rbx                 # 8-byte Reload
	movq	%rbx, %rsi
	movq	%r13, %rdx
	movq	%r12, %rcx
	callq	softaes_block_encrypt@PLT
.Ltmp83:
	.loc	5 0 16 is_stmt 0                # crypto_aead/aegis128l/aegis128l_soft.c:0:16
	movq	%rax, 64(%rsp)                  # 8-byte Spill
.Ltmp84:
	#DEBUG_VALUE: encrypt_detached:state <- [DW_OP_LLVM_fragment 192 64] $r12
	#DEBUG_VALUE: encrypt_detached:state <- [DW_OP_plus_uconst 64, DW_OP_deref, DW_OP_LLVM_fragment 128 64] $rsp
	movq	%rdx, 72(%rsp)                  # 8-byte Spill
.Ltmp85:
	#DEBUG_VALUE: encrypt_detached:state <- [DW_OP_plus_uconst 72, DW_OP_deref, DW_OP_LLVM_fragment 192 64] $rsp
	movq	280(%rsp), %rdi                 # 8-byte Reload
	movq	288(%rsp), %rsi                 # 8-byte Reload
	.loc	5 46 16 is_stmt 1               # crypto_aead/aegis128l/aegis128l_soft.c:46:16 @[ crypto_aead/aegis128l/aegis128l_common.h:85:5 @[ crypto_aead/aegis128l/aegis128l_common.h:169:9 ] ]
	movq	%r15, %rdx
	movq	%rbx, %rcx
	callq	softaes_block_encrypt@PLT
.Ltmp86:
	movq	%rax, %rsi
.Ltmp87:
	#DEBUG_VALUE: softaes_block_xor:a <- [DW_OP_LLVM_convert 64 7, DW_OP_LLVM_convert 32 7, DW_OP_stack_value, DW_OP_LLVM_fragment 0 32] $rsi
	#DEBUG_VALUE: softaes_block_xor:a <- [DW_OP_constu 32, DW_OP_shr, DW_OP_LLVM_convert 64 7, DW_OP_LLVM_convert 32 7, DW_OP_stack_value, DW_OP_LLVM_fragment 32 32] $rsi
	movq	%rdx, %rdi
.Ltmp88:
	#DEBUG_VALUE: softaes_block_xor:a <- [DW_OP_LLVM_convert 64 7, DW_OP_LLVM_convert 32 7, DW_OP_stack_value, DW_OP_LLVM_fragment 64 32] $rdi
	#DEBUG_VALUE: softaes_block_xor:a <- [DW_OP_constu 32, DW_OP_shr, DW_OP_LLVM_convert 64 7, DW_OP_LLVM_convert 32 7, DW_OP_stack_value, DW_OP_LLVM_fragment 96 32] $rdi
	#DEBUG_VALUE: softaes_block_xor:b <- [DW_OP_plus_uconst 328, DW_OP_deref_size 8, DW_OP_LLVM_convert 64 7, DW_OP_LLVM_convert 32 7, DW_OP_stack_value, DW_OP_LLVM_fragment 0 32] $rsp
	#DEBUG_VALUE: softaes_block_xor:b <- [DW_OP_plus_uconst 328, DW_OP_deref_size 8, DW_OP_constu 32, DW_OP_shr, DW_OP_LLVM_convert 64 7, DW_OP_LLVM_convert 32 7, DW_OP_stack_value, DW_OP_LLVM_fragment 32 32] $rsp
	#DEBUG_VALUE: softaes_block_xor:b <- [DW_OP_plus_uconst 336, DW_OP_deref_size 8, DW_OP_LLVM_convert 64 7, DW_OP_LLVM_convert 32 7, DW_OP_stack_value, DW_OP_LLVM_fragment 64 32] $rsp
	#DEBUG_VALUE: softaes_block_xor:b <- [DW_OP_plus_uconst 336, DW_OP_deref_size 8, DW_OP_constu 32, DW_OP_shr, DW_OP_LLVM_convert 64 7, DW_OP_LLVM_convert 32 7, DW_OP_stack_value, DW_OP_LLVM_fragment 96 32] $rsp
	.loc	5 0 16 is_stmt 0                # crypto_aead/aegis128l/aegis128l_soft.c:0:16
	movq	16(%rbp), %rdx
.Ltmp89:
	.loc	8 45 37 is_stmt 1               # ./include/sodium/private/softaes.h:45:37 @[ crypto_aead/aegis128l/aegis128l_soft.c:48:16 @[ crypto_aead/aegis128l/aegis128l_common.h:85:5 @[ crypto_aead/aegis128l/aegis128l_common.h:169:9 ] ] ]
	xorq	328(%rsp), %rsi                 # 8-byte Folded Reload
.Ltmp90:
	#DEBUG_VALUE: softaes_block_xor:a <- [DW_OP_constu 32, DW_OP_shr, DW_OP_LLVM_convert 64 7, DW_OP_LLVM_convert 32 7, DW_OP_stack_value, DW_OP_LLVM_fragment 32 32] $rax
	#DEBUG_VALUE: softaes_block_xor:a <- [DW_OP_LLVM_convert 64 7, DW_OP_LLVM_convert 32 7, DW_OP_stack_value, DW_OP_LLVM_fragment 0 32] $rax
	#DEBUG_VALUE: softaes_block_xor:out <- [DW_OP_LLVM_convert 64 7, DW_OP_LLVM_convert 32 7, DW_OP_stack_value, DW_OP_LLVM_fragment 0 32] $rsi
	#DEBUG_VALUE: softaes_block_xor:out <- [DW_OP_constu 32, DW_OP_shr, DW_OP_LLVM_convert 64 7, DW_OP_LLVM_convert 32 7, DW_OP_stack_value, DW_OP_LLVM_fragment 32 32] $rsi
	.loc	8 45 63 is_stmt 0               # ./include/sodium/private/softaes.h:45:63 @[ crypto_aead/aegis128l/aegis128l_soft.c:48:16 @[ crypto_aead/aegis128l/aegis128l_common.h:85:5 @[ crypto_aead/aegis128l/aegis128l_common.h:169:9 ] ] ]
	xorq	336(%rsp), %rdi                 # 8-byte Folded Reload
.Ltmp91:
	#DEBUG_VALUE: softaes_block_xor:out <- [DW_OP_LLVM_convert 64 7, DW_OP_LLVM_convert 32 7, DW_OP_stack_value, DW_OP_LLVM_fragment 64 32] $rdi
	#DEBUG_VALUE: softaes_block_xor:out <- [DW_OP_constu 32, DW_OP_shr, DW_OP_LLVM_convert 64 7, DW_OP_LLVM_convert 32 7, DW_OP_stack_value, DW_OP_LLVM_fragment 96 32] $rdi
	#DEBUG_VALUE: encrypt_detached:state <- [DW_OP_LLVM_fragment 64 64] $rdi
	#DEBUG_VALUE: encrypt_detached:state <- [DW_OP_LLVM_fragment 0 64] $rsi
	#DEBUG_VALUE: softaes_block_xor:b <- [DW_OP_plus_uconst 344, DW_OP_deref_size 8, DW_OP_LLVM_convert 64 7, DW_OP_LLVM_convert 32 7, DW_OP_stack_value, DW_OP_LLVM_fragment 0 32] $rsp
	#DEBUG_VALUE: softaes_block_xor:b <- [DW_OP_plus_uconst 344, DW_OP_deref_size 8, DW_OP_constu 32, DW_OP_shr, DW_OP_LLVM_convert 64 7, DW_OP_LLVM_convert 32 7, DW_OP_stack_value, DW_OP_LLVM_fragment 32 32] $rsp
	#DEBUG_VALUE: softaes_block_xor:b <- [DW_OP_plus_uconst 352, DW_OP_deref_size 8, DW_OP_LLVM_convert 64 7, DW_OP_LLVM_convert 32 7, DW_OP_stack_value, DW_OP_LLVM_fragment 64 32] $rsp
	#DEBUG_VALUE: softaes_block_xor:b <- [DW_OP_plus_uconst 352, DW_OP_deref_size 8, DW_OP_constu 32, DW_OP_shr, DW_OP_LLVM_convert 64 7, DW_OP_LLVM_convert 32 7, DW_OP_stack_value, DW_OP_LLVM_fragment 96 32] $rsp
	.loc	8 0 63                          # ./include/sodium/private/softaes.h:0:63
	movq	112(%rsp), %rax                 # 8-byte Reload
.Ltmp92:
	.loc	8 45 37                         # ./include/sodium/private/softaes.h:45:37 @[ crypto_aead/aegis128l/aegis128l_soft.c:49:16 @[ crypto_aead/aegis128l/aegis128l_common.h:85:5 @[ crypto_aead/aegis128l/aegis128l_common.h:169:9 ] ] ]
	xorq	344(%rsp), %rax                 # 8-byte Folded Reload
.Ltmp93:
	#DEBUG_VALUE: softaes_block_xor:out <- [DW_OP_LLVM_convert 64 7, DW_OP_LLVM_convert 32 7, DW_OP_stack_value, DW_OP_LLVM_fragment 0 32] $rax
	#DEBUG_VALUE: softaes_block_xor:out <- [DW_OP_constu 32, DW_OP_shr, DW_OP_LLVM_convert 64 7, DW_OP_LLVM_convert 32 7, DW_OP_stack_value, DW_OP_LLVM_fragment 32 32] $rax
	.loc	8 0 37                          # ./include/sodium/private/softaes.h:0:37
	movq	%rax, 112(%rsp)                 # 8-byte Spill
.Ltmp94:
	#DEBUG_VALUE: softaes_block_xor:out <- [DW_OP_plus_uconst 112, DW_OP_deref_size 8, DW_OP_constu 32, DW_OP_shr, DW_OP_LLVM_convert 64 7, DW_OP_LLVM_convert 32 7, DW_OP_stack_value, DW_OP_LLVM_fragment 32 32] $rsp
	#DEBUG_VALUE: softaes_block_xor:out <- [DW_OP_plus_uconst 112, DW_OP_deref_size 8, DW_OP_LLVM_convert 64 7, DW_OP_LLVM_convert 32 7, DW_OP_stack_value, DW_OP_LLVM_fragment 0 32] $rsp
	#DEBUG_VALUE: softaes_block_xor:a <- [DW_OP_constu 32, DW_OP_shr, DW_OP_LLVM_convert 64 7, DW_OP_LLVM_convert 32 7, DW_OP_stack_value, DW_OP_LLVM_fragment 32 32] undef
	#DEBUG_VALUE: softaes_block_xor:a <- [DW_OP_LLVM_convert 64 7, DW_OP_LLVM_convert 32 7, DW_OP_stack_value, DW_OP_LLVM_fragment 0 32] undef
	#DEBUG_VALUE: encrypt_detached:state <- [DW_OP_LLVM_fragment 512 64] undef
	movq	312(%rsp), %r13                 # 8-byte Reload
	.loc	8 45 63                         # ./include/sodium/private/softaes.h:45:63 @[ crypto_aead/aegis128l/aegis128l_soft.c:49:16 @[ crypto_aead/aegis128l/aegis128l_common.h:85:5 @[ crypto_aead/aegis128l/aegis128l_common.h:169:9 ] ] ]
	xorq	352(%rsp), %r13                 # 8-byte Folded Reload
.Ltmp95:
	#DEBUG_VALUE: softaes_block_xor:out <- [DW_OP_LLVM_convert 64 7, DW_OP_LLVM_convert 32 7, DW_OP_stack_value, DW_OP_LLVM_fragment 64 32] $r13
	#DEBUG_VALUE: softaes_block_xor:out <- [DW_OP_constu 32, DW_OP_shr, DW_OP_LLVM_convert 64 7, DW_OP_LLVM_convert 32 7, DW_OP_stack_value, DW_OP_LLVM_fragment 96 32] $r13
	#DEBUG_VALUE: encrypt_detached:state <- [DW_OP_LLVM_fragment 576 64] $r13
	#DEBUG_VALUE: encrypt_detached:state <- [DW_OP_plus_uconst 112, DW_OP_deref, DW_OP_LLVM_fragment 512 64] $rsp
	#DEBUG_VALUE: encrypt_detached:i <- [DW_OP_plus_uconst 320, DW_OP_deref, DW_OP_plus_uconst 64, DW_OP_stack_value] $rsp
	.loc	8 0 63                          # ./include/sodium/private/softaes.h:0:63
	movq	320(%rsp), %rcx                 # 8-byte Reload
.Ltmp96:
	.loc	6 168 28 is_stmt 1              # crypto_aead/aegis128l/aegis128l_common.h:168:28
	leaq	64(%rcx), %r8
	subq	$-128, %rcx
	cmpq	%rdx, %rcx
.Ltmp97:
	.loc	6 168 5 is_stmt 0               # crypto_aead/aegis128l/aegis128l_common.h:168:5
	jbe	.LBB0_12
.Ltmp98:
# %bb.2:                                # %..preheader_crit_edge
	#DEBUG_VALUE: encrypt_detached:c <- [DW_OP_plus_uconst 376] [$rsp+0]
	#DEBUG_VALUE: encrypt_detached:mac <- [DW_OP_plus_uconst 384] [$rsp+0]
	#DEBUG_VALUE: encrypt_detached:maclen <- [DW_OP_plus_uconst 392] [$rsp+0]
	#DEBUG_VALUE: encrypt_detached:m <- [DW_OP_plus_uconst 368] [$rsp+0]
	#DEBUG_VALUE: encrypt_detached:mlen <- [DW_OP_plus_uconst 360] [$rsp+0]
	#DEBUG_VALUE: encrypt_detached:ad <- [DW_OP_plus_uconst 296] [$rsp+0]
	#DEBUG_VALUE: encrypt_detached:adlen <- [DW_OP_plus_uconst 16] [$rbp+0]
	#DEBUG_VALUE: encrypt_detached:npub <- [DW_OP_plus_uconst 24] [$rbp+0]
	#DEBUG_VALUE: encrypt_detached:k <- [DW_OP_plus_uconst 32] [$rbp+0]
	#DEBUG_VALUE: encrypt_detached:state <- [DW_OP_plus_uconst 48, DW_OP_deref, DW_OP_LLVM_fragment 896 64] $rsp
	#DEBUG_VALUE: encrypt_detached:state <- [DW_OP_plus_uconst 56, DW_OP_deref, DW_OP_LLVM_fragment 960 64] $rsp
	#DEBUG_VALUE: encrypt_detached:state <- [DW_OP_plus_uconst 96, DW_OP_deref, DW_OP_LLVM_fragment 768 64] $rsp
	#DEBUG_VALUE: encrypt_detached:state <- [DW_OP_plus_uconst 16, DW_OP_deref, DW_OP_LLVM_fragment 832 64] $rsp
	#DEBUG_VALUE: encrypt_detached:state <- [DW_OP_plus_uconst 40, DW_OP_deref, DW_OP_LLVM_fragment 640 64] $rsp
	#DEBUG_VALUE: encrypt_detached:state <- [DW_OP_plus_uconst 32, DW_OP_deref, DW_OP_LLVM_fragment 704 64] $rsp
	#DEBUG_VALUE: encrypt_detached:state <- [DW_OP_plus_uconst 112, DW_OP_deref, DW_OP_LLVM_fragment 512 64] $rsp
	#DEBUG_VALUE: encrypt_detached:state <- [DW_OP_LLVM_fragment 576 64] $r13
	#DEBUG_VALUE: encrypt_detached:state <- [DW_OP_plus_uconst 104, DW_OP_deref, DW_OP_LLVM_fragment 384 64] $rsp
	#DEBUG_VALUE: encrypt_detached:state <- [DW_OP_plus_uconst 24, DW_OP_deref, DW_OP_LLVM_fragment 448 64] $rsp
	#DEBUG_VALUE: encrypt_detached:state <- [DW_OP_plus_uconst 80, DW_OP_deref, DW_OP_LLVM_fragment 256 64] $rsp
	#DEBUG_VALUE: encrypt_detached:state <- [DW_OP_plus_uconst 88, DW_OP_deref, DW_OP_LLVM_fragment 320 64] $rsp
	#DEBUG_VALUE: encrypt_detached:state <- [DW_OP_plus_uconst 64, DW_OP_deref, DW_OP_LLVM_fragment 128 64] $rsp
	#DEBUG_VALUE: encrypt_detached:state <- [DW_OP_plus_uconst 72, DW_OP_deref, DW_OP_LLVM_fragment 192 64] $rsp
	#DEBUG_VALUE: encrypt_detached:state <- [DW_OP_LLVM_fragment 64 64] $rdi
	#DEBUG_VALUE: encrypt_detached:state <- [DW_OP_LLVM_fragment 0 64] $rsi
	#DEBUG_VALUE: encrypt_detached:i <- [DW_OP_plus_uconst 320, DW_OP_deref, DW_OP_plus_uconst 64, DW_OP_stack_value] $rsp
	#DEBUG_VALUE: aegis128l_absorb2:src <- [DW_OP_LLVM_arg 0, DW_OP_plus_uconst 320, DW_OP_deref, DW_OP_consts 64, DW_OP_div, DW_OP_consts 64, DW_OP_mul, DW_OP_LLVM_arg 1, DW_OP_plus_uconst 296, DW_OP_deref, DW_OP_plus, DW_OP_stack_value] $rsp, $rsp
	#DEBUG_VALUE: aegis128l_absorb2:state <- [DW_OP_plus_uconst 128, DW_OP_stack_value] $rsp
	#DEBUG_VALUE: aegis128l_absorb2:msg2 <- [DW_OP_plus_uconst 336, DW_OP_deref, DW_OP_LLVM_fragment 64 64] $rsp
	#DEBUG_VALUE: aegis128l_absorb2:msg2 <- [DW_OP_plus_uconst 328, DW_OP_deref, DW_OP_LLVM_fragment 0 64] $rsp
	#DEBUG_VALUE: aegis128l_absorb2:msg3 <- [DW_OP_plus_uconst 352, DW_OP_deref, DW_OP_LLVM_fragment 64 64] $rsp
	#DEBUG_VALUE: aegis128l_absorb2:msg3 <- [DW_OP_plus_uconst 344, DW_OP_deref, DW_OP_LLVM_fragment 0 64] $rsp
	.loc	6 0 5                           # crypto_aead/aegis128l/aegis128l_common.h:0:5
	movq	48(%rsp), %rcx                  # 8-byte Reload
.Ltmp99:
	movq	%rcx, 240(%rsp)
.Ltmp100:
	#DEBUG_VALUE: encrypt_detached:state <- [DW_OP_plus_uconst 128, DW_OP_plus_uconst 112, DW_OP_deref, DW_OP_LLVM_fragment 896 64] $rsp
	movq	56(%rsp), %rcx                  # 8-byte Reload
	movq	%rcx, 248(%rsp)
.Ltmp101:
	#DEBUG_VALUE: encrypt_detached:state <- [DW_OP_plus_uconst 128, DW_OP_plus_uconst 112, DW_OP_deref, DW_OP_LLVM_fragment 896 128] $rsp
	movq	96(%rsp), %rcx                  # 8-byte Reload
	movq	%rcx, 224(%rsp)
.Ltmp102:
	#DEBUG_VALUE: encrypt_detached:state <- [DW_OP_plus_uconst 128, DW_OP_plus_uconst 96, DW_OP_deref, DW_OP_LLVM_fragment 768 64] $rsp
	movq	16(%rsp), %rcx                  # 8-byte Reload
	movq	%rcx, 232(%rsp)
.Ltmp103:
	#DEBUG_VALUE: encrypt_detached:state <- [DW_OP_plus_uconst 128, DW_OP_plus_uconst 96, DW_OP_deref, DW_OP_LLVM_fragment 768 256] $rsp
	movq	40(%rsp), %rcx                  # 8-byte Reload
	movq	%rcx, 208(%rsp)
.Ltmp104:
	#DEBUG_VALUE: encrypt_detached:state <- [DW_OP_plus_uconst 128, DW_OP_plus_uconst 80, DW_OP_deref, DW_OP_LLVM_fragment 640 64] $rsp
	movq	32(%rsp), %rcx                  # 8-byte Reload
	movq	%rcx, 216(%rsp)
.Ltmp105:
	#DEBUG_VALUE: encrypt_detached:state <- [DW_OP_plus_uconst 128, DW_OP_plus_uconst 80, DW_OP_deref, DW_OP_LLVM_fragment 640 384] $rsp
	movq	112(%rsp), %rcx                 # 8-byte Reload
	movq	%rcx, 192(%rsp)
.Ltmp106:
	#DEBUG_VALUE: encrypt_detached:state <- [DW_OP_plus_uconst 128, DW_OP_plus_uconst 64, DW_OP_deref, DW_OP_LLVM_fragment 512 64] $rsp
	movq	%r13, 200(%rsp)
.Ltmp107:
	#DEBUG_VALUE: encrypt_detached:state <- [DW_OP_plus_uconst 128, DW_OP_plus_uconst 64, DW_OP_deref, DW_OP_LLVM_fragment 512 512] $rsp
	movq	104(%rsp), %rcx                 # 8-byte Reload
	movq	%rcx, 176(%rsp)
.Ltmp108:
	#DEBUG_VALUE: encrypt_detached:state <- [DW_OP_plus_uconst 128, DW_OP_plus_uconst 48, DW_OP_deref, DW_OP_LLVM_fragment 384 64] $rsp
	movq	24(%rsp), %rcx                  # 8-byte Reload
	movq	%rcx, 184(%rsp)
.Ltmp109:
	#DEBUG_VALUE: encrypt_detached:state <- [DW_OP_plus_uconst 128, DW_OP_plus_uconst 48, DW_OP_deref, DW_OP_LLVM_fragment 384 640] $rsp
	movq	80(%rsp), %rax                  # 8-byte Reload
	movq	%rax, 160(%rsp)
.Ltmp110:
	#DEBUG_VALUE: encrypt_detached:state <- [DW_OP_plus_uconst 128, DW_OP_plus_uconst 32, DW_OP_deref, DW_OP_LLVM_fragment 256 64] $rsp
	movq	88(%rsp), %rax                  # 8-byte Reload
	movq	%rax, 168(%rsp)
.Ltmp111:
	#DEBUG_VALUE: encrypt_detached:state <- [DW_OP_plus_uconst 128, DW_OP_plus_uconst 32, DW_OP_deref, DW_OP_LLVM_fragment 256 768] $rsp
	movq	64(%rsp), %rax                  # 8-byte Reload
	movq	%rax, 144(%rsp)
.Ltmp112:
	#DEBUG_VALUE: encrypt_detached:state <- [DW_OP_plus_uconst 128, DW_OP_plus_uconst 16, DW_OP_deref, DW_OP_LLVM_fragment 128 64] $rsp
	movq	72(%rsp), %rax                  # 8-byte Reload
	movq	%rax, 152(%rsp)
.Ltmp113:
	#DEBUG_VALUE: encrypt_detached:state <- [DW_OP_plus_uconst 128, DW_OP_plus_uconst 16, DW_OP_deref, DW_OP_LLVM_fragment 128 896] $rsp
	movq	%rdi, 136(%rsp)
.Ltmp114:
	#DEBUG_VALUE: encrypt_detached:state <- [DW_OP_plus_uconst 128, DW_OP_plus_uconst 8, DW_OP_deref, DW_OP_LLVM_fragment 64 960] $rsp
	.loc	5 48 16 is_stmt 1               # crypto_aead/aegis128l/aegis128l_soft.c:48:16 @[ crypto_aead/aegis128l/aegis128l_common.h:0 @[ crypto_aead/aegis128l/aegis128l_common.h:169:9 ] ]
	movq	%rsi, 128(%rsp)
.Ltmp115:
	#DEBUG_VALUE: encrypt_detached:state <- [DW_OP_plus_uconst 128, DW_OP_deref] $rsp
	.loc	5 0 16 is_stmt 0                # crypto_aead/aegis128l/aegis128l_soft.c:0:16
	movq	360(%rsp), %r13                 # 8-byte Reload
.Ltmp116:
.LBB0_3:                                # %.preheader
	#DEBUG_VALUE: encrypt_detached:c <- [DW_OP_plus_uconst 376] [$rsp+0]
	#DEBUG_VALUE: encrypt_detached:mac <- [DW_OP_plus_uconst 384] [$rsp+0]
	#DEBUG_VALUE: encrypt_detached:maclen <- [DW_OP_plus_uconst 392] [$rsp+0]
	#DEBUG_VALUE: encrypt_detached:m <- [DW_OP_plus_uconst 368] [$rsp+0]
	#DEBUG_VALUE: encrypt_detached:mlen <- [DW_OP_plus_uconst 360] [$rsp+0]
	#DEBUG_VALUE: encrypt_detached:ad <- [DW_OP_plus_uconst 296] [$rsp+0]
	#DEBUG_VALUE: encrypt_detached:adlen <- [DW_OP_plus_uconst 16] [$rbp+0]
	#DEBUG_VALUE: encrypt_detached:npub <- [DW_OP_plus_uconst 24] [$rbp+0]
	#DEBUG_VALUE: encrypt_detached:k <- [DW_OP_plus_uconst 32] [$rbp+0]
	#DEBUG_VALUE: encrypt_detached:state <- [DW_OP_plus_uconst 128, DW_OP_deref] $rsp
	movq	296(%rsp), %rsi                 # 8-byte Reload
.Ltmp117:
	#DEBUG_VALUE: encrypt_detached:i <- $r8
	.loc	6 171 14 is_stmt 1              # crypto_aead/aegis128l/aegis128l_common.h:171:14
	movq	%r8, %rcx
	orq	$32, %rcx
	.loc	6 171 19 is_stmt 0              # crypto_aead/aegis128l/aegis128l_common.h:171:19
	cmpq	%rdx, %rcx
.Ltmp118:
	.loc	6 171 5                         # crypto_aead/aegis128l/aegis128l_common.h:171:5
	ja	.LBB0_7
.Ltmp119:
# %bb.4:                                # %.lr.ph90
	#DEBUG_VALUE: encrypt_detached:c <- [DW_OP_plus_uconst 376] [$rsp+0]
	#DEBUG_VALUE: encrypt_detached:mac <- [DW_OP_plus_uconst 384] [$rsp+0]
	#DEBUG_VALUE: encrypt_detached:maclen <- [DW_OP_plus_uconst 392] [$rsp+0]
	#DEBUG_VALUE: encrypt_detached:m <- [DW_OP_plus_uconst 368] [$rsp+0]
	#DEBUG_VALUE: encrypt_detached:mlen <- [DW_OP_plus_uconst 360] [$rsp+0]
	#DEBUG_VALUE: encrypt_detached:ad <- [DW_OP_plus_uconst 296] [$rsp+0]
	#DEBUG_VALUE: encrypt_detached:adlen <- [DW_OP_plus_uconst 16] [$rbp+0]
	#DEBUG_VALUE: encrypt_detached:npub <- [DW_OP_plus_uconst 24] [$rbp+0]
	#DEBUG_VALUE: encrypt_detached:k <- [DW_OP_plus_uconst 32] [$rbp+0]
	#DEBUG_VALUE: encrypt_detached:state <- [DW_OP_plus_uconst 128, DW_OP_deref] $rsp
	#DEBUG_VALUE: encrypt_detached:i <- $r8
	.loc	6 0 5                           # crypto_aead/aegis128l/aegis128l_common.h:0:5
	movq	128(%rsp), %rax
	movq	136(%rsp), %rdi
	movq	240(%rsp), %r10
	movq	248(%rsp), %r9
	movq	224(%rsp), %rcx
	movq	%rcx, 32(%rsp)                  # 8-byte Spill
	movq	232(%rsp), %rcx
	movq	%rcx, 16(%rsp)                  # 8-byte Spill
	movq	208(%rsp), %rcx
	movq	%rcx, 272(%rsp)                 # 8-byte Spill
	movq	216(%rsp), %rcx
	movq	%rcx, 40(%rsp)                  # 8-byte Spill
	movq	192(%rsp), %rcx
	movq	%rcx, 24(%rsp)                  # 8-byte Spill
	movq	200(%rsp), %rbx
	movq	176(%rsp), %rcx
	movq	%rcx, 280(%rsp)                 # 8-byte Spill
	movq	184(%rsp), %rcx
	movq	%rcx, 288(%rsp)                 # 8-byte Spill
	movq	160(%rsp), %rcx
	movq	%rcx, 264(%rsp)                 # 8-byte Spill
	movq	168(%rsp), %rcx
	movq	%rcx, 48(%rsp)                  # 8-byte Spill
	movq	144(%rsp), %rcx
	movq	%rcx, 112(%rsp)                 # 8-byte Spill
	movq	152(%rsp), %rcx
	movq	%rcx, 56(%rsp)                  # 8-byte Spill
.Ltmp120:
	.p2align	4
.LBB0_5:                                # =>This Inner Loop Header: Depth=1
	#DEBUG_VALUE: encrypt_detached:c <- [DW_OP_plus_uconst 376] [$rsp+0]
	#DEBUG_VALUE: encrypt_detached:mac <- [DW_OP_plus_uconst 384] [$rsp+0]
	#DEBUG_VALUE: encrypt_detached:maclen <- [DW_OP_plus_uconst 392] [$rsp+0]
	#DEBUG_VALUE: encrypt_detached:m <- [DW_OP_plus_uconst 368] [$rsp+0]
	#DEBUG_VALUE: encrypt_detached:mlen <- [DW_OP_plus_uconst 360] [$rsp+0]
	#DEBUG_VALUE: encrypt_detached:ad <- [DW_OP_plus_uconst 296] [$rsp+0]
	#DEBUG_VALUE: encrypt_detached:adlen <- [DW_OP_plus_uconst 16] [$rbp+0]
	#DEBUG_VALUE: encrypt_detached:npub <- [DW_OP_plus_uconst 24] [$rbp+0]
	#DEBUG_VALUE: encrypt_detached:k <- [DW_OP_plus_uconst 32] [$rbp+0]
	movq	%rax, 320(%rsp)                 # 8-byte Spill
	movq	%rdi, 328(%rsp)                 # 8-byte Spill
.Ltmp121:
	.loc	6 172 29 is_stmt 1              # crypto_aead/aegis128l/aegis128l_common.h:172:29
	movq	%r10, %rdx
	movq	%r10, 336(%rsp)                 # 8-byte Spill
	movq	%r9, %rcx
	movq	%r9, 352(%rsp)                  # 8-byte Spill
.Ltmp122:
	#DEBUG_VALUE: encrypt_detached:i <- $r8
	#DEBUG_VALUE: aegis128l_absorb:src <- [DW_OP_LLVM_arg 0, DW_OP_LLVM_arg 1, DW_OP_minus, DW_OP_consts 32, DW_OP_div, DW_OP_consts 32, DW_OP_mul, DW_OP_LLVM_arg 1, DW_OP_LLVM_arg 2, DW_OP_plus, DW_OP_plus, DW_OP_stack_value] undef, undef, undef
	#DEBUG_VALUE: aegis128l_absorb:state <- [DW_OP_plus_uconst 128, DW_OP_stack_value] $rsp
	#DEBUG_VALUE: softaes_block_load:in <- [DW_OP_LLVM_arg 0, DW_OP_LLVM_arg 1, DW_OP_minus, DW_OP_consts 32, DW_OP_div, DW_OP_consts 32, DW_OP_mul, DW_OP_LLVM_arg 1, DW_OP_LLVM_arg 2, DW_OP_plus, DW_OP_plus, DW_OP_stack_value] undef, undef, undef
	#DEBUG_VALUE: load32_le:w <- undef
	#DEBUG_VALUE: load32_le:src <- [DW_OP_LLVM_arg 0, DW_OP_LLVM_arg 1, DW_OP_minus, DW_OP_consts 32, DW_OP_div, DW_OP_consts 32, DW_OP_mul, DW_OP_LLVM_arg 1, DW_OP_LLVM_arg 2, DW_OP_plus, DW_OP_plus, DW_OP_stack_value] undef, undef, undef
	#DEBUG_VALUE: memcpy:__dest <- undef
	#DEBUG_VALUE: memcpy:__src <- [DW_OP_LLVM_arg 0, DW_OP_LLVM_arg 1, DW_OP_minus, DW_OP_consts 32, DW_OP_div, DW_OP_consts 32, DW_OP_mul, DW_OP_LLVM_arg 1, DW_OP_LLVM_arg 2, DW_OP_plus, DW_OP_plus, DW_OP_stack_value] undef, undef, undef
	#DEBUG_VALUE: memcpy:__len <- 4
	.loc	6 0 29 is_stmt 0                # crypto_aead/aegis128l/aegis128l_common.h:0:29
	movq	%r8, 96(%rsp)                   # 8-byte Spill
.Ltmp123:
	#DEBUG_VALUE: encrypt_detached:i <- [DW_OP_plus_uconst 96, DW_OP_deref] $rsp
	.loc	7 29 10 is_stmt 1               # /usr/include/x86_64-linux-gnu/bits/string_fortified.h:29:10 @[ ./include/sodium/private/common.h:106:5 @[ ./include/sodium/private/softaes.h:20:32 @[ crypto_aead/aegis128l/aegis128l_common.h:70:12 @[ crypto_aead/aegis128l/aegis128l_common.h:172:9 ] ] ] ]
	movq	(%rsi,%r8), %r9
.Ltmp124:
	#DEBUG_VALUE: softaes_block_load:out <- [DW_OP_LLVM_fragment 0 32] undef
	#DEBUG_VALUE: load32_le:w <- undef
	#DEBUG_VALUE: memcpy:__dest <- undef
	#DEBUG_VALUE: memcpy:__len <- 4
	#DEBUG_VALUE: softaes_block_load:out <- [DW_OP_LLVM_fragment 32 32] undef
	#DEBUG_VALUE: load32_le:w <- undef
	#DEBUG_VALUE: load32_le:src <- [DW_OP_LLVM_arg 0, DW_OP_LLVM_arg 1, DW_OP_minus, DW_OP_consts 32, DW_OP_div, DW_OP_consts 32, DW_OP_mul, DW_OP_consts 8, DW_OP_LLVM_arg 1, DW_OP_plus, DW_OP_LLVM_arg 2, DW_OP_plus, DW_OP_plus, DW_OP_stack_value] undef, undef, undef
	#DEBUG_VALUE: memcpy:__dest <- undef
	#DEBUG_VALUE: memcpy:__src <- [DW_OP_LLVM_arg 0, DW_OP_LLVM_arg 1, DW_OP_minus, DW_OP_consts 32, DW_OP_div, DW_OP_consts 32, DW_OP_mul, DW_OP_consts 8, DW_OP_LLVM_arg 1, DW_OP_plus, DW_OP_LLVM_arg 2, DW_OP_plus, DW_OP_plus, DW_OP_stack_value] undef, undef, undef
	#DEBUG_VALUE: memcpy:__len <- 4
	.loc	7 0 10 is_stmt 0                # /usr/include/x86_64-linux-gnu/bits/string_fortified.h:0:10
	movq	%r9, 72(%rsp)                   # 8-byte Spill
.Ltmp125:
	.loc	7 29 10                         # /usr/include/x86_64-linux-gnu/bits/string_fortified.h:29:10 @[ ./include/sodium/private/common.h:106:5 @[ ./include/sodium/private/softaes.h:20:70 @[ crypto_aead/aegis128l/aegis128l_common.h:70:12 @[ crypto_aead/aegis128l/aegis128l_common.h:172:9 ] ] ] ]
	movq	8(%rsi,%r8), %r9
.Ltmp126:
	#DEBUG_VALUE: aegis128l_absorb:msg0 <- [DW_OP_LLVM_fragment 64 64] $r9
	#DEBUG_VALUE: softaes_block_load:out <- [DW_OP_LLVM_fragment 64 32] undef
	#DEBUG_VALUE: load32_le:w <- undef
	#DEBUG_VALUE: memcpy:__dest <- undef
	#DEBUG_VALUE: memcpy:__len <- 4
	#DEBUG_VALUE: softaes_block_load:out <- [DW_OP_LLVM_fragment 96 32] undef
	#DEBUG_VALUE: aegis128l_absorb:msg0 <- [DW_OP_plus_uconst 72, DW_OP_deref, DW_OP_LLVM_fragment 0 64] $rsp
	#DEBUG_VALUE: softaes_block_load:in <- [DW_OP_LLVM_arg 0, DW_OP_LLVM_arg 1, DW_OP_minus, DW_OP_consts 32, DW_OP_div, DW_OP_consts 32, DW_OP_mul, DW_OP_consts 16, DW_OP_LLVM_arg 1, DW_OP_plus, DW_OP_LLVM_arg 2, DW_OP_plus, DW_OP_plus, DW_OP_stack_value] undef, undef, undef
	#DEBUG_VALUE: load32_le:w <- undef
	#DEBUG_VALUE: load32_le:src <- [DW_OP_LLVM_arg 0, DW_OP_LLVM_arg 1, DW_OP_minus, DW_OP_consts 32, DW_OP_div, DW_OP_consts 32, DW_OP_mul, DW_OP_consts 16, DW_OP_LLVM_arg 1, DW_OP_plus, DW_OP_LLVM_arg 2, DW_OP_plus, DW_OP_plus, DW_OP_stack_value] undef, undef, undef
	#DEBUG_VALUE: memcpy:__dest <- undef
	#DEBUG_VALUE: memcpy:__src <- [DW_OP_LLVM_arg 0, DW_OP_LLVM_arg 1, DW_OP_minus, DW_OP_consts 32, DW_OP_div, DW_OP_consts 32, DW_OP_mul, DW_OP_consts 16, DW_OP_LLVM_arg 1, DW_OP_plus, DW_OP_LLVM_arg 2, DW_OP_plus, DW_OP_plus, DW_OP_stack_value] undef, undef, undef
	#DEBUG_VALUE: memcpy:__len <- 4
	.loc	7 0 10                          # /usr/include/x86_64-linux-gnu/bits/string_fortified.h:0:10
	movq	%r9, 80(%rsp)                   # 8-byte Spill
.Ltmp127:
	#DEBUG_VALUE: aegis128l_absorb:msg0 <- [DW_OP_plus_uconst 80, DW_OP_deref, DW_OP_LLVM_fragment 64 64] $rsp
	.loc	7 29 10                         # /usr/include/x86_64-linux-gnu/bits/string_fortified.h:29:10 @[ ./include/sodium/private/common.h:106:5 @[ ./include/sodium/private/softaes.h:20:32 @[ crypto_aead/aegis128l/aegis128l_common.h:71:12 @[ crypto_aead/aegis128l/aegis128l_common.h:172:9 ] ] ] ]
	movq	16(%rsi,%r8), %r9
.Ltmp128:
	#DEBUG_VALUE: softaes_block_load:out <- [DW_OP_LLVM_fragment 0 32] undef
	#DEBUG_VALUE: load32_le:w <- undef
	#DEBUG_VALUE: memcpy:__dest <- undef
	#DEBUG_VALUE: memcpy:__len <- 4
	#DEBUG_VALUE: softaes_block_load:out <- [DW_OP_LLVM_fragment 32 32] undef
	#DEBUG_VALUE: load32_le:w <- undef
	#DEBUG_VALUE: load32_le:src <- [DW_OP_LLVM_arg 0, DW_OP_LLVM_arg 1, DW_OP_minus, DW_OP_consts 32, DW_OP_div, DW_OP_consts 32, DW_OP_mul, DW_OP_consts 24, DW_OP_LLVM_arg 1, DW_OP_plus, DW_OP_LLVM_arg 2, DW_OP_plus, DW_OP_plus, DW_OP_stack_value] undef, undef, undef
	#DEBUG_VALUE: memcpy:__dest <- undef
	#DEBUG_VALUE: memcpy:__src <- [DW_OP_LLVM_arg 0, DW_OP_LLVM_arg 1, DW_OP_minus, DW_OP_consts 32, DW_OP_div, DW_OP_consts 32, DW_OP_mul, DW_OP_consts 24, DW_OP_LLVM_arg 1, DW_OP_plus, DW_OP_LLVM_arg 2, DW_OP_plus, DW_OP_plus, DW_OP_stack_value] undef, undef, undef
	#DEBUG_VALUE: memcpy:__len <- 4
	.loc	7 0 10                          # /usr/include/x86_64-linux-gnu/bits/string_fortified.h:0:10
	movq	%r9, 88(%rsp)                   # 8-byte Spill
.Ltmp129:
	.loc	7 29 10                         # /usr/include/x86_64-linux-gnu/bits/string_fortified.h:29:10 @[ ./include/sodium/private/common.h:106:5 @[ ./include/sodium/private/softaes.h:20:70 @[ crypto_aead/aegis128l/aegis128l_common.h:71:12 @[ crypto_aead/aegis128l/aegis128l_common.h:172:9 ] ] ] ]
	movq	24(%rsi,%r8), %rsi
.Ltmp130:
	#DEBUG_VALUE: aegis128l_absorb:msg1 <- [DW_OP_LLVM_fragment 64 64] $rsi
	#DEBUG_VALUE: aegis128l_update:d2 <- [DW_OP_LLVM_fragment 64 64] $rsi
	#DEBUG_VALUE: softaes_block_load:out <- [DW_OP_LLVM_fragment 64 32] undef
	#DEBUG_VALUE: load32_le:w <- undef
	#DEBUG_VALUE: memcpy:__dest <- undef
	#DEBUG_VALUE: memcpy:__len <- 4
	#DEBUG_VALUE: softaes_block_load:out <- [DW_OP_LLVM_fragment 96 32] undef
	#DEBUG_VALUE: aegis128l_absorb:msg1 <- [DW_OP_plus_uconst 88, DW_OP_deref, DW_OP_LLVM_fragment 0 64] $rsp
	#DEBUG_VALUE: aegis128l_update:d1 <- [DW_OP_plus_uconst 72, DW_OP_deref, DW_OP_LLVM_fragment 0 64] $rsp
	#DEBUG_VALUE: aegis128l_update:d1 <- [DW_OP_plus_uconst 80, DW_OP_deref, DW_OP_LLVM_fragment 64 64] $rsp
	#DEBUG_VALUE: aegis128l_update:d2 <- [DW_OP_plus_uconst 88, DW_OP_deref, DW_OP_LLVM_fragment 0 64] $rsp
	#DEBUG_VALUE: aegis128l_update:state <- [DW_OP_plus_uconst 128, DW_OP_stack_value] $rsp
	#DEBUG_VALUE: aegis128l_update:tmp <- [DW_OP_plus_uconst 336, DW_OP_deref, DW_OP_LLVM_fragment 0 64] $rsp
	#DEBUG_VALUE: aegis128l_update:tmp <- [DW_OP_plus_uconst 352, DW_OP_deref, DW_OP_LLVM_fragment 64 64] $rsp
	.loc	7 0 10                          # /usr/include/x86_64-linux-gnu/bits/string_fortified.h:0:10
	movq	%rsi, 104(%rsp)                 # 8-byte Spill
.Ltmp131:
	#DEBUG_VALUE: aegis128l_update:d2 <- [DW_OP_plus_uconst 104, DW_OP_deref, DW_OP_LLVM_fragment 64 64] $rsp
	#DEBUG_VALUE: aegis128l_absorb:msg1 <- [DW_OP_plus_uconst 104, DW_OP_deref, DW_OP_LLVM_fragment 64 64] $rsp
	movq	32(%rsp), %r15                  # 8-byte Reload
.Ltmp132:
	.loc	5 39 16 is_stmt 1               # crypto_aead/aegis128l/aegis128l_soft.c:39:16 @[ crypto_aead/aegis128l/aegis128l_common.h:72:5 @[ crypto_aead/aegis128l/aegis128l_common.h:172:9 ] ]
	movq	%r15, %rdi
	movq	16(%rsp), %r12                  # 8-byte Reload
	movq	%r12, %rsi
	callq	softaes_block_encrypt@PLT
.Ltmp133:
	.loc	5 0 16 is_stmt 0                # crypto_aead/aegis128l/aegis128l_soft.c:0:16
	movq	%rax, 64(%rsp)                  # 8-byte Spill
.Ltmp134:
	#DEBUG_VALUE: encrypt_detached:state <- [DW_OP_plus_uconst 64, DW_OP_deref, DW_OP_LLVM_fragment 896 64] $rsp
	movq	%rdx, 344(%rsp)                 # 8-byte Spill
.Ltmp135:
	#DEBUG_VALUE: encrypt_detached:state <- [DW_OP_plus_uconst 344, DW_OP_deref, DW_OP_LLVM_fragment 960 64] $rsp
	movq	272(%rsp), %r13                 # 8-byte Reload
	.loc	5 40 16 is_stmt 1               # crypto_aead/aegis128l/aegis128l_soft.c:40:16 @[ crypto_aead/aegis128l/aegis128l_common.h:72:5 @[ crypto_aead/aegis128l/aegis128l_common.h:172:9 ] ]
	movq	%r13, %rdi
	movq	40(%rsp), %r14                  # 8-byte Reload
	movq	%r14, %rsi
	movq	%r15, %rdx
	movq	%r12, %rcx
	callq	softaes_block_encrypt@PLT
.Ltmp136:
	.loc	5 0 16 is_stmt 0                # crypto_aead/aegis128l/aegis128l_soft.c:0:16
	movq	%rax, 32(%rsp)                  # 8-byte Spill
.Ltmp137:
	#DEBUG_VALUE: encrypt_detached:state <- [DW_OP_plus_uconst 32, DW_OP_deref, DW_OP_LLVM_fragment 768 64] $rsp
	movq	%rdx, 16(%rsp)                  # 8-byte Spill
.Ltmp138:
	#DEBUG_VALUE: encrypt_detached:state <- [DW_OP_plus_uconst 16, DW_OP_deref, DW_OP_LLVM_fragment 832 64] $rsp
	movq	24(%rsp), %r15                  # 8-byte Reload
	.loc	5 41 16 is_stmt 1               # crypto_aead/aegis128l/aegis128l_soft.c:41:16 @[ crypto_aead/aegis128l/aegis128l_common.h:72:5 @[ crypto_aead/aegis128l/aegis128l_common.h:172:9 ] ]
	movq	%r15, %rdi
	movq	%rbx, %rsi
	movq	%r13, %rdx
	movq	%r14, %rcx
	callq	softaes_block_encrypt@PLT
.Ltmp139:
	.loc	5 0 16 is_stmt 0                # crypto_aead/aegis128l/aegis128l_soft.c:0:16
	movq	%rax, 272(%rsp)                 # 8-byte Spill
.Ltmp140:
	#DEBUG_VALUE: encrypt_detached:state <- [DW_OP_plus_uconst 272, DW_OP_deref, DW_OP_LLVM_fragment 640 64] $rsp
	movq	%rdx, 40(%rsp)                  # 8-byte Spill
.Ltmp141:
	#DEBUG_VALUE: encrypt_detached:state <- [DW_OP_plus_uconst 40, DW_OP_deref, DW_OP_LLVM_fragment 704 64] $rsp
	movq	%rbx, %rcx
	movq	280(%rsp), %rbx                 # 8-byte Reload
	.loc	5 42 16 is_stmt 1               # crypto_aead/aegis128l/aegis128l_soft.c:42:16 @[ crypto_aead/aegis128l/aegis128l_common.h:72:5 @[ crypto_aead/aegis128l/aegis128l_common.h:172:9 ] ]
	movq	%rbx, %rdi
	movq	288(%rsp), %r12                 # 8-byte Reload
	movq	%r12, %rsi
	movq	%r15, %rdx
	callq	softaes_block_encrypt@PLT
.Ltmp142:
	movq	%rax, %r14
.Ltmp143:
	#DEBUG_VALUE: encrypt_detached:state <- [DW_OP_LLVM_fragment 512 64] $r14
	#DEBUG_VALUE: softaes_block_xor:a <- [DW_OP_LLVM_convert 64 7, DW_OP_LLVM_convert 32 7, DW_OP_stack_value, DW_OP_LLVM_fragment 0 32] $r14
	#DEBUG_VALUE: softaes_block_xor:a <- [DW_OP_constu 32, DW_OP_shr, DW_OP_LLVM_convert 64 7, DW_OP_LLVM_convert 32 7, DW_OP_stack_value, DW_OP_LLVM_fragment 32 32] $r14
	movq	%rdx, %rax
.Ltmp144:
	#DEBUG_VALUE: encrypt_detached:state <- [DW_OP_LLVM_fragment 576 64] $rdx
	#DEBUG_VALUE: softaes_block_xor:a <- [DW_OP_LLVM_convert 64 7, DW_OP_LLVM_convert 32 7, DW_OP_stack_value, DW_OP_LLVM_fragment 64 32] $rdx
	#DEBUG_VALUE: softaes_block_xor:a <- [DW_OP_constu 32, DW_OP_shr, DW_OP_LLVM_convert 64 7, DW_OP_LLVM_convert 32 7, DW_OP_stack_value, DW_OP_LLVM_fragment 96 32] $rdx
	.loc	5 0 16 is_stmt 0                # crypto_aead/aegis128l/aegis128l_soft.c:0:16
	movq	264(%rsp), %r15                 # 8-byte Reload
	.loc	5 43 16 is_stmt 1               # crypto_aead/aegis128l/aegis128l_soft.c:43:16 @[ crypto_aead/aegis128l/aegis128l_common.h:72:5 @[ crypto_aead/aegis128l/aegis128l_common.h:172:9 ] ]
	movq	%r15, %rdi
	movq	48(%rsp), %r13                  # 8-byte Reload
	movq	%r13, %rsi
	movq	%rbx, %rdx
.Ltmp145:
	#DEBUG_VALUE: softaes_block_xor:a <- [DW_OP_constu 32, DW_OP_shr, DW_OP_LLVM_convert 64 7, DW_OP_LLVM_convert 32 7, DW_OP_stack_value, DW_OP_LLVM_fragment 96 32] $rax
	#DEBUG_VALUE: softaes_block_xor:a <- [DW_OP_LLVM_convert 64 7, DW_OP_LLVM_convert 32 7, DW_OP_stack_value, DW_OP_LLVM_fragment 64 32] $rax
	#DEBUG_VALUE: encrypt_detached:state <- [DW_OP_LLVM_fragment 576 64] $rax
	.loc	5 0 16 is_stmt 0                # crypto_aead/aegis128l/aegis128l_soft.c:0:16
	movq	%rax, %rbx
.Ltmp146:
	#DEBUG_VALUE: softaes_block_xor:a <- [DW_OP_constu 32, DW_OP_shr, DW_OP_LLVM_convert 64 7, DW_OP_LLVM_convert 32 7, DW_OP_stack_value, DW_OP_LLVM_fragment 96 32] $rbx
	#DEBUG_VALUE: softaes_block_xor:a <- [DW_OP_LLVM_convert 64 7, DW_OP_LLVM_convert 32 7, DW_OP_stack_value, DW_OP_LLVM_fragment 64 32] $rbx
	#DEBUG_VALUE: encrypt_detached:state <- [DW_OP_LLVM_fragment 576 64] $rbx
	.loc	5 43 16                         # crypto_aead/aegis128l/aegis128l_soft.c:43:16 @[ crypto_aead/aegis128l/aegis128l_common.h:72:5 @[ crypto_aead/aegis128l/aegis128l_common.h:172:9 ] ]
	movq	%r12, %rcx
	callq	softaes_block_encrypt@PLT
.Ltmp147:
	.loc	5 0 16                          # crypto_aead/aegis128l/aegis128l_soft.c:0:16
	movq	%rax, 280(%rsp)                 # 8-byte Spill
.Ltmp148:
	#DEBUG_VALUE: encrypt_detached:state <- [DW_OP_plus_uconst 280, DW_OP_deref, DW_OP_LLVM_fragment 384 64] $rsp
	movq	%rdx, 288(%rsp)                 # 8-byte Spill
.Ltmp149:
	#DEBUG_VALUE: encrypt_detached:state <- [DW_OP_plus_uconst 288, DW_OP_deref, DW_OP_LLVM_fragment 448 64] $rsp
	movq	112(%rsp), %rdi                 # 8-byte Reload
	movq	56(%rsp), %r12                  # 8-byte Reload
	.loc	5 44 16 is_stmt 1               # crypto_aead/aegis128l/aegis128l_soft.c:44:16 @[ crypto_aead/aegis128l/aegis128l_common.h:72:5 @[ crypto_aead/aegis128l/aegis128l_common.h:172:9 ] ]
	movq	%r12, %rsi
	movq	%r15, %rdx
	movq	%r13, %rcx
	callq	softaes_block_encrypt@PLT
.Ltmp150:
	.loc	5 0 16 is_stmt 0                # crypto_aead/aegis128l/aegis128l_soft.c:0:16
	movq	%rax, 264(%rsp)                 # 8-byte Spill
.Ltmp151:
	#DEBUG_VALUE: encrypt_detached:state <- [DW_OP_plus_uconst 264, DW_OP_deref, DW_OP_LLVM_fragment 256 64] $rsp
	movq	%rdx, 48(%rsp)                  # 8-byte Spill
.Ltmp152:
	#DEBUG_VALUE: encrypt_detached:state <- [DW_OP_plus_uconst 48, DW_OP_deref, DW_OP_LLVM_fragment 320 64] $rsp
	movq	320(%rsp), %r13                 # 8-byte Reload
	.loc	5 45 16 is_stmt 1               # crypto_aead/aegis128l/aegis128l_soft.c:45:16 @[ crypto_aead/aegis128l/aegis128l_common.h:72:5 @[ crypto_aead/aegis128l/aegis128l_common.h:172:9 ] ]
	movq	%r13, %rdi
	movq	328(%rsp), %r15                 # 8-byte Reload
	movq	%r15, %rsi
	movq	112(%rsp), %rdx                 # 8-byte Reload
	movq	%r12, %rcx
	callq	softaes_block_encrypt@PLT
.Ltmp153:
	.loc	5 0 16 is_stmt 0                # crypto_aead/aegis128l/aegis128l_soft.c:0:16
	movq	%rax, 112(%rsp)                 # 8-byte Spill
.Ltmp154:
	#DEBUG_VALUE: encrypt_detached:state <- [DW_OP_plus_uconst 112, DW_OP_deref, DW_OP_LLVM_fragment 128 64] $rsp
	movq	%rdx, 56(%rsp)                  # 8-byte Spill
.Ltmp155:
	#DEBUG_VALUE: encrypt_detached:state <- [DW_OP_plus_uconst 56, DW_OP_deref, DW_OP_LLVM_fragment 192 64] $rsp
	movq	336(%rsp), %rdi                 # 8-byte Reload
	movq	352(%rsp), %rsi                 # 8-byte Reload
	.loc	5 46 16 is_stmt 1               # crypto_aead/aegis128l/aegis128l_soft.c:46:16 @[ crypto_aead/aegis128l/aegis128l_common.h:72:5 @[ crypto_aead/aegis128l/aegis128l_common.h:172:9 ] ]
	movq	%r13, %rdx
	movq	%r15, %rcx
	callq	softaes_block_encrypt@PLT
.Ltmp156:
	.loc	5 0 16 is_stmt 0                # crypto_aead/aegis128l/aegis128l_soft.c:0:16
	movq	64(%rsp), %r10                  # 8-byte Reload
	movq	344(%rsp), %r9                  # 8-byte Reload
	movq	296(%rsp), %rsi                 # 8-byte Reload
.Ltmp157:
	#DEBUG_VALUE: softaes_block_xor:a <- [DW_OP_LLVM_convert 64 7, DW_OP_LLVM_convert 32 7, DW_OP_stack_value, DW_OP_LLVM_fragment 0 32] $rax
	#DEBUG_VALUE: softaes_block_xor:a <- [DW_OP_constu 32, DW_OP_shr, DW_OP_LLVM_convert 64 7, DW_OP_LLVM_convert 32 7, DW_OP_stack_value, DW_OP_LLVM_fragment 32 32] $rax
	.loc	5 46 16                         # crypto_aead/aegis128l/aegis128l_soft.c:46:16 @[ crypto_aead/aegis128l/aegis128l_common.h:72:5 @[ crypto_aead/aegis128l/aegis128l_common.h:172:9 ] ]
	movq	%rdx, %rdi
.Ltmp158:
	#DEBUG_VALUE: softaes_block_xor:a <- [DW_OP_LLVM_convert 64 7, DW_OP_LLVM_convert 32 7, DW_OP_stack_value, DW_OP_LLVM_fragment 64 32] $rdi
	#DEBUG_VALUE: softaes_block_xor:a <- [DW_OP_constu 32, DW_OP_shr, DW_OP_LLVM_convert 64 7, DW_OP_LLVM_convert 32 7, DW_OP_stack_value, DW_OP_LLVM_fragment 96 32] $rdi
	#DEBUG_VALUE: softaes_block_xor:b <- [DW_OP_plus_uconst 72, DW_OP_deref_size 8, DW_OP_LLVM_convert 64 7, DW_OP_LLVM_convert 32 7, DW_OP_stack_value, DW_OP_LLVM_fragment 0 32] $rsp
	#DEBUG_VALUE: softaes_block_xor:b <- [DW_OP_plus_uconst 72, DW_OP_deref_size 8, DW_OP_constu 32, DW_OP_shr, DW_OP_LLVM_convert 64 7, DW_OP_LLVM_convert 32 7, DW_OP_stack_value, DW_OP_LLVM_fragment 32 32] $rsp
	#DEBUG_VALUE: softaes_block_xor:b <- [DW_OP_plus_uconst 80, DW_OP_deref_size 8, DW_OP_LLVM_convert 64 7, DW_OP_LLVM_convert 32 7, DW_OP_stack_value, DW_OP_LLVM_fragment 64 32] $rsp
	#DEBUG_VALUE: softaes_block_xor:b <- [DW_OP_plus_uconst 80, DW_OP_deref_size 8, DW_OP_constu 32, DW_OP_shr, DW_OP_LLVM_convert 64 7, DW_OP_LLVM_convert 32 7, DW_OP_stack_value, DW_OP_LLVM_fragment 96 32] $rsp
	.loc	5 0 16                          # crypto_aead/aegis128l/aegis128l_soft.c:0:16
	movq	16(%rbp), %rdx
.Ltmp159:
	.loc	8 45 37 is_stmt 1               # ./include/sodium/private/softaes.h:45:37 @[ crypto_aead/aegis128l/aegis128l_soft.c:48:16 @[ crypto_aead/aegis128l/aegis128l_common.h:72:5 @[ crypto_aead/aegis128l/aegis128l_common.h:172:9 ] ] ]
	xorq	72(%rsp), %rax                  # 8-byte Folded Reload
.Ltmp160:
	#DEBUG_VALUE: softaes_block_xor:out <- [DW_OP_LLVM_convert 64 7, DW_OP_LLVM_convert 32 7, DW_OP_stack_value, DW_OP_LLVM_fragment 0 32] $rax
	#DEBUG_VALUE: softaes_block_xor:out <- [DW_OP_constu 32, DW_OP_shr, DW_OP_LLVM_convert 64 7, DW_OP_LLVM_convert 32 7, DW_OP_stack_value, DW_OP_LLVM_fragment 32 32] $rax
	.loc	8 45 63 is_stmt 0               # ./include/sodium/private/softaes.h:45:63 @[ crypto_aead/aegis128l/aegis128l_soft.c:48:16 @[ crypto_aead/aegis128l/aegis128l_common.h:72:5 @[ crypto_aead/aegis128l/aegis128l_common.h:172:9 ] ] ]
	xorq	80(%rsp), %rdi                  # 8-byte Folded Reload
.Ltmp161:
	#DEBUG_VALUE: softaes_block_xor:out <- [DW_OP_LLVM_convert 64 7, DW_OP_LLVM_convert 32 7, DW_OP_stack_value, DW_OP_LLVM_fragment 64 32] $rdi
	#DEBUG_VALUE: softaes_block_xor:out <- [DW_OP_constu 32, DW_OP_shr, DW_OP_LLVM_convert 64 7, DW_OP_LLVM_convert 32 7, DW_OP_stack_value, DW_OP_LLVM_fragment 96 32] $rdi
	#DEBUG_VALUE: encrypt_detached:state <- [DW_OP_LLVM_fragment 64 64] $rdi
	#DEBUG_VALUE: encrypt_detached:state <- [DW_OP_LLVM_fragment 0 64] $rax
	#DEBUG_VALUE: softaes_block_xor:b <- [DW_OP_plus_uconst 88, DW_OP_deref_size 8, DW_OP_LLVM_convert 64 7, DW_OP_LLVM_convert 32 7, DW_OP_stack_value, DW_OP_LLVM_fragment 0 32] $rsp
	#DEBUG_VALUE: softaes_block_xor:b <- [DW_OP_plus_uconst 88, DW_OP_deref_size 8, DW_OP_constu 32, DW_OP_shr, DW_OP_LLVM_convert 64 7, DW_OP_LLVM_convert 32 7, DW_OP_stack_value, DW_OP_LLVM_fragment 32 32] $rsp
	#DEBUG_VALUE: softaes_block_xor:b <- [DW_OP_plus_uconst 104, DW_OP_deref_size 8, DW_OP_LLVM_convert 64 7, DW_OP_LLVM_convert 32 7, DW_OP_stack_value, DW_OP_LLVM_fragment 64 32] $rsp
	#DEBUG_VALUE: softaes_block_xor:b <- [DW_OP_plus_uconst 104, DW_OP_deref_size 8, DW_OP_constu 32, DW_OP_shr, DW_OP_LLVM_convert 64 7, DW_OP_LLVM_convert 32 7, DW_OP_stack_value, DW_OP_LLVM_fragment 96 32] $rsp
	.loc	8 45 37                         # ./include/sodium/private/softaes.h:45:37 @[ crypto_aead/aegis128l/aegis128l_soft.c:49:16 @[ crypto_aead/aegis128l/aegis128l_common.h:72:5 @[ crypto_aead/aegis128l/aegis128l_common.h:172:9 ] ] ]
	xorq	88(%rsp), %r14                  # 8-byte Folded Reload
.Ltmp162:
	#DEBUG_VALUE: softaes_block_xor:out <- [DW_OP_LLVM_convert 64 7, DW_OP_LLVM_convert 32 7, DW_OP_stack_value, DW_OP_LLVM_fragment 0 32] $r14
	#DEBUG_VALUE: softaes_block_xor:out <- [DW_OP_constu 32, DW_OP_shr, DW_OP_LLVM_convert 64 7, DW_OP_LLVM_convert 32 7, DW_OP_stack_value, DW_OP_LLVM_fragment 32 32] $r14
	.loc	8 0 37                          # ./include/sodium/private/softaes.h:0:37
	movq	%r14, 24(%rsp)                  # 8-byte Spill
.Ltmp163:
	#DEBUG_VALUE: softaes_block_xor:out <- [DW_OP_plus_uconst 24, DW_OP_deref_size 8, DW_OP_constu 32, DW_OP_shr, DW_OP_LLVM_convert 64 7, DW_OP_LLVM_convert 32 7, DW_OP_stack_value, DW_OP_LLVM_fragment 32 32] $rsp
	#DEBUG_VALUE: softaes_block_xor:out <- [DW_OP_plus_uconst 24, DW_OP_deref_size 8, DW_OP_LLVM_convert 64 7, DW_OP_LLVM_convert 32 7, DW_OP_stack_value, DW_OP_LLVM_fragment 0 32] $rsp
	.loc	8 45 63                         # ./include/sodium/private/softaes.h:45:63 @[ crypto_aead/aegis128l/aegis128l_soft.c:49:16 @[ crypto_aead/aegis128l/aegis128l_common.h:72:5 @[ crypto_aead/aegis128l/aegis128l_common.h:172:9 ] ] ]
	xorq	104(%rsp), %rbx                 # 8-byte Folded Reload
.Ltmp164:
	#DEBUG_VALUE: softaes_block_xor:out <- [DW_OP_LLVM_convert 64 7, DW_OP_LLVM_convert 32 7, DW_OP_stack_value, DW_OP_LLVM_fragment 64 32] $rbx
	#DEBUG_VALUE: softaes_block_xor:out <- [DW_OP_constu 32, DW_OP_shr, DW_OP_LLVM_convert 64 7, DW_OP_LLVM_convert 32 7, DW_OP_stack_value, DW_OP_LLVM_fragment 96 32] $rbx
	#DEBUG_VALUE: encrypt_detached:state <- [DW_OP_LLVM_fragment 576 64] $rbx
	#DEBUG_VALUE: encrypt_detached:state <- [DW_OP_plus_uconst 24, DW_OP_deref, DW_OP_LLVM_fragment 512 64] $rsp
	#DEBUG_VALUE: encrypt_detached:i <- [DW_OP_plus_uconst 96, DW_OP_deref, DW_OP_plus_uconst 32, DW_OP_stack_value] $rsp
	.loc	8 0 63                          # ./include/sodium/private/softaes.h:0:63
	movq	96(%rsp), %rcx                  # 8-byte Reload
.Ltmp165:
	.loc	6 171 19 is_stmt 1              # crypto_aead/aegis128l/aegis128l_common.h:171:19
	leaq	32(%rcx), %r8
	addq	$64, %rcx
	cmpq	%rdx, %rcx
.Ltmp166:
	.loc	6 171 5 is_stmt 0               # crypto_aead/aegis128l/aegis128l_common.h:171:5
	jbe	.LBB0_5
.Ltmp167:
# %bb.6:                                # %._crit_edge
	#DEBUG_VALUE: encrypt_detached:c <- [DW_OP_plus_uconst 376] [$rsp+0]
	#DEBUG_VALUE: encrypt_detached:mac <- [DW_OP_plus_uconst 384] [$rsp+0]
	#DEBUG_VALUE: encrypt_detached:maclen <- [DW_OP_plus_uconst 392] [$rsp+0]
	#DEBUG_VALUE: encrypt_detached:m <- [DW_OP_plus_uconst 368] [$rsp+0]
	#DEBUG_VALUE: encrypt_detached:mlen <- [DW_OP_plus_uconst 360] [$rsp+0]
	#DEBUG_VALUE: encrypt_detached:ad <- [DW_OP_plus_uconst 296] [$rsp+0]
	#DEBUG_VALUE: encrypt_detached:adlen <- [DW_OP_plus_uconst 16] [$rbp+0]
	#DEBUG_VALUE: encrypt_detached:npub <- [DW_OP_plus_uconst 24] [$rbp+0]
	#DEBUG_VALUE: encrypt_detached:k <- [DW_OP_plus_uconst 32] [$rbp+0]
	#DEBUG_VALUE: encrypt_detached:state <- [DW_OP_plus_uconst 64, DW_OP_deref, DW_OP_LLVM_fragment 896 64] $rsp
	#DEBUG_VALUE: encrypt_detached:state <- [DW_OP_plus_uconst 344, DW_OP_deref, DW_OP_LLVM_fragment 960 64] $rsp
	#DEBUG_VALUE: encrypt_detached:state <- [DW_OP_plus_uconst 32, DW_OP_deref, DW_OP_LLVM_fragment 768 64] $rsp
	#DEBUG_VALUE: encrypt_detached:state <- [DW_OP_plus_uconst 16, DW_OP_deref, DW_OP_LLVM_fragment 832 64] $rsp
	#DEBUG_VALUE: encrypt_detached:state <- [DW_OP_plus_uconst 272, DW_OP_deref, DW_OP_LLVM_fragment 640 64] $rsp
	#DEBUG_VALUE: encrypt_detached:state <- [DW_OP_plus_uconst 40, DW_OP_deref, DW_OP_LLVM_fragment 704 64] $rsp
	#DEBUG_VALUE: encrypt_detached:state <- [DW_OP_plus_uconst 24, DW_OP_deref, DW_OP_LLVM_fragment 512 64] $rsp
	#DEBUG_VALUE: encrypt_detached:state <- [DW_OP_LLVM_fragment 576 64] $rbx
	#DEBUG_VALUE: encrypt_detached:state <- [DW_OP_plus_uconst 280, DW_OP_deref, DW_OP_LLVM_fragment 384 64] $rsp
	#DEBUG_VALUE: encrypt_detached:state <- [DW_OP_plus_uconst 288, DW_OP_deref, DW_OP_LLVM_fragment 448 64] $rsp
	#DEBUG_VALUE: encrypt_detached:state <- [DW_OP_plus_uconst 264, DW_OP_deref, DW_OP_LLVM_fragment 256 64] $rsp
	#DEBUG_VALUE: encrypt_detached:state <- [DW_OP_plus_uconst 48, DW_OP_deref, DW_OP_LLVM_fragment 320 64] $rsp
	#DEBUG_VALUE: encrypt_detached:state <- [DW_OP_plus_uconst 112, DW_OP_deref, DW_OP_LLVM_fragment 128 64] $rsp
	#DEBUG_VALUE: encrypt_detached:state <- [DW_OP_plus_uconst 56, DW_OP_deref, DW_OP_LLVM_fragment 192 64] $rsp
	#DEBUG_VALUE: encrypt_detached:state <- [DW_OP_LLVM_fragment 64 64] $rdi
	#DEBUG_VALUE: encrypt_detached:state <- [DW_OP_LLVM_fragment 0 64] $rax
	#DEBUG_VALUE: encrypt_detached:i <- [DW_OP_plus_uconst 96, DW_OP_deref, DW_OP_plus_uconst 32, DW_OP_stack_value] $rsp
	#DEBUG_VALUE: aegis128l_absorb:state <- [DW_OP_plus_uconst 128, DW_OP_stack_value] $rsp
	#DEBUG_VALUE: aegis128l_absorb:msg0 <- [DW_OP_plus_uconst 80, DW_OP_deref, DW_OP_LLVM_fragment 64 64] $rsp
	#DEBUG_VALUE: aegis128l_absorb:msg0 <- [DW_OP_plus_uconst 72, DW_OP_deref, DW_OP_LLVM_fragment 0 64] $rsp
	#DEBUG_VALUE: aegis128l_absorb:msg1 <- [DW_OP_plus_uconst 104, DW_OP_deref, DW_OP_LLVM_fragment 64 64] $rsp
	#DEBUG_VALUE: aegis128l_update:d2 <- [DW_OP_plus_uconst 104, DW_OP_deref, DW_OP_LLVM_fragment 64 64] $rsp
	#DEBUG_VALUE: aegis128l_absorb:msg1 <- [DW_OP_plus_uconst 88, DW_OP_deref, DW_OP_LLVM_fragment 0 64] $rsp
	#DEBUG_VALUE: aegis128l_update:d1 <- [DW_OP_plus_uconst 72, DW_OP_deref, DW_OP_LLVM_fragment 0 64] $rsp
	#DEBUG_VALUE: aegis128l_update:d1 <- [DW_OP_plus_uconst 80, DW_OP_deref, DW_OP_LLVM_fragment 64 64] $rsp
	#DEBUG_VALUE: aegis128l_update:d2 <- [DW_OP_plus_uconst 88, DW_OP_deref, DW_OP_LLVM_fragment 0 64] $rsp
	#DEBUG_VALUE: aegis128l_update:state <- [DW_OP_plus_uconst 128, DW_OP_stack_value] $rsp
	#DEBUG_VALUE: aegis128l_update:tmp <- [DW_OP_plus_uconst 336, DW_OP_deref, DW_OP_LLVM_fragment 0 64] $rsp
	#DEBUG_VALUE: aegis128l_update:tmp <- [DW_OP_plus_uconst 352, DW_OP_deref, DW_OP_LLVM_fragment 64 64] $rsp
	.loc	5 0 0                           # crypto_aead/aegis128l/aegis128l_soft.c:0 @[ crypto_aead/aegis128l/aegis128l_common.h:72:5 @[ crypto_aead/aegis128l/aegis128l_common.h:172:9 ] ]
	movq	%r10, 240(%rsp)
.Ltmp168:
	#DEBUG_VALUE: encrypt_detached:state <- [DW_OP_plus_uconst 128, DW_OP_plus_uconst 112, DW_OP_deref, DW_OP_LLVM_fragment 896 64] $rsp
	movq	%r9, 248(%rsp)
.Ltmp169:
	#DEBUG_VALUE: encrypt_detached:state <- [DW_OP_plus_uconst 128, DW_OP_plus_uconst 112, DW_OP_deref, DW_OP_LLVM_fragment 896 128] $rsp
	movq	32(%rsp), %rcx                  # 8-byte Reload
	movq	%rcx, 224(%rsp)
.Ltmp170:
	#DEBUG_VALUE: encrypt_detached:state <- [DW_OP_plus_uconst 128, DW_OP_plus_uconst 96, DW_OP_deref, DW_OP_LLVM_fragment 768 64] $rsp
	movq	16(%rsp), %rcx                  # 8-byte Reload
	movq	%rcx, 232(%rsp)
.Ltmp171:
	#DEBUG_VALUE: encrypt_detached:state <- [DW_OP_plus_uconst 128, DW_OP_plus_uconst 96, DW_OP_deref, DW_OP_LLVM_fragment 768 256] $rsp
	movq	272(%rsp), %rcx                 # 8-byte Reload
	movq	%rcx, 208(%rsp)
.Ltmp172:
	#DEBUG_VALUE: encrypt_detached:state <- [DW_OP_plus_uconst 128, DW_OP_plus_uconst 80, DW_OP_deref, DW_OP_LLVM_fragment 640 64] $rsp
	movq	40(%rsp), %rcx                  # 8-byte Reload
	movq	%rcx, 216(%rsp)
.Ltmp173:
	#DEBUG_VALUE: encrypt_detached:state <- [DW_OP_plus_uconst 128, DW_OP_plus_uconst 80, DW_OP_deref, DW_OP_LLVM_fragment 640 384] $rsp
	movq	24(%rsp), %rcx                  # 8-byte Reload
	movq	%rcx, 192(%rsp)
.Ltmp174:
	#DEBUG_VALUE: encrypt_detached:state <- [DW_OP_plus_uconst 128, DW_OP_plus_uconst 64, DW_OP_deref, DW_OP_LLVM_fragment 512 64] $rsp
	movq	%rbx, 200(%rsp)
.Ltmp175:
	#DEBUG_VALUE: encrypt_detached:state <- [DW_OP_plus_uconst 128, DW_OP_plus_uconst 64, DW_OP_deref, DW_OP_LLVM_fragment 512 512] $rsp
	movq	280(%rsp), %rcx                 # 8-byte Reload
	movq	%rcx, 176(%rsp)
.Ltmp176:
	#DEBUG_VALUE: encrypt_detached:state <- [DW_OP_plus_uconst 128, DW_OP_plus_uconst 48, DW_OP_deref, DW_OP_LLVM_fragment 384 64] $rsp
	movq	288(%rsp), %rcx                 # 8-byte Reload
	movq	%rcx, 184(%rsp)
.Ltmp177:
	#DEBUG_VALUE: encrypt_detached:state <- [DW_OP_plus_uconst 128, DW_OP_plus_uconst 48, DW_OP_deref, DW_OP_LLVM_fragment 384 640] $rsp
	movq	264(%rsp), %rcx                 # 8-byte Reload
	movq	%rcx, 160(%rsp)
.Ltmp178:
	#DEBUG_VALUE: encrypt_detached:state <- [DW_OP_plus_uconst 128, DW_OP_plus_uconst 32, DW_OP_deref, DW_OP_LLVM_fragment 256 64] $rsp
	movq	48(%rsp), %rcx                  # 8-byte Reload
	movq	%rcx, 168(%rsp)
.Ltmp179:
	#DEBUG_VALUE: encrypt_detached:state <- [DW_OP_plus_uconst 128, DW_OP_plus_uconst 32, DW_OP_deref, DW_OP_LLVM_fragment 256 768] $rsp
	movq	112(%rsp), %rcx                 # 8-byte Reload
	movq	%rcx, 144(%rsp)
.Ltmp180:
	#DEBUG_VALUE: encrypt_detached:state <- [DW_OP_plus_uconst 128, DW_OP_plus_uconst 16, DW_OP_deref, DW_OP_LLVM_fragment 128 64] $rsp
	movq	56(%rsp), %rcx                  # 8-byte Reload
	movq	%rcx, 152(%rsp)
.Ltmp181:
	#DEBUG_VALUE: encrypt_detached:state <- [DW_OP_plus_uconst 128, DW_OP_plus_uconst 16, DW_OP_deref, DW_OP_LLVM_fragment 128 896] $rsp
	movq	%rdi, 136(%rsp)
.Ltmp182:
	#DEBUG_VALUE: encrypt_detached:state <- [DW_OP_plus_uconst 128, DW_OP_plus_uconst 8, DW_OP_deref, DW_OP_LLVM_fragment 64 960] $rsp
	.loc	5 48 16 is_stmt 1               # crypto_aead/aegis128l/aegis128l_soft.c:48:16 @[ crypto_aead/aegis128l/aegis128l_common.h:72:5 @[ crypto_aead/aegis128l/aegis128l_common.h:172:9 ] ]
	movq	%rax, 128(%rsp)
.Ltmp183:
	#DEBUG_VALUE: encrypt_detached:state <- [DW_OP_plus_uconst 128, DW_OP_deref] $rsp
	.loc	5 0 16 is_stmt 0                # crypto_aead/aegis128l/aegis128l_soft.c:0:16
	movq	360(%rsp), %r13                 # 8-byte Reload
.Ltmp184:
.LBB0_7:
	#DEBUG_VALUE: encrypt_detached:c <- [DW_OP_plus_uconst 376] [$rsp+0]
	#DEBUG_VALUE: encrypt_detached:mac <- [DW_OP_plus_uconst 384] [$rsp+0]
	#DEBUG_VALUE: encrypt_detached:maclen <- [DW_OP_plus_uconst 392] [$rsp+0]
	#DEBUG_VALUE: encrypt_detached:m <- [DW_OP_plus_uconst 368] [$rsp+0]
	#DEBUG_VALUE: encrypt_detached:mlen <- [DW_OP_plus_uconst 360] [$rsp+0]
	#DEBUG_VALUE: encrypt_detached:ad <- [DW_OP_plus_uconst 296] [$rsp+0]
	#DEBUG_VALUE: encrypt_detached:adlen <- [DW_OP_plus_uconst 16] [$rbp+0]
	#DEBUG_VALUE: encrypt_detached:npub <- [DW_OP_plus_uconst 24] [$rbp+0]
	#DEBUG_VALUE: encrypt_detached:k <- [DW_OP_plus_uconst 32] [$rbp+0]
	#DEBUG_VALUE: encrypt_detached:state <- [DW_OP_plus_uconst 128, DW_OP_deref] $rsp
	.loc	6 174 15 is_stmt 1              # crypto_aead/aegis128l/aegis128l_common.h:174:15
	andq	$31, %rdx
	je	.LBB0_9
.Ltmp185:
# %bb.8:
	#DEBUG_VALUE: encrypt_detached:c <- [DW_OP_plus_uconst 376] [$rsp+0]
	#DEBUG_VALUE: encrypt_detached:mac <- [DW_OP_plus_uconst 384] [$rsp+0]
	#DEBUG_VALUE: encrypt_detached:maclen <- [DW_OP_plus_uconst 392] [$rsp+0]
	#DEBUG_VALUE: encrypt_detached:m <- [DW_OP_plus_uconst 368] [$rsp+0]
	#DEBUG_VALUE: encrypt_detached:mlen <- [DW_OP_plus_uconst 360] [$rsp+0]
	#DEBUG_VALUE: encrypt_detached:ad <- [DW_OP_plus_uconst 296] [$rsp+0]
	#DEBUG_VALUE: encrypt_detached:adlen <- [DW_OP_plus_uconst 16] [$rbp+0]
	#DEBUG_VALUE: encrypt_detached:npub <- [DW_OP_plus_uconst 24] [$rbp+0]
	#DEBUG_VALUE: encrypt_detached:k <- [DW_OP_plus_uconst 32] [$rbp+0]
	#DEBUG_VALUE: encrypt_detached:state <- [DW_OP_plus_uconst 128, DW_OP_deref] $rsp
	#DEBUG_VALUE: memset:__dest <- [DW_OP_plus_uconst 448, DW_OP_stack_value] $rsp
	#DEBUG_VALUE: memset:__ch <- 0
	#DEBUG_VALUE: memset:__len <- 32
	.loc	7 59 10                         # /usr/include/x86_64-linux-gnu/bits/string_fortified.h:59:10 @[ crypto_aead/aegis128l/aegis128l_common.h:175:9 ]
	xorps	%xmm0, %xmm0
	movaps	%xmm0, 464(%rsp)
	movaps	%xmm0, 448(%rsp)
.Ltmp186:
	.loc	6 176 24                        # crypto_aead/aegis128l/aegis128l_common.h:176:24
	addq	%r8, %rsi
.Ltmp187:
	#DEBUG_VALUE: memcpy:__src <- $rsi
	#DEBUG_VALUE: memcpy:__dest <- [DW_OP_plus_uconst 448, DW_OP_stack_value] $rsp
	#DEBUG_VALUE: memcpy:__len <- $rdx
	.loc	6 0 24 is_stmt 0                # crypto_aead/aegis128l/aegis128l_common.h:0:24
	leaq	448(%rsp), %rdi
.Ltmp188:
	.loc	7 29 10 is_stmt 1               # /usr/include/x86_64-linux-gnu/bits/string_fortified.h:29:10 @[ crypto_aead/aegis128l/aegis128l_common.h:176:9 ]
	movl	$32, %ecx
	callq	__memcpy_chk@PLT
.Ltmp189:
	#DEBUG_VALUE: aegis128l_absorb:src <- [DW_OP_plus_uconst 448, DW_OP_stack_value] $rsp
	#DEBUG_VALUE: aegis128l_absorb:state <- [DW_OP_plus_uconst 128, DW_OP_stack_value] $rsp
	#DEBUG_VALUE: softaes_block_load:in <- [DW_OP_plus_uconst 448, DW_OP_stack_value] $rsp
	#DEBUG_VALUE: load32_le:w <- undef
	#DEBUG_VALUE: load32_le:src <- [DW_OP_plus_uconst 448, DW_OP_stack_value] $rsp
	#DEBUG_VALUE: memcpy:__dest <- undef
	#DEBUG_VALUE: memcpy:__src <- [DW_OP_plus_uconst 448, DW_OP_stack_value] $rsp
	#DEBUG_VALUE: memcpy:__len <- 4
	.loc	7 29 10 is_stmt 0               # /usr/include/x86_64-linux-gnu/bits/string_fortified.h:29:10 @[ ./include/sodium/private/common.h:106:5 @[ ./include/sodium/private/softaes.h:20:32 @[ crypto_aead/aegis128l/aegis128l_common.h:70:12 @[ crypto_aead/aegis128l/aegis128l_common.h:177:9 ] ] ] ]
	movq	448(%rsp), %r12
.Ltmp190:
	#DEBUG_VALUE: softaes_block_load:out <- [DW_OP_LLVM_fragment 0 32] undef
	#DEBUG_VALUE: load32_le:w <- undef
	#DEBUG_VALUE: load32_le:src <- [DW_OP_plus_uconst 448, DW_OP_plus_uconst 4, DW_OP_stack_value] $rsp
	#DEBUG_VALUE: memcpy:__dest <- undef
	#DEBUG_VALUE: memcpy:__src <- [DW_OP_plus_uconst 448, DW_OP_plus_uconst 4, DW_OP_stack_value] $rsp
	#DEBUG_VALUE: memcpy:__len <- 4
	#DEBUG_VALUE: softaes_block_load:out <- [DW_OP_LLVM_fragment 32 32] undef
	#DEBUG_VALUE: load32_le:w <- undef
	#DEBUG_VALUE: memcpy:__dest <- undef
	#DEBUG_VALUE: memcpy:__len <- 4
	#DEBUG_VALUE: load32_le:src <- undef
	#DEBUG_VALUE: memcpy:__src <- undef
	.loc	7 29 10                         # /usr/include/x86_64-linux-gnu/bits/string_fortified.h:29:10 @[ ./include/sodium/private/common.h:106:5 @[ ./include/sodium/private/softaes.h:20:70 @[ crypto_aead/aegis128l/aegis128l_common.h:70:12 @[ crypto_aead/aegis128l/aegis128l_common.h:177:9 ] ] ] ]
	movq	456(%rsp), %r15
.Ltmp191:
	#DEBUG_VALUE: aegis128l_absorb:msg0 <- [DW_OP_LLVM_fragment 64 64] $r15
	#DEBUG_VALUE: softaes_block_load:out <- [DW_OP_LLVM_fragment 64 32] undef
	#DEBUG_VALUE: load32_le:w <- undef
	#DEBUG_VALUE: load32_le:src <- [DW_OP_plus_uconst 448, DW_OP_plus_uconst 12, DW_OP_stack_value] $rsp
	#DEBUG_VALUE: memcpy:__dest <- undef
	#DEBUG_VALUE: memcpy:__src <- [DW_OP_plus_uconst 448, DW_OP_plus_uconst 12, DW_OP_stack_value] $rsp
	#DEBUG_VALUE: memcpy:__len <- 4
	#DEBUG_VALUE: softaes_block_load:out <- [DW_OP_LLVM_fragment 96 32] undef
	#DEBUG_VALUE: aegis128l_absorb:msg0 <- [DW_OP_LLVM_fragment 0 64] $r12
	#DEBUG_VALUE: load32_le:w <- undef
	#DEBUG_VALUE: memcpy:__dest <- undef
	#DEBUG_VALUE: memcpy:__len <- 4
	#DEBUG_VALUE: softaes_block_load:out <- [DW_OP_LLVM_fragment 0 32] undef
	#DEBUG_VALUE: load32_le:w <- undef
	#DEBUG_VALUE: memcpy:__dest <- undef
	#DEBUG_VALUE: memcpy:__len <- 4
	#DEBUG_VALUE: softaes_block_load:out <- [DW_OP_LLVM_fragment 32 32] undef
	#DEBUG_VALUE: load32_le:w <- undef
	#DEBUG_VALUE: load32_le:src <- [DW_OP_plus_uconst 448, DW_OP_plus_uconst 24, DW_OP_stack_value] $rsp
	#DEBUG_VALUE: memcpy:__dest <- undef
	#DEBUG_VALUE: memcpy:__src <- [DW_OP_plus_uconst 448, DW_OP_plus_uconst 24, DW_OP_stack_value] $rsp
	#DEBUG_VALUE: memcpy:__len <- 4
	#DEBUG_VALUE: softaes_block_load:out <- [DW_OP_LLVM_fragment 64 32] undef
	#DEBUG_VALUE: load32_le:w <- undef
	#DEBUG_VALUE: memcpy:__dest <- undef
	#DEBUG_VALUE: memcpy:__len <- 4
	#DEBUG_VALUE: softaes_block_load:out <- [DW_OP_LLVM_fragment 96 32] undef
	#DEBUG_VALUE: aegis128l_absorb:msg1 <- [DW_OP_LLVM_fragment 0 64] undef
	#DEBUG_VALUE: aegis128l_absorb:msg1 <- [DW_OP_LLVM_fragment 64 64] undef
	#DEBUG_VALUE: aegis128l_update:d2 <- [DW_OP_LLVM_fragment 0 64] undef
	#DEBUG_VALUE: aegis128l_update:d2 <- [DW_OP_LLVM_fragment 64 64] undef
	#DEBUG_VALUE: aegis128l_update:state <- [DW_OP_plus_uconst 128, DW_OP_stack_value] $rsp
	#DEBUG_VALUE: aegis128l_update:d1 <- [DW_OP_LLVM_fragment 64 64] $r15
	#DEBUG_VALUE: aegis128l_update:d1 <- [DW_OP_LLVM_fragment 0 64] $r12
	#DEBUG_VALUE: softaes_block_load:in <- undef
	#DEBUG_VALUE: load32_le:src <- undef
	#DEBUG_VALUE: memcpy:__src <- undef
	#DEBUG_VALUE: load32_le:src <- undef
	#DEBUG_VALUE: memcpy:__src <- undef
	#DEBUG_VALUE: load32_le:src <- undef
	#DEBUG_VALUE: memcpy:__src <- undef
	.loc	5 38 11 is_stmt 1               # crypto_aead/aegis128l/aegis128l_soft.c:38:11 @[ crypto_aead/aegis128l/aegis128l_common.h:72:5 @[ crypto_aead/aegis128l/aegis128l_common.h:177:9 ] ]
	movq	240(%rsp), %rbx
	movq	248(%rsp), %r14
.Ltmp192:
	#DEBUG_VALUE: aegis128l_update:tmp <- [DW_OP_LLVM_fragment 64 64] $r14
	#DEBUG_VALUE: aegis128l_update:tmp <- [DW_OP_LLVM_fragment 0 64] $rbx
	.loc	5 39 16                         # crypto_aead/aegis128l/aegis128l_soft.c:39:16 @[ crypto_aead/aegis128l/aegis128l_common.h:72:5 @[ crypto_aead/aegis128l/aegis128l_common.h:177:9 ] ]
	movq	224(%rsp), %rdi
	movq	232(%rsp), %rsi
.Ltmp193:
	#DEBUG_VALUE: encrypt_detached:state <- [DW_OP_plus_uconst 128, DW_OP_deref, DW_OP_LLVM_fragment 0 896] $rsp
	#DEBUG_VALUE: encrypt_detached:state <- [DW_OP_plus_uconst 128, DW_OP_deref, DW_OP_LLVM_fragment 0 768] $rsp
	#DEBUG_VALUE: encrypt_detached:state <- [DW_OP_plus_uconst 128, DW_OP_deref, DW_OP_LLVM_fragment 0 640] $rsp
	#DEBUG_VALUE: encrypt_detached:state <- [DW_OP_plus_uconst 128, DW_OP_deref, DW_OP_LLVM_fragment 0 512] $rsp
	#DEBUG_VALUE: encrypt_detached:state <- [DW_OP_plus_uconst 128, DW_OP_deref, DW_OP_LLVM_fragment 0 384] $rsp
	#DEBUG_VALUE: encrypt_detached:state <- [DW_OP_plus_uconst 128, DW_OP_deref, DW_OP_LLVM_fragment 0 256] $rsp
	.loc	7 29 10                         # /usr/include/x86_64-linux-gnu/bits/string_fortified.h:29:10 @[ ./include/sodium/private/common.h:106:5 @[ ./include/sodium/private/softaes.h:20:32 @[ crypto_aead/aegis128l/aegis128l_common.h:71:12 @[ crypto_aead/aegis128l/aegis128l_common.h:177:9 ] ] ] ]
	movaps	464(%rsp), %xmm0
	movaps	%xmm0, 112(%rsp)                # 16-byte Spill
.Ltmp194:
	.loc	5 39 16                         # crypto_aead/aegis128l/aegis128l_soft.c:39:16 @[ crypto_aead/aegis128l/aegis128l_common.h:72:5 @[ crypto_aead/aegis128l/aegis128l_common.h:177:9 ] ]
	movq	%rbx, %rdx
	movq	%r14, %rcx
	callq	softaes_block_encrypt@PLT
.Ltmp195:
	#DEBUG_VALUE: encrypt_detached:state <- [DW_OP_LLVM_fragment 896 64] $rax
	#DEBUG_VALUE: encrypt_detached:state <- [DW_OP_LLVM_fragment 960 64] $rdx
	movq	%rax, 240(%rsp)
.Ltmp196:
	#DEBUG_VALUE: encrypt_detached:state <- [DW_OP_plus_uconst 128, DW_OP_plus_uconst 112, DW_OP_deref, DW_OP_LLVM_fragment 896 64] $rsp
	movq	%rdx, 248(%rsp)
.Ltmp197:
	#DEBUG_VALUE: encrypt_detached:state <- [DW_OP_plus_uconst 128, DW_OP_plus_uconst 112, DW_OP_deref, DW_OP_LLVM_fragment 896 128] $rsp
	.loc	5 40 16                         # crypto_aead/aegis128l/aegis128l_soft.c:40:16 @[ crypto_aead/aegis128l/aegis128l_common.h:72:5 @[ crypto_aead/aegis128l/aegis128l_common.h:177:9 ] ]
	movq	208(%rsp), %rdi
	movq	216(%rsp), %rsi
	movq	224(%rsp), %rdx
	movq	232(%rsp), %rcx
	callq	softaes_block_encrypt@PLT
.Ltmp198:
	#DEBUG_VALUE: encrypt_detached:state <- [DW_OP_LLVM_fragment 768 64] $rax
	#DEBUG_VALUE: encrypt_detached:state <- [DW_OP_LLVM_fragment 832 64] $rdx
	movq	%rax, 224(%rsp)
.Ltmp199:
	#DEBUG_VALUE: encrypt_detached:state <- [DW_OP_plus_uconst 128, DW_OP_plus_uconst 96, DW_OP_deref, DW_OP_LLVM_fragment 768 64] $rsp
	movq	%rdx, 232(%rsp)
.Ltmp200:
	#DEBUG_VALUE: encrypt_detached:state <- [DW_OP_plus_uconst 128, DW_OP_plus_uconst 96, DW_OP_deref, DW_OP_LLVM_fragment 768 256] $rsp
	.loc	5 41 16                         # crypto_aead/aegis128l/aegis128l_soft.c:41:16 @[ crypto_aead/aegis128l/aegis128l_common.h:72:5 @[ crypto_aead/aegis128l/aegis128l_common.h:177:9 ] ]
	movq	192(%rsp), %rdi
	movq	200(%rsp), %rsi
	movq	208(%rsp), %rdx
	movq	216(%rsp), %rcx
	callq	softaes_block_encrypt@PLT
.Ltmp201:
	#DEBUG_VALUE: encrypt_detached:state <- [DW_OP_LLVM_fragment 640 64] $rax
	#DEBUG_VALUE: encrypt_detached:state <- [DW_OP_LLVM_fragment 704 64] $rdx
	movq	%rax, 208(%rsp)
.Ltmp202:
	#DEBUG_VALUE: encrypt_detached:state <- [DW_OP_plus_uconst 128, DW_OP_plus_uconst 80, DW_OP_deref, DW_OP_LLVM_fragment 640 64] $rsp
	movq	%rdx, 216(%rsp)
.Ltmp203:
	#DEBUG_VALUE: encrypt_detached:state <- [DW_OP_plus_uconst 128, DW_OP_plus_uconst 80, DW_OP_deref, DW_OP_LLVM_fragment 640 384] $rsp
	.loc	5 42 16                         # crypto_aead/aegis128l/aegis128l_soft.c:42:16 @[ crypto_aead/aegis128l/aegis128l_common.h:72:5 @[ crypto_aead/aegis128l/aegis128l_common.h:177:9 ] ]
	movq	176(%rsp), %rdi
	movq	184(%rsp), %rsi
	movq	192(%rsp), %rdx
	movq	200(%rsp), %rcx
	callq	softaes_block_encrypt@PLT
.Ltmp204:
	#DEBUG_VALUE: encrypt_detached:state <- [DW_OP_LLVM_fragment 512 64] $rax
	#DEBUG_VALUE: encrypt_detached:state <- [DW_OP_LLVM_fragment 576 64] $rdx
	movq	%rax, 192(%rsp)
.Ltmp205:
	#DEBUG_VALUE: encrypt_detached:state <- [DW_OP_plus_uconst 128, DW_OP_plus_uconst 64, DW_OP_deref, DW_OP_LLVM_fragment 512 64] $rsp
	movq	%rdx, 200(%rsp)
.Ltmp206:
	#DEBUG_VALUE: encrypt_detached:state <- [DW_OP_plus_uconst 128, DW_OP_plus_uconst 64, DW_OP_deref, DW_OP_LLVM_fragment 512 512] $rsp
	.loc	5 43 16                         # crypto_aead/aegis128l/aegis128l_soft.c:43:16 @[ crypto_aead/aegis128l/aegis128l_common.h:72:5 @[ crypto_aead/aegis128l/aegis128l_common.h:177:9 ] ]
	movq	160(%rsp), %rdi
	movq	168(%rsp), %rsi
	movq	176(%rsp), %rdx
	movq	184(%rsp), %rcx
	callq	softaes_block_encrypt@PLT
.Ltmp207:
	#DEBUG_VALUE: encrypt_detached:state <- [DW_OP_LLVM_fragment 384 64] $rax
	#DEBUG_VALUE: encrypt_detached:state <- [DW_OP_LLVM_fragment 448 64] $rdx
	movq	%rax, 176(%rsp)
.Ltmp208:
	#DEBUG_VALUE: encrypt_detached:state <- [DW_OP_plus_uconst 128, DW_OP_plus_uconst 48, DW_OP_deref, DW_OP_LLVM_fragment 384 64] $rsp
	movq	%rdx, 184(%rsp)
.Ltmp209:
	#DEBUG_VALUE: encrypt_detached:state <- [DW_OP_plus_uconst 128, DW_OP_plus_uconst 48, DW_OP_deref, DW_OP_LLVM_fragment 384 640] $rsp
	.loc	5 44 16                         # crypto_aead/aegis128l/aegis128l_soft.c:44:16 @[ crypto_aead/aegis128l/aegis128l_common.h:72:5 @[ crypto_aead/aegis128l/aegis128l_common.h:177:9 ] ]
	movq	144(%rsp), %rdi
	movq	152(%rsp), %rsi
	movq	160(%rsp), %rdx
	movq	168(%rsp), %rcx
	callq	softaes_block_encrypt@PLT
.Ltmp210:
	#DEBUG_VALUE: encrypt_detached:state <- [DW_OP_LLVM_fragment 256 64] $rax
	#DEBUG_VALUE: encrypt_detached:state <- [DW_OP_LLVM_fragment 320 64] $rdx
	movq	%rax, 160(%rsp)
.Ltmp211:
	#DEBUG_VALUE: encrypt_detached:state <- [DW_OP_plus_uconst 128, DW_OP_deref, DW_OP_LLVM_fragment 0 320] $rsp
	movq	%rdx, 168(%rsp)
.Ltmp212:
	#DEBUG_VALUE: encrypt_detached:state <- [DW_OP_plus_uconst 128, DW_OP_deref] $rsp
	.loc	5 45 16                         # crypto_aead/aegis128l/aegis128l_soft.c:45:16 @[ crypto_aead/aegis128l/aegis128l_common.h:72:5 @[ crypto_aead/aegis128l/aegis128l_common.h:177:9 ] ]
	movq	128(%rsp), %rdi
	movq	136(%rsp), %rsi
	movq	144(%rsp), %rdx
	movq	152(%rsp), %rcx
	callq	softaes_block_encrypt@PLT
.Ltmp213:
	movq	%rax, 144(%rsp)
	movq	%rdx, 152(%rsp)
	.loc	5 46 16                         # crypto_aead/aegis128l/aegis128l_soft.c:46:16 @[ crypto_aead/aegis128l/aegis128l_common.h:72:5 @[ crypto_aead/aegis128l/aegis128l_common.h:177:9 ] ]
	movq	128(%rsp), %rdx
	movq	136(%rsp), %rcx
	movq	%rbx, %rdi
	movq	%r14, %rsi
	callq	softaes_block_encrypt@PLT
.Ltmp214:
	#DEBUG_VALUE: softaes_block_xor:a <- [DW_OP_LLVM_convert 64 7, DW_OP_LLVM_convert 32 7, DW_OP_stack_value, DW_OP_LLVM_fragment 0 32] $rax
	#DEBUG_VALUE: softaes_block_xor:a <- [DW_OP_constu 32, DW_OP_shr, DW_OP_LLVM_convert 64 7, DW_OP_LLVM_convert 32 7, DW_OP_stack_value, DW_OP_LLVM_fragment 32 32] $rax
	#DEBUG_VALUE: softaes_block_xor:a <- [DW_OP_LLVM_convert 64 7, DW_OP_LLVM_convert 32 7, DW_OP_stack_value, DW_OP_LLVM_fragment 64 32] $rdx
	#DEBUG_VALUE: softaes_block_xor:a <- [DW_OP_constu 32, DW_OP_shr, DW_OP_LLVM_convert 64 7, DW_OP_LLVM_convert 32 7, DW_OP_stack_value, DW_OP_LLVM_fragment 96 32] $rdx
	#DEBUG_VALUE: softaes_block_xor:b <- [DW_OP_LLVM_convert 64 7, DW_OP_LLVM_convert 32 7, DW_OP_stack_value, DW_OP_LLVM_fragment 64 32] $r15
	#DEBUG_VALUE: softaes_block_xor:b <- [DW_OP_constu 32, DW_OP_shr, DW_OP_LLVM_convert 64 7, DW_OP_LLVM_convert 32 7, DW_OP_stack_value, DW_OP_LLVM_fragment 96 32] $r15
	#DEBUG_VALUE: softaes_block_xor:b <- [DW_OP_LLVM_convert 64 7, DW_OP_LLVM_convert 32 7, DW_OP_stack_value, DW_OP_LLVM_fragment 0 32] $r12
	#DEBUG_VALUE: softaes_block_xor:b <- [DW_OP_constu 32, DW_OP_shr, DW_OP_LLVM_convert 64 7, DW_OP_LLVM_convert 32 7, DW_OP_stack_value, DW_OP_LLVM_fragment 32 32] $r12
	.loc	8 45 37                         # ./include/sodium/private/softaes.h:45:37 @[ crypto_aead/aegis128l/aegis128l_soft.c:48:16 @[ crypto_aead/aegis128l/aegis128l_common.h:72:5 @[ crypto_aead/aegis128l/aegis128l_common.h:177:9 ] ] ]
	xorq	%r12, %rax
.Ltmp215:
	#DEBUG_VALUE: softaes_block_xor:out <- [DW_OP_LLVM_convert 64 7, DW_OP_LLVM_convert 32 7, DW_OP_stack_value, DW_OP_LLVM_fragment 0 32] $rax
	#DEBUG_VALUE: softaes_block_xor:out <- [DW_OP_constu 32, DW_OP_shr, DW_OP_LLVM_convert 64 7, DW_OP_LLVM_convert 32 7, DW_OP_stack_value, DW_OP_LLVM_fragment 32 32] $rax
	.loc	8 45 63 is_stmt 0               # ./include/sodium/private/softaes.h:45:63 @[ crypto_aead/aegis128l/aegis128l_soft.c:48:16 @[ crypto_aead/aegis128l/aegis128l_common.h:72:5 @[ crypto_aead/aegis128l/aegis128l_common.h:177:9 ] ] ]
	xorq	%r15, %rdx
.Ltmp216:
	#DEBUG_VALUE: softaes_block_xor:out <- [DW_OP_LLVM_convert 64 7, DW_OP_LLVM_convert 32 7, DW_OP_stack_value, DW_OP_LLVM_fragment 64 32] $rdx
	#DEBUG_VALUE: softaes_block_xor:out <- [DW_OP_constu 32, DW_OP_shr, DW_OP_LLVM_convert 64 7, DW_OP_LLVM_convert 32 7, DW_OP_stack_value, DW_OP_LLVM_fragment 96 32] $rdx
	.loc	5 48 16 is_stmt 1               # crypto_aead/aegis128l/aegis128l_soft.c:48:16 @[ crypto_aead/aegis128l/aegis128l_common.h:72:5 @[ crypto_aead/aegis128l/aegis128l_common.h:177:9 ] ]
	movq	%rax, 128(%rsp)
	movq	%rdx, 136(%rsp)
.Ltmp217:
	#DEBUG_VALUE: softaes_block_xor:a <- [DW_OP_LLVM_fragment 0 32] undef
	#DEBUG_VALUE: softaes_block_xor:a <- [DW_OP_LLVM_fragment 32 32] undef
	#DEBUG_VALUE: softaes_block_xor:a <- [DW_OP_LLVM_fragment 64 32] undef
	#DEBUG_VALUE: softaes_block_xor:a <- [DW_OP_LLVM_fragment 96 32] undef
	#DEBUG_VALUE: softaes_block_xor:b <- [DW_OP_LLVM_fragment 0 32] undef
	#DEBUG_VALUE: softaes_block_xor:b <- [DW_OP_LLVM_fragment 32 32] undef
	#DEBUG_VALUE: softaes_block_xor:b <- [DW_OP_LLVM_fragment 64 32] undef
	#DEBUG_VALUE: softaes_block_xor:b <- [DW_OP_LLVM_fragment 96 32] undef
	#DEBUG_VALUE: softaes_block_xor:out <- [DW_OP_LLVM_fragment 0 32] undef
	#DEBUG_VALUE: softaes_block_xor:out <- [DW_OP_LLVM_fragment 32 32] undef
	.loc	5 0 16 is_stmt 0                # crypto_aead/aegis128l/aegis128l_soft.c:0:16
	movaps	112(%rsp), %xmm0                # 16-byte Reload
.Ltmp218:
	.loc	8 45 37 is_stmt 1               # ./include/sodium/private/softaes.h:45:37 @[ crypto_aead/aegis128l/aegis128l_soft.c:49:16 @[ crypto_aead/aegis128l/aegis128l_common.h:72:5 @[ crypto_aead/aegis128l/aegis128l_common.h:177:9 ] ] ]
	xorps	192(%rsp), %xmm0
.Ltmp219:
	#DEBUG_VALUE: softaes_block_xor:out <- [DW_OP_LLVM_fragment 64 32] undef
	#DEBUG_VALUE: softaes_block_xor:out <- [DW_OP_LLVM_fragment 96 32] undef
	#DEBUG_VALUE: encrypt_detached:state <- [DW_OP_LLVM_fragment 512 64] undef
	#DEBUG_VALUE: encrypt_detached:state <- [DW_OP_plus_uconst 128, DW_OP_deref, DW_OP_LLVM_fragment 0 512] $rsp
	#DEBUG_VALUE: encrypt_detached:state <- [DW_OP_plus_uconst 128, DW_OP_plus_uconst 72, DW_OP_deref, DW_OP_LLVM_fragment 576 448] $rsp
	.loc	5 49 16                         # crypto_aead/aegis128l/aegis128l_soft.c:49:16 @[ crypto_aead/aegis128l/aegis128l_common.h:72:5 @[ crypto_aead/aegis128l/aegis128l_common.h:177:9 ] ]
	movaps	%xmm0, 192(%rsp)
.Ltmp220:
	#DEBUG_VALUE: encrypt_detached:state <- [DW_OP_plus_uconst 128, DW_OP_deref] $rsp
.LBB0_9:
	#DEBUG_VALUE: encrypt_detached:c <- [DW_OP_plus_uconst 376] [$rsp+0]
	#DEBUG_VALUE: encrypt_detached:mac <- [DW_OP_plus_uconst 384] [$rsp+0]
	#DEBUG_VALUE: encrypt_detached:maclen <- [DW_OP_plus_uconst 392] [$rsp+0]
	#DEBUG_VALUE: encrypt_detached:m <- [DW_OP_plus_uconst 368] [$rsp+0]
	#DEBUG_VALUE: encrypt_detached:mlen <- [DW_OP_plus_uconst 360] [$rsp+0]
	#DEBUG_VALUE: encrypt_detached:ad <- [DW_OP_plus_uconst 296] [$rsp+0]
	#DEBUG_VALUE: encrypt_detached:adlen <- [DW_OP_plus_uconst 16] [$rbp+0]
	#DEBUG_VALUE: encrypt_detached:npub <- [DW_OP_plus_uconst 24] [$rbp+0]
	#DEBUG_VALUE: encrypt_detached:k <- [DW_OP_plus_uconst 32] [$rbp+0]
	#DEBUG_VALUE: encrypt_detached:state <- [DW_OP_plus_uconst 128, DW_OP_deref] $rsp
	#DEBUG_VALUE: encrypt_detached:i <- 0
	.loc	5 0 16 is_stmt 0                # crypto_aead/aegis128l/aegis128l_soft.c:0:16
	movq	%r13, %rbx
.Ltmp221:
	.loc	6 179 24 is_stmt 1              # crypto_aead/aegis128l/aegis128l_common.h:179:24
	cmpq	$32, %r13
.Ltmp222:
	.loc	6 179 5 is_stmt 0               # crypto_aead/aegis128l/aegis128l_common.h:179:5
	jae	.LBB0_13
.Ltmp223:
# %bb.10:
	#DEBUG_VALUE: encrypt_detached:c <- [DW_OP_plus_uconst 376] [$rsp+0]
	#DEBUG_VALUE: encrypt_detached:mac <- [DW_OP_plus_uconst 384] [$rsp+0]
	#DEBUG_VALUE: encrypt_detached:maclen <- [DW_OP_plus_uconst 392] [$rsp+0]
	#DEBUG_VALUE: encrypt_detached:m <- [DW_OP_plus_uconst 368] [$rsp+0]
	#DEBUG_VALUE: encrypt_detached:mlen <- [DW_OP_plus_uconst 360] [$rsp+0]
	#DEBUG_VALUE: encrypt_detached:ad <- [DW_OP_plus_uconst 296] [$rsp+0]
	#DEBUG_VALUE: encrypt_detached:adlen <- [DW_OP_plus_uconst 16] [$rbp+0]
	#DEBUG_VALUE: encrypt_detached:npub <- [DW_OP_plus_uconst 24] [$rbp+0]
	#DEBUG_VALUE: encrypt_detached:k <- [DW_OP_plus_uconst 32] [$rbp+0]
	#DEBUG_VALUE: encrypt_detached:state <- [DW_OP_plus_uconst 128, DW_OP_deref] $rsp
	#DEBUG_VALUE: encrypt_detached:i <- 0
	.loc	6 0 5                           # crypto_aead/aegis128l/aegis128l_common.h:0:5
	xorl	%r12d, %r12d
	.loc	6 179 5                         # crypto_aead/aegis128l/aegis128l_common.h:179:5
	jmp	.LBB0_15
.Ltmp224:
.LBB0_13:                               # %.lr.ph128.preheader
	#DEBUG_VALUE: encrypt_detached:c <- [DW_OP_plus_uconst 376] [$rsp+0]
	#DEBUG_VALUE: encrypt_detached:mac <- [DW_OP_plus_uconst 384] [$rsp+0]
	#DEBUG_VALUE: encrypt_detached:maclen <- [DW_OP_plus_uconst 392] [$rsp+0]
	#DEBUG_VALUE: encrypt_detached:m <- [DW_OP_plus_uconst 368] [$rsp+0]
	#DEBUG_VALUE: encrypt_detached:mlen <- [DW_OP_plus_uconst 360] [$rsp+0]
	#DEBUG_VALUE: encrypt_detached:ad <- [DW_OP_plus_uconst 296] [$rsp+0]
	#DEBUG_VALUE: encrypt_detached:adlen <- [DW_OP_plus_uconst 16] [$rbp+0]
	#DEBUG_VALUE: encrypt_detached:npub <- [DW_OP_plus_uconst 24] [$rbp+0]
	#DEBUG_VALUE: encrypt_detached:k <- [DW_OP_plus_uconst 32] [$rbp+0]
	#DEBUG_VALUE: encrypt_detached:state <- [DW_OP_plus_uconst 128, DW_OP_deref] $rsp
	#DEBUG_VALUE: encrypt_detached:i <- 0
	.loc	6 0 5                           # crypto_aead/aegis128l/aegis128l_common.h:0:5
	xorl	%r14d, %r14d
	movq	368(%rsp), %r13                 # 8-byte Reload
	movq	376(%rsp), %r15                 # 8-byte Reload
.Ltmp225:
	.p2align	4
.LBB0_14:                               # %.lr.ph128
                                        # =>This Inner Loop Header: Depth=1
	#DEBUG_VALUE: encrypt_detached:c <- [DW_OP_plus_uconst 376] [$rsp+0]
	#DEBUG_VALUE: encrypt_detached:mac <- [DW_OP_plus_uconst 384] [$rsp+0]
	#DEBUG_VALUE: encrypt_detached:maclen <- [DW_OP_plus_uconst 392] [$rsp+0]
	#DEBUG_VALUE: encrypt_detached:m <- [DW_OP_plus_uconst 368] [$rsp+0]
	#DEBUG_VALUE: encrypt_detached:mlen <- [DW_OP_plus_uconst 360] [$rsp+0]
	#DEBUG_VALUE: encrypt_detached:ad <- [DW_OP_plus_uconst 296] [$rsp+0]
	#DEBUG_VALUE: encrypt_detached:adlen <- [DW_OP_plus_uconst 16] [$rbp+0]
	#DEBUG_VALUE: encrypt_detached:npub <- [DW_OP_plus_uconst 24] [$rbp+0]
	#DEBUG_VALUE: encrypt_detached:k <- [DW_OP_plus_uconst 32] [$rbp+0]
	#DEBUG_VALUE: encrypt_detached:state <- [DW_OP_plus_uconst 128, DW_OP_deref] $rsp
	#DEBUG_VALUE: encrypt_detached:i <- $r14
	.loc	6 180 32 is_stmt 1              # crypto_aead/aegis128l/aegis128l_common.h:180:32
	leaq	(%r15,%r14), %rdi
	.loc	6 180 9 is_stmt 0               # crypto_aead/aegis128l/aegis128l_common.h:180:9
	leaq	(%r14,%r13), %rsi
	leaq	128(%rsp), %rdx
	callq	aegis128l_enc
.Ltmp226:
	#DEBUG_VALUE: encrypt_detached:i <- [DW_OP_plus_uconst 32, DW_OP_stack_value] $r14
	.loc	6 179 24 is_stmt 1              # crypto_aead/aegis128l/aegis128l_common.h:179:24
	leaq	32(%r14), %r12
	addq	$64, %r14
.Ltmp227:
	cmpq	%rbx, %r14
	movq	%r12, %r14
.Ltmp228:
	.loc	6 179 5 is_stmt 0               # crypto_aead/aegis128l/aegis128l_common.h:179:5
	jbe	.LBB0_14
.Ltmp229:
.LBB0_15:                               # %._crit_edge129
	#DEBUG_VALUE: encrypt_detached:c <- [DW_OP_plus_uconst 376] [$rsp+0]
	#DEBUG_VALUE: encrypt_detached:mac <- [DW_OP_plus_uconst 384] [$rsp+0]
	#DEBUG_VALUE: encrypt_detached:maclen <- [DW_OP_plus_uconst 392] [$rsp+0]
	#DEBUG_VALUE: encrypt_detached:m <- [DW_OP_plus_uconst 368] [$rsp+0]
	#DEBUG_VALUE: encrypt_detached:mlen <- [DW_OP_plus_uconst 360] [$rsp+0]
	#DEBUG_VALUE: encrypt_detached:ad <- [DW_OP_plus_uconst 296] [$rsp+0]
	#DEBUG_VALUE: encrypt_detached:adlen <- [DW_OP_plus_uconst 16] [$rbp+0]
	#DEBUG_VALUE: encrypt_detached:npub <- [DW_OP_plus_uconst 24] [$rbp+0]
	#DEBUG_VALUE: encrypt_detached:k <- [DW_OP_plus_uconst 32] [$rbp+0]
	#DEBUG_VALUE: encrypt_detached:state <- [DW_OP_plus_uconst 128, DW_OP_deref] $rsp
	.loc	6 182 14 is_stmt 1              # crypto_aead/aegis128l/aegis128l_common.h:182:14
	movq	%rbx, %r14
	andq	$31, %r14
	movq	%rbx, %r13
	je	.LBB0_17
.Ltmp230:
# %bb.16:
	#DEBUG_VALUE: encrypt_detached:c <- [DW_OP_plus_uconst 376] [$rsp+0]
	#DEBUG_VALUE: encrypt_detached:mac <- [DW_OP_plus_uconst 384] [$rsp+0]
	#DEBUG_VALUE: encrypt_detached:maclen <- [DW_OP_plus_uconst 392] [$rsp+0]
	#DEBUG_VALUE: encrypt_detached:m <- [DW_OP_plus_uconst 368] [$rsp+0]
	#DEBUG_VALUE: encrypt_detached:mlen <- [DW_OP_plus_uconst 360] [$rsp+0]
	#DEBUG_VALUE: encrypt_detached:ad <- [DW_OP_plus_uconst 296] [$rsp+0]
	#DEBUG_VALUE: encrypt_detached:adlen <- [DW_OP_plus_uconst 16] [$rbp+0]
	#DEBUG_VALUE: encrypt_detached:npub <- [DW_OP_plus_uconst 24] [$rbp+0]
	#DEBUG_VALUE: encrypt_detached:k <- [DW_OP_plus_uconst 32] [$rbp+0]
	#DEBUG_VALUE: encrypt_detached:state <- [DW_OP_plus_uconst 128, DW_OP_deref] $rsp
	#DEBUG_VALUE: memset:__dest <- [DW_OP_plus_uconst 448, DW_OP_stack_value] $rsp
	#DEBUG_VALUE: memset:__ch <- 0
	#DEBUG_VALUE: memset:__len <- 32
	.loc	7 59 10                         # /usr/include/x86_64-linux-gnu/bits/string_fortified.h:59:10 @[ crypto_aead/aegis128l/aegis128l_common.h:183:9 ]
	xorps	%xmm0, %xmm0
	movaps	%xmm0, 464(%rsp)
	movaps	%xmm0, 448(%rsp)
	movq	368(%rsp), %rsi                 # 8-byte Reload
.Ltmp231:
	.loc	6 184 23                        # crypto_aead/aegis128l/aegis128l_common.h:184:23
	addq	%r12, %rsi
.Ltmp232:
	#DEBUG_VALUE: memcpy:__src <- $rsi
	#DEBUG_VALUE: memcpy:__dest <- [DW_OP_plus_uconst 448, DW_OP_stack_value] $rsp
	#DEBUG_VALUE: memcpy:__len <- $r14
	.loc	6 0 23 is_stmt 0                # crypto_aead/aegis128l/aegis128l_common.h:0:23
	leaq	448(%rsp), %rdi
.Ltmp233:
	.loc	7 29 10 is_stmt 1               # /usr/include/x86_64-linux-gnu/bits/string_fortified.h:29:10 @[ crypto_aead/aegis128l/aegis128l_common.h:184:9 ]
	movl	$32, %ecx
	movq	%r14, %rdx
	callq	__memcpy_chk@PLT
.Ltmp234:
	.loc	7 0 10 is_stmt 0                # /usr/include/x86_64-linux-gnu/bits/string_fortified.h:0:10
	movq	376(%rsp), %r15                 # 8-byte Reload
	leaq	416(%rsp), %rbx
	leaq	128(%rsp), %rdx
.Ltmp235:
	.loc	6 185 9 is_stmt 1               # crypto_aead/aegis128l/aegis128l_common.h:185:9
	movq	%rbx, %rdi
	leaq	448(%rsp), %rsi
	callq	aegis128l_enc
.Ltmp236:
	.loc	6 186 18                        # crypto_aead/aegis128l/aegis128l_common.h:186:18
	addq	%r12, %r15
.Ltmp237:
	#DEBUG_VALUE: memcpy:__dest <- $r15
	#DEBUG_VALUE: memcpy:__src <- [DW_OP_plus_uconst 416, DW_OP_stack_value] $rsp
	#DEBUG_VALUE: memcpy:__len <- $r14
	.loc	7 29 10                         # /usr/include/x86_64-linux-gnu/bits/string_fortified.h:29:10 @[ crypto_aead/aegis128l/aegis128l_common.h:186:9 ]
	movq	%r15, %rdi
	movq	%rbx, %rsi
	movq	%r14, %rdx
	callq	memcpy@PLT
.Ltmp238:
.LBB0_17:
	#DEBUG_VALUE: encrypt_detached:c <- [DW_OP_plus_uconst 376] [$rsp+0]
	#DEBUG_VALUE: encrypt_detached:mac <- [DW_OP_plus_uconst 384] [$rsp+0]
	#DEBUG_VALUE: encrypt_detached:maclen <- [DW_OP_plus_uconst 392] [$rsp+0]
	#DEBUG_VALUE: encrypt_detached:m <- [DW_OP_plus_uconst 368] [$rsp+0]
	#DEBUG_VALUE: encrypt_detached:mlen <- [DW_OP_plus_uconst 360] [$rsp+0]
	#DEBUG_VALUE: encrypt_detached:ad <- [DW_OP_plus_uconst 296] [$rsp+0]
	#DEBUG_VALUE: encrypt_detached:adlen <- [DW_OP_plus_uconst 16] [$rbp+0]
	#DEBUG_VALUE: encrypt_detached:npub <- [DW_OP_plus_uconst 24] [$rbp+0]
	#DEBUG_VALUE: encrypt_detached:k <- [DW_OP_plus_uconst 32] [$rbp+0]
	#DEBUG_VALUE: encrypt_detached:state <- [DW_OP_plus_uconst 128, DW_OP_deref] $rsp
	.loc	7 0 10 is_stmt 0                # /usr/include/x86_64-linux-gnu/bits/string_fortified.h:0:10
	leaq	128(%rsp), %r8
	movq	384(%rsp), %rdi                 # 8-byte Reload
	movq	392(%rsp), %rsi                 # 8-byte Reload
	.loc	6 189 5 is_stmt 1               # crypto_aead/aegis128l/aegis128l_common.h:189:5
	movq	16(%rbp), %rdx
	movq	%r13, %rcx
	callq	aegis128l_mac
.Ltmp239:
	.loc	6 191 5                         # crypto_aead/aegis128l/aegis128l_common.h:191:5
	movq	%fs:40, %rax
	cmpq	480(%rsp), %rax
	jne	.LBB0_19
.Ltmp240:
# %bb.18:                               # %SP_return
	#DEBUG_VALUE: encrypt_detached:c <- [DW_OP_plus_uconst 376] [$rsp+0]
	#DEBUG_VALUE: encrypt_detached:mac <- [DW_OP_plus_uconst 384] [$rsp+0]
	#DEBUG_VALUE: encrypt_detached:maclen <- [DW_OP_plus_uconst 392] [$rsp+0]
	#DEBUG_VALUE: encrypt_detached:m <- [DW_OP_plus_uconst 368] [$rsp+0]
	#DEBUG_VALUE: encrypt_detached:mlen <- [DW_OP_plus_uconst 360] [$rsp+0]
	#DEBUG_VALUE: encrypt_detached:ad <- [DW_OP_plus_uconst 296] [$rsp+0]
	#DEBUG_VALUE: encrypt_detached:adlen <- [DW_OP_plus_uconst 16] [$rbp+0]
	#DEBUG_VALUE: encrypt_detached:npub <- [DW_OP_plus_uconst 24] [$rbp+0]
	#DEBUG_VALUE: encrypt_detached:k <- [DW_OP_plus_uconst 32] [$rbp+0]
	#DEBUG_VALUE: encrypt_detached:state <- [DW_OP_plus_uconst 128, DW_OP_deref] $rsp
	xorl	%eax, %eax
	leaq	-40(%rbp), %rsp
.Ltmp241:
	.loc	6 191 5 epilogue_begin is_stmt 0 # crypto_aead/aegis128l/aegis128l_common.h:191:5
	popq	%rbx
	popq	%r12
	popq	%r13
	popq	%r14
	popq	%r15
	popq	%rbp
	.cfi_def_cfa %rsp, 8
	retq
.Ltmp242:
.LBB0_19:                               # %CallStackCheckFailBlk
	.cfi_def_cfa %rbp, 16
	#DEBUG_VALUE: encrypt_detached:c <- [DW_OP_plus_uconst 376] [$rsp+0]
	#DEBUG_VALUE: encrypt_detached:mac <- [DW_OP_plus_uconst 384] [$rsp+0]
	#DEBUG_VALUE: encrypt_detached:maclen <- [DW_OP_plus_uconst 392] [$rsp+0]
	#DEBUG_VALUE: encrypt_detached:m <- [DW_OP_plus_uconst 368] [$rsp+0]
	#DEBUG_VALUE: encrypt_detached:mlen <- [DW_OP_plus_uconst 360] [$rsp+0]
	#DEBUG_VALUE: encrypt_detached:ad <- [DW_OP_plus_uconst 296] [$rsp+0]
	#DEBUG_VALUE: encrypt_detached:adlen <- [DW_OP_plus_uconst 16] [$rbp+0]
	#DEBUG_VALUE: encrypt_detached:npub <- [DW_OP_plus_uconst 24] [$rbp+0]
	#DEBUG_VALUE: encrypt_detached:k <- [DW_OP_plus_uconst 32] [$rbp+0]
	#DEBUG_VALUE: encrypt_detached:state <- [DW_OP_plus_uconst 128, DW_OP_deref] $rsp
	.loc	6 0 0                           # crypto_aead/aegis128l/aegis128l_common.h:0
	callq	__stack_chk_fail@PLT
.Ltmp243:
.Lfunc_end0:
	.size	encrypt_detached, .Lfunc_end0-encrypt_detached
	.cfi_endproc
	.file	9 "./include/sodium/private" "common.h"
                                        # -- End function
	.p2align	4                               # -- Begin function decrypt_detached
	.type	decrypt_detached,@function
decrypt_detached:                       # @decrypt_detached
.Lfunc_begin1:
	.loc	6 197 0 is_stmt 1               # crypto_aead/aegis128l/aegis128l_common.h:197:0
	.cfi_startproc
# %bb.0:
	#DEBUG_VALUE: decrypt_detached:m <- $rdi
	#DEBUG_VALUE: decrypt_detached:c <- $rsi
	#DEBUG_VALUE: decrypt_detached:clen <- $rdx
	#DEBUG_VALUE: decrypt_detached:mac <- $rcx
	#DEBUG_VALUE: decrypt_detached:maclen <- $r8
	#DEBUG_VALUE: decrypt_detached:ad <- $r9
	pushq	%rbp
	.cfi_def_cfa_offset 16
	.cfi_offset %rbp, -16
	movq	%rsp, %rbp
	.cfi_def_cfa_register %rbp
	pushq	%r15
	pushq	%r14
	pushq	%r13
	pushq	%r12
	pushq	%rbx
	andq	$-32, %rsp
	subq	$544, %rsp                      # imm = 0x220
	.cfi_offset %rbx, -56
	.cfi_offset %r12, -48
	.cfi_offset %r13, -40
	.cfi_offset %r14, -32
	.cfi_offset %r15, -24
.Ltmp244:
	#DEBUG_VALUE: decrypt_detached:adlen <- [DW_OP_plus_uconst 16] [$rbp+0]
	#DEBUG_VALUE: decrypt_detached:npub <- [DW_OP_plus_uconst 24] [$rbp+0]
	#DEBUG_VALUE: decrypt_detached:k <- [DW_OP_plus_uconst 32] [$rbp+0]
	movq	%r9, 304(%rsp)                  # 8-byte Spill
.Ltmp245:
	#DEBUG_VALUE: decrypt_detached:ad <- [DW_OP_plus_uconst 304] [$rsp+0]
	movq	%r8, 384(%rsp)                  # 8-byte Spill
.Ltmp246:
	#DEBUG_VALUE: decrypt_detached:maclen <- [DW_OP_plus_uconst 384] [$rsp+0]
	movq	%rcx, 368(%rsp)                 # 8-byte Spill
.Ltmp247:
	#DEBUG_VALUE: decrypt_detached:mac <- [DW_OP_plus_uconst 368] [$rsp+0]
	movq	%rdx, %r13
	movq	%rsi, 136(%rsp)                 # 8-byte Spill
.Ltmp248:
	#DEBUG_VALUE: decrypt_detached:c <- [DW_OP_plus_uconst 136] [$rsp+0]
	movq	%rdi, %r12
	movq	16(%rbp), %rbx
	movq	32(%rbp), %rdi
.Ltmp249:
	#DEBUG_VALUE: decrypt_detached:m <- $r12
	movq	24(%rbp), %rsi
	movq	%fs:40, %rax
	movq	%rax, 512(%rsp)
.Ltmp250:
	#DEBUG_VALUE: decrypt_detached:state <- [DW_OP_plus_uconst 144, DW_OP_deref] $rsp
	#DEBUG_VALUE: decrypt_detached:mlen <- undef
	leaq	144(%rsp), %rdx
.Ltmp251:
	#DEBUG_VALUE: decrypt_detached:clen <- $r13
	.loc	6 206 5 prologue_end            # crypto_aead/aegis128l/aegis128l_common.h:206:5
	callq	aegis128l_init
.Ltmp252:
	#DEBUG_VALUE: decrypt_detached:i <- 0
	.loc	6 208 28                        # crypto_aead/aegis128l/aegis128l_common.h:208:28
	cmpq	$64, %rbx
	movq	%r12, 312(%rsp)                 # 8-byte Spill
.Ltmp253:
	#DEBUG_VALUE: decrypt_detached:m <- [DW_OP_plus_uconst 312] [$rsp+0]
	.loc	6 0 28 is_stmt 0                # crypto_aead/aegis128l/aegis128l_common.h:0:28
	movq	%r13, 376(%rsp)                 # 8-byte Spill
.Ltmp254:
	#DEBUG_VALUE: decrypt_detached:clen <- [DW_OP_plus_uconst 376] [$rsp+0]
	.loc	6 208 5                         # crypto_aead/aegis128l/aegis128l_common.h:208:5
	jae	.LBB1_2
.Ltmp255:
# %bb.1:
	#DEBUG_VALUE: decrypt_detached:m <- [DW_OP_plus_uconst 312] [$rsp+0]
	#DEBUG_VALUE: decrypt_detached:c <- [DW_OP_plus_uconst 136] [$rsp+0]
	#DEBUG_VALUE: decrypt_detached:clen <- [DW_OP_plus_uconst 376] [$rsp+0]
	#DEBUG_VALUE: decrypt_detached:mac <- [DW_OP_plus_uconst 368] [$rsp+0]
	#DEBUG_VALUE: decrypt_detached:maclen <- [DW_OP_plus_uconst 384] [$rsp+0]
	#DEBUG_VALUE: decrypt_detached:ad <- [DW_OP_plus_uconst 304] [$rsp+0]
	#DEBUG_VALUE: decrypt_detached:adlen <- [DW_OP_plus_uconst 16] [$rbp+0]
	#DEBUG_VALUE: decrypt_detached:npub <- [DW_OP_plus_uconst 24] [$rbp+0]
	#DEBUG_VALUE: decrypt_detached:k <- [DW_OP_plus_uconst 32] [$rbp+0]
	#DEBUG_VALUE: decrypt_detached:state <- [DW_OP_plus_uconst 144, DW_OP_deref] $rsp
	#DEBUG_VALUE: decrypt_detached:i <- 0
	.loc	6 0 5                           # crypto_aead/aegis128l/aegis128l_common.h:0:5
	movq	%rbx, %rdx
	xorl	%r9d, %r9d
	jmp	.LBB1_5
.Ltmp256:
.LBB1_2:                                # %.lr.ph
	#DEBUG_VALUE: decrypt_detached:m <- [DW_OP_plus_uconst 312] [$rsp+0]
	#DEBUG_VALUE: decrypt_detached:c <- [DW_OP_plus_uconst 136] [$rsp+0]
	#DEBUG_VALUE: decrypt_detached:clen <- [DW_OP_plus_uconst 376] [$rsp+0]
	#DEBUG_VALUE: decrypt_detached:mac <- [DW_OP_plus_uconst 368] [$rsp+0]
	#DEBUG_VALUE: decrypt_detached:maclen <- [DW_OP_plus_uconst 384] [$rsp+0]
	#DEBUG_VALUE: decrypt_detached:ad <- [DW_OP_plus_uconst 304] [$rsp+0]
	#DEBUG_VALUE: decrypt_detached:adlen <- [DW_OP_plus_uconst 16] [$rbp+0]
	#DEBUG_VALUE: decrypt_detached:npub <- [DW_OP_plus_uconst 24] [$rbp+0]
	#DEBUG_VALUE: decrypt_detached:k <- [DW_OP_plus_uconst 32] [$rbp+0]
	#DEBUG_VALUE: decrypt_detached:state <- [DW_OP_plus_uconst 144, DW_OP_deref] $rsp
	#DEBUG_VALUE: decrypt_detached:i <- 0
	movq	144(%rsp), %rsi
	movq	152(%rsp), %rdi
	movq	256(%rsp), %rax
	movq	%rax, 48(%rsp)                  # 8-byte Spill
	movq	264(%rsp), %rax
	movq	%rax, 56(%rsp)                  # 8-byte Spill
	movq	240(%rsp), %rax
	movq	%rax, 120(%rsp)                 # 8-byte Spill
	movq	248(%rsp), %rax
	movq	%rax, 16(%rsp)                  # 8-byte Spill
	movq	224(%rsp), %rax
	movq	%rax, 40(%rsp)                  # 8-byte Spill
	movq	232(%rsp), %rax
	movq	%rax, 32(%rsp)                  # 8-byte Spill
	movq	208(%rsp), %rax
	movq	%rax, 64(%rsp)                  # 8-byte Spill
	movq	216(%rsp), %r13
	movq	192(%rsp), %rax
	movq	%rax, 128(%rsp)                 # 8-byte Spill
	movq	200(%rsp), %rax
	movq	%rax, 24(%rsp)                  # 8-byte Spill
	movq	176(%rsp), %rax
	movq	%rax, 104(%rsp)                 # 8-byte Spill
	movq	184(%rsp), %rax
	movq	%rax, 112(%rsp)                 # 8-byte Spill
	movq	160(%rsp), %rax
	movq	%rax, 88(%rsp)                  # 8-byte Spill
	movq	168(%rsp), %rax
	movq	%rax, 96(%rsp)                  # 8-byte Spill
	xorl	%r9d, %r9d
.Ltmp257:
	.p2align	4
.LBB1_3:                                # =>This Inner Loop Header: Depth=1
	#DEBUG_VALUE: decrypt_detached:m <- [DW_OP_plus_uconst 312] [$rsp+0]
	#DEBUG_VALUE: decrypt_detached:c <- [DW_OP_plus_uconst 136] [$rsp+0]
	#DEBUG_VALUE: decrypt_detached:clen <- [DW_OP_plus_uconst 376] [$rsp+0]
	#DEBUG_VALUE: decrypt_detached:mac <- [DW_OP_plus_uconst 368] [$rsp+0]
	#DEBUG_VALUE: decrypt_detached:maclen <- [DW_OP_plus_uconst 384] [$rsp+0]
	#DEBUG_VALUE: decrypt_detached:ad <- [DW_OP_plus_uconst 304] [$rsp+0]
	#DEBUG_VALUE: decrypt_detached:adlen <- [DW_OP_plus_uconst 16] [$rbp+0]
	#DEBUG_VALUE: decrypt_detached:npub <- [DW_OP_plus_uconst 24] [$rbp+0]
	#DEBUG_VALUE: decrypt_detached:k <- [DW_OP_plus_uconst 32] [$rbp+0]
	movq	%rsi, 392(%rsp)                 # 8-byte Spill
	movq	%rdi, 400(%rsp)                 # 8-byte Spill
.Ltmp258:
	#DEBUG_VALUE: decrypt_detached:i <- $r9
	#DEBUG_VALUE: aegis128l_absorb2:src <- [DW_OP_LLVM_arg 0, DW_OP_consts 64, DW_OP_div, DW_OP_consts 64, DW_OP_mul, DW_OP_LLVM_arg 1, DW_OP_plus_uconst 304, DW_OP_deref, DW_OP_plus, DW_OP_stack_value] $r9, $rsp
	#DEBUG_VALUE: aegis128l_absorb2:state <- [DW_OP_plus_uconst 144, DW_OP_stack_value] $rsp
	#DEBUG_VALUE: softaes_block_load:in <- [DW_OP_LLVM_arg 0, DW_OP_consts 64, DW_OP_div, DW_OP_consts 64, DW_OP_mul, DW_OP_LLVM_arg 1, DW_OP_plus_uconst 304, DW_OP_deref, DW_OP_plus, DW_OP_stack_value] $r9, $rsp
	#DEBUG_VALUE: load32_le:w <- undef
	#DEBUG_VALUE: load32_le:src <- [DW_OP_LLVM_arg 0, DW_OP_consts 64, DW_OP_div, DW_OP_consts 64, DW_OP_mul, DW_OP_LLVM_arg 1, DW_OP_plus_uconst 304, DW_OP_deref, DW_OP_plus, DW_OP_stack_value] $r9, $rsp
	#DEBUG_VALUE: memcpy:__dest <- undef
	#DEBUG_VALUE: memcpy:__src <- [DW_OP_LLVM_arg 0, DW_OP_consts 64, DW_OP_div, DW_OP_consts 64, DW_OP_mul, DW_OP_LLVM_arg 1, DW_OP_plus_uconst 304, DW_OP_deref, DW_OP_plus, DW_OP_stack_value] $r9, $rsp
	#DEBUG_VALUE: memcpy:__len <- 4
	movq	%r9, 328(%rsp)                  # 8-byte Spill
.Ltmp259:
	#DEBUG_VALUE: memcpy:__src <- [DW_OP_LLVM_arg 0, DW_OP_plus_uconst 328, DW_OP_deref, DW_OP_consts 64, DW_OP_div, DW_OP_consts 64, DW_OP_mul, DW_OP_LLVM_arg 1, DW_OP_plus_uconst 304, DW_OP_deref, DW_OP_plus, DW_OP_stack_value] $rsp, $rsp
	#DEBUG_VALUE: load32_le:src <- [DW_OP_LLVM_arg 0, DW_OP_plus_uconst 328, DW_OP_deref, DW_OP_consts 64, DW_OP_div, DW_OP_consts 64, DW_OP_mul, DW_OP_LLVM_arg 1, DW_OP_plus_uconst 304, DW_OP_deref, DW_OP_plus, DW_OP_stack_value] $rsp, $rsp
	#DEBUG_VALUE: softaes_block_load:in <- [DW_OP_LLVM_arg 0, DW_OP_plus_uconst 328, DW_OP_deref, DW_OP_consts 64, DW_OP_div, DW_OP_consts 64, DW_OP_mul, DW_OP_LLVM_arg 1, DW_OP_plus_uconst 304, DW_OP_deref, DW_OP_plus, DW_OP_stack_value] $rsp, $rsp
	#DEBUG_VALUE: aegis128l_absorb2:src <- [DW_OP_LLVM_arg 0, DW_OP_plus_uconst 328, DW_OP_deref, DW_OP_consts 64, DW_OP_div, DW_OP_consts 64, DW_OP_mul, DW_OP_LLVM_arg 1, DW_OP_plus_uconst 304, DW_OP_deref, DW_OP_plus, DW_OP_stack_value] $rsp, $rsp
	#DEBUG_VALUE: decrypt_detached:i <- [DW_OP_plus_uconst 328, DW_OP_deref] $rsp
	movq	304(%rsp), %rax                 # 8-byte Reload
.Ltmp260:
	.loc	7 29 10 is_stmt 1               # /usr/include/x86_64-linux-gnu/bits/string_fortified.h:29:10 @[ ./include/sodium/private/common.h:106:5 @[ ./include/sodium/private/softaes.h:20:32 @[ crypto_aead/aegis128l/aegis128l_common.h:80:12 @[ crypto_aead/aegis128l/aegis128l_common.h:209:9 ] ] ] ]
	movq	(%rax,%r9), %rcx
.Ltmp261:
	#DEBUG_VALUE: softaes_block_load:out <- [DW_OP_LLVM_fragment 0 32] undef
	#DEBUG_VALUE: load32_le:w <- undef
	#DEBUG_VALUE: memcpy:__dest <- undef
	#DEBUG_VALUE: memcpy:__len <- 4
	#DEBUG_VALUE: softaes_block_load:out <- [DW_OP_LLVM_fragment 32 32] undef
	#DEBUG_VALUE: load32_le:w <- undef
	#DEBUG_VALUE: load32_le:src <- [DW_OP_LLVM_arg 0, DW_OP_plus_uconst 328, DW_OP_deref, DW_OP_consts 64, DW_OP_div, DW_OP_consts 64, DW_OP_mul, DW_OP_consts 8, DW_OP_LLVM_arg 1, DW_OP_plus_uconst 304, DW_OP_deref, DW_OP_plus, DW_OP_plus, DW_OP_stack_value] $rsp, $rsp
	#DEBUG_VALUE: memcpy:__dest <- undef
	#DEBUG_VALUE: memcpy:__src <- [DW_OP_LLVM_arg 0, DW_OP_plus_uconst 328, DW_OP_deref, DW_OP_consts 64, DW_OP_div, DW_OP_consts 64, DW_OP_mul, DW_OP_consts 8, DW_OP_LLVM_arg 1, DW_OP_plus_uconst 304, DW_OP_deref, DW_OP_plus, DW_OP_plus, DW_OP_stack_value] $rsp, $rsp
	#DEBUG_VALUE: memcpy:__len <- 4
	.loc	7 0 10 is_stmt 0                # /usr/include/x86_64-linux-gnu/bits/string_fortified.h:0:10
	movq	%rcx, 280(%rsp)                 # 8-byte Spill
.Ltmp262:
	.loc	7 29 10                         # /usr/include/x86_64-linux-gnu/bits/string_fortified.h:29:10 @[ ./include/sodium/private/common.h:106:5 @[ ./include/sodium/private/softaes.h:20:70 @[ crypto_aead/aegis128l/aegis128l_common.h:80:12 @[ crypto_aead/aegis128l/aegis128l_common.h:209:9 ] ] ] ]
	movq	8(%rax,%r9), %rcx
.Ltmp263:
	#DEBUG_VALUE: aegis128l_absorb2:msg0 <- [DW_OP_LLVM_fragment 64 64] $rcx
	#DEBUG_VALUE: softaes_block_load:out <- [DW_OP_LLVM_fragment 64 32] undef
	#DEBUG_VALUE: load32_le:w <- undef
	#DEBUG_VALUE: memcpy:__dest <- undef
	#DEBUG_VALUE: memcpy:__len <- 4
	#DEBUG_VALUE: softaes_block_load:out <- [DW_OP_LLVM_fragment 96 32] undef
	#DEBUG_VALUE: aegis128l_absorb2:msg0 <- [DW_OP_plus_uconst 280, DW_OP_deref, DW_OP_LLVM_fragment 0 64] $rsp
	#DEBUG_VALUE: softaes_block_load:in <- [DW_OP_LLVM_arg 0, DW_OP_plus_uconst 328, DW_OP_deref, DW_OP_consts 64, DW_OP_div, DW_OP_consts 64, DW_OP_mul, DW_OP_consts 16, DW_OP_LLVM_arg 1, DW_OP_plus_uconst 304, DW_OP_deref, DW_OP_plus, DW_OP_plus, DW_OP_stack_value] $rsp, $rsp
	#DEBUG_VALUE: load32_le:w <- undef
	#DEBUG_VALUE: load32_le:src <- [DW_OP_LLVM_arg 0, DW_OP_plus_uconst 328, DW_OP_deref, DW_OP_consts 64, DW_OP_div, DW_OP_consts 64, DW_OP_mul, DW_OP_consts 16, DW_OP_LLVM_arg 1, DW_OP_plus_uconst 304, DW_OP_deref, DW_OP_plus, DW_OP_plus, DW_OP_stack_value] $rsp, $rsp
	#DEBUG_VALUE: memcpy:__dest <- undef
	#DEBUG_VALUE: memcpy:__src <- [DW_OP_LLVM_arg 0, DW_OP_plus_uconst 328, DW_OP_deref, DW_OP_consts 64, DW_OP_div, DW_OP_consts 64, DW_OP_mul, DW_OP_consts 16, DW_OP_LLVM_arg 1, DW_OP_plus_uconst 304, DW_OP_deref, DW_OP_plus, DW_OP_plus, DW_OP_stack_value] $rsp, $rsp
	#DEBUG_VALUE: memcpy:__len <- 4
	.loc	7 0 10                          # /usr/include/x86_64-linux-gnu/bits/string_fortified.h:0:10
	movq	%rcx, 272(%rsp)                 # 8-byte Spill
.Ltmp264:
	#DEBUG_VALUE: aegis128l_absorb2:msg0 <- [DW_OP_plus_uconst 272, DW_OP_deref, DW_OP_LLVM_fragment 64 64] $rsp
	.loc	7 29 10                         # /usr/include/x86_64-linux-gnu/bits/string_fortified.h:29:10 @[ ./include/sodium/private/common.h:106:5 @[ ./include/sodium/private/softaes.h:20:32 @[ crypto_aead/aegis128l/aegis128l_common.h:81:12 @[ crypto_aead/aegis128l/aegis128l_common.h:209:9 ] ] ] ]
	movq	16(%rax,%r9), %rcx
.Ltmp265:
	#DEBUG_VALUE: softaes_block_load:out <- [DW_OP_LLVM_fragment 0 32] undef
	#DEBUG_VALUE: load32_le:w <- undef
	#DEBUG_VALUE: memcpy:__dest <- undef
	#DEBUG_VALUE: memcpy:__len <- 4
	#DEBUG_VALUE: softaes_block_load:out <- [DW_OP_LLVM_fragment 32 32] undef
	#DEBUG_VALUE: load32_le:w <- undef
	#DEBUG_VALUE: load32_le:src <- [DW_OP_LLVM_arg 0, DW_OP_plus_uconst 328, DW_OP_deref, DW_OP_consts 64, DW_OP_div, DW_OP_consts 64, DW_OP_mul, DW_OP_consts 24, DW_OP_LLVM_arg 1, DW_OP_plus_uconst 304, DW_OP_deref, DW_OP_plus, DW_OP_plus, DW_OP_stack_value] $rsp, $rsp
	#DEBUG_VALUE: memcpy:__dest <- undef
	#DEBUG_VALUE: memcpy:__src <- [DW_OP_LLVM_arg 0, DW_OP_plus_uconst 328, DW_OP_deref, DW_OP_consts 64, DW_OP_div, DW_OP_consts 64, DW_OP_mul, DW_OP_consts 24, DW_OP_LLVM_arg 1, DW_OP_plus_uconst 304, DW_OP_deref, DW_OP_plus, DW_OP_plus, DW_OP_stack_value] $rsp, $rsp
	#DEBUG_VALUE: memcpy:__len <- 4
	.loc	7 0 10                          # /usr/include/x86_64-linux-gnu/bits/string_fortified.h:0:10
	movq	%rcx, 408(%rsp)                 # 8-byte Spill
.Ltmp266:
	.loc	7 29 10                         # /usr/include/x86_64-linux-gnu/bits/string_fortified.h:29:10 @[ ./include/sodium/private/common.h:106:5 @[ ./include/sodium/private/softaes.h:20:70 @[ crypto_aead/aegis128l/aegis128l_common.h:81:12 @[ crypto_aead/aegis128l/aegis128l_common.h:209:9 ] ] ] ]
	movq	24(%rax,%r9), %rcx
.Ltmp267:
	#DEBUG_VALUE: aegis128l_absorb2:msg1 <- [DW_OP_LLVM_fragment 64 64] $rcx
	#DEBUG_VALUE: softaes_block_load:out <- [DW_OP_LLVM_fragment 64 32] undef
	#DEBUG_VALUE: load32_le:w <- undef
	#DEBUG_VALUE: memcpy:__dest <- undef
	#DEBUG_VALUE: memcpy:__len <- 4
	#DEBUG_VALUE: softaes_block_load:out <- [DW_OP_LLVM_fragment 96 32] undef
	#DEBUG_VALUE: aegis128l_absorb2:msg1 <- [DW_OP_plus_uconst 408, DW_OP_deref, DW_OP_LLVM_fragment 0 64] $rsp
	#DEBUG_VALUE: softaes_block_load:in <- [DW_OP_LLVM_arg 0, DW_OP_plus_uconst 328, DW_OP_deref, DW_OP_consts 64, DW_OP_div, DW_OP_consts 64, DW_OP_mul, DW_OP_consts 32, DW_OP_LLVM_arg 1, DW_OP_plus_uconst 304, DW_OP_deref, DW_OP_plus, DW_OP_plus, DW_OP_stack_value] $rsp, $rsp
	#DEBUG_VALUE: load32_le:w <- undef
	#DEBUG_VALUE: load32_le:src <- [DW_OP_LLVM_arg 0, DW_OP_plus_uconst 328, DW_OP_deref, DW_OP_consts 64, DW_OP_div, DW_OP_consts 64, DW_OP_mul, DW_OP_consts 32, DW_OP_LLVM_arg 1, DW_OP_plus_uconst 304, DW_OP_deref, DW_OP_plus, DW_OP_plus, DW_OP_stack_value] $rsp, $rsp
	#DEBUG_VALUE: memcpy:__dest <- undef
	#DEBUG_VALUE: memcpy:__src <- [DW_OP_LLVM_arg 0, DW_OP_plus_uconst 328, DW_OP_deref, DW_OP_consts 64, DW_OP_div, DW_OP_consts 64, DW_OP_mul, DW_OP_consts 32, DW_OP_LLVM_arg 1, DW_OP_plus_uconst 304, DW_OP_deref, DW_OP_plus, DW_OP_plus, DW_OP_stack_value] $rsp, $rsp
	#DEBUG_VALUE: memcpy:__len <- 4
	.loc	7 0 10                          # /usr/include/x86_64-linux-gnu/bits/string_fortified.h:0:10
	movq	%rcx, 320(%rsp)                 # 8-byte Spill
.Ltmp268:
	#DEBUG_VALUE: aegis128l_absorb2:msg1 <- [DW_OP_plus_uconst 320, DW_OP_deref, DW_OP_LLVM_fragment 64 64] $rsp
	.loc	7 29 10                         # /usr/include/x86_64-linux-gnu/bits/string_fortified.h:29:10 @[ ./include/sodium/private/common.h:106:5 @[ ./include/sodium/private/softaes.h:20:32 @[ crypto_aead/aegis128l/aegis128l_common.h:82:12 @[ crypto_aead/aegis128l/aegis128l_common.h:209:9 ] ] ] ]
	movq	32(%rax,%r9), %rcx
.Ltmp269:
	#DEBUG_VALUE: softaes_block_load:out <- [DW_OP_LLVM_fragment 0 32] undef
	#DEBUG_VALUE: load32_le:w <- undef
	#DEBUG_VALUE: memcpy:__dest <- undef
	#DEBUG_VALUE: memcpy:__len <- 4
	#DEBUG_VALUE: softaes_block_load:out <- [DW_OP_LLVM_fragment 32 32] undef
	#DEBUG_VALUE: load32_le:w <- undef
	#DEBUG_VALUE: load32_le:src <- [DW_OP_LLVM_arg 0, DW_OP_plus_uconst 328, DW_OP_deref, DW_OP_consts 64, DW_OP_div, DW_OP_consts 64, DW_OP_mul, DW_OP_consts 40, DW_OP_LLVM_arg 1, DW_OP_plus_uconst 304, DW_OP_deref, DW_OP_plus, DW_OP_plus, DW_OP_stack_value] $rsp, $rsp
	#DEBUG_VALUE: memcpy:__dest <- undef
	#DEBUG_VALUE: memcpy:__src <- [DW_OP_LLVM_arg 0, DW_OP_plus_uconst 328, DW_OP_deref, DW_OP_consts 64, DW_OP_div, DW_OP_consts 64, DW_OP_mul, DW_OP_consts 40, DW_OP_LLVM_arg 1, DW_OP_plus_uconst 304, DW_OP_deref, DW_OP_plus, DW_OP_plus, DW_OP_stack_value] $rsp, $rsp
	#DEBUG_VALUE: memcpy:__len <- 4
	.loc	7 0 10                          # /usr/include/x86_64-linux-gnu/bits/string_fortified.h:0:10
	movq	%rcx, 336(%rsp)                 # 8-byte Spill
.Ltmp270:
	.loc	7 29 10                         # /usr/include/x86_64-linux-gnu/bits/string_fortified.h:29:10 @[ ./include/sodium/private/common.h:106:5 @[ ./include/sodium/private/softaes.h:20:70 @[ crypto_aead/aegis128l/aegis128l_common.h:82:12 @[ crypto_aead/aegis128l/aegis128l_common.h:209:9 ] ] ] ]
	movq	40(%rax,%r9), %rcx
.Ltmp271:
	#DEBUG_VALUE: aegis128l_absorb2:msg2 <- [DW_OP_LLVM_fragment 64 64] $rcx
	#DEBUG_VALUE: softaes_block_load:out <- [DW_OP_LLVM_fragment 64 32] undef
	#DEBUG_VALUE: load32_le:w <- undef
	#DEBUG_VALUE: memcpy:__dest <- undef
	#DEBUG_VALUE: memcpy:__len <- 4
	#DEBUG_VALUE: softaes_block_load:out <- [DW_OP_LLVM_fragment 96 32] undef
	#DEBUG_VALUE: aegis128l_absorb2:msg2 <- [DW_OP_plus_uconst 336, DW_OP_deref, DW_OP_LLVM_fragment 0 64] $rsp
	#DEBUG_VALUE: softaes_block_load:in <- [DW_OP_LLVM_arg 0, DW_OP_plus_uconst 328, DW_OP_deref, DW_OP_consts 64, DW_OP_div, DW_OP_consts 64, DW_OP_mul, DW_OP_consts 48, DW_OP_LLVM_arg 1, DW_OP_plus_uconst 304, DW_OP_deref, DW_OP_plus, DW_OP_plus, DW_OP_stack_value] $rsp, $rsp
	#DEBUG_VALUE: load32_le:w <- undef
	#DEBUG_VALUE: load32_le:src <- [DW_OP_LLVM_arg 0, DW_OP_plus_uconst 328, DW_OP_deref, DW_OP_consts 64, DW_OP_div, DW_OP_consts 64, DW_OP_mul, DW_OP_consts 48, DW_OP_LLVM_arg 1, DW_OP_plus_uconst 304, DW_OP_deref, DW_OP_plus, DW_OP_plus, DW_OP_stack_value] $rsp, $rsp
	#DEBUG_VALUE: memcpy:__dest <- undef
	#DEBUG_VALUE: memcpy:__src <- [DW_OP_LLVM_arg 0, DW_OP_plus_uconst 328, DW_OP_deref, DW_OP_consts 64, DW_OP_div, DW_OP_consts 64, DW_OP_mul, DW_OP_consts 48, DW_OP_LLVM_arg 1, DW_OP_plus_uconst 304, DW_OP_deref, DW_OP_plus, DW_OP_plus, DW_OP_stack_value] $rsp, $rsp
	#DEBUG_VALUE: memcpy:__len <- 4
	.loc	7 0 10                          # /usr/include/x86_64-linux-gnu/bits/string_fortified.h:0:10
	movq	%rcx, 344(%rsp)                 # 8-byte Spill
.Ltmp272:
	#DEBUG_VALUE: aegis128l_absorb2:msg2 <- [DW_OP_plus_uconst 344, DW_OP_deref, DW_OP_LLVM_fragment 64 64] $rsp
	.loc	7 29 10                         # /usr/include/x86_64-linux-gnu/bits/string_fortified.h:29:10 @[ ./include/sodium/private/common.h:106:5 @[ ./include/sodium/private/softaes.h:20:32 @[ crypto_aead/aegis128l/aegis128l_common.h:83:12 @[ crypto_aead/aegis128l/aegis128l_common.h:209:9 ] ] ] ]
	movq	48(%rax,%r9), %rcx
.Ltmp273:
	#DEBUG_VALUE: softaes_block_load:out <- [DW_OP_LLVM_fragment 0 32] undef
	#DEBUG_VALUE: load32_le:w <- undef
	#DEBUG_VALUE: memcpy:__dest <- undef
	#DEBUG_VALUE: memcpy:__len <- 4
	#DEBUG_VALUE: softaes_block_load:out <- [DW_OP_LLVM_fragment 32 32] undef
	#DEBUG_VALUE: load32_le:w <- undef
	#DEBUG_VALUE: load32_le:src <- [DW_OP_LLVM_arg 0, DW_OP_plus_uconst 328, DW_OP_deref, DW_OP_consts 64, DW_OP_div, DW_OP_consts 64, DW_OP_mul, DW_OP_consts 56, DW_OP_LLVM_arg 1, DW_OP_plus_uconst 304, DW_OP_deref, DW_OP_plus, DW_OP_plus, DW_OP_stack_value] $rsp, $rsp
	#DEBUG_VALUE: memcpy:__dest <- undef
	#DEBUG_VALUE: memcpy:__src <- [DW_OP_LLVM_arg 0, DW_OP_plus_uconst 328, DW_OP_deref, DW_OP_consts 64, DW_OP_div, DW_OP_consts 64, DW_OP_mul, DW_OP_consts 56, DW_OP_LLVM_arg 1, DW_OP_plus_uconst 304, DW_OP_deref, DW_OP_plus, DW_OP_plus, DW_OP_stack_value] $rsp, $rsp
	#DEBUG_VALUE: memcpy:__len <- 4
	.loc	7 0 10                          # /usr/include/x86_64-linux-gnu/bits/string_fortified.h:0:10
	movq	%rcx, 352(%rsp)                 # 8-byte Spill
.Ltmp274:
	.loc	7 29 10                         # /usr/include/x86_64-linux-gnu/bits/string_fortified.h:29:10 @[ ./include/sodium/private/common.h:106:5 @[ ./include/sodium/private/softaes.h:20:70 @[ crypto_aead/aegis128l/aegis128l_common.h:83:12 @[ crypto_aead/aegis128l/aegis128l_common.h:209:9 ] ] ] ]
	movq	56(%rax,%r9), %rax
.Ltmp275:
	#DEBUG_VALUE: aegis128l_absorb2:msg3 <- [DW_OP_LLVM_fragment 64 64] $rax
	#DEBUG_VALUE: softaes_block_load:out <- [DW_OP_LLVM_fragment 64 32] undef
	#DEBUG_VALUE: load32_le:w <- undef
	#DEBUG_VALUE: memcpy:__dest <- undef
	#DEBUG_VALUE: memcpy:__len <- 4
	#DEBUG_VALUE: softaes_block_load:out <- [DW_OP_LLVM_fragment 96 32] undef
	#DEBUG_VALUE: aegis128l_absorb2:msg3 <- [DW_OP_plus_uconst 352, DW_OP_deref, DW_OP_LLVM_fragment 0 64] $rsp
	#DEBUG_VALUE: aegis128l_update:d1 <- [DW_OP_plus_uconst 280, DW_OP_deref, DW_OP_LLVM_fragment 0 64] $rsp
	#DEBUG_VALUE: aegis128l_update:d1 <- [DW_OP_plus_uconst 272, DW_OP_deref, DW_OP_LLVM_fragment 64 64] $rsp
	#DEBUG_VALUE: aegis128l_update:d2 <- [DW_OP_plus_uconst 408, DW_OP_deref, DW_OP_LLVM_fragment 0 64] $rsp
	#DEBUG_VALUE: aegis128l_update:d2 <- [DW_OP_plus_uconst 320, DW_OP_deref, DW_OP_LLVM_fragment 64 64] $rsp
	#DEBUG_VALUE: aegis128l_update:state <- [DW_OP_plus_uconst 144, DW_OP_stack_value] $rsp
	#DEBUG_VALUE: aegis128l_update:tmp <- [DW_OP_plus_uconst 48, DW_OP_deref, DW_OP_LLVM_fragment 0 64] $rsp
	#DEBUG_VALUE: aegis128l_update:tmp <- [DW_OP_plus_uconst 56, DW_OP_deref, DW_OP_LLVM_fragment 64 64] $rsp
	.loc	7 0 10                          # /usr/include/x86_64-linux-gnu/bits/string_fortified.h:0:10
	movq	%rax, 360(%rsp)                 # 8-byte Spill
.Ltmp276:
	#DEBUG_VALUE: aegis128l_absorb2:msg3 <- [DW_OP_plus_uconst 360, DW_OP_deref, DW_OP_LLVM_fragment 64 64] $rsp
	movq	120(%rsp), %r12                 # 8-byte Reload
.Ltmp277:
	.loc	5 39 16 is_stmt 1               # crypto_aead/aegis128l/aegis128l_soft.c:39:16 @[ crypto_aead/aegis128l/aegis128l_common.h:84:5 @[ crypto_aead/aegis128l/aegis128l_common.h:209:9 ] ]
	movq	%r12, %rdi
	movq	32(%rsp), %rbx                  # 8-byte Reload
	movq	16(%rsp), %r15                  # 8-byte Reload
	movq	%r15, %rsi
	movq	48(%rsp), %rdx                  # 8-byte Reload
	movq	56(%rsp), %rcx                  # 8-byte Reload
	callq	softaes_block_encrypt@PLT
.Ltmp278:
	.loc	5 0 16 is_stmt 0                # crypto_aead/aegis128l/aegis128l_soft.c:0:16
	movq	%rax, 288(%rsp)                 # 8-byte Spill
.Ltmp279:
	#DEBUG_VALUE: decrypt_detached:state <- [DW_OP_plus_uconst 288, DW_OP_deref, DW_OP_LLVM_fragment 896 64] $rsp
	#DEBUG_VALUE: aegis128l_update:tmp <- [DW_OP_plus_uconst 288, DW_OP_deref, DW_OP_LLVM_fragment 0 64] $rsp
	movq	%rdx, 296(%rsp)                 # 8-byte Spill
.Ltmp280:
	#DEBUG_VALUE: decrypt_detached:state <- [DW_OP_plus_uconst 296, DW_OP_deref, DW_OP_LLVM_fragment 960 64] $rsp
	#DEBUG_VALUE: aegis128l_update:tmp <- [DW_OP_plus_uconst 296, DW_OP_deref, DW_OP_LLVM_fragment 64 64] $rsp
	movq	40(%rsp), %r14                  # 8-byte Reload
	.loc	5 40 16 is_stmt 1               # crypto_aead/aegis128l/aegis128l_soft.c:40:16 @[ crypto_aead/aegis128l/aegis128l_common.h:84:5 @[ crypto_aead/aegis128l/aegis128l_common.h:209:9 ] ]
	movq	%r14, %rdi
	movq	%rbx, %rsi
	movq	%r12, %rdx
	movq	%r15, %rcx
	callq	softaes_block_encrypt@PLT
.Ltmp281:
	.loc	5 0 16 is_stmt 0                # crypto_aead/aegis128l/aegis128l_soft.c:0:16
	movq	%rax, 120(%rsp)                 # 8-byte Spill
.Ltmp282:
	#DEBUG_VALUE: decrypt_detached:state <- [DW_OP_plus_uconst 120, DW_OP_deref, DW_OP_LLVM_fragment 768 64] $rsp
	movq	%rdx, 16(%rsp)                  # 8-byte Spill
.Ltmp283:
	#DEBUG_VALUE: decrypt_detached:state <- [DW_OP_plus_uconst 16, DW_OP_deref, DW_OP_LLVM_fragment 832 64] $rsp
	movq	64(%rsp), %r12                  # 8-byte Reload
	.loc	5 41 16 is_stmt 1               # crypto_aead/aegis128l/aegis128l_soft.c:41:16 @[ crypto_aead/aegis128l/aegis128l_common.h:84:5 @[ crypto_aead/aegis128l/aegis128l_common.h:209:9 ] ]
	movq	%r12, %rdi
	movq	%r13, %rsi
	movq	%r14, %rdx
	movq	%rbx, %rcx
	callq	softaes_block_encrypt@PLT
.Ltmp284:
	.loc	5 0 16 is_stmt 0                # crypto_aead/aegis128l/aegis128l_soft.c:0:16
	movq	%rax, 40(%rsp)                  # 8-byte Spill
.Ltmp285:
	#DEBUG_VALUE: decrypt_detached:state <- [DW_OP_plus_uconst 40, DW_OP_deref, DW_OP_LLVM_fragment 640 64] $rsp
	movq	%rdx, 32(%rsp)                  # 8-byte Spill
.Ltmp286:
	#DEBUG_VALUE: decrypt_detached:state <- [DW_OP_plus_uconst 32, DW_OP_deref, DW_OP_LLVM_fragment 704 64] $rsp
	movq	128(%rsp), %r15                 # 8-byte Reload
	.loc	5 42 16 is_stmt 1               # crypto_aead/aegis128l/aegis128l_soft.c:42:16 @[ crypto_aead/aegis128l/aegis128l_common.h:84:5 @[ crypto_aead/aegis128l/aegis128l_common.h:209:9 ] ]
	movq	%r15, %rdi
	movq	24(%rsp), %rbx                  # 8-byte Reload
	movq	%rbx, %rsi
	movq	%r12, %rdx
	movq	%r13, %rcx
	callq	softaes_block_encrypt@PLT
.Ltmp287:
	movq	%rax, %r12
.Ltmp288:
	#DEBUG_VALUE: decrypt_detached:state <- [DW_OP_LLVM_fragment 512 64] $r12
	#DEBUG_VALUE: softaes_block_xor:a <- [DW_OP_LLVM_convert 64 7, DW_OP_LLVM_convert 32 7, DW_OP_stack_value, DW_OP_LLVM_fragment 0 32] $r12
	#DEBUG_VALUE: softaes_block_xor:a <- [DW_OP_constu 32, DW_OP_shr, DW_OP_LLVM_convert 64 7, DW_OP_LLVM_convert 32 7, DW_OP_stack_value, DW_OP_LLVM_fragment 32 32] $r12
	.loc	5 0 16 is_stmt 0                # crypto_aead/aegis128l/aegis128l_soft.c:0:16
	movq	%rdx, 64(%rsp)                  # 8-byte Spill
.Ltmp289:
	#DEBUG_VALUE: decrypt_detached:state <- [DW_OP_plus_uconst 64, DW_OP_deref, DW_OP_LLVM_fragment 576 64] $rsp
	#DEBUG_VALUE: softaes_block_xor:a <- [DW_OP_plus_uconst 64, DW_OP_deref_size 8, DW_OP_LLVM_convert 64 7, DW_OP_LLVM_convert 32 7, DW_OP_stack_value, DW_OP_LLVM_fragment 64 32] $rsp
	#DEBUG_VALUE: softaes_block_xor:a <- [DW_OP_plus_uconst 64, DW_OP_deref_size 8, DW_OP_constu 32, DW_OP_shr, DW_OP_LLVM_convert 64 7, DW_OP_LLVM_convert 32 7, DW_OP_stack_value, DW_OP_LLVM_fragment 96 32] $rsp
	movq	104(%rsp), %r14                 # 8-byte Reload
	.loc	5 43 16 is_stmt 1               # crypto_aead/aegis128l/aegis128l_soft.c:43:16 @[ crypto_aead/aegis128l/aegis128l_common.h:84:5 @[ crypto_aead/aegis128l/aegis128l_common.h:209:9 ] ]
	movq	%r14, %rdi
	movq	112(%rsp), %r13                 # 8-byte Reload
	movq	%r13, %rsi
	movq	%r15, %rdx
	movq	%rbx, %rcx
	callq	softaes_block_encrypt@PLT
.Ltmp290:
	.loc	5 0 16 is_stmt 0                # crypto_aead/aegis128l/aegis128l_soft.c:0:16
	movq	%rax, 24(%rsp)                  # 8-byte Spill
.Ltmp291:
	#DEBUG_VALUE: decrypt_detached:state <- [DW_OP_plus_uconst 24, DW_OP_deref, DW_OP_LLVM_fragment 384 64] $rsp
	movq	%rdx, 128(%rsp)                 # 8-byte Spill
.Ltmp292:
	#DEBUG_VALUE: decrypt_detached:state <- [DW_OP_plus_uconst 128, DW_OP_deref, DW_OP_LLVM_fragment 448 64] $rsp
	movq	88(%rsp), %r15                  # 8-byte Reload
	.loc	5 44 16 is_stmt 1               # crypto_aead/aegis128l/aegis128l_soft.c:44:16 @[ crypto_aead/aegis128l/aegis128l_common.h:84:5 @[ crypto_aead/aegis128l/aegis128l_common.h:209:9 ] ]
	movq	%r15, %rdi
	movq	96(%rsp), %rbx                  # 8-byte Reload
	movq	%rbx, %rsi
	movq	%r14, %rdx
	movq	%r13, %rcx
	callq	softaes_block_encrypt@PLT
.Ltmp293:
	.loc	5 0 16 is_stmt 0                # crypto_aead/aegis128l/aegis128l_soft.c:0:16
	movq	%rax, 112(%rsp)                 # 8-byte Spill
.Ltmp294:
	#DEBUG_VALUE: decrypt_detached:state <- [DW_OP_plus_uconst 112, DW_OP_deref, DW_OP_LLVM_fragment 256 64] $rsp
	movq	%rdx, 104(%rsp)                 # 8-byte Spill
.Ltmp295:
	#DEBUG_VALUE: decrypt_detached:state <- [DW_OP_plus_uconst 104, DW_OP_deref, DW_OP_LLVM_fragment 320 64] $rsp
	movq	392(%rsp), %r13                 # 8-byte Reload
	.loc	5 45 16 is_stmt 1               # crypto_aead/aegis128l/aegis128l_soft.c:45:16 @[ crypto_aead/aegis128l/aegis128l_common.h:84:5 @[ crypto_aead/aegis128l/aegis128l_common.h:209:9 ] ]
	movq	%r13, %rdi
	movq	400(%rsp), %r14                 # 8-byte Reload
	movq	%r14, %rsi
	movq	%r15, %rdx
	movq	%rbx, %rcx
	callq	softaes_block_encrypt@PLT
.Ltmp296:
	.loc	5 0 16 is_stmt 0                # crypto_aead/aegis128l/aegis128l_soft.c:0:16
	movq	%rax, 96(%rsp)                  # 8-byte Spill
.Ltmp297:
	#DEBUG_VALUE: decrypt_detached:state <- [DW_OP_plus_uconst 96, DW_OP_deref, DW_OP_LLVM_fragment 128 64] $rsp
	movq	%rdx, 88(%rsp)                  # 8-byte Spill
.Ltmp298:
	#DEBUG_VALUE: decrypt_detached:state <- [DW_OP_plus_uconst 88, DW_OP_deref, DW_OP_LLVM_fragment 192 64] $rsp
	movq	48(%rsp), %rdi                  # 8-byte Reload
	movq	56(%rsp), %rsi                  # 8-byte Reload
	.loc	5 46 16 is_stmt 1               # crypto_aead/aegis128l/aegis128l_soft.c:46:16 @[ crypto_aead/aegis128l/aegis128l_common.h:84:5 @[ crypto_aead/aegis128l/aegis128l_common.h:209:9 ] ]
	movq	%r13, %rdx
	movq	%r14, %rcx
	callq	softaes_block_encrypt@PLT
.Ltmp299:
	#DEBUG_VALUE: softaes_block_xor:a <- [DW_OP_LLVM_convert 64 7, DW_OP_LLVM_convert 32 7, DW_OP_stack_value, DW_OP_LLVM_fragment 0 32] $rax
	#DEBUG_VALUE: softaes_block_xor:a <- [DW_OP_constu 32, DW_OP_shr, DW_OP_LLVM_convert 64 7, DW_OP_LLVM_convert 32 7, DW_OP_stack_value, DW_OP_LLVM_fragment 32 32] $rax
	#DEBUG_VALUE: softaes_block_xor:a <- [DW_OP_LLVM_convert 64 7, DW_OP_LLVM_convert 32 7, DW_OP_stack_value, DW_OP_LLVM_fragment 64 32] $rdx
	#DEBUG_VALUE: softaes_block_xor:a <- [DW_OP_constu 32, DW_OP_shr, DW_OP_LLVM_convert 64 7, DW_OP_LLVM_convert 32 7, DW_OP_stack_value, DW_OP_LLVM_fragment 96 32] $rdx
	#DEBUG_VALUE: softaes_block_xor:b <- [DW_OP_plus_uconst 280, DW_OP_deref_size 8, DW_OP_LLVM_convert 64 7, DW_OP_LLVM_convert 32 7, DW_OP_stack_value, DW_OP_LLVM_fragment 0 32] $rsp
	#DEBUG_VALUE: softaes_block_xor:b <- [DW_OP_plus_uconst 280, DW_OP_deref_size 8, DW_OP_constu 32, DW_OP_shr, DW_OP_LLVM_convert 64 7, DW_OP_LLVM_convert 32 7, DW_OP_stack_value, DW_OP_LLVM_fragment 32 32] $rsp
	#DEBUG_VALUE: softaes_block_xor:b <- [DW_OP_plus_uconst 272, DW_OP_deref_size 8, DW_OP_LLVM_convert 64 7, DW_OP_LLVM_convert 32 7, DW_OP_stack_value, DW_OP_LLVM_fragment 64 32] $rsp
	#DEBUG_VALUE: softaes_block_xor:b <- [DW_OP_plus_uconst 272, DW_OP_deref_size 8, DW_OP_constu 32, DW_OP_shr, DW_OP_LLVM_convert 64 7, DW_OP_LLVM_convert 32 7, DW_OP_stack_value, DW_OP_LLVM_fragment 96 32] $rsp
	.loc	8 45 37                         # ./include/sodium/private/softaes.h:45:37 @[ crypto_aead/aegis128l/aegis128l_soft.c:48:16 @[ crypto_aead/aegis128l/aegis128l_common.h:84:5 @[ crypto_aead/aegis128l/aegis128l_common.h:209:9 ] ] ]
	xorq	%rax, 280(%rsp)                 # 8-byte Folded Spill
.Ltmp300:
	#DEBUG_VALUE: softaes_block_xor:b <- [DW_OP_constu 32, DW_OP_shr, DW_OP_LLVM_convert 64 7, DW_OP_LLVM_convert 32 7, DW_OP_stack_value, DW_OP_LLVM_fragment 32 32] undef
	#DEBUG_VALUE: softaes_block_xor:b <- [DW_OP_LLVM_convert 64 7, DW_OP_LLVM_convert 32 7, DW_OP_stack_value, DW_OP_LLVM_fragment 0 32] undef
	#DEBUG_VALUE: aegis128l_update:d1 <- [DW_OP_LLVM_fragment 0 64] undef
	#DEBUG_VALUE: aegis128l_absorb2:msg0 <- [DW_OP_LLVM_fragment 0 64] undef
	#DEBUG_VALUE: softaes_block_xor:out <- [DW_OP_plus_uconst 280, DW_OP_deref_size 8, DW_OP_LLVM_convert 64 7, DW_OP_LLVM_convert 32 7, DW_OP_stack_value, DW_OP_LLVM_fragment 0 32] $rsp
	#DEBUG_VALUE: softaes_block_xor:out <- [DW_OP_plus_uconst 280, DW_OP_deref_size 8, DW_OP_constu 32, DW_OP_shr, DW_OP_LLVM_convert 64 7, DW_OP_LLVM_convert 32 7, DW_OP_stack_value, DW_OP_LLVM_fragment 32 32] $rsp
	.loc	8 45 63 is_stmt 0               # ./include/sodium/private/softaes.h:45:63 @[ crypto_aead/aegis128l/aegis128l_soft.c:48:16 @[ crypto_aead/aegis128l/aegis128l_common.h:84:5 @[ crypto_aead/aegis128l/aegis128l_common.h:209:9 ] ] ]
	xorq	%rdx, 272(%rsp)                 # 8-byte Folded Spill
.Ltmp301:
	#DEBUG_VALUE: softaes_block_xor:b <- [DW_OP_constu 32, DW_OP_shr, DW_OP_LLVM_convert 64 7, DW_OP_LLVM_convert 32 7, DW_OP_stack_value, DW_OP_LLVM_fragment 96 32] undef
	#DEBUG_VALUE: softaes_block_xor:b <- [DW_OP_LLVM_convert 64 7, DW_OP_LLVM_convert 32 7, DW_OP_stack_value, DW_OP_LLVM_fragment 64 32] undef
	#DEBUG_VALUE: aegis128l_update:d1 <- [DW_OP_LLVM_fragment 64 64] undef
	#DEBUG_VALUE: aegis128l_absorb2:msg0 <- [DW_OP_LLVM_fragment 64 64] undef
	#DEBUG_VALUE: softaes_block_xor:out <- [DW_OP_plus_uconst 272, DW_OP_deref_size 8, DW_OP_LLVM_convert 64 7, DW_OP_LLVM_convert 32 7, DW_OP_stack_value, DW_OP_LLVM_fragment 64 32] $rsp
	#DEBUG_VALUE: softaes_block_xor:out <- [DW_OP_plus_uconst 272, DW_OP_deref_size 8, DW_OP_constu 32, DW_OP_shr, DW_OP_LLVM_convert 64 7, DW_OP_LLVM_convert 32 7, DW_OP_stack_value, DW_OP_LLVM_fragment 96 32] $rsp
	#DEBUG_VALUE: decrypt_detached:state <- [DW_OP_plus_uconst 272, DW_OP_deref, DW_OP_LLVM_fragment 64 64] $rsp
	#DEBUG_VALUE: decrypt_detached:state <- [DW_OP_plus_uconst 280, DW_OP_deref, DW_OP_LLVM_fragment 0 64] $rsp
	#DEBUG_VALUE: softaes_block_xor:b <- [DW_OP_plus_uconst 408, DW_OP_deref_size 8, DW_OP_LLVM_convert 64 7, DW_OP_LLVM_convert 32 7, DW_OP_stack_value, DW_OP_LLVM_fragment 0 32] $rsp
	#DEBUG_VALUE: softaes_block_xor:b <- [DW_OP_plus_uconst 408, DW_OP_deref_size 8, DW_OP_constu 32, DW_OP_shr, DW_OP_LLVM_convert 64 7, DW_OP_LLVM_convert 32 7, DW_OP_stack_value, DW_OP_LLVM_fragment 32 32] $rsp
	#DEBUG_VALUE: softaes_block_xor:b <- [DW_OP_plus_uconst 320, DW_OP_deref_size 8, DW_OP_LLVM_convert 64 7, DW_OP_LLVM_convert 32 7, DW_OP_stack_value, DW_OP_LLVM_fragment 64 32] $rsp
	#DEBUG_VALUE: softaes_block_xor:b <- [DW_OP_plus_uconst 320, DW_OP_deref_size 8, DW_OP_constu 32, DW_OP_shr, DW_OP_LLVM_convert 64 7, DW_OP_LLVM_convert 32 7, DW_OP_stack_value, DW_OP_LLVM_fragment 96 32] $rsp
	.loc	8 45 37                         # ./include/sodium/private/softaes.h:45:37 @[ crypto_aead/aegis128l/aegis128l_soft.c:49:16 @[ crypto_aead/aegis128l/aegis128l_common.h:84:5 @[ crypto_aead/aegis128l/aegis128l_common.h:209:9 ] ] ]
	xorq	408(%rsp), %r12                 # 8-byte Folded Reload
.Ltmp302:
	#DEBUG_VALUE: softaes_block_xor:out <- [DW_OP_LLVM_convert 64 7, DW_OP_LLVM_convert 32 7, DW_OP_stack_value, DW_OP_LLVM_fragment 0 32] $r12
	#DEBUG_VALUE: softaes_block_xor:out <- [DW_OP_constu 32, DW_OP_shr, DW_OP_LLVM_convert 64 7, DW_OP_LLVM_convert 32 7, DW_OP_stack_value, DW_OP_LLVM_fragment 32 32] $r12
	.loc	8 0 37                          # ./include/sodium/private/softaes.h:0:37
	movq	64(%rsp), %r13                  # 8-byte Reload
	.loc	8 45 63                         # ./include/sodium/private/softaes.h:45:63 @[ crypto_aead/aegis128l/aegis128l_soft.c:49:16 @[ crypto_aead/aegis128l/aegis128l_common.h:84:5 @[ crypto_aead/aegis128l/aegis128l_common.h:209:9 ] ] ]
	xorq	320(%rsp), %r13                 # 8-byte Folded Reload
.Ltmp303:
	#DEBUG_VALUE: softaes_block_xor:out <- [DW_OP_LLVM_convert 64 7, DW_OP_LLVM_convert 32 7, DW_OP_stack_value, DW_OP_LLVM_fragment 64 32] $r13
	#DEBUG_VALUE: softaes_block_xor:out <- [DW_OP_constu 32, DW_OP_shr, DW_OP_LLVM_convert 64 7, DW_OP_LLVM_convert 32 7, DW_OP_stack_value, DW_OP_LLVM_fragment 96 32] $r13
	#DEBUG_VALUE: decrypt_detached:state <- [DW_OP_LLVM_fragment 576 64] $r13
	#DEBUG_VALUE: decrypt_detached:state <- [DW_OP_LLVM_fragment 512 64] $r12
	#DEBUG_VALUE: aegis128l_update:d1 <- [DW_OP_plus_uconst 336, DW_OP_deref, DW_OP_LLVM_fragment 0 64] $rsp
	#DEBUG_VALUE: aegis128l_update:d1 <- [DW_OP_plus_uconst 344, DW_OP_deref, DW_OP_LLVM_fragment 64 64] $rsp
	#DEBUG_VALUE: aegis128l_update:d2 <- [DW_OP_plus_uconst 352, DW_OP_deref, DW_OP_LLVM_fragment 0 64] $rsp
	#DEBUG_VALUE: aegis128l_update:d2 <- [DW_OP_plus_uconst 360, DW_OP_deref, DW_OP_LLVM_fragment 64 64] $rsp
	#DEBUG_VALUE: aegis128l_update:state <- [DW_OP_plus_uconst 144, DW_OP_stack_value] $rsp
	.loc	8 0 63                          # ./include/sodium/private/softaes.h:0:63
	movq	%r13, 64(%rsp)                  # 8-byte Spill
.Ltmp304:
	#DEBUG_VALUE: softaes_block_xor:out <- [DW_OP_plus_uconst 64, DW_OP_deref_size 8, DW_OP_constu 32, DW_OP_shr, DW_OP_LLVM_convert 64 7, DW_OP_LLVM_convert 32 7, DW_OP_stack_value, DW_OP_LLVM_fragment 96 32] $rsp
	#DEBUG_VALUE: softaes_block_xor:out <- [DW_OP_plus_uconst 64, DW_OP_deref_size 8, DW_OP_LLVM_convert 64 7, DW_OP_LLVM_convert 32 7, DW_OP_stack_value, DW_OP_LLVM_fragment 64 32] $rsp
	#DEBUG_VALUE: decrypt_detached:state <- [DW_OP_plus_uconst 64, DW_OP_deref, DW_OP_LLVM_fragment 576 64] $rsp
	#DEBUG_VALUE: softaes_block_xor:a <- [DW_OP_constu 32, DW_OP_shr, DW_OP_LLVM_convert 64 7, DW_OP_LLVM_convert 32 7, DW_OP_stack_value, DW_OP_LLVM_fragment 96 32] undef
	#DEBUG_VALUE: softaes_block_xor:a <- [DW_OP_LLVM_convert 64 7, DW_OP_LLVM_convert 32 7, DW_OP_stack_value, DW_OP_LLVM_fragment 64 32] undef
	movq	120(%rsp), %r15                 # 8-byte Reload
.Ltmp305:
	.loc	5 39 16 is_stmt 1               # crypto_aead/aegis128l/aegis128l_soft.c:39:16 @[ crypto_aead/aegis128l/aegis128l_common.h:85:5 @[ crypto_aead/aegis128l/aegis128l_common.h:209:9 ] ]
	movq	%r15, %rdi
	movq	16(%rsp), %rsi                  # 8-byte Reload
	movq	288(%rsp), %rdx                 # 8-byte Reload
.Ltmp306:
	.loc	5 0 16 is_stmt 0                # crypto_aead/aegis128l/aegis128l_soft.c:0:16
	movq	296(%rsp), %rcx                 # 8-byte Reload
	.loc	5 39 16                         # crypto_aead/aegis128l/aegis128l_soft.c:39:16 @[ crypto_aead/aegis128l/aegis128l_common.h:85:5 @[ crypto_aead/aegis128l/aegis128l_common.h:209:9 ] ]
	callq	softaes_block_encrypt@PLT
.Ltmp307:
	.loc	5 0 16                          # crypto_aead/aegis128l/aegis128l_soft.c:0:16
	movq	%rax, 48(%rsp)                  # 8-byte Spill
.Ltmp308:
	#DEBUG_VALUE: aegis128l_update:tmp <- [DW_OP_LLVM_fragment 0 64] undef
	#DEBUG_VALUE: decrypt_detached:state <- [DW_OP_plus_uconst 48, DW_OP_deref, DW_OP_LLVM_fragment 896 64] $rsp
	movq	%rdx, 56(%rsp)                  # 8-byte Spill
.Ltmp309:
	#DEBUG_VALUE: aegis128l_update:tmp <- [DW_OP_LLVM_fragment 64 64] undef
	#DEBUG_VALUE: decrypt_detached:state <- [DW_OP_plus_uconst 56, DW_OP_deref, DW_OP_LLVM_fragment 960 64] $rsp
	movq	40(%rsp), %r14                  # 8-byte Reload
	.loc	5 40 16 is_stmt 1               # crypto_aead/aegis128l/aegis128l_soft.c:40:16 @[ crypto_aead/aegis128l/aegis128l_common.h:85:5 @[ crypto_aead/aegis128l/aegis128l_common.h:209:9 ] ]
	movq	%r14, %rdi
	movq	32(%rsp), %rbx                  # 8-byte Reload
	movq	%rbx, %rsi
	movq	%r15, %rdx
	#DEBUG_VALUE: softaes_block_xor:a <- [DW_OP_plus_uconst 56, DW_OP_deref_size 8, DW_OP_constu 32, DW_OP_shr, DW_OP_LLVM_convert 64 7, DW_OP_LLVM_convert 32 7, DW_OP_stack_value, DW_OP_LLVM_fragment 96 32] $rsp
	#DEBUG_VALUE: softaes_block_xor:a <- [DW_OP_plus_uconst 56, DW_OP_deref_size 8, DW_OP_LLVM_convert 64 7, DW_OP_LLVM_convert 32 7, DW_OP_stack_value, DW_OP_LLVM_fragment 64 32] $rsp
	movq	16(%rsp), %rcx                  # 8-byte Reload
	callq	softaes_block_encrypt@PLT
.Ltmp310:
	.loc	5 0 16 is_stmt 0                # crypto_aead/aegis128l/aegis128l_soft.c:0:16
	movq	%rax, 120(%rsp)                 # 8-byte Spill
.Ltmp311:
	#DEBUG_VALUE: decrypt_detached:state <- [DW_OP_LLVM_fragment 768 64] $r15
	#DEBUG_VALUE: decrypt_detached:state <- [DW_OP_plus_uconst 120, DW_OP_deref, DW_OP_LLVM_fragment 768 64] $rsp
	movq	%rdx, 16(%rsp)                  # 8-byte Spill
.Ltmp312:
	#DEBUG_VALUE: decrypt_detached:state <- [DW_OP_LLVM_fragment 832 64] undef
	#DEBUG_VALUE: decrypt_detached:state <- [DW_OP_plus_uconst 16, DW_OP_deref, DW_OP_LLVM_fragment 832 64] $rsp
	.loc	5 41 16 is_stmt 1               # crypto_aead/aegis128l/aegis128l_soft.c:41:16 @[ crypto_aead/aegis128l/aegis128l_common.h:85:5 @[ crypto_aead/aegis128l/aegis128l_common.h:209:9 ] ]
	movq	%r12, %rdi
	movq	%r12, %r15
.Ltmp313:
	#DEBUG_VALUE: softaes_block_xor:out <- [DW_OP_constu 32, DW_OP_shr, DW_OP_LLVM_convert 64 7, DW_OP_LLVM_convert 32 7, DW_OP_stack_value, DW_OP_LLVM_fragment 32 32] $r15
	#DEBUG_VALUE: softaes_block_xor:out <- [DW_OP_LLVM_convert 64 7, DW_OP_LLVM_convert 32 7, DW_OP_stack_value, DW_OP_LLVM_fragment 0 32] $r15
	#DEBUG_VALUE: decrypt_detached:state <- [DW_OP_LLVM_fragment 512 64] $r15
	movq	%r13, %rsi
	movq	%r14, %rdx
	movq	%rbx, %rcx
	callq	softaes_block_encrypt@PLT
.Ltmp314:
	.loc	5 0 16 is_stmt 0                # crypto_aead/aegis128l/aegis128l_soft.c:0:16
	movq	%rax, 40(%rsp)                  # 8-byte Spill
.Ltmp315:
	#DEBUG_VALUE: decrypt_detached:state <- [DW_OP_LLVM_fragment 640 64] $r14
	#DEBUG_VALUE: decrypt_detached:state <- [DW_OP_plus_uconst 40, DW_OP_deref, DW_OP_LLVM_fragment 640 64] $rsp
	movq	%rdx, 32(%rsp)                  # 8-byte Spill
.Ltmp316:
	#DEBUG_VALUE: decrypt_detached:state <- [DW_OP_LLVM_fragment 704 64] $rbx
	#DEBUG_VALUE: decrypt_detached:state <- [DW_OP_plus_uconst 32, DW_OP_deref, DW_OP_LLVM_fragment 704 64] $rsp
	movq	24(%rsp), %r13                  # 8-byte Reload
	.loc	5 42 16 is_stmt 1               # crypto_aead/aegis128l/aegis128l_soft.c:42:16 @[ crypto_aead/aegis128l/aegis128l_common.h:85:5 @[ crypto_aead/aegis128l/aegis128l_common.h:209:9 ] ]
	movq	%r13, %rdi
	movq	128(%rsp), %r12                 # 8-byte Reload
	movq	%r12, %rsi
	movq	%r15, %rdx
	movq	64(%rsp), %rcx                  # 8-byte Reload
	callq	softaes_block_encrypt@PLT
.Ltmp317:
	.loc	5 0 16 is_stmt 0                # crypto_aead/aegis128l/aegis128l_soft.c:0:16
	movq	%rax, 64(%rsp)                  # 8-byte Spill
.Ltmp318:
	#DEBUG_VALUE: softaes_block_xor:out <- [DW_OP_constu 32, DW_OP_shr, DW_OP_LLVM_convert 64 7, DW_OP_LLVM_convert 32 7, DW_OP_stack_value, DW_OP_LLVM_fragment 96 32] undef
	#DEBUG_VALUE: softaes_block_xor:out <- [DW_OP_LLVM_convert 64 7, DW_OP_LLVM_convert 32 7, DW_OP_stack_value, DW_OP_LLVM_fragment 64 32] undef
	#DEBUG_VALUE: decrypt_detached:state <- [DW_OP_LLVM_fragment 576 64] undef
	#DEBUG_VALUE: decrypt_detached:state <- [DW_OP_plus_uconst 64, DW_OP_deref, DW_OP_LLVM_fragment 512 64] $rsp
	#DEBUG_VALUE: softaes_block_xor:a <- [DW_OP_plus_uconst 64, DW_OP_deref_size 8, DW_OP_LLVM_convert 64 7, DW_OP_LLVM_convert 32 7, DW_OP_stack_value, DW_OP_LLVM_fragment 0 32] $rsp
	#DEBUG_VALUE: softaes_block_xor:a <- [DW_OP_plus_uconst 64, DW_OP_deref_size 8, DW_OP_constu 32, DW_OP_shr, DW_OP_LLVM_convert 64 7, DW_OP_LLVM_convert 32 7, DW_OP_stack_value, DW_OP_LLVM_fragment 32 32] $rsp
	movq	%rdx, 320(%rsp)                 # 8-byte Spill
.Ltmp319:
	#DEBUG_VALUE: softaes_block_xor:b <- [DW_OP_constu 32, DW_OP_shr, DW_OP_LLVM_convert 64 7, DW_OP_LLVM_convert 32 7, DW_OP_stack_value, DW_OP_LLVM_fragment 96 32] undef
	#DEBUG_VALUE: softaes_block_xor:b <- [DW_OP_LLVM_convert 64 7, DW_OP_LLVM_convert 32 7, DW_OP_stack_value, DW_OP_LLVM_fragment 64 32] undef
	#DEBUG_VALUE: aegis128l_update:d2 <- [DW_OP_LLVM_fragment 64 64] undef
	#DEBUG_VALUE: aegis128l_absorb2:msg1 <- [DW_OP_LLVM_fragment 64 64] undef
	#DEBUG_VALUE: decrypt_detached:state <- [DW_OP_plus_uconst 320, DW_OP_deref, DW_OP_LLVM_fragment 576 64] $rsp
	#DEBUG_VALUE: softaes_block_xor:a <- [DW_OP_plus_uconst 320, DW_OP_deref_size 8, DW_OP_LLVM_convert 64 7, DW_OP_LLVM_convert 32 7, DW_OP_stack_value, DW_OP_LLVM_fragment 64 32] $rsp
	#DEBUG_VALUE: softaes_block_xor:a <- [DW_OP_plus_uconst 320, DW_OP_deref_size 8, DW_OP_constu 32, DW_OP_shr, DW_OP_LLVM_convert 64 7, DW_OP_LLVM_convert 32 7, DW_OP_stack_value, DW_OP_LLVM_fragment 96 32] $rsp
	movq	112(%rsp), %r15                 # 8-byte Reload
.Ltmp320:
	.loc	5 43 16 is_stmt 1               # crypto_aead/aegis128l/aegis128l_soft.c:43:16 @[ crypto_aead/aegis128l/aegis128l_common.h:85:5 @[ crypto_aead/aegis128l/aegis128l_common.h:209:9 ] ]
	movq	%r15, %rdi
	movq	104(%rsp), %r14                 # 8-byte Reload
	movq	%r14, %rsi
	movq	%r13, %rdx
	movq	%r12, %rcx
	callq	softaes_block_encrypt@PLT
.Ltmp321:
	.loc	5 0 16 is_stmt 0                # crypto_aead/aegis128l/aegis128l_soft.c:0:16
	movq	%rax, 128(%rsp)                 # 8-byte Spill
.Ltmp322:
	#DEBUG_VALUE: decrypt_detached:state <- [DW_OP_LLVM_fragment 448 64] $r12
	#DEBUG_VALUE: decrypt_detached:state <- [DW_OP_plus_uconst 128, DW_OP_deref, DW_OP_LLVM_fragment 384 64] $rsp
	movq	%rdx, 24(%rsp)                  # 8-byte Spill
.Ltmp323:
	#DEBUG_VALUE: decrypt_detached:state <- [DW_OP_plus_uconst 24, DW_OP_deref, DW_OP_LLVM_fragment 448 64] $rsp
	movq	96(%rsp), %r13                  # 8-byte Reload
	.loc	5 44 16 is_stmt 1               # crypto_aead/aegis128l/aegis128l_soft.c:44:16 @[ crypto_aead/aegis128l/aegis128l_common.h:85:5 @[ crypto_aead/aegis128l/aegis128l_common.h:209:9 ] ]
	movq	%r13, %rdi
	movq	88(%rsp), %r12                  # 8-byte Reload
	movq	%r12, %rsi
	movq	%r15, %rdx
	movq	%r14, %rcx
	callq	softaes_block_encrypt@PLT
.Ltmp324:
	.loc	5 0 16 is_stmt 0                # crypto_aead/aegis128l/aegis128l_soft.c:0:16
	movq	%rax, 104(%rsp)                 # 8-byte Spill
.Ltmp325:
	#DEBUG_VALUE: decrypt_detached:state <- [DW_OP_LLVM_fragment 320 64] $r14
	#DEBUG_VALUE: decrypt_detached:state <- [DW_OP_plus_uconst 104, DW_OP_deref, DW_OP_LLVM_fragment 256 64] $rsp
	movq	%rdx, 112(%rsp)                 # 8-byte Spill
.Ltmp326:
	#DEBUG_VALUE: decrypt_detached:state <- [DW_OP_plus_uconst 112, DW_OP_deref, DW_OP_LLVM_fragment 320 64] $rsp
	movq	280(%rsp), %r14                 # 8-byte Reload
	.loc	5 45 16 is_stmt 1               # crypto_aead/aegis128l/aegis128l_soft.c:45:16 @[ crypto_aead/aegis128l/aegis128l_common.h:85:5 @[ crypto_aead/aegis128l/aegis128l_common.h:209:9 ] ]
	movq	%r14, %rdi
	movq	272(%rsp), %rbx                 # 8-byte Reload
	movq	%rbx, %rsi
	movq	%r13, %rdx
	movq	%r12, %rcx
	callq	softaes_block_encrypt@PLT
.Ltmp327:
	.loc	5 0 16 is_stmt 0                # crypto_aead/aegis128l/aegis128l_soft.c:0:16
	movq	%rax, 88(%rsp)                  # 8-byte Spill
.Ltmp328:
	#DEBUG_VALUE: decrypt_detached:state <- [DW_OP_LLVM_fragment 192 64] $r12
	#DEBUG_VALUE: decrypt_detached:state <- [DW_OP_plus_uconst 88, DW_OP_deref, DW_OP_LLVM_fragment 128 64] $rsp
	movq	%rdx, 96(%rsp)                  # 8-byte Spill
.Ltmp329:
	#DEBUG_VALUE: decrypt_detached:state <- [DW_OP_plus_uconst 96, DW_OP_deref, DW_OP_LLVM_fragment 192 64] $rsp
	movq	288(%rsp), %rdi                 # 8-byte Reload
	movq	296(%rsp), %rsi                 # 8-byte Reload
	.loc	5 46 16 is_stmt 1               # crypto_aead/aegis128l/aegis128l_soft.c:46:16 @[ crypto_aead/aegis128l/aegis128l_common.h:85:5 @[ crypto_aead/aegis128l/aegis128l_common.h:209:9 ] ]
	movq	%r14, %rdx
	movq	%rbx, %rcx
	callq	softaes_block_encrypt@PLT
.Ltmp330:
	movq	%rax, %rsi
.Ltmp331:
	#DEBUG_VALUE: softaes_block_xor:a <- [DW_OP_LLVM_convert 64 7, DW_OP_LLVM_convert 32 7, DW_OP_stack_value, DW_OP_LLVM_fragment 0 32] $rsi
	#DEBUG_VALUE: softaes_block_xor:a <- [DW_OP_constu 32, DW_OP_shr, DW_OP_LLVM_convert 64 7, DW_OP_LLVM_convert 32 7, DW_OP_stack_value, DW_OP_LLVM_fragment 32 32] $rsi
	movq	%rdx, %rdi
.Ltmp332:
	#DEBUG_VALUE: softaes_block_xor:a <- [DW_OP_LLVM_convert 64 7, DW_OP_LLVM_convert 32 7, DW_OP_stack_value, DW_OP_LLVM_fragment 64 32] $rdi
	#DEBUG_VALUE: softaes_block_xor:a <- [DW_OP_constu 32, DW_OP_shr, DW_OP_LLVM_convert 64 7, DW_OP_LLVM_convert 32 7, DW_OP_stack_value, DW_OP_LLVM_fragment 96 32] $rdi
	#DEBUG_VALUE: softaes_block_xor:b <- [DW_OP_plus_uconst 336, DW_OP_deref_size 8, DW_OP_LLVM_convert 64 7, DW_OP_LLVM_convert 32 7, DW_OP_stack_value, DW_OP_LLVM_fragment 0 32] $rsp
	#DEBUG_VALUE: softaes_block_xor:b <- [DW_OP_plus_uconst 336, DW_OP_deref_size 8, DW_OP_constu 32, DW_OP_shr, DW_OP_LLVM_convert 64 7, DW_OP_LLVM_convert 32 7, DW_OP_stack_value, DW_OP_LLVM_fragment 32 32] $rsp
	#DEBUG_VALUE: softaes_block_xor:b <- [DW_OP_plus_uconst 344, DW_OP_deref_size 8, DW_OP_LLVM_convert 64 7, DW_OP_LLVM_convert 32 7, DW_OP_stack_value, DW_OP_LLVM_fragment 64 32] $rsp
	#DEBUG_VALUE: softaes_block_xor:b <- [DW_OP_plus_uconst 344, DW_OP_deref_size 8, DW_OP_constu 32, DW_OP_shr, DW_OP_LLVM_convert 64 7, DW_OP_LLVM_convert 32 7, DW_OP_stack_value, DW_OP_LLVM_fragment 96 32] $rsp
	.loc	5 0 16 is_stmt 0                # crypto_aead/aegis128l/aegis128l_soft.c:0:16
	movq	16(%rbp), %rdx
.Ltmp333:
	.loc	8 45 37 is_stmt 1               # ./include/sodium/private/softaes.h:45:37 @[ crypto_aead/aegis128l/aegis128l_soft.c:48:16 @[ crypto_aead/aegis128l/aegis128l_common.h:85:5 @[ crypto_aead/aegis128l/aegis128l_common.h:209:9 ] ] ]
	xorq	336(%rsp), %rsi                 # 8-byte Folded Reload
.Ltmp334:
	#DEBUG_VALUE: softaes_block_xor:a <- [DW_OP_constu 32, DW_OP_shr, DW_OP_LLVM_convert 64 7, DW_OP_LLVM_convert 32 7, DW_OP_stack_value, DW_OP_LLVM_fragment 32 32] $rax
	#DEBUG_VALUE: softaes_block_xor:a <- [DW_OP_LLVM_convert 64 7, DW_OP_LLVM_convert 32 7, DW_OP_stack_value, DW_OP_LLVM_fragment 0 32] $rax
	#DEBUG_VALUE: softaes_block_xor:out <- [DW_OP_LLVM_convert 64 7, DW_OP_LLVM_convert 32 7, DW_OP_stack_value, DW_OP_LLVM_fragment 0 32] $rsi
	#DEBUG_VALUE: softaes_block_xor:out <- [DW_OP_constu 32, DW_OP_shr, DW_OP_LLVM_convert 64 7, DW_OP_LLVM_convert 32 7, DW_OP_stack_value, DW_OP_LLVM_fragment 32 32] $rsi
	.loc	8 45 63 is_stmt 0               # ./include/sodium/private/softaes.h:45:63 @[ crypto_aead/aegis128l/aegis128l_soft.c:48:16 @[ crypto_aead/aegis128l/aegis128l_common.h:85:5 @[ crypto_aead/aegis128l/aegis128l_common.h:209:9 ] ] ]
	xorq	344(%rsp), %rdi                 # 8-byte Folded Reload
.Ltmp335:
	#DEBUG_VALUE: softaes_block_xor:out <- [DW_OP_LLVM_convert 64 7, DW_OP_LLVM_convert 32 7, DW_OP_stack_value, DW_OP_LLVM_fragment 64 32] $rdi
	#DEBUG_VALUE: softaes_block_xor:out <- [DW_OP_constu 32, DW_OP_shr, DW_OP_LLVM_convert 64 7, DW_OP_LLVM_convert 32 7, DW_OP_stack_value, DW_OP_LLVM_fragment 96 32] $rdi
	#DEBUG_VALUE: decrypt_detached:state <- [DW_OP_LLVM_fragment 64 64] $rdi
	#DEBUG_VALUE: decrypt_detached:state <- [DW_OP_LLVM_fragment 0 64] $rsi
	#DEBUG_VALUE: softaes_block_xor:b <- [DW_OP_plus_uconst 352, DW_OP_deref_size 8, DW_OP_LLVM_convert 64 7, DW_OP_LLVM_convert 32 7, DW_OP_stack_value, DW_OP_LLVM_fragment 0 32] $rsp
	#DEBUG_VALUE: softaes_block_xor:b <- [DW_OP_plus_uconst 352, DW_OP_deref_size 8, DW_OP_constu 32, DW_OP_shr, DW_OP_LLVM_convert 64 7, DW_OP_LLVM_convert 32 7, DW_OP_stack_value, DW_OP_LLVM_fragment 32 32] $rsp
	#DEBUG_VALUE: softaes_block_xor:b <- [DW_OP_plus_uconst 360, DW_OP_deref_size 8, DW_OP_LLVM_convert 64 7, DW_OP_LLVM_convert 32 7, DW_OP_stack_value, DW_OP_LLVM_fragment 64 32] $rsp
	#DEBUG_VALUE: softaes_block_xor:b <- [DW_OP_plus_uconst 360, DW_OP_deref_size 8, DW_OP_constu 32, DW_OP_shr, DW_OP_LLVM_convert 64 7, DW_OP_LLVM_convert 32 7, DW_OP_stack_value, DW_OP_LLVM_fragment 96 32] $rsp
	.loc	8 0 63                          # ./include/sodium/private/softaes.h:0:63
	movq	64(%rsp), %rax                  # 8-byte Reload
.Ltmp336:
	.loc	8 45 37                         # ./include/sodium/private/softaes.h:45:37 @[ crypto_aead/aegis128l/aegis128l_soft.c:49:16 @[ crypto_aead/aegis128l/aegis128l_common.h:85:5 @[ crypto_aead/aegis128l/aegis128l_common.h:209:9 ] ] ]
	xorq	352(%rsp), %rax                 # 8-byte Folded Reload
.Ltmp337:
	#DEBUG_VALUE: softaes_block_xor:out <- [DW_OP_LLVM_convert 64 7, DW_OP_LLVM_convert 32 7, DW_OP_stack_value, DW_OP_LLVM_fragment 0 32] $rax
	#DEBUG_VALUE: softaes_block_xor:out <- [DW_OP_constu 32, DW_OP_shr, DW_OP_LLVM_convert 64 7, DW_OP_LLVM_convert 32 7, DW_OP_stack_value, DW_OP_LLVM_fragment 32 32] $rax
	.loc	8 0 37                          # ./include/sodium/private/softaes.h:0:37
	movq	%rax, 64(%rsp)                  # 8-byte Spill
.Ltmp338:
	#DEBUG_VALUE: softaes_block_xor:out <- [DW_OP_plus_uconst 64, DW_OP_deref_size 8, DW_OP_constu 32, DW_OP_shr, DW_OP_LLVM_convert 64 7, DW_OP_LLVM_convert 32 7, DW_OP_stack_value, DW_OP_LLVM_fragment 32 32] $rsp
	#DEBUG_VALUE: softaes_block_xor:out <- [DW_OP_plus_uconst 64, DW_OP_deref_size 8, DW_OP_LLVM_convert 64 7, DW_OP_LLVM_convert 32 7, DW_OP_stack_value, DW_OP_LLVM_fragment 0 32] $rsp
	#DEBUG_VALUE: softaes_block_xor:a <- [DW_OP_constu 32, DW_OP_shr, DW_OP_LLVM_convert 64 7, DW_OP_LLVM_convert 32 7, DW_OP_stack_value, DW_OP_LLVM_fragment 32 32] undef
	#DEBUG_VALUE: softaes_block_xor:a <- [DW_OP_LLVM_convert 64 7, DW_OP_LLVM_convert 32 7, DW_OP_stack_value, DW_OP_LLVM_fragment 0 32] undef
	#DEBUG_VALUE: decrypt_detached:state <- [DW_OP_LLVM_fragment 512 64] undef
	movq	320(%rsp), %r13                 # 8-byte Reload
	.loc	8 45 63                         # ./include/sodium/private/softaes.h:45:63 @[ crypto_aead/aegis128l/aegis128l_soft.c:49:16 @[ crypto_aead/aegis128l/aegis128l_common.h:85:5 @[ crypto_aead/aegis128l/aegis128l_common.h:209:9 ] ] ]
	xorq	360(%rsp), %r13                 # 8-byte Folded Reload
.Ltmp339:
	#DEBUG_VALUE: softaes_block_xor:out <- [DW_OP_LLVM_convert 64 7, DW_OP_LLVM_convert 32 7, DW_OP_stack_value, DW_OP_LLVM_fragment 64 32] $r13
	#DEBUG_VALUE: softaes_block_xor:out <- [DW_OP_constu 32, DW_OP_shr, DW_OP_LLVM_convert 64 7, DW_OP_LLVM_convert 32 7, DW_OP_stack_value, DW_OP_LLVM_fragment 96 32] $r13
	#DEBUG_VALUE: decrypt_detached:state <- [DW_OP_LLVM_fragment 576 64] $r13
	#DEBUG_VALUE: decrypt_detached:state <- [DW_OP_plus_uconst 64, DW_OP_deref, DW_OP_LLVM_fragment 512 64] $rsp
	#DEBUG_VALUE: decrypt_detached:i <- [DW_OP_plus_uconst 328, DW_OP_deref, DW_OP_plus_uconst 64, DW_OP_stack_value] $rsp
	.loc	8 0 63                          # ./include/sodium/private/softaes.h:0:63
	movq	328(%rsp), %rcx                 # 8-byte Reload
.Ltmp340:
	.loc	6 208 28 is_stmt 1              # crypto_aead/aegis128l/aegis128l_common.h:208:28
	leaq	64(%rcx), %r9
	subq	$-128, %rcx
	cmpq	%rdx, %rcx
.Ltmp341:
	.loc	6 208 5 is_stmt 0               # crypto_aead/aegis128l/aegis128l_common.h:208:5
	jbe	.LBB1_3
.Ltmp342:
# %bb.4:                                # %..preheader80_crit_edge
	#DEBUG_VALUE: decrypt_detached:m <- [DW_OP_plus_uconst 312] [$rsp+0]
	#DEBUG_VALUE: decrypt_detached:c <- [DW_OP_plus_uconst 136] [$rsp+0]
	#DEBUG_VALUE: decrypt_detached:clen <- [DW_OP_plus_uconst 376] [$rsp+0]
	#DEBUG_VALUE: decrypt_detached:mac <- [DW_OP_plus_uconst 368] [$rsp+0]
	#DEBUG_VALUE: decrypt_detached:maclen <- [DW_OP_plus_uconst 384] [$rsp+0]
	#DEBUG_VALUE: decrypt_detached:ad <- [DW_OP_plus_uconst 304] [$rsp+0]
	#DEBUG_VALUE: decrypt_detached:adlen <- [DW_OP_plus_uconst 16] [$rbp+0]
	#DEBUG_VALUE: decrypt_detached:npub <- [DW_OP_plus_uconst 24] [$rbp+0]
	#DEBUG_VALUE: decrypt_detached:k <- [DW_OP_plus_uconst 32] [$rbp+0]
	#DEBUG_VALUE: decrypt_detached:state <- [DW_OP_plus_uconst 48, DW_OP_deref, DW_OP_LLVM_fragment 896 64] $rsp
	#DEBUG_VALUE: decrypt_detached:state <- [DW_OP_plus_uconst 56, DW_OP_deref, DW_OP_LLVM_fragment 960 64] $rsp
	#DEBUG_VALUE: decrypt_detached:state <- [DW_OP_plus_uconst 120, DW_OP_deref, DW_OP_LLVM_fragment 768 64] $rsp
	#DEBUG_VALUE: decrypt_detached:state <- [DW_OP_plus_uconst 16, DW_OP_deref, DW_OP_LLVM_fragment 832 64] $rsp
	#DEBUG_VALUE: decrypt_detached:state <- [DW_OP_plus_uconst 40, DW_OP_deref, DW_OP_LLVM_fragment 640 64] $rsp
	#DEBUG_VALUE: decrypt_detached:state <- [DW_OP_plus_uconst 32, DW_OP_deref, DW_OP_LLVM_fragment 704 64] $rsp
	#DEBUG_VALUE: decrypt_detached:state <- [DW_OP_plus_uconst 64, DW_OP_deref, DW_OP_LLVM_fragment 512 64] $rsp
	#DEBUG_VALUE: decrypt_detached:state <- [DW_OP_LLVM_fragment 576 64] $r13
	#DEBUG_VALUE: decrypt_detached:state <- [DW_OP_plus_uconst 128, DW_OP_deref, DW_OP_LLVM_fragment 384 64] $rsp
	#DEBUG_VALUE: decrypt_detached:state <- [DW_OP_plus_uconst 24, DW_OP_deref, DW_OP_LLVM_fragment 448 64] $rsp
	#DEBUG_VALUE: decrypt_detached:state <- [DW_OP_plus_uconst 104, DW_OP_deref, DW_OP_LLVM_fragment 256 64] $rsp
	#DEBUG_VALUE: decrypt_detached:state <- [DW_OP_plus_uconst 112, DW_OP_deref, DW_OP_LLVM_fragment 320 64] $rsp
	#DEBUG_VALUE: decrypt_detached:state <- [DW_OP_plus_uconst 88, DW_OP_deref, DW_OP_LLVM_fragment 128 64] $rsp
	#DEBUG_VALUE: decrypt_detached:state <- [DW_OP_plus_uconst 96, DW_OP_deref, DW_OP_LLVM_fragment 192 64] $rsp
	#DEBUG_VALUE: decrypt_detached:state <- [DW_OP_LLVM_fragment 64 64] $rdi
	#DEBUG_VALUE: decrypt_detached:state <- [DW_OP_LLVM_fragment 0 64] $rsi
	#DEBUG_VALUE: decrypt_detached:i <- [DW_OP_plus_uconst 328, DW_OP_deref, DW_OP_plus_uconst 64, DW_OP_stack_value] $rsp
	#DEBUG_VALUE: aegis128l_absorb2:src <- [DW_OP_LLVM_arg 0, DW_OP_plus_uconst 328, DW_OP_deref, DW_OP_consts 64, DW_OP_div, DW_OP_consts 64, DW_OP_mul, DW_OP_LLVM_arg 1, DW_OP_plus_uconst 304, DW_OP_deref, DW_OP_plus, DW_OP_stack_value] $rsp, $rsp
	#DEBUG_VALUE: aegis128l_absorb2:state <- [DW_OP_plus_uconst 144, DW_OP_stack_value] $rsp
	#DEBUG_VALUE: aegis128l_absorb2:msg1 <- [DW_OP_plus_uconst 408, DW_OP_deref, DW_OP_LLVM_fragment 0 64] $rsp
	#DEBUG_VALUE: aegis128l_absorb2:msg2 <- [DW_OP_plus_uconst 344, DW_OP_deref, DW_OP_LLVM_fragment 64 64] $rsp
	#DEBUG_VALUE: aegis128l_absorb2:msg2 <- [DW_OP_plus_uconst 336, DW_OP_deref, DW_OP_LLVM_fragment 0 64] $rsp
	#DEBUG_VALUE: aegis128l_absorb2:msg3 <- [DW_OP_plus_uconst 360, DW_OP_deref, DW_OP_LLVM_fragment 64 64] $rsp
	#DEBUG_VALUE: aegis128l_absorb2:msg3 <- [DW_OP_plus_uconst 352, DW_OP_deref, DW_OP_LLVM_fragment 0 64] $rsp
	.loc	6 0 5                           # crypto_aead/aegis128l/aegis128l_common.h:0:5
	movq	48(%rsp), %rcx                  # 8-byte Reload
.Ltmp343:
	movq	%rcx, 256(%rsp)
.Ltmp344:
	#DEBUG_VALUE: decrypt_detached:state <- [DW_OP_plus_uconst 144, DW_OP_plus_uconst 112, DW_OP_deref, DW_OP_LLVM_fragment 896 64] $rsp
	movq	56(%rsp), %rcx                  # 8-byte Reload
	movq	%rcx, 264(%rsp)
.Ltmp345:
	#DEBUG_VALUE: decrypt_detached:state <- [DW_OP_plus_uconst 144, DW_OP_plus_uconst 112, DW_OP_deref, DW_OP_LLVM_fragment 896 128] $rsp
	movq	120(%rsp), %rcx                 # 8-byte Reload
	movq	%rcx, 240(%rsp)
.Ltmp346:
	#DEBUG_VALUE: decrypt_detached:state <- [DW_OP_plus_uconst 144, DW_OP_plus_uconst 96, DW_OP_deref, DW_OP_LLVM_fragment 768 64] $rsp
	movq	16(%rsp), %rcx                  # 8-byte Reload
	movq	%rcx, 248(%rsp)
.Ltmp347:
	#DEBUG_VALUE: decrypt_detached:state <- [DW_OP_plus_uconst 144, DW_OP_plus_uconst 96, DW_OP_deref, DW_OP_LLVM_fragment 768 256] $rsp
	movq	40(%rsp), %rcx                  # 8-byte Reload
	movq	%rcx, 224(%rsp)
.Ltmp348:
	#DEBUG_VALUE: decrypt_detached:state <- [DW_OP_plus_uconst 144, DW_OP_plus_uconst 80, DW_OP_deref, DW_OP_LLVM_fragment 640 64] $rsp
	movq	32(%rsp), %rcx                  # 8-byte Reload
	movq	%rcx, 232(%rsp)
.Ltmp349:
	#DEBUG_VALUE: decrypt_detached:state <- [DW_OP_plus_uconst 144, DW_OP_plus_uconst 80, DW_OP_deref, DW_OP_LLVM_fragment 640 384] $rsp
	movq	64(%rsp), %rcx                  # 8-byte Reload
	movq	%rcx, 208(%rsp)
.Ltmp350:
	#DEBUG_VALUE: decrypt_detached:state <- [DW_OP_plus_uconst 144, DW_OP_plus_uconst 64, DW_OP_deref, DW_OP_LLVM_fragment 512 64] $rsp
	movq	%r13, 216(%rsp)
.Ltmp351:
	#DEBUG_VALUE: decrypt_detached:state <- [DW_OP_plus_uconst 144, DW_OP_plus_uconst 64, DW_OP_deref, DW_OP_LLVM_fragment 512 512] $rsp
	movq	128(%rsp), %rcx                 # 8-byte Reload
	movq	%rcx, 192(%rsp)
.Ltmp352:
	#DEBUG_VALUE: decrypt_detached:state <- [DW_OP_plus_uconst 144, DW_OP_plus_uconst 48, DW_OP_deref, DW_OP_LLVM_fragment 384 64] $rsp
	movq	24(%rsp), %rcx                  # 8-byte Reload
	movq	%rcx, 200(%rsp)
.Ltmp353:
	#DEBUG_VALUE: decrypt_detached:state <- [DW_OP_plus_uconst 144, DW_OP_plus_uconst 48, DW_OP_deref, DW_OP_LLVM_fragment 384 640] $rsp
	movq	104(%rsp), %rax                 # 8-byte Reload
	movq	%rax, 176(%rsp)
.Ltmp354:
	#DEBUG_VALUE: decrypt_detached:state <- [DW_OP_plus_uconst 144, DW_OP_plus_uconst 32, DW_OP_deref, DW_OP_LLVM_fragment 256 64] $rsp
	movq	112(%rsp), %rax                 # 8-byte Reload
	movq	%rax, 184(%rsp)
.Ltmp355:
	#DEBUG_VALUE: decrypt_detached:state <- [DW_OP_plus_uconst 144, DW_OP_plus_uconst 32, DW_OP_deref, DW_OP_LLVM_fragment 256 768] $rsp
	movq	88(%rsp), %rax                  # 8-byte Reload
	movq	%rax, 160(%rsp)
.Ltmp356:
	#DEBUG_VALUE: decrypt_detached:state <- [DW_OP_plus_uconst 144, DW_OP_plus_uconst 16, DW_OP_deref, DW_OP_LLVM_fragment 128 64] $rsp
	movq	96(%rsp), %rax                  # 8-byte Reload
	movq	%rax, 168(%rsp)
.Ltmp357:
	#DEBUG_VALUE: decrypt_detached:state <- [DW_OP_plus_uconst 144, DW_OP_plus_uconst 16, DW_OP_deref, DW_OP_LLVM_fragment 128 896] $rsp
	movq	%rdi, 152(%rsp)
.Ltmp358:
	#DEBUG_VALUE: decrypt_detached:state <- [DW_OP_plus_uconst 144, DW_OP_plus_uconst 8, DW_OP_deref, DW_OP_LLVM_fragment 64 960] $rsp
	.loc	5 48 16 is_stmt 1               # crypto_aead/aegis128l/aegis128l_soft.c:48:16 @[ crypto_aead/aegis128l/aegis128l_common.h:0 @[ crypto_aead/aegis128l/aegis128l_common.h:209:9 ] ]
	movq	%rsi, 144(%rsp)
.Ltmp359:
	#DEBUG_VALUE: decrypt_detached:state <- [DW_OP_plus_uconst 144, DW_OP_deref] $rsp
	.loc	5 0 16 is_stmt 0                # crypto_aead/aegis128l/aegis128l_soft.c:0:16
	movq	376(%rsp), %r13                 # 8-byte Reload
	movq	312(%rsp), %r12                 # 8-byte Reload
.Ltmp360:
.LBB1_5:                                # %.preheader80
	#DEBUG_VALUE: decrypt_detached:m <- [DW_OP_plus_uconst 312] [$rsp+0]
	#DEBUG_VALUE: decrypt_detached:c <- [DW_OP_plus_uconst 136] [$rsp+0]
	#DEBUG_VALUE: decrypt_detached:clen <- [DW_OP_plus_uconst 376] [$rsp+0]
	#DEBUG_VALUE: decrypt_detached:mac <- [DW_OP_plus_uconst 368] [$rsp+0]
	#DEBUG_VALUE: decrypt_detached:maclen <- [DW_OP_plus_uconst 384] [$rsp+0]
	#DEBUG_VALUE: decrypt_detached:ad <- [DW_OP_plus_uconst 304] [$rsp+0]
	#DEBUG_VALUE: decrypt_detached:adlen <- [DW_OP_plus_uconst 16] [$rbp+0]
	#DEBUG_VALUE: decrypt_detached:npub <- [DW_OP_plus_uconst 24] [$rbp+0]
	#DEBUG_VALUE: decrypt_detached:k <- [DW_OP_plus_uconst 32] [$rbp+0]
	#DEBUG_VALUE: decrypt_detached:state <- [DW_OP_plus_uconst 144, DW_OP_deref] $rsp
	movq	304(%rsp), %r8                  # 8-byte Reload
.Ltmp361:
	#DEBUG_VALUE: decrypt_detached:i <- $r9
	.loc	6 211 14 is_stmt 1              # crypto_aead/aegis128l/aegis128l_common.h:211:14
	movq	%r9, %rcx
	orq	$32, %rcx
	.loc	6 211 19 is_stmt 0              # crypto_aead/aegis128l/aegis128l_common.h:211:19
	cmpq	%rdx, %rcx
.Ltmp362:
	.loc	6 211 5                         # crypto_aead/aegis128l/aegis128l_common.h:211:5
	ja	.LBB1_9
.Ltmp363:
# %bb.6:                                # %.lr.ph118
	#DEBUG_VALUE: decrypt_detached:m <- [DW_OP_plus_uconst 312] [$rsp+0]
	#DEBUG_VALUE: decrypt_detached:c <- [DW_OP_plus_uconst 136] [$rsp+0]
	#DEBUG_VALUE: decrypt_detached:clen <- [DW_OP_plus_uconst 376] [$rsp+0]
	#DEBUG_VALUE: decrypt_detached:mac <- [DW_OP_plus_uconst 368] [$rsp+0]
	#DEBUG_VALUE: decrypt_detached:maclen <- [DW_OP_plus_uconst 384] [$rsp+0]
	#DEBUG_VALUE: decrypt_detached:ad <- [DW_OP_plus_uconst 304] [$rsp+0]
	#DEBUG_VALUE: decrypt_detached:adlen <- [DW_OP_plus_uconst 16] [$rbp+0]
	#DEBUG_VALUE: decrypt_detached:npub <- [DW_OP_plus_uconst 24] [$rbp+0]
	#DEBUG_VALUE: decrypt_detached:k <- [DW_OP_plus_uconst 32] [$rbp+0]
	#DEBUG_VALUE: decrypt_detached:state <- [DW_OP_plus_uconst 144, DW_OP_deref] $rsp
	#DEBUG_VALUE: decrypt_detached:i <- $r9
	.loc	6 0 5                           # crypto_aead/aegis128l/aegis128l_common.h:0:5
	movq	144(%rsp), %rax
	movq	152(%rsp), %rsi
	movq	256(%rsp), %r10
	movq	264(%rsp), %rdi
	movq	240(%rsp), %rcx
	movq	%rcx, 32(%rsp)                  # 8-byte Spill
	movq	248(%rsp), %rcx
	movq	%rcx, 16(%rsp)                  # 8-byte Spill
	movq	224(%rsp), %rcx
	movq	%rcx, 280(%rsp)                 # 8-byte Spill
	movq	232(%rsp), %rcx
	movq	%rcx, 40(%rsp)                  # 8-byte Spill
	movq	208(%rsp), %rcx
	movq	%rcx, 24(%rsp)                  # 8-byte Spill
	movq	216(%rsp), %rbx
	movq	192(%rsp), %rcx
	movq	%rcx, 288(%rsp)                 # 8-byte Spill
	movq	200(%rsp), %rcx
	movq	%rcx, 296(%rsp)                 # 8-byte Spill
	movq	176(%rsp), %rcx
	movq	%rcx, 272(%rsp)                 # 8-byte Spill
	movq	184(%rsp), %rcx
	movq	%rcx, 48(%rsp)                  # 8-byte Spill
	movq	160(%rsp), %rcx
	movq	%rcx, 64(%rsp)                  # 8-byte Spill
	movq	168(%rsp), %rcx
	movq	%rcx, 56(%rsp)                  # 8-byte Spill
.Ltmp364:
	.p2align	4
.LBB1_7:                                # =>This Inner Loop Header: Depth=1
	#DEBUG_VALUE: decrypt_detached:m <- [DW_OP_plus_uconst 312] [$rsp+0]
	#DEBUG_VALUE: decrypt_detached:c <- [DW_OP_plus_uconst 136] [$rsp+0]
	#DEBUG_VALUE: decrypt_detached:clen <- [DW_OP_plus_uconst 376] [$rsp+0]
	#DEBUG_VALUE: decrypt_detached:mac <- [DW_OP_plus_uconst 368] [$rsp+0]
	#DEBUG_VALUE: decrypt_detached:maclen <- [DW_OP_plus_uconst 384] [$rsp+0]
	#DEBUG_VALUE: decrypt_detached:ad <- [DW_OP_plus_uconst 304] [$rsp+0]
	#DEBUG_VALUE: decrypt_detached:adlen <- [DW_OP_plus_uconst 16] [$rbp+0]
	#DEBUG_VALUE: decrypt_detached:npub <- [DW_OP_plus_uconst 24] [$rbp+0]
	#DEBUG_VALUE: decrypt_detached:k <- [DW_OP_plus_uconst 32] [$rbp+0]
	movq	%rsi, 328(%rsp)                 # 8-byte Spill
	movq	%rax, 336(%rsp)                 # 8-byte Spill
.Ltmp365:
	.loc	6 212 29 is_stmt 1              # crypto_aead/aegis128l/aegis128l_common.h:212:29
	movq	%r10, %rdx
	movq	%r10, 352(%rsp)                 # 8-byte Spill
	movq	%rdi, %rcx
	movq	%rdi, 360(%rsp)                 # 8-byte Spill
.Ltmp366:
	#DEBUG_VALUE: decrypt_detached:i <- $r9
	#DEBUG_VALUE: aegis128l_absorb:src <- [DW_OP_LLVM_arg 0, DW_OP_LLVM_arg 1, DW_OP_minus, DW_OP_consts 32, DW_OP_div, DW_OP_consts 32, DW_OP_mul, DW_OP_LLVM_arg 1, DW_OP_LLVM_arg 2, DW_OP_plus, DW_OP_plus, DW_OP_stack_value] undef, undef, undef
	#DEBUG_VALUE: aegis128l_absorb:state <- [DW_OP_plus_uconst 144, DW_OP_stack_value] $rsp
	#DEBUG_VALUE: softaes_block_load:in <- [DW_OP_LLVM_arg 0, DW_OP_LLVM_arg 1, DW_OP_minus, DW_OP_consts 32, DW_OP_div, DW_OP_consts 32, DW_OP_mul, DW_OP_LLVM_arg 1, DW_OP_LLVM_arg 2, DW_OP_plus, DW_OP_plus, DW_OP_stack_value] undef, undef, undef
	#DEBUG_VALUE: load32_le:w <- undef
	#DEBUG_VALUE: load32_le:src <- [DW_OP_LLVM_arg 0, DW_OP_LLVM_arg 1, DW_OP_minus, DW_OP_consts 32, DW_OP_div, DW_OP_consts 32, DW_OP_mul, DW_OP_LLVM_arg 1, DW_OP_LLVM_arg 2, DW_OP_plus, DW_OP_plus, DW_OP_stack_value] undef, undef, undef
	#DEBUG_VALUE: memcpy:__dest <- undef
	#DEBUG_VALUE: memcpy:__src <- [DW_OP_LLVM_arg 0, DW_OP_LLVM_arg 1, DW_OP_minus, DW_OP_consts 32, DW_OP_div, DW_OP_consts 32, DW_OP_mul, DW_OP_LLVM_arg 1, DW_OP_LLVM_arg 2, DW_OP_plus, DW_OP_plus, DW_OP_stack_value] undef, undef, undef
	#DEBUG_VALUE: memcpy:__len <- 4
	.loc	6 0 29 is_stmt 0                # crypto_aead/aegis128l/aegis128l_common.h:0:29
	movq	%r9, 120(%rsp)                  # 8-byte Spill
.Ltmp367:
	#DEBUG_VALUE: decrypt_detached:i <- [DW_OP_plus_uconst 120, DW_OP_deref] $rsp
	.loc	7 29 10 is_stmt 1               # /usr/include/x86_64-linux-gnu/bits/string_fortified.h:29:10 @[ ./include/sodium/private/common.h:106:5 @[ ./include/sodium/private/softaes.h:20:32 @[ crypto_aead/aegis128l/aegis128l_common.h:70:12 @[ crypto_aead/aegis128l/aegis128l_common.h:212:9 ] ] ] ]
	movq	(%r8,%r9), %rdi
.Ltmp368:
	#DEBUG_VALUE: softaes_block_load:out <- [DW_OP_LLVM_fragment 0 32] undef
	#DEBUG_VALUE: load32_le:w <- undef
	#DEBUG_VALUE: memcpy:__dest <- undef
	#DEBUG_VALUE: memcpy:__len <- 4
	#DEBUG_VALUE: softaes_block_load:out <- [DW_OP_LLVM_fragment 32 32] undef
	#DEBUG_VALUE: load32_le:w <- undef
	#DEBUG_VALUE: load32_le:src <- [DW_OP_LLVM_arg 0, DW_OP_LLVM_arg 1, DW_OP_minus, DW_OP_consts 32, DW_OP_div, DW_OP_consts 32, DW_OP_mul, DW_OP_consts 8, DW_OP_LLVM_arg 1, DW_OP_plus, DW_OP_LLVM_arg 2, DW_OP_plus, DW_OP_plus, DW_OP_stack_value] undef, undef, undef
	#DEBUG_VALUE: memcpy:__dest <- undef
	#DEBUG_VALUE: memcpy:__src <- [DW_OP_LLVM_arg 0, DW_OP_LLVM_arg 1, DW_OP_minus, DW_OP_consts 32, DW_OP_div, DW_OP_consts 32, DW_OP_mul, DW_OP_consts 8, DW_OP_LLVM_arg 1, DW_OP_plus, DW_OP_LLVM_arg 2, DW_OP_plus, DW_OP_plus, DW_OP_stack_value] undef, undef, undef
	#DEBUG_VALUE: memcpy:__len <- 4
	.loc	7 0 10 is_stmt 0                # /usr/include/x86_64-linux-gnu/bits/string_fortified.h:0:10
	movq	%rdi, 96(%rsp)                  # 8-byte Spill
.Ltmp369:
	.loc	7 29 10                         # /usr/include/x86_64-linux-gnu/bits/string_fortified.h:29:10 @[ ./include/sodium/private/common.h:106:5 @[ ./include/sodium/private/softaes.h:20:70 @[ crypto_aead/aegis128l/aegis128l_common.h:70:12 @[ crypto_aead/aegis128l/aegis128l_common.h:212:9 ] ] ] ]
	movq	8(%r8,%r9), %rdi
.Ltmp370:
	#DEBUG_VALUE: aegis128l_absorb:msg0 <- [DW_OP_LLVM_fragment 64 64] $rdi
	#DEBUG_VALUE: softaes_block_load:out <- [DW_OP_LLVM_fragment 64 32] undef
	#DEBUG_VALUE: load32_le:w <- undef
	#DEBUG_VALUE: memcpy:__dest <- undef
	#DEBUG_VALUE: memcpy:__len <- 4
	#DEBUG_VALUE: softaes_block_load:out <- [DW_OP_LLVM_fragment 96 32] undef
	#DEBUG_VALUE: aegis128l_absorb:msg0 <- [DW_OP_plus_uconst 96, DW_OP_deref, DW_OP_LLVM_fragment 0 64] $rsp
	#DEBUG_VALUE: softaes_block_load:in <- [DW_OP_LLVM_arg 0, DW_OP_LLVM_arg 1, DW_OP_minus, DW_OP_consts 32, DW_OP_div, DW_OP_consts 32, DW_OP_mul, DW_OP_consts 16, DW_OP_LLVM_arg 1, DW_OP_plus, DW_OP_LLVM_arg 2, DW_OP_plus, DW_OP_plus, DW_OP_stack_value] undef, undef, undef
	#DEBUG_VALUE: load32_le:w <- undef
	#DEBUG_VALUE: load32_le:src <- [DW_OP_LLVM_arg 0, DW_OP_LLVM_arg 1, DW_OP_minus, DW_OP_consts 32, DW_OP_div, DW_OP_consts 32, DW_OP_mul, DW_OP_consts 16, DW_OP_LLVM_arg 1, DW_OP_plus, DW_OP_LLVM_arg 2, DW_OP_plus, DW_OP_plus, DW_OP_stack_value] undef, undef, undef
	#DEBUG_VALUE: memcpy:__dest <- undef
	#DEBUG_VALUE: memcpy:__src <- [DW_OP_LLVM_arg 0, DW_OP_LLVM_arg 1, DW_OP_minus, DW_OP_consts 32, DW_OP_div, DW_OP_consts 32, DW_OP_mul, DW_OP_consts 16, DW_OP_LLVM_arg 1, DW_OP_plus, DW_OP_LLVM_arg 2, DW_OP_plus, DW_OP_plus, DW_OP_stack_value] undef, undef, undef
	#DEBUG_VALUE: memcpy:__len <- 4
	.loc	7 0 10                          # /usr/include/x86_64-linux-gnu/bits/string_fortified.h:0:10
	movq	%rdi, 104(%rsp)                 # 8-byte Spill
.Ltmp371:
	#DEBUG_VALUE: aegis128l_absorb:msg0 <- [DW_OP_plus_uconst 104, DW_OP_deref, DW_OP_LLVM_fragment 64 64] $rsp
	.loc	7 29 10                         # /usr/include/x86_64-linux-gnu/bits/string_fortified.h:29:10 @[ ./include/sodium/private/common.h:106:5 @[ ./include/sodium/private/softaes.h:20:32 @[ crypto_aead/aegis128l/aegis128l_common.h:71:12 @[ crypto_aead/aegis128l/aegis128l_common.h:212:9 ] ] ] ]
	movq	16(%r8,%r9), %rdi
.Ltmp372:
	#DEBUG_VALUE: softaes_block_load:out <- [DW_OP_LLVM_fragment 0 32] undef
	#DEBUG_VALUE: load32_le:w <- undef
	#DEBUG_VALUE: memcpy:__dest <- undef
	#DEBUG_VALUE: memcpy:__len <- 4
	#DEBUG_VALUE: softaes_block_load:out <- [DW_OP_LLVM_fragment 32 32] undef
	#DEBUG_VALUE: load32_le:w <- undef
	#DEBUG_VALUE: load32_le:src <- [DW_OP_LLVM_arg 0, DW_OP_LLVM_arg 1, DW_OP_minus, DW_OP_consts 32, DW_OP_div, DW_OP_consts 32, DW_OP_mul, DW_OP_consts 24, DW_OP_LLVM_arg 1, DW_OP_plus, DW_OP_LLVM_arg 2, DW_OP_plus, DW_OP_plus, DW_OP_stack_value] undef, undef, undef
	#DEBUG_VALUE: memcpy:__dest <- undef
	#DEBUG_VALUE: memcpy:__src <- [DW_OP_LLVM_arg 0, DW_OP_LLVM_arg 1, DW_OP_minus, DW_OP_consts 32, DW_OP_div, DW_OP_consts 32, DW_OP_mul, DW_OP_consts 24, DW_OP_LLVM_arg 1, DW_OP_plus, DW_OP_LLVM_arg 2, DW_OP_plus, DW_OP_plus, DW_OP_stack_value] undef, undef, undef
	#DEBUG_VALUE: memcpy:__len <- 4
	.loc	7 0 10                          # /usr/include/x86_64-linux-gnu/bits/string_fortified.h:0:10
	movq	%rdi, 112(%rsp)                 # 8-byte Spill
.Ltmp373:
	.loc	7 29 10                         # /usr/include/x86_64-linux-gnu/bits/string_fortified.h:29:10 @[ ./include/sodium/private/common.h:106:5 @[ ./include/sodium/private/softaes.h:20:70 @[ crypto_aead/aegis128l/aegis128l_common.h:71:12 @[ crypto_aead/aegis128l/aegis128l_common.h:212:9 ] ] ] ]
	movq	24(%r8,%r9), %rdi
.Ltmp374:
	#DEBUG_VALUE: aegis128l_absorb:msg1 <- [DW_OP_LLVM_fragment 64 64] $rdi
	#DEBUG_VALUE: aegis128l_update:d2 <- [DW_OP_LLVM_fragment 64 64] $rdi
	#DEBUG_VALUE: softaes_block_load:out <- [DW_OP_LLVM_fragment 64 32] undef
	#DEBUG_VALUE: load32_le:w <- undef
	#DEBUG_VALUE: memcpy:__dest <- undef
	#DEBUG_VALUE: memcpy:__len <- 4
	#DEBUG_VALUE: softaes_block_load:out <- [DW_OP_LLVM_fragment 96 32] undef
	#DEBUG_VALUE: aegis128l_absorb:msg1 <- [DW_OP_plus_uconst 112, DW_OP_deref, DW_OP_LLVM_fragment 0 64] $rsp
	#DEBUG_VALUE: aegis128l_update:d1 <- [DW_OP_plus_uconst 96, DW_OP_deref, DW_OP_LLVM_fragment 0 64] $rsp
	#DEBUG_VALUE: aegis128l_update:d1 <- [DW_OP_plus_uconst 104, DW_OP_deref, DW_OP_LLVM_fragment 64 64] $rsp
	#DEBUG_VALUE: aegis128l_update:d2 <- [DW_OP_plus_uconst 112, DW_OP_deref, DW_OP_LLVM_fragment 0 64] $rsp
	#DEBUG_VALUE: aegis128l_update:state <- [DW_OP_plus_uconst 144, DW_OP_stack_value] $rsp
	#DEBUG_VALUE: aegis128l_update:tmp <- [DW_OP_plus_uconst 352, DW_OP_deref, DW_OP_LLVM_fragment 0 64] $rsp
	#DEBUG_VALUE: aegis128l_update:tmp <- [DW_OP_plus_uconst 360, DW_OP_deref, DW_OP_LLVM_fragment 64 64] $rsp
	.loc	7 0 10                          # /usr/include/x86_64-linux-gnu/bits/string_fortified.h:0:10
	movq	%rdi, 128(%rsp)                 # 8-byte Spill
.Ltmp375:
	#DEBUG_VALUE: aegis128l_update:d2 <- [DW_OP_plus_uconst 128, DW_OP_deref, DW_OP_LLVM_fragment 64 64] $rsp
	#DEBUG_VALUE: aegis128l_absorb:msg1 <- [DW_OP_plus_uconst 128, DW_OP_deref, DW_OP_LLVM_fragment 64 64] $rsp
	movq	32(%rsp), %r12                  # 8-byte Reload
.Ltmp376:
	.loc	5 39 16 is_stmt 1               # crypto_aead/aegis128l/aegis128l_soft.c:39:16 @[ crypto_aead/aegis128l/aegis128l_common.h:72:5 @[ crypto_aead/aegis128l/aegis128l_common.h:212:9 ] ]
	movq	%r12, %rdi
	movq	16(%rsp), %r14                  # 8-byte Reload
	movq	%r14, %rsi
	callq	softaes_block_encrypt@PLT
.Ltmp377:
	.loc	5 0 16 is_stmt 0                # crypto_aead/aegis128l/aegis128l_soft.c:0:16
	movq	%rax, 88(%rsp)                  # 8-byte Spill
.Ltmp378:
	#DEBUG_VALUE: decrypt_detached:state <- [DW_OP_plus_uconst 88, DW_OP_deref, DW_OP_LLVM_fragment 896 64] $rsp
	movq	%rdx, 344(%rsp)                 # 8-byte Spill
.Ltmp379:
	#DEBUG_VALUE: decrypt_detached:state <- [DW_OP_plus_uconst 344, DW_OP_deref, DW_OP_LLVM_fragment 960 64] $rsp
	movq	280(%rsp), %r13                 # 8-byte Reload
	.loc	5 40 16 is_stmt 1               # crypto_aead/aegis128l/aegis128l_soft.c:40:16 @[ crypto_aead/aegis128l/aegis128l_common.h:72:5 @[ crypto_aead/aegis128l/aegis128l_common.h:212:9 ] ]
	movq	%r13, %rdi
	movq	40(%rsp), %r15                  # 8-byte Reload
	movq	%r15, %rsi
	movq	%r12, %rdx
	movq	%r14, %rcx
	callq	softaes_block_encrypt@PLT
.Ltmp380:
	.loc	5 0 16 is_stmt 0                # crypto_aead/aegis128l/aegis128l_soft.c:0:16
	movq	%rax, 32(%rsp)                  # 8-byte Spill
.Ltmp381:
	#DEBUG_VALUE: decrypt_detached:state <- [DW_OP_plus_uconst 32, DW_OP_deref, DW_OP_LLVM_fragment 768 64] $rsp
	movq	%rdx, 16(%rsp)                  # 8-byte Spill
.Ltmp382:
	#DEBUG_VALUE: decrypt_detached:state <- [DW_OP_plus_uconst 16, DW_OP_deref, DW_OP_LLVM_fragment 832 64] $rsp
	movq	24(%rsp), %r12                  # 8-byte Reload
	.loc	5 41 16 is_stmt 1               # crypto_aead/aegis128l/aegis128l_soft.c:41:16 @[ crypto_aead/aegis128l/aegis128l_common.h:72:5 @[ crypto_aead/aegis128l/aegis128l_common.h:212:9 ] ]
	movq	%r12, %rdi
	movq	%rbx, %rsi
	movq	%r13, %rdx
	movq	%r15, %rcx
	callq	softaes_block_encrypt@PLT
.Ltmp383:
	.loc	5 0 16 is_stmt 0                # crypto_aead/aegis128l/aegis128l_soft.c:0:16
	movq	%rax, 280(%rsp)                 # 8-byte Spill
.Ltmp384:
	#DEBUG_VALUE: decrypt_detached:state <- [DW_OP_plus_uconst 280, DW_OP_deref, DW_OP_LLVM_fragment 640 64] $rsp
	movq	%rdx, 40(%rsp)                  # 8-byte Spill
.Ltmp385:
	#DEBUG_VALUE: decrypt_detached:state <- [DW_OP_plus_uconst 40, DW_OP_deref, DW_OP_LLVM_fragment 704 64] $rsp
	movq	%rbx, %rcx
	movq	288(%rsp), %rbx                 # 8-byte Reload
	.loc	5 42 16 is_stmt 1               # crypto_aead/aegis128l/aegis128l_soft.c:42:16 @[ crypto_aead/aegis128l/aegis128l_common.h:72:5 @[ crypto_aead/aegis128l/aegis128l_common.h:212:9 ] ]
	movq	%rbx, %rdi
	movq	296(%rsp), %r14                 # 8-byte Reload
	movq	%r14, %rsi
	movq	%r12, %rdx
	callq	softaes_block_encrypt@PLT
.Ltmp386:
	movq	%rax, %r15
.Ltmp387:
	#DEBUG_VALUE: decrypt_detached:state <- [DW_OP_LLVM_fragment 512 64] $r15
	#DEBUG_VALUE: softaes_block_xor:a <- [DW_OP_LLVM_convert 64 7, DW_OP_LLVM_convert 32 7, DW_OP_stack_value, DW_OP_LLVM_fragment 0 32] $r15
	#DEBUG_VALUE: softaes_block_xor:a <- [DW_OP_constu 32, DW_OP_shr, DW_OP_LLVM_convert 64 7, DW_OP_LLVM_convert 32 7, DW_OP_stack_value, DW_OP_LLVM_fragment 32 32] $r15
	movq	%rdx, %rax
.Ltmp388:
	#DEBUG_VALUE: decrypt_detached:state <- [DW_OP_LLVM_fragment 576 64] $rdx
	#DEBUG_VALUE: softaes_block_xor:a <- [DW_OP_LLVM_convert 64 7, DW_OP_LLVM_convert 32 7, DW_OP_stack_value, DW_OP_LLVM_fragment 64 32] $rdx
	#DEBUG_VALUE: softaes_block_xor:a <- [DW_OP_constu 32, DW_OP_shr, DW_OP_LLVM_convert 64 7, DW_OP_LLVM_convert 32 7, DW_OP_stack_value, DW_OP_LLVM_fragment 96 32] $rdx
	.loc	5 0 16 is_stmt 0                # crypto_aead/aegis128l/aegis128l_soft.c:0:16
	movq	272(%rsp), %r12                 # 8-byte Reload
	.loc	5 43 16 is_stmt 1               # crypto_aead/aegis128l/aegis128l_soft.c:43:16 @[ crypto_aead/aegis128l/aegis128l_common.h:72:5 @[ crypto_aead/aegis128l/aegis128l_common.h:212:9 ] ]
	movq	%r12, %rdi
	movq	48(%rsp), %r13                  # 8-byte Reload
	movq	%r13, %rsi
	movq	%rbx, %rdx
.Ltmp389:
	#DEBUG_VALUE: softaes_block_xor:a <- [DW_OP_constu 32, DW_OP_shr, DW_OP_LLVM_convert 64 7, DW_OP_LLVM_convert 32 7, DW_OP_stack_value, DW_OP_LLVM_fragment 96 32] $rax
	#DEBUG_VALUE: softaes_block_xor:a <- [DW_OP_LLVM_convert 64 7, DW_OP_LLVM_convert 32 7, DW_OP_stack_value, DW_OP_LLVM_fragment 64 32] $rax
	#DEBUG_VALUE: decrypt_detached:state <- [DW_OP_LLVM_fragment 576 64] $rax
	.loc	5 0 16 is_stmt 0                # crypto_aead/aegis128l/aegis128l_soft.c:0:16
	movq	%rax, %rbx
.Ltmp390:
	#DEBUG_VALUE: softaes_block_xor:a <- [DW_OP_constu 32, DW_OP_shr, DW_OP_LLVM_convert 64 7, DW_OP_LLVM_convert 32 7, DW_OP_stack_value, DW_OP_LLVM_fragment 96 32] $rbx
	#DEBUG_VALUE: softaes_block_xor:a <- [DW_OP_LLVM_convert 64 7, DW_OP_LLVM_convert 32 7, DW_OP_stack_value, DW_OP_LLVM_fragment 64 32] $rbx
	#DEBUG_VALUE: decrypt_detached:state <- [DW_OP_LLVM_fragment 576 64] $rbx
	.loc	5 43 16                         # crypto_aead/aegis128l/aegis128l_soft.c:43:16 @[ crypto_aead/aegis128l/aegis128l_common.h:72:5 @[ crypto_aead/aegis128l/aegis128l_common.h:212:9 ] ]
	movq	%r14, %rcx
	callq	softaes_block_encrypt@PLT
.Ltmp391:
	.loc	5 0 16                          # crypto_aead/aegis128l/aegis128l_soft.c:0:16
	movq	%rax, 288(%rsp)                 # 8-byte Spill
.Ltmp392:
	#DEBUG_VALUE: decrypt_detached:state <- [DW_OP_plus_uconst 288, DW_OP_deref, DW_OP_LLVM_fragment 384 64] $rsp
	movq	%rdx, 296(%rsp)                 # 8-byte Spill
.Ltmp393:
	#DEBUG_VALUE: decrypt_detached:state <- [DW_OP_plus_uconst 296, DW_OP_deref, DW_OP_LLVM_fragment 448 64] $rsp
	movq	64(%rsp), %rdi                  # 8-byte Reload
	movq	56(%rsp), %r14                  # 8-byte Reload
	.loc	5 44 16 is_stmt 1               # crypto_aead/aegis128l/aegis128l_soft.c:44:16 @[ crypto_aead/aegis128l/aegis128l_common.h:72:5 @[ crypto_aead/aegis128l/aegis128l_common.h:212:9 ] ]
	movq	%r14, %rsi
	movq	%r12, %rdx
	movq	%r13, %rcx
	callq	softaes_block_encrypt@PLT
.Ltmp394:
	.loc	5 0 16 is_stmt 0                # crypto_aead/aegis128l/aegis128l_soft.c:0:16
	movq	%rax, 272(%rsp)                 # 8-byte Spill
.Ltmp395:
	#DEBUG_VALUE: decrypt_detached:state <- [DW_OP_plus_uconst 272, DW_OP_deref, DW_OP_LLVM_fragment 256 64] $rsp
	movq	%rdx, 48(%rsp)                  # 8-byte Spill
.Ltmp396:
	#DEBUG_VALUE: decrypt_detached:state <- [DW_OP_plus_uconst 48, DW_OP_deref, DW_OP_LLVM_fragment 320 64] $rsp
	movq	336(%rsp), %r12                 # 8-byte Reload
	.loc	5 45 16 is_stmt 1               # crypto_aead/aegis128l/aegis128l_soft.c:45:16 @[ crypto_aead/aegis128l/aegis128l_common.h:72:5 @[ crypto_aead/aegis128l/aegis128l_common.h:212:9 ] ]
	movq	%r12, %rdi
	movq	328(%rsp), %r13                 # 8-byte Reload
	movq	%r13, %rsi
	movq	64(%rsp), %rdx                  # 8-byte Reload
	movq	%r14, %rcx
	callq	softaes_block_encrypt@PLT
.Ltmp397:
	.loc	5 0 16 is_stmt 0                # crypto_aead/aegis128l/aegis128l_soft.c:0:16
	movq	%rax, 64(%rsp)                  # 8-byte Spill
.Ltmp398:
	#DEBUG_VALUE: decrypt_detached:state <- [DW_OP_plus_uconst 64, DW_OP_deref, DW_OP_LLVM_fragment 128 64] $rsp
	movq	%rdx, 56(%rsp)                  # 8-byte Spill
.Ltmp399:
	#DEBUG_VALUE: decrypt_detached:state <- [DW_OP_plus_uconst 56, DW_OP_deref, DW_OP_LLVM_fragment 192 64] $rsp
	movq	352(%rsp), %rdi                 # 8-byte Reload
	movq	360(%rsp), %rsi                 # 8-byte Reload
	.loc	5 46 16 is_stmt 1               # crypto_aead/aegis128l/aegis128l_soft.c:46:16 @[ crypto_aead/aegis128l/aegis128l_common.h:72:5 @[ crypto_aead/aegis128l/aegis128l_common.h:212:9 ] ]
	movq	%r12, %rdx
	movq	%r13, %rcx
	callq	softaes_block_encrypt@PLT
.Ltmp400:
	.loc	5 0 16 is_stmt 0                # crypto_aead/aegis128l/aegis128l_soft.c:0:16
	movq	88(%rsp), %r10                  # 8-byte Reload
	movq	344(%rsp), %rdi                 # 8-byte Reload
	movq	304(%rsp), %r8                  # 8-byte Reload
.Ltmp401:
	#DEBUG_VALUE: softaes_block_xor:a <- [DW_OP_LLVM_convert 64 7, DW_OP_LLVM_convert 32 7, DW_OP_stack_value, DW_OP_LLVM_fragment 0 32] $rax
	#DEBUG_VALUE: softaes_block_xor:a <- [DW_OP_constu 32, DW_OP_shr, DW_OP_LLVM_convert 64 7, DW_OP_LLVM_convert 32 7, DW_OP_stack_value, DW_OP_LLVM_fragment 32 32] $rax
	.loc	5 46 16                         # crypto_aead/aegis128l/aegis128l_soft.c:46:16 @[ crypto_aead/aegis128l/aegis128l_common.h:72:5 @[ crypto_aead/aegis128l/aegis128l_common.h:212:9 ] ]
	movq	%rdx, %rsi
.Ltmp402:
	#DEBUG_VALUE: softaes_block_xor:a <- [DW_OP_LLVM_convert 64 7, DW_OP_LLVM_convert 32 7, DW_OP_stack_value, DW_OP_LLVM_fragment 64 32] $rsi
	#DEBUG_VALUE: softaes_block_xor:a <- [DW_OP_constu 32, DW_OP_shr, DW_OP_LLVM_convert 64 7, DW_OP_LLVM_convert 32 7, DW_OP_stack_value, DW_OP_LLVM_fragment 96 32] $rsi
	#DEBUG_VALUE: softaes_block_xor:b <- [DW_OP_plus_uconst 96, DW_OP_deref_size 8, DW_OP_LLVM_convert 64 7, DW_OP_LLVM_convert 32 7, DW_OP_stack_value, DW_OP_LLVM_fragment 0 32] $rsp
	#DEBUG_VALUE: softaes_block_xor:b <- [DW_OP_plus_uconst 96, DW_OP_deref_size 8, DW_OP_constu 32, DW_OP_shr, DW_OP_LLVM_convert 64 7, DW_OP_LLVM_convert 32 7, DW_OP_stack_value, DW_OP_LLVM_fragment 32 32] $rsp
	#DEBUG_VALUE: softaes_block_xor:b <- [DW_OP_plus_uconst 104, DW_OP_deref_size 8, DW_OP_LLVM_convert 64 7, DW_OP_LLVM_convert 32 7, DW_OP_stack_value, DW_OP_LLVM_fragment 64 32] $rsp
	#DEBUG_VALUE: softaes_block_xor:b <- [DW_OP_plus_uconst 104, DW_OP_deref_size 8, DW_OP_constu 32, DW_OP_shr, DW_OP_LLVM_convert 64 7, DW_OP_LLVM_convert 32 7, DW_OP_stack_value, DW_OP_LLVM_fragment 96 32] $rsp
	.loc	5 0 16                          # crypto_aead/aegis128l/aegis128l_soft.c:0:16
	movq	16(%rbp), %rdx
.Ltmp403:
	.loc	8 45 37 is_stmt 1               # ./include/sodium/private/softaes.h:45:37 @[ crypto_aead/aegis128l/aegis128l_soft.c:48:16 @[ crypto_aead/aegis128l/aegis128l_common.h:72:5 @[ crypto_aead/aegis128l/aegis128l_common.h:212:9 ] ] ]
	xorq	96(%rsp), %rax                  # 8-byte Folded Reload
.Ltmp404:
	#DEBUG_VALUE: softaes_block_xor:out <- [DW_OP_LLVM_convert 64 7, DW_OP_LLVM_convert 32 7, DW_OP_stack_value, DW_OP_LLVM_fragment 0 32] $rax
	#DEBUG_VALUE: softaes_block_xor:out <- [DW_OP_constu 32, DW_OP_shr, DW_OP_LLVM_convert 64 7, DW_OP_LLVM_convert 32 7, DW_OP_stack_value, DW_OP_LLVM_fragment 32 32] $rax
	.loc	8 45 63 is_stmt 0               # ./include/sodium/private/softaes.h:45:63 @[ crypto_aead/aegis128l/aegis128l_soft.c:48:16 @[ crypto_aead/aegis128l/aegis128l_common.h:72:5 @[ crypto_aead/aegis128l/aegis128l_common.h:212:9 ] ] ]
	xorq	104(%rsp), %rsi                 # 8-byte Folded Reload
.Ltmp405:
	#DEBUG_VALUE: softaes_block_xor:out <- [DW_OP_LLVM_convert 64 7, DW_OP_LLVM_convert 32 7, DW_OP_stack_value, DW_OP_LLVM_fragment 64 32] $rsi
	#DEBUG_VALUE: softaes_block_xor:out <- [DW_OP_constu 32, DW_OP_shr, DW_OP_LLVM_convert 64 7, DW_OP_LLVM_convert 32 7, DW_OP_stack_value, DW_OP_LLVM_fragment 96 32] $rsi
	#DEBUG_VALUE: decrypt_detached:state <- [DW_OP_LLVM_fragment 64 64] $rsi
	#DEBUG_VALUE: decrypt_detached:state <- [DW_OP_LLVM_fragment 0 64] $rax
	#DEBUG_VALUE: softaes_block_xor:b <- [DW_OP_plus_uconst 112, DW_OP_deref_size 8, DW_OP_LLVM_convert 64 7, DW_OP_LLVM_convert 32 7, DW_OP_stack_value, DW_OP_LLVM_fragment 0 32] $rsp
	#DEBUG_VALUE: softaes_block_xor:b <- [DW_OP_plus_uconst 112, DW_OP_deref_size 8, DW_OP_constu 32, DW_OP_shr, DW_OP_LLVM_convert 64 7, DW_OP_LLVM_convert 32 7, DW_OP_stack_value, DW_OP_LLVM_fragment 32 32] $rsp
	#DEBUG_VALUE: softaes_block_xor:b <- [DW_OP_plus_uconst 128, DW_OP_deref_size 8, DW_OP_LLVM_convert 64 7, DW_OP_LLVM_convert 32 7, DW_OP_stack_value, DW_OP_LLVM_fragment 64 32] $rsp
	#DEBUG_VALUE: softaes_block_xor:b <- [DW_OP_plus_uconst 128, DW_OP_deref_size 8, DW_OP_constu 32, DW_OP_shr, DW_OP_LLVM_convert 64 7, DW_OP_LLVM_convert 32 7, DW_OP_stack_value, DW_OP_LLVM_fragment 96 32] $rsp
	.loc	8 45 37                         # ./include/sodium/private/softaes.h:45:37 @[ crypto_aead/aegis128l/aegis128l_soft.c:49:16 @[ crypto_aead/aegis128l/aegis128l_common.h:72:5 @[ crypto_aead/aegis128l/aegis128l_common.h:212:9 ] ] ]
	xorq	112(%rsp), %r15                 # 8-byte Folded Reload
.Ltmp406:
	#DEBUG_VALUE: softaes_block_xor:out <- [DW_OP_LLVM_convert 64 7, DW_OP_LLVM_convert 32 7, DW_OP_stack_value, DW_OP_LLVM_fragment 0 32] $r15
	#DEBUG_VALUE: softaes_block_xor:out <- [DW_OP_constu 32, DW_OP_shr, DW_OP_LLVM_convert 64 7, DW_OP_LLVM_convert 32 7, DW_OP_stack_value, DW_OP_LLVM_fragment 32 32] $r15
	.loc	8 0 37                          # ./include/sodium/private/softaes.h:0:37
	movq	%r15, 24(%rsp)                  # 8-byte Spill
.Ltmp407:
	#DEBUG_VALUE: softaes_block_xor:out <- [DW_OP_plus_uconst 24, DW_OP_deref_size 8, DW_OP_constu 32, DW_OP_shr, DW_OP_LLVM_convert 64 7, DW_OP_LLVM_convert 32 7, DW_OP_stack_value, DW_OP_LLVM_fragment 32 32] $rsp
	#DEBUG_VALUE: softaes_block_xor:out <- [DW_OP_plus_uconst 24, DW_OP_deref_size 8, DW_OP_LLVM_convert 64 7, DW_OP_LLVM_convert 32 7, DW_OP_stack_value, DW_OP_LLVM_fragment 0 32] $rsp
	.loc	8 45 63                         # ./include/sodium/private/softaes.h:45:63 @[ crypto_aead/aegis128l/aegis128l_soft.c:49:16 @[ crypto_aead/aegis128l/aegis128l_common.h:72:5 @[ crypto_aead/aegis128l/aegis128l_common.h:212:9 ] ] ]
	xorq	128(%rsp), %rbx                 # 8-byte Folded Reload
.Ltmp408:
	#DEBUG_VALUE: softaes_block_xor:out <- [DW_OP_LLVM_convert 64 7, DW_OP_LLVM_convert 32 7, DW_OP_stack_value, DW_OP_LLVM_fragment 64 32] $rbx
	#DEBUG_VALUE: softaes_block_xor:out <- [DW_OP_constu 32, DW_OP_shr, DW_OP_LLVM_convert 64 7, DW_OP_LLVM_convert 32 7, DW_OP_stack_value, DW_OP_LLVM_fragment 96 32] $rbx
	#DEBUG_VALUE: decrypt_detached:state <- [DW_OP_LLVM_fragment 576 64] $rbx
	#DEBUG_VALUE: decrypt_detached:state <- [DW_OP_plus_uconst 24, DW_OP_deref, DW_OP_LLVM_fragment 512 64] $rsp
	#DEBUG_VALUE: decrypt_detached:i <- [DW_OP_plus_uconst 120, DW_OP_deref, DW_OP_plus_uconst 32, DW_OP_stack_value] $rsp
	.loc	8 0 63                          # ./include/sodium/private/softaes.h:0:63
	movq	120(%rsp), %rcx                 # 8-byte Reload
.Ltmp409:
	.loc	6 211 19 is_stmt 1              # crypto_aead/aegis128l/aegis128l_common.h:211:19
	leaq	32(%rcx), %r9
	addq	$64, %rcx
	cmpq	%rdx, %rcx
.Ltmp410:
	.loc	6 211 5 is_stmt 0               # crypto_aead/aegis128l/aegis128l_common.h:211:5
	jbe	.LBB1_7
.Ltmp411:
# %bb.8:                                # %._crit_edge
	#DEBUG_VALUE: decrypt_detached:m <- [DW_OP_plus_uconst 312] [$rsp+0]
	#DEBUG_VALUE: decrypt_detached:c <- [DW_OP_plus_uconst 136] [$rsp+0]
	#DEBUG_VALUE: decrypt_detached:clen <- [DW_OP_plus_uconst 376] [$rsp+0]
	#DEBUG_VALUE: decrypt_detached:mac <- [DW_OP_plus_uconst 368] [$rsp+0]
	#DEBUG_VALUE: decrypt_detached:maclen <- [DW_OP_plus_uconst 384] [$rsp+0]
	#DEBUG_VALUE: decrypt_detached:ad <- [DW_OP_plus_uconst 304] [$rsp+0]
	#DEBUG_VALUE: decrypt_detached:adlen <- [DW_OP_plus_uconst 16] [$rbp+0]
	#DEBUG_VALUE: decrypt_detached:npub <- [DW_OP_plus_uconst 24] [$rbp+0]
	#DEBUG_VALUE: decrypt_detached:k <- [DW_OP_plus_uconst 32] [$rbp+0]
	#DEBUG_VALUE: decrypt_detached:state <- [DW_OP_plus_uconst 88, DW_OP_deref, DW_OP_LLVM_fragment 896 64] $rsp
	#DEBUG_VALUE: decrypt_detached:state <- [DW_OP_plus_uconst 344, DW_OP_deref, DW_OP_LLVM_fragment 960 64] $rsp
	#DEBUG_VALUE: decrypt_detached:state <- [DW_OP_plus_uconst 32, DW_OP_deref, DW_OP_LLVM_fragment 768 64] $rsp
	#DEBUG_VALUE: decrypt_detached:state <- [DW_OP_plus_uconst 16, DW_OP_deref, DW_OP_LLVM_fragment 832 64] $rsp
	#DEBUG_VALUE: decrypt_detached:state <- [DW_OP_plus_uconst 280, DW_OP_deref, DW_OP_LLVM_fragment 640 64] $rsp
	#DEBUG_VALUE: decrypt_detached:state <- [DW_OP_plus_uconst 40, DW_OP_deref, DW_OP_LLVM_fragment 704 64] $rsp
	#DEBUG_VALUE: decrypt_detached:state <- [DW_OP_plus_uconst 24, DW_OP_deref, DW_OP_LLVM_fragment 512 64] $rsp
	#DEBUG_VALUE: decrypt_detached:state <- [DW_OP_LLVM_fragment 576 64] $rbx
	#DEBUG_VALUE: decrypt_detached:state <- [DW_OP_plus_uconst 288, DW_OP_deref, DW_OP_LLVM_fragment 384 64] $rsp
	#DEBUG_VALUE: decrypt_detached:state <- [DW_OP_plus_uconst 296, DW_OP_deref, DW_OP_LLVM_fragment 448 64] $rsp
	#DEBUG_VALUE: decrypt_detached:state <- [DW_OP_plus_uconst 272, DW_OP_deref, DW_OP_LLVM_fragment 256 64] $rsp
	#DEBUG_VALUE: decrypt_detached:state <- [DW_OP_plus_uconst 48, DW_OP_deref, DW_OP_LLVM_fragment 320 64] $rsp
	#DEBUG_VALUE: decrypt_detached:state <- [DW_OP_plus_uconst 64, DW_OP_deref, DW_OP_LLVM_fragment 128 64] $rsp
	#DEBUG_VALUE: decrypt_detached:state <- [DW_OP_plus_uconst 56, DW_OP_deref, DW_OP_LLVM_fragment 192 64] $rsp
	#DEBUG_VALUE: decrypt_detached:state <- [DW_OP_LLVM_fragment 64 64] $rsi
	#DEBUG_VALUE: decrypt_detached:state <- [DW_OP_LLVM_fragment 0 64] $rax
	#DEBUG_VALUE: decrypt_detached:i <- [DW_OP_plus_uconst 120, DW_OP_deref, DW_OP_plus_uconst 32, DW_OP_stack_value] $rsp
	#DEBUG_VALUE: aegis128l_absorb:state <- [DW_OP_plus_uconst 144, DW_OP_stack_value] $rsp
	#DEBUG_VALUE: aegis128l_absorb:msg0 <- [DW_OP_plus_uconst 104, DW_OP_deref, DW_OP_LLVM_fragment 64 64] $rsp
	#DEBUG_VALUE: aegis128l_absorb:msg0 <- [DW_OP_plus_uconst 96, DW_OP_deref, DW_OP_LLVM_fragment 0 64] $rsp
	#DEBUG_VALUE: aegis128l_absorb:msg1 <- [DW_OP_plus_uconst 128, DW_OP_deref, DW_OP_LLVM_fragment 64 64] $rsp
	#DEBUG_VALUE: aegis128l_update:d2 <- [DW_OP_plus_uconst 128, DW_OP_deref, DW_OP_LLVM_fragment 64 64] $rsp
	#DEBUG_VALUE: aegis128l_absorb:msg1 <- [DW_OP_plus_uconst 112, DW_OP_deref, DW_OP_LLVM_fragment 0 64] $rsp
	#DEBUG_VALUE: aegis128l_update:d1 <- [DW_OP_plus_uconst 96, DW_OP_deref, DW_OP_LLVM_fragment 0 64] $rsp
	#DEBUG_VALUE: aegis128l_update:d1 <- [DW_OP_plus_uconst 104, DW_OP_deref, DW_OP_LLVM_fragment 64 64] $rsp
	#DEBUG_VALUE: aegis128l_update:d2 <- [DW_OP_plus_uconst 112, DW_OP_deref, DW_OP_LLVM_fragment 0 64] $rsp
	#DEBUG_VALUE: aegis128l_update:state <- [DW_OP_plus_uconst 144, DW_OP_stack_value] $rsp
	#DEBUG_VALUE: aegis128l_update:tmp <- [DW_OP_plus_uconst 352, DW_OP_deref, DW_OP_LLVM_fragment 0 64] $rsp
	#DEBUG_VALUE: aegis128l_update:tmp <- [DW_OP_plus_uconst 360, DW_OP_deref, DW_OP_LLVM_fragment 64 64] $rsp
	.loc	5 0 0                           # crypto_aead/aegis128l/aegis128l_soft.c:0 @[ crypto_aead/aegis128l/aegis128l_common.h:72:5 @[ crypto_aead/aegis128l/aegis128l_common.h:212:9 ] ]
	movq	%r10, 256(%rsp)
.Ltmp412:
	#DEBUG_VALUE: decrypt_detached:state <- [DW_OP_plus_uconst 144, DW_OP_plus_uconst 112, DW_OP_deref, DW_OP_LLVM_fragment 896 64] $rsp
	movq	%rdi, 264(%rsp)
.Ltmp413:
	#DEBUG_VALUE: decrypt_detached:state <- [DW_OP_plus_uconst 144, DW_OP_plus_uconst 112, DW_OP_deref, DW_OP_LLVM_fragment 896 128] $rsp
	movq	32(%rsp), %rcx                  # 8-byte Reload
	movq	%rcx, 240(%rsp)
.Ltmp414:
	#DEBUG_VALUE: decrypt_detached:state <- [DW_OP_plus_uconst 144, DW_OP_plus_uconst 96, DW_OP_deref, DW_OP_LLVM_fragment 768 64] $rsp
	movq	16(%rsp), %rcx                  # 8-byte Reload
	movq	%rcx, 248(%rsp)
.Ltmp415:
	#DEBUG_VALUE: decrypt_detached:state <- [DW_OP_plus_uconst 144, DW_OP_plus_uconst 96, DW_OP_deref, DW_OP_LLVM_fragment 768 256] $rsp
	movq	280(%rsp), %rcx                 # 8-byte Reload
	movq	%rcx, 224(%rsp)
.Ltmp416:
	#DEBUG_VALUE: decrypt_detached:state <- [DW_OP_plus_uconst 144, DW_OP_plus_uconst 80, DW_OP_deref, DW_OP_LLVM_fragment 640 64] $rsp
	movq	40(%rsp), %rcx                  # 8-byte Reload
	movq	%rcx, 232(%rsp)
.Ltmp417:
	#DEBUG_VALUE: decrypt_detached:state <- [DW_OP_plus_uconst 144, DW_OP_plus_uconst 80, DW_OP_deref, DW_OP_LLVM_fragment 640 384] $rsp
	movq	24(%rsp), %rcx                  # 8-byte Reload
	movq	%rcx, 208(%rsp)
.Ltmp418:
	#DEBUG_VALUE: decrypt_detached:state <- [DW_OP_plus_uconst 144, DW_OP_plus_uconst 64, DW_OP_deref, DW_OP_LLVM_fragment 512 64] $rsp
	movq	%rbx, 216(%rsp)
.Ltmp419:
	#DEBUG_VALUE: decrypt_detached:state <- [DW_OP_plus_uconst 144, DW_OP_plus_uconst 64, DW_OP_deref, DW_OP_LLVM_fragment 512 512] $rsp
	movq	288(%rsp), %rcx                 # 8-byte Reload
	movq	%rcx, 192(%rsp)
.Ltmp420:
	#DEBUG_VALUE: decrypt_detached:state <- [DW_OP_plus_uconst 144, DW_OP_plus_uconst 48, DW_OP_deref, DW_OP_LLVM_fragment 384 64] $rsp
	movq	296(%rsp), %rcx                 # 8-byte Reload
	movq	%rcx, 200(%rsp)
.Ltmp421:
	#DEBUG_VALUE: decrypt_detached:state <- [DW_OP_plus_uconst 144, DW_OP_plus_uconst 48, DW_OP_deref, DW_OP_LLVM_fragment 384 640] $rsp
	movq	272(%rsp), %rcx                 # 8-byte Reload
	movq	%rcx, 176(%rsp)
.Ltmp422:
	#DEBUG_VALUE: decrypt_detached:state <- [DW_OP_plus_uconst 144, DW_OP_plus_uconst 32, DW_OP_deref, DW_OP_LLVM_fragment 256 64] $rsp
	movq	48(%rsp), %rcx                  # 8-byte Reload
	movq	%rcx, 184(%rsp)
.Ltmp423:
	#DEBUG_VALUE: decrypt_detached:state <- [DW_OP_plus_uconst 144, DW_OP_plus_uconst 32, DW_OP_deref, DW_OP_LLVM_fragment 256 768] $rsp
	movq	64(%rsp), %rcx                  # 8-byte Reload
	movq	%rcx, 160(%rsp)
.Ltmp424:
	#DEBUG_VALUE: decrypt_detached:state <- [DW_OP_plus_uconst 144, DW_OP_plus_uconst 16, DW_OP_deref, DW_OP_LLVM_fragment 128 64] $rsp
	movq	56(%rsp), %rcx                  # 8-byte Reload
	movq	%rcx, 168(%rsp)
.Ltmp425:
	#DEBUG_VALUE: decrypt_detached:state <- [DW_OP_plus_uconst 144, DW_OP_plus_uconst 16, DW_OP_deref, DW_OP_LLVM_fragment 128 896] $rsp
	movq	%rsi, 152(%rsp)
.Ltmp426:
	#DEBUG_VALUE: decrypt_detached:state <- [DW_OP_plus_uconst 144, DW_OP_plus_uconst 8, DW_OP_deref, DW_OP_LLVM_fragment 64 960] $rsp
	.loc	5 48 16 is_stmt 1               # crypto_aead/aegis128l/aegis128l_soft.c:48:16 @[ crypto_aead/aegis128l/aegis128l_common.h:72:5 @[ crypto_aead/aegis128l/aegis128l_common.h:212:9 ] ]
	movq	%rax, 144(%rsp)
.Ltmp427:
	#DEBUG_VALUE: decrypt_detached:state <- [DW_OP_plus_uconst 144, DW_OP_deref] $rsp
	.loc	5 0 16 is_stmt 0                # crypto_aead/aegis128l/aegis128l_soft.c:0:16
	movq	376(%rsp), %r13                 # 8-byte Reload
	movq	312(%rsp), %r12                 # 8-byte Reload
.Ltmp428:
.LBB1_9:
	#DEBUG_VALUE: decrypt_detached:m <- [DW_OP_plus_uconst 312] [$rsp+0]
	#DEBUG_VALUE: decrypt_detached:c <- [DW_OP_plus_uconst 136] [$rsp+0]
	#DEBUG_VALUE: decrypt_detached:clen <- [DW_OP_plus_uconst 376] [$rsp+0]
	#DEBUG_VALUE: decrypt_detached:mac <- [DW_OP_plus_uconst 368] [$rsp+0]
	#DEBUG_VALUE: decrypt_detached:maclen <- [DW_OP_plus_uconst 384] [$rsp+0]
	#DEBUG_VALUE: decrypt_detached:ad <- [DW_OP_plus_uconst 304] [$rsp+0]
	#DEBUG_VALUE: decrypt_detached:adlen <- [DW_OP_plus_uconst 16] [$rbp+0]
	#DEBUG_VALUE: decrypt_detached:npub <- [DW_OP_plus_uconst 24] [$rbp+0]
	#DEBUG_VALUE: decrypt_detached:k <- [DW_OP_plus_uconst 32] [$rbp+0]
	#DEBUG_VALUE: decrypt_detached:state <- [DW_OP_plus_uconst 144, DW_OP_deref] $rsp
	movq	136(%rsp), %rsi                 # 8-byte Reload
.Ltmp429:
	.loc	6 214 15 is_stmt 1              # crypto_aead/aegis128l/aegis128l_common.h:214:15
	andq	$31, %rdx
	je	.LBB1_11
.Ltmp430:
# %bb.10:
	#DEBUG_VALUE: decrypt_detached:m <- [DW_OP_plus_uconst 312] [$rsp+0]
	#DEBUG_VALUE: decrypt_detached:c <- [DW_OP_plus_uconst 136] [$rsp+0]
	#DEBUG_VALUE: decrypt_detached:clen <- [DW_OP_plus_uconst 376] [$rsp+0]
	#DEBUG_VALUE: decrypt_detached:mac <- [DW_OP_plus_uconst 368] [$rsp+0]
	#DEBUG_VALUE: decrypt_detached:maclen <- [DW_OP_plus_uconst 384] [$rsp+0]
	#DEBUG_VALUE: decrypt_detached:ad <- [DW_OP_plus_uconst 304] [$rsp+0]
	#DEBUG_VALUE: decrypt_detached:adlen <- [DW_OP_plus_uconst 16] [$rbp+0]
	#DEBUG_VALUE: decrypt_detached:npub <- [DW_OP_plus_uconst 24] [$rbp+0]
	#DEBUG_VALUE: decrypt_detached:k <- [DW_OP_plus_uconst 32] [$rbp+0]
	#DEBUG_VALUE: decrypt_detached:state <- [DW_OP_plus_uconst 144, DW_OP_deref] $rsp
	#DEBUG_VALUE: memset:__dest <- [DW_OP_plus_uconst 480, DW_OP_stack_value] $rsp
	#DEBUG_VALUE: memset:__ch <- 0
	#DEBUG_VALUE: memset:__len <- 32
	.loc	7 59 10                         # /usr/include/x86_64-linux-gnu/bits/string_fortified.h:59:10 @[ crypto_aead/aegis128l/aegis128l_common.h:215:9 ]
	xorps	%xmm0, %xmm0
	movaps	%xmm0, 496(%rsp)
	movaps	%xmm0, 480(%rsp)
.Ltmp431:
	.loc	6 216 24                        # crypto_aead/aegis128l/aegis128l_common.h:216:24
	addq	%r9, %r8
.Ltmp432:
	#DEBUG_VALUE: memcpy:__src <- $r8
	#DEBUG_VALUE: memcpy:__dest <- [DW_OP_plus_uconst 480, DW_OP_stack_value] $rsp
	#DEBUG_VALUE: memcpy:__len <- $rdx
	.loc	6 0 24 is_stmt 0                # crypto_aead/aegis128l/aegis128l_common.h:0:24
	leaq	480(%rsp), %rdi
.Ltmp433:
	.loc	7 29 10 is_stmt 1               # /usr/include/x86_64-linux-gnu/bits/string_fortified.h:29:10 @[ crypto_aead/aegis128l/aegis128l_common.h:216:9 ]
	movl	$32, %ecx
	movq	%r8, %rsi
	callq	__memcpy_chk@PLT
.Ltmp434:
	#DEBUG_VALUE: aegis128l_absorb:src <- [DW_OP_plus_uconst 480, DW_OP_stack_value] $rsp
	#DEBUG_VALUE: aegis128l_absorb:state <- [DW_OP_plus_uconst 144, DW_OP_stack_value] $rsp
	#DEBUG_VALUE: softaes_block_load:in <- [DW_OP_plus_uconst 480, DW_OP_stack_value] $rsp
	#DEBUG_VALUE: load32_le:w <- undef
	#DEBUG_VALUE: load32_le:src <- [DW_OP_plus_uconst 480, DW_OP_stack_value] $rsp
	#DEBUG_VALUE: memcpy:__dest <- undef
	#DEBUG_VALUE: memcpy:__src <- [DW_OP_plus_uconst 480, DW_OP_stack_value] $rsp
	#DEBUG_VALUE: memcpy:__len <- 4
	.loc	7 29 10 is_stmt 0               # /usr/include/x86_64-linux-gnu/bits/string_fortified.h:29:10 @[ ./include/sodium/private/common.h:106:5 @[ ./include/sodium/private/softaes.h:20:32 @[ crypto_aead/aegis128l/aegis128l_common.h:70:12 @[ crypto_aead/aegis128l/aegis128l_common.h:217:9 ] ] ] ]
	movq	480(%rsp), %r12
.Ltmp435:
	#DEBUG_VALUE: softaes_block_load:out <- [DW_OP_LLVM_fragment 0 32] undef
	#DEBUG_VALUE: load32_le:w <- undef
	#DEBUG_VALUE: load32_le:src <- [DW_OP_plus_uconst 480, DW_OP_plus_uconst 4, DW_OP_stack_value] $rsp
	#DEBUG_VALUE: memcpy:__dest <- undef
	#DEBUG_VALUE: memcpy:__src <- [DW_OP_plus_uconst 480, DW_OP_plus_uconst 4, DW_OP_stack_value] $rsp
	#DEBUG_VALUE: memcpy:__len <- 4
	#DEBUG_VALUE: softaes_block_load:out <- [DW_OP_LLVM_fragment 32 32] undef
	#DEBUG_VALUE: load32_le:w <- undef
	#DEBUG_VALUE: memcpy:__dest <- undef
	#DEBUG_VALUE: memcpy:__len <- 4
	#DEBUG_VALUE: load32_le:src <- undef
	#DEBUG_VALUE: memcpy:__src <- undef
	.loc	7 29 10                         # /usr/include/x86_64-linux-gnu/bits/string_fortified.h:29:10 @[ ./include/sodium/private/common.h:106:5 @[ ./include/sodium/private/softaes.h:20:70 @[ crypto_aead/aegis128l/aegis128l_common.h:70:12 @[ crypto_aead/aegis128l/aegis128l_common.h:217:9 ] ] ] ]
	movq	488(%rsp), %r15
.Ltmp436:
	#DEBUG_VALUE: aegis128l_absorb:msg0 <- [DW_OP_LLVM_fragment 64 64] $r15
	#DEBUG_VALUE: softaes_block_load:out <- [DW_OP_LLVM_fragment 64 32] undef
	#DEBUG_VALUE: load32_le:w <- undef
	#DEBUG_VALUE: load32_le:src <- [DW_OP_plus_uconst 480, DW_OP_plus_uconst 12, DW_OP_stack_value] $rsp
	#DEBUG_VALUE: memcpy:__dest <- undef
	#DEBUG_VALUE: memcpy:__src <- [DW_OP_plus_uconst 480, DW_OP_plus_uconst 12, DW_OP_stack_value] $rsp
	#DEBUG_VALUE: memcpy:__len <- 4
	#DEBUG_VALUE: softaes_block_load:out <- [DW_OP_LLVM_fragment 96 32] undef
	#DEBUG_VALUE: aegis128l_absorb:msg0 <- [DW_OP_LLVM_fragment 0 64] $r12
	#DEBUG_VALUE: load32_le:w <- undef
	#DEBUG_VALUE: memcpy:__dest <- undef
	#DEBUG_VALUE: memcpy:__len <- 4
	#DEBUG_VALUE: softaes_block_load:out <- [DW_OP_LLVM_fragment 0 32] undef
	#DEBUG_VALUE: load32_le:w <- undef
	#DEBUG_VALUE: memcpy:__dest <- undef
	#DEBUG_VALUE: memcpy:__len <- 4
	#DEBUG_VALUE: softaes_block_load:out <- [DW_OP_LLVM_fragment 32 32] undef
	#DEBUG_VALUE: load32_le:w <- undef
	#DEBUG_VALUE: load32_le:src <- [DW_OP_plus_uconst 480, DW_OP_plus_uconst 24, DW_OP_stack_value] $rsp
	#DEBUG_VALUE: memcpy:__dest <- undef
	#DEBUG_VALUE: memcpy:__src <- [DW_OP_plus_uconst 480, DW_OP_plus_uconst 24, DW_OP_stack_value] $rsp
	#DEBUG_VALUE: memcpy:__len <- 4
	#DEBUG_VALUE: softaes_block_load:out <- [DW_OP_LLVM_fragment 64 32] undef
	#DEBUG_VALUE: load32_le:w <- undef
	#DEBUG_VALUE: memcpy:__dest <- undef
	#DEBUG_VALUE: memcpy:__len <- 4
	#DEBUG_VALUE: softaes_block_load:out <- [DW_OP_LLVM_fragment 96 32] undef
	#DEBUG_VALUE: aegis128l_absorb:msg1 <- [DW_OP_LLVM_fragment 0 64] undef
	#DEBUG_VALUE: aegis128l_absorb:msg1 <- [DW_OP_LLVM_fragment 64 64] undef
	#DEBUG_VALUE: aegis128l_update:d2 <- [DW_OP_LLVM_fragment 0 64] undef
	#DEBUG_VALUE: aegis128l_update:d2 <- [DW_OP_LLVM_fragment 64 64] undef
	#DEBUG_VALUE: aegis128l_update:state <- [DW_OP_plus_uconst 144, DW_OP_stack_value] $rsp
	#DEBUG_VALUE: aegis128l_update:d1 <- [DW_OP_LLVM_fragment 64 64] $r15
	#DEBUG_VALUE: aegis128l_update:d1 <- [DW_OP_LLVM_fragment 0 64] $r12
	#DEBUG_VALUE: softaes_block_load:in <- undef
	#DEBUG_VALUE: load32_le:src <- undef
	#DEBUG_VALUE: memcpy:__src <- undef
	#DEBUG_VALUE: load32_le:src <- undef
	#DEBUG_VALUE: memcpy:__src <- undef
	#DEBUG_VALUE: load32_le:src <- undef
	#DEBUG_VALUE: memcpy:__src <- undef
	.loc	5 38 11 is_stmt 1               # crypto_aead/aegis128l/aegis128l_soft.c:38:11 @[ crypto_aead/aegis128l/aegis128l_common.h:72:5 @[ crypto_aead/aegis128l/aegis128l_common.h:217:9 ] ]
	movq	256(%rsp), %rbx
	movq	264(%rsp), %r14
.Ltmp437:
	#DEBUG_VALUE: aegis128l_update:tmp <- [DW_OP_LLVM_fragment 64 64] $r14
	#DEBUG_VALUE: aegis128l_update:tmp <- [DW_OP_LLVM_fragment 0 64] $rbx
	.loc	5 39 16                         # crypto_aead/aegis128l/aegis128l_soft.c:39:16 @[ crypto_aead/aegis128l/aegis128l_common.h:72:5 @[ crypto_aead/aegis128l/aegis128l_common.h:217:9 ] ]
	movq	240(%rsp), %rdi
	movq	248(%rsp), %rsi
.Ltmp438:
	#DEBUG_VALUE: decrypt_detached:state <- [DW_OP_plus_uconst 144, DW_OP_deref, DW_OP_LLVM_fragment 0 896] $rsp
	#DEBUG_VALUE: decrypt_detached:state <- [DW_OP_plus_uconst 144, DW_OP_deref, DW_OP_LLVM_fragment 0 768] $rsp
	#DEBUG_VALUE: decrypt_detached:state <- [DW_OP_plus_uconst 144, DW_OP_deref, DW_OP_LLVM_fragment 0 640] $rsp
	#DEBUG_VALUE: decrypt_detached:state <- [DW_OP_plus_uconst 144, DW_OP_deref, DW_OP_LLVM_fragment 0 512] $rsp
	#DEBUG_VALUE: decrypt_detached:state <- [DW_OP_plus_uconst 144, DW_OP_deref, DW_OP_LLVM_fragment 0 384] $rsp
	#DEBUG_VALUE: decrypt_detached:state <- [DW_OP_plus_uconst 144, DW_OP_deref, DW_OP_LLVM_fragment 0 256] $rsp
	.loc	7 29 10                         # /usr/include/x86_64-linux-gnu/bits/string_fortified.h:29:10 @[ ./include/sodium/private/common.h:106:5 @[ ./include/sodium/private/softaes.h:20:32 @[ crypto_aead/aegis128l/aegis128l_common.h:71:12 @[ crypto_aead/aegis128l/aegis128l_common.h:217:9 ] ] ] ]
	movaps	496(%rsp), %xmm0
	movaps	%xmm0, 64(%rsp)                 # 16-byte Spill
.Ltmp439:
	.loc	5 39 16                         # crypto_aead/aegis128l/aegis128l_soft.c:39:16 @[ crypto_aead/aegis128l/aegis128l_common.h:72:5 @[ crypto_aead/aegis128l/aegis128l_common.h:217:9 ] ]
	movq	%rbx, %rdx
	movq	%r14, %rcx
	callq	softaes_block_encrypt@PLT
.Ltmp440:
	#DEBUG_VALUE: decrypt_detached:state <- [DW_OP_LLVM_fragment 896 64] $rax
	#DEBUG_VALUE: decrypt_detached:state <- [DW_OP_LLVM_fragment 960 64] $rdx
	movq	%rax, 256(%rsp)
.Ltmp441:
	#DEBUG_VALUE: decrypt_detached:state <- [DW_OP_plus_uconst 144, DW_OP_plus_uconst 112, DW_OP_deref, DW_OP_LLVM_fragment 896 64] $rsp
	movq	%rdx, 264(%rsp)
.Ltmp442:
	#DEBUG_VALUE: decrypt_detached:state <- [DW_OP_plus_uconst 144, DW_OP_plus_uconst 112, DW_OP_deref, DW_OP_LLVM_fragment 896 128] $rsp
	.loc	5 40 16                         # crypto_aead/aegis128l/aegis128l_soft.c:40:16 @[ crypto_aead/aegis128l/aegis128l_common.h:72:5 @[ crypto_aead/aegis128l/aegis128l_common.h:217:9 ] ]
	movq	224(%rsp), %rdi
	movq	232(%rsp), %rsi
	movq	240(%rsp), %rdx
	movq	248(%rsp), %rcx
	callq	softaes_block_encrypt@PLT
.Ltmp443:
	#DEBUG_VALUE: decrypt_detached:state <- [DW_OP_LLVM_fragment 768 64] $rax
	#DEBUG_VALUE: decrypt_detached:state <- [DW_OP_LLVM_fragment 832 64] $rdx
	movq	%rax, 240(%rsp)
.Ltmp444:
	#DEBUG_VALUE: decrypt_detached:state <- [DW_OP_plus_uconst 144, DW_OP_plus_uconst 96, DW_OP_deref, DW_OP_LLVM_fragment 768 64] $rsp
	movq	%rdx, 248(%rsp)
.Ltmp445:
	#DEBUG_VALUE: decrypt_detached:state <- [DW_OP_plus_uconst 144, DW_OP_plus_uconst 96, DW_OP_deref, DW_OP_LLVM_fragment 768 256] $rsp
	.loc	5 41 16                         # crypto_aead/aegis128l/aegis128l_soft.c:41:16 @[ crypto_aead/aegis128l/aegis128l_common.h:72:5 @[ crypto_aead/aegis128l/aegis128l_common.h:217:9 ] ]
	movq	208(%rsp), %rdi
	movq	216(%rsp), %rsi
	movq	224(%rsp), %rdx
	movq	232(%rsp), %rcx
	callq	softaes_block_encrypt@PLT
.Ltmp446:
	#DEBUG_VALUE: decrypt_detached:state <- [DW_OP_LLVM_fragment 640 64] $rax
	#DEBUG_VALUE: decrypt_detached:state <- [DW_OP_LLVM_fragment 704 64] $rdx
	movq	%rax, 224(%rsp)
.Ltmp447:
	#DEBUG_VALUE: decrypt_detached:state <- [DW_OP_plus_uconst 144, DW_OP_plus_uconst 80, DW_OP_deref, DW_OP_LLVM_fragment 640 64] $rsp
	movq	%rdx, 232(%rsp)
.Ltmp448:
	#DEBUG_VALUE: decrypt_detached:state <- [DW_OP_plus_uconst 144, DW_OP_plus_uconst 80, DW_OP_deref, DW_OP_LLVM_fragment 640 384] $rsp
	.loc	5 42 16                         # crypto_aead/aegis128l/aegis128l_soft.c:42:16 @[ crypto_aead/aegis128l/aegis128l_common.h:72:5 @[ crypto_aead/aegis128l/aegis128l_common.h:217:9 ] ]
	movq	192(%rsp), %rdi
	movq	200(%rsp), %rsi
	movq	208(%rsp), %rdx
	movq	216(%rsp), %rcx
	callq	softaes_block_encrypt@PLT
.Ltmp449:
	#DEBUG_VALUE: decrypt_detached:state <- [DW_OP_LLVM_fragment 512 64] $rax
	#DEBUG_VALUE: decrypt_detached:state <- [DW_OP_LLVM_fragment 576 64] $rdx
	movq	%rax, 208(%rsp)
.Ltmp450:
	#DEBUG_VALUE: decrypt_detached:state <- [DW_OP_plus_uconst 144, DW_OP_plus_uconst 64, DW_OP_deref, DW_OP_LLVM_fragment 512 64] $rsp
	movq	%rdx, 216(%rsp)
.Ltmp451:
	#DEBUG_VALUE: decrypt_detached:state <- [DW_OP_plus_uconst 144, DW_OP_plus_uconst 64, DW_OP_deref, DW_OP_LLVM_fragment 512 512] $rsp
	.loc	5 43 16                         # crypto_aead/aegis128l/aegis128l_soft.c:43:16 @[ crypto_aead/aegis128l/aegis128l_common.h:72:5 @[ crypto_aead/aegis128l/aegis128l_common.h:217:9 ] ]
	movq	176(%rsp), %rdi
	movq	184(%rsp), %rsi
	movq	192(%rsp), %rdx
	movq	200(%rsp), %rcx
	callq	softaes_block_encrypt@PLT
.Ltmp452:
	#DEBUG_VALUE: decrypt_detached:state <- [DW_OP_LLVM_fragment 384 64] $rax
	#DEBUG_VALUE: decrypt_detached:state <- [DW_OP_LLVM_fragment 448 64] $rdx
	movq	%rax, 192(%rsp)
.Ltmp453:
	#DEBUG_VALUE: decrypt_detached:state <- [DW_OP_plus_uconst 144, DW_OP_plus_uconst 48, DW_OP_deref, DW_OP_LLVM_fragment 384 64] $rsp
	movq	%rdx, 200(%rsp)
.Ltmp454:
	#DEBUG_VALUE: decrypt_detached:state <- [DW_OP_plus_uconst 144, DW_OP_plus_uconst 48, DW_OP_deref, DW_OP_LLVM_fragment 384 640] $rsp
	.loc	5 44 16                         # crypto_aead/aegis128l/aegis128l_soft.c:44:16 @[ crypto_aead/aegis128l/aegis128l_common.h:72:5 @[ crypto_aead/aegis128l/aegis128l_common.h:217:9 ] ]
	movq	160(%rsp), %rdi
	movq	168(%rsp), %rsi
	movq	176(%rsp), %rdx
	movq	184(%rsp), %rcx
	callq	softaes_block_encrypt@PLT
.Ltmp455:
	#DEBUG_VALUE: decrypt_detached:state <- [DW_OP_LLVM_fragment 256 64] $rax
	#DEBUG_VALUE: decrypt_detached:state <- [DW_OP_LLVM_fragment 320 64] $rdx
	movq	%rax, 176(%rsp)
.Ltmp456:
	#DEBUG_VALUE: decrypt_detached:state <- [DW_OP_plus_uconst 144, DW_OP_deref, DW_OP_LLVM_fragment 0 320] $rsp
	movq	%rdx, 184(%rsp)
.Ltmp457:
	#DEBUG_VALUE: decrypt_detached:state <- [DW_OP_plus_uconst 144, DW_OP_deref] $rsp
	.loc	5 45 16                         # crypto_aead/aegis128l/aegis128l_soft.c:45:16 @[ crypto_aead/aegis128l/aegis128l_common.h:72:5 @[ crypto_aead/aegis128l/aegis128l_common.h:217:9 ] ]
	movq	144(%rsp), %rdi
	movq	152(%rsp), %rsi
	movq	160(%rsp), %rdx
	movq	168(%rsp), %rcx
	callq	softaes_block_encrypt@PLT
.Ltmp458:
	movq	%rax, 160(%rsp)
	movq	%rdx, 168(%rsp)
	.loc	5 46 16                         # crypto_aead/aegis128l/aegis128l_soft.c:46:16 @[ crypto_aead/aegis128l/aegis128l_common.h:72:5 @[ crypto_aead/aegis128l/aegis128l_common.h:217:9 ] ]
	movq	144(%rsp), %rdx
	movq	152(%rsp), %rcx
	movq	%rbx, %rdi
	movq	%r14, %rsi
	callq	softaes_block_encrypt@PLT
.Ltmp459:
	.loc	5 0 16 is_stmt 0                # crypto_aead/aegis128l/aegis128l_soft.c:0:16
	movq	136(%rsp), %rsi                 # 8-byte Reload
.Ltmp460:
	#DEBUG_VALUE: softaes_block_xor:a <- [DW_OP_LLVM_convert 64 7, DW_OP_LLVM_convert 32 7, DW_OP_stack_value, DW_OP_LLVM_fragment 0 32] $rax
	#DEBUG_VALUE: softaes_block_xor:a <- [DW_OP_constu 32, DW_OP_shr, DW_OP_LLVM_convert 64 7, DW_OP_LLVM_convert 32 7, DW_OP_stack_value, DW_OP_LLVM_fragment 32 32] $rax
	#DEBUG_VALUE: softaes_block_xor:a <- [DW_OP_LLVM_convert 64 7, DW_OP_LLVM_convert 32 7, DW_OP_stack_value, DW_OP_LLVM_fragment 64 32] $rdx
	#DEBUG_VALUE: softaes_block_xor:a <- [DW_OP_constu 32, DW_OP_shr, DW_OP_LLVM_convert 64 7, DW_OP_LLVM_convert 32 7, DW_OP_stack_value, DW_OP_LLVM_fragment 96 32] $rdx
	#DEBUG_VALUE: softaes_block_xor:b <- [DW_OP_LLVM_convert 64 7, DW_OP_LLVM_convert 32 7, DW_OP_stack_value, DW_OP_LLVM_fragment 64 32] $r15
	#DEBUG_VALUE: softaes_block_xor:b <- [DW_OP_constu 32, DW_OP_shr, DW_OP_LLVM_convert 64 7, DW_OP_LLVM_convert 32 7, DW_OP_stack_value, DW_OP_LLVM_fragment 96 32] $r15
	#DEBUG_VALUE: softaes_block_xor:b <- [DW_OP_LLVM_convert 64 7, DW_OP_LLVM_convert 32 7, DW_OP_stack_value, DW_OP_LLVM_fragment 0 32] $r12
	#DEBUG_VALUE: softaes_block_xor:b <- [DW_OP_constu 32, DW_OP_shr, DW_OP_LLVM_convert 64 7, DW_OP_LLVM_convert 32 7, DW_OP_stack_value, DW_OP_LLVM_fragment 32 32] $r12
	.loc	8 45 37 is_stmt 1               # ./include/sodium/private/softaes.h:45:37 @[ crypto_aead/aegis128l/aegis128l_soft.c:48:16 @[ crypto_aead/aegis128l/aegis128l_common.h:72:5 @[ crypto_aead/aegis128l/aegis128l_common.h:217:9 ] ] ]
	xorq	%r12, %rax
.Ltmp461:
	#DEBUG_VALUE: softaes_block_xor:out <- [DW_OP_LLVM_convert 64 7, DW_OP_LLVM_convert 32 7, DW_OP_stack_value, DW_OP_LLVM_fragment 0 32] $rax
	#DEBUG_VALUE: softaes_block_xor:out <- [DW_OP_constu 32, DW_OP_shr, DW_OP_LLVM_convert 64 7, DW_OP_LLVM_convert 32 7, DW_OP_stack_value, DW_OP_LLVM_fragment 32 32] $rax
	.loc	8 0 37 is_stmt 0                # ./include/sodium/private/softaes.h:0:37
	movq	312(%rsp), %r12                 # 8-byte Reload
.Ltmp462:
	.loc	8 45 63                         # ./include/sodium/private/softaes.h:45:63 @[ crypto_aead/aegis128l/aegis128l_soft.c:48:16 @[ crypto_aead/aegis128l/aegis128l_common.h:72:5 @[ crypto_aead/aegis128l/aegis128l_common.h:217:9 ] ] ]
	xorq	%r15, %rdx
.Ltmp463:
	#DEBUG_VALUE: softaes_block_xor:out <- [DW_OP_LLVM_convert 64 7, DW_OP_LLVM_convert 32 7, DW_OP_stack_value, DW_OP_LLVM_fragment 64 32] $rdx
	#DEBUG_VALUE: softaes_block_xor:out <- [DW_OP_constu 32, DW_OP_shr, DW_OP_LLVM_convert 64 7, DW_OP_LLVM_convert 32 7, DW_OP_stack_value, DW_OP_LLVM_fragment 96 32] $rdx
	.loc	5 48 16 is_stmt 1               # crypto_aead/aegis128l/aegis128l_soft.c:48:16 @[ crypto_aead/aegis128l/aegis128l_common.h:72:5 @[ crypto_aead/aegis128l/aegis128l_common.h:217:9 ] ]
	movq	%rax, 144(%rsp)
	movq	%rdx, 152(%rsp)
.Ltmp464:
	#DEBUG_VALUE: softaes_block_xor:a <- [DW_OP_LLVM_fragment 0 32] undef
	#DEBUG_VALUE: softaes_block_xor:a <- [DW_OP_LLVM_fragment 32 32] undef
	#DEBUG_VALUE: softaes_block_xor:a <- [DW_OP_LLVM_fragment 64 32] undef
	#DEBUG_VALUE: softaes_block_xor:a <- [DW_OP_LLVM_fragment 96 32] undef
	#DEBUG_VALUE: softaes_block_xor:b <- [DW_OP_LLVM_fragment 0 32] undef
	#DEBUG_VALUE: softaes_block_xor:b <- [DW_OP_LLVM_fragment 32 32] undef
	#DEBUG_VALUE: softaes_block_xor:b <- [DW_OP_LLVM_fragment 64 32] undef
	#DEBUG_VALUE: softaes_block_xor:b <- [DW_OP_LLVM_fragment 96 32] undef
	#DEBUG_VALUE: softaes_block_xor:out <- [DW_OP_LLVM_fragment 0 32] undef
	#DEBUG_VALUE: softaes_block_xor:out <- [DW_OP_LLVM_fragment 32 32] undef
	.loc	5 0 16 is_stmt 0                # crypto_aead/aegis128l/aegis128l_soft.c:0:16
	movaps	64(%rsp), %xmm0                 # 16-byte Reload
.Ltmp465:
	.loc	8 45 37 is_stmt 1               # ./include/sodium/private/softaes.h:45:37 @[ crypto_aead/aegis128l/aegis128l_soft.c:49:16 @[ crypto_aead/aegis128l/aegis128l_common.h:72:5 @[ crypto_aead/aegis128l/aegis128l_common.h:217:9 ] ] ]
	xorps	208(%rsp), %xmm0
.Ltmp466:
	#DEBUG_VALUE: softaes_block_xor:out <- [DW_OP_LLVM_fragment 64 32] undef
	#DEBUG_VALUE: softaes_block_xor:out <- [DW_OP_LLVM_fragment 96 32] undef
	#DEBUG_VALUE: decrypt_detached:state <- [DW_OP_LLVM_fragment 512 64] undef
	#DEBUG_VALUE: decrypt_detached:state <- [DW_OP_plus_uconst 144, DW_OP_deref, DW_OP_LLVM_fragment 0 512] $rsp
	#DEBUG_VALUE: decrypt_detached:state <- [DW_OP_plus_uconst 144, DW_OP_plus_uconst 72, DW_OP_deref, DW_OP_LLVM_fragment 576 448] $rsp
	.loc	5 49 16                         # crypto_aead/aegis128l/aegis128l_soft.c:49:16 @[ crypto_aead/aegis128l/aegis128l_common.h:72:5 @[ crypto_aead/aegis128l/aegis128l_common.h:217:9 ] ]
	movaps	%xmm0, 208(%rsp)
.Ltmp467:
	#DEBUG_VALUE: decrypt_detached:state <- [DW_OP_plus_uconst 144, DW_OP_deref] $rsp
.LBB1_11:
	#DEBUG_VALUE: decrypt_detached:m <- [DW_OP_plus_uconst 312] [$rsp+0]
	#DEBUG_VALUE: decrypt_detached:c <- [DW_OP_plus_uconst 136] [$rsp+0]
	#DEBUG_VALUE: decrypt_detached:clen <- [DW_OP_plus_uconst 376] [$rsp+0]
	#DEBUG_VALUE: decrypt_detached:mac <- [DW_OP_plus_uconst 368] [$rsp+0]
	#DEBUG_VALUE: decrypt_detached:maclen <- [DW_OP_plus_uconst 384] [$rsp+0]
	#DEBUG_VALUE: decrypt_detached:ad <- [DW_OP_plus_uconst 304] [$rsp+0]
	#DEBUG_VALUE: decrypt_detached:adlen <- [DW_OP_plus_uconst 16] [$rbp+0]
	#DEBUG_VALUE: decrypt_detached:npub <- [DW_OP_plus_uconst 24] [$rbp+0]
	#DEBUG_VALUE: decrypt_detached:k <- [DW_OP_plus_uconst 32] [$rbp+0]
	#DEBUG_VALUE: decrypt_detached:state <- [DW_OP_plus_uconst 144, DW_OP_deref] $rsp
	.loc	6 219 11                        # crypto_aead/aegis128l/aegis128l_common.h:219:11
	testq	%r12, %r12
.Ltmp468:
	#DEBUG_VALUE: decrypt_detached:i <- 0
	je	.LBB1_14
.Ltmp469:
# %bb.12:                               # %.preheader
	#DEBUG_VALUE: decrypt_detached:m <- [DW_OP_plus_uconst 312] [$rsp+0]
	#DEBUG_VALUE: decrypt_detached:c <- [DW_OP_plus_uconst 136] [$rsp+0]
	#DEBUG_VALUE: decrypt_detached:clen <- [DW_OP_plus_uconst 376] [$rsp+0]
	#DEBUG_VALUE: decrypt_detached:mac <- [DW_OP_plus_uconst 368] [$rsp+0]
	#DEBUG_VALUE: decrypt_detached:maclen <- [DW_OP_plus_uconst 384] [$rsp+0]
	#DEBUG_VALUE: decrypt_detached:ad <- [DW_OP_plus_uconst 304] [$rsp+0]
	#DEBUG_VALUE: decrypt_detached:adlen <- [DW_OP_plus_uconst 16] [$rbp+0]
	#DEBUG_VALUE: decrypt_detached:npub <- [DW_OP_plus_uconst 24] [$rbp+0]
	#DEBUG_VALUE: decrypt_detached:k <- [DW_OP_plus_uconst 32] [$rbp+0]
	#DEBUG_VALUE: decrypt_detached:state <- [DW_OP_plus_uconst 144, DW_OP_deref] $rsp
	#DEBUG_VALUE: decrypt_detached:i <- 0
	.loc	6 0 0 is_stmt 0                 # crypto_aead/aegis128l/aegis128l_common.h:0
	cmpq	$32, %r13
.Ltmp470:
	.loc	6 220 9 is_stmt 1               # crypto_aead/aegis128l/aegis128l_common.h:220:9
	jb	.LBB1_15
.Ltmp471:
# %bb.16:                               # %.lr.ph159.preheader
	#DEBUG_VALUE: decrypt_detached:m <- [DW_OP_plus_uconst 312] [$rsp+0]
	#DEBUG_VALUE: decrypt_detached:c <- [DW_OP_plus_uconst 136] [$rsp+0]
	#DEBUG_VALUE: decrypt_detached:clen <- [DW_OP_plus_uconst 376] [$rsp+0]
	#DEBUG_VALUE: decrypt_detached:mac <- [DW_OP_plus_uconst 368] [$rsp+0]
	#DEBUG_VALUE: decrypt_detached:maclen <- [DW_OP_plus_uconst 384] [$rsp+0]
	#DEBUG_VALUE: decrypt_detached:ad <- [DW_OP_plus_uconst 304] [$rsp+0]
	#DEBUG_VALUE: decrypt_detached:adlen <- [DW_OP_plus_uconst 16] [$rbp+0]
	#DEBUG_VALUE: decrypt_detached:npub <- [DW_OP_plus_uconst 24] [$rbp+0]
	#DEBUG_VALUE: decrypt_detached:k <- [DW_OP_plus_uconst 32] [$rbp+0]
	#DEBUG_VALUE: decrypt_detached:state <- [DW_OP_plus_uconst 144, DW_OP_deref] $rsp
	#DEBUG_VALUE: decrypt_detached:i <- 0
	.loc	6 0 9 is_stmt 0                 # crypto_aead/aegis128l/aegis128l_common.h:0:9
	xorl	%r14d, %r14d
	leaq	144(%rsp), %rbx
.Ltmp472:
	.p2align	4
.LBB1_17:                               # %.lr.ph159
                                        # =>This Inner Loop Header: Depth=1
	#DEBUG_VALUE: decrypt_detached:m <- [DW_OP_plus_uconst 312] [$rsp+0]
	#DEBUG_VALUE: decrypt_detached:c <- [DW_OP_plus_uconst 136] [$rsp+0]
	#DEBUG_VALUE: decrypt_detached:clen <- [DW_OP_plus_uconst 376] [$rsp+0]
	#DEBUG_VALUE: decrypt_detached:mac <- [DW_OP_plus_uconst 368] [$rsp+0]
	#DEBUG_VALUE: decrypt_detached:maclen <- [DW_OP_plus_uconst 384] [$rsp+0]
	#DEBUG_VALUE: decrypt_detached:ad <- [DW_OP_plus_uconst 304] [$rsp+0]
	#DEBUG_VALUE: decrypt_detached:adlen <- [DW_OP_plus_uconst 16] [$rbp+0]
	#DEBUG_VALUE: decrypt_detached:npub <- [DW_OP_plus_uconst 24] [$rbp+0]
	#DEBUG_VALUE: decrypt_detached:k <- [DW_OP_plus_uconst 32] [$rbp+0]
	#DEBUG_VALUE: decrypt_detached:state <- [DW_OP_plus_uconst 144, DW_OP_deref] $rsp
	#DEBUG_VALUE: decrypt_detached:i <- $r14
	.loc	6 221 36 is_stmt 1              # crypto_aead/aegis128l/aegis128l_common.h:221:36
	leaq	(%r12,%r14), %rdi
	movq	136(%rsp), %rax                 # 8-byte Reload
	.loc	6 221 13 is_stmt 0              # crypto_aead/aegis128l/aegis128l_common.h:221:13
	leaq	(%rax,%r14), %rsi
	movq	%rbx, %rdx
	callq	aegis128l_dec
.Ltmp473:
	.loc	6 0 13                          # crypto_aead/aegis128l/aegis128l_common.h:0:13
	movq	136(%rsp), %rsi                 # 8-byte Reload
.Ltmp474:
	#DEBUG_VALUE: decrypt_detached:i <- [DW_OP_plus_uconst 32, DW_OP_stack_value] $r14
	.loc	6 220 28 is_stmt 1              # crypto_aead/aegis128l/aegis128l_common.h:220:28
	leaq	32(%r14), %rax
	addq	$64, %r14
.Ltmp475:
	cmpq	%r13, %r14
	movq	%rax, %r14
.Ltmp476:
	.loc	6 220 9 is_stmt 0               # crypto_aead/aegis128l/aegis128l_common.h:220:9
	jbe	.LBB1_17
	jmp	.LBB1_20
.Ltmp477:
.LBB1_14:                               # %.preheader78
	#DEBUG_VALUE: decrypt_detached:m <- [DW_OP_plus_uconst 312] [$rsp+0]
	#DEBUG_VALUE: decrypt_detached:c <- [DW_OP_plus_uconst 136] [$rsp+0]
	#DEBUG_VALUE: decrypt_detached:clen <- [DW_OP_plus_uconst 376] [$rsp+0]
	#DEBUG_VALUE: decrypt_detached:mac <- [DW_OP_plus_uconst 368] [$rsp+0]
	#DEBUG_VALUE: decrypt_detached:maclen <- [DW_OP_plus_uconst 384] [$rsp+0]
	#DEBUG_VALUE: decrypt_detached:ad <- [DW_OP_plus_uconst 304] [$rsp+0]
	#DEBUG_VALUE: decrypt_detached:adlen <- [DW_OP_plus_uconst 16] [$rbp+0]
	#DEBUG_VALUE: decrypt_detached:npub <- [DW_OP_plus_uconst 24] [$rbp+0]
	#DEBUG_VALUE: decrypt_detached:k <- [DW_OP_plus_uconst 32] [$rbp+0]
	#DEBUG_VALUE: decrypt_detached:state <- [DW_OP_plus_uconst 144, DW_OP_deref] $rsp
	#DEBUG_VALUE: decrypt_detached:i <- 0
	.loc	6 0 0                           # crypto_aead/aegis128l/aegis128l_common.h:0
	cmpq	$32, %r13
.Ltmp478:
	.loc	6 224 9 is_stmt 1               # crypto_aead/aegis128l/aegis128l_common.h:224:9
	jae	.LBB1_18
.Ltmp479:
.LBB1_15:
	#DEBUG_VALUE: decrypt_detached:m <- [DW_OP_plus_uconst 312] [$rsp+0]
	#DEBUG_VALUE: decrypt_detached:c <- [DW_OP_plus_uconst 136] [$rsp+0]
	#DEBUG_VALUE: decrypt_detached:clen <- [DW_OP_plus_uconst 376] [$rsp+0]
	#DEBUG_VALUE: decrypt_detached:mac <- [DW_OP_plus_uconst 368] [$rsp+0]
	#DEBUG_VALUE: decrypt_detached:maclen <- [DW_OP_plus_uconst 384] [$rsp+0]
	#DEBUG_VALUE: decrypt_detached:ad <- [DW_OP_plus_uconst 304] [$rsp+0]
	#DEBUG_VALUE: decrypt_detached:adlen <- [DW_OP_plus_uconst 16] [$rbp+0]
	#DEBUG_VALUE: decrypt_detached:npub <- [DW_OP_plus_uconst 24] [$rbp+0]
	#DEBUG_VALUE: decrypt_detached:k <- [DW_OP_plus_uconst 32] [$rbp+0]
	#DEBUG_VALUE: decrypt_detached:state <- [DW_OP_plus_uconst 144, DW_OP_deref] $rsp
	#DEBUG_VALUE: decrypt_detached:i <- 0
	.loc	6 0 9 is_stmt 0                 # crypto_aead/aegis128l/aegis128l_common.h:0:9
	xorl	%eax, %eax
.Ltmp480:
	.loc	6 220 9 is_stmt 1               # crypto_aead/aegis128l/aegis128l_common.h:220:9
	jmp	.LBB1_20
.Ltmp481:
.LBB1_18:                               # %.lr.ph155.preheader
	#DEBUG_VALUE: decrypt_detached:m <- [DW_OP_plus_uconst 312] [$rsp+0]
	#DEBUG_VALUE: decrypt_detached:c <- [DW_OP_plus_uconst 136] [$rsp+0]
	#DEBUG_VALUE: decrypt_detached:clen <- [DW_OP_plus_uconst 376] [$rsp+0]
	#DEBUG_VALUE: decrypt_detached:mac <- [DW_OP_plus_uconst 368] [$rsp+0]
	#DEBUG_VALUE: decrypt_detached:maclen <- [DW_OP_plus_uconst 384] [$rsp+0]
	#DEBUG_VALUE: decrypt_detached:ad <- [DW_OP_plus_uconst 304] [$rsp+0]
	#DEBUG_VALUE: decrypt_detached:adlen <- [DW_OP_plus_uconst 16] [$rbp+0]
	#DEBUG_VALUE: decrypt_detached:npub <- [DW_OP_plus_uconst 24] [$rbp+0]
	#DEBUG_VALUE: decrypt_detached:k <- [DW_OP_plus_uconst 32] [$rbp+0]
	#DEBUG_VALUE: decrypt_detached:state <- [DW_OP_plus_uconst 144, DW_OP_deref] $rsp
	#DEBUG_VALUE: decrypt_detached:i <- 0
	.loc	6 0 9 is_stmt 0                 # crypto_aead/aegis128l/aegis128l_common.h:0:9
	xorl	%r15d, %r15d
	leaq	448(%rsp), %rbx
	leaq	144(%rsp), %r14
.Ltmp482:
	.p2align	4
.LBB1_19:                               # %.lr.ph155
                                        # =>This Inner Loop Header: Depth=1
	#DEBUG_VALUE: decrypt_detached:m <- [DW_OP_plus_uconst 312] [$rsp+0]
	#DEBUG_VALUE: decrypt_detached:c <- [DW_OP_plus_uconst 136] [$rsp+0]
	#DEBUG_VALUE: decrypt_detached:clen <- [DW_OP_plus_uconst 376] [$rsp+0]
	#DEBUG_VALUE: decrypt_detached:mac <- [DW_OP_plus_uconst 368] [$rsp+0]
	#DEBUG_VALUE: decrypt_detached:maclen <- [DW_OP_plus_uconst 384] [$rsp+0]
	#DEBUG_VALUE: decrypt_detached:ad <- [DW_OP_plus_uconst 304] [$rsp+0]
	#DEBUG_VALUE: decrypt_detached:adlen <- [DW_OP_plus_uconst 16] [$rbp+0]
	#DEBUG_VALUE: decrypt_detached:npub <- [DW_OP_plus_uconst 24] [$rbp+0]
	#DEBUG_VALUE: decrypt_detached:k <- [DW_OP_plus_uconst 32] [$rbp+0]
	#DEBUG_VALUE: decrypt_detached:state <- [DW_OP_plus_uconst 144, DW_OP_deref] $rsp
	#DEBUG_VALUE: decrypt_detached:i <- $r15
	movq	136(%rsp), %rax                 # 8-byte Reload
.Ltmp483:
	.loc	6 225 13 is_stmt 1              # crypto_aead/aegis128l/aegis128l_common.h:225:13
	leaq	(%rax,%r15), %rsi
	movq	%rbx, %rdi
	movq	%r14, %rdx
	callq	aegis128l_dec
.Ltmp484:
	.loc	6 0 13 is_stmt 0                # crypto_aead/aegis128l/aegis128l_common.h:0:13
	movq	136(%rsp), %rsi                 # 8-byte Reload
.Ltmp485:
	#DEBUG_VALUE: decrypt_detached:i <- [DW_OP_plus_uconst 32, DW_OP_stack_value] $r15
	.loc	6 224 28 is_stmt 1              # crypto_aead/aegis128l/aegis128l_common.h:224:28
	leaq	32(%r15), %rax
	addq	$64, %r15
.Ltmp486:
	cmpq	%r13, %r15
	movq	%rax, %r15
.Ltmp487:
	.loc	6 224 9 is_stmt 0               # crypto_aead/aegis128l/aegis128l_common.h:224:9
	jbe	.LBB1_19
.Ltmp488:
.LBB1_20:                               # %.loopexit
	#DEBUG_VALUE: decrypt_detached:m <- [DW_OP_plus_uconst 312] [$rsp+0]
	#DEBUG_VALUE: decrypt_detached:c <- [DW_OP_plus_uconst 136] [$rsp+0]
	#DEBUG_VALUE: decrypt_detached:clen <- [DW_OP_plus_uconst 376] [$rsp+0]
	#DEBUG_VALUE: decrypt_detached:mac <- [DW_OP_plus_uconst 368] [$rsp+0]
	#DEBUG_VALUE: decrypt_detached:maclen <- [DW_OP_plus_uconst 384] [$rsp+0]
	#DEBUG_VALUE: decrypt_detached:ad <- [DW_OP_plus_uconst 304] [$rsp+0]
	#DEBUG_VALUE: decrypt_detached:adlen <- [DW_OP_plus_uconst 16] [$rbp+0]
	#DEBUG_VALUE: decrypt_detached:npub <- [DW_OP_plus_uconst 24] [$rbp+0]
	#DEBUG_VALUE: decrypt_detached:k <- [DW_OP_plus_uconst 32] [$rbp+0]
	#DEBUG_VALUE: decrypt_detached:state <- [DW_OP_plus_uconst 144, DW_OP_deref] $rsp
	#DEBUG_VALUE: decrypt_detached:i <- $rax
	.loc	6 228 14 is_stmt 1              # crypto_aead/aegis128l/aegis128l_common.h:228:14
	movq	%r13, %rdx
	andq	$31, %rdx
	je	.LBB1_22
.Ltmp489:
# %bb.21:                               # %.sink.split
	#DEBUG_VALUE: decrypt_detached:m <- [DW_OP_plus_uconst 312] [$rsp+0]
	#DEBUG_VALUE: decrypt_detached:c <- [DW_OP_plus_uconst 136] [$rsp+0]
	#DEBUG_VALUE: decrypt_detached:clen <- [DW_OP_plus_uconst 376] [$rsp+0]
	#DEBUG_VALUE: decrypt_detached:mac <- [DW_OP_plus_uconst 368] [$rsp+0]
	#DEBUG_VALUE: decrypt_detached:maclen <- [DW_OP_plus_uconst 384] [$rsp+0]
	#DEBUG_VALUE: decrypt_detached:ad <- [DW_OP_plus_uconst 304] [$rsp+0]
	#DEBUG_VALUE: decrypt_detached:adlen <- [DW_OP_plus_uconst 16] [$rbp+0]
	#DEBUG_VALUE: decrypt_detached:npub <- [DW_OP_plus_uconst 24] [$rbp+0]
	#DEBUG_VALUE: decrypt_detached:k <- [DW_OP_plus_uconst 32] [$rbp+0]
	#DEBUG_VALUE: decrypt_detached:state <- [DW_OP_plus_uconst 144, DW_OP_deref] $rsp
	#DEBUG_VALUE: decrypt_detached:i <- $rax
	.loc	6 229 15                        # crypto_aead/aegis128l/aegis128l_common.h:229:15
	leaq	(%r12,%rax), %rcx
.Ltmp490:
	.loc	6 219 11                        # crypto_aead/aegis128l/aegis128l_common.h:219:11
	testq	%r12, %r12
	leaq	448(%rsp), %rdi
.Ltmp491:
	.loc	6 229 15                        # crypto_aead/aegis128l/aegis128l_common.h:229:15
	cmovneq	%rcx, %rdi
	.loc	6 0 0 is_stmt 0                 # crypto_aead/aegis128l/aegis128l_common.h:0
	addq	%rax, %rsi
	leaq	144(%rsp), %rcx
	callq	aegis128l_declast
.Ltmp492:
.LBB1_22:
