	.file	"argon2-fill-block-ref.c"
	.file	0 "/home/leizhenyuu/opt/Anonymous_Repo/libsodium_o2_attr_inline/src/libsodium" "argon2-fill-block-ref.c" md5 0xdd372ed09ca313c54273986bc6724f4e
	.file	1 "crypto_pwhash/argon2" "argon2.h"
	.file	2 "crypto_pwhash/argon2" "argon2-core.h"
	.text
	.hidden	argon2_fill_segment_ref         # -- Begin function argon2_fill_segment_ref
	.globl	argon2_fill_segment_ref
	.p2align	4
	.type	argon2_fill_segment_ref,@function
argon2_fill_segment_ref:                # @argon2_fill_segment_ref
.Lfunc_begin0:
	.cfi_startproc
# %bb.0:
	#DEBUG_VALUE: argon2_fill_segment_ref:position <- [DW_OP_constu 8, DW_OP_shr, DW_OP_LLVM_convert 64 7, DW_OP_LLVM_convert 24 7, DW_OP_stack_value, DW_OP_LLVM_fragment 72 24] $rdx
	#DEBUG_VALUE: argon2_fill_segment_ref:instance <- $rdi
	#DEBUG_VALUE: memcpy:__src <- [DW_OP_plus_uconst 1208, DW_OP_stack_value] $rsp
	#DEBUG_VALUE: copy_block:src <- [DW_OP_plus_uconst 1208, DW_OP_stack_value] $rsp
	#DEBUG_VALUE: memcpy:__dest <- [DW_OP_plus_uconst 1208, DW_OP_stack_value] $rsp
	#DEBUG_VALUE: copy_block:dst <- [DW_OP_plus_uconst 1208, DW_OP_stack_value] $rsp
	#DEBUG_VALUE: argon2_fill_segment_ref:position <- [DW_OP_LLVM_fragment 32 32] undef
	#DEBUG_VALUE: argon2_fill_segment_ref:position <- [DW_OP_LLVM_fragment 0 32] $esi
	#DEBUG_VALUE: argon2_fill_segment_ref:position <- [DW_OP_LLVM_fragment 64 8] $dl
	#DEBUG_VALUE: argon2_fill_segment_ref:position <- [DW_OP_constu 32, DW_OP_shr, DW_OP_LLVM_convert 64 7, DW_OP_LLVM_convert 32 7, DW_OP_stack_value, DW_OP_LLVM_fragment 96 32] $rdx
	#DEBUG_VALUE: argon2_fill_segment_ref:ref_block <- 0
	#DEBUG_VALUE: argon2_fill_segment_ref:curr_block <- 0
	#DEBUG_VALUE: argon2_fill_segment_ref:pseudo_rands <- 0
	#DEBUG_VALUE: argon2_fill_segment_ref:data_independent_addressing <- 1
	.file	3 "crypto_pwhash/argon2" "argon2-fill-block-ref.c"
	.loc	3 156 18 prologue_end           # crypto_pwhash/argon2/argon2-fill-block-ref.c:156:18
	testq	%rdi, %rdi
	je	.LBB0_52
.Ltmp0:
# %bb.1:
	#DEBUG_VALUE: argon2_fill_segment_ref:position <- [DW_OP_constu 8, DW_OP_shr, DW_OP_LLVM_convert 64 7, DW_OP_LLVM_convert 24 7, DW_OP_stack_value, DW_OP_LLVM_fragment 72 24] $rdx
	#DEBUG_VALUE: argon2_fill_segment_ref:instance <- $rdi
	#DEBUG_VALUE: argon2_fill_segment_ref:position <- [DW_OP_LLVM_fragment 0 32] $esi
	#DEBUG_VALUE: argon2_fill_segment_ref:position <- [DW_OP_LLVM_fragment 64 8] $dl
	#DEBUG_VALUE: argon2_fill_segment_ref:position <- [DW_OP_constu 32, DW_OP_shr, DW_OP_LLVM_convert 64 7, DW_OP_LLVM_convert 32 7, DW_OP_stack_value, DW_OP_LLVM_fragment 96 32] $rdx
	#DEBUG_VALUE: argon2_fill_segment_ref:ref_block <- 0
	#DEBUG_VALUE: argon2_fill_segment_ref:curr_block <- 0
	#DEBUG_VALUE: argon2_fill_segment_ref:pseudo_rands <- 0
	#DEBUG_VALUE: argon2_fill_segment_ref:data_independent_addressing <- 1
	pushq	%rbp
	.cfi_def_cfa_offset 16
	pushq	%r15
	.cfi_def_cfa_offset 24
	pushq	%r14
	.cfi_def_cfa_offset 32
	pushq	%r13
	.cfi_def_cfa_offset 40
	pushq	%r12
	.cfi_def_cfa_offset 48
	pushq	%rbx
	.cfi_def_cfa_offset 56
	subq	$4280, %rsp                     # imm = 0x10B8
	.cfi_def_cfa_offset 4336
	.cfi_offset %rbx, -56
	.cfi_offset %r12, -48
	.cfi_offset %r13, -40
	.cfi_offset %r14, -32
	.cfi_offset %r15, -24
	.cfi_offset %rbp, -16
	movq	%rdx, %r12
	movq	%rsi, %r13
	movq	%rdi, %rbp
	movq	%rsi, %rax
	shrq	$32, %rax
.Ltmp1:
	#DEBUG_VALUE: argon2_fill_segment_ref:position <- [DW_OP_LLVM_fragment 32 32] $eax
	.loc	3 0 18 is_stmt 0                # crypto_pwhash/argon2/argon2-fill-block-ref.c:0:18
	movq	%rax, 48(%rsp)                  # 8-byte Spill
.Ltmp2:
	.loc	3 160 19 is_stmt 1              # crypto_pwhash/argon2/argon2-fill-block-ref.c:160:19
	movl	44(%rdi), %ebx
	cmpq	$2, %rbx
	movq	%rdx, 32(%rsp)                  # 8-byte Spill
.Ltmp3:
	#DEBUG_VALUE: argon2_fill_segment_ref:position <- [DW_OP_plus_uconst 32, DW_OP_deref_size 8, DW_OP_constu 32, DW_OP_shr, DW_OP_LLVM_convert 64 7, DW_OP_LLVM_convert 32 7, DW_OP_stack_value, DW_OP_LLVM_fragment 96 32] $rsp
	#DEBUG_VALUE: argon2_fill_segment_ref:position <- [DW_OP_plus_uconst 32, DW_OP_deref_size 8, DW_OP_constu 8, DW_OP_shr, DW_OP_LLVM_convert 64 7, DW_OP_LLVM_convert 24 7, DW_OP_stack_value, DW_OP_LLVM_fragment 72 24] $rsp
	#DEBUG_VALUE: argon2_fill_segment_ref:position <- [DW_OP_plus_uconst 32, DW_OP_deref, DW_OP_LLVM_fragment 64 8] $rsp
	.loc	3 0 19 is_stmt 0                # crypto_pwhash/argon2/argon2-fill-block-ref.c:0:19
	movq	%rsi, 136(%rsp)                 # 8-byte Spill
.Ltmp4:
	#DEBUG_VALUE: argon2_fill_segment_ref:position <- [DW_OP_plus_uconst 136, DW_OP_deref, DW_OP_LLVM_fragment 0 32] $rsp
	movq	%rdi, 24(%rsp)                  # 8-byte Spill
.Ltmp5:
	#DEBUG_VALUE: argon2_fill_segment_ref:instance <- [DW_OP_plus_uconst 24] [$rsp+0]
	.loc	3 160 37                        # crypto_pwhash/argon2/argon2-fill-block-ref.c:160:37
	jne	.LBB0_4
.Ltmp6:
# %bb.2:
	#DEBUG_VALUE: argon2_fill_segment_ref:position <- [DW_OP_plus_uconst 32, DW_OP_deref_size 8, DW_OP_constu 8, DW_OP_shr, DW_OP_LLVM_convert 64 7, DW_OP_LLVM_convert 24 7, DW_OP_stack_value, DW_OP_LLVM_fragment 72 24] $rsp
	#DEBUG_VALUE: argon2_fill_segment_ref:instance <- [DW_OP_plus_uconst 24] [$rsp+0]
	#DEBUG_VALUE: argon2_fill_segment_ref:position <- [DW_OP_plus_uconst 48, DW_OP_deref, DW_OP_LLVM_fragment 32 32] $rsp
	#DEBUG_VALUE: argon2_fill_segment_ref:position <- [DW_OP_plus_uconst 136, DW_OP_deref, DW_OP_LLVM_fragment 0 32] $rsp
	#DEBUG_VALUE: argon2_fill_segment_ref:position <- [DW_OP_plus_uconst 32, DW_OP_deref, DW_OP_LLVM_fragment 64 8] $rsp
	#DEBUG_VALUE: argon2_fill_segment_ref:position <- [DW_OP_plus_uconst 32, DW_OP_deref_size 8, DW_OP_constu 32, DW_OP_shr, DW_OP_LLVM_convert 64 7, DW_OP_LLVM_convert 32 7, DW_OP_stack_value, DW_OP_LLVM_fragment 96 32] $rsp
	#DEBUG_VALUE: argon2_fill_segment_ref:ref_block <- 0
	#DEBUG_VALUE: argon2_fill_segment_ref:curr_block <- 0
	#DEBUG_VALUE: argon2_fill_segment_ref:pseudo_rands <- 0
	#DEBUG_VALUE: argon2_fill_segment_ref:data_independent_addressing <- 1
	.loc	3 161 24 is_stmt 1              # crypto_pwhash/argon2/argon2-fill-block-ref.c:161:24
	testl	%r13d, %r13d
	setne	%al
	cmpb	$2, %r12b
	setae	%cl
	.loc	3 161 29 is_stmt 0              # crypto_pwhash/argon2/argon2-fill-block-ref.c:161:29
	orb	%al, %cl
.Ltmp7:
	#DEBUG_VALUE: argon2_fill_segment_ref:data_independent_addressing <- undef
	.loc	3 165 30 is_stmt 1              # crypto_pwhash/argon2/argon2-fill-block-ref.c:165:30
	movq	8(%rbp), %rax
.Ltmp8:
	#DEBUG_VALUE: argon2_fill_segment_ref:pseudo_rands <- $rax
	.loc	3 0 30 is_stmt 0                # crypto_pwhash/argon2/argon2-fill-block-ref.c:0:30
	movq	%rax, 56(%rsp)                  # 8-byte Spill
.Ltmp9:
	#DEBUG_VALUE: argon2_fill_segment_ref:pseudo_rands <- [DW_OP_plus_uconst 56, DW_OP_deref] $rsp
	.loc	3 167 9 is_stmt 1               # crypto_pwhash/argon2/argon2-fill-block-ref.c:167:9
	cmpb	$1, %cl
	jne	.LBB0_5
.Ltmp10:
# %bb.3:                                # %._crit_edge
	#DEBUG_VALUE: argon2_fill_segment_ref:position <- [DW_OP_plus_uconst 32, DW_OP_deref_size 8, DW_OP_constu 8, DW_OP_shr, DW_OP_LLVM_convert 64 7, DW_OP_LLVM_convert 24 7, DW_OP_stack_value, DW_OP_LLVM_fragment 72 24] $rsp
	#DEBUG_VALUE: argon2_fill_segment_ref:instance <- [DW_OP_plus_uconst 24] [$rsp+0]
	#DEBUG_VALUE: argon2_fill_segment_ref:position <- [DW_OP_plus_uconst 48, DW_OP_deref, DW_OP_LLVM_fragment 32 32] $rsp
	#DEBUG_VALUE: argon2_fill_segment_ref:position <- [DW_OP_plus_uconst 136, DW_OP_deref, DW_OP_LLVM_fragment 0 32] $rsp
	#DEBUG_VALUE: argon2_fill_segment_ref:position <- [DW_OP_plus_uconst 32, DW_OP_deref, DW_OP_LLVM_fragment 64 8] $rsp
	#DEBUG_VALUE: argon2_fill_segment_ref:position <- [DW_OP_plus_uconst 32, DW_OP_deref_size 8, DW_OP_constu 32, DW_OP_shr, DW_OP_LLVM_convert 64 7, DW_OP_LLVM_convert 32 7, DW_OP_stack_value, DW_OP_LLVM_fragment 96 32] $rsp
	#DEBUG_VALUE: argon2_fill_segment_ref:ref_block <- 0
	#DEBUG_VALUE: argon2_fill_segment_ref:curr_block <- 0
	#DEBUG_VALUE: argon2_fill_segment_ref:pseudo_rands <- [DW_OP_plus_uconst 56, DW_OP_deref] $rsp
	.loc	3 189 44                        # crypto_pwhash/argon2/argon2-fill-block-ref.c:189:44
	movl	28(%rbp), %r14d
	movb	$1, %al
	movl	%eax, 20(%rsp)                  # 4-byte Spill
	jmp	.LBB0_12
.Ltmp11:
.LBB0_4:                                # %.thread
	#DEBUG_VALUE: argon2_fill_segment_ref:position <- [DW_OP_plus_uconst 32, DW_OP_deref_size 8, DW_OP_constu 8, DW_OP_shr, DW_OP_LLVM_convert 64 7, DW_OP_LLVM_convert 24 7, DW_OP_stack_value, DW_OP_LLVM_fragment 72 24] $rsp
	#DEBUG_VALUE: argon2_fill_segment_ref:instance <- [DW_OP_plus_uconst 24] [$rsp+0]
	#DEBUG_VALUE: argon2_fill_segment_ref:position <- [DW_OP_plus_uconst 48, DW_OP_deref, DW_OP_LLVM_fragment 32 32] $rsp
	#DEBUG_VALUE: argon2_fill_segment_ref:position <- [DW_OP_plus_uconst 136, DW_OP_deref, DW_OP_LLVM_fragment 0 32] $rsp
	#DEBUG_VALUE: argon2_fill_segment_ref:position <- [DW_OP_plus_uconst 32, DW_OP_deref, DW_OP_LLVM_fragment 64 8] $rsp
	#DEBUG_VALUE: argon2_fill_segment_ref:position <- [DW_OP_plus_uconst 32, DW_OP_deref_size 8, DW_OP_constu 32, DW_OP_shr, DW_OP_LLVM_convert 64 7, DW_OP_LLVM_convert 32 7, DW_OP_stack_value, DW_OP_LLVM_fragment 96 32] $rsp
	#DEBUG_VALUE: argon2_fill_segment_ref:ref_block <- 0
	#DEBUG_VALUE: argon2_fill_segment_ref:curr_block <- 0
	#DEBUG_VALUE: argon2_fill_segment_ref:pseudo_rands <- 0
	#DEBUG_VALUE: argon2_fill_segment_ref:data_independent_addressing <- 1
	#DEBUG_VALUE: argon2_fill_segment_ref:data_independent_addressing <- undef
	.loc	3 165 30                        # crypto_pwhash/argon2/argon2-fill-block-ref.c:165:30
	movq	8(%rbp), %rax
.Ltmp12:
	#DEBUG_VALUE: argon2_fill_segment_ref:pseudo_rands <- $rax
	.loc	3 0 30 is_stmt 0                # crypto_pwhash/argon2/argon2-fill-block-ref.c:0:30
	movq	%rax, 56(%rsp)                  # 8-byte Spill
.Ltmp13:
	#DEBUG_VALUE: argon2_fill_segment_ref:pseudo_rands <- [DW_OP_plus_uconst 56, DW_OP_deref] $rsp
.LBB0_5:
	#DEBUG_VALUE: argon2_fill_segment_ref:position <- [DW_OP_plus_uconst 32, DW_OP_deref_size 8, DW_OP_constu 8, DW_OP_shr, DW_OP_LLVM_convert 64 7, DW_OP_LLVM_convert 24 7, DW_OP_stack_value, DW_OP_LLVM_fragment 72 24] $rsp
	#DEBUG_VALUE: argon2_fill_segment_ref:instance <- [DW_OP_plus_uconst 24] [$rsp+0]
	#DEBUG_VALUE: argon2_fill_segment_ref:position <- [DW_OP_plus_uconst 48, DW_OP_deref, DW_OP_LLVM_fragment 32 32] $rsp
	#DEBUG_VALUE: argon2_fill_segment_ref:position <- [DW_OP_plus_uconst 136, DW_OP_deref, DW_OP_LLVM_fragment 0 32] $rsp
	#DEBUG_VALUE: argon2_fill_segment_ref:position <- [DW_OP_plus_uconst 32, DW_OP_deref, DW_OP_LLVM_fragment 64 8] $rsp
	#DEBUG_VALUE: argon2_fill_segment_ref:position <- [DW_OP_plus_uconst 32, DW_OP_deref_size 8, DW_OP_constu 32, DW_OP_shr, DW_OP_LLVM_convert 64 7, DW_OP_LLVM_convert 32 7, DW_OP_stack_value, DW_OP_LLVM_fragment 96 32] $rsp
	#DEBUG_VALUE: argon2_fill_segment_ref:ref_block <- 0
	#DEBUG_VALUE: argon2_fill_segment_ref:curr_block <- 0
	#DEBUG_VALUE: argon2_fill_segment_ref:pseudo_rands <- $rax
	#DEBUG_VALUE: generate_addresses:tmp_block <- [DW_OP_plus_uconst 3256, DW_OP_deref] $rsp
	#DEBUG_VALUE: generate_addresses:instance <- [DW_OP_plus_uconst 24, DW_OP_deref] $rsp
	#DEBUG_VALUE: generate_addresses:position <- undef
	#DEBUG_VALUE: generate_addresses:pseudo_rands <- [DW_OP_plus_uconst 56, DW_OP_deref] $rsp
	#DEBUG_VALUE: init_block_value:b <- [DW_OP_plus_uconst 184, DW_OP_stack_value] $rsp
	#DEBUG_VALUE: init_block_value:in <- 0
	#DEBUG_VALUE: memset:__dest <- [DW_OP_plus_uconst 184, DW_OP_stack_value] $rsp
	#DEBUG_VALUE: memset:__ch <- 0
	#DEBUG_VALUE: memset:__len <- 1024
	leaq	184(%rsp), %rdi
	xorl	%r14d, %r14d
.Ltmp14:
	.file	4 "/usr/include/x86_64-linux-gnu/bits" "string_fortified.h"
	.loc	4 59 10 is_stmt 1               # /usr/include/x86_64-linux-gnu/bits/string_fortified.h:59:10 @[ crypto_pwhash/argon2/argon2-core.h:69:5 @[ crypto_pwhash/argon2/argon2-fill-block-ref.c:118:5 @[ crypto_pwhash/argon2/argon2-fill-block-ref.c:168:9 ] ] ]
	movl	$1024, %edx                     # imm = 0x400
	xorl	%esi, %esi
	callq	memset@PLT
.Ltmp15:
	#DEBUG_VALUE: init_block_value:b <- [DW_OP_plus_uconst 1208, DW_OP_stack_value] $rsp
	#DEBUG_VALUE: init_block_value:in <- 0
	#DEBUG_VALUE: memset:__dest <- [DW_OP_plus_uconst 1208, DW_OP_stack_value] $rsp
	#DEBUG_VALUE: memset:__ch <- 0
	#DEBUG_VALUE: memset:__len <- 1024
	.loc	4 59 10 is_stmt 0               # /usr/include/x86_64-linux-gnu/bits/string_fortified.h:59:10 @[ crypto_pwhash/argon2/argon2-core.h:69:5 @[ crypto_pwhash/argon2/argon2-fill-block-ref.c:119:5 @[ crypto_pwhash/argon2/argon2-fill-block-ref.c:168:9 ] ] ]
	leaq	1264(%rsp), %rdi
	movl	$968, %edx                      # imm = 0x3C8
	xorl	%esi, %esi
	callq	memset@PLT
.Ltmp16:
	.loc	3 122 28 is_stmt 1              # crypto_pwhash/argon2/argon2-fill-block-ref.c:122:28 @[ crypto_pwhash/argon2/argon2-fill-block-ref.c:168:9 ]
	movl	%r13d, %eax
	.loc	3 122 26 is_stmt 0              # crypto_pwhash/argon2/argon2-fill-block-ref.c:122:26 @[ crypto_pwhash/argon2/argon2-fill-block-ref.c:168:9 ]
	movq	%rax, 1208(%rsp)
	movq	48(%rsp), %rax                  # 8-byte Reload
	.loc	3 123 26 is_stmt 1              # crypto_pwhash/argon2/argon2-fill-block-ref.c:123:26 @[ crypto_pwhash/argon2/argon2-fill-block-ref.c:168:9 ]
	movq	%rax, 1216(%rsp)
	.loc	3 124 28                        # crypto_pwhash/argon2/argon2-fill-block-ref.c:124:28 @[ crypto_pwhash/argon2/argon2-fill-block-ref.c:168:9 ]
	movzbl	%r12b, %eax
	.loc	3 124 26 is_stmt 0              # crypto_pwhash/argon2/argon2-fill-block-ref.c:124:26 @[ crypto_pwhash/argon2/argon2-fill-block-ref.c:168:9 ]
	movq	%rax, 1224(%rsp)
	.loc	3 125 38 is_stmt 1              # crypto_pwhash/argon2/argon2-fill-block-ref.c:125:38 @[ crypto_pwhash/argon2/argon2-fill-block-ref.c:168:9 ]
	movl	24(%rbp), %eax
	.loc	3 125 26 is_stmt 0              # crypto_pwhash/argon2/argon2-fill-block-ref.c:125:26 @[ crypto_pwhash/argon2/argon2-fill-block-ref.c:168:9 ]
	movq	%rax, 1232(%rsp)
	.loc	3 126 38 is_stmt 1              # crypto_pwhash/argon2/argon2-fill-block-ref.c:126:38 @[ crypto_pwhash/argon2/argon2-fill-block-ref.c:168:9 ]
	movl	16(%rbp), %eax
	.loc	3 126 26 is_stmt 0              # crypto_pwhash/argon2/argon2-fill-block-ref.c:126:26 @[ crypto_pwhash/argon2/argon2-fill-block-ref.c:168:9 ]
	movq	%rax, 1240(%rsp)
	.loc	3 127 26 is_stmt 1              # crypto_pwhash/argon2/argon2-fill-block-ref.c:127:26 @[ crypto_pwhash/argon2/argon2-fill-block-ref.c:168:9 ]
	movq	%rbx, 1248(%rsp)
.Ltmp17:
	#DEBUG_VALUE: generate_addresses:i <- 0
	.loc	3 129 23                        # crypto_pwhash/argon2/argon2-fill-block-ref.c:129:23 @[ crypto_pwhash/argon2/argon2-fill-block-ref.c:168:9 ]
	cmpl	$0, 28(%rbp)
.Ltmp18:
	.loc	3 129 9 is_stmt 0               # crypto_pwhash/argon2/argon2-fill-block-ref.c:129:9 @[ crypto_pwhash/argon2/argon2-fill-block-ref.c:168:9 ]
	je	.LBB0_11
.Ltmp19:
# %bb.6:                                # %.lr.ph.i
	#DEBUG_VALUE: argon2_fill_segment_ref:position <- [DW_OP_plus_uconst 32, DW_OP_deref_size 8, DW_OP_constu 8, DW_OP_shr, DW_OP_LLVM_convert 64 7, DW_OP_LLVM_convert 24 7, DW_OP_stack_value, DW_OP_LLVM_fragment 72 24] $rsp
	#DEBUG_VALUE: argon2_fill_segment_ref:instance <- [DW_OP_plus_uconst 24] [$rsp+0]
	#DEBUG_VALUE: argon2_fill_segment_ref:position <- [DW_OP_plus_uconst 48, DW_OP_deref, DW_OP_LLVM_fragment 32 32] $rsp
	#DEBUG_VALUE: argon2_fill_segment_ref:position <- [DW_OP_plus_uconst 136, DW_OP_deref, DW_OP_LLVM_fragment 0 32] $rsp
	#DEBUG_VALUE: argon2_fill_segment_ref:position <- [DW_OP_plus_uconst 32, DW_OP_deref, DW_OP_LLVM_fragment 64 8] $rsp
	#DEBUG_VALUE: argon2_fill_segment_ref:position <- [DW_OP_plus_uconst 32, DW_OP_deref_size 8, DW_OP_constu 32, DW_OP_shr, DW_OP_LLVM_convert 64 7, DW_OP_LLVM_convert 32 7, DW_OP_stack_value, DW_OP_LLVM_fragment 96 32] $rsp
	#DEBUG_VALUE: argon2_fill_segment_ref:ref_block <- 0
	#DEBUG_VALUE: argon2_fill_segment_ref:curr_block <- 0
	#DEBUG_VALUE: generate_addresses:tmp_block <- [DW_OP_plus_uconst 3256, DW_OP_deref] $rsp
	#DEBUG_VALUE: generate_addresses:instance <- [DW_OP_plus_uconst 24, DW_OP_deref] $rsp
	#DEBUG_VALUE: generate_addresses:pseudo_rands <- [DW_OP_plus_uconst 56, DW_OP_deref] $rsp
	#DEBUG_VALUE: init_block_value:b <- [DW_OP_plus_uconst 184, DW_OP_stack_value] $rsp
	#DEBUG_VALUE: init_block_value:in <- 0
	#DEBUG_VALUE: memset:__dest <- [DW_OP_plus_uconst 184, DW_OP_stack_value] $rsp
	#DEBUG_VALUE: memset:__ch <- 0
	#DEBUG_VALUE: memset:__len <- 1024
	#DEBUG_VALUE: init_block_value:b <- [DW_OP_plus_uconst 1208, DW_OP_stack_value] $rsp
	#DEBUG_VALUE: init_block_value:in <- 0
	#DEBUG_VALUE: memset:__dest <- [DW_OP_plus_uconst 1208, DW_OP_stack_value] $rsp
	#DEBUG_VALUE: memset:__ch <- 0
	#DEBUG_VALUE: memset:__len <- 1024
	#DEBUG_VALUE: generate_addresses:i <- 0
	.loc	3 0 9                           # crypto_pwhash/argon2/argon2-fill-block-ref.c:0:9
	xorl	%r15d, %r15d
	leaq	3256(%rsp), %r12
	leaq	2232(%rsp), %r13
	leaq	184(%rsp), %rbp
	xorl	%ebx, %ebx
	jmp	.LBB0_8
.Ltmp20:
	.p2align	4
.LBB0_7:                                #   in Loop: Header=BB0_8 Depth=1
	#DEBUG_VALUE: argon2_fill_segment_ref:position <- [DW_OP_plus_uconst 32, DW_OP_deref_size 8, DW_OP_constu 8, DW_OP_shr, DW_OP_LLVM_convert 64 7, DW_OP_LLVM_convert 24 7, DW_OP_stack_value, DW_OP_LLVM_fragment 72 24] $rsp
	#DEBUG_VALUE: argon2_fill_segment_ref:instance <- [DW_OP_plus_uconst 24] [$rsp+0]
	#DEBUG_VALUE: argon2_fill_segment_ref:position <- [DW_OP_plus_uconst 48, DW_OP_deref, DW_OP_LLVM_fragment 32 32] $rsp
	#DEBUG_VALUE: argon2_fill_segment_ref:position <- [DW_OP_plus_uconst 136, DW_OP_deref, DW_OP_LLVM_fragment 0 32] $rsp
	#DEBUG_VALUE: argon2_fill_segment_ref:position <- [DW_OP_plus_uconst 32, DW_OP_deref, DW_OP_LLVM_fragment 64 8] $rsp
	#DEBUG_VALUE: argon2_fill_segment_ref:position <- [DW_OP_plus_uconst 32, DW_OP_deref_size 8, DW_OP_constu 32, DW_OP_shr, DW_OP_LLVM_convert 64 7, DW_OP_LLVM_convert 32 7, DW_OP_stack_value, DW_OP_LLVM_fragment 96 32] $rsp
	#DEBUG_VALUE: argon2_fill_segment_ref:ref_block <- 0
	#DEBUG_VALUE: argon2_fill_segment_ref:curr_block <- 0
	#DEBUG_VALUE: generate_addresses:instance <- [DW_OP_plus_uconst 24, DW_OP_deref] $rsp
	#DEBUG_VALUE: generate_addresses:pseudo_rands <- [DW_OP_plus_uconst 56, DW_OP_deref] $rsp
	#DEBUG_VALUE: generate_addresses:i <- $r15
	.loc	3 138 31 is_stmt 1              # crypto_pwhash/argon2/argon2-fill-block-ref.c:138:31 @[ crypto_pwhash/argon2/argon2-fill-block-ref.c:168:9 ]
	movq	2232(%rsp,%r14,8), %rax
	movq	56(%rsp), %rcx                  # 8-byte Reload
	.loc	3 138 29 is_stmt 0              # crypto_pwhash/argon2/argon2-fill-block-ref.c:138:29 @[ crypto_pwhash/argon2/argon2-fill-block-ref.c:168:9 ]
	movq	%rax, (%rcx,%r15,8)
.Ltmp21:
	.loc	3 129 51 is_stmt 1              # crypto_pwhash/argon2/argon2-fill-block-ref.c:129:51 @[ crypto_pwhash/argon2/argon2-fill-block-ref.c:168:9 ]
	incq	%r15
.Ltmp22:
	#DEBUG_VALUE: generate_addresses:i <- $r15
	.loc	3 0 51 is_stmt 0                # crypto_pwhash/argon2/argon2-fill-block-ref.c:0:51
	movq	24(%rsp), %rax                  # 8-byte Reload
	.loc	3 129 35                        # crypto_pwhash/argon2/argon2-fill-block-ref.c:129:35 @[ crypto_pwhash/argon2/argon2-fill-block-ref.c:168:9 ]
	movl	28(%rax), %r14d
	.loc	3 129 23                        # crypto_pwhash/argon2/argon2-fill-block-ref.c:129:23 @[ crypto_pwhash/argon2/argon2-fill-block-ref.c:168:9 ]
	cmpq	%r14, %r15
.Ltmp23:
	.loc	3 129 9                         # crypto_pwhash/argon2/argon2-fill-block-ref.c:129:9 @[ crypto_pwhash/argon2/argon2-fill-block-ref.c:168:9 ]
	jae	.LBB0_10
.Ltmp24:
.LBB0_8:                                # =>This Inner Loop Header: Depth=1
	#DEBUG_VALUE: argon2_fill_segment_ref:position <- [DW_OP_plus_uconst 32, DW_OP_deref_size 8, DW_OP_constu 8, DW_OP_shr, DW_OP_LLVM_convert 64 7, DW_OP_LLVM_convert 24 7, DW_OP_stack_value, DW_OP_LLVM_fragment 72 24] $rsp
	#DEBUG_VALUE: argon2_fill_segment_ref:instance <- [DW_OP_plus_uconst 24] [$rsp+0]
	#DEBUG_VALUE: argon2_fill_segment_ref:position <- [DW_OP_plus_uconst 48, DW_OP_deref, DW_OP_LLVM_fragment 32 32] $rsp
	#DEBUG_VALUE: argon2_fill_segment_ref:position <- [DW_OP_plus_uconst 136, DW_OP_deref, DW_OP_LLVM_fragment 0 32] $rsp
	#DEBUG_VALUE: argon2_fill_segment_ref:position <- [DW_OP_plus_uconst 32, DW_OP_deref, DW_OP_LLVM_fragment 64 8] $rsp
	#DEBUG_VALUE: argon2_fill_segment_ref:position <- [DW_OP_plus_uconst 32, DW_OP_deref_size 8, DW_OP_constu 32, DW_OP_shr, DW_OP_LLVM_convert 64 7, DW_OP_LLVM_convert 32 7, DW_OP_stack_value, DW_OP_LLVM_fragment 96 32] $rsp
	#DEBUG_VALUE: argon2_fill_segment_ref:ref_block <- 0
	#DEBUG_VALUE: argon2_fill_segment_ref:curr_block <- 0
	#DEBUG_VALUE: generate_addresses:instance <- [DW_OP_plus_uconst 24, DW_OP_deref] $rsp
	#DEBUG_VALUE: generate_addresses:pseudo_rands <- [DW_OP_plus_uconst 56, DW_OP_deref] $rsp
	#DEBUG_VALUE: generate_addresses:i <- $r15
	.loc	3 130 47 is_stmt 1              # crypto_pwhash/argon2/argon2-fill-block-ref.c:130:47 @[ crypto_pwhash/argon2/argon2-fill-block-ref.c:168:9 ]
	movq	%r15, %r14
	andq	$127, %r14
	jne	.LBB0_7
.Ltmp25:
# %bb.9:                                #   in Loop: Header=BB0_8 Depth=1
	#DEBUG_VALUE: argon2_fill_segment_ref:position <- [DW_OP_plus_uconst 32, DW_OP_deref_size 8, DW_OP_constu 8, DW_OP_shr, DW_OP_LLVM_convert 64 7, DW_OP_LLVM_convert 24 7, DW_OP_stack_value, DW_OP_LLVM_fragment 72 24] $rsp
	#DEBUG_VALUE: argon2_fill_segment_ref:instance <- [DW_OP_plus_uconst 24] [$rsp+0]
	#DEBUG_VALUE: argon2_fill_segment_ref:position <- [DW_OP_plus_uconst 48, DW_OP_deref, DW_OP_LLVM_fragment 32 32] $rsp
	#DEBUG_VALUE: argon2_fill_segment_ref:position <- [DW_OP_plus_uconst 136, DW_OP_deref, DW_OP_LLVM_fragment 0 32] $rsp
	#DEBUG_VALUE: argon2_fill_segment_ref:position <- [DW_OP_plus_uconst 32, DW_OP_deref, DW_OP_LLVM_fragment 64 8] $rsp
	#DEBUG_VALUE: argon2_fill_segment_ref:position <- [DW_OP_plus_uconst 32, DW_OP_deref_size 8, DW_OP_constu 32, DW_OP_shr, DW_OP_LLVM_convert 64 7, DW_OP_LLVM_convert 32 7, DW_OP_stack_value, DW_OP_LLVM_fragment 96 32] $rsp
	#DEBUG_VALUE: argon2_fill_segment_ref:ref_block <- 0
	#DEBUG_VALUE: argon2_fill_segment_ref:curr_block <- 0
	#DEBUG_VALUE: generate_addresses:instance <- [DW_OP_plus_uconst 24, DW_OP_deref] $rsp
	#DEBUG_VALUE: generate_addresses:pseudo_rands <- [DW_OP_plus_uconst 56, DW_OP_deref] $rsp
	#DEBUG_VALUE: generate_addresses:i <- $r15
	.loc	3 131 33                        # crypto_pwhash/argon2/argon2-fill-block-ref.c:131:33 @[ crypto_pwhash/argon2/argon2-fill-block-ref.c:168:9 ]
	incq	%rbx
	movq	%rbx, 1256(%rsp)
.Ltmp26:
	#DEBUG_VALUE: init_block_value:b <- [DW_OP_plus_uconst 3256, DW_OP_stack_value] $rsp
	#DEBUG_VALUE: init_block_value:in <- 0
	#DEBUG_VALUE: memset:__dest <- [DW_OP_plus_uconst 3256, DW_OP_stack_value] $rsp
	#DEBUG_VALUE: memset:__ch <- 0
	#DEBUG_VALUE: memset:__len <- 1024
	.loc	4 59 10                         # /usr/include/x86_64-linux-gnu/bits/string_fortified.h:59:10 @[ crypto_pwhash/argon2/argon2-core.h:69:5 @[ crypto_pwhash/argon2/argon2-fill-block-ref.c:132:17 @[ crypto_pwhash/argon2/argon2-fill-block-ref.c:168:9 ] ] ]
	movl	$1024, %edx                     # imm = 0x400
	movq	%r12, %rdi
	xorl	%esi, %esi
	callq	memset@PLT
.Ltmp27:
	#DEBUG_VALUE: generate_addresses:tmp_block <- [DW_OP_plus_uconst 3256, DW_OP_deref] $rsp
	#DEBUG_VALUE: init_block_value:b <- [DW_OP_plus_uconst 2232, DW_OP_stack_value] $rsp
	#DEBUG_VALUE: init_block_value:in <- 0
	#DEBUG_VALUE: memset:__dest <- [DW_OP_plus_uconst 2232, DW_OP_stack_value] $rsp
	#DEBUG_VALUE: memset:__ch <- 0
	#DEBUG_VALUE: memset:__len <- 1024
	.loc	4 59 10 is_stmt 0               # /usr/include/x86_64-linux-gnu/bits/string_fortified.h:59:10 @[ crypto_pwhash/argon2/argon2-core.h:69:5 @[ crypto_pwhash/argon2/argon2-fill-block-ref.c:133:17 @[ crypto_pwhash/argon2/argon2-fill-block-ref.c:168:9 ] ] ]
	movl	$1024, %edx                     # imm = 0x400
	movq	%r13, %rdi
	xorl	%esi, %esi
	callq	memset@PLT
.Ltmp28:
	.loc	3 134 17 is_stmt 1              # crypto_pwhash/argon2/argon2-fill-block-ref.c:134:17 @[ crypto_pwhash/argon2/argon2-fill-block-ref.c:168:9 ]
	movq	%rbp, %rdi
	leaq	1208(%rsp), %rsi
	movq	%r12, %rdx
	callq	fill_block_with_xor
.Ltmp29:
	.loc	3 135 17                        # crypto_pwhash/argon2/argon2-fill-block-ref.c:135:17 @[ crypto_pwhash/argon2/argon2-fill-block-ref.c:168:9 ]
	movq	%rbp, %rdi
	movq	%r12, %rsi
	movq	%r13, %rdx
	callq	fill_block_with_xor
.Ltmp30:
	.loc	3 0 17 is_stmt 0                # crypto_pwhash/argon2/argon2-fill-block-ref.c:0:17
	jmp	.LBB0_7
.Ltmp31:
.LBB0_10:
	#DEBUG_VALUE: argon2_fill_segment_ref:position <- [DW_OP_plus_uconst 32, DW_OP_deref_size 8, DW_OP_constu 8, DW_OP_shr, DW_OP_LLVM_convert 64 7, DW_OP_LLVM_convert 24 7, DW_OP_stack_value, DW_OP_LLVM_fragment 72 24] $rsp
	#DEBUG_VALUE: argon2_fill_segment_ref:instance <- [DW_OP_plus_uconst 24] [$rsp+0]
	#DEBUG_VALUE: argon2_fill_segment_ref:position <- [DW_OP_plus_uconst 48, DW_OP_deref, DW_OP_LLVM_fragment 32 32] $rsp
	#DEBUG_VALUE: argon2_fill_segment_ref:position <- [DW_OP_plus_uconst 136, DW_OP_deref, DW_OP_LLVM_fragment 0 32] $rsp
	#DEBUG_VALUE: argon2_fill_segment_ref:position <- [DW_OP_plus_uconst 32, DW_OP_deref, DW_OP_LLVM_fragment 64 8] $rsp
	#DEBUG_VALUE: argon2_fill_segment_ref:position <- [DW_OP_plus_uconst 32, DW_OP_deref_size 8, DW_OP_constu 32, DW_OP_shr, DW_OP_LLVM_convert 64 7, DW_OP_LLVM_convert 32 7, DW_OP_stack_value, DW_OP_LLVM_fragment 96 32] $rsp
	#DEBUG_VALUE: argon2_fill_segment_ref:ref_block <- 0
	#DEBUG_VALUE: argon2_fill_segment_ref:curr_block <- 0
	#DEBUG_VALUE: generate_addresses:instance <- [DW_OP_plus_uconst 24, DW_OP_deref] $rsp
	#DEBUG_VALUE: generate_addresses:pseudo_rands <- [DW_OP_plus_uconst 56, DW_OP_deref] $rsp
	#DEBUG_VALUE: generate_addresses:i <- $r15
	movq	32(%rsp), %r12                  # 8-byte Reload
	movq	136(%rsp), %r13                 # 8-byte Reload
	movq	24(%rsp), %rbp                  # 8-byte Reload
.Ltmp32:
.LBB0_11:                               # %generate_addresses.exit
	#DEBUG_VALUE: argon2_fill_segment_ref:position <- [DW_OP_plus_uconst 32, DW_OP_deref_size 8, DW_OP_constu 8, DW_OP_shr, DW_OP_LLVM_convert 64 7, DW_OP_LLVM_convert 24 7, DW_OP_stack_value, DW_OP_LLVM_fragment 72 24] $rsp
	#DEBUG_VALUE: argon2_fill_segment_ref:instance <- [DW_OP_plus_uconst 24] [$rsp+0]
	#DEBUG_VALUE: argon2_fill_segment_ref:position <- [DW_OP_plus_uconst 48, DW_OP_deref, DW_OP_LLVM_fragment 32 32] $rsp
	#DEBUG_VALUE: argon2_fill_segment_ref:position <- [DW_OP_plus_uconst 136, DW_OP_deref, DW_OP_LLVM_fragment 0 32] $rsp
	#DEBUG_VALUE: argon2_fill_segment_ref:position <- [DW_OP_plus_uconst 32, DW_OP_deref, DW_OP_LLVM_fragment 64 8] $rsp
	#DEBUG_VALUE: argon2_fill_segment_ref:position <- [DW_OP_plus_uconst 32, DW_OP_deref_size 8, DW_OP_constu 32, DW_OP_shr, DW_OP_LLVM_convert 64 7, DW_OP_LLVM_convert 32 7, DW_OP_stack_value, DW_OP_LLVM_fragment 96 32] $rsp
	#DEBUG_VALUE: argon2_fill_segment_ref:ref_block <- 0
	#DEBUG_VALUE: argon2_fill_segment_ref:curr_block <- 0
	#DEBUG_VALUE: generate_addresses:instance <- [DW_OP_plus_uconst 24, DW_OP_deref] $rsp
	#DEBUG_VALUE: generate_addresses:pseudo_rands <- [DW_OP_plus_uconst 56, DW_OP_deref] $rsp
	#DEBUG_VALUE: init_block_value:b <- [DW_OP_plus_uconst 184, DW_OP_stack_value] $rsp
	#DEBUG_VALUE: init_block_value:in <- 0
	#DEBUG_VALUE: memset:__dest <- [DW_OP_plus_uconst 184, DW_OP_stack_value] $rsp
	#DEBUG_VALUE: memset:__ch <- 0
	#DEBUG_VALUE: memset:__len <- 1024
	#DEBUG_VALUE: init_block_value:b <- [DW_OP_plus_uconst 1208, DW_OP_stack_value] $rsp
	#DEBUG_VALUE: init_block_value:in <- 0
	#DEBUG_VALUE: memset:__dest <- [DW_OP_plus_uconst 1208, DW_OP_stack_value] $rsp
	#DEBUG_VALUE: memset:__ch <- 0
	#DEBUG_VALUE: memset:__len <- 1024
	movl	$0, 20(%rsp)                    # 4-byte Folded Spill
.Ltmp33:
.LBB0_12:
	#DEBUG_VALUE: argon2_fill_segment_ref:position <- [DW_OP_plus_uconst 32, DW_OP_deref_size 8, DW_OP_constu 8, DW_OP_shr, DW_OP_LLVM_convert 64 7, DW_OP_LLVM_convert 24 7, DW_OP_stack_value, DW_OP_LLVM_fragment 72 24] $rsp
	#DEBUG_VALUE: argon2_fill_segment_ref:instance <- [DW_OP_plus_uconst 24] [$rsp+0]
	#DEBUG_VALUE: argon2_fill_segment_ref:position <- [DW_OP_plus_uconst 48, DW_OP_deref, DW_OP_LLVM_fragment 32 32] $rsp
	#DEBUG_VALUE: argon2_fill_segment_ref:position <- [DW_OP_plus_uconst 136, DW_OP_deref, DW_OP_LLVM_fragment 0 32] $rsp
	#DEBUG_VALUE: argon2_fill_segment_ref:position <- [DW_OP_plus_uconst 32, DW_OP_deref, DW_OP_LLVM_fragment 64 8] $rsp
	#DEBUG_VALUE: argon2_fill_segment_ref:position <- [DW_OP_plus_uconst 32, DW_OP_deref_size 8, DW_OP_constu 32, DW_OP_shr, DW_OP_LLVM_convert 64 7, DW_OP_LLVM_convert 32 7, DW_OP_stack_value, DW_OP_LLVM_fragment 96 32] $rsp
	#DEBUG_VALUE: argon2_fill_segment_ref:ref_block <- 0
	#DEBUG_VALUE: argon2_fill_segment_ref:curr_block <- 0
	#DEBUG_VALUE: argon2_fill_segment_ref:starting_index <- 0
	.loc	3 173 12 is_stmt 1              # crypto_pwhash/argon2/argon2-fill-block-ref.c:173:12
	testl	%r13d, %r13d
	sete	%al
	testb	%r12b, %r12b
	sete	%cl
	.loc	3 173 30 is_stmt 0              # crypto_pwhash/argon2/argon2-fill-block-ref.c:173:30
	andb	%al, %cl
	movb	%cl, 15(%rsp)                   # 1-byte Spill
	movzbl	%cl, %esi
	addl	%esi, %esi
.Ltmp34:
	#DEBUG_VALUE: argon2_fill_segment_ref:starting_index <- $esi
	#DEBUG_VALUE: argon2_fill_segment_ref:i <- $esi
	#DEBUG_VALUE: argon2_fill_segment_ref:prev_offset <- undef
	#DEBUG_VALUE: argon2_fill_segment_ref:curr_offset <- undef
	.loc	3 189 32 is_stmt 1              # crypto_pwhash/argon2/argon2-fill-block-ref.c:189:32
	cmpl	%r14d, %esi
.Ltmp35:
	.loc	3 189 5 is_stmt 0               # crypto_pwhash/argon2/argon2-fill-block-ref.c:189:5
	jae	.LBB0_51
.Ltmp36:
# %bb.13:                               # %.lr.ph
	#DEBUG_VALUE: argon2_fill_segment_ref:position <- [DW_OP_plus_uconst 32, DW_OP_deref_size 8, DW_OP_constu 8, DW_OP_shr, DW_OP_LLVM_convert 64 7, DW_OP_LLVM_convert 24 7, DW_OP_stack_value, DW_OP_LLVM_fragment 72 24] $rsp
	#DEBUG_VALUE: argon2_fill_segment_ref:instance <- [DW_OP_plus_uconst 24] [$rsp+0]
	#DEBUG_VALUE: argon2_fill_segment_ref:position <- [DW_OP_plus_uconst 48, DW_OP_deref, DW_OP_LLVM_fragment 32 32] $rsp
	#DEBUG_VALUE: argon2_fill_segment_ref:position <- [DW_OP_plus_uconst 136, DW_OP_deref, DW_OP_LLVM_fragment 0 32] $rsp
	#DEBUG_VALUE: argon2_fill_segment_ref:position <- [DW_OP_plus_uconst 32, DW_OP_deref, DW_OP_LLVM_fragment 64 8] $rsp
	#DEBUG_VALUE: argon2_fill_segment_ref:position <- [DW_OP_plus_uconst 32, DW_OP_deref_size 8, DW_OP_constu 32, DW_OP_shr, DW_OP_LLVM_convert 64 7, DW_OP_LLVM_convert 32 7, DW_OP_stack_value, DW_OP_LLVM_fragment 96 32] $rsp
	#DEBUG_VALUE: argon2_fill_segment_ref:ref_block <- 0
	#DEBUG_VALUE: argon2_fill_segment_ref:curr_block <- 0
	#DEBUG_VALUE: argon2_fill_segment_ref:starting_index <- $esi
	#DEBUG_VALUE: argon2_fill_segment_ref:i <- $esi
	.loc	3 0 5                           # crypto_pwhash/argon2/argon2-fill-block-ref.c:0:5
	movzbl	%r12b, %r8d
	.loc	3 178 45 is_stmt 1              # crypto_pwhash/argon2/argon2-fill-block-ref.c:178:45
	movl	32(%rbp), %edi
	.loc	3 178 33 is_stmt 0              # crypto_pwhash/argon2/argon2-fill-block-ref.c:178:33
	movl	%edi, %eax
	imull	48(%rsp), %eax                  # 4-byte Folded Reload
	.loc	3 178 57                        # crypto_pwhash/argon2/argon2-fill-block-ref.c:178:57
	addl	%esi, %eax
.Ltmp37:
	#DEBUG_VALUE: argon2_fill_segment_ref:curr_offset <- [DW_OP_LLVM_arg 0, DW_OP_LLVM_arg 1, DW_OP_LLVM_arg 2, DW_OP_mul, DW_OP_plus, DW_OP_stack_value] $eax, $r14d, $r8d
	.loc	3 179 34 is_stmt 1              # crypto_pwhash/argon2/argon2-fill-block-ref.c:179:34
	movl	%r14d, %r9d
	imull	%r8d, %r9d
.Ltmp38:
	#DEBUG_VALUE: argon2_fill_segment_ref:curr_offset <- [DW_OP_LLVM_arg 0, DW_OP_LLVM_arg 1, DW_OP_plus, DW_OP_stack_value] $eax, $r9d
	.loc	3 179 61 is_stmt 0              # crypto_pwhash/argon2/argon2-fill-block-ref.c:179:61
	addl	%eax, %r9d
.Ltmp39:
	#DEBUG_VALUE: argon2_fill_segment_ref:curr_offset <- $r9d
	.loc	3 181 26 is_stmt 1              # crypto_pwhash/argon2/argon2-fill-block-ref.c:181:26
	movq	$0, 80(%rsp)                    # 8-byte Folded Spill
	movl	%r9d, %eax
	xorl	%edx, %edx
	divl	%edi
	.loc	3 181 11 is_stmt 0              # crypto_pwhash/argon2/argon2-fill-block-ref.c:181:11
	decl	%edi
	negl	%edx
	movl	$0, %ecx
	sbbl	%ecx, %ecx
	orl	%edi, %ecx
.Ltmp40:
	#DEBUG_VALUE: argon2_fill_segment_ref:prev_offset <- [DW_OP_LLVM_arg 0, DW_OP_LLVM_arg 1, DW_OP_plus, DW_OP_stack_value] $ecx, $r9d
	.loc	3 0 0                           # crypto_pwhash/argon2/argon2-fill-block-ref.c:0
	addl	%r9d, %ecx
.Ltmp41:
	#DEBUG_VALUE: argon2_fill_segment_ref:prev_offset <- $ecx
	movq	%r8, 152(%rsp)                  # 8-byte Spill
	leal	1(%r8), %eax
	movl	%eax, 132(%rsp)                 # 4-byte Spill
.Ltmp42:
	.loc	3 189 5 is_stmt 1               # crypto_pwhash/argon2/argon2-fill-block-ref.c:189:5
	movl	%esi, %r8d
	movq	%r9, 160(%rsp)                  # 8-byte Spill
.Ltmp43:
	#DEBUG_VALUE: argon2_fill_segment_ref:curr_offset <- [DW_OP_plus_uconst 160, DW_OP_deref] $rsp
                                        # kill: def $r9d killed $r9d killed $r9 def $r9
	.loc	3 0 5 is_stmt 0                 # crypto_pwhash/argon2/argon2-fill-block-ref.c:0:5
	jmp	.LBB0_16
.Ltmp44:
	.p2align	4
.LBB0_14:                               #   in Loop: Header=BB0_16 Depth=1
	#DEBUG_VALUE: argon2_fill_segment_ref:position <- [DW_OP_plus_uconst 32, DW_OP_deref_size 8, DW_OP_constu 8, DW_OP_shr, DW_OP_LLVM_convert 64 7, DW_OP_LLVM_convert 24 7, DW_OP_stack_value, DW_OP_LLVM_fragment 72 24] $rsp
	#DEBUG_VALUE: argon2_fill_segment_ref:instance <- [DW_OP_plus_uconst 24] [$rsp+0]
	#DEBUG_VALUE: argon2_fill_segment_ref:position <- [DW_OP_plus_uconst 48, DW_OP_deref, DW_OP_LLVM_fragment 32 32] $rsp
	#DEBUG_VALUE: argon2_fill_segment_ref:position <- [DW_OP_plus_uconst 136, DW_OP_deref, DW_OP_LLVM_fragment 0 32] $rsp
	#DEBUG_VALUE: argon2_fill_segment_ref:position <- [DW_OP_plus_uconst 32, DW_OP_deref, DW_OP_LLVM_fragment 64 8] $rsp
	#DEBUG_VALUE: argon2_fill_segment_ref:position <- [DW_OP_plus_uconst 72, DW_OP_deref_size 8, DW_OP_stack_value, DW_OP_LLVM_fragment 96 32] $rsp
	#DEBUG_VALUE: argon2_fill_segment_ref:ref_block <- $rsi
	#DEBUG_VALUE: argon2_fill_segment_ref:curr_block <- $rdx
	#DEBUG_VALUE: argon2_fill_segment_ref:i <- [DW_OP_plus_uconst 72, DW_OP_deref_size 8, DW_OP_stack_value] $rsp
	#DEBUG_VALUE: argon2_fill_segment_ref:prev_offset <- [DW_OP_plus_uconst 16, DW_OP_deref] $rsp
	#DEBUG_VALUE: argon2_fill_segment_ref:curr_offset <- [DW_OP_plus_uconst 64, DW_OP_deref] $rsp
	.loc	3 227 13 is_stmt 1              # crypto_pwhash/argon2/argon2-fill-block-ref.c:227:13
	movq	%rbx, %rdi
	callq	fill_block_with_xor
.Ltmp45:
	.loc	3 0 13 is_stmt 0                # crypto_pwhash/argon2/argon2-fill-block-ref.c:0:13
	movq	72(%rsp), %r8                   # 8-byte Reload
	movq	64(%rsp), %r9                   # 8-byte Reload
	movl	16(%rsp), %esi                  # 4-byte Reload
.Ltmp46:
.LBB0_15:                               #   in Loop: Header=BB0_16 Depth=1
	#DEBUG_VALUE: argon2_fill_segment_ref:position <- [DW_OP_plus_uconst 32, DW_OP_deref_size 8, DW_OP_constu 8, DW_OP_shr, DW_OP_LLVM_convert 64 7, DW_OP_LLVM_convert 24 7, DW_OP_stack_value, DW_OP_LLVM_fragment 72 24] $rsp
	#DEBUG_VALUE: argon2_fill_segment_ref:instance <- [DW_OP_plus_uconst 24] [$rsp+0]
	#DEBUG_VALUE: argon2_fill_segment_ref:position <- [DW_OP_plus_uconst 48, DW_OP_deref, DW_OP_LLVM_fragment 32 32] $rsp
	#DEBUG_VALUE: argon2_fill_segment_ref:position <- [DW_OP_plus_uconst 136, DW_OP_deref, DW_OP_LLVM_fragment 0 32] $rsp
	#DEBUG_VALUE: argon2_fill_segment_ref:position <- [DW_OP_plus_uconst 32, DW_OP_deref, DW_OP_LLVM_fragment 64 8] $rsp
	#DEBUG_VALUE: argon2_fill_segment_ref:position <- [DW_OP_plus_uconst 72, DW_OP_deref_size 8, DW_OP_stack_value, DW_OP_LLVM_fragment 96 32] $rsp
	#DEBUG_VALUE: argon2_fill_segment_ref:i <- [DW_OP_plus_uconst 72, DW_OP_deref_size 8, DW_OP_stack_value] $rsp
	#DEBUG_VALUE: argon2_fill_segment_ref:prev_offset <- [DW_OP_plus_uconst 16, DW_OP_deref] $rsp
	#DEBUG_VALUE: argon2_fill_segment_ref:curr_offset <- [DW_OP_plus_uconst 64, DW_OP_deref] $rsp
	.loc	3 190 10 is_stmt 1              # crypto_pwhash/argon2/argon2-fill-block-ref.c:190:10
	incq	%r8
.Ltmp47:
	#DEBUG_VALUE: argon2_fill_segment_ref:i <- $r8
	.loc	3 190 15 is_stmt 0              # crypto_pwhash/argon2/argon2-fill-block-ref.c:190:15
	incl	%r9d
.Ltmp48:
	#DEBUG_VALUE: argon2_fill_segment_ref:curr_offset <- $r9d
	.loc	3 190 30                        # crypto_pwhash/argon2/argon2-fill-block-ref.c:190:30
	incl	%esi
.Ltmp49:
	#DEBUG_VALUE: argon2_fill_segment_ref:prev_offset <- $esi
	.loc	3 189 44 is_stmt 1              # crypto_pwhash/argon2/argon2-fill-block-ref.c:189:44
	movl	28(%rbp), %r14d
	movq	80(%rsp), %rax                  # 8-byte Reload
.Ltmp50:
	.loc	3 189 5 is_stmt 0               # crypto_pwhash/argon2/argon2-fill-block-ref.c:189:5
	incl	%eax
	movq	%rax, 80(%rsp)                  # 8-byte Spill
	movl	%esi, %ecx
.Ltmp51:
	.loc	3 189 32                        # crypto_pwhash/argon2/argon2-fill-block-ref.c:189:32
	cmpq	%r14, %r8
.Ltmp52:
	.loc	3 189 5                         # crypto_pwhash/argon2/argon2-fill-block-ref.c:189:5
	jae	.LBB0_51
.Ltmp53:
.LBB0_16:                               # =>This Loop Header: Depth=1
                                        #     Child Loop BB0_41 Depth 2
                                        #     Child Loop BB0_39 Depth 2
                                        #     Child Loop BB0_43 Depth 2
                                        #     Child Loop BB0_45 Depth 2
                                        #     Child Loop BB0_50 Depth 2
                                        #     Child Loop BB0_48 Depth 2
	#DEBUG_VALUE: argon2_fill_segment_ref:position <- [DW_OP_plus_uconst 32, DW_OP_deref_size 8, DW_OP_constu 8, DW_OP_shr, DW_OP_LLVM_convert 64 7, DW_OP_LLVM_convert 24 7, DW_OP_stack_value, DW_OP_LLVM_fragment 72 24] $rsp
	#DEBUG_VALUE: argon2_fill_segment_ref:instance <- [DW_OP_plus_uconst 24] [$rsp+0]
	#DEBUG_VALUE: argon2_fill_segment_ref:position <- [DW_OP_plus_uconst 48, DW_OP_deref, DW_OP_LLVM_fragment 32 32] $rsp
	#DEBUG_VALUE: argon2_fill_segment_ref:position <- [DW_OP_plus_uconst 136, DW_OP_deref, DW_OP_LLVM_fragment 0 32] $rsp
	#DEBUG_VALUE: argon2_fill_segment_ref:position <- [DW_OP_plus_uconst 32, DW_OP_deref, DW_OP_LLVM_fragment 64 8] $rsp
	#DEBUG_VALUE: argon2_fill_segment_ref:prev_offset <- $ecx
	#DEBUG_VALUE: argon2_fill_segment_ref:curr_offset <- $r9d
	#DEBUG_VALUE: argon2_fill_segment_ref:i <- $r8
	#DEBUG_VALUE: argon2_fill_segment_ref:curr_offset <- $r9d
	#DEBUG_VALUE: argon2_fill_segment_ref:prev_offset <- $ecx
	.loc	3 192 37 is_stmt 1              # crypto_pwhash/argon2/argon2-fill-block-ref.c:192:37
	movl	32(%rbp), %edi
	.loc	3 192 25 is_stmt 0              # crypto_pwhash/argon2/argon2-fill-block-ref.c:192:25
	movl	%r9d, %eax
	xorl	%edx, %edx
	divl	%edi
	leal	-1(%r9), %eax
	.loc	3 192 49                        # crypto_pwhash/argon2/argon2-fill-block-ref.c:192:49
	cmpl	$1, %edx
	cmovnel	%ecx, %eax
.Ltmp54:
	#DEBUG_VALUE: argon2_fill_segment_ref:prev_offset <- $eax
	.loc	3 0 49                          # crypto_pwhash/argon2/argon2-fill-block-ref.c:0:49
	movl	%eax, %r15d
.Ltmp55:
	.loc	3 198 13 is_stmt 1              # crypto_pwhash/argon2/argon2-fill-block-ref.c:198:13
	cmpb	$0, 20(%rsp)                    # 1-byte Folded Reload
	movl	%eax, 16(%rsp)                  # 4-byte Spill
.Ltmp56:
	#DEBUG_VALUE: argon2_fill_segment_ref:prev_offset <- [DW_OP_plus_uconst 16, DW_OP_deref] $rsp
	je	.LBB0_18
.Ltmp57:
# %bb.17:                               #   in Loop: Header=BB0_16 Depth=1
	#DEBUG_VALUE: argon2_fill_segment_ref:position <- [DW_OP_plus_uconst 32, DW_OP_deref_size 8, DW_OP_constu 8, DW_OP_shr, DW_OP_LLVM_convert 64 7, DW_OP_LLVM_convert 24 7, DW_OP_stack_value, DW_OP_LLVM_fragment 72 24] $rsp
	#DEBUG_VALUE: argon2_fill_segment_ref:instance <- [DW_OP_plus_uconst 24] [$rsp+0]
	#DEBUG_VALUE: argon2_fill_segment_ref:position <- [DW_OP_plus_uconst 48, DW_OP_deref, DW_OP_LLVM_fragment 32 32] $rsp
	#DEBUG_VALUE: argon2_fill_segment_ref:position <- [DW_OP_plus_uconst 136, DW_OP_deref, DW_OP_LLVM_fragment 0 32] $rsp
	#DEBUG_VALUE: argon2_fill_segment_ref:position <- [DW_OP_plus_uconst 32, DW_OP_deref, DW_OP_LLVM_fragment 64 8] $rsp
	#DEBUG_VALUE: argon2_fill_segment_ref:i <- $r8
	#DEBUG_VALUE: argon2_fill_segment_ref:prev_offset <- [DW_OP_plus_uconst 16, DW_OP_deref] $rsp
	#DEBUG_VALUE: argon2_fill_segment_ref:curr_offset <- $r9d
	.loc	3 204 37                        # crypto_pwhash/argon2/argon2-fill-block-ref.c:204:37
	movq	(%rbp), %rcx
	.loc	3 204 27 is_stmt 0              # crypto_pwhash/argon2/argon2-fill-block-ref.c:204:27
	movq	%r15, %rax
	shlq	$10, %rax
	addq	8(%rcx), %rax
.Ltmp58:
	#DEBUG_VALUE: argon2_fill_segment_ref:pseudo_rand <- undef
	.loc	3 0 27                          # crypto_pwhash/argon2/argon2-fill-block-ref.c:0:27
	jmp	.LBB0_19
.Ltmp59:
	.p2align	4
.LBB0_18:                               #   in Loop: Header=BB0_16 Depth=1
	#DEBUG_VALUE: argon2_fill_segment_ref:position <- [DW_OP_plus_uconst 32, DW_OP_deref_size 8, DW_OP_constu 8, DW_OP_shr, DW_OP_LLVM_convert 64 7, DW_OP_LLVM_convert 24 7, DW_OP_stack_value, DW_OP_LLVM_fragment 72 24] $rsp
	#DEBUG_VALUE: argon2_fill_segment_ref:instance <- [DW_OP_plus_uconst 24] [$rsp+0]
	#DEBUG_VALUE: argon2_fill_segment_ref:position <- [DW_OP_plus_uconst 48, DW_OP_deref, DW_OP_LLVM_fragment 32 32] $rsp
	#DEBUG_VALUE: argon2_fill_segment_ref:position <- [DW_OP_plus_uconst 136, DW_OP_deref, DW_OP_LLVM_fragment 0 32] $rsp
	#DEBUG_VALUE: argon2_fill_segment_ref:position <- [DW_OP_plus_uconst 32, DW_OP_deref, DW_OP_LLVM_fragment 64 8] $rsp
	#DEBUG_VALUE: argon2_fill_segment_ref:i <- $r8
	#DEBUG_VALUE: argon2_fill_segment_ref:prev_offset <- [DW_OP_plus_uconst 16, DW_OP_deref] $rsp
	#DEBUG_VALUE: argon2_fill_segment_ref:curr_offset <- $r9d
	movq	56(%rsp), %rax                  # 8-byte Reload
.Ltmp60:
	.loc	3 201 27 is_stmt 1              # crypto_pwhash/argon2/argon2-fill-block-ref.c:201:27
	leaq	(%rax,%r8,8), %rax
.Ltmp61:
	#DEBUG_VALUE: argon2_fill_segment_ref:pseudo_rand <- undef
.LBB0_19:                               #   in Loop: Header=BB0_16 Depth=1
	#DEBUG_VALUE: argon2_fill_segment_ref:position <- [DW_OP_plus_uconst 32, DW_OP_deref_size 8, DW_OP_constu 8, DW_OP_shr, DW_OP_LLVM_convert 64 7, DW_OP_LLVM_convert 24 7, DW_OP_stack_value, DW_OP_LLVM_fragment 72 24] $rsp
	#DEBUG_VALUE: argon2_fill_segment_ref:instance <- [DW_OP_plus_uconst 24] [$rsp+0]
	#DEBUG_VALUE: argon2_fill_segment_ref:position <- [DW_OP_plus_uconst 48, DW_OP_deref, DW_OP_LLVM_fragment 32 32] $rsp
	#DEBUG_VALUE: argon2_fill_segment_ref:position <- [DW_OP_plus_uconst 136, DW_OP_deref, DW_OP_LLVM_fragment 0 32] $rsp
	#DEBUG_VALUE: argon2_fill_segment_ref:position <- [DW_OP_plus_uconst 32, DW_OP_deref, DW_OP_LLVM_fragment 64 8] $rsp
	#DEBUG_VALUE: argon2_fill_segment_ref:i <- $r8
	#DEBUG_VALUE: argon2_fill_segment_ref:prev_offset <- [DW_OP_plus_uconst 16, DW_OP_deref] $rsp
	#DEBUG_VALUE: argon2_fill_segment_ref:curr_offset <- $r9d
	.loc	3 0 0 is_stmt 0                 # crypto_pwhash/argon2/argon2-fill-block-ref.c:0
	movq	(%rax), %rsi
.Ltmp62:
	#DEBUG_VALUE: argon2_fill_segment_ref:pseudo_rand <- $rsi
	.loc	3 208 34 is_stmt 1              # crypto_pwhash/argon2/argon2-fill-block-ref.c:208:34
	movq	%rsi, %rax
	shrq	$32, %rax
                                        # kill: def $eax killed $eax killed $rax
	.loc	3 208 42 is_stmt 0              # crypto_pwhash/argon2/argon2-fill-block-ref.c:208:42
	xorl	%edx, %edx
	divl	36(%rbp)
	movl	%edx, %ecx
.Ltmp63:
	#DEBUG_VALUE: argon2_fill_segment_ref:ref_lane <- $edx
	.loc	3 210 34 is_stmt 1              # crypto_pwhash/argon2/argon2-fill-block-ref.c:210:34
	cmpb	$0, 15(%rsp)                    # 1-byte Folded Reload
	movq	48(%rsp), %rax                  # 8-byte Reload
	cmovneq	%rax, %rcx
.Ltmp64:
	#DEBUG_VALUE: argon2_fill_segment_ref:ref_lane <- $rcx
	.loc	3 173 12                        # crypto_pwhash/argon2/argon2-fill-block-ref.c:173:12
	testl	%r13d, %r13d
.Ltmp65:
	#DEBUG_VALUE: argon2_fill_segment_ref:position <- [DW_OP_LLVM_fragment 96 32] $r8
	#DEBUG_VALUE: index_alpha:instance <- [DW_OP_plus_uconst 24, DW_OP_deref] $rsp
	#DEBUG_VALUE: index_alpha:position <- undef
	#DEBUG_VALUE: index_alpha:pseudo_rand <- [DW_OP_LLVM_convert 64 7, DW_OP_LLVM_convert 32 7, DW_OP_stack_value] $rsi
	#DEBUG_VALUE: index_alpha:same_lane <- undef
	.loc	2 157 24                        # crypto_pwhash/argon2/argon2-core.h:157:24 @[ crypto_pwhash/argon2/argon2-fill-block-ref.c:219:21 ]
	je	.LBB0_22
.Ltmp66:
# %bb.20:                               #   in Loop: Header=BB0_16 Depth=1
	#DEBUG_VALUE: argon2_fill_segment_ref:position <- [DW_OP_plus_uconst 32, DW_OP_deref_size 8, DW_OP_constu 8, DW_OP_shr, DW_OP_LLVM_convert 64 7, DW_OP_LLVM_convert 24 7, DW_OP_stack_value, DW_OP_LLVM_fragment 72 24] $rsp
	#DEBUG_VALUE: argon2_fill_segment_ref:instance <- [DW_OP_plus_uconst 24] [$rsp+0]
	#DEBUG_VALUE: argon2_fill_segment_ref:position <- [DW_OP_plus_uconst 48, DW_OP_deref, DW_OP_LLVM_fragment 32 32] $rsp
	#DEBUG_VALUE: argon2_fill_segment_ref:position <- [DW_OP_plus_uconst 136, DW_OP_deref, DW_OP_LLVM_fragment 0 32] $rsp
	#DEBUG_VALUE: argon2_fill_segment_ref:position <- [DW_OP_plus_uconst 32, DW_OP_deref, DW_OP_LLVM_fragment 64 8] $rsp
	#DEBUG_VALUE: argon2_fill_segment_ref:position <- [DW_OP_LLVM_fragment 96 32] $r8
	#DEBUG_VALUE: argon2_fill_segment_ref:i <- $r8
	#DEBUG_VALUE: argon2_fill_segment_ref:prev_offset <- [DW_OP_plus_uconst 16, DW_OP_deref] $rsp
	#DEBUG_VALUE: argon2_fill_segment_ref:curr_offset <- $r9d
	#DEBUG_VALUE: argon2_fill_segment_ref:pseudo_rand <- $rsi
	#DEBUG_VALUE: argon2_fill_segment_ref:ref_lane <- $rcx
	#DEBUG_VALUE: index_alpha:instance <- [DW_OP_plus_uconst 24, DW_OP_deref] $rsp
	#DEBUG_VALUE: index_alpha:pseudo_rand <- [DW_OP_LLVM_convert 64 7, DW_OP_LLVM_convert 32 7, DW_OP_stack_value] $rsi
	.loc	3 220 42                        # crypto_pwhash/argon2/argon2-fill-block-ref.c:220:42
	cmpl	%eax, %ecx
.Ltmp67:
	.loc	2 177 13                        # crypto_pwhash/argon2/argon2-core.h:177:13 @[ crypto_pwhash/argon2/argon2-fill-block-ref.c:219:21 ]
	jne	.LBB0_25
.Ltmp68:
# %bb.21:                               #   in Loop: Header=BB0_16 Depth=1
	#DEBUG_VALUE: argon2_fill_segment_ref:position <- [DW_OP_plus_uconst 32, DW_OP_deref_size 8, DW_OP_constu 8, DW_OP_shr, DW_OP_LLVM_convert 64 7, DW_OP_LLVM_convert 24 7, DW_OP_stack_value, DW_OP_LLVM_fragment 72 24] $rsp
	#DEBUG_VALUE: argon2_fill_segment_ref:instance <- [DW_OP_plus_uconst 24] [$rsp+0]
	#DEBUG_VALUE: argon2_fill_segment_ref:position <- [DW_OP_plus_uconst 48, DW_OP_deref, DW_OP_LLVM_fragment 32 32] $rsp
	#DEBUG_VALUE: argon2_fill_segment_ref:position <- [DW_OP_plus_uconst 136, DW_OP_deref, DW_OP_LLVM_fragment 0 32] $rsp
	#DEBUG_VALUE: argon2_fill_segment_ref:position <- [DW_OP_plus_uconst 32, DW_OP_deref, DW_OP_LLVM_fragment 64 8] $rsp
	#DEBUG_VALUE: argon2_fill_segment_ref:position <- [DW_OP_LLVM_fragment 96 32] $r8
	#DEBUG_VALUE: argon2_fill_segment_ref:i <- $r8
	#DEBUG_VALUE: argon2_fill_segment_ref:prev_offset <- [DW_OP_plus_uconst 16, DW_OP_deref] $rsp
	#DEBUG_VALUE: argon2_fill_segment_ref:curr_offset <- $r9d
	#DEBUG_VALUE: argon2_fill_segment_ref:pseudo_rand <- $rsi
	#DEBUG_VALUE: argon2_fill_segment_ref:ref_lane <- $rcx
	#DEBUG_VALUE: index_alpha:instance <- [DW_OP_plus_uconst 24, DW_OP_deref] $rsp
	#DEBUG_VALUE: index_alpha:pseudo_rand <- [DW_OP_LLVM_convert 64 7, DW_OP_LLVM_convert 32 7, DW_OP_stack_value] $rsi
	.loc	2 179 60                        # crypto_pwhash/argon2/argon2-core.h:179:60 @[ crypto_pwhash/argon2/argon2-fill-block-ref.c:219:21 ]
	movl	%r14d, %eax
	notl	%eax
	addl	%r8d, %eax
.Ltmp69:
	#DEBUG_VALUE: index_alpha:reference_area_size <- [DW_OP_LLVM_arg 0, DW_OP_LLVM_arg 0, DW_OP_plus, DW_OP_stack_value] undef
	.loc	2 181 9                         # crypto_pwhash/argon2/argon2-core.h:181:9 @[ crypto_pwhash/argon2/argon2-fill-block-ref.c:219:21 ]
	jmp	.LBB0_26
.Ltmp70:
	.loc	2 0 9 is_stmt 0                 # :0:9
.Ltmp71:
	.p2align	4
.LBB0_22:                               #   in Loop: Header=BB0_16 Depth=1
	#DEBUG_VALUE: argon2_fill_segment_ref:position <- [DW_OP_plus_uconst 32, DW_OP_deref_size 8, DW_OP_constu 8, DW_OP_shr, DW_OP_LLVM_convert 64 7, DW_OP_LLVM_convert 24 7, DW_OP_stack_value, DW_OP_LLVM_fragment 72 24] $rsp
	#DEBUG_VALUE: argon2_fill_segment_ref:instance <- [DW_OP_plus_uconst 24] [$rsp+0]
	#DEBUG_VALUE: argon2_fill_segment_ref:position <- [DW_OP_plus_uconst 48, DW_OP_deref, DW_OP_LLVM_fragment 32 32] $rsp
	#DEBUG_VALUE: argon2_fill_segment_ref:position <- [DW_OP_plus_uconst 136, DW_OP_deref, DW_OP_LLVM_fragment 0 32] $rsp
	#DEBUG_VALUE: argon2_fill_segment_ref:position <- [DW_OP_plus_uconst 32, DW_OP_deref, DW_OP_LLVM_fragment 64 8] $rsp
	#DEBUG_VALUE: argon2_fill_segment_ref:position <- [DW_OP_LLVM_fragment 96 32] $r8
	#DEBUG_VALUE: argon2_fill_segment_ref:i <- $r8
	#DEBUG_VALUE: argon2_fill_segment_ref:prev_offset <- [DW_OP_plus_uconst 16, DW_OP_deref] $rsp
	#DEBUG_VALUE: argon2_fill_segment_ref:curr_offset <- $r9d
	#DEBUG_VALUE: argon2_fill_segment_ref:pseudo_rand <- $rsi
	#DEBUG_VALUE: argon2_fill_segment_ref:ref_lane <- $rcx
	#DEBUG_VALUE: index_alpha:instance <- [DW_OP_plus_uconst 24, DW_OP_deref] $rsp
	#DEBUG_VALUE: index_alpha:pseudo_rand <- [DW_OP_LLVM_convert 64 7, DW_OP_LLVM_convert 32 7, DW_OP_stack_value] $rsi
	testb	%r12b, %r12b
.Ltmp72:
	.loc	2 159 29 is_stmt 1              # crypto_pwhash/argon2/argon2-core.h:159:29 @[ crypto_pwhash/argon2/argon2-fill-block-ref.c:219:21 ]
	je	.LBB0_29
.Ltmp73:
# %bb.23:                               #   in Loop: Header=BB0_16 Depth=1
	#DEBUG_VALUE: argon2_fill_segment_ref:position <- [DW_OP_plus_uconst 32, DW_OP_deref_size 8, DW_OP_constu 8, DW_OP_shr, DW_OP_LLVM_convert 64 7, DW_OP_LLVM_convert 24 7, DW_OP_stack_value, DW_OP_LLVM_fragment 72 24] $rsp
	#DEBUG_VALUE: argon2_fill_segment_ref:instance <- [DW_OP_plus_uconst 24] [$rsp+0]
	#DEBUG_VALUE: argon2_fill_segment_ref:position <- [DW_OP_plus_uconst 48, DW_OP_deref, DW_OP_LLVM_fragment 32 32] $rsp
	#DEBUG_VALUE: argon2_fill_segment_ref:position <- [DW_OP_plus_uconst 136, DW_OP_deref, DW_OP_LLVM_fragment 0 32] $rsp
	#DEBUG_VALUE: argon2_fill_segment_ref:position <- [DW_OP_plus_uconst 32, DW_OP_deref, DW_OP_LLVM_fragment 64 8] $rsp
	#DEBUG_VALUE: argon2_fill_segment_ref:position <- [DW_OP_LLVM_fragment 96 32] $r8
	#DEBUG_VALUE: argon2_fill_segment_ref:i <- $r8
	#DEBUG_VALUE: argon2_fill_segment_ref:prev_offset <- [DW_OP_plus_uconst 16, DW_OP_deref] $rsp
	#DEBUG_VALUE: argon2_fill_segment_ref:curr_offset <- $r9d
	#DEBUG_VALUE: argon2_fill_segment_ref:pseudo_rand <- $rsi
	#DEBUG_VALUE: argon2_fill_segment_ref:ref_lane <- $rcx
	#DEBUG_VALUE: index_alpha:instance <- [DW_OP_plus_uconst 24, DW_OP_deref] $rsp
	#DEBUG_VALUE: index_alpha:pseudo_rand <- [DW_OP_LLVM_convert 64 7, DW_OP_LLVM_convert 32 7, DW_OP_stack_value] $rsi
	.loc	2 0 0 is_stmt 0                 # crypto_pwhash/argon2/argon2-core.h:0 @[ crypto_pwhash/argon2/argon2-fill-block-ref.c:219:21 ]
	imull	152(%rsp), %r14d                # 4-byte Folded Reload
.Ltmp74:
	.loc	3 220 42 is_stmt 1              # crypto_pwhash/argon2/argon2-fill-block-ref.c:220:42
	cmpl	%eax, %ecx
.Ltmp75:
	.loc	2 164 17                        # crypto_pwhash/argon2/argon2-core.h:164:17 @[ crypto_pwhash/argon2/argon2-fill-block-ref.c:219:21 ]
	jne	.LBB0_30
.Ltmp76:
# %bb.24:                               #   in Loop: Header=BB0_16 Depth=1
	#DEBUG_VALUE: argon2_fill_segment_ref:position <- [DW_OP_plus_uconst 32, DW_OP_deref_size 8, DW_OP_constu 8, DW_OP_shr, DW_OP_LLVM_convert 64 7, DW_OP_LLVM_convert 24 7, DW_OP_stack_value, DW_OP_LLVM_fragment 72 24] $rsp
	#DEBUG_VALUE: argon2_fill_segment_ref:instance <- [DW_OP_plus_uconst 24] [$rsp+0]
	#DEBUG_VALUE: argon2_fill_segment_ref:position <- [DW_OP_plus_uconst 48, DW_OP_deref, DW_OP_LLVM_fragment 32 32] $rsp
	#DEBUG_VALUE: argon2_fill_segment_ref:position <- [DW_OP_plus_uconst 136, DW_OP_deref, DW_OP_LLVM_fragment 0 32] $rsp
	#DEBUG_VALUE: argon2_fill_segment_ref:position <- [DW_OP_plus_uconst 32, DW_OP_deref, DW_OP_LLVM_fragment 64 8] $rsp
	#DEBUG_VALUE: argon2_fill_segment_ref:position <- [DW_OP_LLVM_fragment 96 32] $r8
	#DEBUG_VALUE: argon2_fill_segment_ref:i <- $r8
	#DEBUG_VALUE: argon2_fill_segment_ref:prev_offset <- [DW_OP_plus_uconst 16, DW_OP_deref] $rsp
	#DEBUG_VALUE: argon2_fill_segment_ref:curr_offset <- $r9d
	#DEBUG_VALUE: argon2_fill_segment_ref:pseudo_rand <- $rsi
	#DEBUG_VALUE: argon2_fill_segment_ref:ref_lane <- $rcx
	#DEBUG_VALUE: index_alpha:instance <- [DW_OP_plus_uconst 24, DW_OP_deref] $rsp
	#DEBUG_VALUE: index_alpha:pseudo_rand <- [DW_OP_LLVM_convert 64 7, DW_OP_LLVM_convert 32 7, DW_OP_stack_value] $rsi
	.loc	2 168 37                        # crypto_pwhash/argon2/argon2-core.h:168:37 @[ crypto_pwhash/argon2/argon2-fill-block-ref.c:219:21 ]
	leal	(%r8,%r14), %edx
	decl	%edx
.Ltmp77:
	#DEBUG_VALUE: index_alpha:reference_area_size <- $edx
	.loc	2 0 37 is_stmt 0                # crypto_pwhash/argon2/argon2-core.h:0:37
	jmp	.LBB0_31
.Ltmp78:
	.p2align	4
.LBB0_25:                               #   in Loop: Header=BB0_16 Depth=1
	#DEBUG_VALUE: argon2_fill_segment_ref:position <- [DW_OP_plus_uconst 32, DW_OP_deref_size 8, DW_OP_constu 8, DW_OP_shr, DW_OP_LLVM_convert 64 7, DW_OP_LLVM_convert 24 7, DW_OP_stack_value, DW_OP_LLVM_fragment 72 24] $rsp
	#DEBUG_VALUE: argon2_fill_segment_ref:instance <- [DW_OP_plus_uconst 24] [$rsp+0]
	#DEBUG_VALUE: argon2_fill_segment_ref:position <- [DW_OP_plus_uconst 48, DW_OP_deref, DW_OP_LLVM_fragment 32 32] $rsp
	#DEBUG_VALUE: argon2_fill_segment_ref:position <- [DW_OP_plus_uconst 136, DW_OP_deref, DW_OP_LLVM_fragment 0 32] $rsp
	#DEBUG_VALUE: argon2_fill_segment_ref:position <- [DW_OP_plus_uconst 32, DW_OP_deref, DW_OP_LLVM_fragment 64 8] $rsp
	#DEBUG_VALUE: argon2_fill_segment_ref:position <- [DW_OP_LLVM_fragment 96 32] $r8
	#DEBUG_VALUE: argon2_fill_segment_ref:i <- $r8
	#DEBUG_VALUE: argon2_fill_segment_ref:prev_offset <- [DW_OP_plus_uconst 16, DW_OP_deref] $rsp
	#DEBUG_VALUE: argon2_fill_segment_ref:curr_offset <- $r9d
	#DEBUG_VALUE: argon2_fill_segment_ref:pseudo_rand <- $rsi
	#DEBUG_VALUE: argon2_fill_segment_ref:ref_lane <- $rcx
	#DEBUG_VALUE: index_alpha:instance <- [DW_OP_plus_uconst 24, DW_OP_deref] $rsp
	#DEBUG_VALUE: index_alpha:pseudo_rand <- [DW_OP_LLVM_convert 64 7, DW_OP_LLVM_convert 32 7, DW_OP_stack_value] $rsi
	.loc	2 184 36 is_stmt 1              # crypto_pwhash/argon2/argon2-core.h:184:36 @[ crypto_pwhash/argon2/argon2-fill-block-ref.c:219:21 ]
	cmpq	$1, %r8
	movl	$0, %eax
	sbbl	%eax, %eax
	.loc	2 182 57                        # crypto_pwhash/argon2/argon2-core.h:182:57 @[ crypto_pwhash/argon2/argon2-fill-block-ref.c:219:21 ]
	subl	%r14d, %eax
.Ltmp79:
	#DEBUG_VALUE: index_alpha:reference_area_size <- [DW_OP_LLVM_arg 0, DW_OP_LLVM_arg 0, DW_OP_plus, DW_OP_stack_value] undef
.LBB0_26:                               #   in Loop: Header=BB0_16 Depth=1
	#DEBUG_VALUE: argon2_fill_segment_ref:position <- [DW_OP_plus_uconst 32, DW_OP_deref_size 8, DW_OP_constu 8, DW_OP_shr, DW_OP_LLVM_convert 64 7, DW_OP_LLVM_convert 24 7, DW_OP_stack_value, DW_OP_LLVM_fragment 72 24] $rsp
	#DEBUG_VALUE: argon2_fill_segment_ref:instance <- [DW_OP_plus_uconst 24] [$rsp+0]
	#DEBUG_VALUE: argon2_fill_segment_ref:position <- [DW_OP_plus_uconst 48, DW_OP_deref, DW_OP_LLVM_fragment 32 32] $rsp
	#DEBUG_VALUE: argon2_fill_segment_ref:position <- [DW_OP_plus_uconst 136, DW_OP_deref, DW_OP_LLVM_fragment 0 32] $rsp
	#DEBUG_VALUE: argon2_fill_segment_ref:position <- [DW_OP_plus_uconst 32, DW_OP_deref, DW_OP_LLVM_fragment 64 8] $rsp
	#DEBUG_VALUE: argon2_fill_segment_ref:position <- [DW_OP_LLVM_fragment 96 32] $r8
	#DEBUG_VALUE: argon2_fill_segment_ref:i <- $r8
	#DEBUG_VALUE: argon2_fill_segment_ref:prev_offset <- [DW_OP_plus_uconst 16, DW_OP_deref] $rsp
	#DEBUG_VALUE: argon2_fill_segment_ref:curr_offset <- $r9d
	#DEBUG_VALUE: argon2_fill_segment_ref:pseudo_rand <- $rsi
	#DEBUG_VALUE: argon2_fill_segment_ref:ref_lane <- $rcx
	#DEBUG_VALUE: index_alpha:instance <- [DW_OP_plus_uconst 24, DW_OP_deref] $rsp
	#DEBUG_VALUE: index_alpha:pseudo_rand <- [DW_OP_LLVM_convert 64 7, DW_OP_LLVM_convert 32 7, DW_OP_stack_value] $rsi
	.loc	2 0 0 is_stmt 0                 # crypto_pwhash/argon2/argon2-core.h:0 @[ crypto_pwhash/argon2/argon2-fill-block-ref.c:219:21 ]
	leal	(%rdi,%rax), %edx
.Ltmp80:
	#DEBUG_VALUE: index_alpha:reference_area_size <- $edx
	#DEBUG_VALUE: index_alpha:relative_position <- [DW_OP_LLVM_arg 0, DW_OP_constu 1, DW_OP_minus, DW_OP_LLVM_convert 32 7, DW_OP_LLVM_convert 64 7, DW_OP_LLVM_arg 1, DW_OP_LLVM_convert 64 7, DW_OP_LLVM_convert 32 7, DW_OP_LLVM_convert 32 7, DW_OP_LLVM_convert 64 7, DW_OP_LLVM_arg 3, DW_OP_LLVM_convert 64 7, DW_OP_LLVM_convert 32 7, DW_OP_LLVM_convert 32 7, DW_OP_LLVM_convert 64 7, DW_OP_mul, DW_OP_constu 32, DW_OP_shr, DW_OP_LLVM_arg 2, DW_OP_LLVM_convert 32 7, DW_OP_LLVM_convert 64 7, DW_OP_mul, DW_OP_constu 32, DW_OP_shr, DW_OP_minus, DW_OP_stack_value] $edx, $rsi, $edx, $rsi
	cmpb	$3, %r12b
.Ltmp81:
	#DEBUG_VALUE: index_alpha:start_position <- 0
	.loc	2 199 26 is_stmt 1              # crypto_pwhash/argon2/argon2-core.h:199:26 @[ crypto_pwhash/argon2/argon2-fill-block-ref.c:219:21 ]
	je	.LBB0_31
.Ltmp82:
# %bb.28:                               #   in Loop: Header=BB0_16 Depth=1
	#DEBUG_VALUE: argon2_fill_segment_ref:position <- [DW_OP_plus_uconst 32, DW_OP_deref_size 8, DW_OP_constu 8, DW_OP_shr, DW_OP_LLVM_convert 64 7, DW_OP_LLVM_convert 24 7, DW_OP_stack_value, DW_OP_LLVM_fragment 72 24] $rsp
	#DEBUG_VALUE: argon2_fill_segment_ref:instance <- [DW_OP_plus_uconst 24] [$rsp+0]
	#DEBUG_VALUE: argon2_fill_segment_ref:position <- [DW_OP_plus_uconst 48, DW_OP_deref, DW_OP_LLVM_fragment 32 32] $rsp
	#DEBUG_VALUE: argon2_fill_segment_ref:position <- [DW_OP_plus_uconst 136, DW_OP_deref, DW_OP_LLVM_fragment 0 32] $rsp
	#DEBUG_VALUE: argon2_fill_segment_ref:position <- [DW_OP_plus_uconst 32, DW_OP_deref, DW_OP_LLVM_fragment 64 8] $rsp
	#DEBUG_VALUE: argon2_fill_segment_ref:position <- [DW_OP_LLVM_fragment 96 32] $r8
	#DEBUG_VALUE: argon2_fill_segment_ref:i <- $r8
	#DEBUG_VALUE: argon2_fill_segment_ref:prev_offset <- [DW_OP_plus_uconst 16, DW_OP_deref] $rsp
	#DEBUG_VALUE: argon2_fill_segment_ref:curr_offset <- $r9d
	#DEBUG_VALUE: argon2_fill_segment_ref:pseudo_rand <- $rsi
	#DEBUG_VALUE: argon2_fill_segment_ref:ref_lane <- $rcx
	#DEBUG_VALUE: index_alpha:instance <- [DW_OP_plus_uconst 24, DW_OP_deref] $rsp
	#DEBUG_VALUE: index_alpha:pseudo_rand <- [DW_OP_LLVM_convert 64 7, DW_OP_LLVM_convert 32 7, DW_OP_stack_value] $rsi
	#DEBUG_VALUE: index_alpha:reference_area_size <- $edx
	#DEBUG_VALUE: index_alpha:relative_position <- [DW_OP_LLVM_arg 0, DW_OP_constu 1, DW_OP_minus, DW_OP_LLVM_convert 32 7, DW_OP_LLVM_convert 64 7, DW_OP_LLVM_arg 1, DW_OP_LLVM_convert 64 7, DW_OP_LLVM_convert 32 7, DW_OP_LLVM_convert 32 7, DW_OP_LLVM_convert 64 7, DW_OP_LLVM_arg 3, DW_OP_LLVM_convert 64 7, DW_OP_LLVM_convert 32 7, DW_OP_LLVM_convert 32 7, DW_OP_LLVM_convert 64 7, DW_OP_mul, DW_OP_constu 32, DW_OP_shr, DW_OP_LLVM_arg 2, DW_OP_LLVM_convert 32 7, DW_OP_LLVM_convert 64 7, DW_OP_mul, DW_OP_constu 32, DW_OP_shr, DW_OP_minus, DW_OP_stack_value] $edx, $rsi, $edx, $rsi
	#DEBUG_VALUE: index_alpha:start_position <- 0
	.loc	2 201 54                        # crypto_pwhash/argon2/argon2-core.h:201:54 @[ crypto_pwhash/argon2/argon2-fill-block-ref.c:219:21 ]
	imull	132(%rsp), %r14d                # 4-byte Folded Reload
	jmp	.LBB0_32
.Ltmp83:
.LBB0_29:                               #   in Loop: Header=BB0_16 Depth=1
	#DEBUG_VALUE: argon2_fill_segment_ref:position <- [DW_OP_plus_uconst 32, DW_OP_deref_size 8, DW_OP_constu 8, DW_OP_shr, DW_OP_LLVM_convert 64 7, DW_OP_LLVM_convert 24 7, DW_OP_stack_value, DW_OP_LLVM_fragment 72 24] $rsp
	#DEBUG_VALUE: argon2_fill_segment_ref:instance <- [DW_OP_plus_uconst 24] [$rsp+0]
	#DEBUG_VALUE: argon2_fill_segment_ref:position <- [DW_OP_plus_uconst 48, DW_OP_deref, DW_OP_LLVM_fragment 32 32] $rsp
	#DEBUG_VALUE: argon2_fill_segment_ref:position <- [DW_OP_plus_uconst 136, DW_OP_deref, DW_OP_LLVM_fragment 0 32] $rsp
	#DEBUG_VALUE: argon2_fill_segment_ref:position <- [DW_OP_plus_uconst 32, DW_OP_deref, DW_OP_LLVM_fragment 64 8] $rsp
	#DEBUG_VALUE: argon2_fill_segment_ref:position <- [DW_OP_LLVM_fragment 96 32] $r8
	#DEBUG_VALUE: argon2_fill_segment_ref:i <- $r8
	#DEBUG_VALUE: argon2_fill_segment_ref:prev_offset <- [DW_OP_plus_uconst 16, DW_OP_deref] $rsp
	#DEBUG_VALUE: argon2_fill_segment_ref:curr_offset <- $r9d
	#DEBUG_VALUE: argon2_fill_segment_ref:pseudo_rand <- $rsi
	#DEBUG_VALUE: argon2_fill_segment_ref:ref_lane <- $rcx
	#DEBUG_VALUE: index_alpha:instance <- [DW_OP_plus_uconst 24, DW_OP_deref] $rsp
	#DEBUG_VALUE: index_alpha:pseudo_rand <- [DW_OP_LLVM_convert 64 7, DW_OP_LLVM_convert 32 7, DW_OP_stack_value] $rsi
	.loc	2 162 33                        # crypto_pwhash/argon2/argon2-core.h:162:33 @[ crypto_pwhash/argon2/argon2-fill-block-ref.c:219:21 ]
	leal	-1(%r8), %edx
.Ltmp84:
	#DEBUG_VALUE: index_alpha:reference_area_size <- $edx
	.loc	2 0 33 is_stmt 0                # crypto_pwhash/argon2/argon2-core.h:0:33
	jmp	.LBB0_31
.Ltmp85:
.LBB0_30:                               #   in Loop: Header=BB0_16 Depth=1
	#DEBUG_VALUE: argon2_fill_segment_ref:position <- [DW_OP_plus_uconst 32, DW_OP_deref_size 8, DW_OP_constu 8, DW_OP_shr, DW_OP_LLVM_convert 64 7, DW_OP_LLVM_convert 24 7, DW_OP_stack_value, DW_OP_LLVM_fragment 72 24] $rsp
	#DEBUG_VALUE: argon2_fill_segment_ref:instance <- [DW_OP_plus_uconst 24] [$rsp+0]
	#DEBUG_VALUE: argon2_fill_segment_ref:position <- [DW_OP_plus_uconst 48, DW_OP_deref, DW_OP_LLVM_fragment 32 32] $rsp
	#DEBUG_VALUE: argon2_fill_segment_ref:position <- [DW_OP_plus_uconst 136, DW_OP_deref, DW_OP_LLVM_fragment 0 32] $rsp
	#DEBUG_VALUE: argon2_fill_segment_ref:position <- [DW_OP_plus_uconst 32, DW_OP_deref, DW_OP_LLVM_fragment 64 8] $rsp
	#DEBUG_VALUE: argon2_fill_segment_ref:position <- [DW_OP_LLVM_fragment 96 32] $r8
	#DEBUG_VALUE: argon2_fill_segment_ref:i <- $r8
	#DEBUG_VALUE: argon2_fill_segment_ref:prev_offset <- [DW_OP_plus_uconst 16, DW_OP_deref] $rsp
	#DEBUG_VALUE: argon2_fill_segment_ref:curr_offset <- $r9d
	#DEBUG_VALUE: argon2_fill_segment_ref:pseudo_rand <- $rsi
	#DEBUG_VALUE: argon2_fill_segment_ref:ref_lane <- $rcx
	#DEBUG_VALUE: index_alpha:instance <- [DW_OP_plus_uconst 24, DW_OP_deref] $rsp
	#DEBUG_VALUE: index_alpha:pseudo_rand <- [DW_OP_LLVM_convert 64 7, DW_OP_LLVM_convert 32 7, DW_OP_stack_value] $rsi
	.loc	2 171 64 is_stmt 1              # crypto_pwhash/argon2/argon2-core.h:171:64 @[ crypto_pwhash/argon2/argon2-fill-block-ref.c:219:21 ]
	cmpq	$1, %r8
	sbbl	$0, %r14d
.Ltmp86:
	#DEBUG_VALUE: index_alpha:reference_area_size <- $r14d
	.loc	2 0 64 is_stmt 0                # crypto_pwhash/argon2/argon2-core.h:0:64
	movl	%r14d, %edx
.Ltmp87:
	.p2align	4
.LBB0_31:                               # %index_alpha.exit
                                        #   in Loop: Header=BB0_16 Depth=1
	#DEBUG_VALUE: argon2_fill_segment_ref:position <- [DW_OP_plus_uconst 32, DW_OP_deref_size 8, DW_OP_constu 8, DW_OP_shr, DW_OP_LLVM_convert 64 7, DW_OP_LLVM_convert 24 7, DW_OP_stack_value, DW_OP_LLVM_fragment 72 24] $rsp
	#DEBUG_VALUE: argon2_fill_segment_ref:instance <- [DW_OP_plus_uconst 24] [$rsp+0]
	#DEBUG_VALUE: argon2_fill_segment_ref:position <- [DW_OP_plus_uconst 48, DW_OP_deref, DW_OP_LLVM_fragment 32 32] $rsp
	#DEBUG_VALUE: argon2_fill_segment_ref:position <- [DW_OP_plus_uconst 136, DW_OP_deref, DW_OP_LLVM_fragment 0 32] $rsp
	#DEBUG_VALUE: argon2_fill_segment_ref:position <- [DW_OP_plus_uconst 32, DW_OP_deref, DW_OP_LLVM_fragment 64 8] $rsp
	#DEBUG_VALUE: argon2_fill_segment_ref:position <- [DW_OP_LLVM_fragment 96 32] $r8
	#DEBUG_VALUE: argon2_fill_segment_ref:i <- $r8
	#DEBUG_VALUE: argon2_fill_segment_ref:prev_offset <- [DW_OP_plus_uconst 16, DW_OP_deref] $rsp
	#DEBUG_VALUE: argon2_fill_segment_ref:curr_offset <- $r9d
	#DEBUG_VALUE: argon2_fill_segment_ref:pseudo_rand <- $rsi
	#DEBUG_VALUE: argon2_fill_segment_ref:ref_lane <- $rcx
	#DEBUG_VALUE: index_alpha:instance <- [DW_OP_plus_uconst 24, DW_OP_deref] $rsp
	#DEBUG_VALUE: index_alpha:pseudo_rand <- [DW_OP_LLVM_convert 64 7, DW_OP_LLVM_convert 32 7, DW_OP_stack_value] $rsi
	#DEBUG_VALUE: index_alpha:reference_area_size <- $edx
	xorl	%r14d, %r14d
.Ltmp88:
.LBB0_32:                               # %index_alpha.exit
                                        #   in Loop: Header=BB0_16 Depth=1
	#DEBUG_VALUE: argon2_fill_segment_ref:position <- [DW_OP_plus_uconst 32, DW_OP_deref_size 8, DW_OP_constu 8, DW_OP_shr, DW_OP_LLVM_convert 64 7, DW_OP_LLVM_convert 24 7, DW_OP_stack_value, DW_OP_LLVM_fragment 72 24] $rsp
	#DEBUG_VALUE: argon2_fill_segment_ref:instance <- [DW_OP_plus_uconst 24] [$rsp+0]
	#DEBUG_VALUE: argon2_fill_segment_ref:position <- [DW_OP_plus_uconst 48, DW_OP_deref, DW_OP_LLVM_fragment 32 32] $rsp
	#DEBUG_VALUE: argon2_fill_segment_ref:position <- [DW_OP_plus_uconst 136, DW_OP_deref, DW_OP_LLVM_fragment 0 32] $rsp
	#DEBUG_VALUE: argon2_fill_segment_ref:position <- [DW_OP_plus_uconst 32, DW_OP_deref, DW_OP_LLVM_fragment 64 8] $rsp
	#DEBUG_VALUE: argon2_fill_segment_ref:position <- [DW_OP_LLVM_fragment 96 32] $r8
	#DEBUG_VALUE: argon2_fill_segment_ref:i <- $r8
	#DEBUG_VALUE: argon2_fill_segment_ref:prev_offset <- [DW_OP_plus_uconst 16, DW_OP_deref] $rsp
	#DEBUG_VALUE: argon2_fill_segment_ref:curr_offset <- $r9d
	#DEBUG_VALUE: argon2_fill_segment_ref:pseudo_rand <- $rsi
	#DEBUG_VALUE: argon2_fill_segment_ref:ref_lane <- $rcx
	#DEBUG_VALUE: index_alpha:instance <- [DW_OP_plus_uconst 24, DW_OP_deref] $rsp
	#DEBUG_VALUE: index_alpha:pseudo_rand <- [DW_OP_LLVM_convert 64 7, DW_OP_LLVM_convert 32 7, DW_OP_stack_value] $rsi
	#DEBUG_VALUE: index_alpha:reference_area_size <- $edx
	.loc	2 192 45 is_stmt 1              # crypto_pwhash/argon2/argon2-core.h:192:45 @[ crypto_pwhash/argon2/argon2-fill-block-ref.c:219:21 ]
	leal	-1(%rdx), %eax
.Ltmp89:
	#DEBUG_VALUE: index_alpha:relative_position <- [DW_OP_LLVM_arg 0, DW_OP_LLVM_convert 32 7, DW_OP_LLVM_convert 64 7, DW_OP_LLVM_arg 1, DW_OP_LLVM_convert 64 7, DW_OP_LLVM_convert 32 7, DW_OP_LLVM_convert 32 7, DW_OP_LLVM_convert 64 7, DW_OP_LLVM_arg 3, DW_OP_LLVM_convert 64 7, DW_OP_LLVM_convert 32 7, DW_OP_LLVM_convert 32 7, DW_OP_LLVM_convert 64 7, DW_OP_mul, DW_OP_constu 32, DW_OP_shr, DW_OP_LLVM_arg 2, DW_OP_LLVM_convert 32 7, DW_OP_LLVM_convert 64 7, DW_OP_mul, DW_OP_constu 32, DW_OP_shr, DW_OP_minus, DW_OP_stack_value] $eax, $rsi, $edx, $rsi
	#DEBUG_VALUE: index_alpha:relative_position <- [DW_OP_LLVM_arg 0, DW_OP_LLVM_arg 1, DW_OP_LLVM_convert 64 7, DW_OP_LLVM_convert 32 7, DW_OP_LLVM_convert 32 7, DW_OP_LLVM_convert 64 7, DW_OP_LLVM_arg 3, DW_OP_LLVM_convert 64 7, DW_OP_LLVM_convert 32 7, DW_OP_LLVM_convert 32 7, DW_OP_LLVM_convert 64 7, DW_OP_mul, DW_OP_constu 32, DW_OP_shr, DW_OP_LLVM_arg 2, DW_OP_LLVM_convert 32 7, DW_OP_LLVM_convert 64 7, DW_OP_mul, DW_OP_constu 32, DW_OP_shr, DW_OP_minus, DW_OP_stack_value] $eax, $rsi, $edx, $rsi
	.loc	2 192 49 is_stmt 0              # crypto_pwhash/argon2/argon2-core.h:192:49 @[ crypto_pwhash/argon2/argon2-fill-block-ref.c:219:21 ]
	addq	%r14, %rax
.Ltmp90:
	.loc	2 190 25 is_stmt 1              # crypto_pwhash/argon2/argon2-core.h:190:25 @[ crypto_pwhash/argon2/argon2-fill-block-ref.c:219:21 ]
	movl	%esi, %esi
.Ltmp91:
	#DEBUG_VALUE: index_alpha:relative_position <- [DW_OP_LLVM_arg 0, DW_OP_LLVM_arg 1, DW_OP_LLVM_arg 3, DW_OP_mul, DW_OP_constu 32, DW_OP_shr, DW_OP_LLVM_arg 2, DW_OP_LLVM_convert 32 7, DW_OP_LLVM_convert 64 7, DW_OP_mul, DW_OP_constu 32, DW_OP_shr, DW_OP_minus, DW_OP_stack_value] undef, undef, undef, undef
	.loc	2 191 43                        # crypto_pwhash/argon2/argon2-core.h:191:43 @[ crypto_pwhash/argon2/argon2-fill-block-ref.c:219:21 ]
	imulq	%rsi, %rsi
.Ltmp92:
	#DEBUG_VALUE: index_alpha:relative_position <- [DW_OP_LLVM_arg 0, DW_OP_LLVM_arg 1, DW_OP_constu 32, DW_OP_shr, DW_OP_LLVM_arg 2, DW_OP_LLVM_convert 32 7, DW_OP_LLVM_convert 64 7, DW_OP_mul, DW_OP_constu 32, DW_OP_shr, DW_OP_minus, DW_OP_stack_value] undef, undef, undef
	.loc	2 191 63 is_stmt 0              # crypto_pwhash/argon2/argon2-core.h:191:63 @[ crypto_pwhash/argon2/argon2-fill-block-ref.c:219:21 ]
	shrq	$32, %rsi
.Ltmp93:
	#DEBUG_VALUE: index_alpha:relative_position <- [DW_OP_LLVM_arg 0, DW_OP_LLVM_arg 1, DW_OP_LLVM_arg 2, DW_OP_LLVM_convert 32 7, DW_OP_LLVM_convert 64 7, DW_OP_mul, DW_OP_constu 32, DW_OP_shr, DW_OP_minus, DW_OP_stack_value] undef, undef, undef
	.loc	2 193 26 is_stmt 1              # crypto_pwhash/argon2/argon2-core.h:193:26 @[ crypto_pwhash/argon2/argon2-fill-block-ref.c:219:21 ]
	movl	%edx, %edx
.Ltmp94:
	#DEBUG_VALUE: index_alpha:relative_position <- [DW_OP_LLVM_arg 0, DW_OP_LLVM_arg 1, DW_OP_LLVM_arg 2, DW_OP_mul, DW_OP_constu 32, DW_OP_shr, DW_OP_minus, DW_OP_stack_value] undef, undef, undef
	.loc	2 193 46 is_stmt 0              # crypto_pwhash/argon2/argon2-core.h:193:46 @[ crypto_pwhash/argon2/argon2-fill-block-ref.c:219:21 ]
	imulq	%rsi, %rdx
.Ltmp95:
	#DEBUG_VALUE: index_alpha:relative_position <- [DW_OP_LLVM_arg 0, DW_OP_LLVM_arg 1, DW_OP_constu 32, DW_OP_shr, DW_OP_minus, DW_OP_stack_value] undef, undef
	.loc	2 193 66                        # crypto_pwhash/argon2/argon2-core.h:193:66 @[ crypto_pwhash/argon2/argon2-fill-block-ref.c:219:21 ]
	shrq	$32, %rdx
.Ltmp96:
	#DEBUG_VALUE: index_alpha:relative_position <- undef
	#DEBUG_VALUE: index_alpha:start_position <- $r14
	.loc	2 205 41 is_stmt 1              # crypto_pwhash/argon2/argon2-core.h:205:41 @[ crypto_pwhash/argon2/argon2-fill-block-ref.c:219:21 ]
	subq	%rdx, %rax
	.loc	2 205 62 is_stmt 0              # crypto_pwhash/argon2/argon2-core.h:205:62 @[ crypto_pwhash/argon2/argon2-fill-block-ref.c:219:21 ]
	movq	%rax, %rdx
	shrq	$32, %rdx
	je	.LBB0_34
.Ltmp97:
# %bb.33:                               #   in Loop: Header=BB0_16 Depth=1
	#DEBUG_VALUE: argon2_fill_segment_ref:position <- [DW_OP_plus_uconst 32, DW_OP_deref_size 8, DW_OP_constu 8, DW_OP_shr, DW_OP_LLVM_convert 64 7, DW_OP_LLVM_convert 24 7, DW_OP_stack_value, DW_OP_LLVM_fragment 72 24] $rsp
	#DEBUG_VALUE: argon2_fill_segment_ref:instance <- [DW_OP_plus_uconst 24] [$rsp+0]
	#DEBUG_VALUE: argon2_fill_segment_ref:position <- [DW_OP_plus_uconst 48, DW_OP_deref, DW_OP_LLVM_fragment 32 32] $rsp
	#DEBUG_VALUE: argon2_fill_segment_ref:position <- [DW_OP_plus_uconst 136, DW_OP_deref, DW_OP_LLVM_fragment 0 32] $rsp
	#DEBUG_VALUE: argon2_fill_segment_ref:position <- [DW_OP_plus_uconst 32, DW_OP_deref, DW_OP_LLVM_fragment 64 8] $rsp
	#DEBUG_VALUE: argon2_fill_segment_ref:position <- [DW_OP_LLVM_fragment 96 32] $r8
	#DEBUG_VALUE: argon2_fill_segment_ref:i <- $r8
	#DEBUG_VALUE: argon2_fill_segment_ref:prev_offset <- [DW_OP_plus_uconst 16, DW_OP_deref] $rsp
	#DEBUG_VALUE: argon2_fill_segment_ref:curr_offset <- $r9d
	#DEBUG_VALUE: argon2_fill_segment_ref:ref_lane <- $rcx
	#DEBUG_VALUE: index_alpha:instance <- [DW_OP_plus_uconst 24, DW_OP_deref] $rsp
	#DEBUG_VALUE: index_alpha:start_position <- $r14
	xorl	%edx, %edx
	divq	%rdi
	movq	%rdx, %rsi
	jmp	.LBB0_35
.Ltmp98:
	.loc	2 0 62                          # :0:62
.Ltmp99:
	.p2align	4
.LBB0_34:                               #   in Loop: Header=BB0_16 Depth=1
	#DEBUG_VALUE: argon2_fill_segment_ref:position <- [DW_OP_plus_uconst 32, DW_OP_deref_size 8, DW_OP_constu 8, DW_OP_shr, DW_OP_LLVM_convert 64 7, DW_OP_LLVM_convert 24 7, DW_OP_stack_value, DW_OP_LLVM_fragment 72 24] $rsp
	#DEBUG_VALUE: argon2_fill_segment_ref:instance <- [DW_OP_plus_uconst 24] [$rsp+0]
	#DEBUG_VALUE: argon2_fill_segment_ref:position <- [DW_OP_plus_uconst 48, DW_OP_deref, DW_OP_LLVM_fragment 32 32] $rsp
	#DEBUG_VALUE: argon2_fill_segment_ref:position <- [DW_OP_plus_uconst 136, DW_OP_deref, DW_OP_LLVM_fragment 0 32] $rsp
	#DEBUG_VALUE: argon2_fill_segment_ref:position <- [DW_OP_plus_uconst 32, DW_OP_deref, DW_OP_LLVM_fragment 64 8] $rsp
	#DEBUG_VALUE: argon2_fill_segment_ref:position <- [DW_OP_LLVM_fragment 96 32] $r8
	#DEBUG_VALUE: argon2_fill_segment_ref:i <- $r8
	#DEBUG_VALUE: argon2_fill_segment_ref:prev_offset <- [DW_OP_plus_uconst 16, DW_OP_deref] $rsp
	#DEBUG_VALUE: argon2_fill_segment_ref:curr_offset <- $r9d
	#DEBUG_VALUE: argon2_fill_segment_ref:ref_lane <- $rcx
	#DEBUG_VALUE: index_alpha:instance <- [DW_OP_plus_uconst 24, DW_OP_deref] $rsp
	#DEBUG_VALUE: index_alpha:start_position <- $r14
                                        # kill: def $eax killed $eax killed $rax
	.loc	2 205 62                        # crypto_pwhash/argon2/argon2-core.h:205:62 @[ crypto_pwhash/argon2/argon2-fill-block-ref.c:219:21 ]
	xorl	%edx, %edx
	divl	%edi
	movl	%edx, %esi
.Ltmp100:
.LBB0_35:                               #   in Loop: Header=BB0_16 Depth=1
	#DEBUG_VALUE: argon2_fill_segment_ref:position <- [DW_OP_plus_uconst 32, DW_OP_deref_size 8, DW_OP_constu 8, DW_OP_shr, DW_OP_LLVM_convert 64 7, DW_OP_LLVM_convert 24 7, DW_OP_stack_value, DW_OP_LLVM_fragment 72 24] $rsp
	#DEBUG_VALUE: argon2_fill_segment_ref:instance <- [DW_OP_plus_uconst 24] [$rsp+0]
	#DEBUG_VALUE: argon2_fill_segment_ref:position <- [DW_OP_plus_uconst 48, DW_OP_deref, DW_OP_LLVM_fragment 32 32] $rsp
	#DEBUG_VALUE: argon2_fill_segment_ref:position <- [DW_OP_plus_uconst 136, DW_OP_deref, DW_OP_LLVM_fragment 0 32] $rsp
	#DEBUG_VALUE: argon2_fill_segment_ref:position <- [DW_OP_plus_uconst 32, DW_OP_deref, DW_OP_LLVM_fragment 64 8] $rsp
	#DEBUG_VALUE: argon2_fill_segment_ref:position <- [DW_OP_LLVM_fragment 96 32] $r8
	#DEBUG_VALUE: argon2_fill_segment_ref:i <- $r8
	#DEBUG_VALUE: argon2_fill_segment_ref:prev_offset <- [DW_OP_plus_uconst 16, DW_OP_deref] $rsp
	#DEBUG_VALUE: argon2_fill_segment_ref:curr_offset <- $r9d
	#DEBUG_VALUE: argon2_fill_segment_ref:ref_lane <- $rcx
	#DEBUG_VALUE: index_alpha:instance <- [DW_OP_plus_uconst 24, DW_OP_deref] $rsp
	#DEBUG_VALUE: index_alpha:start_position <- $r14
	.loc	2 0 62                          # crypto_pwhash/argon2/argon2-core.h:0:62
	movq	%r8, 72(%rsp)                   # 8-byte Spill
.Ltmp101:
	#DEBUG_VALUE: argon2_fill_segment_ref:i <- [DW_OP_plus_uconst 72, DW_OP_deref_size 8, DW_OP_stack_value] $rsp
	#DEBUG_VALUE: argon2_fill_segment_ref:position <- [DW_OP_plus_uconst 72, DW_OP_deref_size 8, DW_OP_stack_value, DW_OP_LLVM_fragment 96 32] $rsp
	movq	%r9, 64(%rsp)                   # 8-byte Spill
.Ltmp102:
	#DEBUG_VALUE: argon2_fill_segment_ref:curr_offset <- [DW_OP_plus_uconst 64, DW_OP_deref] $rsp
	movl	%r9d, %r8d
	#DEBUG_VALUE: index_alpha:absolute_position <- $rsi
.Ltmp103:
	#DEBUG_VALUE: argon2_fill_segment_ref:ref_index <- $rsi
	.loc	3 223 31 is_stmt 1              # crypto_pwhash/argon2/argon2-fill-block-ref.c:223:31
	movq	(%rbp), %rax
	.loc	3 223 39 is_stmt 0              # crypto_pwhash/argon2/argon2-fill-block-ref.c:223:39
	movq	8(%rax), %rax
	.loc	3 224 43 is_stmt 1              # crypto_pwhash/argon2/argon2-fill-block-ref.c:224:43
	imulq	%rdi, %rcx
.Ltmp104:
	.loc	3 223 46                        # crypto_pwhash/argon2/argon2-fill-block-ref.c:223:46
	shlq	$10, %rcx
	addq	%rax, %rcx
	.loc	3 224 54                        # crypto_pwhash/argon2/argon2-fill-block-ref.c:224:54
	shlq	$10, %rsi
.Ltmp105:
	addq	%rcx, %rsi
.Ltmp106:
	#DEBUG_VALUE: argon2_fill_segment_ref:ref_block <- $rsi
	.loc	3 225 47                        # crypto_pwhash/argon2/argon2-fill-block-ref.c:225:47
	movq	%r8, %rdx
	shlq	$10, %rdx
	addq	%rax, %rdx
.Ltmp107:
	#DEBUG_VALUE: argon2_fill_segment_ref:curr_block <- $rdx
	.loc	3 0 0 is_stmt 0                 # crypto_pwhash/argon2/argon2-fill-block-ref.c:0
	shlq	$10, %r15
	leaq	(%rax,%r15), %rbx
.Ltmp108:
	.loc	3 173 12 is_stmt 1              # crypto_pwhash/argon2/argon2-fill-block-ref.c:173:12
	testl	%r13d, %r13d
.Ltmp109:
	.loc	3 226 27                        # crypto_pwhash/argon2/argon2-fill-block-ref.c:226:27
	jne	.LBB0_14
.Ltmp110:
# %bb.36:                               # %vector.memcheck104
                                        #   in Loop: Header=BB0_16 Depth=1
	#DEBUG_VALUE: argon2_fill_segment_ref:position <- [DW_OP_plus_uconst 32, DW_OP_deref_size 8, DW_OP_constu 8, DW_OP_shr, DW_OP_LLVM_convert 64 7, DW_OP_LLVM_convert 24 7, DW_OP_stack_value, DW_OP_LLVM_fragment 72 24] $rsp
	#DEBUG_VALUE: argon2_fill_segment_ref:instance <- [DW_OP_plus_uconst 24] [$rsp+0]
	#DEBUG_VALUE: argon2_fill_segment_ref:position <- [DW_OP_plus_uconst 48, DW_OP_deref, DW_OP_LLVM_fragment 32 32] $rsp
	#DEBUG_VALUE: argon2_fill_segment_ref:position <- [DW_OP_plus_uconst 136, DW_OP_deref, DW_OP_LLVM_fragment 0 32] $rsp
	#DEBUG_VALUE: argon2_fill_segment_ref:position <- [DW_OP_plus_uconst 32, DW_OP_deref, DW_OP_LLVM_fragment 64 8] $rsp
	#DEBUG_VALUE: argon2_fill_segment_ref:position <- [DW_OP_plus_uconst 72, DW_OP_deref_size 8, DW_OP_stack_value, DW_OP_LLVM_fragment 96 32] $rsp
	#DEBUG_VALUE: argon2_fill_segment_ref:ref_block <- $rsi
	#DEBUG_VALUE: argon2_fill_segment_ref:curr_block <- $rdx
	#DEBUG_VALUE: argon2_fill_segment_ref:i <- [DW_OP_plus_uconst 72, DW_OP_deref_size 8, DW_OP_stack_value] $rsp
	#DEBUG_VALUE: argon2_fill_segment_ref:prev_offset <- [DW_OP_plus_uconst 16, DW_OP_deref] $rsp
	#DEBUG_VALUE: argon2_fill_segment_ref:curr_offset <- [DW_OP_plus_uconst 64, DW_OP_deref] $rsp
	#DEBUG_VALUE: fill_block:prev_block <- $rbx
	#DEBUG_VALUE: fill_block:ref_block <- $rsi
	#DEBUG_VALUE: fill_block:next_block <- $rdx
	#DEBUG_VALUE: copy_block:dst <- [DW_OP_plus_uconst 184, DW_OP_stack_value] $rsp
	#DEBUG_VALUE: copy_block:src <- $rsi
	#DEBUG_VALUE: memcpy:__dest <- [DW_OP_plus_uconst 184, DW_OP_stack_value] $rsp
	#DEBUG_VALUE: memcpy:__src <- $rsi
	#DEBUG_VALUE: memcpy:__len <- 1024
	.loc	3 0 27 is_stmt 0                # crypto_pwhash/argon2/argon2-fill-block-ref.c:0:27
	movq	%rdx, 176(%rsp)                 # 8-byte Spill
.Ltmp111:
	#DEBUG_VALUE: fill_block:next_block <- [DW_OP_plus_uconst 176, DW_OP_deref] $rsp
	#DEBUG_VALUE: argon2_fill_segment_ref:curr_block <- [DW_OP_plus_uconst 176, DW_OP_deref] $rsp
	movq	%r8, 40(%rsp)                   # 8-byte Spill
.Ltmp112:
	.loc	4 29 10 is_stmt 1               # /usr/include/x86_64-linux-gnu/bits/string_fortified.h:29:10 @[ crypto_pwhash/argon2/argon2-core.h:76:5 @[ crypto_pwhash/argon2/argon2-fill-block-ref.c:29:5 @[ crypto_pwhash/argon2/argon2-fill-block-ref.c:230:13 ] ] ]
	movl	$1024, %edx                     # imm = 0x400
	leaq	184(%rsp), %r14
	movq	%r14, %rdi
	movq	%rax, 144(%rsp)                 # 8-byte Spill
	callq	memcpy@PLT
.Ltmp113:
	.loc	4 0 10 is_stmt 0                # /usr/include/x86_64-linux-gnu/bits/string_fortified.h:0:10
	movq	144(%rsp), %rcx                 # 8-byte Reload
.Ltmp114:
	#DEBUG_VALUE: xor_block:dst <- [DW_OP_plus_uconst 184, DW_OP_stack_value] $rsp
	#DEBUG_VALUE: xor_block:src <- $rbx
	#DEBUG_VALUE: xor_block:i <- 0
	.loc	2 84 5 is_stmt 1                # crypto_pwhash/argon2/argon2-core.h:84:5 @[ crypto_pwhash/argon2/argon2-fill-block-ref.c:30:5 @[ crypto_pwhash/argon2/argon2-fill-block-ref.c:230:13 ] ]
	leaq	(%rcx,%r15), %rax
	addq	$1024, %rax                     # imm = 0x400
	cmpq	%rax, %r14
.Ltmp115:
	.loc	2 84 45 is_stmt 0               # crypto_pwhash/argon2/argon2-core.h:84:45 @[ crypto_pwhash/argon2/argon2-fill-block-ref.c:30:5 @[ crypto_pwhash/argon2/argon2-fill-block-ref.c:230:13 ] ]
	jae	.LBB0_40
.Ltmp116:
# %bb.37:                               # %vector.memcheck104
                                        #   in Loop: Header=BB0_16 Depth=1
	#DEBUG_VALUE: argon2_fill_segment_ref:position <- [DW_OP_plus_uconst 32, DW_OP_deref_size 8, DW_OP_constu 8, DW_OP_shr, DW_OP_LLVM_convert 64 7, DW_OP_LLVM_convert 24 7, DW_OP_stack_value, DW_OP_LLVM_fragment 72 24] $rsp
	#DEBUG_VALUE: argon2_fill_segment_ref:instance <- [DW_OP_plus_uconst 24] [$rsp+0]
	#DEBUG_VALUE: argon2_fill_segment_ref:position <- [DW_OP_plus_uconst 48, DW_OP_deref, DW_OP_LLVM_fragment 32 32] $rsp
	#DEBUG_VALUE: argon2_fill_segment_ref:position <- [DW_OP_plus_uconst 136, DW_OP_deref, DW_OP_LLVM_fragment 0 32] $rsp
	#DEBUG_VALUE: argon2_fill_segment_ref:position <- [DW_OP_plus_uconst 32, DW_OP_deref, DW_OP_LLVM_fragment 64 8] $rsp
	#DEBUG_VALUE: argon2_fill_segment_ref:position <- [DW_OP_plus_uconst 72, DW_OP_deref_size 8, DW_OP_stack_value, DW_OP_LLVM_fragment 96 32] $rsp
	#DEBUG_VALUE: argon2_fill_segment_ref:curr_block <- [DW_OP_plus_uconst 176, DW_OP_deref] $rsp
	#DEBUG_VALUE: argon2_fill_segment_ref:i <- [DW_OP_plus_uconst 72, DW_OP_deref_size 8, DW_OP_stack_value] $rsp
	#DEBUG_VALUE: argon2_fill_segment_ref:prev_offset <- [DW_OP_plus_uconst 16, DW_OP_deref] $rsp
	#DEBUG_VALUE: argon2_fill_segment_ref:curr_offset <- [DW_OP_plus_uconst 64, DW_OP_deref] $rsp
	#DEBUG_VALUE: fill_block:prev_block <- $rbx
	#DEBUG_VALUE: fill_block:next_block <- [DW_OP_plus_uconst 176, DW_OP_deref] $rsp
	#DEBUG_VALUE: xor_block:dst <- [DW_OP_plus_uconst 184, DW_OP_stack_value] $rsp
	#DEBUG_VALUE: xor_block:src <- $rbx
	#DEBUG_VALUE: xor_block:i <- 0
	leaq	1208(%rsp), %rax
	cmpq	%rax, %rbx
	jae	.LBB0_40
.Ltmp117:
# %bb.38:                               # %scalar.ph110.preheader
                                        #   in Loop: Header=BB0_16 Depth=1
	#DEBUG_VALUE: argon2_fill_segment_ref:position <- [DW_OP_plus_uconst 32, DW_OP_deref_size 8, DW_OP_constu 8, DW_OP_shr, DW_OP_LLVM_convert 64 7, DW_OP_LLVM_convert 24 7, DW_OP_stack_value, DW_OP_LLVM_fragment 72 24] $rsp
	#DEBUG_VALUE: argon2_fill_segment_ref:instance <- [DW_OP_plus_uconst 24] [$rsp+0]
	#DEBUG_VALUE: argon2_fill_segment_ref:position <- [DW_OP_plus_uconst 48, DW_OP_deref, DW_OP_LLVM_fragment 32 32] $rsp
	#DEBUG_VALUE: argon2_fill_segment_ref:position <- [DW_OP_plus_uconst 136, DW_OP_deref, DW_OP_LLVM_fragment 0 32] $rsp
	#DEBUG_VALUE: argon2_fill_segment_ref:position <- [DW_OP_plus_uconst 32, DW_OP_deref, DW_OP_LLVM_fragment 64 8] $rsp
	#DEBUG_VALUE: argon2_fill_segment_ref:position <- [DW_OP_plus_uconst 72, DW_OP_deref_size 8, DW_OP_stack_value, DW_OP_LLVM_fragment 96 32] $rsp
	#DEBUG_VALUE: argon2_fill_segment_ref:curr_block <- [DW_OP_plus_uconst 176, DW_OP_deref] $rsp
	#DEBUG_VALUE: argon2_fill_segment_ref:i <- [DW_OP_plus_uconst 72, DW_OP_deref_size 8, DW_OP_stack_value] $rsp
	#DEBUG_VALUE: argon2_fill_segment_ref:prev_offset <- [DW_OP_plus_uconst 16, DW_OP_deref] $rsp
	#DEBUG_VALUE: argon2_fill_segment_ref:curr_offset <- [DW_OP_plus_uconst 64, DW_OP_deref] $rsp
	#DEBUG_VALUE: fill_block:prev_block <- $rbx
	#DEBUG_VALUE: fill_block:next_block <- [DW_OP_plus_uconst 176, DW_OP_deref] $rsp
	#DEBUG_VALUE: xor_block:dst <- [DW_OP_plus_uconst 184, DW_OP_stack_value] $rsp
	#DEBUG_VALUE: xor_block:src <- $rbx
	#DEBUG_VALUE: xor_block:i <- 0
	.loc	2 84 5                          # crypto_pwhash/argon2/argon2-core.h:84:5 @[ crypto_pwhash/argon2/argon2-fill-block-ref.c:30:5 @[ crypto_pwhash/argon2/argon2-fill-block-ref.c:230:13 ] ]
	leaq	(%rcx,%r15), %rax
	addq	$24, %rax
	xorl	%ecx, %ecx
.Ltmp118:
	.loc	2 0 5                           # :0:5
.Ltmp119:
	.p2align	4
.LBB0_39:                               # %scalar.ph110
                                        #   Parent Loop BB0_16 Depth=1
                                        # =>  This Inner Loop Header: Depth=2
	#DEBUG_VALUE: argon2_fill_segment_ref:position <- [DW_OP_plus_uconst 32, DW_OP_deref_size 8, DW_OP_constu 8, DW_OP_shr, DW_OP_LLVM_convert 64 7, DW_OP_LLVM_convert 24 7, DW_OP_stack_value, DW_OP_LLVM_fragment 72 24] $rsp
	#DEBUG_VALUE: argon2_fill_segment_ref:instance <- [DW_OP_plus_uconst 24] [$rsp+0]
	#DEBUG_VALUE: argon2_fill_segment_ref:position <- [DW_OP_plus_uconst 48, DW_OP_deref, DW_OP_LLVM_fragment 32 32] $rsp
	#DEBUG_VALUE: argon2_fill_segment_ref:position <- [DW_OP_plus_uconst 136, DW_OP_deref, DW_OP_LLVM_fragment 0 32] $rsp
	#DEBUG_VALUE: argon2_fill_segment_ref:position <- [DW_OP_plus_uconst 32, DW_OP_deref, DW_OP_LLVM_fragment 64 8] $rsp
	#DEBUG_VALUE: argon2_fill_segment_ref:position <- [DW_OP_plus_uconst 72, DW_OP_deref_size 8, DW_OP_stack_value, DW_OP_LLVM_fragment 96 32] $rsp
	#DEBUG_VALUE: argon2_fill_segment_ref:curr_block <- [DW_OP_plus_uconst 176, DW_OP_deref] $rsp
	#DEBUG_VALUE: argon2_fill_segment_ref:i <- [DW_OP_plus_uconst 72, DW_OP_deref_size 8, DW_OP_stack_value] $rsp
	#DEBUG_VALUE: argon2_fill_segment_ref:prev_offset <- [DW_OP_plus_uconst 16, DW_OP_deref] $rsp
	#DEBUG_VALUE: argon2_fill_segment_ref:curr_offset <- [DW_OP_plus_uconst 64, DW_OP_deref] $rsp
	#DEBUG_VALUE: fill_block:prev_block <- $rbx
	#DEBUG_VALUE: fill_block:next_block <- [DW_OP_plus_uconst 176, DW_OP_deref] $rsp
	#DEBUG_VALUE: xor_block:dst <- [DW_OP_plus_uconst 184, DW_OP_stack_value] $rsp
	#DEBUG_VALUE: xor_block:src <- $rbx
	#DEBUG_VALUE: xor_block:i <- $rcx
	.loc	2 85 22 is_stmt 1               # crypto_pwhash/argon2/argon2-core.h:85:22 @[ crypto_pwhash/argon2/argon2-fill-block-ref.c:30:5 @[ crypto_pwhash/argon2/argon2-fill-block-ref.c:230:13 ] ]
	movq	-24(%rax,%rcx,8), %rdx
	.loc	2 85 19 is_stmt 0               # crypto_pwhash/argon2/argon2-core.h:85:19 @[ crypto_pwhash/argon2/argon2-fill-block-ref.c:30:5 @[ crypto_pwhash/argon2/argon2-fill-block-ref.c:230:13 ] ]
	xorq	%rdx, 184(%rsp,%rcx,8)
.Ltmp120:
	#DEBUG_VALUE: xor_block:i <- [DW_OP_constu 1, DW_OP_or, DW_OP_stack_value] $rcx
	.loc	2 85 22                         # crypto_pwhash/argon2/argon2-core.h:85:22 @[ crypto_pwhash/argon2/argon2-fill-block-ref.c:30:5 @[ crypto_pwhash/argon2/argon2-fill-block-ref.c:230:13 ] ]
	movq	-16(%rax,%rcx,8), %rdx
	.loc	2 85 19                         # crypto_pwhash/argon2/argon2-core.h:85:19 @[ crypto_pwhash/argon2/argon2-fill-block-ref.c:30:5 @[ crypto_pwhash/argon2/argon2-fill-block-ref.c:230:13 ] ]
	xorq	%rdx, 192(%rsp,%rcx,8)
.Ltmp121:
	#DEBUG_VALUE: xor_block:i <- [DW_OP_constu 2, DW_OP_or, DW_OP_stack_value] $rcx
	.loc	2 85 22                         # crypto_pwhash/argon2/argon2-core.h:85:22 @[ crypto_pwhash/argon2/argon2-fill-block-ref.c:30:5 @[ crypto_pwhash/argon2/argon2-fill-block-ref.c:230:13 ] ]
	movq	-8(%rax,%rcx,8), %rdx
	.loc	2 85 19                         # crypto_pwhash/argon2/argon2-core.h:85:19 @[ crypto_pwhash/argon2/argon2-fill-block-ref.c:30:5 @[ crypto_pwhash/argon2/argon2-fill-block-ref.c:230:13 ] ]
	xorq	%rdx, 200(%rsp,%rcx,8)
.Ltmp122:
	#DEBUG_VALUE: xor_block:i <- [DW_OP_constu 3, DW_OP_or, DW_OP_stack_value] $rcx
	.loc	2 85 22                         # crypto_pwhash/argon2/argon2-core.h:85:22 @[ crypto_pwhash/argon2/argon2-fill-block-ref.c:30:5 @[ crypto_pwhash/argon2/argon2-fill-block-ref.c:230:13 ] ]
	movq	(%rax,%rcx,8), %rdx
	.loc	2 85 19                         # crypto_pwhash/argon2/argon2-core.h:85:19 @[ crypto_pwhash/argon2/argon2-fill-block-ref.c:30:5 @[ crypto_pwhash/argon2/argon2-fill-block-ref.c:230:13 ] ]
	xorq	%rdx, 208(%rsp,%rcx,8)
.Ltmp123:
	.loc	2 84 45 is_stmt 1               # crypto_pwhash/argon2/argon2-core.h:84:45 @[ crypto_pwhash/argon2/argon2-fill-block-ref.c:30:5 @[ crypto_pwhash/argon2/argon2-fill-block-ref.c:230:13 ] ]
	addq	$4, %rcx
.Ltmp124:
	#DEBUG_VALUE: xor_block:i <- $rcx
	.loc	2 84 19 is_stmt 0               # crypto_pwhash/argon2/argon2-core.h:84:19 @[ crypto_pwhash/argon2/argon2-fill-block-ref.c:30:5 @[ crypto_pwhash/argon2/argon2-fill-block-ref.c:230:13 ] ]
	cmpq	$128, %rcx
.Ltmp125:
	.loc	2 84 5                          # crypto_pwhash/argon2/argon2-core.h:84:5 @[ crypto_pwhash/argon2/argon2-fill-block-ref.c:30:5 @[ crypto_pwhash/argon2/argon2-fill-block-ref.c:230:13 ] ]
	jne	.LBB0_39
	jmp	.LBB0_42
.Ltmp126:
.LBB0_40:                               # %vector.body112.preheader
                                        #   in Loop: Header=BB0_16 Depth=1
	#DEBUG_VALUE: argon2_fill_segment_ref:position <- [DW_OP_plus_uconst 32, DW_OP_deref_size 8, DW_OP_constu 8, DW_OP_shr, DW_OP_LLVM_convert 64 7, DW_OP_LLVM_convert 24 7, DW_OP_stack_value, DW_OP_LLVM_fragment 72 24] $rsp
	#DEBUG_VALUE: argon2_fill_segment_ref:instance <- [DW_OP_plus_uconst 24] [$rsp+0]
	#DEBUG_VALUE: argon2_fill_segment_ref:position <- [DW_OP_plus_uconst 48, DW_OP_deref, DW_OP_LLVM_fragment 32 32] $rsp
	#DEBUG_VALUE: argon2_fill_segment_ref:position <- [DW_OP_plus_uconst 136, DW_OP_deref, DW_OP_LLVM_fragment 0 32] $rsp
	#DEBUG_VALUE: argon2_fill_segment_ref:position <- [DW_OP_plus_uconst 32, DW_OP_deref, DW_OP_LLVM_fragment 64 8] $rsp
	#DEBUG_VALUE: argon2_fill_segment_ref:position <- [DW_OP_plus_uconst 72, DW_OP_deref_size 8, DW_OP_stack_value, DW_OP_LLVM_fragment 96 32] $rsp
	#DEBUG_VALUE: argon2_fill_segment_ref:curr_block <- [DW_OP_plus_uconst 176, DW_OP_deref] $rsp
	#DEBUG_VALUE: argon2_fill_segment_ref:i <- [DW_OP_plus_uconst 72, DW_OP_deref_size 8, DW_OP_stack_value] $rsp
	#DEBUG_VALUE: argon2_fill_segment_ref:prev_offset <- [DW_OP_plus_uconst 16, DW_OP_deref] $rsp
	#DEBUG_VALUE: argon2_fill_segment_ref:curr_offset <- [DW_OP_plus_uconst 64, DW_OP_deref] $rsp
	#DEBUG_VALUE: fill_block:prev_block <- $rbx
	#DEBUG_VALUE: fill_block:next_block <- [DW_OP_plus_uconst 176, DW_OP_deref] $rsp
	#DEBUG_VALUE: xor_block:dst <- [DW_OP_plus_uconst 184, DW_OP_stack_value] $rsp
	#DEBUG_VALUE: xor_block:src <- $rbx
	#DEBUG_VALUE: xor_block:i <- 0
	leaq	(%rcx,%r15), %rax
	addq	$48, %rax
	xorl	%ecx, %ecx
.Ltmp127:
	.loc	2 0 5                           # :0:5
.Ltmp128:
	.p2align	4
.LBB0_41:                               # %vector.body112
                                        #   Parent Loop BB0_16 Depth=1
                                        # =>  This Inner Loop Header: Depth=2
	#DEBUG_VALUE: argon2_fill_segment_ref:position <- [DW_OP_plus_uconst 32, DW_OP_deref_size 8, DW_OP_constu 8, DW_OP_shr, DW_OP_LLVM_convert 64 7, DW_OP_LLVM_convert 24 7, DW_OP_stack_value, DW_OP_LLVM_fragment 72 24] $rsp
	#DEBUG_VALUE: argon2_fill_segment_ref:instance <- [DW_OP_plus_uconst 24] [$rsp+0]
	#DEBUG_VALUE: argon2_fill_segment_ref:position <- [DW_OP_plus_uconst 48, DW_OP_deref, DW_OP_LLVM_fragment 32 32] $rsp
	#DEBUG_VALUE: argon2_fill_segment_ref:position <- [DW_OP_plus_uconst 136, DW_OP_deref, DW_OP_LLVM_fragment 0 32] $rsp
	#DEBUG_VALUE: argon2_fill_segment_ref:position <- [DW_OP_plus_uconst 32, DW_OP_deref, DW_OP_LLVM_fragment 64 8] $rsp
	#DEBUG_VALUE: argon2_fill_segment_ref:position <- [DW_OP_plus_uconst 72, DW_OP_deref_size 8, DW_OP_stack_value, DW_OP_LLVM_fragment 96 32] $rsp
	#DEBUG_VALUE: argon2_fill_segment_ref:curr_block <- [DW_OP_plus_uconst 176, DW_OP_deref] $rsp
	#DEBUG_VALUE: argon2_fill_segment_ref:i <- [DW_OP_plus_uconst 72, DW_OP_deref_size 8, DW_OP_stack_value] $rsp
	#DEBUG_VALUE: argon2_fill_segment_ref:prev_offset <- [DW_OP_plus_uconst 16, DW_OP_deref] $rsp
	#DEBUG_VALUE: argon2_fill_segment_ref:curr_offset <- [DW_OP_plus_uconst 64, DW_OP_deref] $rsp
	#DEBUG_VALUE: fill_block:prev_block <- $rbx
	#DEBUG_VALUE: fill_block:next_block <- [DW_OP_plus_uconst 176, DW_OP_deref] $rsp
	#DEBUG_VALUE: xor_block:dst <- [DW_OP_plus_uconst 184, DW_OP_stack_value] $rsp
	#DEBUG_VALUE: xor_block:src <- $rbx
	#DEBUG_VALUE: xor_block:i <- 0
	.loc	2 85 22 is_stmt 1               # crypto_pwhash/argon2/argon2-core.h:85:22 @[ crypto_pwhash/argon2/argon2-fill-block-ref.c:30:5 @[ crypto_pwhash/argon2/argon2-fill-block-ref.c:230:13 ] ]
	movups	-48(%rax,%rcx,8), %xmm0
	movups	-32(%rax,%rcx,8), %xmm1
	.loc	2 85 19 is_stmt 0               # crypto_pwhash/argon2/argon2-core.h:85:19 @[ crypto_pwhash/argon2/argon2-fill-block-ref.c:30:5 @[ crypto_pwhash/argon2/argon2-fill-block-ref.c:230:13 ] ]
	movups	184(%rsp,%rcx,8), %xmm2
	xorps	%xmm0, %xmm2
	movups	200(%rsp,%rcx,8), %xmm0
	xorps	%xmm1, %xmm0
	movups	216(%rsp,%rcx,8), %xmm1
	movups	232(%rsp,%rcx,8), %xmm3
	movups	%xmm2, 184(%rsp,%rcx,8)
	movups	%xmm0, 200(%rsp,%rcx,8)
	.loc	2 85 22                         # crypto_pwhash/argon2/argon2-core.h:85:22 @[ crypto_pwhash/argon2/argon2-fill-block-ref.c:30:5 @[ crypto_pwhash/argon2/argon2-fill-block-ref.c:230:13 ] ]
	movups	-16(%rax,%rcx,8), %xmm0
	.loc	2 85 19                         # crypto_pwhash/argon2/argon2-core.h:85:19 @[ crypto_pwhash/argon2/argon2-fill-block-ref.c:30:5 @[ crypto_pwhash/argon2/argon2-fill-block-ref.c:230:13 ] ]
	xorps	%xmm1, %xmm0
	.loc	2 85 22                         # crypto_pwhash/argon2/argon2-core.h:85:22 @[ crypto_pwhash/argon2/argon2-fill-block-ref.c:30:5 @[ crypto_pwhash/argon2/argon2-fill-block-ref.c:230:13 ] ]
	movups	(%rax,%rcx,8), %xmm1
	.loc	2 85 19                         # crypto_pwhash/argon2/argon2-core.h:85:19 @[ crypto_pwhash/argon2/argon2-fill-block-ref.c:30:5 @[ crypto_pwhash/argon2/argon2-fill-block-ref.c:230:13 ] ]
	xorps	%xmm3, %xmm1
	movups	%xmm0, 216(%rsp,%rcx,8)
	movups	%xmm1, 232(%rsp,%rcx,8)
.Ltmp129:
	.loc	2 84 45 is_stmt 1               # crypto_pwhash/argon2/argon2-core.h:84:45 @[ crypto_pwhash/argon2/argon2-fill-block-ref.c:30:5 @[ crypto_pwhash/argon2/argon2-fill-block-ref.c:230:13 ] ]
	addq	$8, %rcx
	cmpq	$128, %rcx
	jne	.LBB0_41
.Ltmp130:
.LBB0_42:                               # %xor_block.exit.i
                                        #   in Loop: Header=BB0_16 Depth=1
	#DEBUG_VALUE: argon2_fill_segment_ref:position <- [DW_OP_plus_uconst 32, DW_OP_deref_size 8, DW_OP_constu 8, DW_OP_shr, DW_OP_LLVM_convert 64 7, DW_OP_LLVM_convert 24 7, DW_OP_stack_value, DW_OP_LLVM_fragment 72 24] $rsp
	#DEBUG_VALUE: argon2_fill_segment_ref:instance <- [DW_OP_plus_uconst 24] [$rsp+0]
	#DEBUG_VALUE: argon2_fill_segment_ref:position <- [DW_OP_plus_uconst 48, DW_OP_deref, DW_OP_LLVM_fragment 32 32] $rsp
	#DEBUG_VALUE: argon2_fill_segment_ref:position <- [DW_OP_plus_uconst 136, DW_OP_deref, DW_OP_LLVM_fragment 0 32] $rsp
	#DEBUG_VALUE: argon2_fill_segment_ref:position <- [DW_OP_plus_uconst 32, DW_OP_deref, DW_OP_LLVM_fragment 64 8] $rsp
	#DEBUG_VALUE: argon2_fill_segment_ref:position <- [DW_OP_plus_uconst 72, DW_OP_deref_size 8, DW_OP_stack_value, DW_OP_LLVM_fragment 96 32] $rsp
	#DEBUG_VALUE: argon2_fill_segment_ref:curr_block <- [DW_OP_plus_uconst 176, DW_OP_deref] $rsp
	#DEBUG_VALUE: argon2_fill_segment_ref:i <- [DW_OP_plus_uconst 72, DW_OP_deref_size 8, DW_OP_stack_value] $rsp
	#DEBUG_VALUE: argon2_fill_segment_ref:prev_offset <- [DW_OP_plus_uconst 16, DW_OP_deref] $rsp
	#DEBUG_VALUE: argon2_fill_segment_ref:curr_offset <- [DW_OP_plus_uconst 64, DW_OP_deref] $rsp
	#DEBUG_VALUE: fill_block:prev_block <- $rbx
	#DEBUG_VALUE: fill_block:next_block <- [DW_OP_plus_uconst 176, DW_OP_deref] $rsp
	.loc	3 0 0 is_stmt 0                 # crypto_pwhash/argon2/argon2-fill-block-ref.c:0
	shlq	$10, 40(%rsp)                   # 8-byte Folded Spill
	movq	160(%rsp), %rax                 # 8-byte Reload
	movq	80(%rsp), %rcx                  # 8-byte Reload
	addl	%ecx, %eax
	shlq	$10, %rax
.Ltmp131:
	#DEBUG_VALUE: copy_block:dst <- undef
	#DEBUG_VALUE: copy_block:src <- [DW_OP_plus_uconst 184, DW_OP_stack_value] $rsp
	#DEBUG_VALUE: memcpy:__dest <- undef
	#DEBUG_VALUE: memcpy:__src <- [DW_OP_plus_uconst 184, DW_OP_stack_value] $rsp
	#DEBUG_VALUE: memcpy:__len <- 1024
	movq	%rax, 168(%rsp)                 # 8-byte Spill
.Ltmp132:
	.loc	4 29 10 is_stmt 1               # /usr/include/x86_64-linux-gnu/bits/string_fortified.h:29:10 @[ crypto_pwhash/argon2/argon2-core.h:76:5 @[ crypto_pwhash/argon2/argon2-fill-block-ref.c:31:5 @[ crypto_pwhash/argon2/argon2-fill-block-ref.c:230:13 ] ] ]
	movl	$1024, %edx                     # imm = 0x400
	leaq	1208(%rsp), %rdi
	leaq	184(%rsp), %rsi
	callq	memcpy@PLT
.Ltmp133:
	.loc	4 0 10 is_stmt 0                # /usr/include/x86_64-linux-gnu/bits/string_fortified.h:0:10
	movl	$120, %r8d
.Ltmp134:
	#DEBUG_VALUE: fill_block:i <- 0
	movabsq	$8589934590, %rdx               # imm = 0x1FFFFFFFE
.Ltmp135:
	.p2align	4
.LBB0_43:                               #   Parent Loop BB0_16 Depth=1
                                        # =>  This Inner Loop Header: Depth=2
	#DEBUG_VALUE: argon2_fill_segment_ref:position <- [DW_OP_plus_uconst 32, DW_OP_deref_size 8, DW_OP_constu 8, DW_OP_shr, DW_OP_LLVM_convert 64 7, DW_OP_LLVM_convert 24 7, DW_OP_stack_value, DW_OP_LLVM_fragment 72 24] $rsp
	#DEBUG_VALUE: argon2_fill_segment_ref:instance <- [DW_OP_plus_uconst 24] [$rsp+0]
	#DEBUG_VALUE: argon2_fill_segment_ref:position <- [DW_OP_plus_uconst 48, DW_OP_deref, DW_OP_LLVM_fragment 32 32] $rsp
	#DEBUG_VALUE: argon2_fill_segment_ref:position <- [DW_OP_plus_uconst 136, DW_OP_deref, DW_OP_LLVM_fragment 0 32] $rsp
	#DEBUG_VALUE: argon2_fill_segment_ref:position <- [DW_OP_plus_uconst 32, DW_OP_deref, DW_OP_LLVM_fragment 64 8] $rsp
	#DEBUG_VALUE: argon2_fill_segment_ref:position <- [DW_OP_plus_uconst 72, DW_OP_deref_size 8, DW_OP_stack_value, DW_OP_LLVM_fragment 96 32] $rsp
	#DEBUG_VALUE: argon2_fill_segment_ref:curr_block <- [DW_OP_plus_uconst 176, DW_OP_deref] $rsp
	#DEBUG_VALUE: argon2_fill_segment_ref:i <- [DW_OP_plus_uconst 72, DW_OP_deref_size 8, DW_OP_stack_value] $rsp
	#DEBUG_VALUE: argon2_fill_segment_ref:prev_offset <- [DW_OP_plus_uconst 16, DW_OP_deref] $rsp
	#DEBUG_VALUE: argon2_fill_segment_ref:curr_offset <- [DW_OP_plus_uconst 64, DW_OP_deref] $rsp
	#DEBUG_VALUE: fill_block:next_block <- [DW_OP_plus_uconst 176, DW_OP_deref] $rsp
	#DEBUG_VALUE: fill_block:i <- [DW_OP_consts 120, DW_OP_minus, DW_OP_consts 128, DW_OP_div, DW_OP_stack_value] $r8
	.loc	3 36 64 is_stmt 1               # crypto_pwhash/argon2/argon2-fill-block-ref.c:36:64 @[ crypto_pwhash/argon2/argon2-fill-block-ref.c:230:13 ]
	movq	96(%rsp,%r8), %r9
.Ltmp136:
	#DEBUG_VALUE: fBlaMka:y <- $r9
	#DEBUG_VALUE: fBlaMka:x <- undef
	#DEBUG_VALUE: fBlaMka:m <- 4294967295
	.file	5 "crypto_pwhash/argon2" "blamka-round-ref.h"
	.loc	5 11 38                         # crypto_pwhash/argon2/blamka-round-ref.h:11:38 @[ crypto_pwhash/argon2/argon2-fill-block-ref.c:36:38 @[ crypto_pwhash/argon2/argon2-fill-block-ref.c:230:13 ] ]
	movl	%r9d, %eax
.Ltmp137:
	.loc	3 36 46                         # crypto_pwhash/argon2/argon2-fill-block-ref.c:36:46 @[ crypto_pwhash/argon2/argon2-fill-block-ref.c:230:13 ]
	movq	64(%rsp,%r8), %r14
.Ltmp138:
	#DEBUG_VALUE: fBlaMka:x <- $r14
	.loc	5 12 14                         # crypto_pwhash/argon2/blamka-round-ref.h:12:14 @[ crypto_pwhash/argon2/argon2-fill-block-ref.c:36:38 @[ crypto_pwhash/argon2/argon2-fill-block-ref.c:230:13 ] ]
	leaq	(%r9,%r14), %rcx
	.loc	5 11 33                         # crypto_pwhash/argon2/blamka-round-ref.h:11:33 @[ crypto_pwhash/argon2/argon2-fill-block-ref.c:36:38 @[ crypto_pwhash/argon2/argon2-fill-block-ref.c:230:13 ] ]
	addq	%r14, %r14
.Ltmp139:
	andq	%rdx, %r14
	.loc	5 12 22                         # crypto_pwhash/argon2/blamka-round-ref.h:12:22 @[ crypto_pwhash/argon2/argon2-fill-block-ref.c:36:38 @[ crypto_pwhash/argon2/argon2-fill-block-ref.c:230:13 ] ]
	imulq	%rax, %r14
	.loc	5 12 18 is_stmt 0               # crypto_pwhash/argon2/blamka-round-ref.h:12:18 @[ crypto_pwhash/argon2/argon2-fill-block-ref.c:36:38 @[ crypto_pwhash/argon2/argon2-fill-block-ref.c:230:13 ] ]
	addq	%rcx, %r14
	movq	160(%rsp,%r8), %r10
.Ltmp140:
	.loc	3 36 141 is_stmt 1              # crypto_pwhash/argon2/argon2-fill-block-ref.c:36:141 @[ crypto_pwhash/argon2/argon2-fill-block-ref.c:230:13 ]
	xorq	%r14, %r10
.Ltmp141:
	#DEBUG_VALUE: rotr64:x <- undef
	#DEBUG_VALUE: rotr64:b <- 32
	.file	6 "./include/sodium/private" "common.h"
	.loc	6 58 21                         # ./include/sodium/private/common.h:58:21 @[ crypto_pwhash/argon2/argon2-fill-block-ref.c:36:111 @[ crypto_pwhash/argon2/argon2-fill-block-ref.c:230:13 ] ]
	rolq	$32, %r10
.Ltmp142:
	.loc	3 36 700                        # crypto_pwhash/argon2/argon2-fill-block-ref.c:36:700 @[ crypto_pwhash/argon2/argon2-fill-block-ref.c:230:13 ]
	movq	72(%rsp,%r8), %rdi
.Ltmp143:
	#DEBUG_VALUE: fBlaMka:xy <- undef
	.loc	3 36 200 is_stmt 0              # crypto_pwhash/argon2/argon2-fill-block-ref.c:36:200 @[ crypto_pwhash/argon2/argon2-fill-block-ref.c:230:13 ]
	movq	128(%rsp,%r8), %rdx
.Ltmp144:
	#DEBUG_VALUE: fBlaMka:x <- $rdx
	#DEBUG_VALUE: fBlaMka:y <- $r10
	#DEBUG_VALUE: fBlaMka:m <- 4294967295
	.loc	5 11 38 is_stmt 1               # crypto_pwhash/argon2/blamka-round-ref.h:11:38 @[ crypto_pwhash/argon2/argon2-fill-block-ref.c:36:192 @[ crypto_pwhash/argon2/argon2-fill-block-ref.c:230:13 ] ]
	movl	%r10d, %eax
.Ltmp145:
	#DEBUG_VALUE: fBlaMka:xy <- undef
	.loc	5 12 14                         # crypto_pwhash/argon2/blamka-round-ref.h:12:14 @[ crypto_pwhash/argon2/argon2-fill-block-ref.c:36:192 @[ crypto_pwhash/argon2/argon2-fill-block-ref.c:230:13 ] ]
	leaq	(%r10,%rdx), %rcx
	.loc	5 11 33                         # crypto_pwhash/argon2/blamka-round-ref.h:11:33 @[ crypto_pwhash/argon2/argon2-fill-block-ref.c:36:192 @[ crypto_pwhash/argon2/argon2-fill-block-ref.c:230:13 ] ]
	addq	%rdx, %rdx
.Ltmp146:
	movabsq	$8589934590, %rsi               # imm = 0x1FFFFFFFE
	andq	%rsi, %rdx
	.loc	5 12 22                         # crypto_pwhash/argon2/blamka-round-ref.h:12:22 @[ crypto_pwhash/argon2/argon2-fill-block-ref.c:36:192 @[ crypto_pwhash/argon2/argon2-fill-block-ref.c:230:13 ] ]
	imulq	%rax, %rdx
	.loc	5 12 18 is_stmt 0               # crypto_pwhash/argon2/blamka-round-ref.h:12:18 @[ crypto_pwhash/argon2/argon2-fill-block-ref.c:36:192 @[ crypto_pwhash/argon2/argon2-fill-block-ref.c:230:13 ] ]
	addq	%rcx, %rdx
.Ltmp147:
	.loc	3 36 298 is_stmt 1              # crypto_pwhash/argon2/argon2-fill-block-ref.c:36:298 @[ crypto_pwhash/argon2/argon2-fill-block-ref.c:230:13 ]
	xorq	%rdx, %r9
.Ltmp148:
	#DEBUG_VALUE: rotr64:x <- $r9
	#DEBUG_VALUE: rotr64:b <- 24
	.loc	6 58 21                         # ./include/sodium/private/common.h:58:21 @[ crypto_pwhash/argon2/argon2-fill-block-ref.c:36:269 @[ crypto_pwhash/argon2/argon2-fill-block-ref.c:230:13 ] ]
	rolq	$40, %r9
.Ltmp149:
	#DEBUG_VALUE: fBlaMka:y <- $r9
	#DEBUG_VALUE: fBlaMka:x <- $r14
	#DEBUG_VALUE: fBlaMka:m <- 4294967295
	.loc	6 0 21 is_stmt 0                # ./include/sodium/private/common.h:0:21
	movq	%r9, 120(%rsp)                  # 8-byte Spill
.Ltmp150:
	#DEBUG_VALUE: fBlaMka:y <- [DW_OP_plus_uconst 120, DW_OP_deref] $rsp
	.loc	5 11 38 is_stmt 1               # crypto_pwhash/argon2/blamka-round-ref.h:11:38 @[ crypto_pwhash/argon2/argon2-fill-block-ref.c:36:349 @[ crypto_pwhash/argon2/argon2-fill-block-ref.c:230:13 ] ]
	movl	%r9d, %eax
.Ltmp151:
	#DEBUG_VALUE: fBlaMka:xy <- undef
	.loc	5 12 14                         # crypto_pwhash/argon2/blamka-round-ref.h:12:14 @[ crypto_pwhash/argon2/argon2-fill-block-ref.c:36:349 @[ crypto_pwhash/argon2/argon2-fill-block-ref.c:230:13 ] ]
	leaq	(%r9,%r14), %rcx
	.loc	5 11 33                         # crypto_pwhash/argon2/blamka-round-ref.h:11:33 @[ crypto_pwhash/argon2/argon2-fill-block-ref.c:36:349 @[ crypto_pwhash/argon2/argon2-fill-block-ref.c:230:13 ] ]
	addq	%r14, %r14
.Ltmp152:
	andq	%rsi, %r14
	.loc	5 12 22                         # crypto_pwhash/argon2/blamka-round-ref.h:12:22 @[ crypto_pwhash/argon2/argon2-fill-block-ref.c:36:349 @[ crypto_pwhash/argon2/argon2-fill-block-ref.c:230:13 ] ]
	imulq	%rax, %r14
	.loc	5 12 18 is_stmt 0               # crypto_pwhash/argon2/blamka-round-ref.h:12:18 @[ crypto_pwhash/argon2/argon2-fill-block-ref.c:36:349 @[ crypto_pwhash/argon2/argon2-fill-block-ref.c:230:13 ] ]
	addq	%rcx, %r14
.Ltmp153:
	.loc	3 36 452 is_stmt 1              # crypto_pwhash/argon2/argon2-fill-block-ref.c:36:452 @[ crypto_pwhash/argon2/argon2-fill-block-ref.c:230:13 ]
	xorq	%r14, %r10
.Ltmp154:
	#DEBUG_VALUE: rotr64:x <- $r10
	#DEBUG_VALUE: rotr64:b <- 16
	.loc	6 58 21                         # ./include/sodium/private/common.h:58:21 @[ crypto_pwhash/argon2/argon2-fill-block-ref.c:36:422 @[ crypto_pwhash/argon2/argon2-fill-block-ref.c:230:13 ] ]
	rolq	$48, %r10
.Ltmp155:
	#DEBUG_VALUE: fBlaMka:y <- $r10
	#DEBUG_VALUE: fBlaMka:x <- $rdx
	#DEBUG_VALUE: fBlaMka:m <- 4294967295
	.loc	6 0 21 is_stmt 0                # ./include/sodium/private/common.h:0:21
	movq	%r10, 96(%rsp)                  # 8-byte Spill
.Ltmp156:
	#DEBUG_VALUE: fBlaMka:y <- [DW_OP_plus_uconst 96, DW_OP_deref] $rsp
	.loc	5 11 38 is_stmt 1               # crypto_pwhash/argon2/blamka-round-ref.h:11:38 @[ crypto_pwhash/argon2/argon2-fill-block-ref.c:36:503 @[ crypto_pwhash/argon2/argon2-fill-block-ref.c:230:13 ] ]
	movl	%r10d, %ecx
.Ltmp157:
	#DEBUG_VALUE: fBlaMka:xy <- undef
	.loc	5 12 14                         # crypto_pwhash/argon2/blamka-round-ref.h:12:14 @[ crypto_pwhash/argon2/argon2-fill-block-ref.c:36:503 @[ crypto_pwhash/argon2/argon2-fill-block-ref.c:230:13 ] ]
	leaq	(%r10,%rdx), %rax
	.loc	5 11 33                         # crypto_pwhash/argon2/blamka-round-ref.h:11:33 @[ crypto_pwhash/argon2/argon2-fill-block-ref.c:36:503 @[ crypto_pwhash/argon2/argon2-fill-block-ref.c:230:13 ] ]
	addq	%rdx, %rdx
.Ltmp158:
	andq	%rsi, %rdx
	.loc	5 12 22                         # crypto_pwhash/argon2/blamka-round-ref.h:12:22 @[ crypto_pwhash/argon2/argon2-fill-block-ref.c:36:503 @[ crypto_pwhash/argon2/argon2-fill-block-ref.c:230:13 ] ]
	imulq	%rcx, %rdx
.Ltmp159:
	#DEBUG_VALUE: rotr64:x <- undef
	#DEBUG_VALUE: rotr64:b <- 63
	.loc	3 36 722                        # crypto_pwhash/argon2/argon2-fill-block-ref.c:36:722 @[ crypto_pwhash/argon2/argon2-fill-block-ref.c:230:13 ]
	movq	104(%rsp,%r8), %rbp
.Ltmp160:
	#DEBUG_VALUE: fBlaMka:y <- $rbp
	#DEBUG_VALUE: fBlaMka:x <- $rdi
	#DEBUG_VALUE: fBlaMka:m <- 4294967295
	.loc	5 11 38                         # crypto_pwhash/argon2/blamka-round-ref.h:11:38 @[ crypto_pwhash/argon2/argon2-fill-block-ref.c:36:692 @[ crypto_pwhash/argon2/argon2-fill-block-ref.c:230:13 ] ]
	movl	%ebp, %ecx
.Ltmp161:
	#DEBUG_VALUE: fBlaMka:xy <- undef
	.loc	5 12 14                         # crypto_pwhash/argon2/blamka-round-ref.h:12:14 @[ crypto_pwhash/argon2/argon2-fill-block-ref.c:36:692 @[ crypto_pwhash/argon2/argon2-fill-block-ref.c:230:13 ] ]
	leaq	(%rdi,%rbp), %rsi
	.loc	5 11 33                         # crypto_pwhash/argon2/blamka-round-ref.h:11:33 @[ crypto_pwhash/argon2/argon2-fill-block-ref.c:36:692 @[ crypto_pwhash/argon2/argon2-fill-block-ref.c:230:13 ] ]
	addq	%rdi, %rdi
.Ltmp162:
	movabsq	$8589934590, %r9                # imm = 0x1FFFFFFFE
	andq	%r9, %rdi
	.loc	5 12 22                         # crypto_pwhash/argon2/blamka-round-ref.h:12:22 @[ crypto_pwhash/argon2/argon2-fill-block-ref.c:36:692 @[ crypto_pwhash/argon2/argon2-fill-block-ref.c:230:13 ] ]
	imulq	%rcx, %rdi
	.loc	5 12 18 is_stmt 0               # crypto_pwhash/argon2/blamka-round-ref.h:12:18 @[ crypto_pwhash/argon2/argon2-fill-block-ref.c:36:692 @[ crypto_pwhash/argon2/argon2-fill-block-ref.c:230:13 ] ]
	addq	%rsi, %rdi
	movq	168(%rsp,%r8), %r10
.Ltmp163:
	.loc	3 36 799 is_stmt 1              # crypto_pwhash/argon2/argon2-fill-block-ref.c:36:799 @[ crypto_pwhash/argon2/argon2-fill-block-ref.c:230:13 ]
	xorq	%rdi, %r10
.Ltmp164:
	#DEBUG_VALUE: rotr64:x <- undef
	#DEBUG_VALUE: rotr64:b <- 32
	.loc	6 58 21                         # ./include/sodium/private/common.h:58:21 @[ crypto_pwhash/argon2/argon2-fill-block-ref.c:36:769 @[ crypto_pwhash/argon2/argon2-fill-block-ref.c:230:13 ] ]
	rolq	$32, %r10
.Ltmp165:
	.loc	5 12 18                         # crypto_pwhash/argon2/blamka-round-ref.h:12:18 @[ crypto_pwhash/argon2/argon2-fill-block-ref.c:36:503 @[ crypto_pwhash/argon2/argon2-fill-block-ref.c:230:13 ] ]
	addq	%rax, %rdx
.Ltmp166:
	.loc	3 36 862                        # crypto_pwhash/argon2/argon2-fill-block-ref.c:36:862 @[ crypto_pwhash/argon2/argon2-fill-block-ref.c:230:13 ]
	movq	136(%rsp,%r8), %rsi
.Ltmp167:
	#DEBUG_VALUE: fBlaMka:x <- $rsi
	#DEBUG_VALUE: fBlaMka:y <- $r10
	#DEBUG_VALUE: fBlaMka:m <- 4294967295
	.loc	5 11 38                         # crypto_pwhash/argon2/blamka-round-ref.h:11:38 @[ crypto_pwhash/argon2/argon2-fill-block-ref.c:36:854 @[ crypto_pwhash/argon2/argon2-fill-block-ref.c:230:13 ] ]
	movl	%r10d, %eax
.Ltmp168:
	#DEBUG_VALUE: fBlaMka:xy <- undef
	.loc	5 12 14                         # crypto_pwhash/argon2/blamka-round-ref.h:12:14 @[ crypto_pwhash/argon2/argon2-fill-block-ref.c:36:854 @[ crypto_pwhash/argon2/argon2-fill-block-ref.c:230:13 ] ]
	leaq	(%r10,%rsi), %rcx
	.loc	5 11 33                         # crypto_pwhash/argon2/blamka-round-ref.h:11:33 @[ crypto_pwhash/argon2/argon2-fill-block-ref.c:36:854 @[ crypto_pwhash/argon2/argon2-fill-block-ref.c:230:13 ] ]
	addq	%rsi, %rsi
.Ltmp169:
	andq	%r9, %rsi
	.loc	5 12 22                         # crypto_pwhash/argon2/blamka-round-ref.h:12:22 @[ crypto_pwhash/argon2/argon2-fill-block-ref.c:36:854 @[ crypto_pwhash/argon2/argon2-fill-block-ref.c:230:13 ] ]
	imulq	%rax, %rsi
	.loc	5 12 18 is_stmt 0               # crypto_pwhash/argon2/blamka-round-ref.h:12:18 @[ crypto_pwhash/argon2/argon2-fill-block-ref.c:36:854 @[ crypto_pwhash/argon2/argon2-fill-block-ref.c:230:13 ] ]
	addq	%rcx, %rsi
.Ltmp170:
	.loc	3 36 960 is_stmt 1              # crypto_pwhash/argon2/argon2-fill-block-ref.c:36:960 @[ crypto_pwhash/argon2/argon2-fill-block-ref.c:230:13 ]
	xorq	%rsi, %rbp
.Ltmp171:
	#DEBUG_VALUE: rotr64:x <- $rbp
	#DEBUG_VALUE: rotr64:b <- 24
	.loc	6 58 21                         # ./include/sodium/private/common.h:58:21 @[ crypto_pwhash/argon2/argon2-fill-block-ref.c:36:931 @[ crypto_pwhash/argon2/argon2-fill-block-ref.c:230:13 ] ]
	rolq	$40, %rbp
.Ltmp172:
	#DEBUG_VALUE: fBlaMka:y <- $rbp
	#DEBUG_VALUE: fBlaMka:x <- $rdi
	#DEBUG_VALUE: fBlaMka:m <- 4294967295
	.loc	5 11 38                         # crypto_pwhash/argon2/blamka-round-ref.h:11:38 @[ crypto_pwhash/argon2/argon2-fill-block-ref.c:36:1015 @[ crypto_pwhash/argon2/argon2-fill-block-ref.c:230:13 ] ]
	movl	%ebp, %eax
.Ltmp173:
	#DEBUG_VALUE: fBlaMka:xy <- undef
	.loc	5 12 14                         # crypto_pwhash/argon2/blamka-round-ref.h:12:14 @[ crypto_pwhash/argon2/argon2-fill-block-ref.c:36:1015 @[ crypto_pwhash/argon2/argon2-fill-block-ref.c:230:13 ] ]
	leaq	(%rdi,%rbp), %rcx
	.loc	5 11 33                         # crypto_pwhash/argon2/blamka-round-ref.h:11:33 @[ crypto_pwhash/argon2/argon2-fill-block-ref.c:36:1015 @[ crypto_pwhash/argon2/argon2-fill-block-ref.c:230:13 ] ]
	addq	%rdi, %rdi
.Ltmp174:
	andq	%r9, %rdi
	.loc	5 12 22                         # crypto_pwhash/argon2/blamka-round-ref.h:12:22 @[ crypto_pwhash/argon2/argon2-fill-block-ref.c:36:1015 @[ crypto_pwhash/argon2/argon2-fill-block-ref.c:230:13 ] ]
	imulq	%rax, %rdi
	.loc	5 12 18 is_stmt 0               # crypto_pwhash/argon2/blamka-round-ref.h:12:18 @[ crypto_pwhash/argon2/argon2-fill-block-ref.c:36:1015 @[ crypto_pwhash/argon2/argon2-fill-block-ref.c:230:13 ] ]
	addq	%rcx, %rdi
.Ltmp175:
	.loc	3 36 1122 is_stmt 1             # crypto_pwhash/argon2/argon2-fill-block-ref.c:36:1122 @[ crypto_pwhash/argon2/argon2-fill-block-ref.c:230:13 ]
	xorq	%rdi, %r10
.Ltmp176:
	#DEBUG_VALUE: rotr64:x <- $r10
	#DEBUG_VALUE: rotr64:b <- 16
	.loc	6 58 21                         # ./include/sodium/private/common.h:58:21 @[ crypto_pwhash/argon2/argon2-fill-block-ref.c:36:1092 @[ crypto_pwhash/argon2/argon2-fill-block-ref.c:230:13 ] ]
	rolq	$48, %r10
.Ltmp177:
	#DEBUG_VALUE: fBlaMka:y <- $r10
	#DEBUG_VALUE: fBlaMka:x <- $rsi
	#DEBUG_VALUE: fBlaMka:m <- 4294967295
	.loc	6 0 21 is_stmt 0                # ./include/sodium/private/common.h:0:21
	movq	%r10, 104(%rsp)                 # 8-byte Spill
.Ltmp178:
	#DEBUG_VALUE: fBlaMka:y <- [DW_OP_plus_uconst 104, DW_OP_deref] $rsp
	.loc	5 11 38 is_stmt 1               # crypto_pwhash/argon2/blamka-round-ref.h:11:38 @[ crypto_pwhash/argon2/argon2-fill-block-ref.c:36:1177 @[ crypto_pwhash/argon2/argon2-fill-block-ref.c:230:13 ] ]
	movl	%r10d, %ecx
.Ltmp179:
	#DEBUG_VALUE: fBlaMka:xy <- undef
	.loc	5 12 14                         # crypto_pwhash/argon2/blamka-round-ref.h:12:14 @[ crypto_pwhash/argon2/argon2-fill-block-ref.c:36:1177 @[ crypto_pwhash/argon2/argon2-fill-block-ref.c:230:13 ] ]
	leaq	(%r10,%rsi), %rax
	.loc	5 11 33                         # crypto_pwhash/argon2/blamka-round-ref.h:11:33 @[ crypto_pwhash/argon2/argon2-fill-block-ref.c:36:1177 @[ crypto_pwhash/argon2/argon2-fill-block-ref.c:230:13 ] ]
	addq	%rsi, %rsi
.Ltmp180:
	andq	%r9, %rsi
.Ltmp181:
	#DEBUG_VALUE: rotr64:x <- undef
	#DEBUG_VALUE: rotr64:b <- 63
	.loc	3 36 1374                       # crypto_pwhash/argon2/argon2-fill-block-ref.c:36:1374 @[ crypto_pwhash/argon2/argon2-fill-block-ref.c:230:13 ]
	movq	80(%rsp,%r8), %rbx
	.loc	3 36 1396 is_stmt 0             # crypto_pwhash/argon2/argon2-fill-block-ref.c:36:1396 @[ crypto_pwhash/argon2/argon2-fill-block-ref.c:230:13 ]
	movq	112(%rsp,%r8), %r12
.Ltmp182:
	#DEBUG_VALUE: fBlaMka:y <- $r12
	#DEBUG_VALUE: fBlaMka:x <- $rbx
	#DEBUG_VALUE: fBlaMka:m <- 4294967295
	.loc	5 11 38 is_stmt 1               # crypto_pwhash/argon2/blamka-round-ref.h:11:38 @[ crypto_pwhash/argon2/argon2-fill-block-ref.c:36:1366 @[ crypto_pwhash/argon2/argon2-fill-block-ref.c:230:13 ] ]
	movl	%r12d, %r11d
.Ltmp183:
	#DEBUG_VALUE: fBlaMka:xy <- undef
	.loc	5 12 14                         # crypto_pwhash/argon2/blamka-round-ref.h:12:14 @[ crypto_pwhash/argon2/argon2-fill-block-ref.c:36:1366 @[ crypto_pwhash/argon2/argon2-fill-block-ref.c:230:13 ] ]
	leaq	(%r12,%rbx), %r15
	.loc	5 11 33                         # crypto_pwhash/argon2/blamka-round-ref.h:11:33 @[ crypto_pwhash/argon2/argon2-fill-block-ref.c:36:1366 @[ crypto_pwhash/argon2/argon2-fill-block-ref.c:230:13 ] ]
	addq	%rbx, %rbx
.Ltmp184:
	andq	%r9, %rbx
	.loc	5 12 22                         # crypto_pwhash/argon2/blamka-round-ref.h:12:22 @[ crypto_pwhash/argon2/argon2-fill-block-ref.c:36:1366 @[ crypto_pwhash/argon2/argon2-fill-block-ref.c:230:13 ] ]
	imulq	%r11, %rbx
	.loc	5 12 18 is_stmt 0               # crypto_pwhash/argon2/blamka-round-ref.h:12:18 @[ crypto_pwhash/argon2/argon2-fill-block-ref.c:36:1366 @[ crypto_pwhash/argon2/argon2-fill-block-ref.c:230:13 ] ]
	addq	%r15, %rbx
	movq	176(%rsp,%r8), %r10
.Ltmp185:
	.loc	3 36 1473 is_stmt 1             # crypto_pwhash/argon2/argon2-fill-block-ref.c:36:1473 @[ crypto_pwhash/argon2/argon2-fill-block-ref.c:230:13 ]
	xorq	%rbx, %r10
.Ltmp186:
	#DEBUG_VALUE: rotr64:x <- undef
	#DEBUG_VALUE: rotr64:b <- 32
	.loc	6 58 21                         # ./include/sodium/private/common.h:58:21 @[ crypto_pwhash/argon2/argon2-fill-block-ref.c:36:1443 @[ crypto_pwhash/argon2/argon2-fill-block-ref.c:230:13 ] ]
	rolq	$32, %r10
.Ltmp187:
	.loc	5 12 22                         # crypto_pwhash/argon2/blamka-round-ref.h:12:22 @[ crypto_pwhash/argon2/argon2-fill-block-ref.c:36:1177 @[ crypto_pwhash/argon2/argon2-fill-block-ref.c:230:13 ] ]
	imulq	%rcx, %rsi
.Ltmp188:
	.loc	3 36 1537                       # crypto_pwhash/argon2/argon2-fill-block-ref.c:36:1537 @[ crypto_pwhash/argon2/argon2-fill-block-ref.c:230:13 ]
	movq	144(%rsp,%r8), %r13
.Ltmp189:
	#DEBUG_VALUE: fBlaMka:x <- $r13
	#DEBUG_VALUE: fBlaMka:y <- $r10
	#DEBUG_VALUE: fBlaMka:m <- 4294967295
	.loc	5 11 38                         # crypto_pwhash/argon2/blamka-round-ref.h:11:38 @[ crypto_pwhash/argon2/argon2-fill-block-ref.c:36:1529 @[ crypto_pwhash/argon2/argon2-fill-block-ref.c:230:13 ] ]
	movl	%r10d, %ecx
.Ltmp190:
	#DEBUG_VALUE: fBlaMka:xy <- undef
	.loc	5 12 14                         # crypto_pwhash/argon2/blamka-round-ref.h:12:14 @[ crypto_pwhash/argon2/argon2-fill-block-ref.c:36:1529 @[ crypto_pwhash/argon2/argon2-fill-block-ref.c:230:13 ] ]
	leaq	(%r10,%r13), %r11
	.loc	5 11 33                         # crypto_pwhash/argon2/blamka-round-ref.h:11:33 @[ crypto_pwhash/argon2/argon2-fill-block-ref.c:36:1529 @[ crypto_pwhash/argon2/argon2-fill-block-ref.c:230:13 ] ]
	addq	%r13, %r13
.Ltmp191:
	andq	%r9, %r13
	.loc	5 12 22                         # crypto_pwhash/argon2/blamka-round-ref.h:12:22 @[ crypto_pwhash/argon2/argon2-fill-block-ref.c:36:1529 @[ crypto_pwhash/argon2/argon2-fill-block-ref.c:230:13 ] ]
	imulq	%rcx, %r13
	.loc	5 12 18 is_stmt 0               # crypto_pwhash/argon2/blamka-round-ref.h:12:18 @[ crypto_pwhash/argon2/argon2-fill-block-ref.c:36:1529 @[ crypto_pwhash/argon2/argon2-fill-block-ref.c:230:13 ] ]
	addq	%r11, %r13
.Ltmp192:
	.loc	3 36 1636 is_stmt 1             # crypto_pwhash/argon2/argon2-fill-block-ref.c:36:1636 @[ crypto_pwhash/argon2/argon2-fill-block-ref.c:230:13 ]
	xorq	%r13, %r12
.Ltmp193:
	#DEBUG_VALUE: rotr64:x <- $r12
	#DEBUG_VALUE: rotr64:b <- 24
	.loc	6 58 21                         # ./include/sodium/private/common.h:58:21 @[ crypto_pwhash/argon2/argon2-fill-block-ref.c:36:1607 @[ crypto_pwhash/argon2/argon2-fill-block-ref.c:230:13 ] ]
	rolq	$40, %r12
.Ltmp194:
	#DEBUG_VALUE: fBlaMka:y <- $r12
	#DEBUG_VALUE: fBlaMka:x <- $rbx
	#DEBUG_VALUE: fBlaMka:m <- 4294967295
	.loc	5 11 38                         # crypto_pwhash/argon2/blamka-round-ref.h:11:38 @[ crypto_pwhash/argon2/argon2-fill-block-ref.c:36:1692 @[ crypto_pwhash/argon2/argon2-fill-block-ref.c:230:13 ] ]
	movl	%r12d, %ecx
.Ltmp195:
	#DEBUG_VALUE: fBlaMka:xy <- undef
	.loc	5 12 14                         # crypto_pwhash/argon2/blamka-round-ref.h:12:14 @[ crypto_pwhash/argon2/argon2-fill-block-ref.c:36:1692 @[ crypto_pwhash/argon2/argon2-fill-block-ref.c:230:13 ] ]
	leaq	(%r12,%rbx), %r11
	.loc	5 11 33                         # crypto_pwhash/argon2/blamka-round-ref.h:11:33 @[ crypto_pwhash/argon2/argon2-fill-block-ref.c:36:1692 @[ crypto_pwhash/argon2/argon2-fill-block-ref.c:230:13 ] ]
	addq	%rbx, %rbx
.Ltmp196:
	andq	%r9, %rbx
	.loc	5 12 22                         # crypto_pwhash/argon2/blamka-round-ref.h:12:22 @[ crypto_pwhash/argon2/argon2-fill-block-ref.c:36:1692 @[ crypto_pwhash/argon2/argon2-fill-block-ref.c:230:13 ] ]
	imulq	%rcx, %rbx
	.loc	5 12 18 is_stmt 0               # crypto_pwhash/argon2/blamka-round-ref.h:12:18 @[ crypto_pwhash/argon2/argon2-fill-block-ref.c:36:1692 @[ crypto_pwhash/argon2/argon2-fill-block-ref.c:230:13 ] ]
	addq	%r11, %rbx
.Ltmp197:
	.loc	3 36 1799 is_stmt 1             # crypto_pwhash/argon2/argon2-fill-block-ref.c:36:1799 @[ crypto_pwhash/argon2/argon2-fill-block-ref.c:230:13 ]
	xorq	%rbx, %r10
.Ltmp198:
	#DEBUG_VALUE: rotr64:x <- $r10
	#DEBUG_VALUE: rotr64:b <- 16
	.loc	6 58 21                         # ./include/sodium/private/common.h:58:21 @[ crypto_pwhash/argon2/argon2-fill-block-ref.c:36:1769 @[ crypto_pwhash/argon2/argon2-fill-block-ref.c:230:13 ] ]
	rolq	$48, %r10
.Ltmp199:
	#DEBUG_VALUE: fBlaMka:y <- $r10
	#DEBUG_VALUE: fBlaMka:x <- $r13
	#DEBUG_VALUE: fBlaMka:m <- 4294967295
	.loc	6 0 21 is_stmt 0                # ./include/sodium/private/common.h:0:21
	movq	%r10, 112(%rsp)                 # 8-byte Spill
.Ltmp200:
	#DEBUG_VALUE: fBlaMka:y <- [DW_OP_plus_uconst 112, DW_OP_deref] $rsp
	.loc	5 12 18 is_stmt 1               # crypto_pwhash/argon2/blamka-round-ref.h:12:18 @[ crypto_pwhash/argon2/argon2-fill-block-ref.c:36:1177 @[ crypto_pwhash/argon2/argon2-fill-block-ref.c:230:13 ] ]
	addq	%rax, %rsi
.Ltmp201:
	.loc	5 11 38                         # crypto_pwhash/argon2/blamka-round-ref.h:11:38 @[ crypto_pwhash/argon2/argon2-fill-block-ref.c:36:1855 @[ crypto_pwhash/argon2/argon2-fill-block-ref.c:230:13 ] ]
	movl	%r10d, %eax
.Ltmp202:
	#DEBUG_VALUE: fBlaMka:xy <- undef
	.loc	5 12 14                         # crypto_pwhash/argon2/blamka-round-ref.h:12:14 @[ crypto_pwhash/argon2/argon2-fill-block-ref.c:36:1855 @[ crypto_pwhash/argon2/argon2-fill-block-ref.c:230:13 ] ]
	leaq	(%r10,%r13), %rcx
	movq	%rcx, 88(%rsp)                  # 8-byte Spill
	.loc	5 11 33                         # crypto_pwhash/argon2/blamka-round-ref.h:11:33 @[ crypto_pwhash/argon2/argon2-fill-block-ref.c:36:1855 @[ crypto_pwhash/argon2/argon2-fill-block-ref.c:230:13 ] ]
	addq	%r13, %r13
.Ltmp203:
	movabsq	$8589934590, %rcx               # imm = 0x1FFFFFFFE
	andq	%rcx, %r13
	.loc	5 12 22                         # crypto_pwhash/argon2/blamka-round-ref.h:12:22 @[ crypto_pwhash/argon2/argon2-fill-block-ref.c:36:1855 @[ crypto_pwhash/argon2/argon2-fill-block-ref.c:230:13 ] ]
	imulq	%rax, %r13
.Ltmp204:
	#DEBUG_VALUE: rotr64:x <- undef
	#DEBUG_VALUE: rotr64:b <- 63
	.loc	3 36 2054                       # crypto_pwhash/argon2/argon2-fill-block-ref.c:36:2054 @[ crypto_pwhash/argon2/argon2-fill-block-ref.c:230:13 ]
	movq	88(%rsp,%r8), %r11
	.loc	3 36 2076 is_stmt 0             # crypto_pwhash/argon2/argon2-fill-block-ref.c:36:2076 @[ crypto_pwhash/argon2/argon2-fill-block-ref.c:230:13 ]
	movq	120(%rsp,%r8), %r15
.Ltmp205:
	#DEBUG_VALUE: fBlaMka:y <- $r15
	#DEBUG_VALUE: fBlaMka:x <- $r11
	#DEBUG_VALUE: fBlaMka:m <- 4294967295
	.loc	5 12 14 is_stmt 1               # crypto_pwhash/argon2/blamka-round-ref.h:12:14 @[ crypto_pwhash/argon2/argon2-fill-block-ref.c:36:2046 @[ crypto_pwhash/argon2/argon2-fill-block-ref.c:230:13 ] ]
	leaq	(%r15,%r11), %rax
	.loc	5 11 33                         # crypto_pwhash/argon2/blamka-round-ref.h:11:33 @[ crypto_pwhash/argon2/argon2-fill-block-ref.c:36:2046 @[ crypto_pwhash/argon2/argon2-fill-block-ref.c:230:13 ] ]
	addq	%r11, %r11
.Ltmp206:
	andq	%rcx, %r11
	.loc	5 11 38 is_stmt 0               # crypto_pwhash/argon2/blamka-round-ref.h:11:38 @[ crypto_pwhash/argon2/argon2-fill-block-ref.c:36:2046 @[ crypto_pwhash/argon2/argon2-fill-block-ref.c:230:13 ] ]
	movl	%r15d, %ecx
.Ltmp207:
	#DEBUG_VALUE: fBlaMka:xy <- undef
	.loc	5 12 22 is_stmt 1               # crypto_pwhash/argon2/blamka-round-ref.h:12:22 @[ crypto_pwhash/argon2/argon2-fill-block-ref.c:36:2046 @[ crypto_pwhash/argon2/argon2-fill-block-ref.c:230:13 ] ]
	imulq	%rcx, %r11
	.loc	5 12 18 is_stmt 0               # crypto_pwhash/argon2/blamka-round-ref.h:12:18 @[ crypto_pwhash/argon2/argon2-fill-block-ref.c:36:2046 @[ crypto_pwhash/argon2/argon2-fill-block-ref.c:230:13 ] ]
	addq	%rax, %r11
	movq	184(%rsp,%r8), %rcx
.Ltmp208:
	.loc	3 36 2153 is_stmt 1             # crypto_pwhash/argon2/argon2-fill-block-ref.c:36:2153 @[ crypto_pwhash/argon2/argon2-fill-block-ref.c:230:13 ]
	xorq	%r11, %rcx
.Ltmp209:
	#DEBUG_VALUE: rotr64:x <- undef
	#DEBUG_VALUE: rotr64:b <- 32
	.loc	6 58 21                         # ./include/sodium/private/common.h:58:21 @[ crypto_pwhash/argon2/argon2-fill-block-ref.c:36:2123 @[ crypto_pwhash/argon2/argon2-fill-block-ref.c:230:13 ] ]
	rolq	$32, %rcx
.Ltmp210:
	.loc	3 36 2217                       # crypto_pwhash/argon2/argon2-fill-block-ref.c:36:2217 @[ crypto_pwhash/argon2/argon2-fill-block-ref.c:230:13 ]
	movq	152(%rsp,%r8), %rax
.Ltmp211:
	#DEBUG_VALUE: fBlaMka:x <- $rax
	#DEBUG_VALUE: fBlaMka:y <- $rcx
	#DEBUG_VALUE: fBlaMka:m <- 4294967295
	.loc	5 12 14                         # crypto_pwhash/argon2/blamka-round-ref.h:12:14 @[ crypto_pwhash/argon2/argon2-fill-block-ref.c:36:2209 @[ crypto_pwhash/argon2/argon2-fill-block-ref.c:230:13 ] ]
	leaq	(%rcx,%rax), %r9
	.loc	5 11 33                         # crypto_pwhash/argon2/blamka-round-ref.h:11:33 @[ crypto_pwhash/argon2/argon2-fill-block-ref.c:36:2209 @[ crypto_pwhash/argon2/argon2-fill-block-ref.c:230:13 ] ]
	addq	%rax, %rax
.Ltmp212:
	movabsq	$8589934590, %r10               # imm = 0x1FFFFFFFE
	andq	%r10, %rax
	.loc	5 11 38 is_stmt 0               # crypto_pwhash/argon2/blamka-round-ref.h:11:38 @[ crypto_pwhash/argon2/argon2-fill-block-ref.c:36:2209 @[ crypto_pwhash/argon2/argon2-fill-block-ref.c:230:13 ] ]
	movl	%ecx, %r10d
.Ltmp213:
	#DEBUG_VALUE: fBlaMka:xy <- undef
	.loc	5 12 22 is_stmt 1               # crypto_pwhash/argon2/blamka-round-ref.h:12:22 @[ crypto_pwhash/argon2/argon2-fill-block-ref.c:36:2209 @[ crypto_pwhash/argon2/argon2-fill-block-ref.c:230:13 ] ]
	imulq	%r10, %rax
	.loc	5 12 18 is_stmt 0               # crypto_pwhash/argon2/blamka-round-ref.h:12:18 @[ crypto_pwhash/argon2/argon2-fill-block-ref.c:36:2209 @[ crypto_pwhash/argon2/argon2-fill-block-ref.c:230:13 ] ]
	addq	%r9, %rax
.Ltmp214:
	.loc	3 36 2316 is_stmt 1             # crypto_pwhash/argon2/argon2-fill-block-ref.c:36:2316 @[ crypto_pwhash/argon2/argon2-fill-block-ref.c:230:13 ]
	xorq	%rax, %r15
.Ltmp215:
	#DEBUG_VALUE: rotr64:x <- $r15
	#DEBUG_VALUE: rotr64:b <- 24
	.loc	6 58 21                         # ./include/sodium/private/common.h:58:21 @[ crypto_pwhash/argon2/argon2-fill-block-ref.c:36:2287 @[ crypto_pwhash/argon2/argon2-fill-block-ref.c:230:13 ] ]
	rolq	$40, %r15
.Ltmp216:
	#DEBUG_VALUE: fBlaMka:y <- $r15
	#DEBUG_VALUE: fBlaMka:x <- $r11
	#DEBUG_VALUE: fBlaMka:m <- 4294967295
	.loc	5 12 18                         # crypto_pwhash/argon2/blamka-round-ref.h:12:18 @[ crypto_pwhash/argon2/argon2-fill-block-ref.c:36:1855 @[ crypto_pwhash/argon2/argon2-fill-block-ref.c:230:13 ] ]
	addq	88(%rsp), %r13                  # 8-byte Folded Reload
.Ltmp217:
	.loc	5 12 14 is_stmt 0               # crypto_pwhash/argon2/blamka-round-ref.h:12:14 @[ crypto_pwhash/argon2/argon2-fill-block-ref.c:36:2372 @[ crypto_pwhash/argon2/argon2-fill-block-ref.c:230:13 ] ]
	leaq	(%r15,%r11), %r9
	.loc	5 11 33 is_stmt 1               # crypto_pwhash/argon2/blamka-round-ref.h:11:33 @[ crypto_pwhash/argon2/argon2-fill-block-ref.c:36:2372 @[ crypto_pwhash/argon2/argon2-fill-block-ref.c:230:13 ] ]
	addq	%r11, %r11
.Ltmp218:
	movabsq	$8589934590, %r10               # imm = 0x1FFFFFFFE
	andq	%r10, %r11
	.loc	5 11 38 is_stmt 0               # crypto_pwhash/argon2/blamka-round-ref.h:11:38 @[ crypto_pwhash/argon2/argon2-fill-block-ref.c:36:2372 @[ crypto_pwhash/argon2/argon2-fill-block-ref.c:230:13 ] ]
	movl	%r15d, %r10d
.Ltmp219:
	#DEBUG_VALUE: fBlaMka:xy <- undef
	.loc	5 12 22 is_stmt 1               # crypto_pwhash/argon2/blamka-round-ref.h:12:22 @[ crypto_pwhash/argon2/argon2-fill-block-ref.c:36:2372 @[ crypto_pwhash/argon2/argon2-fill-block-ref.c:230:13 ] ]
	imulq	%r10, %r11
	.loc	5 12 18 is_stmt 0               # crypto_pwhash/argon2/blamka-round-ref.h:12:18 @[ crypto_pwhash/argon2/argon2-fill-block-ref.c:36:2372 @[ crypto_pwhash/argon2/argon2-fill-block-ref.c:230:13 ] ]
	addq	%r9, %r11
.Ltmp220:
	.loc	3 36 2479 is_stmt 1             # crypto_pwhash/argon2/argon2-fill-block-ref.c:36:2479 @[ crypto_pwhash/argon2/argon2-fill-block-ref.c:230:13 ]
	xorq	%r11, %rcx
.Ltmp221:
	#DEBUG_VALUE: rotr64:x <- $rcx
	#DEBUG_VALUE: rotr64:b <- 16
	.loc	6 58 21                         # ./include/sodium/private/common.h:58:21 @[ crypto_pwhash/argon2/argon2-fill-block-ref.c:36:2449 @[ crypto_pwhash/argon2/argon2-fill-block-ref.c:230:13 ] ]
	rolq	$48, %rcx
.Ltmp222:
	#DEBUG_VALUE: fBlaMka:y <- $rcx
	#DEBUG_VALUE: fBlaMka:x <- $rax
	#DEBUG_VALUE: fBlaMka:m <- 4294967295
	.loc	5 12 14                         # crypto_pwhash/argon2/blamka-round-ref.h:12:14 @[ crypto_pwhash/argon2/argon2-fill-block-ref.c:36:2535 @[ crypto_pwhash/argon2/argon2-fill-block-ref.c:230:13 ] ]
	leaq	(%rcx,%rax), %r9
	.loc	5 11 33                         # crypto_pwhash/argon2/blamka-round-ref.h:11:33 @[ crypto_pwhash/argon2/argon2-fill-block-ref.c:36:2535 @[ crypto_pwhash/argon2/argon2-fill-block-ref.c:230:13 ] ]
	addq	%rax, %rax
.Ltmp223:
	movabsq	$8589934590, %r10               # imm = 0x1FFFFFFFE
	andq	%r10, %rax
	.loc	5 11 38 is_stmt 0               # crypto_pwhash/argon2/blamka-round-ref.h:11:38 @[ crypto_pwhash/argon2/argon2-fill-block-ref.c:36:2535 @[ crypto_pwhash/argon2/argon2-fill-block-ref.c:230:13 ] ]
	movl	%ecx, %r10d
.Ltmp224:
	#DEBUG_VALUE: fBlaMka:xy <- undef
	.loc	5 12 22 is_stmt 1               # crypto_pwhash/argon2/blamka-round-ref.h:12:22 @[ crypto_pwhash/argon2/argon2-fill-block-ref.c:36:2535 @[ crypto_pwhash/argon2/argon2-fill-block-ref.c:230:13 ] ]
	imulq	%r10, %rax
	.loc	5 12 18 is_stmt 0               # crypto_pwhash/argon2/blamka-round-ref.h:12:18 @[ crypto_pwhash/argon2/argon2-fill-block-ref.c:36:2535 @[ crypto_pwhash/argon2/argon2-fill-block-ref.c:230:13 ] ]
	addq	%r9, %rax
.Ltmp225:
	#DEBUG_VALUE: rotr64:x <- undef
	#DEBUG_VALUE: rotr64:b <- 63
	#DEBUG_VALUE: fBlaMka:x <- $r14
	#DEBUG_VALUE: fBlaMka:y <- undef
	#DEBUG_VALUE: fBlaMka:m <- 4294967295
	.loc	3 36 1283 is_stmt 1             # crypto_pwhash/argon2/argon2-fill-block-ref.c:36:1283 @[ crypto_pwhash/argon2/argon2-fill-block-ref.c:230:13 ]
	xorq	%rsi, %rbp
.Ltmp226:
	#DEBUG_VALUE: rotr64:x <- $rbp
	.loc	6 58 21                         # ./include/sodium/private/common.h:58:21 @[ crypto_pwhash/argon2/argon2-fill-block-ref.c:36:1254 @[ crypto_pwhash/argon2/argon2-fill-block-ref.c:230:13 ] ]
	rolq	%rbp
.Ltmp227:
	#DEBUG_VALUE: fBlaMka:y <- $rbp
	.loc	5 12 14                         # crypto_pwhash/argon2/blamka-round-ref.h:12:14 @[ crypto_pwhash/argon2/argon2-fill-block-ref.c:36:2722 @[ crypto_pwhash/argon2/argon2-fill-block-ref.c:230:13 ] ]
	leaq	(%r14,%rbp), %r9
	.loc	5 11 33                         # crypto_pwhash/argon2/blamka-round-ref.h:11:33 @[ crypto_pwhash/argon2/argon2-fill-block-ref.c:36:2722 @[ crypto_pwhash/argon2/argon2-fill-block-ref.c:230:13 ] ]
	addq	%r14, %r14
.Ltmp228:
	movabsq	$8589934590, %r10               # imm = 0x1FFFFFFFE
	andq	%r10, %r14
	.loc	5 11 38 is_stmt 0               # crypto_pwhash/argon2/blamka-round-ref.h:11:38 @[ crypto_pwhash/argon2/argon2-fill-block-ref.c:36:2722 @[ crypto_pwhash/argon2/argon2-fill-block-ref.c:230:13 ] ]
	movl	%ebp, %r10d
.Ltmp229:
	#DEBUG_VALUE: fBlaMka:xy <- undef
	.loc	5 12 22 is_stmt 1               # crypto_pwhash/argon2/blamka-round-ref.h:12:22 @[ crypto_pwhash/argon2/argon2-fill-block-ref.c:36:2722 @[ crypto_pwhash/argon2/argon2-fill-block-ref.c:230:13 ] ]
	imulq	%r10, %r14
	.loc	5 12 18 is_stmt 0               # crypto_pwhash/argon2/blamka-round-ref.h:12:18 @[ crypto_pwhash/argon2/argon2-fill-block-ref.c:36:2722 @[ crypto_pwhash/argon2/argon2-fill-block-ref.c:230:13 ] ]
	addq	%r9, %r14
.Ltmp230:
	.loc	3 36 2825 is_stmt 1             # crypto_pwhash/argon2/argon2-fill-block-ref.c:36:2825 @[ crypto_pwhash/argon2/argon2-fill-block-ref.c:230:13 ]
	xorq	%r14, %rcx
.Ltmp231:
	#DEBUG_VALUE: rotr64:x <- $rcx
	#DEBUG_VALUE: rotr64:b <- 32
	.loc	6 58 21                         # ./include/sodium/private/common.h:58:21 @[ crypto_pwhash/argon2/argon2-fill-block-ref.c:36:2795 @[ crypto_pwhash/argon2/argon2-fill-block-ref.c:230:13 ] ]
	rolq	$32, %rcx
.Ltmp232:
	#DEBUG_VALUE: fBlaMka:y <- $rcx
	#DEBUG_VALUE: fBlaMka:x <- $r13
	#DEBUG_VALUE: fBlaMka:m <- 4294967295
	.loc	3 36 1962                       # crypto_pwhash/argon2/argon2-fill-block-ref.c:36:1962 @[ crypto_pwhash/argon2/argon2-fill-block-ref.c:230:13 ]
	xorq	%r13, %r12
.Ltmp233:
	#DEBUG_VALUE: rotr64:x <- $r12
	.loc	5 12 14                         # crypto_pwhash/argon2/blamka-round-ref.h:12:14 @[ crypto_pwhash/argon2/argon2-fill-block-ref.c:36:2877 @[ crypto_pwhash/argon2/argon2-fill-block-ref.c:230:13 ] ]
	leaq	(%rcx,%r13), %r9
	.loc	5 11 33                         # crypto_pwhash/argon2/blamka-round-ref.h:11:33 @[ crypto_pwhash/argon2/argon2-fill-block-ref.c:36:2877 @[ crypto_pwhash/argon2/argon2-fill-block-ref.c:230:13 ] ]
	addq	%r13, %r13
.Ltmp234:
	movabsq	$8589934590, %r10               # imm = 0x1FFFFFFFE
	andq	%r10, %r13
	.loc	5 11 38 is_stmt 0               # crypto_pwhash/argon2/blamka-round-ref.h:11:38 @[ crypto_pwhash/argon2/argon2-fill-block-ref.c:36:2877 @[ crypto_pwhash/argon2/argon2-fill-block-ref.c:230:13 ] ]
	movl	%ecx, %r10d
.Ltmp235:
	#DEBUG_VALUE: fBlaMka:xy <- undef
	.loc	5 12 22 is_stmt 1               # crypto_pwhash/argon2/blamka-round-ref.h:12:22 @[ crypto_pwhash/argon2/argon2-fill-block-ref.c:36:2877 @[ crypto_pwhash/argon2/argon2-fill-block-ref.c:230:13 ] ]
	imulq	%r10, %r13
	.loc	5 12 18 is_stmt 0               # crypto_pwhash/argon2/blamka-round-ref.h:12:18 @[ crypto_pwhash/argon2/argon2-fill-block-ref.c:36:2877 @[ crypto_pwhash/argon2/argon2-fill-block-ref.c:230:13 ] ]
	addq	%r9, %r13
.Ltmp236:
	.loc	3 36 2984 is_stmt 1             # crypto_pwhash/argon2/argon2-fill-block-ref.c:36:2984 @[ crypto_pwhash/argon2/argon2-fill-block-ref.c:230:13 ]
	xorq	%r13, %rbp
.Ltmp237:
	#DEBUG_VALUE: rotr64:x <- $rbp
	#DEBUG_VALUE: rotr64:b <- 24
	.loc	6 58 21                         # ./include/sodium/private/common.h:58:21 @[ crypto_pwhash/argon2/argon2-fill-block-ref.c:36:2955 @[ crypto_pwhash/argon2/argon2-fill-block-ref.c:230:13 ] ]
	rolq	$40, %rbp
.Ltmp238:
	#DEBUG_VALUE: fBlaMka:y <- $rbp
	#DEBUG_VALUE: fBlaMka:x <- $r14
	#DEBUG_VALUE: fBlaMka:m <- 4294967295
	.loc	5 12 14                         # crypto_pwhash/argon2/blamka-round-ref.h:12:14 @[ crypto_pwhash/argon2/argon2-fill-block-ref.c:36:3036 @[ crypto_pwhash/argon2/argon2-fill-block-ref.c:230:13 ] ]
	leaq	(%r14,%rbp), %r9
	.loc	5 11 33                         # crypto_pwhash/argon2/blamka-round-ref.h:11:33 @[ crypto_pwhash/argon2/argon2-fill-block-ref.c:36:3036 @[ crypto_pwhash/argon2/argon2-fill-block-ref.c:230:13 ] ]
	addq	%r14, %r14
.Ltmp239:
	movabsq	$8589934590, %r10               # imm = 0x1FFFFFFFE
	andq	%r10, %r14
	.loc	5 11 38 is_stmt 0               # crypto_pwhash/argon2/blamka-round-ref.h:11:38 @[ crypto_pwhash/argon2/argon2-fill-block-ref.c:36:3036 @[ crypto_pwhash/argon2/argon2-fill-block-ref.c:230:13 ] ]
	movl	%ebp, %r10d
.Ltmp240:
	#DEBUG_VALUE: fBlaMka:xy <- undef
	.loc	5 12 22 is_stmt 1               # crypto_pwhash/argon2/blamka-round-ref.h:12:22 @[ crypto_pwhash/argon2/argon2-fill-block-ref.c:36:3036 @[ crypto_pwhash/argon2/argon2-fill-block-ref.c:230:13 ] ]
	imulq	%r10, %r14
	.loc	5 12 18 is_stmt 0               # crypto_pwhash/argon2/blamka-round-ref.h:12:18 @[ crypto_pwhash/argon2/argon2-fill-block-ref.c:36:3036 @[ crypto_pwhash/argon2/argon2-fill-block-ref.c:230:13 ] ]
	addq	%r9, %r14
.Ltmp241:
	.loc	3 36 3034 is_stmt 1             # crypto_pwhash/argon2/argon2-fill-block-ref.c:36:3034 @[ crypto_pwhash/argon2/argon2-fill-block-ref.c:230:13 ]
	movq	%r14, 64(%rsp,%r8)
	.loc	3 36 3139 is_stmt 0             # crypto_pwhash/argon2/argon2-fill-block-ref.c:36:3139 @[ crypto_pwhash/argon2/argon2-fill-block-ref.c:230:13 ]
	xorq	%rcx, %r14
.Ltmp242:
	#DEBUG_VALUE: rotr64:x <- $r14
	#DEBUG_VALUE: rotr64:b <- 16
	.loc	6 58 21 is_stmt 1               # ./include/sodium/private/common.h:58:21 @[ crypto_pwhash/argon2/argon2-fill-block-ref.c:36:3109 @[ crypto_pwhash/argon2/argon2-fill-block-ref.c:230:13 ] ]
	rolq	$48, %r14
.Ltmp243:
	.loc	3 36 3107                       # crypto_pwhash/argon2/argon2-fill-block-ref.c:36:3107 @[ crypto_pwhash/argon2/argon2-fill-block-ref.c:230:13 ]
	movq	%r14, 184(%rsp,%r8)
.Ltmp244:
	#DEBUG_VALUE: fBlaMka:x <- $r13
	#DEBUG_VALUE: fBlaMka:y <- $r14
	#DEBUG_VALUE: fBlaMka:m <- 4294967295
	.loc	5 11 38                         # crypto_pwhash/argon2/blamka-round-ref.h:11:38 @[ crypto_pwhash/argon2/argon2-fill-block-ref.c:36:3191 @[ crypto_pwhash/argon2/argon2-fill-block-ref.c:230:13 ] ]
	movl	%r14d, %ecx
.Ltmp245:
	#DEBUG_VALUE: fBlaMka:xy <- undef
	.loc	5 12 14                         # crypto_pwhash/argon2/blamka-round-ref.h:12:14 @[ crypto_pwhash/argon2/argon2-fill-block-ref.c:36:3191 @[ crypto_pwhash/argon2/argon2-fill-block-ref.c:230:13 ] ]
	addq	%r13, %r14
.Ltmp246:
	.loc	5 11 33                         # crypto_pwhash/argon2/blamka-round-ref.h:11:33 @[ crypto_pwhash/argon2/argon2-fill-block-ref.c:36:3191 @[ crypto_pwhash/argon2/argon2-fill-block-ref.c:230:13 ] ]
	addq	%r13, %r13
.Ltmp247:
	movabsq	$8589934590, %r9                # imm = 0x1FFFFFFFE
	andq	%r9, %r13
	.loc	5 12 22                         # crypto_pwhash/argon2/blamka-round-ref.h:12:22 @[ crypto_pwhash/argon2/argon2-fill-block-ref.c:36:3191 @[ crypto_pwhash/argon2/argon2-fill-block-ref.c:230:13 ] ]
	imulq	%rcx, %r13
.Ltmp248:
	.loc	6 58 21                         # ./include/sodium/private/common.h:58:21 @[ crypto_pwhash/argon2/argon2-fill-block-ref.c:36:1933 @[ crypto_pwhash/argon2/argon2-fill-block-ref.c:230:13 ] ]
	rolq	%r12
.Ltmp249:
	.loc	5 12 18                         # crypto_pwhash/argon2/blamka-round-ref.h:12:18 @[ crypto_pwhash/argon2/argon2-fill-block-ref.c:36:3191 @[ crypto_pwhash/argon2/argon2-fill-block-ref.c:230:13 ] ]
	addq	%r14, %r13
.Ltmp250:
	#DEBUG_VALUE: rotr64:x <- undef
	#DEBUG_VALUE: rotr64:b <- 63
	#DEBUG_VALUE: fBlaMka:x <- $rdi
	#DEBUG_VALUE: fBlaMka:y <- $r12
	#DEBUG_VALUE: fBlaMka:m <- 4294967295
	.loc	5 12 14 is_stmt 0               # crypto_pwhash/argon2/blamka-round-ref.h:12:14 @[ crypto_pwhash/argon2/argon2-fill-block-ref.c:36:3382 @[ crypto_pwhash/argon2/argon2-fill-block-ref.c:230:13 ] ]
	leaq	(%r12,%rdi), %rcx
	.loc	5 11 33 is_stmt 1               # crypto_pwhash/argon2/blamka-round-ref.h:11:33 @[ crypto_pwhash/argon2/argon2-fill-block-ref.c:36:3382 @[ crypto_pwhash/argon2/argon2-fill-block-ref.c:230:13 ] ]
	addq	%rdi, %rdi
.Ltmp251:
	andq	%r9, %rdi
	.loc	5 11 38 is_stmt 0               # crypto_pwhash/argon2/blamka-round-ref.h:11:38 @[ crypto_pwhash/argon2/argon2-fill-block-ref.c:36:3382 @[ crypto_pwhash/argon2/argon2-fill-block-ref.c:230:13 ] ]
	movl	%r12d, %r9d
.Ltmp252:
	#DEBUG_VALUE: fBlaMka:xy <- undef
	.loc	5 12 22 is_stmt 1               # crypto_pwhash/argon2/blamka-round-ref.h:12:22 @[ crypto_pwhash/argon2/argon2-fill-block-ref.c:36:3382 @[ crypto_pwhash/argon2/argon2-fill-block-ref.c:230:13 ] ]
	imulq	%r9, %rdi
.Ltmp253:
	.loc	3 36 2642                       # crypto_pwhash/argon2/argon2-fill-block-ref.c:36:2642 @[ crypto_pwhash/argon2/argon2-fill-block-ref.c:230:13 ]
	xorq	%rax, %r15
.Ltmp254:
	#DEBUG_VALUE: rotr64:x <- $r15
	.loc	3 36 3189 is_stmt 0             # crypto_pwhash/argon2/argon2-fill-block-ref.c:36:3189 @[ crypto_pwhash/argon2/argon2-fill-block-ref.c:230:13 ]
	movq	%r13, 144(%rsp,%r8)
.Ltmp255:
	.loc	5 12 18 is_stmt 1               # crypto_pwhash/argon2/blamka-round-ref.h:12:18 @[ crypto_pwhash/argon2/argon2-fill-block-ref.c:36:3382 @[ crypto_pwhash/argon2/argon2-fill-block-ref.c:230:13 ] ]
	addq	%rcx, %rdi
	movq	96(%rsp), %r10                  # 8-byte Reload
.Ltmp256:
	.loc	3 36 3489                       # crypto_pwhash/argon2/argon2-fill-block-ref.c:36:3489 @[ crypto_pwhash/argon2/argon2-fill-block-ref.c:230:13 ]
	xorq	%rdi, %r10
.Ltmp257:
	#DEBUG_VALUE: rotr64:x <- $r10
	#DEBUG_VALUE: rotr64:b <- 32
	.loc	6 58 21                         # ./include/sodium/private/common.h:58:21 @[ crypto_pwhash/argon2/argon2-fill-block-ref.c:36:3459 @[ crypto_pwhash/argon2/argon2-fill-block-ref.c:230:13 ] ]
	rolq	$32, %r10
.Ltmp258:
	#DEBUG_VALUE: fBlaMka:y <- $r10
	#DEBUG_VALUE: fBlaMka:x <- $rax
	#DEBUG_VALUE: fBlaMka:m <- 4294967295
	.loc	3 36 3298                       # crypto_pwhash/argon2/argon2-fill-block-ref.c:36:3298 @[ crypto_pwhash/argon2/argon2-fill-block-ref.c:230:13 ]
	xorq	%rbp, %r13
.Ltmp259:
	#DEBUG_VALUE: rotr64:x <- $r13
	.loc	5 11 38                         # crypto_pwhash/argon2/blamka-round-ref.h:11:38 @[ crypto_pwhash/argon2/argon2-fill-block-ref.c:36:3545 @[ crypto_pwhash/argon2/argon2-fill-block-ref.c:230:13 ] ]
	movl	%r10d, %ecx
.Ltmp260:
	#DEBUG_VALUE: fBlaMka:xy <- undef
	.loc	5 12 14                         # crypto_pwhash/argon2/blamka-round-ref.h:12:14 @[ crypto_pwhash/argon2/argon2-fill-block-ref.c:36:3545 @[ crypto_pwhash/argon2/argon2-fill-block-ref.c:230:13 ] ]
	leaq	(%r10,%rax), %r9
	movq	%r10, %r14
.Ltmp261:
	#DEBUG_VALUE: fBlaMka:y <- $r14
	.loc	5 11 33                         # crypto_pwhash/argon2/blamka-round-ref.h:11:33 @[ crypto_pwhash/argon2/argon2-fill-block-ref.c:36:3545 @[ crypto_pwhash/argon2/argon2-fill-block-ref.c:230:13 ] ]
	addq	%rax, %rax
.Ltmp262:
	movabsq	$8589934590, %r10               # imm = 0x1FFFFFFFE
	andq	%r10, %rax
	.loc	5 12 22                         # crypto_pwhash/argon2/blamka-round-ref.h:12:22 @[ crypto_pwhash/argon2/argon2-fill-block-ref.c:36:3545 @[ crypto_pwhash/argon2/argon2-fill-block-ref.c:230:13 ] ]
	imulq	%rcx, %rax
.Ltmp263:
	.loc	6 58 21                         # ./include/sodium/private/common.h:58:21 @[ crypto_pwhash/argon2/argon2-fill-block-ref.c:36:3269 @[ crypto_pwhash/argon2/argon2-fill-block-ref.c:230:13 ] ]
	rolq	%r13
.Ltmp264:
	.loc	5 12 18                         # crypto_pwhash/argon2/blamka-round-ref.h:12:18 @[ crypto_pwhash/argon2/argon2-fill-block-ref.c:36:3545 @[ crypto_pwhash/argon2/argon2-fill-block-ref.c:230:13 ] ]
	addq	%r9, %rax
.Ltmp265:
	.loc	3 36 3652                       # crypto_pwhash/argon2/argon2-fill-block-ref.c:36:3652 @[ crypto_pwhash/argon2/argon2-fill-block-ref.c:230:13 ]
	xorq	%rax, %r12
.Ltmp266:
	#DEBUG_VALUE: rotr64:x <- $r12
	#DEBUG_VALUE: rotr64:b <- 24
	.loc	6 58 21                         # ./include/sodium/private/common.h:58:21 @[ crypto_pwhash/argon2/argon2-fill-block-ref.c:36:3623 @[ crypto_pwhash/argon2/argon2-fill-block-ref.c:230:13 ] ]
	rolq	$40, %r12
.Ltmp267:
	#DEBUG_VALUE: fBlaMka:y <- $r12
	#DEBUG_VALUE: fBlaMka:x <- $rdi
	#DEBUG_VALUE: fBlaMka:m <- 4294967295
	.loc	3 36 3267                       # crypto_pwhash/argon2/argon2-fill-block-ref.c:36:3267 @[ crypto_pwhash/argon2/argon2-fill-block-ref.c:230:13 ]
	movq	%r13, 104(%rsp,%r8)
.Ltmp268:
	.loc	5 11 38                         # crypto_pwhash/argon2/blamka-round-ref.h:11:38 @[ crypto_pwhash/argon2/argon2-fill-block-ref.c:36:3708 @[ crypto_pwhash/argon2/argon2-fill-block-ref.c:230:13 ] ]
	movl	%r12d, %ecx
.Ltmp269:
	#DEBUG_VALUE: fBlaMka:xy <- undef
	.loc	5 12 14                         # crypto_pwhash/argon2/blamka-round-ref.h:12:14 @[ crypto_pwhash/argon2/argon2-fill-block-ref.c:36:3708 @[ crypto_pwhash/argon2/argon2-fill-block-ref.c:230:13 ] ]
	leaq	(%r12,%rdi), %r9
	.loc	5 11 33                         # crypto_pwhash/argon2/blamka-round-ref.h:11:33 @[ crypto_pwhash/argon2/argon2-fill-block-ref.c:36:3708 @[ crypto_pwhash/argon2/argon2-fill-block-ref.c:230:13 ] ]
	addq	%rdi, %rdi
.Ltmp270:
	andq	%r10, %rdi
	.loc	5 12 22                         # crypto_pwhash/argon2/blamka-round-ref.h:12:22 @[ crypto_pwhash/argon2/argon2-fill-block-ref.c:36:3708 @[ crypto_pwhash/argon2/argon2-fill-block-ref.c:230:13 ] ]
	imulq	%rcx, %rdi
	.loc	5 12 18 is_stmt 0               # crypto_pwhash/argon2/blamka-round-ref.h:12:18 @[ crypto_pwhash/argon2/argon2-fill-block-ref.c:36:3708 @[ crypto_pwhash/argon2/argon2-fill-block-ref.c:230:13 ] ]
	addq	%r9, %rdi
.Ltmp271:
	.loc	3 36 3706 is_stmt 1             # crypto_pwhash/argon2/argon2-fill-block-ref.c:36:3706 @[ crypto_pwhash/argon2/argon2-fill-block-ref.c:230:13 ]
	movq	%rdi, 72(%rsp,%r8)
	.loc	3 36 3815 is_stmt 0             # crypto_pwhash/argon2/argon2-fill-block-ref.c:36:3815 @[ crypto_pwhash/argon2/argon2-fill-block-ref.c:230:13 ]
	xorq	%r14, %rdi
.Ltmp272:
	#DEBUG_VALUE: rotr64:x <- $rdi
	#DEBUG_VALUE: rotr64:b <- 16
	.loc	6 58 21 is_stmt 1               # ./include/sodium/private/common.h:58:21 @[ crypto_pwhash/argon2/argon2-fill-block-ref.c:36:3785 @[ crypto_pwhash/argon2/argon2-fill-block-ref.c:230:13 ] ]
	rolq	$48, %rdi
.Ltmp273:
	.loc	3 36 3783                       # crypto_pwhash/argon2/argon2-fill-block-ref.c:36:3783 @[ crypto_pwhash/argon2/argon2-fill-block-ref.c:230:13 ]
	movq	%rdi, 160(%rsp,%r8)
.Ltmp274:
	#DEBUG_VALUE: fBlaMka:x <- $rax
	#DEBUG_VALUE: fBlaMka:y <- $rdi
	#DEBUG_VALUE: fBlaMka:m <- 4294967295
	.loc	5 11 38                         # crypto_pwhash/argon2/blamka-round-ref.h:11:38 @[ crypto_pwhash/argon2/argon2-fill-block-ref.c:36:3871 @[ crypto_pwhash/argon2/argon2-fill-block-ref.c:230:13 ] ]
	movl	%edi, %ecx
.Ltmp275:
	#DEBUG_VALUE: fBlaMka:xy <- undef
	.loc	5 12 14                         # crypto_pwhash/argon2/blamka-round-ref.h:12:14 @[ crypto_pwhash/argon2/argon2-fill-block-ref.c:36:3871 @[ crypto_pwhash/argon2/argon2-fill-block-ref.c:230:13 ] ]
	addq	%rax, %rdi
.Ltmp276:
	.loc	5 11 33                         # crypto_pwhash/argon2/blamka-round-ref.h:11:33 @[ crypto_pwhash/argon2/argon2-fill-block-ref.c:36:3871 @[ crypto_pwhash/argon2/argon2-fill-block-ref.c:230:13 ] ]
	addq	%rax, %rax
.Ltmp277:
	movabsq	$8589934590, %r9                # imm = 0x1FFFFFFFE
	andq	%r9, %rax
	.loc	5 12 22                         # crypto_pwhash/argon2/blamka-round-ref.h:12:22 @[ crypto_pwhash/argon2/argon2-fill-block-ref.c:36:3871 @[ crypto_pwhash/argon2/argon2-fill-block-ref.c:230:13 ] ]
	imulq	%rcx, %rax
	.loc	5 12 18 is_stmt 0               # crypto_pwhash/argon2/blamka-round-ref.h:12:18 @[ crypto_pwhash/argon2/argon2-fill-block-ref.c:36:3871 @[ crypto_pwhash/argon2/argon2-fill-block-ref.c:230:13 ] ]
	addq	%rdi, %rax
.Ltmp278:
	.loc	6 58 21 is_stmt 1               # ./include/sodium/private/common.h:58:21 @[ crypto_pwhash/argon2/argon2-fill-block-ref.c:36:2613 @[ crypto_pwhash/argon2/argon2-fill-block-ref.c:230:13 ] ]
	rolq	%r15
.Ltmp279:
	.loc	3 36 3869                       # crypto_pwhash/argon2/argon2-fill-block-ref.c:36:3869 @[ crypto_pwhash/argon2/argon2-fill-block-ref.c:230:13 ]
	movq	%rax, 152(%rsp,%r8)
	.loc	3 36 3978 is_stmt 0             # crypto_pwhash/argon2/argon2-fill-block-ref.c:36:3978 @[ crypto_pwhash/argon2/argon2-fill-block-ref.c:230:13 ]
	xorq	%r12, %rax
.Ltmp280:
	#DEBUG_VALUE: rotr64:x <- $rax
	#DEBUG_VALUE: rotr64:b <- 63
	.loc	6 58 21 is_stmt 1               # ./include/sodium/private/common.h:58:21 @[ crypto_pwhash/argon2/argon2-fill-block-ref.c:36:3949 @[ crypto_pwhash/argon2/argon2-fill-block-ref.c:230:13 ] ]
	rolq	%rax
.Ltmp281:
	.loc	6 0 21 is_stmt 0                # ./include/sodium/private/common.h:0:21
	movq	120(%rsp), %r9                  # 8-byte Reload
.Ltmp282:
	.loc	3 36 609 is_stmt 1              # crypto_pwhash/argon2/argon2-fill-block-ref.c:36:609 @[ crypto_pwhash/argon2/argon2-fill-block-ref.c:230:13 ]
	xorq	%rdx, %r9
.Ltmp283:
	#DEBUG_VALUE: rotr64:x <- $r9
	.loc	3 36 3947 is_stmt 0             # crypto_pwhash/argon2/argon2-fill-block-ref.c:36:3947 @[ crypto_pwhash/argon2/argon2-fill-block-ref.c:230:13 ]
	movq	%rax, 112(%rsp,%r8)
.Ltmp284:
	#DEBUG_VALUE: fBlaMka:x <- $rbx
	#DEBUG_VALUE: fBlaMka:y <- $r15
	#DEBUG_VALUE: fBlaMka:m <- 4294967295
	.loc	5 11 38 is_stmt 1               # crypto_pwhash/argon2/blamka-round-ref.h:11:38 @[ crypto_pwhash/argon2/argon2-fill-block-ref.c:36:4062 @[ crypto_pwhash/argon2/argon2-fill-block-ref.c:230:13 ] ]
	movl	%r15d, %eax
.Ltmp285:
	#DEBUG_VALUE: fBlaMka:xy <- undef
	.loc	5 12 14                         # crypto_pwhash/argon2/blamka-round-ref.h:12:14 @[ crypto_pwhash/argon2/argon2-fill-block-ref.c:36:4062 @[ crypto_pwhash/argon2/argon2-fill-block-ref.c:230:13 ] ]
	leaq	(%r15,%rbx), %rcx
	.loc	5 11 33                         # crypto_pwhash/argon2/blamka-round-ref.h:11:33 @[ crypto_pwhash/argon2/argon2-fill-block-ref.c:36:4062 @[ crypto_pwhash/argon2/argon2-fill-block-ref.c:230:13 ] ]
	addq	%rbx, %rbx
.Ltmp286:
	movabsq	$8589934590, %rdi               # imm = 0x1FFFFFFFE
	andq	%rdi, %rbx
	.loc	5 12 22                         # crypto_pwhash/argon2/blamka-round-ref.h:12:22 @[ crypto_pwhash/argon2/argon2-fill-block-ref.c:36:4062 @[ crypto_pwhash/argon2/argon2-fill-block-ref.c:230:13 ] ]
	imulq	%rax, %rbx
	.loc	5 12 18 is_stmt 0               # crypto_pwhash/argon2/blamka-round-ref.h:12:18 @[ crypto_pwhash/argon2/argon2-fill-block-ref.c:36:4062 @[ crypto_pwhash/argon2/argon2-fill-block-ref.c:230:13 ] ]
	addq	%rcx, %rbx
	movq	104(%rsp), %rdi                 # 8-byte Reload
.Ltmp287:
	.loc	3 36 4169 is_stmt 1             # crypto_pwhash/argon2/argon2-fill-block-ref.c:36:4169 @[ crypto_pwhash/argon2/argon2-fill-block-ref.c:230:13 ]
	xorq	%rbx, %rdi
.Ltmp288:
	#DEBUG_VALUE: rotr64:x <- $rdi
	#DEBUG_VALUE: rotr64:b <- 32
	.loc	6 58 21                         # ./include/sodium/private/common.h:58:21 @[ crypto_pwhash/argon2/argon2-fill-block-ref.c:36:4139 @[ crypto_pwhash/argon2/argon2-fill-block-ref.c:230:13 ] ]
	rolq	$32, %rdi
.Ltmp289:
	#DEBUG_VALUE: fBlaMka:y <- $rdi
	#DEBUG_VALUE: fBlaMka:x <- $rdx
	#DEBUG_VALUE: fBlaMka:m <- 4294967295
	.loc	5 11 38                         # crypto_pwhash/argon2/blamka-round-ref.h:11:38 @[ crypto_pwhash/argon2/argon2-fill-block-ref.c:36:4224 @[ crypto_pwhash/argon2/argon2-fill-block-ref.c:230:13 ] ]
	movl	%edi, %eax
.Ltmp290:
	#DEBUG_VALUE: fBlaMka:xy <- undef
	.loc	5 12 14                         # crypto_pwhash/argon2/blamka-round-ref.h:12:14 @[ crypto_pwhash/argon2/argon2-fill-block-ref.c:36:4224 @[ crypto_pwhash/argon2/argon2-fill-block-ref.c:230:13 ] ]
	leaq	(%rdi,%rdx), %rcx
	movq	%rdi, %r10
	.loc	5 11 33                         # crypto_pwhash/argon2/blamka-round-ref.h:11:33 @[ crypto_pwhash/argon2/argon2-fill-block-ref.c:36:4224 @[ crypto_pwhash/argon2/argon2-fill-block-ref.c:230:13 ] ]
	addq	%rdx, %rdx
.Ltmp291:
	movabsq	$8589934590, %rdi               # imm = 0x1FFFFFFFE
.Ltmp292:
	#DEBUG_VALUE: fBlaMka:y <- $r10
	andq	%rdi, %rdx
	.loc	5 12 22                         # crypto_pwhash/argon2/blamka-round-ref.h:12:22 @[ crypto_pwhash/argon2/argon2-fill-block-ref.c:36:4224 @[ crypto_pwhash/argon2/argon2-fill-block-ref.c:230:13 ] ]
	imulq	%rax, %rdx
	.loc	5 12 18 is_stmt 0               # crypto_pwhash/argon2/blamka-round-ref.h:12:18 @[ crypto_pwhash/argon2/argon2-fill-block-ref.c:36:4224 @[ crypto_pwhash/argon2/argon2-fill-block-ref.c:230:13 ] ]
	addq	%rcx, %rdx
.Ltmp293:
	.loc	3 36 4330 is_stmt 1             # crypto_pwhash/argon2/argon2-fill-block-ref.c:36:4330 @[ crypto_pwhash/argon2/argon2-fill-block-ref.c:230:13 ]
	xorq	%rdx, %r15
.Ltmp294:
	#DEBUG_VALUE: rotr64:x <- $r15
	#DEBUG_VALUE: rotr64:b <- 24
	.loc	6 58 21                         # ./include/sodium/private/common.h:58:21 @[ crypto_pwhash/argon2/argon2-fill-block-ref.c:36:4301 @[ crypto_pwhash/argon2/argon2-fill-block-ref.c:230:13 ] ]
	rolq	$40, %r15
.Ltmp295:
	#DEBUG_VALUE: fBlaMka:y <- $r15
	#DEBUG_VALUE: fBlaMka:x <- $rbx
	#DEBUG_VALUE: fBlaMka:m <- 4294967295
	.loc	5 11 38                         # crypto_pwhash/argon2/blamka-round-ref.h:11:38 @[ crypto_pwhash/argon2/argon2-fill-block-ref.c:36:4385 @[ crypto_pwhash/argon2/argon2-fill-block-ref.c:230:13 ] ]
	movl	%r15d, %eax
.Ltmp296:
	#DEBUG_VALUE: fBlaMka:xy <- undef
	.loc	5 12 14                         # crypto_pwhash/argon2/blamka-round-ref.h:12:14 @[ crypto_pwhash/argon2/argon2-fill-block-ref.c:36:4385 @[ crypto_pwhash/argon2/argon2-fill-block-ref.c:230:13 ] ]
	leaq	(%r15,%rbx), %rcx
	.loc	5 11 33                         # crypto_pwhash/argon2/blamka-round-ref.h:11:33 @[ crypto_pwhash/argon2/argon2-fill-block-ref.c:36:4385 @[ crypto_pwhash/argon2/argon2-fill-block-ref.c:230:13 ] ]
	addq	%rbx, %rbx
.Ltmp297:
	andq	%rdi, %rbx
	.loc	5 12 22                         # crypto_pwhash/argon2/blamka-round-ref.h:12:22 @[ crypto_pwhash/argon2/argon2-fill-block-ref.c:36:4385 @[ crypto_pwhash/argon2/argon2-fill-block-ref.c:230:13 ] ]
	imulq	%rax, %rbx
	.loc	5 12 18 is_stmt 0               # crypto_pwhash/argon2/blamka-round-ref.h:12:18 @[ crypto_pwhash/argon2/argon2-fill-block-ref.c:36:4385 @[ crypto_pwhash/argon2/argon2-fill-block-ref.c:230:13 ] ]
	addq	%rcx, %rbx
.Ltmp298:
	.loc	3 36 4383 is_stmt 1             # crypto_pwhash/argon2/argon2-fill-block-ref.c:36:4383 @[ crypto_pwhash/argon2/argon2-fill-block-ref.c:230:13 ]
	movq	%rbx, 80(%rsp,%r8)
	.loc	3 36 4492 is_stmt 0             # crypto_pwhash/argon2/argon2-fill-block-ref.c:36:4492 @[ crypto_pwhash/argon2/argon2-fill-block-ref.c:230:13 ]
	xorq	%r10, %rbx
.Ltmp299:
	#DEBUG_VALUE: rotr64:x <- $rbx
	#DEBUG_VALUE: rotr64:b <- 16
	.loc	6 58 21 is_stmt 1               # ./include/sodium/private/common.h:58:21 @[ crypto_pwhash/argon2/argon2-fill-block-ref.c:36:4462 @[ crypto_pwhash/argon2/argon2-fill-block-ref.c:230:13 ] ]
	rolq	$48, %rbx
.Ltmp300:
	.loc	3 36 4460                       # crypto_pwhash/argon2/argon2-fill-block-ref.c:36:4460 @[ crypto_pwhash/argon2/argon2-fill-block-ref.c:230:13 ]
	movq	%rbx, 168(%rsp,%r8)
.Ltmp301:
	#DEBUG_VALUE: fBlaMka:x <- $rdx
	#DEBUG_VALUE: fBlaMka:y <- $rbx
	#DEBUG_VALUE: fBlaMka:m <- 4294967295
	.loc	5 11 38                         # crypto_pwhash/argon2/blamka-round-ref.h:11:38 @[ crypto_pwhash/argon2/argon2-fill-block-ref.c:36:4547 @[ crypto_pwhash/argon2/argon2-fill-block-ref.c:230:13 ] ]
	movl	%ebx, %eax
.Ltmp302:
	#DEBUG_VALUE: fBlaMka:xy <- undef
	.loc	5 12 14                         # crypto_pwhash/argon2/blamka-round-ref.h:12:14 @[ crypto_pwhash/argon2/argon2-fill-block-ref.c:36:4547 @[ crypto_pwhash/argon2/argon2-fill-block-ref.c:230:13 ] ]
	addq	%rdx, %rbx
.Ltmp303:
	.loc	5 11 33                         # crypto_pwhash/argon2/blamka-round-ref.h:11:33 @[ crypto_pwhash/argon2/argon2-fill-block-ref.c:36:4547 @[ crypto_pwhash/argon2/argon2-fill-block-ref.c:230:13 ] ]
	addq	%rdx, %rdx
.Ltmp304:
	movabsq	$8589934590, %rcx               # imm = 0x1FFFFFFFE
	andq	%rcx, %rdx
	.loc	5 12 22                         # crypto_pwhash/argon2/blamka-round-ref.h:12:22 @[ crypto_pwhash/argon2/argon2-fill-block-ref.c:36:4547 @[ crypto_pwhash/argon2/argon2-fill-block-ref.c:230:13 ] ]
	imulq	%rax, %rdx
.Ltmp305:
	.loc	6 58 21                         # ./include/sodium/private/common.h:58:21 @[ crypto_pwhash/argon2/argon2-fill-block-ref.c:36:580 @[ crypto_pwhash/argon2/argon2-fill-block-ref.c:230:13 ] ]
	rolq	%r9
.Ltmp306:
	.loc	5 12 18                         # crypto_pwhash/argon2/blamka-round-ref.h:12:18 @[ crypto_pwhash/argon2/argon2-fill-block-ref.c:36:4547 @[ crypto_pwhash/argon2/argon2-fill-block-ref.c:230:13 ] ]
	addq	%rbx, %rdx
.Ltmp307:
	.loc	3 36 4545                       # crypto_pwhash/argon2/argon2-fill-block-ref.c:36:4545 @[ crypto_pwhash/argon2/argon2-fill-block-ref.c:230:13 ]
	movq	%rdx, 128(%rsp,%r8)
	.loc	3 36 4653 is_stmt 0             # crypto_pwhash/argon2/argon2-fill-block-ref.c:36:4653 @[ crypto_pwhash/argon2/argon2-fill-block-ref.c:230:13 ]
	xorq	%r15, %rdx
.Ltmp308:
	#DEBUG_VALUE: rotr64:x <- $rdx
	#DEBUG_VALUE: rotr64:b <- 63
	#DEBUG_VALUE: fBlaMka:x <- $r11
	#DEBUG_VALUE: fBlaMka:y <- $r9
	#DEBUG_VALUE: fBlaMka:m <- 4294967295
	.loc	5 11 38 is_stmt 1               # crypto_pwhash/argon2/blamka-round-ref.h:11:38 @[ crypto_pwhash/argon2/argon2-fill-block-ref.c:36:4736 @[ crypto_pwhash/argon2/argon2-fill-block-ref.c:230:13 ] ]
	movl	%r9d, %eax
.Ltmp309:
	#DEBUG_VALUE: fBlaMka:xy <- undef
	.loc	5 12 14                         # crypto_pwhash/argon2/blamka-round-ref.h:12:14 @[ crypto_pwhash/argon2/argon2-fill-block-ref.c:36:4736 @[ crypto_pwhash/argon2/argon2-fill-block-ref.c:230:13 ] ]
	leaq	(%r11,%r9), %rcx
	.loc	5 11 33                         # crypto_pwhash/argon2/blamka-round-ref.h:11:33 @[ crypto_pwhash/argon2/argon2-fill-block-ref.c:36:4736 @[ crypto_pwhash/argon2/argon2-fill-block-ref.c:230:13 ] ]
	addq	%r11, %r11
.Ltmp310:
	andq	%rdi, %r11
	.loc	5 12 22                         # crypto_pwhash/argon2/blamka-round-ref.h:12:22 @[ crypto_pwhash/argon2/argon2-fill-block-ref.c:36:4736 @[ crypto_pwhash/argon2/argon2-fill-block-ref.c:230:13 ] ]
	imulq	%rax, %r11
.Ltmp311:
	.loc	6 58 21                         # ./include/sodium/private/common.h:58:21 @[ crypto_pwhash/argon2/argon2-fill-block-ref.c:36:4624 @[ crypto_pwhash/argon2/argon2-fill-block-ref.c:230:13 ] ]
	rolq	%rdx
.Ltmp312:
	.loc	5 12 18                         # crypto_pwhash/argon2/blamka-round-ref.h:12:18 @[ crypto_pwhash/argon2/argon2-fill-block-ref.c:36:4736 @[ crypto_pwhash/argon2/argon2-fill-block-ref.c:230:13 ] ]
	addq	%rcx, %r11
	movq	112(%rsp), %rdi                 # 8-byte Reload
.Ltmp313:
	.loc	3 36 4843                       # crypto_pwhash/argon2/argon2-fill-block-ref.c:36:4843 @[ crypto_pwhash/argon2/argon2-fill-block-ref.c:230:13 ]
	xorq	%r11, %rdi
.Ltmp314:
	#DEBUG_VALUE: rotr64:x <- $rdi
	#DEBUG_VALUE: rotr64:b <- 32
	.loc	6 58 21                         # ./include/sodium/private/common.h:58:21 @[ crypto_pwhash/argon2/argon2-fill-block-ref.c:36:4813 @[ crypto_pwhash/argon2/argon2-fill-block-ref.c:230:13 ] ]
	rolq	$32, %rdi
.Ltmp315:
	#DEBUG_VALUE: fBlaMka:y <- $rdi
	#DEBUG_VALUE: fBlaMka:x <- $rsi
	#DEBUG_VALUE: fBlaMka:m <- 4294967295
	.loc	3 36 4622                       # crypto_pwhash/argon2/argon2-fill-block-ref.c:36:4622 @[ crypto_pwhash/argon2/argon2-fill-block-ref.c:230:13 ]
	movq	%rdx, 120(%rsp,%r8)
	movabsq	$8589934590, %rdx               # imm = 0x1FFFFFFFE
.Ltmp316:
	.loc	5 11 38                         # crypto_pwhash/argon2/blamka-round-ref.h:11:38 @[ crypto_pwhash/argon2/argon2-fill-block-ref.c:36:4898 @[ crypto_pwhash/argon2/argon2-fill-block-ref.c:230:13 ] ]
	movl	%edi, %eax
.Ltmp317:
	#DEBUG_VALUE: fBlaMka:xy <- undef
	.loc	5 12 14                         # crypto_pwhash/argon2/blamka-round-ref.h:12:14 @[ crypto_pwhash/argon2/argon2-fill-block-ref.c:36:4898 @[ crypto_pwhash/argon2/argon2-fill-block-ref.c:230:13 ] ]
	leaq	(%rdi,%rsi), %rcx
	movq	%rdi, %r10
.Ltmp318:
	.loc	5 11 33                         # crypto_pwhash/argon2/blamka-round-ref.h:11:33 @[ crypto_pwhash/argon2/argon2-fill-block-ref.c:36:4898 @[ crypto_pwhash/argon2/argon2-fill-block-ref.c:230:13 ] ]
	addq	%rsi, %rsi
.Ltmp319:
	andq	%rdx, %rsi
	.loc	5 12 22                         # crypto_pwhash/argon2/blamka-round-ref.h:12:22 @[ crypto_pwhash/argon2/argon2-fill-block-ref.c:36:4898 @[ crypto_pwhash/argon2/argon2-fill-block-ref.c:230:13 ] ]
	imulq	%rax, %rsi
	.loc	5 12 18 is_stmt 0               # crypto_pwhash/argon2/blamka-round-ref.h:12:18 @[ crypto_pwhash/argon2/argon2-fill-block-ref.c:36:4898 @[ crypto_pwhash/argon2/argon2-fill-block-ref.c:230:13 ] ]
	addq	%rcx, %rsi
	movq	%r9, %rdi
.Ltmp320:
	#DEBUG_VALUE: fBlaMka:y <- $r10
	.loc	3 36 5004 is_stmt 1             # crypto_pwhash/argon2/argon2-fill-block-ref.c:36:5004 @[ crypto_pwhash/argon2/argon2-fill-block-ref.c:230:13 ]
	xorq	%rsi, %rdi
.Ltmp321:
	#DEBUG_VALUE: rotr64:x <- $rdi
	#DEBUG_VALUE: rotr64:b <- 24
	.loc	6 58 21                         # ./include/sodium/private/common.h:58:21 @[ crypto_pwhash/argon2/argon2-fill-block-ref.c:36:4975 @[ crypto_pwhash/argon2/argon2-fill-block-ref.c:230:13 ] ]
	rolq	$40, %rdi
.Ltmp322:
	#DEBUG_VALUE: fBlaMka:y <- $rdi
	#DEBUG_VALUE: fBlaMka:x <- $r11
	#DEBUG_VALUE: fBlaMka:m <- 4294967295
	.loc	5 11 38                         # crypto_pwhash/argon2/blamka-round-ref.h:11:38 @[ crypto_pwhash/argon2/argon2-fill-block-ref.c:36:5059 @[ crypto_pwhash/argon2/argon2-fill-block-ref.c:230:13 ] ]
	movl	%edi, %eax
.Ltmp323:
	#DEBUG_VALUE: fBlaMka:xy <- undef
	.loc	5 12 14                         # crypto_pwhash/argon2/blamka-round-ref.h:12:14 @[ crypto_pwhash/argon2/argon2-fill-block-ref.c:36:5059 @[ crypto_pwhash/argon2/argon2-fill-block-ref.c:230:13 ] ]
	leaq	(%rdi,%r11), %rcx
	.loc	5 11 33                         # crypto_pwhash/argon2/blamka-round-ref.h:11:33 @[ crypto_pwhash/argon2/argon2-fill-block-ref.c:36:5059 @[ crypto_pwhash/argon2/argon2-fill-block-ref.c:230:13 ] ]
	addq	%r11, %r11
.Ltmp324:
	andq	%rdx, %r11
	.loc	5 12 22                         # crypto_pwhash/argon2/blamka-round-ref.h:12:22 @[ crypto_pwhash/argon2/argon2-fill-block-ref.c:36:5059 @[ crypto_pwhash/argon2/argon2-fill-block-ref.c:230:13 ] ]
	imulq	%rax, %r11
	.loc	5 12 18 is_stmt 0               # crypto_pwhash/argon2/blamka-round-ref.h:12:18 @[ crypto_pwhash/argon2/argon2-fill-block-ref.c:36:5059 @[ crypto_pwhash/argon2/argon2-fill-block-ref.c:230:13 ] ]
	addq	%rcx, %r11
.Ltmp325:
	.loc	3 36 5057 is_stmt 1             # crypto_pwhash/argon2/argon2-fill-block-ref.c:36:5057 @[ crypto_pwhash/argon2/argon2-fill-block-ref.c:230:13 ]
	movq	%r11, 88(%rsp,%r8)
	.loc	3 36 5166 is_stmt 0             # crypto_pwhash/argon2/argon2-fill-block-ref.c:36:5166 @[ crypto_pwhash/argon2/argon2-fill-block-ref.c:230:13 ]
	xorq	%r10, %r11
.Ltmp326:
	#DEBUG_VALUE: rotr64:x <- $r11
	#DEBUG_VALUE: rotr64:b <- 16
	.loc	6 58 21 is_stmt 1               # ./include/sodium/private/common.h:58:21 @[ crypto_pwhash/argon2/argon2-fill-block-ref.c:36:5136 @[ crypto_pwhash/argon2/argon2-fill-block-ref.c:230:13 ] ]
	rolq	$48, %r11
.Ltmp327:
	.loc	3 36 5134                       # crypto_pwhash/argon2/argon2-fill-block-ref.c:36:5134 @[ crypto_pwhash/argon2/argon2-fill-block-ref.c:230:13 ]
	movq	%r11, 176(%rsp,%r8)
.Ltmp328:
	#DEBUG_VALUE: fBlaMka:x <- $rsi
	#DEBUG_VALUE: fBlaMka:y <- $r11
	#DEBUG_VALUE: fBlaMka:m <- 4294967295
	.loc	5 11 38                         # crypto_pwhash/argon2/blamka-round-ref.h:11:38 @[ crypto_pwhash/argon2/argon2-fill-block-ref.c:36:5221 @[ crypto_pwhash/argon2/argon2-fill-block-ref.c:230:13 ] ]
	movl	%r11d, %eax
.Ltmp329:
	#DEBUG_VALUE: fBlaMka:xy <- undef
	.loc	5 12 14                         # crypto_pwhash/argon2/blamka-round-ref.h:12:14 @[ crypto_pwhash/argon2/argon2-fill-block-ref.c:36:5221 @[ crypto_pwhash/argon2/argon2-fill-block-ref.c:230:13 ] ]
	addq	%rsi, %r11
.Ltmp330:
	.loc	5 11 33                         # crypto_pwhash/argon2/blamka-round-ref.h:11:33 @[ crypto_pwhash/argon2/argon2-fill-block-ref.c:36:5221 @[ crypto_pwhash/argon2/argon2-fill-block-ref.c:230:13 ] ]
	addq	%rsi, %rsi
.Ltmp331:
	andq	%rdx, %rsi
	.loc	5 12 22                         # crypto_pwhash/argon2/blamka-round-ref.h:12:22 @[ crypto_pwhash/argon2/argon2-fill-block-ref.c:36:5221 @[ crypto_pwhash/argon2/argon2-fill-block-ref.c:230:13 ] ]
	imulq	%rax, %rsi
	.loc	5 12 18 is_stmt 0               # crypto_pwhash/argon2/blamka-round-ref.h:12:18 @[ crypto_pwhash/argon2/argon2-fill-block-ref.c:36:5221 @[ crypto_pwhash/argon2/argon2-fill-block-ref.c:230:13 ] ]
	addq	%r11, %rsi
.Ltmp332:
	.loc	3 36 5219 is_stmt 1             # crypto_pwhash/argon2/argon2-fill-block-ref.c:36:5219 @[ crypto_pwhash/argon2/argon2-fill-block-ref.c:230:13 ]
	movq	%rsi, 136(%rsp,%r8)
	.loc	3 36 5327 is_stmt 0             # crypto_pwhash/argon2/argon2-fill-block-ref.c:36:5327 @[ crypto_pwhash/argon2/argon2-fill-block-ref.c:230:13 ]
	xorq	%rdi, %rsi
.Ltmp333:
	#DEBUG_VALUE: rotr64:x <- $rsi
	#DEBUG_VALUE: rotr64:b <- 63
	.loc	6 58 21 is_stmt 1               # ./include/sodium/private/common.h:58:21 @[ crypto_pwhash/argon2/argon2-fill-block-ref.c:36:5298 @[ crypto_pwhash/argon2/argon2-fill-block-ref.c:230:13 ] ]
	rolq	%rsi
.Ltmp334:
	.loc	3 36 5296                       # crypto_pwhash/argon2/argon2-fill-block-ref.c:36:5296 @[ crypto_pwhash/argon2/argon2-fill-block-ref.c:230:13 ]
	movq	%rsi, 96(%rsp,%r8)
.Ltmp335:
	#DEBUG_VALUE: fill_block:i <- [DW_OP_consts 120, DW_OP_minus, DW_OP_consts 128, DW_OP_div, DW_OP_consts 1, DW_OP_plus, DW_OP_stack_value] $r8
	.loc	3 35 19                         # crypto_pwhash/argon2/argon2-fill-block-ref.c:35:19 @[ crypto_pwhash/argon2/argon2-fill-block-ref.c:230:13 ]
	subq	$-128, %r8
.Ltmp336:
	cmpq	$1144, %r8                      # imm = 0x478
.Ltmp337:
	.loc	3 35 5 is_stmt 0                # crypto_pwhash/argon2/argon2-fill-block-ref.c:35:5 @[ crypto_pwhash/argon2/argon2-fill-block-ref.c:230:13 ]
	jne	.LBB0_43
.Ltmp338:
# %bb.44:                               # %.preheader.i.preheader
                                        #   in Loop: Header=BB0_16 Depth=1
	#DEBUG_VALUE: argon2_fill_segment_ref:position <- [DW_OP_plus_uconst 32, DW_OP_deref_size 8, DW_OP_constu 8, DW_OP_shr, DW_OP_LLVM_convert 64 7, DW_OP_LLVM_convert 24 7, DW_OP_stack_value, DW_OP_LLVM_fragment 72 24] $rsp
	#DEBUG_VALUE: argon2_fill_segment_ref:instance <- [DW_OP_plus_uconst 24] [$rsp+0]
	#DEBUG_VALUE: argon2_fill_segment_ref:position <- [DW_OP_plus_uconst 48, DW_OP_deref, DW_OP_LLVM_fragment 32 32] $rsp
	#DEBUG_VALUE: argon2_fill_segment_ref:position <- [DW_OP_plus_uconst 136, DW_OP_deref, DW_OP_LLVM_fragment 0 32] $rsp
	#DEBUG_VALUE: argon2_fill_segment_ref:position <- [DW_OP_plus_uconst 32, DW_OP_deref, DW_OP_LLVM_fragment 64 8] $rsp
	#DEBUG_VALUE: argon2_fill_segment_ref:position <- [DW_OP_plus_uconst 72, DW_OP_deref_size 8, DW_OP_stack_value, DW_OP_LLVM_fragment 96 32] $rsp
	#DEBUG_VALUE: argon2_fill_segment_ref:curr_block <- [DW_OP_plus_uconst 176, DW_OP_deref] $rsp
	#DEBUG_VALUE: argon2_fill_segment_ref:i <- [DW_OP_plus_uconst 72, DW_OP_deref_size 8, DW_OP_stack_value] $rsp
	#DEBUG_VALUE: argon2_fill_segment_ref:prev_offset <- [DW_OP_plus_uconst 16, DW_OP_deref] $rsp
	#DEBUG_VALUE: argon2_fill_segment_ref:curr_offset <- [DW_OP_plus_uconst 64, DW_OP_deref] $rsp
	#DEBUG_VALUE: fill_block:next_block <- [DW_OP_plus_uconst 176, DW_OP_deref] $rsp
	#DEBUG_VALUE: fBlaMka:m <- 4294967295
	#DEBUG_VALUE: rotr64:b <- 32
	#DEBUG_VALUE: fBlaMka:m <- 4294967295
	#DEBUG_VALUE: rotr64:b <- 24
	#DEBUG_VALUE: fBlaMka:y <- [DW_OP_plus_uconst 120, DW_OP_deref] $rsp
	#DEBUG_VALUE: fBlaMka:m <- 4294967295
	#DEBUG_VALUE: rotr64:b <- 16
	#DEBUG_VALUE: fBlaMka:y <- [DW_OP_plus_uconst 96, DW_OP_deref] $rsp
	#DEBUG_VALUE: fBlaMka:m <- 4294967295
	#DEBUG_VALUE: rotr64:b <- 63
	#DEBUG_VALUE: fBlaMka:m <- 4294967295
	#DEBUG_VALUE: rotr64:b <- 32
	#DEBUG_VALUE: fBlaMka:m <- 4294967295
	#DEBUG_VALUE: rotr64:b <- 24
	#DEBUG_VALUE: fBlaMka:m <- 4294967295
	#DEBUG_VALUE: rotr64:b <- 16
	#DEBUG_VALUE: fBlaMka:y <- [DW_OP_plus_uconst 104, DW_OP_deref] $rsp
	#DEBUG_VALUE: fBlaMka:m <- 4294967295
	#DEBUG_VALUE: rotr64:b <- 63
	#DEBUG_VALUE: fBlaMka:m <- 4294967295
	#DEBUG_VALUE: rotr64:b <- 32
	#DEBUG_VALUE: fBlaMka:m <- 4294967295
	#DEBUG_VALUE: rotr64:b <- 24
	#DEBUG_VALUE: fBlaMka:m <- 4294967295
	#DEBUG_VALUE: rotr64:b <- 16
	#DEBUG_VALUE: fBlaMka:y <- [DW_OP_plus_uconst 112, DW_OP_deref] $rsp
	#DEBUG_VALUE: fBlaMka:m <- 4294967295
	#DEBUG_VALUE: rotr64:b <- 63
	#DEBUG_VALUE: fBlaMka:m <- 4294967295
	#DEBUG_VALUE: rotr64:b <- 32
	#DEBUG_VALUE: fBlaMka:m <- 4294967295
	#DEBUG_VALUE: rotr64:b <- 24
	#DEBUG_VALUE: fBlaMka:m <- 4294967295
	#DEBUG_VALUE: rotr64:b <- 16
	#DEBUG_VALUE: fBlaMka:m <- 4294967295
	#DEBUG_VALUE: rotr64:b <- 63
	#DEBUG_VALUE: fBlaMka:m <- 4294967295
	#DEBUG_VALUE: rotr64:b <- 32
	#DEBUG_VALUE: fBlaMka:m <- 4294967295
	#DEBUG_VALUE: rotr64:b <- 24
	#DEBUG_VALUE: fBlaMka:y <- $rbp
	#DEBUG_VALUE: fBlaMka:m <- 4294967295
	#DEBUG_VALUE: rotr64:b <- 16
	#DEBUG_VALUE: fBlaMka:m <- 4294967295
	#DEBUG_VALUE: rotr64:b <- 63
	#DEBUG_VALUE: fBlaMka:m <- 4294967295
	#DEBUG_VALUE: rotr64:b <- 32
	#DEBUG_VALUE: fBlaMka:y <- $r14
	#DEBUG_VALUE: fBlaMka:m <- 4294967295
	#DEBUG_VALUE: rotr64:b <- 24
	#DEBUG_VALUE: fBlaMka:y <- $r12
	#DEBUG_VALUE: fBlaMka:m <- 4294967295
	#DEBUG_VALUE: rotr64:b <- 16
	#DEBUG_VALUE: fBlaMka:m <- 4294967295
	#DEBUG_VALUE: rotr64:b <- 63
	#DEBUG_VALUE: fBlaMka:m <- 4294967295
	#DEBUG_VALUE: rotr64:b <- 32
	#DEBUG_VALUE: fBlaMka:m <- 4294967295
	#DEBUG_VALUE: rotr64:b <- 24
	#DEBUG_VALUE: fBlaMka:y <- $r15
	#DEBUG_VALUE: fBlaMka:m <- 4294967295
	#DEBUG_VALUE: rotr64:b <- 16
	#DEBUG_VALUE: fBlaMka:m <- 4294967295
	#DEBUG_VALUE: rotr64:b <- 63
	#DEBUG_VALUE: fBlaMka:y <- $r9
	#DEBUG_VALUE: fBlaMka:m <- 4294967295
	#DEBUG_VALUE: rotr64:b <- 32
	#DEBUG_VALUE: fBlaMka:y <- $r10
	#DEBUG_VALUE: fBlaMka:m <- 4294967295
	#DEBUG_VALUE: rotr64:b <- 24
	#DEBUG_VALUE: fBlaMka:y <- $rdi
	#DEBUG_VALUE: fBlaMka:m <- 4294967295
	#DEBUG_VALUE: rotr64:b <- 16
	#DEBUG_VALUE: fBlaMka:m <- 4294967295
	#DEBUG_VALUE: rotr64:b <- 63
	.loc	3 0 5                           # crypto_pwhash/argon2/argon2-fill-block-ref.c:0:5
	movl	$904, %r8d                      # imm = 0x388
.Ltmp339:
	.p2align	4
.LBB0_45:                               # %.preheader.i
                                        #   Parent Loop BB0_16 Depth=1
                                        # =>  This Inner Loop Header: Depth=2
	#DEBUG_VALUE: argon2_fill_segment_ref:position <- [DW_OP_plus_uconst 32, DW_OP_deref_size 8, DW_OP_constu 8, DW_OP_shr, DW_OP_LLVM_convert 64 7, DW_OP_LLVM_convert 24 7, DW_OP_stack_value, DW_OP_LLVM_fragment 72 24] $rsp
	#DEBUG_VALUE: argon2_fill_segment_ref:instance <- [DW_OP_plus_uconst 24] [$rsp+0]
	#DEBUG_VALUE: argon2_fill_segment_ref:position <- [DW_OP_plus_uconst 48, DW_OP_deref, DW_OP_LLVM_fragment 32 32] $rsp
	#DEBUG_VALUE: argon2_fill_segment_ref:position <- [DW_OP_plus_uconst 136, DW_OP_deref, DW_OP_LLVM_fragment 0 32] $rsp
	#DEBUG_VALUE: argon2_fill_segment_ref:position <- [DW_OP_plus_uconst 32, DW_OP_deref, DW_OP_LLVM_fragment 64 8] $rsp
	#DEBUG_VALUE: argon2_fill_segment_ref:position <- [DW_OP_plus_uconst 72, DW_OP_deref_size 8, DW_OP_stack_value, DW_OP_LLVM_fragment 96 32] $rsp
	#DEBUG_VALUE: argon2_fill_segment_ref:curr_block <- [DW_OP_plus_uconst 176, DW_OP_deref] $rsp
	#DEBUG_VALUE: argon2_fill_segment_ref:i <- [DW_OP_plus_uconst 72, DW_OP_deref_size 8, DW_OP_stack_value] $rsp
	#DEBUG_VALUE: argon2_fill_segment_ref:prev_offset <- [DW_OP_plus_uconst 16, DW_OP_deref] $rsp
	#DEBUG_VALUE: argon2_fill_segment_ref:curr_offset <- [DW_OP_plus_uconst 64, DW_OP_deref] $rsp
	#DEBUG_VALUE: fill_block:next_block <- [DW_OP_plus_uconst 176, DW_OP_deref] $rsp
	#DEBUG_VALUE: fill_block:i <- [DW_OP_consts 904, DW_OP_minus, DW_OP_consts 16, DW_OP_div, DW_OP_stack_value] $r8
	.loc	3 48 62 is_stmt 1               # crypto_pwhash/argon2/argon2-fill-block-ref.c:48:62 @[ crypto_pwhash/argon2/argon2-fill-block-ref.c:230:13 ]
	movq	-464(%rsp,%r8), %r9
.Ltmp340:
	#DEBUG_VALUE: fBlaMka:y <- $r9
	#DEBUG_VALUE: fBlaMka:x <- undef
	#DEBUG_VALUE: fBlaMka:m <- 4294967295
	.loc	5 11 38                         # crypto_pwhash/argon2/blamka-round-ref.h:11:38 @[ crypto_pwhash/argon2/argon2-fill-block-ref.c:48:37 @[ crypto_pwhash/argon2/argon2-fill-block-ref.c:230:13 ] ]
	movl	%r9d, %eax
.Ltmp341:
	.loc	3 48 45                         # crypto_pwhash/argon2/argon2-fill-block-ref.c:48:45 @[ crypto_pwhash/argon2/argon2-fill-block-ref.c:230:13 ]
	movq	-720(%rsp,%r8), %r14
.Ltmp342:
	#DEBUG_VALUE: fBlaMka:x <- $r14
	.loc	5 12 14                         # crypto_pwhash/argon2/blamka-round-ref.h:12:14 @[ crypto_pwhash/argon2/argon2-fill-block-ref.c:48:37 @[ crypto_pwhash/argon2/argon2-fill-block-ref.c:230:13 ] ]
	leaq	(%r9,%r14), %rcx
	.loc	5 11 33                         # crypto_pwhash/argon2/blamka-round-ref.h:11:33 @[ crypto_pwhash/argon2/argon2-fill-block-ref.c:48:37 @[ crypto_pwhash/argon2/argon2-fill-block-ref.c:230:13 ] ]
	addq	%r14, %r14
.Ltmp343:
	andq	%rdx, %r14
	.loc	5 12 22                         # crypto_pwhash/argon2/blamka-round-ref.h:12:22 @[ crypto_pwhash/argon2/argon2-fill-block-ref.c:48:37 @[ crypto_pwhash/argon2/argon2-fill-block-ref.c:230:13 ] ]
	imulq	%rax, %r14
	.loc	5 12 18 is_stmt 0               # crypto_pwhash/argon2/blamka-round-ref.h:12:18 @[ crypto_pwhash/argon2/argon2-fill-block-ref.c:48:37 @[ crypto_pwhash/argon2/argon2-fill-block-ref.c:230:13 ] ]
	addq	%rcx, %r14
	movq	48(%rsp,%r8), %r10
.Ltmp344:
	.loc	3 48 137 is_stmt 1              # crypto_pwhash/argon2/argon2-fill-block-ref.c:48:137 @[ crypto_pwhash/argon2/argon2-fill-block-ref.c:230:13 ]
	xorq	%r14, %r10
.Ltmp345:
	#DEBUG_VALUE: rotr64:x <- undef
	#DEBUG_VALUE: rotr64:b <- 32
	.loc	6 58 21                         # ./include/sodium/private/common.h:58:21 @[ crypto_pwhash/argon2/argon2-fill-block-ref.c:48:108 @[ crypto_pwhash/argon2/argon2-fill-block-ref.c:230:13 ] ]
	rolq	$32, %r10
.Ltmp346:
	.loc	3 48 687                        # crypto_pwhash/argon2/argon2-fill-block-ref.c:48:687 @[ crypto_pwhash/argon2/argon2-fill-block-ref.c:230:13 ]
	movq	-712(%rsp,%r8), %rdi
.Ltmp347:
	#DEBUG_VALUE: fBlaMka:xy <- undef
	.loc	3 48 195 is_stmt 0              # crypto_pwhash/argon2/argon2-fill-block-ref.c:48:195 @[ crypto_pwhash/argon2/argon2-fill-block-ref.c:230:13 ]
	movq	-208(%rsp,%r8), %rdx
.Ltmp348:
	#DEBUG_VALUE: fBlaMka:x <- $rdx
	#DEBUG_VALUE: fBlaMka:y <- $r10
	#DEBUG_VALUE: fBlaMka:m <- 4294967295
	.loc	5 11 38 is_stmt 1               # crypto_pwhash/argon2/blamka-round-ref.h:11:38 @[ crypto_pwhash/argon2/argon2-fill-block-ref.c:48:187 @[ crypto_pwhash/argon2/argon2-fill-block-ref.c:230:13 ] ]
	movl	%r10d, %eax
.Ltmp349:
	#DEBUG_VALUE: fBlaMka:xy <- undef
	.loc	5 12 14                         # crypto_pwhash/argon2/blamka-round-ref.h:12:14 @[ crypto_pwhash/argon2/argon2-fill-block-ref.c:48:187 @[ crypto_pwhash/argon2/argon2-fill-block-ref.c:230:13 ] ]
	leaq	(%r10,%rdx), %rcx
	.loc	5 11 33                         # crypto_pwhash/argon2/blamka-round-ref.h:11:33 @[ crypto_pwhash/argon2/argon2-fill-block-ref.c:48:187 @[ crypto_pwhash/argon2/argon2-fill-block-ref.c:230:13 ] ]
	addq	%rdx, %rdx
.Ltmp350:
	movabsq	$8589934590, %rsi               # imm = 0x1FFFFFFFE
	andq	%rsi, %rdx
	.loc	5 12 22                         # crypto_pwhash/argon2/blamka-round-ref.h:12:22 @[ crypto_pwhash/argon2/argon2-fill-block-ref.c:48:187 @[ crypto_pwhash/argon2/argon2-fill-block-ref.c:230:13 ] ]
	imulq	%rax, %rdx
	.loc	5 12 18 is_stmt 0               # crypto_pwhash/argon2/blamka-round-ref.h:12:18 @[ crypto_pwhash/argon2/argon2-fill-block-ref.c:48:187 @[ crypto_pwhash/argon2/argon2-fill-block-ref.c:230:13 ] ]
	addq	%rcx, %rdx
.Ltmp351:
	.loc	3 48 292 is_stmt 1              # crypto_pwhash/argon2/argon2-fill-block-ref.c:48:292 @[ crypto_pwhash/argon2/argon2-fill-block-ref.c:230:13 ]
	xorq	%rdx, %r9
.Ltmp352:
	#DEBUG_VALUE: rotr64:x <- $r9
	#DEBUG_VALUE: rotr64:b <- 24
	.loc	6 58 21                         # ./include/sodium/private/common.h:58:21 @[ crypto_pwhash/argon2/argon2-fill-block-ref.c:48:263 @[ crypto_pwhash/argon2/argon2-fill-block-ref.c:230:13 ] ]
	rolq	$40, %r9
.Ltmp353:
	#DEBUG_VALUE: fBlaMka:y <- $r9
	#DEBUG_VALUE: fBlaMka:x <- $r14
	#DEBUG_VALUE: fBlaMka:m <- 4294967295
	.loc	6 0 21 is_stmt 0                # ./include/sodium/private/common.h:0:21
	movq	%r9, 120(%rsp)                  # 8-byte Spill
.Ltmp354:
	#DEBUG_VALUE: fBlaMka:y <- [DW_OP_plus_uconst 120, DW_OP_deref] $rsp
	.loc	5 11 38 is_stmt 1               # crypto_pwhash/argon2/blamka-round-ref.h:11:38 @[ crypto_pwhash/argon2/argon2-fill-block-ref.c:48:342 @[ crypto_pwhash/argon2/argon2-fill-block-ref.c:230:13 ] ]
	movl	%r9d, %eax
.Ltmp355:
	#DEBUG_VALUE: fBlaMka:xy <- undef
	.loc	5 12 14                         # crypto_pwhash/argon2/blamka-round-ref.h:12:14 @[ crypto_pwhash/argon2/argon2-fill-block-ref.c:48:342 @[ crypto_pwhash/argon2/argon2-fill-block-ref.c:230:13 ] ]
	leaq	(%r9,%r14), %rcx
	.loc	5 11 33                         # crypto_pwhash/argon2/blamka-round-ref.h:11:33 @[ crypto_pwhash/argon2/argon2-fill-block-ref.c:48:342 @[ crypto_pwhash/argon2/argon2-fill-block-ref.c:230:13 ] ]
	addq	%r14, %r14
.Ltmp356:
	andq	%rsi, %r14
	.loc	5 12 22                         # crypto_pwhash/argon2/blamka-round-ref.h:12:22 @[ crypto_pwhash/argon2/argon2-fill-block-ref.c:48:342 @[ crypto_pwhash/argon2/argon2-fill-block-ref.c:230:13 ] ]
	imulq	%rax, %r14
	.loc	5 12 18 is_stmt 0               # crypto_pwhash/argon2/blamka-round-ref.h:12:18 @[ crypto_pwhash/argon2/argon2-fill-block-ref.c:48:342 @[ crypto_pwhash/argon2/argon2-fill-block-ref.c:230:13 ] ]
	addq	%rcx, %r14
.Ltmp357:
	.loc	3 48 442 is_stmt 1              # crypto_pwhash/argon2/argon2-fill-block-ref.c:48:442 @[ crypto_pwhash/argon2/argon2-fill-block-ref.c:230:13 ]
	xorq	%r14, %r10
.Ltmp358:
	#DEBUG_VALUE: rotr64:x <- $r10
	#DEBUG_VALUE: rotr64:b <- 16
	.loc	6 58 21                         # ./include/sodium/private/common.h:58:21 @[ crypto_pwhash/argon2/argon2-fill-block-ref.c:48:413 @[ crypto_pwhash/argon2/argon2-fill-block-ref.c:230:13 ] ]
	rolq	$48, %r10
.Ltmp359:
	#DEBUG_VALUE: fBlaMka:y <- $r10
	#DEBUG_VALUE: fBlaMka:x <- $rdx
	#DEBUG_VALUE: fBlaMka:m <- 4294967295
	.loc	6 0 21 is_stmt 0                # ./include/sodium/private/common.h:0:21
	movq	%r10, 96(%rsp)                  # 8-byte Spill
.Ltmp360:
	#DEBUG_VALUE: fBlaMka:y <- [DW_OP_plus_uconst 96, DW_OP_deref] $rsp
	.loc	5 11 38 is_stmt 1               # crypto_pwhash/argon2/blamka-round-ref.h:11:38 @[ crypto_pwhash/argon2/argon2-fill-block-ref.c:48:492 @[ crypto_pwhash/argon2/argon2-fill-block-ref.c:230:13 ] ]
	movl	%r10d, %ecx
.Ltmp361:
	#DEBUG_VALUE: fBlaMka:xy <- undef
	.loc	5 12 14                         # crypto_pwhash/argon2/blamka-round-ref.h:12:14 @[ crypto_pwhash/argon2/argon2-fill-block-ref.c:48:492 @[ crypto_pwhash/argon2/argon2-fill-block-ref.c:230:13 ] ]
	leaq	(%r10,%rdx), %rax
	.loc	5 11 33                         # crypto_pwhash/argon2/blamka-round-ref.h:11:33 @[ crypto_pwhash/argon2/argon2-fill-block-ref.c:48:492 @[ crypto_pwhash/argon2/argon2-fill-block-ref.c:230:13 ] ]
	addq	%rdx, %rdx
.Ltmp362:
	andq	%rsi, %rdx
	.loc	5 12 22                         # crypto_pwhash/argon2/blamka-round-ref.h:12:22 @[ crypto_pwhash/argon2/argon2-fill-block-ref.c:48:492 @[ crypto_pwhash/argon2/argon2-fill-block-ref.c:230:13 ] ]
	imulq	%rcx, %rdx
.Ltmp363:
	#DEBUG_VALUE: rotr64:x <- undef
	#DEBUG_VALUE: rotr64:b <- 63
	.loc	3 48 708                        # crypto_pwhash/argon2/argon2-fill-block-ref.c:48:708 @[ crypto_pwhash/argon2/argon2-fill-block-ref.c:230:13 ]
	movq	-456(%rsp,%r8), %rbp
.Ltmp364:
	#DEBUG_VALUE: fBlaMka:y <- $rbp
	#DEBUG_VALUE: fBlaMka:x <- $rdi
	#DEBUG_VALUE: fBlaMka:m <- 4294967295
	.loc	5 11 38                         # crypto_pwhash/argon2/blamka-round-ref.h:11:38 @[ crypto_pwhash/argon2/argon2-fill-block-ref.c:48:679 @[ crypto_pwhash/argon2/argon2-fill-block-ref.c:230:13 ] ]
	movl	%ebp, %ecx
.Ltmp365:
	#DEBUG_VALUE: fBlaMka:xy <- undef
	.loc	5 12 14                         # crypto_pwhash/argon2/blamka-round-ref.h:12:14 @[ crypto_pwhash/argon2/argon2-fill-block-ref.c:48:679 @[ crypto_pwhash/argon2/argon2-fill-block-ref.c:230:13 ] ]
	leaq	(%rdi,%rbp), %rsi
	.loc	5 11 33                         # crypto_pwhash/argon2/blamka-round-ref.h:11:33 @[ crypto_pwhash/argon2/argon2-fill-block-ref.c:48:679 @[ crypto_pwhash/argon2/argon2-fill-block-ref.c:230:13 ] ]
	addq	%rdi, %rdi
.Ltmp366:
	movabsq	$8589934590, %r9                # imm = 0x1FFFFFFFE
	andq	%r9, %rdi
	.loc	5 12 22                         # crypto_pwhash/argon2/blamka-round-ref.h:12:22 @[ crypto_pwhash/argon2/argon2-fill-block-ref.c:48:679 @[ crypto_pwhash/argon2/argon2-fill-block-ref.c:230:13 ] ]
	imulq	%rcx, %rdi
	.loc	5 12 18 is_stmt 0               # crypto_pwhash/argon2/blamka-round-ref.h:12:18 @[ crypto_pwhash/argon2/argon2-fill-block-ref.c:48:679 @[ crypto_pwhash/argon2/argon2-fill-block-ref.c:230:13 ] ]
	addq	%rsi, %rdi
	movq	56(%rsp,%r8), %r10
.Ltmp367:
	.loc	3 48 783 is_stmt 1              # crypto_pwhash/argon2/argon2-fill-block-ref.c:48:783 @[ crypto_pwhash/argon2/argon2-fill-block-ref.c:230:13 ]
	xorq	%rdi, %r10
.Ltmp368:
	#DEBUG_VALUE: rotr64:x <- undef
	#DEBUG_VALUE: rotr64:b <- 32
	.loc	6 58 21                         # ./include/sodium/private/common.h:58:21 @[ crypto_pwhash/argon2/argon2-fill-block-ref.c:48:754 @[ crypto_pwhash/argon2/argon2-fill-block-ref.c:230:13 ] ]
	rolq	$32, %r10
.Ltmp369:
	.loc	5 12 18                         # crypto_pwhash/argon2/blamka-round-ref.h:12:18 @[ crypto_pwhash/argon2/argon2-fill-block-ref.c:48:492 @[ crypto_pwhash/argon2/argon2-fill-block-ref.c:230:13 ] ]
	addq	%rax, %rdx
.Ltmp370:
	.loc	3 48 845                        # crypto_pwhash/argon2/argon2-fill-block-ref.c:48:845 @[ crypto_pwhash/argon2/argon2-fill-block-ref.c:230:13 ]
	movq	-200(%rsp,%r8), %rsi
.Ltmp371:
	#DEBUG_VALUE: fBlaMka:x <- $rsi
	#DEBUG_VALUE: fBlaMka:y <- $r10
	#DEBUG_VALUE: fBlaMka:m <- 4294967295
	.loc	5 11 38                         # crypto_pwhash/argon2/blamka-round-ref.h:11:38 @[ crypto_pwhash/argon2/argon2-fill-block-ref.c:48:837 @[ crypto_pwhash/argon2/argon2-fill-block-ref.c:230:13 ] ]
	movl	%r10d, %eax
.Ltmp372:
	#DEBUG_VALUE: fBlaMka:xy <- undef
	.loc	5 12 14                         # crypto_pwhash/argon2/blamka-round-ref.h:12:14 @[ crypto_pwhash/argon2/argon2-fill-block-ref.c:48:837 @[ crypto_pwhash/argon2/argon2-fill-block-ref.c:230:13 ] ]
	leaq	(%r10,%rsi), %rcx
	.loc	5 11 33                         # crypto_pwhash/argon2/blamka-round-ref.h:11:33 @[ crypto_pwhash/argon2/argon2-fill-block-ref.c:48:837 @[ crypto_pwhash/argon2/argon2-fill-block-ref.c:230:13 ] ]
	addq	%rsi, %rsi
.Ltmp373:
	andq	%r9, %rsi
	.loc	5 12 22                         # crypto_pwhash/argon2/blamka-round-ref.h:12:22 @[ crypto_pwhash/argon2/argon2-fill-block-ref.c:48:837 @[ crypto_pwhash/argon2/argon2-fill-block-ref.c:230:13 ] ]
	imulq	%rax, %rsi
	.loc	5 12 18 is_stmt 0               # crypto_pwhash/argon2/blamka-round-ref.h:12:18 @[ crypto_pwhash/argon2/argon2-fill-block-ref.c:48:837 @[ crypto_pwhash/argon2/argon2-fill-block-ref.c:230:13 ] ]
	addq	%rcx, %rsi
.Ltmp374:
	.loc	3 48 942 is_stmt 1              # crypto_pwhash/argon2/argon2-fill-block-ref.c:48:942 @[ crypto_pwhash/argon2/argon2-fill-block-ref.c:230:13 ]
	xorq	%rsi, %rbp
.Ltmp375:
	#DEBUG_VALUE: rotr64:x <- $rbp
	#DEBUG_VALUE: rotr64:b <- 24
	.loc	6 58 21                         # ./include/sodium/private/common.h:58:21 @[ crypto_pwhash/argon2/argon2-fill-block-ref.c:48:913 @[ crypto_pwhash/argon2/argon2-fill-block-ref.c:230:13 ] ]
	rolq	$40, %rbp
.Ltmp376:
	#DEBUG_VALUE: fBlaMka:y <- $rbp
	#DEBUG_VALUE: fBlaMka:x <- $rdi
	#DEBUG_VALUE: fBlaMka:m <- 4294967295
	.loc	5 11 38                         # crypto_pwhash/argon2/blamka-round-ref.h:11:38 @[ crypto_pwhash/argon2/argon2-fill-block-ref.c:48:996 @[ crypto_pwhash/argon2/argon2-fill-block-ref.c:230:13 ] ]
	movl	%ebp, %eax
.Ltmp377:
	#DEBUG_VALUE: fBlaMka:xy <- undef
	.loc	5 12 14                         # crypto_pwhash/argon2/blamka-round-ref.h:12:14 @[ crypto_pwhash/argon2/argon2-fill-block-ref.c:48:996 @[ crypto_pwhash/argon2/argon2-fill-block-ref.c:230:13 ] ]
	leaq	(%rdi,%rbp), %rcx
	.loc	5 11 33                         # crypto_pwhash/argon2/blamka-round-ref.h:11:33 @[ crypto_pwhash/argon2/argon2-fill-block-ref.c:48:996 @[ crypto_pwhash/argon2/argon2-fill-block-ref.c:230:13 ] ]
	addq	%rdi, %rdi
.Ltmp378:
	andq	%r9, %rdi
	.loc	5 12 22                         # crypto_pwhash/argon2/blamka-round-ref.h:12:22 @[ crypto_pwhash/argon2/argon2-fill-block-ref.c:48:996 @[ crypto_pwhash/argon2/argon2-fill-block-ref.c:230:13 ] ]
	imulq	%rax, %rdi
	.loc	5 12 18 is_stmt 0               # crypto_pwhash/argon2/blamka-round-ref.h:12:18 @[ crypto_pwhash/argon2/argon2-fill-block-ref.c:48:996 @[ crypto_pwhash/argon2/argon2-fill-block-ref.c:230:13 ] ]
	addq	%rcx, %rdi
.Ltmp379:
	.loc	3 48 1100 is_stmt 1             # crypto_pwhash/argon2/argon2-fill-block-ref.c:48:1100 @[ crypto_pwhash/argon2/argon2-fill-block-ref.c:230:13 ]
	xorq	%rdi, %r10
.Ltmp380:
	#DEBUG_VALUE: rotr64:x <- $r10
	#DEBUG_VALUE: rotr64:b <- 16
	.loc	6 58 21                         # ./include/sodium/private/common.h:58:21 @[ crypto_pwhash/argon2/argon2-fill-block-ref.c:48:1071 @[ crypto_pwhash/argon2/argon2-fill-block-ref.c:230:13 ] ]
	rolq	$48, %r10
.Ltmp381:
	#DEBUG_VALUE: fBlaMka:y <- $r10
	#DEBUG_VALUE: fBlaMka:x <- $rsi
	#DEBUG_VALUE: fBlaMka:m <- 4294967295
	.loc	6 0 21 is_stmt 0                # ./include/sodium/private/common.h:0:21
	movq	%r10, 104(%rsp)                 # 8-byte Spill
.Ltmp382:
	#DEBUG_VALUE: fBlaMka:y <- [DW_OP_plus_uconst 104, DW_OP_deref] $rsp
	.loc	5 11 38 is_stmt 1               # crypto_pwhash/argon2/blamka-round-ref.h:11:38 @[ crypto_pwhash/argon2/argon2-fill-block-ref.c:48:1154 @[ crypto_pwhash/argon2/argon2-fill-block-ref.c:230:13 ] ]
	movl	%r10d, %ecx
.Ltmp383:
	#DEBUG_VALUE: fBlaMka:xy <- undef
	.loc	5 12 14                         # crypto_pwhash/argon2/blamka-round-ref.h:12:14 @[ crypto_pwhash/argon2/argon2-fill-block-ref.c:48:1154 @[ crypto_pwhash/argon2/argon2-fill-block-ref.c:230:13 ] ]
	leaq	(%r10,%rsi), %rax
	.loc	5 11 33                         # crypto_pwhash/argon2/blamka-round-ref.h:11:33 @[ crypto_pwhash/argon2/argon2-fill-block-ref.c:48:1154 @[ crypto_pwhash/argon2/argon2-fill-block-ref.c:230:13 ] ]
	addq	%rsi, %rsi
.Ltmp384:
	andq	%r9, %rsi
.Ltmp385:
	#DEBUG_VALUE: rotr64:x <- undef
	#DEBUG_VALUE: rotr64:b <- 63
	.loc	3 48 1350                       # crypto_pwhash/argon2/argon2-fill-block-ref.c:48:1350 @[ crypto_pwhash/argon2/argon2-fill-block-ref.c:230:13 ]
	movq	-592(%rsp,%r8), %rbx
	.loc	3 48 1372 is_stmt 0             # crypto_pwhash/argon2/argon2-fill-block-ref.c:48:1372 @[ crypto_pwhash/argon2/argon2-fill-block-ref.c:230:13 ]
	movq	-336(%rsp,%r8), %r12
.Ltmp386:
	#DEBUG_VALUE: fBlaMka:y <- $r12
	#DEBUG_VALUE: fBlaMka:x <- $rbx
	#DEBUG_VALUE: fBlaMka:m <- 4294967295
	.loc	5 11 38 is_stmt 1               # crypto_pwhash/argon2/blamka-round-ref.h:11:38 @[ crypto_pwhash/argon2/argon2-fill-block-ref.c:48:1342 @[ crypto_pwhash/argon2/argon2-fill-block-ref.c:230:13 ] ]
	movl	%r12d, %r11d
.Ltmp387:
	#DEBUG_VALUE: fBlaMka:xy <- undef
	.loc	5 12 14                         # crypto_pwhash/argon2/blamka-round-ref.h:12:14 @[ crypto_pwhash/argon2/argon2-fill-block-ref.c:48:1342 @[ crypto_pwhash/argon2/argon2-fill-block-ref.c:230:13 ] ]
	leaq	(%r12,%rbx), %r15
	.loc	5 11 33                         # crypto_pwhash/argon2/blamka-round-ref.h:11:33 @[ crypto_pwhash/argon2/argon2-fill-block-ref.c:48:1342 @[ crypto_pwhash/argon2/argon2-fill-block-ref.c:230:13 ] ]
	addq	%rbx, %rbx
.Ltmp388:
	andq	%r9, %rbx
	.loc	5 12 22                         # crypto_pwhash/argon2/blamka-round-ref.h:12:22 @[ crypto_pwhash/argon2/argon2-fill-block-ref.c:48:1342 @[ crypto_pwhash/argon2/argon2-fill-block-ref.c:230:13 ] ]
	imulq	%r11, %rbx
	.loc	5 12 18 is_stmt 0               # crypto_pwhash/argon2/blamka-round-ref.h:12:18 @[ crypto_pwhash/argon2/argon2-fill-block-ref.c:48:1342 @[ crypto_pwhash/argon2/argon2-fill-block-ref.c:230:13 ] ]
	addq	%r15, %rbx
	movq	176(%rsp,%r8), %r10
.Ltmp389:
	.loc	3 48 1449 is_stmt 1             # crypto_pwhash/argon2/argon2-fill-block-ref.c:48:1449 @[ crypto_pwhash/argon2/argon2-fill-block-ref.c:230:13 ]
	xorq	%rbx, %r10
.Ltmp390:
	#DEBUG_VALUE: rotr64:x <- undef
	#DEBUG_VALUE: rotr64:b <- 32
	.loc	6 58 21                         # ./include/sodium/private/common.h:58:21 @[ crypto_pwhash/argon2/argon2-fill-block-ref.c:48:1419 @[ crypto_pwhash/argon2/argon2-fill-block-ref.c:230:13 ] ]
	rolq	$32, %r10
.Ltmp391:
	.loc	5 12 22                         # crypto_pwhash/argon2/blamka-round-ref.h:12:22 @[ crypto_pwhash/argon2/argon2-fill-block-ref.c:48:1154 @[ crypto_pwhash/argon2/argon2-fill-block-ref.c:230:13 ] ]
	imulq	%rcx, %rsi
.Ltmp392:
	.loc	3 48 1512                       # crypto_pwhash/argon2/argon2-fill-block-ref.c:48:1512 @[ crypto_pwhash/argon2/argon2-fill-block-ref.c:230:13 ]
	movq	-80(%rsp,%r8), %r13
.Ltmp393:
	#DEBUG_VALUE: fBlaMka:x <- $r13
	#DEBUG_VALUE: fBlaMka:y <- $r10
	#DEBUG_VALUE: fBlaMka:m <- 4294967295
	.loc	5 11 38                         # crypto_pwhash/argon2/blamka-round-ref.h:11:38 @[ crypto_pwhash/argon2/argon2-fill-block-ref.c:48:1504 @[ crypto_pwhash/argon2/argon2-fill-block-ref.c:230:13 ] ]
	movl	%r10d, %ecx
.Ltmp394:
	#DEBUG_VALUE: fBlaMka:xy <- undef
	.loc	5 12 14                         # crypto_pwhash/argon2/blamka-round-ref.h:12:14 @[ crypto_pwhash/argon2/argon2-fill-block-ref.c:48:1504 @[ crypto_pwhash/argon2/argon2-fill-block-ref.c:230:13 ] ]
	leaq	(%r10,%r13), %r11
	.loc	5 11 33                         # crypto_pwhash/argon2/blamka-round-ref.h:11:33 @[ crypto_pwhash/argon2/argon2-fill-block-ref.c:48:1504 @[ crypto_pwhash/argon2/argon2-fill-block-ref.c:230:13 ] ]
	addq	%r13, %r13
.Ltmp395:
	andq	%r9, %r13
	.loc	5 12 22                         # crypto_pwhash/argon2/blamka-round-ref.h:12:22 @[ crypto_pwhash/argon2/argon2-fill-block-ref.c:48:1504 @[ crypto_pwhash/argon2/argon2-fill-block-ref.c:230:13 ] ]
	imulq	%rcx, %r13
	.loc	5 12 18 is_stmt 0               # crypto_pwhash/argon2/blamka-round-ref.h:12:18 @[ crypto_pwhash/argon2/argon2-fill-block-ref.c:48:1504 @[ crypto_pwhash/argon2/argon2-fill-block-ref.c:230:13 ] ]
	addq	%r11, %r13
.Ltmp396:
	.loc	3 48 1610 is_stmt 1             # crypto_pwhash/argon2/argon2-fill-block-ref.c:48:1610 @[ crypto_pwhash/argon2/argon2-fill-block-ref.c:230:13 ]
	xorq	%r13, %r12
.Ltmp397:
	#DEBUG_VALUE: rotr64:x <- $r12
	#DEBUG_VALUE: rotr64:b <- 24
	.loc	6 58 21                         # ./include/sodium/private/common.h:58:21 @[ crypto_pwhash/argon2/argon2-fill-block-ref.c:48:1581 @[ crypto_pwhash/argon2/argon2-fill-block-ref.c:230:13 ] ]
	rolq	$40, %r12
.Ltmp398:
	#DEBUG_VALUE: fBlaMka:y <- $r12
	#DEBUG_VALUE: fBlaMka:x <- $rbx
	#DEBUG_VALUE: fBlaMka:m <- 4294967295
	.loc	5 11 38                         # crypto_pwhash/argon2/blamka-round-ref.h:11:38 @[ crypto_pwhash/argon2/argon2-fill-block-ref.c:48:1665 @[ crypto_pwhash/argon2/argon2-fill-block-ref.c:230:13 ] ]
	movl	%r12d, %ecx
.Ltmp399:
	#DEBUG_VALUE: fBlaMka:xy <- undef
	.loc	5 12 14                         # crypto_pwhash/argon2/blamka-round-ref.h:12:14 @[ crypto_pwhash/argon2/argon2-fill-block-ref.c:48:1665 @[ crypto_pwhash/argon2/argon2-fill-block-ref.c:230:13 ] ]
	leaq	(%r12,%rbx), %r11
	.loc	5 11 33                         # crypto_pwhash/argon2/blamka-round-ref.h:11:33 @[ crypto_pwhash/argon2/argon2-fill-block-ref.c:48:1665 @[ crypto_pwhash/argon2/argon2-fill-block-ref.c:230:13 ] ]
	addq	%rbx, %rbx
.Ltmp400:
	andq	%r9, %rbx
	.loc	5 12 22                         # crypto_pwhash/argon2/blamka-round-ref.h:12:22 @[ crypto_pwhash/argon2/argon2-fill-block-ref.c:48:1665 @[ crypto_pwhash/argon2/argon2-fill-block-ref.c:230:13 ] ]
	imulq	%rcx, %rbx
	.loc	5 12 18 is_stmt 0               # crypto_pwhash/argon2/blamka-round-ref.h:12:18 @[ crypto_pwhash/argon2/argon2-fill-block-ref.c:48:1665 @[ crypto_pwhash/argon2/argon2-fill-block-ref.c:230:13 ] ]
	addq	%r11, %rbx
.Ltmp401:
	.loc	3 48 1772 is_stmt 1             # crypto_pwhash/argon2/argon2-fill-block-ref.c:48:1772 @[ crypto_pwhash/argon2/argon2-fill-block-ref.c:230:13 ]
	xorq	%rbx, %r10
.Ltmp402:
	#DEBUG_VALUE: rotr64:x <- $r10
	#DEBUG_VALUE: rotr64:b <- 16
	.loc	6 58 21                         # ./include/sodium/private/common.h:58:21 @[ crypto_pwhash/argon2/argon2-fill-block-ref.c:48:1742 @[ crypto_pwhash/argon2/argon2-fill-block-ref.c:230:13 ] ]
	rolq	$48, %r10
.Ltmp403:
	#DEBUG_VALUE: fBlaMka:y <- $r10
	#DEBUG_VALUE: fBlaMka:x <- $r13
	#DEBUG_VALUE: fBlaMka:m <- 4294967295
	.loc	6 0 21 is_stmt 0                # ./include/sodium/private/common.h:0:21
	movq	%r10, 112(%rsp)                 # 8-byte Spill
.Ltmp404:
	#DEBUG_VALUE: fBlaMka:y <- [DW_OP_plus_uconst 112, DW_OP_deref] $rsp
	.loc	5 12 18 is_stmt 1               # crypto_pwhash/argon2/blamka-round-ref.h:12:18 @[ crypto_pwhash/argon2/argon2-fill-block-ref.c:48:1154 @[ crypto_pwhash/argon2/argon2-fill-block-ref.c:230:13 ] ]
	addq	%rax, %rsi
.Ltmp405:
	.loc	5 11 38                         # crypto_pwhash/argon2/blamka-round-ref.h:11:38 @[ crypto_pwhash/argon2/argon2-fill-block-ref.c:48:1827 @[ crypto_pwhash/argon2/argon2-fill-block-ref.c:230:13 ] ]
	movl	%r10d, %eax
.Ltmp406:
	#DEBUG_VALUE: fBlaMka:xy <- undef
	.loc	5 12 14                         # crypto_pwhash/argon2/blamka-round-ref.h:12:14 @[ crypto_pwhash/argon2/argon2-fill-block-ref.c:48:1827 @[ crypto_pwhash/argon2/argon2-fill-block-ref.c:230:13 ] ]
	leaq	(%r10,%r13), %rcx
	movq	%rcx, 88(%rsp)                  # 8-byte Spill
	.loc	5 11 33                         # crypto_pwhash/argon2/blamka-round-ref.h:11:33 @[ crypto_pwhash/argon2/argon2-fill-block-ref.c:48:1827 @[ crypto_pwhash/argon2/argon2-fill-block-ref.c:230:13 ] ]
	addq	%r13, %r13
.Ltmp407:
	movabsq	$8589934590, %rcx               # imm = 0x1FFFFFFFE
	andq	%rcx, %r13
	.loc	5 12 22                         # crypto_pwhash/argon2/blamka-round-ref.h:12:22 @[ crypto_pwhash/argon2/argon2-fill-block-ref.c:48:1827 @[ crypto_pwhash/argon2/argon2-fill-block-ref.c:230:13 ] ]
	imulq	%rax, %r13
.Ltmp408:
	#DEBUG_VALUE: rotr64:x <- undef
	#DEBUG_VALUE: rotr64:b <- 63
	.loc	3 48 2024                       # crypto_pwhash/argon2/argon2-fill-block-ref.c:48:2024 @[ crypto_pwhash/argon2/argon2-fill-block-ref.c:230:13 ]
	movq	-584(%rsp,%r8), %r11
	.loc	3 48 2046 is_stmt 0             # crypto_pwhash/argon2/argon2-fill-block-ref.c:48:2046 @[ crypto_pwhash/argon2/argon2-fill-block-ref.c:230:13 ]
	movq	-328(%rsp,%r8), %r15
.Ltmp409:
	#DEBUG_VALUE: fBlaMka:y <- $r15
	#DEBUG_VALUE: fBlaMka:x <- $r11
	#DEBUG_VALUE: fBlaMka:m <- 4294967295
	.loc	5 12 14 is_stmt 1               # crypto_pwhash/argon2/blamka-round-ref.h:12:14 @[ crypto_pwhash/argon2/argon2-fill-block-ref.c:48:2016 @[ crypto_pwhash/argon2/argon2-fill-block-ref.c:230:13 ] ]
	leaq	(%r15,%r11), %rax
	.loc	5 11 33                         # crypto_pwhash/argon2/blamka-round-ref.h:11:33 @[ crypto_pwhash/argon2/argon2-fill-block-ref.c:48:2016 @[ crypto_pwhash/argon2/argon2-fill-block-ref.c:230:13 ] ]
	addq	%r11, %r11
.Ltmp410:
	andq	%rcx, %r11
	.loc	5 11 38 is_stmt 0               # crypto_pwhash/argon2/blamka-round-ref.h:11:38 @[ crypto_pwhash/argon2/argon2-fill-block-ref.c:48:2016 @[ crypto_pwhash/argon2/argon2-fill-block-ref.c:230:13 ] ]
	movl	%r15d, %ecx
.Ltmp411:
	#DEBUG_VALUE: fBlaMka:xy <- undef
	.loc	5 12 22 is_stmt 1               # crypto_pwhash/argon2/blamka-round-ref.h:12:22 @[ crypto_pwhash/argon2/argon2-fill-block-ref.c:48:2016 @[ crypto_pwhash/argon2/argon2-fill-block-ref.c:230:13 ] ]
	imulq	%rcx, %r11
	.loc	5 12 18 is_stmt 0               # crypto_pwhash/argon2/blamka-round-ref.h:12:18 @[ crypto_pwhash/argon2/argon2-fill-block-ref.c:48:2016 @[ crypto_pwhash/argon2/argon2-fill-block-ref.c:230:13 ] ]
	addq	%rax, %r11
	movq	184(%rsp,%r8), %rcx
.Ltmp412:
	.loc	3 48 2123 is_stmt 1             # crypto_pwhash/argon2/argon2-fill-block-ref.c:48:2123 @[ crypto_pwhash/argon2/argon2-fill-block-ref.c:230:13 ]
	xorq	%r11, %rcx
.Ltmp413:
	#DEBUG_VALUE: rotr64:x <- undef
	#DEBUG_VALUE: rotr64:b <- 32
	.loc	6 58 21                         # ./include/sodium/private/common.h:58:21 @[ crypto_pwhash/argon2/argon2-fill-block-ref.c:48:2093 @[ crypto_pwhash/argon2/argon2-fill-block-ref.c:230:13 ] ]
	rolq	$32, %rcx
.Ltmp414:
	.loc	3 48 2186                       # crypto_pwhash/argon2/argon2-fill-block-ref.c:48:2186 @[ crypto_pwhash/argon2/argon2-fill-block-ref.c:230:13 ]
	movq	-72(%rsp,%r8), %rax
.Ltmp415:
	#DEBUG_VALUE: fBlaMka:x <- $rax
	#DEBUG_VALUE: fBlaMka:y <- $rcx
	#DEBUG_VALUE: fBlaMka:m <- 4294967295
	.loc	5 12 14                         # crypto_pwhash/argon2/blamka-round-ref.h:12:14 @[ crypto_pwhash/argon2/argon2-fill-block-ref.c:48:2178 @[ crypto_pwhash/argon2/argon2-fill-block-ref.c:230:13 ] ]
	leaq	(%rcx,%rax), %r9
	.loc	5 11 33                         # crypto_pwhash/argon2/blamka-round-ref.h:11:33 @[ crypto_pwhash/argon2/argon2-fill-block-ref.c:48:2178 @[ crypto_pwhash/argon2/argon2-fill-block-ref.c:230:13 ] ]
	addq	%rax, %rax
.Ltmp416:
	movabsq	$8589934590, %r10               # imm = 0x1FFFFFFFE
	andq	%r10, %rax
	.loc	5 11 38 is_stmt 0               # crypto_pwhash/argon2/blamka-round-ref.h:11:38 @[ crypto_pwhash/argon2/argon2-fill-block-ref.c:48:2178 @[ crypto_pwhash/argon2/argon2-fill-block-ref.c:230:13 ] ]
	movl	%ecx, %r10d
.Ltmp417:
	#DEBUG_VALUE: fBlaMka:xy <- undef
	.loc	5 12 22 is_stmt 1               # crypto_pwhash/argon2/blamka-round-ref.h:12:22 @[ crypto_pwhash/argon2/argon2-fill-block-ref.c:48:2178 @[ crypto_pwhash/argon2/argon2-fill-block-ref.c:230:13 ] ]
	imulq	%r10, %rax
	.loc	5 12 18 is_stmt 0               # crypto_pwhash/argon2/blamka-round-ref.h:12:18 @[ crypto_pwhash/argon2/argon2-fill-block-ref.c:48:2178 @[ crypto_pwhash/argon2/argon2-fill-block-ref.c:230:13 ] ]
	addq	%r9, %rax
.Ltmp418:
	.loc	3 48 2284 is_stmt 1             # crypto_pwhash/argon2/argon2-fill-block-ref.c:48:2284 @[ crypto_pwhash/argon2/argon2-fill-block-ref.c:230:13 ]
	xorq	%rax, %r15
.Ltmp419:
	#DEBUG_VALUE: rotr64:x <- $r15
	#DEBUG_VALUE: rotr64:b <- 24
	.loc	6 58 21                         # ./include/sodium/private/common.h:58:21 @[ crypto_pwhash/argon2/argon2-fill-block-ref.c:48:2255 @[ crypto_pwhash/argon2/argon2-fill-block-ref.c:230:13 ] ]
	rolq	$40, %r15
.Ltmp420:
	#DEBUG_VALUE: fBlaMka:y <- $r15
	#DEBUG_VALUE: fBlaMka:x <- $r11
	#DEBUG_VALUE: fBlaMka:m <- 4294967295
	.loc	5 12 18                         # crypto_pwhash/argon2/blamka-round-ref.h:12:18 @[ crypto_pwhash/argon2/argon2-fill-block-ref.c:48:1827 @[ crypto_pwhash/argon2/argon2-fill-block-ref.c:230:13 ] ]
	addq	88(%rsp), %r13                  # 8-byte Folded Reload
.Ltmp421:
	.loc	5 12 14 is_stmt 0               # crypto_pwhash/argon2/blamka-round-ref.h:12:14 @[ crypto_pwhash/argon2/argon2-fill-block-ref.c:48:2339 @[ crypto_pwhash/argon2/argon2-fill-block-ref.c:230:13 ] ]
	leaq	(%r15,%r11), %r9
	.loc	5 11 33 is_stmt 1               # crypto_pwhash/argon2/blamka-round-ref.h:11:33 @[ crypto_pwhash/argon2/argon2-fill-block-ref.c:48:2339 @[ crypto_pwhash/argon2/argon2-fill-block-ref.c:230:13 ] ]
	addq	%r11, %r11
.Ltmp422:
	movabsq	$8589934590, %r10               # imm = 0x1FFFFFFFE
	andq	%r10, %r11
	.loc	5 11 38 is_stmt 0               # crypto_pwhash/argon2/blamka-round-ref.h:11:38 @[ crypto_pwhash/argon2/argon2-fill-block-ref.c:48:2339 @[ crypto_pwhash/argon2/argon2-fill-block-ref.c:230:13 ] ]
	movl	%r15d, %r10d
.Ltmp423:
	#DEBUG_VALUE: fBlaMka:xy <- undef
	.loc	5 12 22 is_stmt 1               # crypto_pwhash/argon2/blamka-round-ref.h:12:22 @[ crypto_pwhash/argon2/argon2-fill-block-ref.c:48:2339 @[ crypto_pwhash/argon2/argon2-fill-block-ref.c:230:13 ] ]
	imulq	%r10, %r11
	.loc	5 12 18 is_stmt 0               # crypto_pwhash/argon2/blamka-round-ref.h:12:18 @[ crypto_pwhash/argon2/argon2-fill-block-ref.c:48:2339 @[ crypto_pwhash/argon2/argon2-fill-block-ref.c:230:13 ] ]
	addq	%r9, %r11
.Ltmp424:
	.loc	3 48 2446 is_stmt 1             # crypto_pwhash/argon2/argon2-fill-block-ref.c:48:2446 @[ crypto_pwhash/argon2/argon2-fill-block-ref.c:230:13 ]
	xorq	%r11, %rcx
.Ltmp425:
	#DEBUG_VALUE: rotr64:x <- $rcx
	#DEBUG_VALUE: rotr64:b <- 16
	.loc	6 58 21                         # ./include/sodium/private/common.h:58:21 @[ crypto_pwhash/argon2/argon2-fill-block-ref.c:48:2416 @[ crypto_pwhash/argon2/argon2-fill-block-ref.c:230:13 ] ]
	rolq	$48, %rcx
.Ltmp426:
	#DEBUG_VALUE: fBlaMka:y <- $rcx
	#DEBUG_VALUE: fBlaMka:x <- $rax
	#DEBUG_VALUE: fBlaMka:m <- 4294967295
	.loc	5 12 14                         # crypto_pwhash/argon2/blamka-round-ref.h:12:14 @[ crypto_pwhash/argon2/argon2-fill-block-ref.c:48:2501 @[ crypto_pwhash/argon2/argon2-fill-block-ref.c:230:13 ] ]
	leaq	(%rcx,%rax), %r9
	.loc	5 11 33                         # crypto_pwhash/argon2/blamka-round-ref.h:11:33 @[ crypto_pwhash/argon2/argon2-fill-block-ref.c:48:2501 @[ crypto_pwhash/argon2/argon2-fill-block-ref.c:230:13 ] ]
	addq	%rax, %rax
.Ltmp427:
	movabsq	$8589934590, %r10               # imm = 0x1FFFFFFFE
	andq	%r10, %rax
	.loc	5 11 38 is_stmt 0               # crypto_pwhash/argon2/blamka-round-ref.h:11:38 @[ crypto_pwhash/argon2/argon2-fill-block-ref.c:48:2501 @[ crypto_pwhash/argon2/argon2-fill-block-ref.c:230:13 ] ]
	movl	%ecx, %r10d
.Ltmp428:
	#DEBUG_VALUE: fBlaMka:xy <- undef
	.loc	5 12 22 is_stmt 1               # crypto_pwhash/argon2/blamka-round-ref.h:12:22 @[ crypto_pwhash/argon2/argon2-fill-block-ref.c:48:2501 @[ crypto_pwhash/argon2/argon2-fill-block-ref.c:230:13 ] ]
	imulq	%r10, %rax
	.loc	5 12 18 is_stmt 0               # crypto_pwhash/argon2/blamka-round-ref.h:12:18 @[ crypto_pwhash/argon2/argon2-fill-block-ref.c:48:2501 @[ crypto_pwhash/argon2/argon2-fill-block-ref.c:230:13 ] ]
	addq	%r9, %rax
.Ltmp429:
	#DEBUG_VALUE: rotr64:x <- undef
	#DEBUG_VALUE: rotr64:b <- 63
	#DEBUG_VALUE: fBlaMka:x <- $r14
	#DEBUG_VALUE: fBlaMka:y <- undef
	#DEBUG_VALUE: fBlaMka:m <- 4294967295
	.loc	3 48 1259 is_stmt 1             # crypto_pwhash/argon2/argon2-fill-block-ref.c:48:1259 @[ crypto_pwhash/argon2/argon2-fill-block-ref.c:230:13 ]
	xorq	%rsi, %rbp
.Ltmp430:
	#DEBUG_VALUE: rotr64:x <- $rbp
	.loc	6 58 21                         # ./include/sodium/private/common.h:58:21 @[ crypto_pwhash/argon2/argon2-fill-block-ref.c:48:1230 @[ crypto_pwhash/argon2/argon2-fill-block-ref.c:230:13 ] ]
	rolq	%rbp
.Ltmp431:
	#DEBUG_VALUE: fBlaMka:y <- $rbp
	.loc	5 12 14                         # crypto_pwhash/argon2/blamka-round-ref.h:12:14 @[ crypto_pwhash/argon2/argon2-fill-block-ref.c:48:2685 @[ crypto_pwhash/argon2/argon2-fill-block-ref.c:230:13 ] ]
	leaq	(%r14,%rbp), %r9
	.loc	5 11 33                         # crypto_pwhash/argon2/blamka-round-ref.h:11:33 @[ crypto_pwhash/argon2/argon2-fill-block-ref.c:48:2685 @[ crypto_pwhash/argon2/argon2-fill-block-ref.c:230:13 ] ]
	addq	%r14, %r14
.Ltmp432:
	movabsq	$8589934590, %r10               # imm = 0x1FFFFFFFE
	andq	%r10, %r14
	.loc	5 11 38 is_stmt 0               # crypto_pwhash/argon2/blamka-round-ref.h:11:38 @[ crypto_pwhash/argon2/argon2-fill-block-ref.c:48:2685 @[ crypto_pwhash/argon2/argon2-fill-block-ref.c:230:13 ] ]
	movl	%ebp, %r10d
.Ltmp433:
	#DEBUG_VALUE: fBlaMka:xy <- undef
	.loc	5 12 22 is_stmt 1               # crypto_pwhash/argon2/blamka-round-ref.h:12:22 @[ crypto_pwhash/argon2/argon2-fill-block-ref.c:48:2685 @[ crypto_pwhash/argon2/argon2-fill-block-ref.c:230:13 ] ]
	imulq	%r10, %r14
	.loc	5 12 18 is_stmt 0               # crypto_pwhash/argon2/blamka-round-ref.h:12:18 @[ crypto_pwhash/argon2/argon2-fill-block-ref.c:48:2685 @[ crypto_pwhash/argon2/argon2-fill-block-ref.c:230:13 ] ]
	addq	%r9, %r14
.Ltmp434:
	.loc	3 48 2787 is_stmt 1             # crypto_pwhash/argon2/argon2-fill-block-ref.c:48:2787 @[ crypto_pwhash/argon2/argon2-fill-block-ref.c:230:13 ]
	xorq	%r14, %rcx
.Ltmp435:
	#DEBUG_VALUE: rotr64:x <- $rcx
	#DEBUG_VALUE: rotr64:b <- 32
	.loc	6 58 21                         # ./include/sodium/private/common.h:58:21 @[ crypto_pwhash/argon2/argon2-fill-block-ref.c:48:2757 @[ crypto_pwhash/argon2/argon2-fill-block-ref.c:230:13 ] ]
	rolq	$32, %rcx
.Ltmp436:
	#DEBUG_VALUE: fBlaMka:y <- $rcx
	#DEBUG_VALUE: fBlaMka:x <- $r13
	#DEBUG_VALUE: fBlaMka:m <- 4294967295
	.loc	3 48 1933                       # crypto_pwhash/argon2/argon2-fill-block-ref.c:48:1933 @[ crypto_pwhash/argon2/argon2-fill-block-ref.c:230:13 ]
	xorq	%r13, %r12
.Ltmp437:
	#DEBUG_VALUE: rotr64:x <- $r12
	.loc	5 12 14                         # crypto_pwhash/argon2/blamka-round-ref.h:12:14 @[ crypto_pwhash/argon2/argon2-fill-block-ref.c:48:2837 @[ crypto_pwhash/argon2/argon2-fill-block-ref.c:230:13 ] ]
	leaq	(%rcx,%r13), %r9
	.loc	5 11 33                         # crypto_pwhash/argon2/blamka-round-ref.h:11:33 @[ crypto_pwhash/argon2/argon2-fill-block-ref.c:48:2837 @[ crypto_pwhash/argon2/argon2-fill-block-ref.c:230:13 ] ]
	addq	%r13, %r13
.Ltmp438:
	movabsq	$8589934590, %r10               # imm = 0x1FFFFFFFE
	andq	%r10, %r13
	.loc	5 11 38 is_stmt 0               # crypto_pwhash/argon2/blamka-round-ref.h:11:38 @[ crypto_pwhash/argon2/argon2-fill-block-ref.c:48:2837 @[ crypto_pwhash/argon2/argon2-fill-block-ref.c:230:13 ] ]
	movl	%ecx, %r10d
.Ltmp439:
	#DEBUG_VALUE: fBlaMka:xy <- undef
	.loc	5 12 22 is_stmt 1               # crypto_pwhash/argon2/blamka-round-ref.h:12:22 @[ crypto_pwhash/argon2/argon2-fill-block-ref.c:48:2837 @[ crypto_pwhash/argon2/argon2-fill-block-ref.c:230:13 ] ]
	imulq	%r10, %r13
	.loc	5 12 18 is_stmt 0               # crypto_pwhash/argon2/blamka-round-ref.h:12:18 @[ crypto_pwhash/argon2/argon2-fill-block-ref.c:48:2837 @[ crypto_pwhash/argon2/argon2-fill-block-ref.c:230:13 ] ]
	addq	%r9, %r13
.Ltmp440:
	.loc	3 48 2943 is_stmt 1             # crypto_pwhash/argon2/argon2-fill-block-ref.c:48:2943 @[ crypto_pwhash/argon2/argon2-fill-block-ref.c:230:13 ]
	xorq	%r13, %rbp
.Ltmp441:
	#DEBUG_VALUE: rotr64:x <- $rbp
	#DEBUG_VALUE: rotr64:b <- 24
	.loc	6 58 21                         # ./include/sodium/private/common.h:58:21 @[ crypto_pwhash/argon2/argon2-fill-block-ref.c:48:2914 @[ crypto_pwhash/argon2/argon2-fill-block-ref.c:230:13 ] ]
	rolq	$40, %rbp
.Ltmp442:
	#DEBUG_VALUE: fBlaMka:y <- $rbp
	#DEBUG_VALUE: fBlaMka:x <- $r14
	#DEBUG_VALUE: fBlaMka:m <- 4294967295
	.loc	5 12 14                         # crypto_pwhash/argon2/blamka-round-ref.h:12:14 @[ crypto_pwhash/argon2/argon2-fill-block-ref.c:48:2993 @[ crypto_pwhash/argon2/argon2-fill-block-ref.c:230:13 ] ]
	leaq	(%r14,%rbp), %r9
	.loc	5 11 33                         # crypto_pwhash/argon2/blamka-round-ref.h:11:33 @[ crypto_pwhash/argon2/argon2-fill-block-ref.c:48:2993 @[ crypto_pwhash/argon2/argon2-fill-block-ref.c:230:13 ] ]
	addq	%r14, %r14
.Ltmp443:
	movabsq	$8589934590, %r10               # imm = 0x1FFFFFFFE
	andq	%r10, %r14
	.loc	5 11 38 is_stmt 0               # crypto_pwhash/argon2/blamka-round-ref.h:11:38 @[ crypto_pwhash/argon2/argon2-fill-block-ref.c:48:2993 @[ crypto_pwhash/argon2/argon2-fill-block-ref.c:230:13 ] ]
	movl	%ebp, %r10d
.Ltmp444:
	#DEBUG_VALUE: fBlaMka:xy <- undef
	.loc	5 12 22 is_stmt 1               # crypto_pwhash/argon2/blamka-round-ref.h:12:22 @[ crypto_pwhash/argon2/argon2-fill-block-ref.c:48:2993 @[ crypto_pwhash/argon2/argon2-fill-block-ref.c:230:13 ] ]
	imulq	%r10, %r14
	.loc	5 12 18 is_stmt 0               # crypto_pwhash/argon2/blamka-round-ref.h:12:18 @[ crypto_pwhash/argon2/argon2-fill-block-ref.c:48:2993 @[ crypto_pwhash/argon2/argon2-fill-block-ref.c:230:13 ] ]
	addq	%r9, %r14
.Ltmp445:
	.loc	3 48 2991 is_stmt 1             # crypto_pwhash/argon2/argon2-fill-block-ref.c:48:2991 @[ crypto_pwhash/argon2/argon2-fill-block-ref.c:230:13 ]
	movq	%r14, -720(%rsp,%r8)
	.loc	3 48 3095 is_stmt 0             # crypto_pwhash/argon2/argon2-fill-block-ref.c:48:3095 @[ crypto_pwhash/argon2/argon2-fill-block-ref.c:230:13 ]
	xorq	%rcx, %r14
.Ltmp446:
	#DEBUG_VALUE: rotr64:x <- $r14
	#DEBUG_VALUE: rotr64:b <- 16
	.loc	6 58 21 is_stmt 1               # ./include/sodium/private/common.h:58:21 @[ crypto_pwhash/argon2/argon2-fill-block-ref.c:48:3065 @[ crypto_pwhash/argon2/argon2-fill-block-ref.c:230:13 ] ]
	rolq	$48, %r14
.Ltmp447:
	.loc	3 48 3063                       # crypto_pwhash/argon2/argon2-fill-block-ref.c:48:3063 @[ crypto_pwhash/argon2/argon2-fill-block-ref.c:230:13 ]
	movq	%r14, 184(%rsp,%r8)
.Ltmp448:
	#DEBUG_VALUE: fBlaMka:x <- $r13
	#DEBUG_VALUE: fBlaMka:y <- $r14
	#DEBUG_VALUE: fBlaMka:m <- 4294967295
	.loc	5 11 38                         # crypto_pwhash/argon2/blamka-round-ref.h:11:38 @[ crypto_pwhash/argon2/argon2-fill-block-ref.c:48:3145 @[ crypto_pwhash/argon2/argon2-fill-block-ref.c:230:13 ] ]
	movl	%r14d, %ecx
.Ltmp449:
	#DEBUG_VALUE: fBlaMka:xy <- undef
	.loc	5 12 14                         # crypto_pwhash/argon2/blamka-round-ref.h:12:14 @[ crypto_pwhash/argon2/argon2-fill-block-ref.c:48:3145 @[ crypto_pwhash/argon2/argon2-fill-block-ref.c:230:13 ] ]
	addq	%r13, %r14
.Ltmp450:
	.loc	5 11 33                         # crypto_pwhash/argon2/blamka-round-ref.h:11:33 @[ crypto_pwhash/argon2/argon2-fill-block-ref.c:48:3145 @[ crypto_pwhash/argon2/argon2-fill-block-ref.c:230:13 ] ]
	addq	%r13, %r13
.Ltmp451:
	movabsq	$8589934590, %r9                # imm = 0x1FFFFFFFE
	andq	%r9, %r13
	.loc	5 12 22                         # crypto_pwhash/argon2/blamka-round-ref.h:12:22 @[ crypto_pwhash/argon2/argon2-fill-block-ref.c:48:3145 @[ crypto_pwhash/argon2/argon2-fill-block-ref.c:230:13 ] ]
	imulq	%rcx, %r13
.Ltmp452:
	.loc	6 58 21                         # ./include/sodium/private/common.h:58:21 @[ crypto_pwhash/argon2/argon2-fill-block-ref.c:48:1904 @[ crypto_pwhash/argon2/argon2-fill-block-ref.c:230:13 ] ]
	rolq	%r12
.Ltmp453:
	.loc	5 12 18                         # crypto_pwhash/argon2/blamka-round-ref.h:12:18 @[ crypto_pwhash/argon2/argon2-fill-block-ref.c:48:3145 @[ crypto_pwhash/argon2/argon2-fill-block-ref.c:230:13 ] ]
	addq	%r14, %r13
.Ltmp454:
	#DEBUG_VALUE: rotr64:x <- undef
	#DEBUG_VALUE: rotr64:b <- 63
	#DEBUG_VALUE: fBlaMka:x <- $rdi
	#DEBUG_VALUE: fBlaMka:y <- $r12
	#DEBUG_VALUE: fBlaMka:m <- 4294967295
	.loc	5 12 14 is_stmt 0               # crypto_pwhash/argon2/blamka-round-ref.h:12:14 @[ crypto_pwhash/argon2/argon2-fill-block-ref.c:48:3333 @[ crypto_pwhash/argon2/argon2-fill-block-ref.c:230:13 ] ]
	leaq	(%r12,%rdi), %rcx
	.loc	5 11 33 is_stmt 1               # crypto_pwhash/argon2/blamka-round-ref.h:11:33 @[ crypto_pwhash/argon2/argon2-fill-block-ref.c:48:3333 @[ crypto_pwhash/argon2/argon2-fill-block-ref.c:230:13 ] ]
	addq	%rdi, %rdi
.Ltmp455:
	andq	%r9, %rdi
	.loc	5 11 38 is_stmt 0               # crypto_pwhash/argon2/blamka-round-ref.h:11:38 @[ crypto_pwhash/argon2/argon2-fill-block-ref.c:48:3333 @[ crypto_pwhash/argon2/argon2-fill-block-ref.c:230:13 ] ]
	movl	%r12d, %r9d
.Ltmp456:
	#DEBUG_VALUE: fBlaMka:xy <- undef
	.loc	5 12 22 is_stmt 1               # crypto_pwhash/argon2/blamka-round-ref.h:12:22 @[ crypto_pwhash/argon2/argon2-fill-block-ref.c:48:3333 @[ crypto_pwhash/argon2/argon2-fill-block-ref.c:230:13 ] ]
	imulq	%r9, %rdi
.Ltmp457:
	.loc	3 48 2607                       # crypto_pwhash/argon2/argon2-fill-block-ref.c:48:2607 @[ crypto_pwhash/argon2/argon2-fill-block-ref.c:230:13 ]
	xorq	%rax, %r15
.Ltmp458:
	#DEBUG_VALUE: rotr64:x <- $r15
	.loc	3 48 3143 is_stmt 0             # crypto_pwhash/argon2/argon2-fill-block-ref.c:48:3143 @[ crypto_pwhash/argon2/argon2-fill-block-ref.c:230:13 ]
	movq	%r13, -80(%rsp,%r8)
.Ltmp459:
	.loc	5 12 18 is_stmt 1               # crypto_pwhash/argon2/blamka-round-ref.h:12:18 @[ crypto_pwhash/argon2/argon2-fill-block-ref.c:48:3333 @[ crypto_pwhash/argon2/argon2-fill-block-ref.c:230:13 ] ]
	addq	%rcx, %rdi
	movq	96(%rsp), %r10                  # 8-byte Reload
.Ltmp460:
	.loc	3 48 3437                       # crypto_pwhash/argon2/argon2-fill-block-ref.c:48:3437 @[ crypto_pwhash/argon2/argon2-fill-block-ref.c:230:13 ]
	xorq	%rdi, %r10
.Ltmp461:
	#DEBUG_VALUE: rotr64:x <- $r10
	#DEBUG_VALUE: rotr64:b <- 32
	.loc	6 58 21                         # ./include/sodium/private/common.h:58:21 @[ crypto_pwhash/argon2/argon2-fill-block-ref.c:48:3408 @[ crypto_pwhash/argon2/argon2-fill-block-ref.c:230:13 ] ]
	rolq	$32, %r10
.Ltmp462:
	#DEBUG_VALUE: fBlaMka:y <- $r10
	#DEBUG_VALUE: fBlaMka:x <- $rax
	#DEBUG_VALUE: fBlaMka:m <- 4294967295
	.loc	3 48 3251                       # crypto_pwhash/argon2/argon2-fill-block-ref.c:48:3251 @[ crypto_pwhash/argon2/argon2-fill-block-ref.c:230:13 ]
	xorq	%rbp, %r13
.Ltmp463:
	#DEBUG_VALUE: rotr64:x <- $r13
	.loc	5 11 38                         # crypto_pwhash/argon2/blamka-round-ref.h:11:38 @[ crypto_pwhash/argon2/argon2-fill-block-ref.c:48:3491 @[ crypto_pwhash/argon2/argon2-fill-block-ref.c:230:13 ] ]
	movl	%r10d, %ecx
.Ltmp464:
	#DEBUG_VALUE: fBlaMka:xy <- undef
	.loc	5 12 14                         # crypto_pwhash/argon2/blamka-round-ref.h:12:14 @[ crypto_pwhash/argon2/argon2-fill-block-ref.c:48:3491 @[ crypto_pwhash/argon2/argon2-fill-block-ref.c:230:13 ] ]
	leaq	(%r10,%rax), %r9
	movq	%r10, %r14
.Ltmp465:
	#DEBUG_VALUE: fBlaMka:y <- $r14
	.loc	5 11 33                         # crypto_pwhash/argon2/blamka-round-ref.h:11:33 @[ crypto_pwhash/argon2/argon2-fill-block-ref.c:48:3491 @[ crypto_pwhash/argon2/argon2-fill-block-ref.c:230:13 ] ]
	addq	%rax, %rax
.Ltmp466:
	movabsq	$8589934590, %r10               # imm = 0x1FFFFFFFE
	andq	%r10, %rax
	.loc	5 12 22                         # crypto_pwhash/argon2/blamka-round-ref.h:12:22 @[ crypto_pwhash/argon2/argon2-fill-block-ref.c:48:3491 @[ crypto_pwhash/argon2/argon2-fill-block-ref.c:230:13 ] ]
	imulq	%rcx, %rax
.Ltmp467:
	.loc	6 58 21                         # ./include/sodium/private/common.h:58:21 @[ crypto_pwhash/argon2/argon2-fill-block-ref.c:48:3222 @[ crypto_pwhash/argon2/argon2-fill-block-ref.c:230:13 ] ]
	rolq	%r13
.Ltmp468:
	.loc	5 12 18                         # crypto_pwhash/argon2/blamka-round-ref.h:12:18 @[ crypto_pwhash/argon2/argon2-fill-block-ref.c:48:3491 @[ crypto_pwhash/argon2/argon2-fill-block-ref.c:230:13 ] ]
	addq	%r9, %rax
.Ltmp469:
	.loc	3 48 3596                       # crypto_pwhash/argon2/argon2-fill-block-ref.c:48:3596 @[ crypto_pwhash/argon2/argon2-fill-block-ref.c:230:13 ]
	xorq	%rax, %r12
.Ltmp470:
	#DEBUG_VALUE: rotr64:x <- $r12
	#DEBUG_VALUE: rotr64:b <- 24
	.loc	6 58 21                         # ./include/sodium/private/common.h:58:21 @[ crypto_pwhash/argon2/argon2-fill-block-ref.c:48:3567 @[ crypto_pwhash/argon2/argon2-fill-block-ref.c:230:13 ] ]
	rolq	$40, %r12
.Ltmp471:
	#DEBUG_VALUE: fBlaMka:y <- $r12
	#DEBUG_VALUE: fBlaMka:x <- $rdi
	#DEBUG_VALUE: fBlaMka:m <- 4294967295
	.loc	3 48 3220                       # crypto_pwhash/argon2/argon2-fill-block-ref.c:48:3220 @[ crypto_pwhash/argon2/argon2-fill-block-ref.c:230:13 ]
	movq	%r13, -456(%rsp,%r8)
.Ltmp472:
	.loc	5 11 38                         # crypto_pwhash/argon2/blamka-round-ref.h:11:38 @[ crypto_pwhash/argon2/argon2-fill-block-ref.c:48:3650 @[ crypto_pwhash/argon2/argon2-fill-block-ref.c:230:13 ] ]
	movl	%r12d, %ecx
.Ltmp473:
	#DEBUG_VALUE: fBlaMka:xy <- undef
	.loc	5 12 14                         # crypto_pwhash/argon2/blamka-round-ref.h:12:14 @[ crypto_pwhash/argon2/argon2-fill-block-ref.c:48:3650 @[ crypto_pwhash/argon2/argon2-fill-block-ref.c:230:13 ] ]
	leaq	(%r12,%rdi), %r9
	.loc	5 11 33                         # crypto_pwhash/argon2/blamka-round-ref.h:11:33 @[ crypto_pwhash/argon2/argon2-fill-block-ref.c:48:3650 @[ crypto_pwhash/argon2/argon2-fill-block-ref.c:230:13 ] ]
	addq	%rdi, %rdi
.Ltmp474:
	andq	%r10, %rdi
	.loc	5 12 22                         # crypto_pwhash/argon2/blamka-round-ref.h:12:22 @[ crypto_pwhash/argon2/argon2-fill-block-ref.c:48:3650 @[ crypto_pwhash/argon2/argon2-fill-block-ref.c:230:13 ] ]
	imulq	%rcx, %rdi
	.loc	5 12 18 is_stmt 0               # crypto_pwhash/argon2/blamka-round-ref.h:12:18 @[ crypto_pwhash/argon2/argon2-fill-block-ref.c:48:3650 @[ crypto_pwhash/argon2/argon2-fill-block-ref.c:230:13 ] ]
	addq	%r9, %rdi
.Ltmp475:
	.loc	3 48 3648 is_stmt 1             # crypto_pwhash/argon2/argon2-fill-block-ref.c:48:3648 @[ crypto_pwhash/argon2/argon2-fill-block-ref.c:230:13 ]
	movq	%rdi, -712(%rsp,%r8)
	.loc	3 48 3754 is_stmt 0             # crypto_pwhash/argon2/argon2-fill-block-ref.c:48:3754 @[ crypto_pwhash/argon2/argon2-fill-block-ref.c:230:13 ]
	xorq	%r14, %rdi
.Ltmp476:
	#DEBUG_VALUE: rotr64:x <- $rdi
	#DEBUG_VALUE: rotr64:b <- 16
	.loc	6 58 21 is_stmt 1               # ./include/sodium/private/common.h:58:21 @[ crypto_pwhash/argon2/argon2-fill-block-ref.c:48:3725 @[ crypto_pwhash/argon2/argon2-fill-block-ref.c:230:13 ] ]
	rolq	$48, %rdi
.Ltmp477:
	.loc	3 48 3723                       # crypto_pwhash/argon2/argon2-fill-block-ref.c:48:3723 @[ crypto_pwhash/argon2/argon2-fill-block-ref.c:230:13 ]
	movq	%rdi, 48(%rsp,%r8)
.Ltmp478:
	#DEBUG_VALUE: fBlaMka:x <- $rax
	#DEBUG_VALUE: fBlaMka:y <- $rdi
	#DEBUG_VALUE: fBlaMka:m <- 4294967295
	.loc	5 11 38                         # crypto_pwhash/argon2/blamka-round-ref.h:11:38 @[ crypto_pwhash/argon2/argon2-fill-block-ref.c:48:3808 @[ crypto_pwhash/argon2/argon2-fill-block-ref.c:230:13 ] ]
	movl	%edi, %ecx
.Ltmp479:
	#DEBUG_VALUE: fBlaMka:xy <- undef
	.loc	5 12 14                         # crypto_pwhash/argon2/blamka-round-ref.h:12:14 @[ crypto_pwhash/argon2/argon2-fill-block-ref.c:48:3808 @[ crypto_pwhash/argon2/argon2-fill-block-ref.c:230:13 ] ]
	addq	%rax, %rdi
.Ltmp480:
	.loc	5 11 33                         # crypto_pwhash/argon2/blamka-round-ref.h:11:33 @[ crypto_pwhash/argon2/argon2-fill-block-ref.c:48:3808 @[ crypto_pwhash/argon2/argon2-fill-block-ref.c:230:13 ] ]
	addq	%rax, %rax
.Ltmp481:
	movabsq	$8589934590, %r9                # imm = 0x1FFFFFFFE
	andq	%r9, %rax
	.loc	5 12 22                         # crypto_pwhash/argon2/blamka-round-ref.h:12:22 @[ crypto_pwhash/argon2/argon2-fill-block-ref.c:48:3808 @[ crypto_pwhash/argon2/argon2-fill-block-ref.c:230:13 ] ]
	imulq	%rcx, %rax
	.loc	5 12 18 is_stmt 0               # crypto_pwhash/argon2/blamka-round-ref.h:12:18 @[ crypto_pwhash/argon2/argon2-fill-block-ref.c:48:3808 @[ crypto_pwhash/argon2/argon2-fill-block-ref.c:230:13 ] ]
	addq	%rdi, %rax
.Ltmp482:
	.loc	6 58 21 is_stmt 1               # ./include/sodium/private/common.h:58:21 @[ crypto_pwhash/argon2/argon2-fill-block-ref.c:48:2578 @[ crypto_pwhash/argon2/argon2-fill-block-ref.c:230:13 ] ]
	rolq	%r15
.Ltmp483:
	.loc	3 48 3806                       # crypto_pwhash/argon2/argon2-fill-block-ref.c:48:3806 @[ crypto_pwhash/argon2/argon2-fill-block-ref.c:230:13 ]
	movq	%rax, -72(%rsp,%r8)
	.loc	3 48 3913 is_stmt 0             # crypto_pwhash/argon2/argon2-fill-block-ref.c:48:3913 @[ crypto_pwhash/argon2/argon2-fill-block-ref.c:230:13 ]
	xorq	%r12, %rax
.Ltmp484:
	#DEBUG_VALUE: rotr64:x <- $rax
	#DEBUG_VALUE: rotr64:b <- 63
	.loc	6 58 21 is_stmt 1               # ./include/sodium/private/common.h:58:21 @[ crypto_pwhash/argon2/argon2-fill-block-ref.c:48:3884 @[ crypto_pwhash/argon2/argon2-fill-block-ref.c:230:13 ] ]
	rolq	%rax
.Ltmp485:
	.loc	6 0 21 is_stmt 0                # ./include/sodium/private/common.h:0:21
	movq	120(%rsp), %r9                  # 8-byte Reload
.Ltmp486:
	.loc	3 48 597 is_stmt 1              # crypto_pwhash/argon2/argon2-fill-block-ref.c:48:597 @[ crypto_pwhash/argon2/argon2-fill-block-ref.c:230:13 ]
	xorq	%rdx, %r9
.Ltmp487:
	#DEBUG_VALUE: rotr64:x <- $r9
	.loc	3 48 3882 is_stmt 0             # crypto_pwhash/argon2/argon2-fill-block-ref.c:48:3882 @[ crypto_pwhash/argon2/argon2-fill-block-ref.c:230:13 ]
	movq	%rax, -336(%rsp,%r8)
.Ltmp488:
	#DEBUG_VALUE: fBlaMka:x <- $rbx
	#DEBUG_VALUE: fBlaMka:y <- $r15
	#DEBUG_VALUE: fBlaMka:m <- 4294967295
	.loc	5 11 38 is_stmt 1               # crypto_pwhash/argon2/blamka-round-ref.h:11:38 @[ crypto_pwhash/argon2/argon2-fill-block-ref.c:48:3996 @[ crypto_pwhash/argon2/argon2-fill-block-ref.c:230:13 ] ]
	movl	%r15d, %eax
.Ltmp489:
	#DEBUG_VALUE: fBlaMka:xy <- undef
	.loc	5 12 14                         # crypto_pwhash/argon2/blamka-round-ref.h:12:14 @[ crypto_pwhash/argon2/argon2-fill-block-ref.c:48:3996 @[ crypto_pwhash/argon2/argon2-fill-block-ref.c:230:13 ] ]
	leaq	(%r15,%rbx), %rcx
	.loc	5 11 33                         # crypto_pwhash/argon2/blamka-round-ref.h:11:33 @[ crypto_pwhash/argon2/argon2-fill-block-ref.c:48:3996 @[ crypto_pwhash/argon2/argon2-fill-block-ref.c:230:13 ] ]
	addq	%rbx, %rbx
.Ltmp490:
	movabsq	$8589934590, %rdi               # imm = 0x1FFFFFFFE
	andq	%rdi, %rbx
	.loc	5 12 22                         # crypto_pwhash/argon2/blamka-round-ref.h:12:22 @[ crypto_pwhash/argon2/argon2-fill-block-ref.c:48:3996 @[ crypto_pwhash/argon2/argon2-fill-block-ref.c:230:13 ] ]
	imulq	%rax, %rbx
	.loc	5 12 18 is_stmt 0               # crypto_pwhash/argon2/blamka-round-ref.h:12:18 @[ crypto_pwhash/argon2/argon2-fill-block-ref.c:48:3996 @[ crypto_pwhash/argon2/argon2-fill-block-ref.c:230:13 ] ]
	addq	%rcx, %rbx
	movq	104(%rsp), %rdi                 # 8-byte Reload
.Ltmp491:
	.loc	3 48 4101 is_stmt 1             # crypto_pwhash/argon2/argon2-fill-block-ref.c:48:4101 @[ crypto_pwhash/argon2/argon2-fill-block-ref.c:230:13 ]
	xorq	%rbx, %rdi
.Ltmp492:
	#DEBUG_VALUE: rotr64:x <- $rdi
	#DEBUG_VALUE: rotr64:b <- 32
	.loc	6 58 21                         # ./include/sodium/private/common.h:58:21 @[ crypto_pwhash/argon2/argon2-fill-block-ref.c:48:4072 @[ crypto_pwhash/argon2/argon2-fill-block-ref.c:230:13 ] ]
	rolq	$32, %rdi
.Ltmp493:
	#DEBUG_VALUE: fBlaMka:y <- $rdi
	#DEBUG_VALUE: fBlaMka:x <- $rdx
	#DEBUG_VALUE: fBlaMka:m <- 4294967295
	.loc	5 11 38                         # crypto_pwhash/argon2/blamka-round-ref.h:11:38 @[ crypto_pwhash/argon2/argon2-fill-block-ref.c:48:4156 @[ crypto_pwhash/argon2/argon2-fill-block-ref.c:230:13 ] ]
	movl	%edi, %eax
.Ltmp494:
	#DEBUG_VALUE: fBlaMka:xy <- undef
	.loc	5 12 14                         # crypto_pwhash/argon2/blamka-round-ref.h:12:14 @[ crypto_pwhash/argon2/argon2-fill-block-ref.c:48:4156 @[ crypto_pwhash/argon2/argon2-fill-block-ref.c:230:13 ] ]
	leaq	(%rdi,%rdx), %rcx
	movq	%rdi, %r10
	.loc	5 11 33                         # crypto_pwhash/argon2/blamka-round-ref.h:11:33 @[ crypto_pwhash/argon2/argon2-fill-block-ref.c:48:4156 @[ crypto_pwhash/argon2/argon2-fill-block-ref.c:230:13 ] ]
	addq	%rdx, %rdx
.Ltmp495:
	movabsq	$8589934590, %rdi               # imm = 0x1FFFFFFFE
.Ltmp496:
	#DEBUG_VALUE: fBlaMka:y <- $r10
	andq	%rdi, %rdx
	.loc	5 12 22                         # crypto_pwhash/argon2/blamka-round-ref.h:12:22 @[ crypto_pwhash/argon2/argon2-fill-block-ref.c:48:4156 @[ crypto_pwhash/argon2/argon2-fill-block-ref.c:230:13 ] ]
	imulq	%rax, %rdx
	.loc	5 12 18 is_stmt 0               # crypto_pwhash/argon2/blamka-round-ref.h:12:18 @[ crypto_pwhash/argon2/argon2-fill-block-ref.c:48:4156 @[ crypto_pwhash/argon2/argon2-fill-block-ref.c:230:13 ] ]
	addq	%rcx, %rdx
.Ltmp497:
	.loc	3 48 4261 is_stmt 1             # crypto_pwhash/argon2/argon2-fill-block-ref.c:48:4261 @[ crypto_pwhash/argon2/argon2-fill-block-ref.c:230:13 ]
	xorq	%rdx, %r15
.Ltmp498:
	#DEBUG_VALUE: rotr64:x <- $r15
	#DEBUG_VALUE: rotr64:b <- 24
	.loc	6 58 21                         # ./include/sodium/private/common.h:58:21 @[ crypto_pwhash/argon2/argon2-fill-block-ref.c:48:4232 @[ crypto_pwhash/argon2/argon2-fill-block-ref.c:230:13 ] ]
	rolq	$40, %r15
.Ltmp499:
	#DEBUG_VALUE: fBlaMka:y <- $r15
	#DEBUG_VALUE: fBlaMka:x <- $rbx
	#DEBUG_VALUE: fBlaMka:m <- 4294967295
	.loc	5 11 38                         # crypto_pwhash/argon2/blamka-round-ref.h:11:38 @[ crypto_pwhash/argon2/argon2-fill-block-ref.c:48:4316 @[ crypto_pwhash/argon2/argon2-fill-block-ref.c:230:13 ] ]
	movl	%r15d, %eax
.Ltmp500:
	#DEBUG_VALUE: fBlaMka:xy <- undef
	.loc	5 12 14                         # crypto_pwhash/argon2/blamka-round-ref.h:12:14 @[ crypto_pwhash/argon2/argon2-fill-block-ref.c:48:4316 @[ crypto_pwhash/argon2/argon2-fill-block-ref.c:230:13 ] ]
	leaq	(%r15,%rbx), %rcx
	.loc	5 11 33                         # crypto_pwhash/argon2/blamka-round-ref.h:11:33 @[ crypto_pwhash/argon2/argon2-fill-block-ref.c:48:4316 @[ crypto_pwhash/argon2/argon2-fill-block-ref.c:230:13 ] ]
	addq	%rbx, %rbx
.Ltmp501:
	andq	%rdi, %rbx
	.loc	5 12 22                         # crypto_pwhash/argon2/blamka-round-ref.h:12:22 @[ crypto_pwhash/argon2/argon2-fill-block-ref.c:48:4316 @[ crypto_pwhash/argon2/argon2-fill-block-ref.c:230:13 ] ]
	imulq	%rax, %rbx
	.loc	5 12 18 is_stmt 0               # crypto_pwhash/argon2/blamka-round-ref.h:12:18 @[ crypto_pwhash/argon2/argon2-fill-block-ref.c:48:4316 @[ crypto_pwhash/argon2/argon2-fill-block-ref.c:230:13 ] ]
	addq	%rcx, %rbx
.Ltmp502:
	.loc	3 48 4314 is_stmt 1             # crypto_pwhash/argon2/argon2-fill-block-ref.c:48:4314 @[ crypto_pwhash/argon2/argon2-fill-block-ref.c:230:13 ]
	movq	%rbx, -592(%rsp,%r8)
	.loc	3 48 4421 is_stmt 0             # crypto_pwhash/argon2/argon2-fill-block-ref.c:48:4421 @[ crypto_pwhash/argon2/argon2-fill-block-ref.c:230:13 ]
	xorq	%r10, %rbx
.Ltmp503:
	#DEBUG_VALUE: rotr64:x <- $rbx
	#DEBUG_VALUE: rotr64:b <- 16
	.loc	6 58 21 is_stmt 1               # ./include/sodium/private/common.h:58:21 @[ crypto_pwhash/argon2/argon2-fill-block-ref.c:48:4392 @[ crypto_pwhash/argon2/argon2-fill-block-ref.c:230:13 ] ]
	rolq	$48, %rbx
.Ltmp504:
	.loc	3 48 4390                       # crypto_pwhash/argon2/argon2-fill-block-ref.c:48:4390 @[ crypto_pwhash/argon2/argon2-fill-block-ref.c:230:13 ]
	movq	%rbx, 56(%rsp,%r8)
.Ltmp505:
	#DEBUG_VALUE: fBlaMka:x <- $rdx
	#DEBUG_VALUE: fBlaMka:y <- $rbx
	#DEBUG_VALUE: fBlaMka:m <- 4294967295
	.loc	5 11 38                         # crypto_pwhash/argon2/blamka-round-ref.h:11:38 @[ crypto_pwhash/argon2/argon2-fill-block-ref.c:48:4476 @[ crypto_pwhash/argon2/argon2-fill-block-ref.c:230:13 ] ]
	movl	%ebx, %eax
.Ltmp506:
	#DEBUG_VALUE: fBlaMka:xy <- undef
	.loc	5 12 14                         # crypto_pwhash/argon2/blamka-round-ref.h:12:14 @[ crypto_pwhash/argon2/argon2-fill-block-ref.c:48:4476 @[ crypto_pwhash/argon2/argon2-fill-block-ref.c:230:13 ] ]
	addq	%rdx, %rbx
.Ltmp507:
	.loc	5 11 33                         # crypto_pwhash/argon2/blamka-round-ref.h:11:33 @[ crypto_pwhash/argon2/argon2-fill-block-ref.c:48:4476 @[ crypto_pwhash/argon2/argon2-fill-block-ref.c:230:13 ] ]
	addq	%rdx, %rdx
.Ltmp508:
	movabsq	$8589934590, %rcx               # imm = 0x1FFFFFFFE
	andq	%rcx, %rdx
	.loc	5 12 22                         # crypto_pwhash/argon2/blamka-round-ref.h:12:22 @[ crypto_pwhash/argon2/argon2-fill-block-ref.c:48:4476 @[ crypto_pwhash/argon2/argon2-fill-block-ref.c:230:13 ] ]
	imulq	%rax, %rdx
.Ltmp509:
	.loc	6 58 21                         # ./include/sodium/private/common.h:58:21 @[ crypto_pwhash/argon2/argon2-fill-block-ref.c:48:568 @[ crypto_pwhash/argon2/argon2-fill-block-ref.c:230:13 ] ]
	rolq	%r9
.Ltmp510:
	.loc	5 12 18                         # crypto_pwhash/argon2/blamka-round-ref.h:12:18 @[ crypto_pwhash/argon2/argon2-fill-block-ref.c:48:4476 @[ crypto_pwhash/argon2/argon2-fill-block-ref.c:230:13 ] ]
	addq	%rbx, %rdx
.Ltmp511:
	.loc	3 48 4474                       # crypto_pwhash/argon2/argon2-fill-block-ref.c:48:4474 @[ crypto_pwhash/argon2/argon2-fill-block-ref.c:230:13 ]
	movq	%rdx, -208(%rsp,%r8)
	.loc	3 48 4581 is_stmt 0             # crypto_pwhash/argon2/argon2-fill-block-ref.c:48:4581 @[ crypto_pwhash/argon2/argon2-fill-block-ref.c:230:13 ]
	xorq	%r15, %rdx
.Ltmp512:
	#DEBUG_VALUE: rotr64:x <- $rdx
	#DEBUG_VALUE: rotr64:b <- 63
	#DEBUG_VALUE: fBlaMka:x <- $r11
	#DEBUG_VALUE: fBlaMka:y <- $r9
	#DEBUG_VALUE: fBlaMka:m <- 4294967295
	.loc	5 11 38 is_stmt 1               # crypto_pwhash/argon2/blamka-round-ref.h:11:38 @[ crypto_pwhash/argon2/argon2-fill-block-ref.c:48:4664 @[ crypto_pwhash/argon2/argon2-fill-block-ref.c:230:13 ] ]
	movl	%r9d, %eax
.Ltmp513:
	#DEBUG_VALUE: fBlaMka:xy <- undef
	.loc	5 12 14                         # crypto_pwhash/argon2/blamka-round-ref.h:12:14 @[ crypto_pwhash/argon2/argon2-fill-block-ref.c:48:4664 @[ crypto_pwhash/argon2/argon2-fill-block-ref.c:230:13 ] ]
	leaq	(%r11,%r9), %rcx
	.loc	5 11 33                         # crypto_pwhash/argon2/blamka-round-ref.h:11:33 @[ crypto_pwhash/argon2/argon2-fill-block-ref.c:48:4664 @[ crypto_pwhash/argon2/argon2-fill-block-ref.c:230:13 ] ]
	addq	%r11, %r11
.Ltmp514:
	andq	%rdi, %r11
	.loc	5 12 22                         # crypto_pwhash/argon2/blamka-round-ref.h:12:22 @[ crypto_pwhash/argon2/argon2-fill-block-ref.c:48:4664 @[ crypto_pwhash/argon2/argon2-fill-block-ref.c:230:13 ] ]
	imulq	%rax, %r11
.Ltmp515:
	.loc	6 58 21                         # ./include/sodium/private/common.h:58:21 @[ crypto_pwhash/argon2/argon2-fill-block-ref.c:48:4552 @[ crypto_pwhash/argon2/argon2-fill-block-ref.c:230:13 ] ]
	rolq	%rdx
.Ltmp516:
	.loc	5 12 18                         # crypto_pwhash/argon2/blamka-round-ref.h:12:18 @[ crypto_pwhash/argon2/argon2-fill-block-ref.c:48:4664 @[ crypto_pwhash/argon2/argon2-fill-block-ref.c:230:13 ] ]
	addq	%rcx, %r11
	movq	112(%rsp), %rdi                 # 8-byte Reload
.Ltmp517:
	.loc	3 48 4771                       # crypto_pwhash/argon2/argon2-fill-block-ref.c:48:4771 @[ crypto_pwhash/argon2/argon2-fill-block-ref.c:230:13 ]
	xorq	%r11, %rdi
.Ltmp518:
	#DEBUG_VALUE: rotr64:x <- $rdi
	#DEBUG_VALUE: rotr64:b <- 32
	.loc	6 58 21                         # ./include/sodium/private/common.h:58:21 @[ crypto_pwhash/argon2/argon2-fill-block-ref.c:48:4741 @[ crypto_pwhash/argon2/argon2-fill-block-ref.c:230:13 ] ]
	rolq	$32, %rdi
.Ltmp519:
	#DEBUG_VALUE: fBlaMka:y <- $rdi
	#DEBUG_VALUE: fBlaMka:x <- $rsi
	#DEBUG_VALUE: fBlaMka:m <- 4294967295
	.loc	3 48 4550                       # crypto_pwhash/argon2/argon2-fill-block-ref.c:48:4550 @[ crypto_pwhash/argon2/argon2-fill-block-ref.c:230:13 ]
	movq	%rdx, -328(%rsp,%r8)
	movabsq	$8589934590, %rdx               # imm = 0x1FFFFFFFE
.Ltmp520:
	.loc	5 11 38                         # crypto_pwhash/argon2/blamka-round-ref.h:11:38 @[ crypto_pwhash/argon2/argon2-fill-block-ref.c:48:4826 @[ crypto_pwhash/argon2/argon2-fill-block-ref.c:230:13 ] ]
	movl	%edi, %eax
.Ltmp521:
	#DEBUG_VALUE: fBlaMka:xy <- undef
	.loc	5 12 14                         # crypto_pwhash/argon2/blamka-round-ref.h:12:14 @[ crypto_pwhash/argon2/argon2-fill-block-ref.c:48:4826 @[ crypto_pwhash/argon2/argon2-fill-block-ref.c:230:13 ] ]
	leaq	(%rdi,%rsi), %rcx
	movq	%rdi, %r10
.Ltmp522:
	.loc	5 11 33                         # crypto_pwhash/argon2/blamka-round-ref.h:11:33 @[ crypto_pwhash/argon2/argon2-fill-block-ref.c:48:4826 @[ crypto_pwhash/argon2/argon2-fill-block-ref.c:230:13 ] ]
	addq	%rsi, %rsi
.Ltmp523:
	andq	%rdx, %rsi
	.loc	5 12 22                         # crypto_pwhash/argon2/blamka-round-ref.h:12:22 @[ crypto_pwhash/argon2/argon2-fill-block-ref.c:48:4826 @[ crypto_pwhash/argon2/argon2-fill-block-ref.c:230:13 ] ]
	imulq	%rax, %rsi
	.loc	5 12 18 is_stmt 0               # crypto_pwhash/argon2/blamka-round-ref.h:12:18 @[ crypto_pwhash/argon2/argon2-fill-block-ref.c:48:4826 @[ crypto_pwhash/argon2/argon2-fill-block-ref.c:230:13 ] ]
	addq	%rcx, %rsi
	movq	%r9, %rdi
.Ltmp524:
	#DEBUG_VALUE: fBlaMka:y <- $r10
	.loc	3 48 4932 is_stmt 1             # crypto_pwhash/argon2/argon2-fill-block-ref.c:48:4932 @[ crypto_pwhash/argon2/argon2-fill-block-ref.c:230:13 ]
	xorq	%rsi, %rdi
.Ltmp525:
	#DEBUG_VALUE: rotr64:x <- $rdi
	#DEBUG_VALUE: rotr64:b <- 24
	.loc	6 58 21                         # ./include/sodium/private/common.h:58:21 @[ crypto_pwhash/argon2/argon2-fill-block-ref.c:48:4903 @[ crypto_pwhash/argon2/argon2-fill-block-ref.c:230:13 ] ]
	rolq	$40, %rdi
.Ltmp526:
	#DEBUG_VALUE: fBlaMka:y <- $rdi
	#DEBUG_VALUE: fBlaMka:x <- $r11
	#DEBUG_VALUE: fBlaMka:m <- 4294967295
	.loc	5 11 38                         # crypto_pwhash/argon2/blamka-round-ref.h:11:38 @[ crypto_pwhash/argon2/argon2-fill-block-ref.c:48:4987 @[ crypto_pwhash/argon2/argon2-fill-block-ref.c:230:13 ] ]
	movl	%edi, %eax
.Ltmp527:
	#DEBUG_VALUE: fBlaMka:xy <- undef
	.loc	5 12 14                         # crypto_pwhash/argon2/blamka-round-ref.h:12:14 @[ crypto_pwhash/argon2/argon2-fill-block-ref.c:48:4987 @[ crypto_pwhash/argon2/argon2-fill-block-ref.c:230:13 ] ]
	leaq	(%rdi,%r11), %rcx
	.loc	5 11 33                         # crypto_pwhash/argon2/blamka-round-ref.h:11:33 @[ crypto_pwhash/argon2/argon2-fill-block-ref.c:48:4987 @[ crypto_pwhash/argon2/argon2-fill-block-ref.c:230:13 ] ]
	addq	%r11, %r11
.Ltmp528:
	andq	%rdx, %r11
	.loc	5 12 22                         # crypto_pwhash/argon2/blamka-round-ref.h:12:22 @[ crypto_pwhash/argon2/argon2-fill-block-ref.c:48:4987 @[ crypto_pwhash/argon2/argon2-fill-block-ref.c:230:13 ] ]
	imulq	%rax, %r11
	.loc	5 12 18 is_stmt 0               # crypto_pwhash/argon2/blamka-round-ref.h:12:18 @[ crypto_pwhash/argon2/argon2-fill-block-ref.c:48:4987 @[ crypto_pwhash/argon2/argon2-fill-block-ref.c:230:13 ] ]
	addq	%rcx, %r11
.Ltmp529:
	.loc	3 48 4985 is_stmt 1             # crypto_pwhash/argon2/argon2-fill-block-ref.c:48:4985 @[ crypto_pwhash/argon2/argon2-fill-block-ref.c:230:13 ]
	movq	%r11, -584(%rsp,%r8)
	.loc	3 48 5094 is_stmt 0             # crypto_pwhash/argon2/argon2-fill-block-ref.c:48:5094 @[ crypto_pwhash/argon2/argon2-fill-block-ref.c:230:13 ]
	xorq	%r10, %r11
.Ltmp530:
	#DEBUG_VALUE: rotr64:x <- $r11
	#DEBUG_VALUE: rotr64:b <- 16
	.loc	6 58 21 is_stmt 1               # ./include/sodium/private/common.h:58:21 @[ crypto_pwhash/argon2/argon2-fill-block-ref.c:48:5064 @[ crypto_pwhash/argon2/argon2-fill-block-ref.c:230:13 ] ]
	rolq	$48, %r11
.Ltmp531:
	.loc	3 48 5062                       # crypto_pwhash/argon2/argon2-fill-block-ref.c:48:5062 @[ crypto_pwhash/argon2/argon2-fill-block-ref.c:230:13 ]
	movq	%r11, 176(%rsp,%r8)
.Ltmp532:
	#DEBUG_VALUE: fBlaMka:x <- $rsi
	#DEBUG_VALUE: fBlaMka:y <- $r11
	#DEBUG_VALUE: fBlaMka:m <- 4294967295
	.loc	5 11 38                         # crypto_pwhash/argon2/blamka-round-ref.h:11:38 @[ crypto_pwhash/argon2/argon2-fill-block-ref.c:48:5149 @[ crypto_pwhash/argon2/argon2-fill-block-ref.c:230:13 ] ]
	movl	%r11d, %eax
.Ltmp533:
	#DEBUG_VALUE: fBlaMka:xy <- undef
	.loc	5 12 14                         # crypto_pwhash/argon2/blamka-round-ref.h:12:14 @[ crypto_pwhash/argon2/argon2-fill-block-ref.c:48:5149 @[ crypto_pwhash/argon2/argon2-fill-block-ref.c:230:13 ] ]
	addq	%rsi, %r11
.Ltmp534:
	.loc	5 11 33                         # crypto_pwhash/argon2/blamka-round-ref.h:11:33 @[ crypto_pwhash/argon2/argon2-fill-block-ref.c:48:5149 @[ crypto_pwhash/argon2/argon2-fill-block-ref.c:230:13 ] ]
	addq	%rsi, %rsi
.Ltmp535:
	andq	%rdx, %rsi
	.loc	5 12 22                         # crypto_pwhash/argon2/blamka-round-ref.h:12:22 @[ crypto_pwhash/argon2/argon2-fill-block-ref.c:48:5149 @[ crypto_pwhash/argon2/argon2-fill-block-ref.c:230:13 ] ]
	imulq	%rax, %rsi
	.loc	5 12 18 is_stmt 0               # crypto_pwhash/argon2/blamka-round-ref.h:12:18 @[ crypto_pwhash/argon2/argon2-fill-block-ref.c:48:5149 @[ crypto_pwhash/argon2/argon2-fill-block-ref.c:230:13 ] ]
	addq	%r11, %rsi
.Ltmp536:
	.loc	3 48 5147 is_stmt 1             # crypto_pwhash/argon2/argon2-fill-block-ref.c:48:5147 @[ crypto_pwhash/argon2/argon2-fill-block-ref.c:230:13 ]
	movq	%rsi, -200(%rsp,%r8)
	.loc	3 48 5255 is_stmt 0             # crypto_pwhash/argon2/argon2-fill-block-ref.c:48:5255 @[ crypto_pwhash/argon2/argon2-fill-block-ref.c:230:13 ]
	xorq	%rdi, %rsi
.Ltmp537:
	#DEBUG_VALUE: rotr64:x <- $rsi
	#DEBUG_VALUE: rotr64:b <- 63
	.loc	6 58 21 is_stmt 1               # ./include/sodium/private/common.h:58:21 @[ crypto_pwhash/argon2/argon2-fill-block-ref.c:48:5226 @[ crypto_pwhash/argon2/argon2-fill-block-ref.c:230:13 ] ]
	rolq	%rsi
.Ltmp538:
	.loc	3 48 5224                       # crypto_pwhash/argon2/argon2-fill-block-ref.c:48:5224 @[ crypto_pwhash/argon2/argon2-fill-block-ref.c:230:13 ]
	movq	%rsi, -464(%rsp,%r8)
.Ltmp539:
	#DEBUG_VALUE: fill_block:i <- [DW_OP_consts 904, DW_OP_minus, DW_OP_consts 16, DW_OP_div, DW_OP_consts 1, DW_OP_plus, DW_OP_stack_value] $r8
	.loc	3 47 19                         # crypto_pwhash/argon2/argon2-fill-block-ref.c:47:19 @[ crypto_pwhash/argon2/argon2-fill-block-ref.c:230:13 ]
	addq	$16, %r8
.Ltmp540:
	cmpq	$1032, %r8                      # imm = 0x408
.Ltmp541:
	.loc	3 47 5 is_stmt 0                # crypto_pwhash/argon2/argon2-fill-block-ref.c:47:5 @[ crypto_pwhash/argon2/argon2-fill-block-ref.c:230:13 ]
	jne	.LBB0_45
.Ltmp542:
# %bb.46:                               # %vector.memcheck
                                        #   in Loop: Header=BB0_16 Depth=1
	#DEBUG_VALUE: argon2_fill_segment_ref:position <- [DW_OP_plus_uconst 32, DW_OP_deref_size 8, DW_OP_constu 8, DW_OP_shr, DW_OP_LLVM_convert 64 7, DW_OP_LLVM_convert 24 7, DW_OP_stack_value, DW_OP_LLVM_fragment 72 24] $rsp
	#DEBUG_VALUE: argon2_fill_segment_ref:instance <- [DW_OP_plus_uconst 24] [$rsp+0]
	#DEBUG_VALUE: argon2_fill_segment_ref:position <- [DW_OP_plus_uconst 48, DW_OP_deref, DW_OP_LLVM_fragment 32 32] $rsp
	#DEBUG_VALUE: argon2_fill_segment_ref:position <- [DW_OP_plus_uconst 136, DW_OP_deref, DW_OP_LLVM_fragment 0 32] $rsp
	#DEBUG_VALUE: argon2_fill_segment_ref:position <- [DW_OP_plus_uconst 32, DW_OP_deref, DW_OP_LLVM_fragment 64 8] $rsp
	#DEBUG_VALUE: argon2_fill_segment_ref:position <- [DW_OP_plus_uconst 72, DW_OP_deref_size 8, DW_OP_stack_value, DW_OP_LLVM_fragment 96 32] $rsp
	#DEBUG_VALUE: argon2_fill_segment_ref:curr_block <- [DW_OP_plus_uconst 176, DW_OP_deref] $rsp
	#DEBUG_VALUE: argon2_fill_segment_ref:i <- [DW_OP_plus_uconst 72, DW_OP_deref_size 8, DW_OP_stack_value] $rsp
	#DEBUG_VALUE: argon2_fill_segment_ref:prev_offset <- [DW_OP_plus_uconst 16, DW_OP_deref] $rsp
	#DEBUG_VALUE: argon2_fill_segment_ref:curr_offset <- [DW_OP_plus_uconst 64, DW_OP_deref] $rsp
	#DEBUG_VALUE: fill_block:next_block <- [DW_OP_plus_uconst 176, DW_OP_deref] $rsp
	#DEBUG_VALUE: copy_block:dst <- [DW_OP_plus_uconst 176, DW_OP_deref] $rsp
	#DEBUG_VALUE: copy_block:src <- undef
	#DEBUG_VALUE: memcpy:__dest <- [DW_OP_plus_uconst 176, DW_OP_deref] $rsp
	#DEBUG_VALUE: memcpy:__src <- undef
	#DEBUG_VALUE: memcpy:__len <- 1024
	.loc	4 29 10 is_stmt 1               # /usr/include/x86_64-linux-gnu/bits/string_fortified.h:29:10 @[ crypto_pwhash/argon2/argon2-core.h:76:5 @[ crypto_pwhash/argon2/argon2-fill-block-ref.c:57:5 @[ crypto_pwhash/argon2/argon2-fill-block-ref.c:230:13 ] ] ]
	movl	$1024, %edx                     # imm = 0x400
	movq	176(%rsp), %rdi                 # 8-byte Reload
	leaq	1208(%rsp), %rsi
	callq	memcpy@PLT
.Ltmp543:
	#DEBUG_VALUE: xor_block:dst <- [DW_OP_plus_uconst 176, DW_OP_deref] $rsp
	#DEBUG_VALUE: xor_block:src <- [DW_OP_plus_uconst 184, DW_OP_stack_value] $rsp
	#DEBUG_VALUE: xor_block:i <- 0
	.loc	4 0 10 is_stmt 0                # /usr/include/x86_64-linux-gnu/bits/string_fortified.h:0:10
	movq	144(%rsp), %rsi                 # 8-byte Reload
	movq	168(%rsp), %rcx                 # 8-byte Reload
.Ltmp544:
	.loc	2 84 5 is_stmt 1                # crypto_pwhash/argon2/argon2-core.h:84:5 @[ crypto_pwhash/argon2/argon2-fill-block-ref.c:58:5 @[ crypto_pwhash/argon2/argon2-fill-block-ref.c:230:13 ] ]
	leaq	(%rsi,%rcx), %rax
	addq	%rsi, %rcx
	addq	$1024, %rcx                     # imm = 0x400
	leaq	1208(%rsp), %rdx
	cmpq	%rdx, %rax
	setb	%al
	leaq	184(%rsp), %rdx
	cmpq	%rcx, %rdx
	setb	%cl
.Ltmp545:
	.loc	2 84 45 is_stmt 0               # crypto_pwhash/argon2/argon2-core.h:84:45 @[ crypto_pwhash/argon2/argon2-fill-block-ref.c:58:5 @[ crypto_pwhash/argon2/argon2-fill-block-ref.c:230:13 ] ]
	testb	%cl, %al
	movq	136(%rsp), %r13                 # 8-byte Reload
	je	.LBB0_49
.Ltmp546:
# %bb.47:                               # %scalar.ph.preheader
                                        #   in Loop: Header=BB0_16 Depth=1
	#DEBUG_VALUE: argon2_fill_segment_ref:position <- [DW_OP_plus_uconst 32, DW_OP_deref_size 8, DW_OP_constu 8, DW_OP_shr, DW_OP_LLVM_convert 64 7, DW_OP_LLVM_convert 24 7, DW_OP_stack_value, DW_OP_LLVM_fragment 72 24] $rsp
	#DEBUG_VALUE: argon2_fill_segment_ref:instance <- [DW_OP_plus_uconst 24] [$rsp+0]
	#DEBUG_VALUE: argon2_fill_segment_ref:position <- [DW_OP_plus_uconst 48, DW_OP_deref, DW_OP_LLVM_fragment 32 32] $rsp
	#DEBUG_VALUE: argon2_fill_segment_ref:position <- [DW_OP_plus_uconst 136, DW_OP_deref, DW_OP_LLVM_fragment 0 32] $rsp
	#DEBUG_VALUE: argon2_fill_segment_ref:position <- [DW_OP_plus_uconst 32, DW_OP_deref, DW_OP_LLVM_fragment 64 8] $rsp
	#DEBUG_VALUE: argon2_fill_segment_ref:position <- [DW_OP_plus_uconst 72, DW_OP_deref_size 8, DW_OP_stack_value, DW_OP_LLVM_fragment 96 32] $rsp
	#DEBUG_VALUE: argon2_fill_segment_ref:curr_block <- [DW_OP_plus_uconst 176, DW_OP_deref] $rsp
	#DEBUG_VALUE: argon2_fill_segment_ref:i <- [DW_OP_plus_uconst 72, DW_OP_deref_size 8, DW_OP_stack_value] $rsp
	#DEBUG_VALUE: argon2_fill_segment_ref:prev_offset <- [DW_OP_plus_uconst 16, DW_OP_deref] $rsp
	#DEBUG_VALUE: argon2_fill_segment_ref:curr_offset <- [DW_OP_plus_uconst 64, DW_OP_deref] $rsp
	#DEBUG_VALUE: fill_block:next_block <- [DW_OP_plus_uconst 176, DW_OP_deref] $rsp
	#DEBUG_VALUE: xor_block:dst <- [DW_OP_plus_uconst 176, DW_OP_deref] $rsp
	#DEBUG_VALUE: xor_block:src <- [DW_OP_plus_uconst 184, DW_OP_stack_value] $rsp
	#DEBUG_VALUE: xor_block:i <- 0
	.loc	2 0 45                          # crypto_pwhash/argon2/argon2-core.h:0:45
	movq	40(%rsp), %rax                  # 8-byte Reload
	.loc	2 84 5                          # crypto_pwhash/argon2/argon2-core.h:84:5 @[ crypto_pwhash/argon2/argon2-fill-block-ref.c:58:5 @[ crypto_pwhash/argon2/argon2-fill-block-ref.c:230:13 ] ]
	addq	%rsi, %rax
	addq	$24, %rax
	xorl	%ecx, %ecx
	movq	32(%rsp), %r12                  # 8-byte Reload
	movq	24(%rsp), %rbp                  # 8-byte Reload
	movq	72(%rsp), %r8                   # 8-byte Reload
	movq	64(%rsp), %r9                   # 8-byte Reload
	movl	16(%rsp), %esi                  # 4-byte Reload
.Ltmp547:
	.loc	2 0 5                           # :0:5
.Ltmp548:
	.p2align	4
.LBB0_48:                               # %scalar.ph
                                        #   Parent Loop BB0_16 Depth=1
                                        # =>  This Inner Loop Header: Depth=2
	#DEBUG_VALUE: argon2_fill_segment_ref:position <- [DW_OP_plus_uconst 32, DW_OP_deref_size 8, DW_OP_constu 8, DW_OP_shr, DW_OP_LLVM_convert 64 7, DW_OP_LLVM_convert 24 7, DW_OP_stack_value, DW_OP_LLVM_fragment 72 24] $rsp
	#DEBUG_VALUE: argon2_fill_segment_ref:instance <- [DW_OP_plus_uconst 24] [$rsp+0]
	#DEBUG_VALUE: argon2_fill_segment_ref:position <- [DW_OP_plus_uconst 48, DW_OP_deref, DW_OP_LLVM_fragment 32 32] $rsp
	#DEBUG_VALUE: argon2_fill_segment_ref:position <- [DW_OP_plus_uconst 136, DW_OP_deref, DW_OP_LLVM_fragment 0 32] $rsp
	#DEBUG_VALUE: argon2_fill_segment_ref:position <- [DW_OP_plus_uconst 32, DW_OP_deref, DW_OP_LLVM_fragment 64 8] $rsp
	#DEBUG_VALUE: argon2_fill_segment_ref:position <- [DW_OP_plus_uconst 72, DW_OP_deref_size 8, DW_OP_stack_value, DW_OP_LLVM_fragment 96 32] $rsp
	#DEBUG_VALUE: argon2_fill_segment_ref:curr_block <- [DW_OP_plus_uconst 176, DW_OP_deref] $rsp
	#DEBUG_VALUE: argon2_fill_segment_ref:i <- [DW_OP_plus_uconst 72, DW_OP_deref_size 8, DW_OP_stack_value] $rsp
	#DEBUG_VALUE: argon2_fill_segment_ref:prev_offset <- [DW_OP_plus_uconst 16, DW_OP_deref] $rsp
	#DEBUG_VALUE: argon2_fill_segment_ref:curr_offset <- [DW_OP_plus_uconst 64, DW_OP_deref] $rsp
	#DEBUG_VALUE: fill_block:next_block <- [DW_OP_plus_uconst 176, DW_OP_deref] $rsp
	#DEBUG_VALUE: xor_block:dst <- [DW_OP_plus_uconst 176, DW_OP_deref] $rsp
	#DEBUG_VALUE: xor_block:src <- [DW_OP_plus_uconst 184, DW_OP_stack_value] $rsp
	#DEBUG_VALUE: xor_block:i <- $rcx
	.loc	2 85 22 is_stmt 1               # crypto_pwhash/argon2/argon2-core.h:85:22 @[ crypto_pwhash/argon2/argon2-fill-block-ref.c:58:5 @[ crypto_pwhash/argon2/argon2-fill-block-ref.c:230:13 ] ]
	movq	184(%rsp,%rcx,8), %rdx
	.loc	2 85 19 is_stmt 0               # crypto_pwhash/argon2/argon2-core.h:85:19 @[ crypto_pwhash/argon2/argon2-fill-block-ref.c:58:5 @[ crypto_pwhash/argon2/argon2-fill-block-ref.c:230:13 ] ]
	xorq	%rdx, -24(%rax,%rcx,8)
.Ltmp549:
	#DEBUG_VALUE: xor_block:i <- [DW_OP_constu 1, DW_OP_or, DW_OP_stack_value] $rcx
	.loc	2 85 22                         # crypto_pwhash/argon2/argon2-core.h:85:22 @[ crypto_pwhash/argon2/argon2-fill-block-ref.c:58:5 @[ crypto_pwhash/argon2/argon2-fill-block-ref.c:230:13 ] ]
	movq	192(%rsp,%rcx,8), %rdx
	.loc	2 85 19                         # crypto_pwhash/argon2/argon2-core.h:85:19 @[ crypto_pwhash/argon2/argon2-fill-block-ref.c:58:5 @[ crypto_pwhash/argon2/argon2-fill-block-ref.c:230:13 ] ]
	xorq	%rdx, -16(%rax,%rcx,8)
.Ltmp550:
	#DEBUG_VALUE: xor_block:i <- [DW_OP_constu 2, DW_OP_or, DW_OP_stack_value] $rcx
	.loc	2 85 22                         # crypto_pwhash/argon2/argon2-core.h:85:22 @[ crypto_pwhash/argon2/argon2-fill-block-ref.c:58:5 @[ crypto_pwhash/argon2/argon2-fill-block-ref.c:230:13 ] ]
	movq	200(%rsp,%rcx,8), %rdx
	.loc	2 85 19                         # crypto_pwhash/argon2/argon2-core.h:85:19 @[ crypto_pwhash/argon2/argon2-fill-block-ref.c:58:5 @[ crypto_pwhash/argon2/argon2-fill-block-ref.c:230:13 ] ]
	xorq	%rdx, -8(%rax,%rcx,8)
.Ltmp551:
	#DEBUG_VALUE: xor_block:i <- [DW_OP_constu 3, DW_OP_or, DW_OP_stack_value] $rcx
	.loc	2 85 22                         # crypto_pwhash/argon2/argon2-core.h:85:22 @[ crypto_pwhash/argon2/argon2-fill-block-ref.c:58:5 @[ crypto_pwhash/argon2/argon2-fill-block-ref.c:230:13 ] ]
	movq	208(%rsp,%rcx,8), %rdx
	.loc	2 85 19                         # crypto_pwhash/argon2/argon2-core.h:85:19 @[ crypto_pwhash/argon2/argon2-fill-block-ref.c:58:5 @[ crypto_pwhash/argon2/argon2-fill-block-ref.c:230:13 ] ]
	xorq	%rdx, (%rax,%rcx,8)
.Ltmp552:
	.loc	2 84 45 is_stmt 1               # crypto_pwhash/argon2/argon2-core.h:84:45 @[ crypto_pwhash/argon2/argon2-fill-block-ref.c:58:5 @[ crypto_pwhash/argon2/argon2-fill-block-ref.c:230:13 ] ]
	addq	$4, %rcx
.Ltmp553:
	#DEBUG_VALUE: xor_block:i <- $rcx
	.loc	2 84 19 is_stmt 0               # crypto_pwhash/argon2/argon2-core.h:84:19 @[ crypto_pwhash/argon2/argon2-fill-block-ref.c:58:5 @[ crypto_pwhash/argon2/argon2-fill-block-ref.c:230:13 ] ]
	cmpq	$128, %rcx
.Ltmp554:
	.loc	2 84 5                          # crypto_pwhash/argon2/argon2-core.h:84:5 @[ crypto_pwhash/argon2/argon2-fill-block-ref.c:58:5 @[ crypto_pwhash/argon2/argon2-fill-block-ref.c:230:13 ] ]
	jne	.LBB0_48
	jmp	.LBB0_15
.Ltmp555:
.LBB0_49:                               # %vector.body.preheader
                                        #   in Loop: Header=BB0_16 Depth=1
	#DEBUG_VALUE: argon2_fill_segment_ref:position <- [DW_OP_plus_uconst 32, DW_OP_deref_size 8, DW_OP_constu 8, DW_OP_shr, DW_OP_LLVM_convert 64 7, DW_OP_LLVM_convert 24 7, DW_OP_stack_value, DW_OP_LLVM_fragment 72 24] $rsp
	#DEBUG_VALUE: argon2_fill_segment_ref:instance <- [DW_OP_plus_uconst 24] [$rsp+0]
	#DEBUG_VALUE: argon2_fill_segment_ref:position <- [DW_OP_plus_uconst 48, DW_OP_deref, DW_OP_LLVM_fragment 32 32] $rsp
	#DEBUG_VALUE: argon2_fill_segment_ref:position <- [DW_OP_plus_uconst 136, DW_OP_deref, DW_OP_LLVM_fragment 0 32] $rsp
	#DEBUG_VALUE: argon2_fill_segment_ref:position <- [DW_OP_plus_uconst 32, DW_OP_deref, DW_OP_LLVM_fragment 64 8] $rsp
	#DEBUG_VALUE: argon2_fill_segment_ref:position <- [DW_OP_plus_uconst 72, DW_OP_deref_size 8, DW_OP_stack_value, DW_OP_LLVM_fragment 96 32] $rsp
	#DEBUG_VALUE: argon2_fill_segment_ref:curr_block <- [DW_OP_plus_uconst 176, DW_OP_deref] $rsp
	#DEBUG_VALUE: argon2_fill_segment_ref:i <- [DW_OP_plus_uconst 72, DW_OP_deref_size 8, DW_OP_stack_value] $rsp
	#DEBUG_VALUE: argon2_fill_segment_ref:prev_offset <- [DW_OP_plus_uconst 16, DW_OP_deref] $rsp
	#DEBUG_VALUE: argon2_fill_segment_ref:curr_offset <- [DW_OP_plus_uconst 64, DW_OP_deref] $rsp
	#DEBUG_VALUE: fill_block:next_block <- [DW_OP_plus_uconst 176, DW_OP_deref] $rsp
	#DEBUG_VALUE: xor_block:dst <- [DW_OP_plus_uconst 176, DW_OP_deref] $rsp
	#DEBUG_VALUE: xor_block:src <- [DW_OP_plus_uconst 184, DW_OP_stack_value] $rsp
	#DEBUG_VALUE: xor_block:i <- 0
	.loc	2 0 5                           # crypto_pwhash/argon2/argon2-core.h:0:5
	movq	40(%rsp), %rax                  # 8-byte Reload
	.loc	2 84 5                          # crypto_pwhash/argon2/argon2-core.h:84:5 @[ crypto_pwhash/argon2/argon2-fill-block-ref.c:58:5 @[ crypto_pwhash/argon2/argon2-fill-block-ref.c:230:13 ] ]
	addq	%rsi, %rax
	addq	$48, %rax
	xorl	%ecx, %ecx
	movq	32(%rsp), %r12                  # 8-byte Reload
	movq	24(%rsp), %rbp                  # 8-byte Reload
	movq	72(%rsp), %r8                   # 8-byte Reload
	movq	64(%rsp), %r9                   # 8-byte Reload
	movl	16(%rsp), %esi                  # 4-byte Reload
.Ltmp556:
	.loc	2 0 5                           # :0:5
.Ltmp557:
	.p2align	4
.LBB0_50:                               # %vector.body
                                        #   Parent Loop BB0_16 Depth=1
                                        # =>  This Inner Loop Header: Depth=2
	#DEBUG_VALUE: argon2_fill_segment_ref:position <- [DW_OP_plus_uconst 32, DW_OP_deref_size 8, DW_OP_constu 8, DW_OP_shr, DW_OP_LLVM_convert 64 7, DW_OP_LLVM_convert 24 7, DW_OP_stack_value, DW_OP_LLVM_fragment 72 24] $rsp
	#DEBUG_VALUE: argon2_fill_segment_ref:instance <- [DW_OP_plus_uconst 24] [$rsp+0]
	#DEBUG_VALUE: argon2_fill_segment_ref:position <- [DW_OP_plus_uconst 48, DW_OP_deref, DW_OP_LLVM_fragment 32 32] $rsp
	#DEBUG_VALUE: argon2_fill_segment_ref:position <- [DW_OP_plus_uconst 136, DW_OP_deref, DW_OP_LLVM_fragment 0 32] $rsp
	#DEBUG_VALUE: argon2_fill_segment_ref:position <- [DW_OP_plus_uconst 32, DW_OP_deref, DW_OP_LLVM_fragment 64 8] $rsp
	#DEBUG_VALUE: argon2_fill_segment_ref:position <- [DW_OP_plus_uconst 72, DW_OP_deref_size 8, DW_OP_stack_value, DW_OP_LLVM_fragment 96 32] $rsp
	#DEBUG_VALUE: argon2_fill_segment_ref:curr_block <- [DW_OP_plus_uconst 176, DW_OP_deref] $rsp
	#DEBUG_VALUE: argon2_fill_segment_ref:i <- [DW_OP_plus_uconst 72, DW_OP_deref_size 8, DW_OP_stack_value] $rsp
	#DEBUG_VALUE: argon2_fill_segment_ref:prev_offset <- [DW_OP_plus_uconst 16, DW_OP_deref] $rsp
	#DEBUG_VALUE: argon2_fill_segment_ref:curr_offset <- [DW_OP_plus_uconst 64, DW_OP_deref] $rsp
	#DEBUG_VALUE: fill_block:next_block <- [DW_OP_plus_uconst 176, DW_OP_deref] $rsp
	#DEBUG_VALUE: xor_block:dst <- [DW_OP_plus_uconst 176, DW_OP_deref] $rsp
	#DEBUG_VALUE: xor_block:src <- [DW_OP_plus_uconst 184, DW_OP_stack_value] $rsp
	#DEBUG_VALUE: xor_block:i <- 0
	.loc	2 85 22 is_stmt 1               # crypto_pwhash/argon2/argon2-core.h:85:22 @[ crypto_pwhash/argon2/argon2-fill-block-ref.c:58:5 @[ crypto_pwhash/argon2/argon2-fill-block-ref.c:230:13 ] ]
	movups	184(%rsp,%rcx,8), %xmm0
	movups	200(%rsp,%rcx,8), %xmm1
	.loc	2 85 19 is_stmt 0               # crypto_pwhash/argon2/argon2-core.h:85:19 @[ crypto_pwhash/argon2/argon2-fill-block-ref.c:58:5 @[ crypto_pwhash/argon2/argon2-fill-block-ref.c:230:13 ] ]
	movups	-48(%rax,%rcx,8), %xmm2
	xorps	%xmm0, %xmm2
	movups	-32(%rax,%rcx,8), %xmm0
	xorps	%xmm1, %xmm0
	movups	-16(%rax,%rcx,8), %xmm1
	movups	(%rax,%rcx,8), %xmm3
	movups	%xmm2, -48(%rax,%rcx,8)
	movups	%xmm0, -32(%rax,%rcx,8)
	.loc	2 85 22                         # crypto_pwhash/argon2/argon2-core.h:85:22 @[ crypto_pwhash/argon2/argon2-fill-block-ref.c:58:5 @[ crypto_pwhash/argon2/argon2-fill-block-ref.c:230:13 ] ]
	movups	216(%rsp,%rcx,8), %xmm0
	.loc	2 85 19                         # crypto_pwhash/argon2/argon2-core.h:85:19 @[ crypto_pwhash/argon2/argon2-fill-block-ref.c:58:5 @[ crypto_pwhash/argon2/argon2-fill-block-ref.c:230:13 ] ]
	xorps	%xmm1, %xmm0
	.loc	2 85 22                         # crypto_pwhash/argon2/argon2-core.h:85:22 @[ crypto_pwhash/argon2/argon2-fill-block-ref.c:58:5 @[ crypto_pwhash/argon2/argon2-fill-block-ref.c:230:13 ] ]
	movups	232(%rsp,%rcx,8), %xmm1
	.loc	2 85 19                         # crypto_pwhash/argon2/argon2-core.h:85:19 @[ crypto_pwhash/argon2/argon2-fill-block-ref.c:58:5 @[ crypto_pwhash/argon2/argon2-fill-block-ref.c:230:13 ] ]
	xorps	%xmm3, %xmm1
	movups	%xmm0, -16(%rax,%rcx,8)
	movups	%xmm1, (%rax,%rcx,8)
.Ltmp558:
	.loc	2 84 45 is_stmt 1               # crypto_pwhash/argon2/argon2-core.h:84:45 @[ crypto_pwhash/argon2/argon2-fill-block-ref.c:58:5 @[ crypto_pwhash/argon2/argon2-fill-block-ref.c:230:13 ] ]
	addq	$8, %rcx
	cmpq	$128, %rcx
	jne	.LBB0_50
	jmp	.LBB0_15
.Ltmp559:
.LBB0_51:
	#DEBUG_VALUE: argon2_fill_segment_ref:position <- [DW_OP_plus_uconst 32, DW_OP_deref_size 8, DW_OP_constu 8, DW_OP_shr, DW_OP_LLVM_convert 64 7, DW_OP_LLVM_convert 24 7, DW_OP_stack_value, DW_OP_LLVM_fragment 72 24] $rsp
	#DEBUG_VALUE: argon2_fill_segment_ref:instance <- [DW_OP_plus_uconst 24] [$rsp+0]
	#DEBUG_VALUE: argon2_fill_segment_ref:position <- [DW_OP_plus_uconst 48, DW_OP_deref, DW_OP_LLVM_fragment 32 32] $rsp
	#DEBUG_VALUE: argon2_fill_segment_ref:position <- [DW_OP_plus_uconst 136, DW_OP_deref, DW_OP_LLVM_fragment 0 32] $rsp
	#DEBUG_VALUE: argon2_fill_segment_ref:position <- [DW_OP_plus_uconst 32, DW_OP_deref, DW_OP_LLVM_fragment 64 8] $rsp
	.loc	2 0 45 is_stmt 0                # crypto_pwhash/argon2/argon2-core.h:0:45
	addq	$4280, %rsp                     # imm = 0x10B8
	.cfi_def_cfa_offset 56
	popq	%rbx
	.cfi_def_cfa_offset 48
	popq	%r12
	.cfi_def_cfa_offset 40
	popq	%r13
	.cfi_def_cfa_offset 32
	popq	%r14
	.cfi_def_cfa_offset 24
	popq	%r15
	.cfi_def_cfa_offset 16
	popq	%rbp
	.cfi_def_cfa_offset 8
	.cfi_restore %rbx
	.cfi_restore %r12
	.cfi_restore %r13
	.cfi_restore %r14
	.cfi_restore %r15
	.cfi_restore %rbp
.Ltmp560:
.LBB0_52:                               # %.loopexit
	#DEBUG_VALUE: argon2_fill_segment_ref:instance <- [DW_OP_LLVM_entry_value 1] $rdi
	.loc	3 234 1 is_stmt 1               # crypto_pwhash/argon2/argon2-fill-block-ref.c:234:1
	retq
.Ltmp561:
.Lfunc_end0:
	.size	argon2_fill_segment_ref, .Lfunc_end0-argon2_fill_segment_ref
	.cfi_endproc
	.file	7 "/home/leizhenyuu/opt/Anonymous_Repo" "llvm-project/build/lib/clang/21/include/__stddef_size_t.h"
	.file	8 "/usr/include/x86_64-linux-gnu/bits" "types.h"
	.file	9 "/usr/include/x86_64-linux-gnu/bits" "stdint-uintn.h"
                                        # -- End function
	.p2align	4                               # -- Begin function fill_block_with_xor
	.type	fill_block_with_xor,@function
fill_block_with_xor:                    # @fill_block_with_xor
.Lfunc_begin1:
	.loc	3 64 0                          # crypto_pwhash/argon2/argon2-fill-block-ref.c:64:0
	.cfi_startproc
# %bb.0:                                # %vector.ph
	#DEBUG_VALUE: fill_block_with_xor:prev_block <- $rdi
	#DEBUG_VALUE: fill_block_with_xor:ref_block <- $rsi
	#DEBUG_VALUE: fill_block_with_xor:next_block <- $rdx
	pushq	%rbp
	.cfi_def_cfa_offset 16
	pushq	%r15
	.cfi_def_cfa_offset 24
	pushq	%r14
	.cfi_def_cfa_offset 32
	pushq	%r13
	.cfi_def_cfa_offset 40
	pushq	%r12
	.cfi_def_cfa_offset 48
	pushq	%rbx
	.cfi_def_cfa_offset 56
	subq	$2104, %rsp                     # imm = 0x838
	.cfi_def_cfa_offset 2160
	.cfi_offset %rbx, -56
	.cfi_offset %r12, -48
	.cfi_offset %r13, -40
	.cfi_offset %r14, -32
	.cfi_offset %r15, -24
	.cfi_offset %rbp, -16
	movq	%rdx, %rbx
	movq	%rdi, %r14
.Ltmp562:
