	.file	"argon2-fill-block-avx512f.c"
	.file	0 "/home/leizhenyuu/opt/Anonymous_Repo/libsodium_o2_attr_inline/src/libsodium" "argon2-fill-block-avx512f.c" md5 0x02f9f5a8c5fcaae24b8805cb28cd9adc
	.file	1 "crypto_pwhash/argon2" "argon2.h"
	.file	2 "crypto_pwhash/argon2" "argon2-core.h"
	.file	3 "/usr/include/x86_64-linux-gnu/bits" "types.h"
	.file	4 "/usr/include/x86_64-linux-gnu/bits" "stdint-uintn.h"
	.file	5 "/home/leizhenyuu/opt/Anonymous_Repo" "llvm-project/build/lib/clang/21/include/avx512fintrin.h"
	.section	.rodata,"a",@progbits
	.p2align	6, 0x0                          # -- Begin function argon2_fill_segment_avx512f
.LCPI0_0:
	.quad	0                               # 0x0
	.quad	1                               # 0x1
	.quad	2                               # 0x2
	.quad	3                               # 0x3
	.quad	11                              # 0xb
	.quad	8                               # 0x8
	.quad	9                               # 0x9
	.quad	10                              # 0xa
.LCPI0_1:
	.quad	4                               # 0x4
	.quad	5                               # 0x5
	.quad	6                               # 0x6
	.quad	7                               # 0x7
	.quad	15                              # 0xf
	.quad	12                              # 0xc
	.quad	13                              # 0xd
	.quad	14                              # 0xe
.LCPI0_2:
	.quad	2                               # 0x2
	.quad	3                               # 0x3
	.quad	0                               # 0x0
	.quad	1                               # 0x1
	.quad	9                               # 0x9
	.quad	10                              # 0xa
	.quad	11                              # 0xb
	.quad	8                               # 0x8
.LCPI0_3:
	.quad	6                               # 0x6
	.quad	7                               # 0x7
	.quad	4                               # 0x4
	.quad	5                               # 0x5
	.quad	13                              # 0xd
	.quad	14                              # 0xe
	.quad	15                              # 0xf
	.quad	12                              # 0xc
.LCPI0_4:
	.quad	0                               # 0x0
	.quad	1                               # 0x1
	.quad	8                               # 0x8
	.quad	9                               # 0x9
	.quad	2                               # 0x2
	.quad	3                               # 0x3
	.quad	10                              # 0xa
	.quad	11                              # 0xb
.LCPI0_5:
	.quad	4                               # 0x4
	.quad	5                               # 0x5
	.quad	12                              # 0xc
	.quad	13                              # 0xd
	.quad	6                               # 0x6
	.quad	7                               # 0x7
	.quad	14                              # 0xe
	.quad	15                              # 0xf
.LCPI0_6:
	.quad	3                               # 0x3
	.quad	0                               # 0x0
	.quad	7                               # 0x7
	.quad	4                               # 0x4
	.quad	11                              # 0xb
	.quad	8                               # 0x8
	.quad	15                              # 0xf
	.quad	12                              # 0xc
.LCPI0_7:
	.quad	1                               # 0x1
	.quad	2                               # 0x2
	.quad	5                               # 0x5
	.quad	6                               # 0x6
	.quad	9                               # 0x9
	.quad	10                              # 0xa
	.quad	13                              # 0xd
	.quad	14                              # 0xe
	.text
	.hidden	argon2_fill_segment_avx512f
	.globl	argon2_fill_segment_avx512f
	.p2align	4
	.type	argon2_fill_segment_avx512f,@function
argon2_fill_segment_avx512f:            # @argon2_fill_segment_avx512f
.Lfunc_begin0:
	.file	6 "crypto_pwhash/argon2" "argon2-fill-block-avx512f.c"
	.loc	6 153 0                         # crypto_pwhash/argon2/argon2-fill-block-avx512f.c:153:0
	.cfi_startproc
# %bb.0:
	#DEBUG_VALUE: argon2_fill_segment_avx512f:position <- [DW_OP_constu 8, DW_OP_shr, DW_OP_LLVM_convert 64 7, DW_OP_LLVM_convert 24 7, DW_OP_stack_value, DW_OP_LLVM_fragment 72 24] $rdx
	#DEBUG_VALUE: argon2_fill_segment_avx512f:instance <- $rdi
	pushq	%rbp
	.cfi_def_cfa_offset 16
	.cfi_offset %rbp, -16
	movq	%rsp, %rbp
	.cfi_def_cfa_register %rbp
	pushq	%r15
	pushq	%r14
	pushq	%r13
	pushq	%r12
	pushq	%rbx
	andq	$-64, %rsp
	subq	$6336, %rsp                     # imm = 0x18C0
	.cfi_offset %rbx, -56
	.cfi_offset %r12, -48
	.cfi_offset %r13, -40
	.cfi_offset %r14, -32
	.cfi_offset %r15, -24
	movq	%rdx, 64(%rsp)                  # 8-byte Spill
.Ltmp0:
	#DEBUG_VALUE: argon2_fill_segment_avx512f:position <- [DW_OP_plus_uconst 64, DW_OP_deref_size 8, DW_OP_constu 8, DW_OP_shr, DW_OP_LLVM_convert 64 7, DW_OP_LLVM_convert 24 7, DW_OP_stack_value, DW_OP_LLVM_fragment 72 24] $rsp
	#DEBUG_VALUE: argon2_fill_segment_avx512f:position <- [DW_OP_LLVM_fragment 32 32] undef
	#DEBUG_VALUE: argon2_fill_segment_avx512f:position <- [DW_OP_LLVM_fragment 0 32] $esi
	#DEBUG_VALUE: argon2_fill_segment_avx512f:position <- [DW_OP_plus_uconst 64, DW_OP_deref, DW_OP_LLVM_fragment 64 8] $rsp
	#DEBUG_VALUE: argon2_fill_segment_avx512f:position <- [DW_OP_plus_uconst 64, DW_OP_deref_size 8, DW_OP_constu 32, DW_OP_shr, DW_OP_LLVM_convert 64 7, DW_OP_LLVM_convert 32 7, DW_OP_stack_value, DW_OP_LLVM_fragment 96 32] $rsp
	#DEBUG_VALUE: argon2_fill_segment_avx512f:ref_block <- 0
	#DEBUG_VALUE: argon2_fill_segment_avx512f:curr_block <- 0
	#DEBUG_VALUE: argon2_fill_segment_avx512f:data_independent_addressing <- 1
	#DEBUG_VALUE: argon2_fill_segment_avx512f:pseudo_rands <- 0
	.loc	6 164 18 prologue_end           # crypto_pwhash/argon2/argon2-fill-block-avx512f.c:164:18
	testq	%rdi, %rdi
	je	.LBB0_45
.Ltmp1:
# %bb.1:
	#DEBUG_VALUE: argon2_fill_segment_avx512f:position <- [DW_OP_plus_uconst 64, DW_OP_deref_size 8, DW_OP_constu 8, DW_OP_shr, DW_OP_LLVM_convert 64 7, DW_OP_LLVM_convert 24 7, DW_OP_stack_value, DW_OP_LLVM_fragment 72 24] $rsp
	#DEBUG_VALUE: argon2_fill_segment_avx512f:instance <- $rdi
	#DEBUG_VALUE: argon2_fill_segment_avx512f:position <- [DW_OP_LLVM_fragment 0 32] $esi
	#DEBUG_VALUE: argon2_fill_segment_avx512f:position <- [DW_OP_plus_uconst 64, DW_OP_deref, DW_OP_LLVM_fragment 64 8] $rsp
	#DEBUG_VALUE: argon2_fill_segment_avx512f:position <- [DW_OP_plus_uconst 64, DW_OP_deref_size 8, DW_OP_constu 32, DW_OP_shr, DW_OP_LLVM_convert 64 7, DW_OP_LLVM_convert 32 7, DW_OP_stack_value, DW_OP_LLVM_fragment 96 32] $rsp
	#DEBUG_VALUE: argon2_fill_segment_avx512f:ref_block <- 0
	#DEBUG_VALUE: argon2_fill_segment_avx512f:curr_block <- 0
	#DEBUG_VALUE: argon2_fill_segment_avx512f:data_independent_addressing <- 1
	#DEBUG_VALUE: argon2_fill_segment_avx512f:pseudo_rands <- 0
	.loc	6 0 18 is_stmt 0                # crypto_pwhash/argon2/argon2-fill-block-avx512f.c:0:18
	movq	%rsi, %r8
	shrq	$32, %r8
.Ltmp2:
	#DEBUG_VALUE: argon2_fill_segment_avx512f:position <- [DW_OP_LLVM_fragment 32 32] $r8d
	.loc	6 168 19 is_stmt 1              # crypto_pwhash/argon2/argon2-fill-block-avx512f.c:168:19
	movl	44(%rdi), %eax
	cmpq	$2, %rax
	movq	%rsi, 96(%rsp)                  # 8-byte Spill
.Ltmp3:
	#DEBUG_VALUE: argon2_fill_segment_avx512f:position <- [DW_OP_plus_uconst 96, DW_OP_deref, DW_OP_LLVM_fragment 0 32] $rsp
	.loc	6 0 19 is_stmt 0                # crypto_pwhash/argon2/argon2-fill-block-avx512f.c:0:19
	movq	%rdi, 88(%rsp)                  # 8-byte Spill
.Ltmp4:
	#DEBUG_VALUE: argon2_fill_segment_avx512f:instance <- [DW_OP_plus_uconst 88] [$rsp+0]
	movq	%r8, 80(%rsp)                   # 8-byte Spill
	.loc	6 168 37                        # crypto_pwhash/argon2/argon2-fill-block-avx512f.c:168:37
	jne	.LBB0_4
.Ltmp5:
# %bb.2:
	#DEBUG_VALUE: argon2_fill_segment_avx512f:position <- [DW_OP_plus_uconst 64, DW_OP_deref_size 8, DW_OP_constu 8, DW_OP_shr, DW_OP_LLVM_convert 64 7, DW_OP_LLVM_convert 24 7, DW_OP_stack_value, DW_OP_LLVM_fragment 72 24] $rsp
	#DEBUG_VALUE: argon2_fill_segment_avx512f:instance <- [DW_OP_plus_uconst 88] [$rsp+0]
	#DEBUG_VALUE: argon2_fill_segment_avx512f:position <- [DW_OP_plus_uconst 80, DW_OP_deref, DW_OP_LLVM_fragment 32 32] $rsp
	#DEBUG_VALUE: argon2_fill_segment_avx512f:position <- [DW_OP_plus_uconst 96, DW_OP_deref, DW_OP_LLVM_fragment 0 32] $rsp
	#DEBUG_VALUE: argon2_fill_segment_avx512f:position <- [DW_OP_plus_uconst 64, DW_OP_deref, DW_OP_LLVM_fragment 64 8] $rsp
	#DEBUG_VALUE: argon2_fill_segment_avx512f:position <- [DW_OP_plus_uconst 64, DW_OP_deref_size 8, DW_OP_constu 32, DW_OP_shr, DW_OP_LLVM_convert 64 7, DW_OP_LLVM_convert 32 7, DW_OP_stack_value, DW_OP_LLVM_fragment 96 32] $rsp
	#DEBUG_VALUE: argon2_fill_segment_avx512f:ref_block <- 0
	#DEBUG_VALUE: argon2_fill_segment_avx512f:curr_block <- 0
	#DEBUG_VALUE: argon2_fill_segment_avx512f:data_independent_addressing <- 1
	#DEBUG_VALUE: argon2_fill_segment_avx512f:pseudo_rands <- 0
	.loc	6 169 24 is_stmt 1              # crypto_pwhash/argon2/argon2-fill-block-avx512f.c:169:24
	testl	%esi, %esi
	setne	%cl
	cmpb	$2, 64(%rsp)                    # 1-byte Folded Reload
	setae	%dl
	.loc	6 169 29 is_stmt 0              # crypto_pwhash/argon2/argon2-fill-block-avx512f.c:169:29
	orb	%cl, %dl
.Ltmp6:
	#DEBUG_VALUE: argon2_fill_segment_avx512f:data_independent_addressing <- undef
	.loc	6 173 30 is_stmt 1              # crypto_pwhash/argon2/argon2-fill-block-avx512f.c:173:30
	movq	8(%rdi), %rcx
.Ltmp7:
	#DEBUG_VALUE: argon2_fill_segment_avx512f:pseudo_rands <- $rcx
	.loc	6 0 30 is_stmt 0                # crypto_pwhash/argon2/argon2-fill-block-avx512f.c:0:30
	movq	%rcx, 104(%rsp)                 # 8-byte Spill
.Ltmp8:
	#DEBUG_VALUE: argon2_fill_segment_avx512f:pseudo_rands <- [DW_OP_plus_uconst 104, DW_OP_deref] $rsp
	.loc	6 175 9 is_stmt 1               # crypto_pwhash/argon2/argon2-fill-block-avx512f.c:175:9
	cmpb	$1, %dl
	jne	.LBB0_5
.Ltmp9:
# %bb.3:                                # %._crit_edge
	#DEBUG_VALUE: argon2_fill_segment_avx512f:position <- [DW_OP_plus_uconst 64, DW_OP_deref_size 8, DW_OP_constu 8, DW_OP_shr, DW_OP_LLVM_convert 64 7, DW_OP_LLVM_convert 24 7, DW_OP_stack_value, DW_OP_LLVM_fragment 72 24] $rsp
	#DEBUG_VALUE: argon2_fill_segment_avx512f:instance <- [DW_OP_plus_uconst 88] [$rsp+0]
	#DEBUG_VALUE: argon2_fill_segment_avx512f:position <- [DW_OP_plus_uconst 80, DW_OP_deref, DW_OP_LLVM_fragment 32 32] $rsp
	#DEBUG_VALUE: argon2_fill_segment_avx512f:position <- [DW_OP_plus_uconst 96, DW_OP_deref, DW_OP_LLVM_fragment 0 32] $rsp
	#DEBUG_VALUE: argon2_fill_segment_avx512f:position <- [DW_OP_plus_uconst 64, DW_OP_deref, DW_OP_LLVM_fragment 64 8] $rsp
	#DEBUG_VALUE: argon2_fill_segment_avx512f:position <- [DW_OP_plus_uconst 64, DW_OP_deref_size 8, DW_OP_constu 32, DW_OP_shr, DW_OP_LLVM_convert 64 7, DW_OP_LLVM_convert 32 7, DW_OP_stack_value, DW_OP_LLVM_fragment 96 32] $rsp
	#DEBUG_VALUE: argon2_fill_segment_avx512f:ref_block <- 0
	#DEBUG_VALUE: argon2_fill_segment_avx512f:curr_block <- 0
	#DEBUG_VALUE: argon2_fill_segment_avx512f:pseudo_rands <- [DW_OP_plus_uconst 104, DW_OP_deref] $rsp
	.loc	6 187 46                        # crypto_pwhash/argon2/argon2-fill-block-avx512f.c:187:46
	movl	28(%rdi), %ebx
	movb	$1, %al
	movl	%eax, 76(%rsp)                  # 4-byte Spill
.Ltmp10:
	.loc	6 175 9                         # crypto_pwhash/argon2/argon2-fill-block-avx512f.c:175:9
	jmp	.LBB0_13
.Ltmp11:
.LBB0_4:                                # %.thread
	#DEBUG_VALUE: argon2_fill_segment_avx512f:position <- [DW_OP_plus_uconst 64, DW_OP_deref_size 8, DW_OP_constu 8, DW_OP_shr, DW_OP_LLVM_convert 64 7, DW_OP_LLVM_convert 24 7, DW_OP_stack_value, DW_OP_LLVM_fragment 72 24] $rsp
	#DEBUG_VALUE: argon2_fill_segment_avx512f:instance <- [DW_OP_plus_uconst 88] [$rsp+0]
	#DEBUG_VALUE: argon2_fill_segment_avx512f:position <- [DW_OP_plus_uconst 80, DW_OP_deref, DW_OP_LLVM_fragment 32 32] $rsp
	#DEBUG_VALUE: argon2_fill_segment_avx512f:position <- [DW_OP_plus_uconst 96, DW_OP_deref, DW_OP_LLVM_fragment 0 32] $rsp
	#DEBUG_VALUE: argon2_fill_segment_avx512f:position <- [DW_OP_plus_uconst 64, DW_OP_deref, DW_OP_LLVM_fragment 64 8] $rsp
	#DEBUG_VALUE: argon2_fill_segment_avx512f:position <- [DW_OP_plus_uconst 64, DW_OP_deref_size 8, DW_OP_constu 32, DW_OP_shr, DW_OP_LLVM_convert 64 7, DW_OP_LLVM_convert 32 7, DW_OP_stack_value, DW_OP_LLVM_fragment 96 32] $rsp
	#DEBUG_VALUE: argon2_fill_segment_avx512f:ref_block <- 0
	#DEBUG_VALUE: argon2_fill_segment_avx512f:curr_block <- 0
	#DEBUG_VALUE: argon2_fill_segment_avx512f:data_independent_addressing <- 1
	#DEBUG_VALUE: argon2_fill_segment_avx512f:pseudo_rands <- 0
	#DEBUG_VALUE: argon2_fill_segment_avx512f:data_independent_addressing <- undef
	.loc	6 173 30                        # crypto_pwhash/argon2/argon2-fill-block-avx512f.c:173:30
	movq	8(%rdi), %rcx
.Ltmp12:
	#DEBUG_VALUE: argon2_fill_segment_avx512f:pseudo_rands <- $rcx
	.loc	6 0 30 is_stmt 0                # crypto_pwhash/argon2/argon2-fill-block-avx512f.c:0:30
	movq	%rcx, 104(%rsp)                 # 8-byte Spill
.Ltmp13:
	#DEBUG_VALUE: argon2_fill_segment_avx512f:pseudo_rands <- [DW_OP_plus_uconst 104, DW_OP_deref] $rsp
.LBB0_5:
	#DEBUG_VALUE: argon2_fill_segment_avx512f:position <- [DW_OP_plus_uconst 64, DW_OP_deref_size 8, DW_OP_constu 8, DW_OP_shr, DW_OP_LLVM_convert 64 7, DW_OP_LLVM_convert 24 7, DW_OP_stack_value, DW_OP_LLVM_fragment 72 24] $rsp
	#DEBUG_VALUE: argon2_fill_segment_avx512f:instance <- [DW_OP_plus_uconst 88] [$rsp+0]
	#DEBUG_VALUE: argon2_fill_segment_avx512f:position <- [DW_OP_plus_uconst 80, DW_OP_deref, DW_OP_LLVM_fragment 32 32] $rsp
	#DEBUG_VALUE: argon2_fill_segment_avx512f:position <- [DW_OP_plus_uconst 96, DW_OP_deref, DW_OP_LLVM_fragment 0 32] $rsp
	#DEBUG_VALUE: argon2_fill_segment_avx512f:position <- [DW_OP_plus_uconst 64, DW_OP_deref, DW_OP_LLVM_fragment 64 8] $rsp
	#DEBUG_VALUE: argon2_fill_segment_avx512f:position <- [DW_OP_plus_uconst 64, DW_OP_deref_size 8, DW_OP_constu 32, DW_OP_shr, DW_OP_LLVM_convert 64 7, DW_OP_LLVM_convert 32 7, DW_OP_stack_value, DW_OP_LLVM_fragment 96 32] $rsp
	#DEBUG_VALUE: argon2_fill_segment_avx512f:ref_block <- 0
	#DEBUG_VALUE: argon2_fill_segment_avx512f:curr_block <- 0
	#DEBUG_VALUE: argon2_fill_segment_avx512f:pseudo_rands <- $rcx
	#DEBUG_VALUE: zero2_block <- [DW_OP_plus_uconst 2176, DW_OP_deref] $rsp
	#DEBUG_VALUE: generate_addresses:instance <- [DW_OP_plus_uconst 88, DW_OP_deref] $rsp
	#DEBUG_VALUE: generate_addresses:position <- undef
	#DEBUG_VALUE: generate_addresses:pseudo_rands <- [DW_OP_plus_uconst 104, DW_OP_deref] $rsp
	#DEBUG_VALUE: init_block_value:b <- [DW_OP_plus_uconst 128, DW_OP_stack_value] $rsp
	#DEBUG_VALUE: init_block_value:in <- 0
	#DEBUG_VALUE: memset:__dest <- [DW_OP_plus_uconst 128, DW_OP_stack_value] $rsp
	#DEBUG_VALUE: memset:__ch <- 0
	#DEBUG_VALUE: memset:__len <- 1024
	.file	7 "/usr/include/x86_64-linux-gnu/bits" "string_fortified.h"
	.loc	7 59 10 is_stmt 1               # /usr/include/x86_64-linux-gnu/bits/string_fortified.h:59:10 @[ crypto_pwhash/argon2/argon2-core.h:69:5 @[ crypto_pwhash/argon2/argon2-fill-block-avx512f.c:114:5 @[ crypto_pwhash/argon2/argon2-fill-block-avx512f.c:176:9 ] ] ]
	vpxor	%xmm0, %xmm0, %xmm0
	vmovdqa64	%zmm0, 128(%rsp)
	vmovdqa64	%zmm0, 192(%rsp)
	vmovdqa64	%zmm0, 256(%rsp)
	vmovdqa64	%zmm0, 320(%rsp)
	vmovdqa64	%zmm0, 384(%rsp)
	vmovdqa64	%zmm0, 448(%rsp)
	vmovdqa64	%zmm0, 512(%rsp)
	vmovdqa64	%zmm0, 576(%rsp)
	vmovdqa64	%zmm0, 640(%rsp)
	vmovdqa64	%zmm0, 704(%rsp)
	vmovdqa64	%zmm0, 768(%rsp)
	vmovdqa64	%zmm0, 832(%rsp)
	vmovdqa64	%zmm0, 896(%rsp)
	vmovdqa64	%zmm0, 960(%rsp)
	vmovdqa64	%zmm0, 1024(%rsp)
	vmovdqa64	%zmm0, 1088(%rsp)
.Ltmp14:
	#DEBUG_VALUE: init_block_value:b <- [DW_OP_plus_uconst 1152, DW_OP_stack_value] $rsp
	#DEBUG_VALUE: init_block_value:in <- 0
	#DEBUG_VALUE: memset:__dest <- [DW_OP_plus_uconst 1152, DW_OP_stack_value] $rsp
	#DEBUG_VALUE: memset:__ch <- 0
	#DEBUG_VALUE: memset:__len <- 1024
	.loc	7 59 10 is_stmt 0               # /usr/include/x86_64-linux-gnu/bits/string_fortified.h:59:10 @[ crypto_pwhash/argon2/argon2-core.h:69:5 @[ crypto_pwhash/argon2/argon2-fill-block-avx512f.c:115:5 @[ crypto_pwhash/argon2/argon2-fill-block-avx512f.c:176:9 ] ] ]
	vmovdqu64	%zmm0, 1208(%rsp)
	vmovdqu64	%zmm0, 1272(%rsp)
	vmovdqu64	%zmm0, 1336(%rsp)
	vmovdqu64	%zmm0, 1400(%rsp)
	vmovdqu64	%zmm0, 1464(%rsp)
	vmovdqu64	%zmm0, 1528(%rsp)
	vmovdqu64	%zmm0, 1592(%rsp)
	vmovdqu64	%zmm0, 1656(%rsp)
	vmovdqu64	%zmm0, 1720(%rsp)
	vmovdqu64	%zmm0, 1784(%rsp)
	vmovdqu64	%zmm0, 1848(%rsp)
	vmovdqu64	%zmm0, 1912(%rsp)
	vmovdqu64	%zmm0, 1976(%rsp)
	vmovdqu64	%zmm0, 2040(%rsp)
	vmovdqu64	%zmm0, 2104(%rsp)
	movq	$0, 2168(%rsp)
.Ltmp15:
	.loc	6 118 28 is_stmt 1              # crypto_pwhash/argon2/argon2-fill-block-avx512f.c:118:28 @[ crypto_pwhash/argon2/argon2-fill-block-avx512f.c:176:9 ]
	movl	%esi, %ecx
.Ltmp16:
	.loc	6 118 26 is_stmt 0              # crypto_pwhash/argon2/argon2-fill-block-avx512f.c:118:26 @[ crypto_pwhash/argon2/argon2-fill-block-avx512f.c:176:9 ]
	movq	%rcx, 1152(%rsp)
	.loc	6 119 26 is_stmt 1              # crypto_pwhash/argon2/argon2-fill-block-avx512f.c:119:26 @[ crypto_pwhash/argon2/argon2-fill-block-avx512f.c:176:9 ]
	movq	%r8, 1160(%rsp)
	.loc	6 120 28                        # crypto_pwhash/argon2/argon2-fill-block-avx512f.c:120:28 @[ crypto_pwhash/argon2/argon2-fill-block-avx512f.c:176:9 ]
	movzbl	64(%rsp), %ecx                  # 1-byte Folded Reload
	.loc	6 120 26 is_stmt 0              # crypto_pwhash/argon2/argon2-fill-block-avx512f.c:120:26 @[ crypto_pwhash/argon2/argon2-fill-block-avx512f.c:176:9 ]
	movq	%rcx, 1168(%rsp)
	.loc	6 121 38 is_stmt 1              # crypto_pwhash/argon2/argon2-fill-block-avx512f.c:121:38 @[ crypto_pwhash/argon2/argon2-fill-block-avx512f.c:176:9 ]
	movl	24(%rdi), %ecx
	.loc	6 121 26 is_stmt 0              # crypto_pwhash/argon2/argon2-fill-block-avx512f.c:121:26 @[ crypto_pwhash/argon2/argon2-fill-block-avx512f.c:176:9 ]
	movq	%rcx, 1176(%rsp)
	.loc	6 122 38 is_stmt 1              # crypto_pwhash/argon2/argon2-fill-block-avx512f.c:122:38 @[ crypto_pwhash/argon2/argon2-fill-block-avx512f.c:176:9 ]
	movl	16(%rdi), %ecx
	.loc	6 122 26 is_stmt 0              # crypto_pwhash/argon2/argon2-fill-block-avx512f.c:122:26 @[ crypto_pwhash/argon2/argon2-fill-block-avx512f.c:176:9 ]
	movq	%rcx, 1184(%rsp)
	.loc	6 123 26 is_stmt 1              # crypto_pwhash/argon2/argon2-fill-block-avx512f.c:123:26 @[ crypto_pwhash/argon2/argon2-fill-block-avx512f.c:176:9 ]
	movq	%rax, 1192(%rsp)
.Ltmp17:
	#DEBUG_VALUE: generate_addresses:i <- 0
	.loc	6 125 23                        # crypto_pwhash/argon2/argon2-fill-block-avx512f.c:125:23 @[ crypto_pwhash/argon2/argon2-fill-block-avx512f.c:176:9 ]
	cmpl	$0, 28(%rdi)
.Ltmp18:
	.loc	6 125 9 is_stmt 0               # crypto_pwhash/argon2/argon2-fill-block-avx512f.c:125:9 @[ crypto_pwhash/argon2/argon2-fill-block-avx512f.c:176:9 ]
	je	.LBB0_11
.Ltmp19:
# %bb.6:                                # %.lr.ph.i
	#DEBUG_VALUE: argon2_fill_segment_avx512f:position <- [DW_OP_plus_uconst 64, DW_OP_deref_size 8, DW_OP_constu 8, DW_OP_shr, DW_OP_LLVM_convert 64 7, DW_OP_LLVM_convert 24 7, DW_OP_stack_value, DW_OP_LLVM_fragment 72 24] $rsp
	#DEBUG_VALUE: argon2_fill_segment_avx512f:instance <- [DW_OP_plus_uconst 88] [$rsp+0]
	#DEBUG_VALUE: argon2_fill_segment_avx512f:position <- [DW_OP_plus_uconst 80, DW_OP_deref, DW_OP_LLVM_fragment 32 32] $rsp
	#DEBUG_VALUE: argon2_fill_segment_avx512f:position <- [DW_OP_plus_uconst 96, DW_OP_deref, DW_OP_LLVM_fragment 0 32] $rsp
	#DEBUG_VALUE: argon2_fill_segment_avx512f:position <- [DW_OP_plus_uconst 64, DW_OP_deref, DW_OP_LLVM_fragment 64 8] $rsp
	#DEBUG_VALUE: argon2_fill_segment_avx512f:position <- [DW_OP_plus_uconst 64, DW_OP_deref_size 8, DW_OP_constu 32, DW_OP_shr, DW_OP_LLVM_convert 64 7, DW_OP_LLVM_convert 32 7, DW_OP_stack_value, DW_OP_LLVM_fragment 96 32] $rsp
	#DEBUG_VALUE: argon2_fill_segment_avx512f:ref_block <- 0
	#DEBUG_VALUE: argon2_fill_segment_avx512f:curr_block <- 0
	#DEBUG_VALUE: zero2_block <- [DW_OP_plus_uconst 2176, DW_OP_deref] $rsp
	#DEBUG_VALUE: generate_addresses:instance <- [DW_OP_plus_uconst 88, DW_OP_deref] $rsp
	#DEBUG_VALUE: generate_addresses:pseudo_rands <- [DW_OP_plus_uconst 104, DW_OP_deref] $rsp
	#DEBUG_VALUE: init_block_value:b <- [DW_OP_plus_uconst 128, DW_OP_stack_value] $rsp
	#DEBUG_VALUE: init_block_value:in <- 0
	#DEBUG_VALUE: memset:__dest <- [DW_OP_plus_uconst 128, DW_OP_stack_value] $rsp
	#DEBUG_VALUE: memset:__ch <- 0
	#DEBUG_VALUE: memset:__len <- 1024
	#DEBUG_VALUE: init_block_value:b <- [DW_OP_plus_uconst 1152, DW_OP_stack_value] $rsp
	#DEBUG_VALUE: init_block_value:in <- 0
	#DEBUG_VALUE: memset:__dest <- [DW_OP_plus_uconst 1152, DW_OP_stack_value] $rsp
	#DEBUG_VALUE: memset:__ch <- 0
	#DEBUG_VALUE: memset:__len <- 1024
	#DEBUG_VALUE: generate_addresses:i <- 0
	.loc	6 0 9                           # crypto_pwhash/argon2/argon2-fill-block-avx512f.c:0:9
	xorl	%r15d, %r15d
	leaq	4224(%rsp), %r14
	leaq	128(%rsp), %r12
	xorl	%r13d, %r13d
	jmp	.LBB0_8
.Ltmp20:
	.p2align	4
.LBB0_7:                                #   in Loop: Header=BB0_8 Depth=1
	#DEBUG_VALUE: argon2_fill_segment_avx512f:position <- [DW_OP_plus_uconst 64, DW_OP_deref_size 8, DW_OP_constu 8, DW_OP_shr, DW_OP_LLVM_convert 64 7, DW_OP_LLVM_convert 24 7, DW_OP_stack_value, DW_OP_LLVM_fragment 72 24] $rsp
	#DEBUG_VALUE: argon2_fill_segment_avx512f:instance <- [DW_OP_plus_uconst 88] [$rsp+0]
	#DEBUG_VALUE: argon2_fill_segment_avx512f:position <- [DW_OP_plus_uconst 80, DW_OP_deref, DW_OP_LLVM_fragment 32 32] $rsp
	#DEBUG_VALUE: argon2_fill_segment_avx512f:position <- [DW_OP_plus_uconst 96, DW_OP_deref, DW_OP_LLVM_fragment 0 32] $rsp
	#DEBUG_VALUE: argon2_fill_segment_avx512f:position <- [DW_OP_plus_uconst 64, DW_OP_deref, DW_OP_LLVM_fragment 64 8] $rsp
	#DEBUG_VALUE: argon2_fill_segment_avx512f:position <- [DW_OP_plus_uconst 64, DW_OP_deref_size 8, DW_OP_constu 32, DW_OP_shr, DW_OP_LLVM_convert 64 7, DW_OP_LLVM_convert 32 7, DW_OP_stack_value, DW_OP_LLVM_fragment 96 32] $rsp
	#DEBUG_VALUE: argon2_fill_segment_avx512f:ref_block <- 0
	#DEBUG_VALUE: argon2_fill_segment_avx512f:curr_block <- 0
	#DEBUG_VALUE: generate_addresses:instance <- [DW_OP_plus_uconst 88, DW_OP_deref] $rsp
	#DEBUG_VALUE: generate_addresses:pseudo_rands <- [DW_OP_plus_uconst 104, DW_OP_deref] $rsp
	#DEBUG_VALUE: generate_addresses:i <- $r15
	.loc	6 145 31 is_stmt 1              # crypto_pwhash/argon2/argon2-fill-block-avx512f.c:145:31 @[ crypto_pwhash/argon2/argon2-fill-block-avx512f.c:176:9 ]
	movq	128(%rsp,%rbx,8), %rax
	movq	104(%rsp), %rcx                 # 8-byte Reload
	.loc	6 145 29 is_stmt 0              # crypto_pwhash/argon2/argon2-fill-block-avx512f.c:145:29 @[ crypto_pwhash/argon2/argon2-fill-block-avx512f.c:176:9 ]
	movq	%rax, (%rcx,%r15,8)
.Ltmp21:
	.loc	6 125 51 is_stmt 1              # crypto_pwhash/argon2/argon2-fill-block-avx512f.c:125:51 @[ crypto_pwhash/argon2/argon2-fill-block-avx512f.c:176:9 ]
	incq	%r15
.Ltmp22:
	#DEBUG_VALUE: generate_addresses:i <- $r15
	.loc	6 125 35 is_stmt 0              # crypto_pwhash/argon2/argon2-fill-block-avx512f.c:125:35 @[ crypto_pwhash/argon2/argon2-fill-block-avx512f.c:176:9 ]
	movl	28(%rdi), %ebx
	.loc	6 125 23                        # crypto_pwhash/argon2/argon2-fill-block-avx512f.c:125:23 @[ crypto_pwhash/argon2/argon2-fill-block-avx512f.c:176:9 ]
	cmpq	%rbx, %r15
.Ltmp23:
	.loc	6 125 9                         # crypto_pwhash/argon2/argon2-fill-block-avx512f.c:125:9 @[ crypto_pwhash/argon2/argon2-fill-block-avx512f.c:176:9 ]
	jae	.LBB0_10
.Ltmp24:
.LBB0_8:                                # =>This Inner Loop Header: Depth=1
	#DEBUG_VALUE: argon2_fill_segment_avx512f:position <- [DW_OP_plus_uconst 64, DW_OP_deref_size 8, DW_OP_constu 8, DW_OP_shr, DW_OP_LLVM_convert 64 7, DW_OP_LLVM_convert 24 7, DW_OP_stack_value, DW_OP_LLVM_fragment 72 24] $rsp
	#DEBUG_VALUE: argon2_fill_segment_avx512f:instance <- [DW_OP_plus_uconst 88] [$rsp+0]
	#DEBUG_VALUE: argon2_fill_segment_avx512f:position <- [DW_OP_plus_uconst 80, DW_OP_deref, DW_OP_LLVM_fragment 32 32] $rsp
	#DEBUG_VALUE: argon2_fill_segment_avx512f:position <- [DW_OP_plus_uconst 96, DW_OP_deref, DW_OP_LLVM_fragment 0 32] $rsp
	#DEBUG_VALUE: argon2_fill_segment_avx512f:position <- [DW_OP_plus_uconst 64, DW_OP_deref, DW_OP_LLVM_fragment 64 8] $rsp
	#DEBUG_VALUE: argon2_fill_segment_avx512f:position <- [DW_OP_plus_uconst 64, DW_OP_deref_size 8, DW_OP_constu 32, DW_OP_shr, DW_OP_LLVM_convert 64 7, DW_OP_LLVM_convert 32 7, DW_OP_stack_value, DW_OP_LLVM_fragment 96 32] $rsp
	#DEBUG_VALUE: argon2_fill_segment_avx512f:ref_block <- 0
	#DEBUG_VALUE: argon2_fill_segment_avx512f:curr_block <- 0
	#DEBUG_VALUE: generate_addresses:instance <- [DW_OP_plus_uconst 88, DW_OP_deref] $rsp
	#DEBUG_VALUE: generate_addresses:pseudo_rands <- [DW_OP_plus_uconst 104, DW_OP_deref] $rsp
	#DEBUG_VALUE: generate_addresses:i <- $r15
	.loc	6 126 47 is_stmt 1              # crypto_pwhash/argon2/argon2-fill-block-avx512f.c:126:47 @[ crypto_pwhash/argon2/argon2-fill-block-avx512f.c:176:9 ]
	movq	%r15, %rbx
	andq	$127, %rbx
	jne	.LBB0_7
.Ltmp25:
# %bb.9:                                #   in Loop: Header=BB0_8 Depth=1
	#DEBUG_VALUE: argon2_fill_segment_avx512f:position <- [DW_OP_plus_uconst 64, DW_OP_deref_size 8, DW_OP_constu 8, DW_OP_shr, DW_OP_LLVM_convert 64 7, DW_OP_LLVM_convert 24 7, DW_OP_stack_value, DW_OP_LLVM_fragment 72 24] $rsp
	#DEBUG_VALUE: argon2_fill_segment_avx512f:instance <- [DW_OP_plus_uconst 88] [$rsp+0]
	#DEBUG_VALUE: argon2_fill_segment_avx512f:position <- [DW_OP_plus_uconst 80, DW_OP_deref, DW_OP_LLVM_fragment 32 32] $rsp
	#DEBUG_VALUE: argon2_fill_segment_avx512f:position <- [DW_OP_plus_uconst 96, DW_OP_deref, DW_OP_LLVM_fragment 0 32] $rsp
	#DEBUG_VALUE: argon2_fill_segment_avx512f:position <- [DW_OP_plus_uconst 64, DW_OP_deref, DW_OP_LLVM_fragment 64 8] $rsp
	#DEBUG_VALUE: argon2_fill_segment_avx512f:position <- [DW_OP_plus_uconst 64, DW_OP_deref_size 8, DW_OP_constu 32, DW_OP_shr, DW_OP_LLVM_convert 64 7, DW_OP_LLVM_convert 32 7, DW_OP_stack_value, DW_OP_LLVM_fragment 96 32] $rsp
	#DEBUG_VALUE: argon2_fill_segment_avx512f:ref_block <- 0
	#DEBUG_VALUE: argon2_fill_segment_avx512f:curr_block <- 0
	#DEBUG_VALUE: generate_addresses:instance <- [DW_OP_plus_uconst 88, DW_OP_deref] $rsp
	#DEBUG_VALUE: generate_addresses:pseudo_rands <- [DW_OP_plus_uconst 104, DW_OP_deref] $rsp
	#DEBUG_VALUE: init_block_value:b <- [DW_OP_plus_uconst 128, DW_OP_stack_value] $rsp
	#DEBUG_VALUE: init_block_value:in <- 0
	#DEBUG_VALUE: memset:__dest <- [DW_OP_plus_uconst 128, DW_OP_stack_value] $rsp
	#DEBUG_VALUE: memset:__ch <- 0
	#DEBUG_VALUE: memset:__len <- 1024
	#DEBUG_VALUE: generate_addresses:i <- $r15
	#DEBUG_VALUE: memset:__dest <- [DW_OP_plus_uconst 3200, DW_OP_stack_value] $rsp
	#DEBUG_VALUE: memset:__ch <- 0
	#DEBUG_VALUE: memset:__len <- 1024
	.loc	7 59 10                         # /usr/include/x86_64-linux-gnu/bits/string_fortified.h:59:10 @[ crypto_pwhash/argon2/argon2-core.h:69:5 @[ crypto_pwhash/argon2/argon2-fill-block-avx512f.c:114:5 @[ crypto_pwhash/argon2/argon2-fill-block-avx512f.c:176:9 ] ] ]
	vpxor	%xmm0, %xmm0, %xmm0
.Ltmp26:
	.loc	7 59 10 is_stmt 0               # /usr/include/x86_64-linux-gnu/bits/string_fortified.h:59:10 @[ crypto_pwhash/argon2/argon2-fill-block-avx512f.c:131:17 @[ crypto_pwhash/argon2/argon2-fill-block-avx512f.c:176:9 ] ]
	vmovdqa64	%zmm0, 3200(%rsp)
	vmovdqa64	%zmm0, 3264(%rsp)
	vmovdqa64	%zmm0, 3328(%rsp)
	vmovdqa64	%zmm0, 3392(%rsp)
	vmovdqa64	%zmm0, 3456(%rsp)
	vmovdqa64	%zmm0, 3520(%rsp)
	vmovdqa64	%zmm0, 3584(%rsp)
	vmovdqa64	%zmm0, 3648(%rsp)
	vmovdqa64	%zmm0, 3712(%rsp)
	vmovdqa64	%zmm0, 3776(%rsp)
	vmovdqa64	%zmm0, 3840(%rsp)
	vmovdqa64	%zmm0, 3904(%rsp)
	vmovdqa64	%zmm0, 3968(%rsp)
	vmovdqa64	%zmm0, 4032(%rsp)
	vmovdqa64	%zmm0, 4096(%rsp)
	vmovdqa64	%zmm0, 4160(%rsp)
.Ltmp27:
	#DEBUG_VALUE: memset:__dest <- [DW_OP_plus_uconst 2176, DW_OP_stack_value] $rsp
	#DEBUG_VALUE: memset:__ch <- 0
	#DEBUG_VALUE: memset:__len <- 1024
	.loc	7 59 10                         # /usr/include/x86_64-linux-gnu/bits/string_fortified.h:59:10 @[ crypto_pwhash/argon2/argon2-fill-block-avx512f.c:132:17 @[ crypto_pwhash/argon2/argon2-fill-block-avx512f.c:176:9 ] ]
	vmovdqa64	%zmm0, 2176(%rsp)
	vmovdqa64	%zmm0, 2240(%rsp)
	vmovdqa64	%zmm0, 2304(%rsp)
	vmovdqa64	%zmm0, 2368(%rsp)
	vmovdqa64	%zmm0, 2432(%rsp)
	vmovdqa64	%zmm0, 2496(%rsp)
	vmovdqa64	%zmm0, 2560(%rsp)
	vmovdqa64	%zmm0, 2624(%rsp)
	vmovdqa64	%zmm0, 2688(%rsp)
	vmovdqa64	%zmm0, 2752(%rsp)
	vmovdqa64	%zmm0, 2816(%rsp)
	vmovdqa64	%zmm0, 2880(%rsp)
	vmovdqa64	%zmm0, 2944(%rsp)
	vmovdqa64	%zmm0, 3008(%rsp)
	vmovdqa64	%zmm0, 3072(%rsp)
	vmovdqa64	%zmm0, 3136(%rsp)
.Ltmp28:
	#DEBUG_VALUE: zero2_block <- [DW_OP_plus_uconst 2176, DW_OP_deref] $rsp
	#DEBUG_VALUE: init_block_value:b <- [DW_OP_plus_uconst 128, DW_OP_stack_value] $rsp
	#DEBUG_VALUE: init_block_value:in <- 0
	#DEBUG_VALUE: memset:__dest <- [DW_OP_plus_uconst 128, DW_OP_stack_value] $rsp
	#DEBUG_VALUE: memset:__ch <- 0
	#DEBUG_VALUE: memset:__len <- 1024
	.loc	7 59 10                         # /usr/include/x86_64-linux-gnu/bits/string_fortified.h:59:10 @[ crypto_pwhash/argon2/argon2-core.h:69:5 @[ crypto_pwhash/argon2/argon2-fill-block-avx512f.c:133:17 @[ crypto_pwhash/argon2/argon2-fill-block-avx512f.c:176:9 ] ] ]
	vmovdqa64	%zmm0, 1088(%rsp)
	vmovdqa64	%zmm0, 1024(%rsp)
	vmovdqa64	%zmm0, 960(%rsp)
	vmovdqa64	%zmm0, 896(%rsp)
	vmovdqa64	%zmm0, 832(%rsp)
	vmovdqa64	%zmm0, 768(%rsp)
	vmovdqa64	%zmm0, 704(%rsp)
	vmovdqa64	%zmm0, 640(%rsp)
	vmovdqa64	%zmm0, 576(%rsp)
	vmovdqa64	%zmm0, 512(%rsp)
	vmovdqa64	%zmm0, 448(%rsp)
	vmovdqa64	%zmm0, 384(%rsp)
	vmovdqa64	%zmm0, 320(%rsp)
	vmovdqa64	%zmm0, 256(%rsp)
	vmovdqa64	%zmm0, 192(%rsp)
	vmovdqa64	%zmm0, 128(%rsp)
.Ltmp29:
	#DEBUG_VALUE: init_block_value:b <- [DW_OP_plus_uconst 4224, DW_OP_stack_value] $rsp
	#DEBUG_VALUE: init_block_value:in <- 0
	#DEBUG_VALUE: memset:__dest <- [DW_OP_plus_uconst 4224, DW_OP_stack_value] $rsp
	#DEBUG_VALUE: memset:__ch <- 0
	#DEBUG_VALUE: memset:__len <- 1024
	.loc	7 59 10                         # /usr/include/x86_64-linux-gnu/bits/string_fortified.h:59:10 @[ crypto_pwhash/argon2/argon2-core.h:69:5 @[ crypto_pwhash/argon2/argon2-fill-block-avx512f.c:134:17 @[ crypto_pwhash/argon2/argon2-fill-block-avx512f.c:176:9 ] ] ]
	vmovdqa64	%zmm0, 5184(%rsp)
	vmovdqa64	%zmm0, 5120(%rsp)
	vmovdqa64	%zmm0, 5056(%rsp)
	vmovdqa64	%zmm0, 4992(%rsp)
	vmovdqa64	%zmm0, 4928(%rsp)
	vmovdqa64	%zmm0, 4864(%rsp)
	vmovdqa64	%zmm0, 4800(%rsp)
	vmovdqa64	%zmm0, 4736(%rsp)
	vmovdqa64	%zmm0, 4672(%rsp)
	vmovdqa64	%zmm0, 4608(%rsp)
	vmovdqa64	%zmm0, 4544(%rsp)
	vmovdqa64	%zmm0, 4480(%rsp)
	vmovdqa64	%zmm0, 4416(%rsp)
	vmovdqa64	%zmm0, 4352(%rsp)
	vmovdqa64	%zmm0, 4288(%rsp)
	vmovdqa64	%zmm0, 4224(%rsp)
.Ltmp30:
	.loc	6 136 33 is_stmt 1              # crypto_pwhash/argon2/argon2-fill-block-avx512f.c:136:33 @[ crypto_pwhash/argon2/argon2-fill-block-avx512f.c:176:9 ]
	incq	%r13
	movq	%r13, 1200(%rsp)
	.loc	6 138 17                        # crypto_pwhash/argon2/argon2-fill-block-avx512f.c:138:17 @[ crypto_pwhash/argon2/argon2-fill-block-avx512f.c:176:9 ]
	leaq	3200(%rsp), %rdi
	leaq	1152(%rsp), %rsi
	movq	%r14, %rdx
	vzeroupper
	callq	fill_block_with_xor
.Ltmp31:
	.loc	6 141 17                        # crypto_pwhash/argon2/argon2-fill-block-avx512f.c:141:17 @[ crypto_pwhash/argon2/argon2-fill-block-avx512f.c:176:9 ]
	leaq	2176(%rsp), %rdi
	movq	%r14, %rsi
	movq	%r12, %rdx
	callq	fill_block_with_xor
.Ltmp32:
	.loc	6 0 17 is_stmt 0                # crypto_pwhash/argon2/argon2-fill-block-avx512f.c:0:17
	movq	88(%rsp), %rdi                  # 8-byte Reload
	movq	96(%rsp), %rsi                  # 8-byte Reload
	jmp	.LBB0_7
.Ltmp33:
.LBB0_10:
	#DEBUG_VALUE: argon2_fill_segment_avx512f:position <- [DW_OP_plus_uconst 64, DW_OP_deref_size 8, DW_OP_constu 8, DW_OP_shr, DW_OP_LLVM_convert 64 7, DW_OP_LLVM_convert 24 7, DW_OP_stack_value, DW_OP_LLVM_fragment 72 24] $rsp
	#DEBUG_VALUE: argon2_fill_segment_avx512f:instance <- [DW_OP_plus_uconst 88] [$rsp+0]
	#DEBUG_VALUE: argon2_fill_segment_avx512f:position <- [DW_OP_plus_uconst 80, DW_OP_deref, DW_OP_LLVM_fragment 32 32] $rsp
	#DEBUG_VALUE: argon2_fill_segment_avx512f:position <- [DW_OP_plus_uconst 96, DW_OP_deref, DW_OP_LLVM_fragment 0 32] $rsp
	#DEBUG_VALUE: argon2_fill_segment_avx512f:position <- [DW_OP_plus_uconst 64, DW_OP_deref, DW_OP_LLVM_fragment 64 8] $rsp
	#DEBUG_VALUE: argon2_fill_segment_avx512f:position <- [DW_OP_plus_uconst 64, DW_OP_deref_size 8, DW_OP_constu 32, DW_OP_shr, DW_OP_LLVM_convert 64 7, DW_OP_LLVM_convert 32 7, DW_OP_stack_value, DW_OP_LLVM_fragment 96 32] $rsp
	#DEBUG_VALUE: argon2_fill_segment_avx512f:ref_block <- 0
	#DEBUG_VALUE: argon2_fill_segment_avx512f:curr_block <- 0
	#DEBUG_VALUE: generate_addresses:instance <- [DW_OP_plus_uconst 88, DW_OP_deref] $rsp
	#DEBUG_VALUE: generate_addresses:pseudo_rands <- [DW_OP_plus_uconst 104, DW_OP_deref] $rsp
	#DEBUG_VALUE: generate_addresses:i <- $r15
	movq	80(%rsp), %r8                   # 8-byte Reload
	jmp	.LBB0_12
.Ltmp34:
.LBB0_11:
	#DEBUG_VALUE: argon2_fill_segment_avx512f:position <- [DW_OP_plus_uconst 64, DW_OP_deref_size 8, DW_OP_constu 8, DW_OP_shr, DW_OP_LLVM_convert 64 7, DW_OP_LLVM_convert 24 7, DW_OP_stack_value, DW_OP_LLVM_fragment 72 24] $rsp
	#DEBUG_VALUE: argon2_fill_segment_avx512f:instance <- [DW_OP_plus_uconst 88] [$rsp+0]
	#DEBUG_VALUE: argon2_fill_segment_avx512f:position <- [DW_OP_plus_uconst 80, DW_OP_deref, DW_OP_LLVM_fragment 32 32] $rsp
	#DEBUG_VALUE: argon2_fill_segment_avx512f:position <- [DW_OP_plus_uconst 96, DW_OP_deref, DW_OP_LLVM_fragment 0 32] $rsp
	#DEBUG_VALUE: argon2_fill_segment_avx512f:position <- [DW_OP_plus_uconst 64, DW_OP_deref, DW_OP_LLVM_fragment 64 8] $rsp
	#DEBUG_VALUE: argon2_fill_segment_avx512f:position <- [DW_OP_plus_uconst 64, DW_OP_deref_size 8, DW_OP_constu 32, DW_OP_shr, DW_OP_LLVM_convert 64 7, DW_OP_LLVM_convert 32 7, DW_OP_stack_value, DW_OP_LLVM_fragment 96 32] $rsp
	#DEBUG_VALUE: argon2_fill_segment_avx512f:ref_block <- 0
	#DEBUG_VALUE: argon2_fill_segment_avx512f:curr_block <- 0
	#DEBUG_VALUE: zero2_block <- [DW_OP_plus_uconst 2176, DW_OP_deref] $rsp
	#DEBUG_VALUE: generate_addresses:instance <- [DW_OP_plus_uconst 88, DW_OP_deref] $rsp
	#DEBUG_VALUE: generate_addresses:pseudo_rands <- [DW_OP_plus_uconst 104, DW_OP_deref] $rsp
	#DEBUG_VALUE: init_block_value:b <- [DW_OP_plus_uconst 128, DW_OP_stack_value] $rsp
	#DEBUG_VALUE: init_block_value:in <- 0
	#DEBUG_VALUE: memset:__dest <- [DW_OP_plus_uconst 128, DW_OP_stack_value] $rsp
	#DEBUG_VALUE: memset:__ch <- 0
	#DEBUG_VALUE: memset:__len <- 1024
	#DEBUG_VALUE: init_block_value:b <- [DW_OP_plus_uconst 1152, DW_OP_stack_value] $rsp
	#DEBUG_VALUE: init_block_value:in <- 0
	#DEBUG_VALUE: memset:__dest <- [DW_OP_plus_uconst 1152, DW_OP_stack_value] $rsp
	#DEBUG_VALUE: memset:__ch <- 0
	#DEBUG_VALUE: memset:__len <- 1024
	#DEBUG_VALUE: generate_addresses:i <- 0
	xorl	%ebx, %ebx
.Ltmp35:
.LBB0_12:                               # %generate_addresses.exit
	#DEBUG_VALUE: argon2_fill_segment_avx512f:position <- [DW_OP_plus_uconst 64, DW_OP_deref_size 8, DW_OP_constu 8, DW_OP_shr, DW_OP_LLVM_convert 64 7, DW_OP_LLVM_convert 24 7, DW_OP_stack_value, DW_OP_LLVM_fragment 72 24] $rsp
	#DEBUG_VALUE: argon2_fill_segment_avx512f:instance <- [DW_OP_plus_uconst 88] [$rsp+0]
	#DEBUG_VALUE: argon2_fill_segment_avx512f:position <- [DW_OP_plus_uconst 80, DW_OP_deref, DW_OP_LLVM_fragment 32 32] $rsp
	#DEBUG_VALUE: argon2_fill_segment_avx512f:position <- [DW_OP_plus_uconst 96, DW_OP_deref, DW_OP_LLVM_fragment 0 32] $rsp
	#DEBUG_VALUE: argon2_fill_segment_avx512f:position <- [DW_OP_plus_uconst 64, DW_OP_deref, DW_OP_LLVM_fragment 64 8] $rsp
	#DEBUG_VALUE: argon2_fill_segment_avx512f:position <- [DW_OP_plus_uconst 64, DW_OP_deref_size 8, DW_OP_constu 32, DW_OP_shr, DW_OP_LLVM_convert 64 7, DW_OP_LLVM_convert 32 7, DW_OP_stack_value, DW_OP_LLVM_fragment 96 32] $rsp
	#DEBUG_VALUE: argon2_fill_segment_avx512f:ref_block <- 0
	#DEBUG_VALUE: argon2_fill_segment_avx512f:curr_block <- 0
	#DEBUG_VALUE: generate_addresses:instance <- [DW_OP_plus_uconst 88, DW_OP_deref] $rsp
	#DEBUG_VALUE: generate_addresses:pseudo_rands <- [DW_OP_plus_uconst 104, DW_OP_deref] $rsp
	#DEBUG_VALUE: init_block_value:b <- [DW_OP_plus_uconst 128, DW_OP_stack_value] $rsp
	#DEBUG_VALUE: init_block_value:in <- 0
	#DEBUG_VALUE: memset:__dest <- [DW_OP_plus_uconst 128, DW_OP_stack_value] $rsp
	#DEBUG_VALUE: memset:__ch <- 0
	#DEBUG_VALUE: memset:__len <- 1024
	#DEBUG_VALUE: init_block_value:b <- [DW_OP_plus_uconst 1152, DW_OP_stack_value] $rsp
	#DEBUG_VALUE: init_block_value:in <- 0
	#DEBUG_VALUE: memset:__dest <- [DW_OP_plus_uconst 1152, DW_OP_stack_value] $rsp
	#DEBUG_VALUE: memset:__ch <- 0
	#DEBUG_VALUE: memset:__len <- 1024
	movl	$0, 76(%rsp)                    # 4-byte Folded Spill
.Ltmp36:
.LBB0_13:
	#DEBUG_VALUE: argon2_fill_segment_avx512f:position <- [DW_OP_plus_uconst 64, DW_OP_deref_size 8, DW_OP_constu 8, DW_OP_shr, DW_OP_LLVM_convert 64 7, DW_OP_LLVM_convert 24 7, DW_OP_stack_value, DW_OP_LLVM_fragment 72 24] $rsp
	#DEBUG_VALUE: argon2_fill_segment_avx512f:instance <- [DW_OP_plus_uconst 88] [$rsp+0]
	#DEBUG_VALUE: argon2_fill_segment_avx512f:position <- [DW_OP_plus_uconst 80, DW_OP_deref, DW_OP_LLVM_fragment 32 32] $rsp
	#DEBUG_VALUE: argon2_fill_segment_avx512f:position <- [DW_OP_plus_uconst 96, DW_OP_deref, DW_OP_LLVM_fragment 0 32] $rsp
	#DEBUG_VALUE: argon2_fill_segment_avx512f:position <- [DW_OP_plus_uconst 64, DW_OP_deref, DW_OP_LLVM_fragment 64 8] $rsp
	#DEBUG_VALUE: argon2_fill_segment_avx512f:position <- [DW_OP_plus_uconst 64, DW_OP_deref_size 8, DW_OP_constu 32, DW_OP_shr, DW_OP_LLVM_convert 64 7, DW_OP_LLVM_convert 32 7, DW_OP_stack_value, DW_OP_LLVM_fragment 96 32] $rsp
	#DEBUG_VALUE: argon2_fill_segment_avx512f:ref_block <- 0
	#DEBUG_VALUE: argon2_fill_segment_avx512f:curr_block <- 0
	#DEBUG_VALUE: argon2_fill_segment_avx512f:starting_index <- 0
	.loc	6 181 12 is_stmt 1              # crypto_pwhash/argon2/argon2-fill-block-avx512f.c:181:12
	testl	%esi, %esi
	sete	%al
	movq	64(%rsp), %rsi                  # 8-byte Reload
	testb	%sil, %sil
	sete	%cl
	.loc	6 181 30 is_stmt 0              # crypto_pwhash/argon2/argon2-fill-block-avx512f.c:181:30
	andb	%al, %cl
	movb	%cl, 63(%rsp)                   # 1-byte Spill
	movzbl	%cl, %eax
.Ltmp37:
	.loc	6 186 45 is_stmt 1              # crypto_pwhash/argon2/argon2-fill-block-avx512f.c:186:45
	movl	32(%rdi), %ecx
	.loc	6 186 33 is_stmt 0              # crypto_pwhash/argon2/argon2-fill-block-avx512f.c:186:33
	movl	%ecx, %edx
	imull	%r8d, %edx
	.loc	6 187 19 is_stmt 1              # crypto_pwhash/argon2/argon2-fill-block-avx512f.c:187:19
	movzbl	%sil, %r8d
	.loc	6 187 34 is_stmt 0              # crypto_pwhash/argon2/argon2-fill-block-avx512f.c:187:34
	movl	%ebx, %esi
	movq	%r8, 120(%rsp)                  # 8-byte Spill
	imull	%r8d, %esi
.Ltmp38:
	#DEBUG_VALUE: argon2_fill_segment_avx512f:starting_index <- undef
	#DEBUG_VALUE: memcpy:__dest <- [DW_OP_plus_uconst 5248, DW_OP_stack_value] $rsp
	#DEBUG_VALUE: memcpy:__len <- 1024
	#DEBUG_VALUE: argon2_fill_segment_avx512f:i <- undef
	.loc	6 186 57 is_stmt 1              # crypto_pwhash/argon2/argon2-fill-block-avx512f.c:186:57
	leal	(%rdx,%rax,2), %r12d
.Ltmp39:
	.loc	6 181 30                        # crypto_pwhash/argon2/argon2-fill-block-avx512f.c:181:30
	movl	%eax, %r14d
	addl	%eax, %r14d
.Ltmp40:
	#DEBUG_VALUE: argon2_fill_segment_avx512f:i <- $r14d
	#DEBUG_VALUE: argon2_fill_segment_avx512f:starting_index <- $r14d
	.loc	6 187 61                        # crypto_pwhash/argon2/argon2-fill-block-avx512f.c:187:61
	addl	%esi, %r12d
.Ltmp41:
	#DEBUG_VALUE: argon2_fill_segment_avx512f:curr_offset <- $r12d
	.loc	6 189 26                        # crypto_pwhash/argon2/argon2-fill-block-avx512f.c:189:26
	xorl	%r13d, %r13d
	movl	%r12d, %eax
	xorl	%edx, %edx
	divl	%ecx
	.loc	6 189 11 is_stmt 0              # crypto_pwhash/argon2/argon2-fill-block-avx512f.c:189:11
	decl	%ecx
	negl	%edx
	sbbl	%r13d, %r13d
	orl	%ecx, %r13d
	.loc	6 0 0                           # crypto_pwhash/argon2/argon2-fill-block-avx512f.c:0
	addl	%r12d, %r13d
.Ltmp42:
	#DEBUG_VALUE: argon2_fill_segment_avx512f:prev_offset <- $r13d
	.loc	6 197 31 is_stmt 1              # crypto_pwhash/argon2/argon2-fill-block-avx512f.c:197:31
	movq	(%rdi), %rax
	.loc	6 197 46 is_stmt 0              # crypto_pwhash/argon2/argon2-fill-block-avx512f.c:197:46
	movq	%r13, %rsi
	shlq	$10, %rsi
	addq	8(%rax), %rsi
.Ltmp43:
	#DEBUG_VALUE: memcpy:__src <- $rsi
	.loc	6 0 46                          # crypto_pwhash/argon2/argon2-fill-block-avx512f.c:0:46
	leaq	5248(%rsp), %rdi
.Ltmp44:
	.loc	7 29 10 is_stmt 1               # /usr/include/x86_64-linux-gnu/bits/string_fortified.h:29:10 @[ crypto_pwhash/argon2/argon2-fill-block-avx512f.c:197:5 ]
	movl	$1024, %edx                     # imm = 0x400
	vzeroupper
	callq	memcpy@PLT
.Ltmp45:
	.loc	7 0 10 is_stmt 0                # /usr/include/x86_64-linux-gnu/bits/string_fortified.h:0:10
	movq	88(%rsp), %r10                  # 8-byte Reload
	movq	96(%rsp), %r9                   # 8-byte Reload
.Ltmp46:
	.loc	6 200 32 is_stmt 1              # crypto_pwhash/argon2/argon2-fill-block-avx512f.c:200:32
	cmpl	%ebx, %r14d
.Ltmp47:
	.loc	6 200 5 is_stmt 0               # crypto_pwhash/argon2/argon2-fill-block-avx512f.c:200:5
	jae	.LBB0_45
.Ltmp48:
# %bb.14:                               # %.lr.ph
	#DEBUG_VALUE: argon2_fill_segment_avx512f:position <- [DW_OP_plus_uconst 64, DW_OP_deref_size 8, DW_OP_constu 8, DW_OP_shr, DW_OP_LLVM_convert 64 7, DW_OP_LLVM_convert 24 7, DW_OP_stack_value, DW_OP_LLVM_fragment 72 24] $rsp
	#DEBUG_VALUE: argon2_fill_segment_avx512f:instance <- [DW_OP_plus_uconst 88] [$rsp+0]
	#DEBUG_VALUE: argon2_fill_segment_avx512f:position <- [DW_OP_plus_uconst 80, DW_OP_deref, DW_OP_LLVM_fragment 32 32] $rsp
	#DEBUG_VALUE: argon2_fill_segment_avx512f:position <- [DW_OP_plus_uconst 96, DW_OP_deref, DW_OP_LLVM_fragment 0 32] $rsp
	#DEBUG_VALUE: argon2_fill_segment_avx512f:position <- [DW_OP_plus_uconst 64, DW_OP_deref, DW_OP_LLVM_fragment 64 8] $rsp
	#DEBUG_VALUE: argon2_fill_segment_avx512f:position <- [DW_OP_plus_uconst 64, DW_OP_deref_size 8, DW_OP_constu 32, DW_OP_shr, DW_OP_LLVM_convert 64 7, DW_OP_LLVM_convert 32 7, DW_OP_stack_value, DW_OP_LLVM_fragment 96 32] $rsp
	#DEBUG_VALUE: argon2_fill_segment_avx512f:ref_block <- 0
	#DEBUG_VALUE: argon2_fill_segment_avx512f:curr_block <- 0
	#DEBUG_VALUE: argon2_fill_segment_avx512f:starting_index <- $r14d
	#DEBUG_VALUE: argon2_fill_segment_avx512f:i <- $r14d
	#DEBUG_VALUE: argon2_fill_segment_avx512f:curr_offset <- $r12d
	#DEBUG_VALUE: argon2_fill_segment_avx512f:prev_offset <- $r13d
	.loc	6 0 5                           # crypto_pwhash/argon2/argon2-fill-block-avx512f.c:0:5
	leaq	5760(%rsp), %r11
	movq	120(%rsp), %rax                 # 8-byte Reload
	incl	%eax
	movl	%eax, 116(%rsp)                 # 4-byte Spill
	.loc	6 200 5                         # crypto_pwhash/argon2/argon2-fill-block-avx512f.c:200:5
	movl	%r14d, %r14d
.Ltmp49:
	.loc	6 0 5                           # crypto_pwhash/argon2/argon2-fill-block-avx512f.c:0:5
	vmovdqa64	.LCPI0_0(%rip), %zmm9   # zmm9 = [0,1,2,3,11,8,9,10]
	vmovdqa64	.LCPI0_1(%rip), %zmm10  # zmm10 = [4,5,6,7,15,12,13,14]
	vmovdqa64	.LCPI0_2(%rip), %zmm11  # zmm11 = [2,3,0,1,9,10,11,8]
	vmovdqa64	.LCPI0_3(%rip), %zmm12  # zmm12 = [6,7,4,5,13,14,15,12]
	vmovdqa64	.LCPI0_4(%rip), %zmm13  # zmm13 = [0,1,8,9,2,3,10,11]
	vmovdqa64	.LCPI0_5(%rip), %zmm14  # zmm14 = [4,5,12,13,6,7,14,15]
	vmovdqa64	.LCPI0_6(%rip), %zmm15  # zmm15 = [3,0,7,4,11,8,15,12]
	vmovdqa64	.LCPI0_7(%rip), %zmm16  # zmm16 = [1,2,5,6,9,10,13,14]
	jmp	.LBB0_17
.Ltmp50:
	.p2align	4
.LBB0_15:                               #   in Loop: Header=BB0_17 Depth=1
	#DEBUG_VALUE: argon2_fill_segment_avx512f:position <- [DW_OP_plus_uconst 64, DW_OP_deref_size 8, DW_OP_constu 8, DW_OP_shr, DW_OP_LLVM_convert 64 7, DW_OP_LLVM_convert 24 7, DW_OP_stack_value, DW_OP_LLVM_fragment 72 24] $rsp
	#DEBUG_VALUE: argon2_fill_segment_avx512f:instance <- [DW_OP_plus_uconst 88] [$rsp+0]
	#DEBUG_VALUE: argon2_fill_segment_avx512f:position <- [DW_OP_plus_uconst 80, DW_OP_deref, DW_OP_LLVM_fragment 32 32] $rsp
	#DEBUG_VALUE: argon2_fill_segment_avx512f:position <- [DW_OP_plus_uconst 96, DW_OP_deref, DW_OP_LLVM_fragment 0 32] $rsp
	#DEBUG_VALUE: argon2_fill_segment_avx512f:position <- [DW_OP_plus_uconst 64, DW_OP_deref, DW_OP_LLVM_fragment 64 8] $rsp
	#DEBUG_VALUE: argon2_fill_segment_avx512f:position <- [DW_OP_LLVM_fragment 96 32] $r14
	#DEBUG_VALUE: argon2_fill_segment_avx512f:ref_block <- $rsi
	#DEBUG_VALUE: argon2_fill_segment_avx512f:i <- $r14
	#DEBUG_VALUE: argon2_fill_segment_avx512f:curr_offset <- $r12d
	#DEBUG_VALUE: argon2_fill_segment_avx512f:prev_offset <- $r15d
	addq	%rax, %rdx
.Ltmp51:
	#DEBUG_VALUE: argon2_fill_segment_avx512f:curr_block <- $rdx
	.loc	6 238 13 is_stmt 1              # crypto_pwhash/argon2/argon2-fill-block-avx512f.c:238:13
	leaq	5248(%rsp), %rdi
	movq	%r11, %rbx
	vzeroupper
	callq	fill_block_with_xor
.Ltmp52:
	.loc	6 0 13 is_stmt 0                # crypto_pwhash/argon2/argon2-fill-block-avx512f.c:0:13
	vmovdqa64	.LCPI0_7(%rip), %zmm16  # zmm16 = [1,2,5,6,9,10,13,14]
	vmovdqa64	.LCPI0_6(%rip), %zmm15  # zmm15 = [3,0,7,4,11,8,15,12]
	vmovdqa64	.LCPI0_5(%rip), %zmm14  # zmm14 = [4,5,12,13,6,7,14,15]
	vmovdqa64	.LCPI0_4(%rip), %zmm13  # zmm13 = [0,1,8,9,2,3,10,11]
	vmovdqa64	.LCPI0_3(%rip), %zmm12  # zmm12 = [6,7,4,5,13,14,15,12]
	vmovdqa64	.LCPI0_2(%rip), %zmm11  # zmm11 = [2,3,0,1,9,10,11,8]
	vmovdqa64	.LCPI0_1(%rip), %zmm10  # zmm10 = [4,5,6,7,15,12,13,14]
	vmovdqa64	.LCPI0_0(%rip), %zmm9   # zmm9 = [0,1,2,3,11,8,9,10]
	movq	%rbx, %r11
	movq	88(%rsp), %r10                  # 8-byte Reload
	movq	96(%rsp), %r9                   # 8-byte Reload
.Ltmp53:
.LBB0_16:                               #   in Loop: Header=BB0_17 Depth=1
	#DEBUG_VALUE: argon2_fill_segment_avx512f:position <- [DW_OP_plus_uconst 64, DW_OP_deref_size 8, DW_OP_constu 8, DW_OP_shr, DW_OP_LLVM_convert 64 7, DW_OP_LLVM_convert 24 7, DW_OP_stack_value, DW_OP_LLVM_fragment 72 24] $rsp
	#DEBUG_VALUE: argon2_fill_segment_avx512f:instance <- [DW_OP_plus_uconst 88] [$rsp+0]
	#DEBUG_VALUE: argon2_fill_segment_avx512f:position <- [DW_OP_plus_uconst 80, DW_OP_deref, DW_OP_LLVM_fragment 32 32] $rsp
	#DEBUG_VALUE: argon2_fill_segment_avx512f:position <- [DW_OP_plus_uconst 96, DW_OP_deref, DW_OP_LLVM_fragment 0 32] $rsp
	#DEBUG_VALUE: argon2_fill_segment_avx512f:position <- [DW_OP_plus_uconst 64, DW_OP_deref, DW_OP_LLVM_fragment 64 8] $rsp
	#DEBUG_VALUE: argon2_fill_segment_avx512f:position <- [DW_OP_LLVM_fragment 96 32] $r14
	#DEBUG_VALUE: argon2_fill_segment_avx512f:i <- $r14
	#DEBUG_VALUE: argon2_fill_segment_avx512f:curr_offset <- $r12d
	#DEBUG_VALUE: argon2_fill_segment_avx512f:prev_offset <- $r15d
	.loc	6 201 10 is_stmt 1              # crypto_pwhash/argon2/argon2-fill-block-avx512f.c:201:10
	incq	%r14
.Ltmp54:
	#DEBUG_VALUE: argon2_fill_segment_avx512f:i <- $r14
	.loc	6 201 15 is_stmt 0              # crypto_pwhash/argon2/argon2-fill-block-avx512f.c:201:15
	incl	%r12d
.Ltmp55:
	#DEBUG_VALUE: argon2_fill_segment_avx512f:curr_offset <- $r12d
	.loc	6 201 30                        # crypto_pwhash/argon2/argon2-fill-block-avx512f.c:201:30
	incl	%r15d
.Ltmp56:
	#DEBUG_VALUE: argon2_fill_segment_avx512f:prev_offset <- $r15d
	.loc	6 200 44 is_stmt 1              # crypto_pwhash/argon2/argon2-fill-block-avx512f.c:200:44
	movl	28(%r10), %ebx
	movl	%r15d, %r13d
.Ltmp57:
	#DEBUG_VALUE: argon2_fill_segment_avx512f:prev_offset <- $r13d
	.loc	6 200 32 is_stmt 0              # crypto_pwhash/argon2/argon2-fill-block-avx512f.c:200:32
	cmpq	%rbx, %r14
.Ltmp58:
	.loc	6 200 5                         # crypto_pwhash/argon2/argon2-fill-block-avx512f.c:200:5
	jae	.LBB0_45
.Ltmp59:
.LBB0_17:                               # =>This Loop Header: Depth=1
                                        #     Child Loop BB0_38 Depth 2
                                        #     Child Loop BB0_40 Depth 2
                                        #     Child Loop BB0_42 Depth 2
                                        #     Child Loop BB0_44 Depth 2
	#DEBUG_VALUE: argon2_fill_segment_avx512f:position <- [DW_OP_plus_uconst 64, DW_OP_deref_size 8, DW_OP_constu 8, DW_OP_shr, DW_OP_LLVM_convert 64 7, DW_OP_LLVM_convert 24 7, DW_OP_stack_value, DW_OP_LLVM_fragment 72 24] $rsp
	#DEBUG_VALUE: argon2_fill_segment_avx512f:instance <- [DW_OP_plus_uconst 88] [$rsp+0]
	#DEBUG_VALUE: argon2_fill_segment_avx512f:position <- [DW_OP_plus_uconst 80, DW_OP_deref, DW_OP_LLVM_fragment 32 32] $rsp
	#DEBUG_VALUE: argon2_fill_segment_avx512f:position <- [DW_OP_plus_uconst 96, DW_OP_deref, DW_OP_LLVM_fragment 0 32] $rsp
	#DEBUG_VALUE: argon2_fill_segment_avx512f:position <- [DW_OP_plus_uconst 64, DW_OP_deref, DW_OP_LLVM_fragment 64 8] $rsp
	#DEBUG_VALUE: argon2_fill_segment_avx512f:curr_offset <- $r12d
	#DEBUG_VALUE: argon2_fill_segment_avx512f:prev_offset <- $r13d
	#DEBUG_VALUE: argon2_fill_segment_avx512f:i <- $r14
	#DEBUG_VALUE: argon2_fill_segment_avx512f:curr_offset <- $r12d
	#DEBUG_VALUE: argon2_fill_segment_avx512f:prev_offset <- $r13d
	.loc	6 203 37 is_stmt 1              # crypto_pwhash/argon2/argon2-fill-block-avx512f.c:203:37
	movl	32(%r10), %edi
	.loc	6 203 25 is_stmt 0              # crypto_pwhash/argon2/argon2-fill-block-avx512f.c:203:25
	movl	%r12d, %eax
	xorl	%edx, %edx
	divl	%edi
	leal	-1(%r12), %r15d
	.loc	6 203 49                        # crypto_pwhash/argon2/argon2-fill-block-avx512f.c:203:49
	cmpl	$1, %edx
	cmovnel	%r13d, %r15d
.Ltmp60:
	#DEBUG_VALUE: argon2_fill_segment_avx512f:prev_offset <- $r15d
	.loc	6 209 13 is_stmt 1              # crypto_pwhash/argon2/argon2-fill-block-avx512f.c:209:13
	cmpb	$0, 76(%rsp)                    # 1-byte Folded Reload
	je	.LBB0_19
.Ltmp61:
# %bb.18:                               #   in Loop: Header=BB0_17 Depth=1
	#DEBUG_VALUE: argon2_fill_segment_avx512f:position <- [DW_OP_plus_uconst 64, DW_OP_deref_size 8, DW_OP_constu 8, DW_OP_shr, DW_OP_LLVM_convert 64 7, DW_OP_LLVM_convert 24 7, DW_OP_stack_value, DW_OP_LLVM_fragment 72 24] $rsp
	#DEBUG_VALUE: argon2_fill_segment_avx512f:instance <- [DW_OP_plus_uconst 88] [$rsp+0]
	#DEBUG_VALUE: argon2_fill_segment_avx512f:position <- [DW_OP_plus_uconst 80, DW_OP_deref, DW_OP_LLVM_fragment 32 32] $rsp
	#DEBUG_VALUE: argon2_fill_segment_avx512f:position <- [DW_OP_plus_uconst 96, DW_OP_deref, DW_OP_LLVM_fragment 0 32] $rsp
	#DEBUG_VALUE: argon2_fill_segment_avx512f:position <- [DW_OP_plus_uconst 64, DW_OP_deref, DW_OP_LLVM_fragment 64 8] $rsp
	#DEBUG_VALUE: argon2_fill_segment_avx512f:i <- $r14
	#DEBUG_VALUE: argon2_fill_segment_avx512f:curr_offset <- $r12d
	#DEBUG_VALUE: argon2_fill_segment_avx512f:prev_offset <- $r15d
	.loc	6 215 37                        # crypto_pwhash/argon2/argon2-fill-block-avx512f.c:215:37
	movq	(%r10), %rcx
	.loc	6 215 27 is_stmt 0              # crypto_pwhash/argon2/argon2-fill-block-avx512f.c:215:27
	movl	%r15d, %eax
	shlq	$10, %rax
	addq	8(%rcx), %rax
.Ltmp62:
	#DEBUG_VALUE: argon2_fill_segment_avx512f:pseudo_rand <- undef
	.loc	6 0 27                          # crypto_pwhash/argon2/argon2-fill-block-avx512f.c:0:27
	jmp	.LBB0_20
.Ltmp63:
	.p2align	4
.LBB0_19:                               #   in Loop: Header=BB0_17 Depth=1
	#DEBUG_VALUE: argon2_fill_segment_avx512f:position <- [DW_OP_plus_uconst 64, DW_OP_deref_size 8, DW_OP_constu 8, DW_OP_shr, DW_OP_LLVM_convert 64 7, DW_OP_LLVM_convert 24 7, DW_OP_stack_value, DW_OP_LLVM_fragment 72 24] $rsp
	#DEBUG_VALUE: argon2_fill_segment_avx512f:instance <- [DW_OP_plus_uconst 88] [$rsp+0]
	#DEBUG_VALUE: argon2_fill_segment_avx512f:position <- [DW_OP_plus_uconst 80, DW_OP_deref, DW_OP_LLVM_fragment 32 32] $rsp
	#DEBUG_VALUE: argon2_fill_segment_avx512f:position <- [DW_OP_plus_uconst 96, DW_OP_deref, DW_OP_LLVM_fragment 0 32] $rsp
	#DEBUG_VALUE: argon2_fill_segment_avx512f:position <- [DW_OP_plus_uconst 64, DW_OP_deref, DW_OP_LLVM_fragment 64 8] $rsp
	#DEBUG_VALUE: argon2_fill_segment_avx512f:i <- $r14
	#DEBUG_VALUE: argon2_fill_segment_avx512f:curr_offset <- $r12d
	#DEBUG_VALUE: argon2_fill_segment_avx512f:prev_offset <- $r15d
	movq	104(%rsp), %rax                 # 8-byte Reload
.Ltmp64:
	.loc	6 212 27 is_stmt 1              # crypto_pwhash/argon2/argon2-fill-block-avx512f.c:212:27
	leaq	(%rax,%r14,8), %rax
.Ltmp65:
	#DEBUG_VALUE: argon2_fill_segment_avx512f:pseudo_rand <- undef
.LBB0_20:                               #   in Loop: Header=BB0_17 Depth=1
	#DEBUG_VALUE: argon2_fill_segment_avx512f:position <- [DW_OP_plus_uconst 64, DW_OP_deref_size 8, DW_OP_constu 8, DW_OP_shr, DW_OP_LLVM_convert 64 7, DW_OP_LLVM_convert 24 7, DW_OP_stack_value, DW_OP_LLVM_fragment 72 24] $rsp
	#DEBUG_VALUE: argon2_fill_segment_avx512f:instance <- [DW_OP_plus_uconst 88] [$rsp+0]
	#DEBUG_VALUE: argon2_fill_segment_avx512f:position <- [DW_OP_plus_uconst 80, DW_OP_deref, DW_OP_LLVM_fragment 32 32] $rsp
	#DEBUG_VALUE: argon2_fill_segment_avx512f:position <- [DW_OP_plus_uconst 96, DW_OP_deref, DW_OP_LLVM_fragment 0 32] $rsp
	#DEBUG_VALUE: argon2_fill_segment_avx512f:position <- [DW_OP_plus_uconst 64, DW_OP_deref, DW_OP_LLVM_fragment 64 8] $rsp
	#DEBUG_VALUE: argon2_fill_segment_avx512f:i <- $r14
	#DEBUG_VALUE: argon2_fill_segment_avx512f:curr_offset <- $r12d
	#DEBUG_VALUE: argon2_fill_segment_avx512f:prev_offset <- $r15d
	.loc	6 0 27 is_stmt 0                # crypto_pwhash/argon2/argon2-fill-block-avx512f.c:0:27
	movq	80(%rsp), %r8                   # 8-byte Reload
	movq	(%rax), %rsi
.Ltmp66:
	#DEBUG_VALUE: argon2_fill_segment_avx512f:pseudo_rand <- $rsi
	.loc	6 219 34 is_stmt 1              # crypto_pwhash/argon2/argon2-fill-block-avx512f.c:219:34
	movq	%rsi, %rax
	shrq	$32, %rax
                                        # kill: def $eax killed $eax killed $rax
	.loc	6 219 42 is_stmt 0              # crypto_pwhash/argon2/argon2-fill-block-avx512f.c:219:42
	xorl	%edx, %edx
	divl	36(%r10)
	movl	%edx, %ecx
.Ltmp67:
	#DEBUG_VALUE: argon2_fill_segment_avx512f:ref_lane <- $edx
	.loc	6 221 34 is_stmt 1              # crypto_pwhash/argon2/argon2-fill-block-avx512f.c:221:34
	cmpb	$0, 63(%rsp)                    # 1-byte Folded Reload
	cmovneq	%r8, %rcx
.Ltmp68:
	#DEBUG_VALUE: argon2_fill_segment_avx512f:ref_lane <- $rcx
	.loc	6 181 12                        # crypto_pwhash/argon2/argon2-fill-block-avx512f.c:181:12
	testl	%r9d, %r9d
.Ltmp69:
	#DEBUG_VALUE: argon2_fill_segment_avx512f:position <- [DW_OP_LLVM_fragment 96 32] $r14
	#DEBUG_VALUE: index_alpha:instance <- [DW_OP_plus_uconst 88, DW_OP_deref] $rsp
	#DEBUG_VALUE: index_alpha:position <- undef
	#DEBUG_VALUE: index_alpha:pseudo_rand <- [DW_OP_LLVM_convert 64 7, DW_OP_LLVM_convert 32 7, DW_OP_stack_value] $rsi
	#DEBUG_VALUE: index_alpha:same_lane <- undef
	.loc	2 157 24                        # crypto_pwhash/argon2/argon2-core.h:157:24 @[ crypto_pwhash/argon2/argon2-fill-block-avx512f.c:230:21 ]
	je	.LBB0_23
.Ltmp70:
# %bb.21:                               #   in Loop: Header=BB0_17 Depth=1
	#DEBUG_VALUE: argon2_fill_segment_avx512f:position <- [DW_OP_plus_uconst 64, DW_OP_deref_size 8, DW_OP_constu 8, DW_OP_shr, DW_OP_LLVM_convert 64 7, DW_OP_LLVM_convert 24 7, DW_OP_stack_value, DW_OP_LLVM_fragment 72 24] $rsp
	#DEBUG_VALUE: argon2_fill_segment_avx512f:instance <- [DW_OP_plus_uconst 88] [$rsp+0]
	#DEBUG_VALUE: argon2_fill_segment_avx512f:position <- [DW_OP_plus_uconst 80, DW_OP_deref, DW_OP_LLVM_fragment 32 32] $rsp
	#DEBUG_VALUE: argon2_fill_segment_avx512f:position <- [DW_OP_plus_uconst 96, DW_OP_deref, DW_OP_LLVM_fragment 0 32] $rsp
	#DEBUG_VALUE: argon2_fill_segment_avx512f:position <- [DW_OP_plus_uconst 64, DW_OP_deref, DW_OP_LLVM_fragment 64 8] $rsp
	#DEBUG_VALUE: argon2_fill_segment_avx512f:position <- [DW_OP_LLVM_fragment 96 32] $r14
	#DEBUG_VALUE: argon2_fill_segment_avx512f:i <- $r14
	#DEBUG_VALUE: argon2_fill_segment_avx512f:curr_offset <- $r12d
	#DEBUG_VALUE: argon2_fill_segment_avx512f:prev_offset <- $r15d
	#DEBUG_VALUE: argon2_fill_segment_avx512f:pseudo_rand <- $rsi
	#DEBUG_VALUE: argon2_fill_segment_avx512f:ref_lane <- $rcx
	#DEBUG_VALUE: index_alpha:instance <- [DW_OP_plus_uconst 88, DW_OP_deref] $rsp
	#DEBUG_VALUE: index_alpha:pseudo_rand <- [DW_OP_LLVM_convert 64 7, DW_OP_LLVM_convert 32 7, DW_OP_stack_value] $rsi
	.loc	6 231 42                        # crypto_pwhash/argon2/argon2-fill-block-avx512f.c:231:42
	cmpl	%r8d, %ecx
.Ltmp71:
	.loc	2 177 13                        # crypto_pwhash/argon2/argon2-core.h:177:13 @[ crypto_pwhash/argon2/argon2-fill-block-avx512f.c:230:21 ]
	jne	.LBB0_26
.Ltmp72:
# %bb.22:                               #   in Loop: Header=BB0_17 Depth=1
	#DEBUG_VALUE: argon2_fill_segment_avx512f:position <- [DW_OP_plus_uconst 64, DW_OP_deref_size 8, DW_OP_constu 8, DW_OP_shr, DW_OP_LLVM_convert 64 7, DW_OP_LLVM_convert 24 7, DW_OP_stack_value, DW_OP_LLVM_fragment 72 24] $rsp
	#DEBUG_VALUE: argon2_fill_segment_avx512f:instance <- [DW_OP_plus_uconst 88] [$rsp+0]
	#DEBUG_VALUE: argon2_fill_segment_avx512f:position <- [DW_OP_plus_uconst 80, DW_OP_deref, DW_OP_LLVM_fragment 32 32] $rsp
	#DEBUG_VALUE: argon2_fill_segment_avx512f:position <- [DW_OP_plus_uconst 96, DW_OP_deref, DW_OP_LLVM_fragment 0 32] $rsp
	#DEBUG_VALUE: argon2_fill_segment_avx512f:position <- [DW_OP_plus_uconst 64, DW_OP_deref, DW_OP_LLVM_fragment 64 8] $rsp
	#DEBUG_VALUE: argon2_fill_segment_avx512f:position <- [DW_OP_LLVM_fragment 96 32] $r14
	#DEBUG_VALUE: argon2_fill_segment_avx512f:i <- $r14
	#DEBUG_VALUE: argon2_fill_segment_avx512f:curr_offset <- $r12d
	#DEBUG_VALUE: argon2_fill_segment_avx512f:prev_offset <- $r15d
	#DEBUG_VALUE: argon2_fill_segment_avx512f:pseudo_rand <- $rsi
	#DEBUG_VALUE: argon2_fill_segment_avx512f:ref_lane <- $rcx
	#DEBUG_VALUE: index_alpha:instance <- [DW_OP_plus_uconst 88, DW_OP_deref] $rsp
	#DEBUG_VALUE: index_alpha:pseudo_rand <- [DW_OP_LLVM_convert 64 7, DW_OP_LLVM_convert 32 7, DW_OP_stack_value] $rsi
	.loc	2 179 60                        # crypto_pwhash/argon2/argon2-core.h:179:60 @[ crypto_pwhash/argon2/argon2-fill-block-avx512f.c:230:21 ]
	movl	%ebx, %eax
	notl	%eax
	addl	%r14d, %eax
.Ltmp73:
	#DEBUG_VALUE: index_alpha:reference_area_size <- [DW_OP_LLVM_arg 0, DW_OP_LLVM_arg 0, DW_OP_plus, DW_OP_stack_value] undef
	.loc	2 181 9                         # crypto_pwhash/argon2/argon2-core.h:181:9 @[ crypto_pwhash/argon2/argon2-fill-block-avx512f.c:230:21 ]
	jmp	.LBB0_27
.Ltmp74:
	.loc	2 0 9 is_stmt 0                 # :0:9
.Ltmp75:
	.p2align	4
.LBB0_23:                               #   in Loop: Header=BB0_17 Depth=1
	#DEBUG_VALUE: argon2_fill_segment_avx512f:position <- [DW_OP_plus_uconst 64, DW_OP_deref_size 8, DW_OP_constu 8, DW_OP_shr, DW_OP_LLVM_convert 64 7, DW_OP_LLVM_convert 24 7, DW_OP_stack_value, DW_OP_LLVM_fragment 72 24] $rsp
	#DEBUG_VALUE: argon2_fill_segment_avx512f:instance <- [DW_OP_plus_uconst 88] [$rsp+0]
	#DEBUG_VALUE: argon2_fill_segment_avx512f:position <- [DW_OP_plus_uconst 80, DW_OP_deref, DW_OP_LLVM_fragment 32 32] $rsp
	#DEBUG_VALUE: argon2_fill_segment_avx512f:position <- [DW_OP_plus_uconst 96, DW_OP_deref, DW_OP_LLVM_fragment 0 32] $rsp
	#DEBUG_VALUE: argon2_fill_segment_avx512f:position <- [DW_OP_plus_uconst 64, DW_OP_deref, DW_OP_LLVM_fragment 64 8] $rsp
	#DEBUG_VALUE: argon2_fill_segment_avx512f:position <- [DW_OP_LLVM_fragment 96 32] $r14
	#DEBUG_VALUE: argon2_fill_segment_avx512f:i <- $r14
	#DEBUG_VALUE: argon2_fill_segment_avx512f:curr_offset <- $r12d
	#DEBUG_VALUE: argon2_fill_segment_avx512f:prev_offset <- $r15d
	#DEBUG_VALUE: argon2_fill_segment_avx512f:pseudo_rand <- $rsi
	#DEBUG_VALUE: argon2_fill_segment_avx512f:ref_lane <- $rcx
	#DEBUG_VALUE: index_alpha:instance <- [DW_OP_plus_uconst 88, DW_OP_deref] $rsp
	#DEBUG_VALUE: index_alpha:pseudo_rand <- [DW_OP_LLVM_convert 64 7, DW_OP_LLVM_convert 32 7, DW_OP_stack_value] $rsi
	cmpb	$0, 64(%rsp)                    # 1-byte Folded Reload
.Ltmp76:
	.loc	2 159 29 is_stmt 1              # crypto_pwhash/argon2/argon2-core.h:159:29 @[ crypto_pwhash/argon2/argon2-fill-block-avx512f.c:230:21 ]
	je	.LBB0_30
.Ltmp77:
# %bb.24:                               #   in Loop: Header=BB0_17 Depth=1
	#DEBUG_VALUE: argon2_fill_segment_avx512f:position <- [DW_OP_plus_uconst 64, DW_OP_deref_size 8, DW_OP_constu 8, DW_OP_shr, DW_OP_LLVM_convert 64 7, DW_OP_LLVM_convert 24 7, DW_OP_stack_value, DW_OP_LLVM_fragment 72 24] $rsp
	#DEBUG_VALUE: argon2_fill_segment_avx512f:instance <- [DW_OP_plus_uconst 88] [$rsp+0]
	#DEBUG_VALUE: argon2_fill_segment_avx512f:position <- [DW_OP_plus_uconst 80, DW_OP_deref, DW_OP_LLVM_fragment 32 32] $rsp
	#DEBUG_VALUE: argon2_fill_segment_avx512f:position <- [DW_OP_plus_uconst 96, DW_OP_deref, DW_OP_LLVM_fragment 0 32] $rsp
	#DEBUG_VALUE: argon2_fill_segment_avx512f:position <- [DW_OP_plus_uconst 64, DW_OP_deref, DW_OP_LLVM_fragment 64 8] $rsp
	#DEBUG_VALUE: argon2_fill_segment_avx512f:position <- [DW_OP_LLVM_fragment 96 32] $r14
	#DEBUG_VALUE: argon2_fill_segment_avx512f:i <- $r14
	#DEBUG_VALUE: argon2_fill_segment_avx512f:curr_offset <- $r12d
	#DEBUG_VALUE: argon2_fill_segment_avx512f:prev_offset <- $r15d
	#DEBUG_VALUE: argon2_fill_segment_avx512f:pseudo_rand <- $rsi
	#DEBUG_VALUE: argon2_fill_segment_avx512f:ref_lane <- $rcx
	#DEBUG_VALUE: index_alpha:instance <- [DW_OP_plus_uconst 88, DW_OP_deref] $rsp
	#DEBUG_VALUE: index_alpha:pseudo_rand <- [DW_OP_LLVM_convert 64 7, DW_OP_LLVM_convert 32 7, DW_OP_stack_value] $rsi
	.loc	2 0 0 is_stmt 0                 # crypto_pwhash/argon2/argon2-core.h:0 @[ crypto_pwhash/argon2/argon2-fill-block-avx512f.c:230:21 ]
	imull	120(%rsp), %ebx                 # 4-byte Folded Reload
.Ltmp78:
	.loc	6 231 42 is_stmt 1              # crypto_pwhash/argon2/argon2-fill-block-avx512f.c:231:42
	cmpl	%r8d, %ecx
.Ltmp79:
	.loc	2 164 17                        # crypto_pwhash/argon2/argon2-core.h:164:17 @[ crypto_pwhash/argon2/argon2-fill-block-avx512f.c:230:21 ]
	jne	.LBB0_31
.Ltmp80:
# %bb.25:                               #   in Loop: Header=BB0_17 Depth=1
	#DEBUG_VALUE: argon2_fill_segment_avx512f:position <- [DW_OP_plus_uconst 64, DW_OP_deref_size 8, DW_OP_constu 8, DW_OP_shr, DW_OP_LLVM_convert 64 7, DW_OP_LLVM_convert 24 7, DW_OP_stack_value, DW_OP_LLVM_fragment 72 24] $rsp
	#DEBUG_VALUE: argon2_fill_segment_avx512f:instance <- [DW_OP_plus_uconst 88] [$rsp+0]
	#DEBUG_VALUE: argon2_fill_segment_avx512f:position <- [DW_OP_plus_uconst 80, DW_OP_deref, DW_OP_LLVM_fragment 32 32] $rsp
	#DEBUG_VALUE: argon2_fill_segment_avx512f:position <- [DW_OP_plus_uconst 96, DW_OP_deref, DW_OP_LLVM_fragment 0 32] $rsp
	#DEBUG_VALUE: argon2_fill_segment_avx512f:position <- [DW_OP_plus_uconst 64, DW_OP_deref, DW_OP_LLVM_fragment 64 8] $rsp
	#DEBUG_VALUE: argon2_fill_segment_avx512f:position <- [DW_OP_LLVM_fragment 96 32] $r14
	#DEBUG_VALUE: argon2_fill_segment_avx512f:i <- $r14
	#DEBUG_VALUE: argon2_fill_segment_avx512f:curr_offset <- $r12d
	#DEBUG_VALUE: argon2_fill_segment_avx512f:prev_offset <- $r15d
	#DEBUG_VALUE: argon2_fill_segment_avx512f:pseudo_rand <- $rsi
	#DEBUG_VALUE: argon2_fill_segment_avx512f:ref_lane <- $rcx
	#DEBUG_VALUE: index_alpha:instance <- [DW_OP_plus_uconst 88, DW_OP_deref] $rsp
	#DEBUG_VALUE: index_alpha:pseudo_rand <- [DW_OP_LLVM_convert 64 7, DW_OP_LLVM_convert 32 7, DW_OP_stack_value] $rsi
	.loc	2 168 37                        # crypto_pwhash/argon2/argon2-core.h:168:37 @[ crypto_pwhash/argon2/argon2-fill-block-avx512f.c:230:21 ]
	leal	(%r14,%rbx), %edx
	decl	%edx
.Ltmp81:
	#DEBUG_VALUE: index_alpha:reference_area_size <- $edx
	.loc	2 0 37 is_stmt 0                # crypto_pwhash/argon2/argon2-core.h:0:37
	jmp	.LBB0_32
.Ltmp82:
	.p2align	4
.LBB0_26:                               #   in Loop: Header=BB0_17 Depth=1
	#DEBUG_VALUE: argon2_fill_segment_avx512f:position <- [DW_OP_plus_uconst 64, DW_OP_deref_size 8, DW_OP_constu 8, DW_OP_shr, DW_OP_LLVM_convert 64 7, DW_OP_LLVM_convert 24 7, DW_OP_stack_value, DW_OP_LLVM_fragment 72 24] $rsp
	#DEBUG_VALUE: argon2_fill_segment_avx512f:instance <- [DW_OP_plus_uconst 88] [$rsp+0]
	#DEBUG_VALUE: argon2_fill_segment_avx512f:position <- [DW_OP_plus_uconst 80, DW_OP_deref, DW_OP_LLVM_fragment 32 32] $rsp
	#DEBUG_VALUE: argon2_fill_segment_avx512f:position <- [DW_OP_plus_uconst 96, DW_OP_deref, DW_OP_LLVM_fragment 0 32] $rsp
	#DEBUG_VALUE: argon2_fill_segment_avx512f:position <- [DW_OP_plus_uconst 64, DW_OP_deref, DW_OP_LLVM_fragment 64 8] $rsp
	#DEBUG_VALUE: argon2_fill_segment_avx512f:position <- [DW_OP_LLVM_fragment 96 32] $r14
	#DEBUG_VALUE: argon2_fill_segment_avx512f:i <- $r14
	#DEBUG_VALUE: argon2_fill_segment_avx512f:curr_offset <- $r12d
	#DEBUG_VALUE: argon2_fill_segment_avx512f:prev_offset <- $r15d
	#DEBUG_VALUE: argon2_fill_segment_avx512f:pseudo_rand <- $rsi
	#DEBUG_VALUE: argon2_fill_segment_avx512f:ref_lane <- $rcx
	#DEBUG_VALUE: index_alpha:instance <- [DW_OP_plus_uconst 88, DW_OP_deref] $rsp
	#DEBUG_VALUE: index_alpha:pseudo_rand <- [DW_OP_LLVM_convert 64 7, DW_OP_LLVM_convert 32 7, DW_OP_stack_value] $rsi
	.loc	2 184 36 is_stmt 1              # crypto_pwhash/argon2/argon2-core.h:184:36 @[ crypto_pwhash/argon2/argon2-fill-block-avx512f.c:230:21 ]
	cmpq	$1, %r14
	movl	$0, %eax
	sbbl	%eax, %eax
	.loc	2 182 57                        # crypto_pwhash/argon2/argon2-core.h:182:57 @[ crypto_pwhash/argon2/argon2-fill-block-avx512f.c:230:21 ]
	subl	%ebx, %eax
.Ltmp83:
	#DEBUG_VALUE: index_alpha:reference_area_size <- [DW_OP_LLVM_arg 0, DW_OP_LLVM_arg 0, DW_OP_plus, DW_OP_stack_value] undef
.LBB0_27:                               #   in Loop: Header=BB0_17 Depth=1
	#DEBUG_VALUE: argon2_fill_segment_avx512f:position <- [DW_OP_plus_uconst 64, DW_OP_deref_size 8, DW_OP_constu 8, DW_OP_shr, DW_OP_LLVM_convert 64 7, DW_OP_LLVM_convert 24 7, DW_OP_stack_value, DW_OP_LLVM_fragment 72 24] $rsp
	#DEBUG_VALUE: argon2_fill_segment_avx512f:instance <- [DW_OP_plus_uconst 88] [$rsp+0]
	#DEBUG_VALUE: argon2_fill_segment_avx512f:position <- [DW_OP_plus_uconst 80, DW_OP_deref, DW_OP_LLVM_fragment 32 32] $rsp
	#DEBUG_VALUE: argon2_fill_segment_avx512f:position <- [DW_OP_plus_uconst 96, DW_OP_deref, DW_OP_LLVM_fragment 0 32] $rsp
	#DEBUG_VALUE: argon2_fill_segment_avx512f:position <- [DW_OP_plus_uconst 64, DW_OP_deref, DW_OP_LLVM_fragment 64 8] $rsp
	#DEBUG_VALUE: argon2_fill_segment_avx512f:position <- [DW_OP_LLVM_fragment 96 32] $r14
	#DEBUG_VALUE: argon2_fill_segment_avx512f:i <- $r14
	#DEBUG_VALUE: argon2_fill_segment_avx512f:curr_offset <- $r12d
	#DEBUG_VALUE: argon2_fill_segment_avx512f:prev_offset <- $r15d
	#DEBUG_VALUE: argon2_fill_segment_avx512f:pseudo_rand <- $rsi
	#DEBUG_VALUE: argon2_fill_segment_avx512f:ref_lane <- $rcx
	#DEBUG_VALUE: index_alpha:instance <- [DW_OP_plus_uconst 88, DW_OP_deref] $rsp
	#DEBUG_VALUE: index_alpha:pseudo_rand <- [DW_OP_LLVM_convert 64 7, DW_OP_LLVM_convert 32 7, DW_OP_stack_value] $rsi
	.loc	2 0 0 is_stmt 0                 # crypto_pwhash/argon2/argon2-core.h:0 @[ crypto_pwhash/argon2/argon2-fill-block-avx512f.c:230:21 ]
	leal	(%rdi,%rax), %edx
.Ltmp84:
	#DEBUG_VALUE: index_alpha:reference_area_size <- $edx
	#DEBUG_VALUE: index_alpha:relative_position <- [DW_OP_LLVM_arg 0, DW_OP_constu 1, DW_OP_minus, DW_OP_LLVM_convert 32 7, DW_OP_LLVM_convert 64 7, DW_OP_LLVM_arg 1, DW_OP_LLVM_convert 64 7, DW_OP_LLVM_convert 32 7, DW_OP_LLVM_convert 32 7, DW_OP_LLVM_convert 64 7, DW_OP_LLVM_arg 3, DW_OP_LLVM_convert 64 7, DW_OP_LLVM_convert 32 7, DW_OP_LLVM_convert 32 7, DW_OP_LLVM_convert 64 7, DW_OP_mul, DW_OP_constu 32, DW_OP_shr, DW_OP_LLVM_arg 2, DW_OP_LLVM_convert 32 7, DW_OP_LLVM_convert 64 7, DW_OP_mul, DW_OP_constu 32, DW_OP_shr, DW_OP_minus, DW_OP_stack_value] $edx, $rsi, $edx, $rsi
	cmpb	$3, 64(%rsp)                    # 1-byte Folded Reload
.Ltmp85:
	#DEBUG_VALUE: index_alpha:start_position <- 0
	.loc	2 199 26 is_stmt 1              # crypto_pwhash/argon2/argon2-core.h:199:26 @[ crypto_pwhash/argon2/argon2-fill-block-avx512f.c:230:21 ]
	je	.LBB0_32
.Ltmp86:
# %bb.29:                               #   in Loop: Header=BB0_17 Depth=1
	#DEBUG_VALUE: argon2_fill_segment_avx512f:position <- [DW_OP_plus_uconst 64, DW_OP_deref_size 8, DW_OP_constu 8, DW_OP_shr, DW_OP_LLVM_convert 64 7, DW_OP_LLVM_convert 24 7, DW_OP_stack_value, DW_OP_LLVM_fragment 72 24] $rsp
	#DEBUG_VALUE: argon2_fill_segment_avx512f:instance <- [DW_OP_plus_uconst 88] [$rsp+0]
	#DEBUG_VALUE: argon2_fill_segment_avx512f:position <- [DW_OP_plus_uconst 80, DW_OP_deref, DW_OP_LLVM_fragment 32 32] $rsp
	#DEBUG_VALUE: argon2_fill_segment_avx512f:position <- [DW_OP_plus_uconst 96, DW_OP_deref, DW_OP_LLVM_fragment 0 32] $rsp
	#DEBUG_VALUE: argon2_fill_segment_avx512f:position <- [DW_OP_plus_uconst 64, DW_OP_deref, DW_OP_LLVM_fragment 64 8] $rsp
	#DEBUG_VALUE: argon2_fill_segment_avx512f:position <- [DW_OP_LLVM_fragment 96 32] $r14
	#DEBUG_VALUE: argon2_fill_segment_avx512f:i <- $r14
	#DEBUG_VALUE: argon2_fill_segment_avx512f:curr_offset <- $r12d
	#DEBUG_VALUE: argon2_fill_segment_avx512f:prev_offset <- $r15d
	#DEBUG_VALUE: argon2_fill_segment_avx512f:pseudo_rand <- $rsi
	#DEBUG_VALUE: argon2_fill_segment_avx512f:ref_lane <- $rcx
	#DEBUG_VALUE: index_alpha:instance <- [DW_OP_plus_uconst 88, DW_OP_deref] $rsp
	#DEBUG_VALUE: index_alpha:pseudo_rand <- [DW_OP_LLVM_convert 64 7, DW_OP_LLVM_convert 32 7, DW_OP_stack_value] $rsi
	#DEBUG_VALUE: index_alpha:reference_area_size <- $edx
	#DEBUG_VALUE: index_alpha:relative_position <- [DW_OP_LLVM_arg 0, DW_OP_constu 1, DW_OP_minus, DW_OP_LLVM_convert 32 7, DW_OP_LLVM_convert 64 7, DW_OP_LLVM_arg 1, DW_OP_LLVM_convert 64 7, DW_OP_LLVM_convert 32 7, DW_OP_LLVM_convert 32 7, DW_OP_LLVM_convert 64 7, DW_OP_LLVM_arg 3, DW_OP_LLVM_convert 64 7, DW_OP_LLVM_convert 32 7, DW_OP_LLVM_convert 32 7, DW_OP_LLVM_convert 64 7, DW_OP_mul, DW_OP_constu 32, DW_OP_shr, DW_OP_LLVM_arg 2, DW_OP_LLVM_convert 32 7, DW_OP_LLVM_convert 64 7, DW_OP_mul, DW_OP_constu 32, DW_OP_shr, DW_OP_minus, DW_OP_stack_value] $edx, $rsi, $edx, $rsi
	#DEBUG_VALUE: index_alpha:start_position <- 0
	.loc	2 201 54                        # crypto_pwhash/argon2/argon2-core.h:201:54 @[ crypto_pwhash/argon2/argon2-fill-block-avx512f.c:230:21 ]
	imull	116(%rsp), %ebx                 # 4-byte Folded Reload
	jmp	.LBB0_33
.Ltmp87:
.LBB0_30:                               #   in Loop: Header=BB0_17 Depth=1
	#DEBUG_VALUE: argon2_fill_segment_avx512f:position <- [DW_OP_plus_uconst 64, DW_OP_deref_size 8, DW_OP_constu 8, DW_OP_shr, DW_OP_LLVM_convert 64 7, DW_OP_LLVM_convert 24 7, DW_OP_stack_value, DW_OP_LLVM_fragment 72 24] $rsp
	#DEBUG_VALUE: argon2_fill_segment_avx512f:instance <- [DW_OP_plus_uconst 88] [$rsp+0]
	#DEBUG_VALUE: argon2_fill_segment_avx512f:position <- [DW_OP_plus_uconst 80, DW_OP_deref, DW_OP_LLVM_fragment 32 32] $rsp
	#DEBUG_VALUE: argon2_fill_segment_avx512f:position <- [DW_OP_plus_uconst 96, DW_OP_deref, DW_OP_LLVM_fragment 0 32] $rsp
	#DEBUG_VALUE: argon2_fill_segment_avx512f:position <- [DW_OP_plus_uconst 64, DW_OP_deref, DW_OP_LLVM_fragment 64 8] $rsp
	#DEBUG_VALUE: argon2_fill_segment_avx512f:position <- [DW_OP_LLVM_fragment 96 32] $r14
	#DEBUG_VALUE: argon2_fill_segment_avx512f:i <- $r14
	#DEBUG_VALUE: argon2_fill_segment_avx512f:curr_offset <- $r12d
	#DEBUG_VALUE: argon2_fill_segment_avx512f:prev_offset <- $r15d
	#DEBUG_VALUE: argon2_fill_segment_avx512f:pseudo_rand <- $rsi
	#DEBUG_VALUE: argon2_fill_segment_avx512f:ref_lane <- $rcx
	#DEBUG_VALUE: index_alpha:instance <- [DW_OP_plus_uconst 88, DW_OP_deref] $rsp
	#DEBUG_VALUE: index_alpha:pseudo_rand <- [DW_OP_LLVM_convert 64 7, DW_OP_LLVM_convert 32 7, DW_OP_stack_value] $rsi
	.loc	2 162 33                        # crypto_pwhash/argon2/argon2-core.h:162:33 @[ crypto_pwhash/argon2/argon2-fill-block-avx512f.c:230:21 ]
	leal	-1(%r14), %edx
.Ltmp88:
	#DEBUG_VALUE: index_alpha:reference_area_size <- $edx
	.loc	2 0 33 is_stmt 0                # crypto_pwhash/argon2/argon2-core.h:0:33
	jmp	.LBB0_32
.Ltmp89:
.LBB0_31:                               #   in Loop: Header=BB0_17 Depth=1
	#DEBUG_VALUE: argon2_fill_segment_avx512f:position <- [DW_OP_plus_uconst 64, DW_OP_deref_size 8, DW_OP_constu 8, DW_OP_shr, DW_OP_LLVM_convert 64 7, DW_OP_LLVM_convert 24 7, DW_OP_stack_value, DW_OP_LLVM_fragment 72 24] $rsp
	#DEBUG_VALUE: argon2_fill_segment_avx512f:instance <- [DW_OP_plus_uconst 88] [$rsp+0]
	#DEBUG_VALUE: argon2_fill_segment_avx512f:position <- [DW_OP_plus_uconst 80, DW_OP_deref, DW_OP_LLVM_fragment 32 32] $rsp
	#DEBUG_VALUE: argon2_fill_segment_avx512f:position <- [DW_OP_plus_uconst 96, DW_OP_deref, DW_OP_LLVM_fragment 0 32] $rsp
	#DEBUG_VALUE: argon2_fill_segment_avx512f:position <- [DW_OP_plus_uconst 64, DW_OP_deref, DW_OP_LLVM_fragment 64 8] $rsp
	#DEBUG_VALUE: argon2_fill_segment_avx512f:position <- [DW_OP_LLVM_fragment 96 32] $r14
	#DEBUG_VALUE: argon2_fill_segment_avx512f:i <- $r14
	#DEBUG_VALUE: argon2_fill_segment_avx512f:curr_offset <- $r12d
	#DEBUG_VALUE: argon2_fill_segment_avx512f:prev_offset <- $r15d
	#DEBUG_VALUE: argon2_fill_segment_avx512f:pseudo_rand <- $rsi
	#DEBUG_VALUE: argon2_fill_segment_avx512f:ref_lane <- $rcx
	#DEBUG_VALUE: index_alpha:instance <- [DW_OP_plus_uconst 88, DW_OP_deref] $rsp
	#DEBUG_VALUE: index_alpha:pseudo_rand <- [DW_OP_LLVM_convert 64 7, DW_OP_LLVM_convert 32 7, DW_OP_stack_value] $rsi
	.loc	2 171 64 is_stmt 1              # crypto_pwhash/argon2/argon2-core.h:171:64 @[ crypto_pwhash/argon2/argon2-fill-block-avx512f.c:230:21 ]
	cmpq	$1, %r14
	sbbl	$0, %ebx
.Ltmp90:
	#DEBUG_VALUE: index_alpha:reference_area_size <- $ebx
	.loc	2 0 64 is_stmt 0                # crypto_pwhash/argon2/argon2-core.h:0:64
	movl	%ebx, %edx
.Ltmp91:
	.p2align	4
.LBB0_32:                               # %index_alpha.exit
                                        #   in Loop: Header=BB0_17 Depth=1
	#DEBUG_VALUE: argon2_fill_segment_avx512f:position <- [DW_OP_plus_uconst 64, DW_OP_deref_size 8, DW_OP_constu 8, DW_OP_shr, DW_OP_LLVM_convert 64 7, DW_OP_LLVM_convert 24 7, DW_OP_stack_value, DW_OP_LLVM_fragment 72 24] $rsp
	#DEBUG_VALUE: argon2_fill_segment_avx512f:instance <- [DW_OP_plus_uconst 88] [$rsp+0]
	#DEBUG_VALUE: argon2_fill_segment_avx512f:position <- [DW_OP_plus_uconst 80, DW_OP_deref, DW_OP_LLVM_fragment 32 32] $rsp
	#DEBUG_VALUE: argon2_fill_segment_avx512f:position <- [DW_OP_plus_uconst 96, DW_OP_deref, DW_OP_LLVM_fragment 0 32] $rsp
	#DEBUG_VALUE: argon2_fill_segment_avx512f:position <- [DW_OP_plus_uconst 64, DW_OP_deref, DW_OP_LLVM_fragment 64 8] $rsp
	#DEBUG_VALUE: argon2_fill_segment_avx512f:position <- [DW_OP_LLVM_fragment 96 32] $r14
	#DEBUG_VALUE: argon2_fill_segment_avx512f:i <- $r14
	#DEBUG_VALUE: argon2_fill_segment_avx512f:curr_offset <- $r12d
	#DEBUG_VALUE: argon2_fill_segment_avx512f:prev_offset <- $r15d
	#DEBUG_VALUE: argon2_fill_segment_avx512f:pseudo_rand <- $rsi
	#DEBUG_VALUE: argon2_fill_segment_avx512f:ref_lane <- $rcx
	#DEBUG_VALUE: index_alpha:instance <- [DW_OP_plus_uconst 88, DW_OP_deref] $rsp
	#DEBUG_VALUE: index_alpha:pseudo_rand <- [DW_OP_LLVM_convert 64 7, DW_OP_LLVM_convert 32 7, DW_OP_stack_value] $rsi
	#DEBUG_VALUE: index_alpha:reference_area_size <- $edx
	xorl	%ebx, %ebx
.Ltmp92:
.LBB0_33:                               # %index_alpha.exit
                                        #   in Loop: Header=BB0_17 Depth=1
	#DEBUG_VALUE: argon2_fill_segment_avx512f:position <- [DW_OP_plus_uconst 64, DW_OP_deref_size 8, DW_OP_constu 8, DW_OP_shr, DW_OP_LLVM_convert 64 7, DW_OP_LLVM_convert 24 7, DW_OP_stack_value, DW_OP_LLVM_fragment 72 24] $rsp
	#DEBUG_VALUE: argon2_fill_segment_avx512f:instance <- [DW_OP_plus_uconst 88] [$rsp+0]
	#DEBUG_VALUE: argon2_fill_segment_avx512f:position <- [DW_OP_plus_uconst 80, DW_OP_deref, DW_OP_LLVM_fragment 32 32] $rsp
	#DEBUG_VALUE: argon2_fill_segment_avx512f:position <- [DW_OP_plus_uconst 96, DW_OP_deref, DW_OP_LLVM_fragment 0 32] $rsp
	#DEBUG_VALUE: argon2_fill_segment_avx512f:position <- [DW_OP_plus_uconst 64, DW_OP_deref, DW_OP_LLVM_fragment 64 8] $rsp
	#DEBUG_VALUE: argon2_fill_segment_avx512f:position <- [DW_OP_LLVM_fragment 96 32] $r14
	#DEBUG_VALUE: argon2_fill_segment_avx512f:i <- $r14
	#DEBUG_VALUE: argon2_fill_segment_avx512f:curr_offset <- $r12d
	#DEBUG_VALUE: argon2_fill_segment_avx512f:prev_offset <- $r15d
	#DEBUG_VALUE: argon2_fill_segment_avx512f:pseudo_rand <- $rsi
	#DEBUG_VALUE: argon2_fill_segment_avx512f:ref_lane <- $rcx
	#DEBUG_VALUE: index_alpha:instance <- [DW_OP_plus_uconst 88, DW_OP_deref] $rsp
	#DEBUG_VALUE: index_alpha:pseudo_rand <- [DW_OP_LLVM_convert 64 7, DW_OP_LLVM_convert 32 7, DW_OP_stack_value] $rsi
	#DEBUG_VALUE: index_alpha:reference_area_size <- $edx
	.loc	2 192 45 is_stmt 1              # crypto_pwhash/argon2/argon2-core.h:192:45 @[ crypto_pwhash/argon2/argon2-fill-block-avx512f.c:230:21 ]
	leal	-1(%rdx), %eax
.Ltmp93:
	#DEBUG_VALUE: index_alpha:relative_position <- [DW_OP_LLVM_arg 0, DW_OP_LLVM_convert 32 7, DW_OP_LLVM_convert 64 7, DW_OP_LLVM_arg 1, DW_OP_LLVM_convert 64 7, DW_OP_LLVM_convert 32 7, DW_OP_LLVM_convert 32 7, DW_OP_LLVM_convert 64 7, DW_OP_LLVM_arg 3, DW_OP_LLVM_convert 64 7, DW_OP_LLVM_convert 32 7, DW_OP_LLVM_convert 32 7, DW_OP_LLVM_convert 64 7, DW_OP_mul, DW_OP_constu 32, DW_OP_shr, DW_OP_LLVM_arg 2, DW_OP_LLVM_convert 32 7, DW_OP_LLVM_convert 64 7, DW_OP_mul, DW_OP_constu 32, DW_OP_shr, DW_OP_minus, DW_OP_stack_value] $eax, $rsi, $edx, $rsi
	#DEBUG_VALUE: index_alpha:relative_position <- [DW_OP_LLVM_arg 0, DW_OP_LLVM_arg 1, DW_OP_LLVM_convert 64 7, DW_OP_LLVM_convert 32 7, DW_OP_LLVM_convert 32 7, DW_OP_LLVM_convert 64 7, DW_OP_LLVM_arg 3, DW_OP_LLVM_convert 64 7, DW_OP_LLVM_convert 32 7, DW_OP_LLVM_convert 32 7, DW_OP_LLVM_convert 64 7, DW_OP_mul, DW_OP_constu 32, DW_OP_shr, DW_OP_LLVM_arg 2, DW_OP_LLVM_convert 32 7, DW_OP_LLVM_convert 64 7, DW_OP_mul, DW_OP_constu 32, DW_OP_shr, DW_OP_minus, DW_OP_stack_value] $eax, $rsi, $edx, $rsi
	.loc	2 192 49 is_stmt 0              # crypto_pwhash/argon2/argon2-core.h:192:49 @[ crypto_pwhash/argon2/argon2-fill-block-avx512f.c:230:21 ]
	addq	%rbx, %rax
.Ltmp94:
	.loc	2 190 25 is_stmt 1              # crypto_pwhash/argon2/argon2-core.h:190:25 @[ crypto_pwhash/argon2/argon2-fill-block-avx512f.c:230:21 ]
	movl	%esi, %esi
.Ltmp95:
	#DEBUG_VALUE: index_alpha:relative_position <- [DW_OP_LLVM_arg 0, DW_OP_LLVM_arg 1, DW_OP_LLVM_arg 3, DW_OP_mul, DW_OP_constu 32, DW_OP_shr, DW_OP_LLVM_arg 2, DW_OP_LLVM_convert 32 7, DW_OP_LLVM_convert 64 7, DW_OP_mul, DW_OP_constu 32, DW_OP_shr, DW_OP_minus, DW_OP_stack_value] undef, undef, undef, undef
	.loc	2 191 43                        # crypto_pwhash/argon2/argon2-core.h:191:43 @[ crypto_pwhash/argon2/argon2-fill-block-avx512f.c:230:21 ]
	imulq	%rsi, %rsi
.Ltmp96:
	#DEBUG_VALUE: index_alpha:relative_position <- [DW_OP_LLVM_arg 0, DW_OP_LLVM_arg 1, DW_OP_constu 32, DW_OP_shr, DW_OP_LLVM_arg 2, DW_OP_LLVM_convert 32 7, DW_OP_LLVM_convert 64 7, DW_OP_mul, DW_OP_constu 32, DW_OP_shr, DW_OP_minus, DW_OP_stack_value] undef, undef, undef
	.loc	2 191 63 is_stmt 0              # crypto_pwhash/argon2/argon2-core.h:191:63 @[ crypto_pwhash/argon2/argon2-fill-block-avx512f.c:230:21 ]
	shrq	$32, %rsi
.Ltmp97:
	#DEBUG_VALUE: index_alpha:relative_position <- [DW_OP_LLVM_arg 0, DW_OP_LLVM_arg 1, DW_OP_LLVM_arg 2, DW_OP_LLVM_convert 32 7, DW_OP_LLVM_convert 64 7, DW_OP_mul, DW_OP_constu 32, DW_OP_shr, DW_OP_minus, DW_OP_stack_value] undef, undef, undef
	.loc	2 193 26 is_stmt 1              # crypto_pwhash/argon2/argon2-core.h:193:26 @[ crypto_pwhash/argon2/argon2-fill-block-avx512f.c:230:21 ]
	movl	%edx, %edx
.Ltmp98:
	#DEBUG_VALUE: index_alpha:relative_position <- [DW_OP_LLVM_arg 0, DW_OP_LLVM_arg 1, DW_OP_LLVM_arg 2, DW_OP_mul, DW_OP_constu 32, DW_OP_shr, DW_OP_minus, DW_OP_stack_value] undef, undef, undef
	.loc	2 193 46 is_stmt 0              # crypto_pwhash/argon2/argon2-core.h:193:46 @[ crypto_pwhash/argon2/argon2-fill-block-avx512f.c:230:21 ]
	imulq	%rsi, %rdx
.Ltmp99:
	#DEBUG_VALUE: index_alpha:relative_position <- [DW_OP_LLVM_arg 0, DW_OP_LLVM_arg 1, DW_OP_constu 32, DW_OP_shr, DW_OP_minus, DW_OP_stack_value] undef, undef
	.loc	2 193 66                        # crypto_pwhash/argon2/argon2-core.h:193:66 @[ crypto_pwhash/argon2/argon2-fill-block-avx512f.c:230:21 ]
	shrq	$32, %rdx
.Ltmp100:
	#DEBUG_VALUE: index_alpha:relative_position <- undef
	#DEBUG_VALUE: index_alpha:start_position <- $rbx
	.loc	2 205 41 is_stmt 1              # crypto_pwhash/argon2/argon2-core.h:205:41 @[ crypto_pwhash/argon2/argon2-fill-block-avx512f.c:230:21 ]
	subq	%rdx, %rax
	.loc	2 205 62 is_stmt 0              # crypto_pwhash/argon2/argon2-core.h:205:62 @[ crypto_pwhash/argon2/argon2-fill-block-avx512f.c:230:21 ]
	movq	%rax, %rdx
	shrq	$32, %rdx
	je	.LBB0_35
.Ltmp101:
# %bb.34:                               #   in Loop: Header=BB0_17 Depth=1
	#DEBUG_VALUE: argon2_fill_segment_avx512f:position <- [DW_OP_plus_uconst 64, DW_OP_deref_size 8, DW_OP_constu 8, DW_OP_shr, DW_OP_LLVM_convert 64 7, DW_OP_LLVM_convert 24 7, DW_OP_stack_value, DW_OP_LLVM_fragment 72 24] $rsp
	#DEBUG_VALUE: argon2_fill_segment_avx512f:instance <- [DW_OP_plus_uconst 88] [$rsp+0]
	#DEBUG_VALUE: argon2_fill_segment_avx512f:position <- [DW_OP_plus_uconst 80, DW_OP_deref, DW_OP_LLVM_fragment 32 32] $rsp
	#DEBUG_VALUE: argon2_fill_segment_avx512f:position <- [DW_OP_plus_uconst 96, DW_OP_deref, DW_OP_LLVM_fragment 0 32] $rsp
	#DEBUG_VALUE: argon2_fill_segment_avx512f:position <- [DW_OP_plus_uconst 64, DW_OP_deref, DW_OP_LLVM_fragment 64 8] $rsp
	#DEBUG_VALUE: argon2_fill_segment_avx512f:position <- [DW_OP_LLVM_fragment 96 32] $r14
	#DEBUG_VALUE: argon2_fill_segment_avx512f:i <- $r14
	#DEBUG_VALUE: argon2_fill_segment_avx512f:curr_offset <- $r12d
	#DEBUG_VALUE: argon2_fill_segment_avx512f:prev_offset <- $r15d
	#DEBUG_VALUE: argon2_fill_segment_avx512f:ref_lane <- $rcx
	#DEBUG_VALUE: index_alpha:instance <- [DW_OP_plus_uconst 88, DW_OP_deref] $rsp
	#DEBUG_VALUE: index_alpha:start_position <- $rbx
	xorl	%edx, %edx
	divq	%rdi
	movq	%rdx, %rsi
	jmp	.LBB0_36
.Ltmp102:
	.loc	2 0 62                          # :0:62
.Ltmp103:
	.p2align	4
.LBB0_35:                               #   in Loop: Header=BB0_17 Depth=1
	#DEBUG_VALUE: argon2_fill_segment_avx512f:position <- [DW_OP_plus_uconst 64, DW_OP_deref_size 8, DW_OP_constu 8, DW_OP_shr, DW_OP_LLVM_convert 64 7, DW_OP_LLVM_convert 24 7, DW_OP_stack_value, DW_OP_LLVM_fragment 72 24] $rsp
	#DEBUG_VALUE: argon2_fill_segment_avx512f:instance <- [DW_OP_plus_uconst 88] [$rsp+0]
	#DEBUG_VALUE: argon2_fill_segment_avx512f:position <- [DW_OP_plus_uconst 80, DW_OP_deref, DW_OP_LLVM_fragment 32 32] $rsp
	#DEBUG_VALUE: argon2_fill_segment_avx512f:position <- [DW_OP_plus_uconst 96, DW_OP_deref, DW_OP_LLVM_fragment 0 32] $rsp
	#DEBUG_VALUE: argon2_fill_segment_avx512f:position <- [DW_OP_plus_uconst 64, DW_OP_deref, DW_OP_LLVM_fragment 64 8] $rsp
	#DEBUG_VALUE: argon2_fill_segment_avx512f:position <- [DW_OP_LLVM_fragment 96 32] $r14
	#DEBUG_VALUE: argon2_fill_segment_avx512f:i <- $r14
	#DEBUG_VALUE: argon2_fill_segment_avx512f:curr_offset <- $r12d
	#DEBUG_VALUE: argon2_fill_segment_avx512f:prev_offset <- $r15d
	#DEBUG_VALUE: argon2_fill_segment_avx512f:ref_lane <- $rcx
	#DEBUG_VALUE: index_alpha:instance <- [DW_OP_plus_uconst 88, DW_OP_deref] $rsp
	#DEBUG_VALUE: index_alpha:start_position <- $rbx
                                        # kill: def $eax killed $eax killed $rax
	.loc	2 205 62                        # crypto_pwhash/argon2/argon2-core.h:205:62 @[ crypto_pwhash/argon2/argon2-fill-block-avx512f.c:230:21 ]
	xorl	%edx, %edx
	divl	%edi
	movl	%edx, %esi
.Ltmp104:
.LBB0_36:                               #   in Loop: Header=BB0_17 Depth=1
	#DEBUG_VALUE: argon2_fill_segment_avx512f:position <- [DW_OP_plus_uconst 64, DW_OP_deref_size 8, DW_OP_constu 8, DW_OP_shr, DW_OP_LLVM_convert 64 7, DW_OP_LLVM_convert 24 7, DW_OP_stack_value, DW_OP_LLVM_fragment 72 24] $rsp
	#DEBUG_VALUE: argon2_fill_segment_avx512f:instance <- [DW_OP_plus_uconst 88] [$rsp+0]
	#DEBUG_VALUE: argon2_fill_segment_avx512f:position <- [DW_OP_plus_uconst 80, DW_OP_deref, DW_OP_LLVM_fragment 32 32] $rsp
	#DEBUG_VALUE: argon2_fill_segment_avx512f:position <- [DW_OP_plus_uconst 96, DW_OP_deref, DW_OP_LLVM_fragment 0 32] $rsp
	#DEBUG_VALUE: argon2_fill_segment_avx512f:position <- [DW_OP_plus_uconst 64, DW_OP_deref, DW_OP_LLVM_fragment 64 8] $rsp
	#DEBUG_VALUE: argon2_fill_segment_avx512f:position <- [DW_OP_LLVM_fragment 96 32] $r14
	#DEBUG_VALUE: argon2_fill_segment_avx512f:i <- $r14
	#DEBUG_VALUE: argon2_fill_segment_avx512f:curr_offset <- $r12d
	#DEBUG_VALUE: argon2_fill_segment_avx512f:prev_offset <- $r15d
	#DEBUG_VALUE: argon2_fill_segment_avx512f:ref_lane <- $rcx
	#DEBUG_VALUE: index_alpha:instance <- [DW_OP_plus_uconst 88, DW_OP_deref] $rsp
	#DEBUG_VALUE: index_alpha:start_position <- $rbx
	.loc	6 0 0                           # crypto_pwhash/argon2/argon2-fill-block-avx512f.c:0
	movl	%r12d, %eax
	#DEBUG_VALUE: index_alpha:absolute_position <- $rsi
.Ltmp105:
	#DEBUG_VALUE: argon2_fill_segment_avx512f:ref_index <- $rsi
	.loc	6 234 31 is_stmt 1              # crypto_pwhash/argon2/argon2-fill-block-avx512f.c:234:31
	movq	(%r10), %rdx
	.loc	6 234 39 is_stmt 0              # crypto_pwhash/argon2/argon2-fill-block-avx512f.c:234:39
	movq	8(%rdx), %rdx
	.loc	6 235 43 is_stmt 1              # crypto_pwhash/argon2/argon2-fill-block-avx512f.c:235:43
	imulq	%rdi, %rcx
.Ltmp106:
	.loc	6 234 46                        # crypto_pwhash/argon2/argon2-fill-block-avx512f.c:234:46
	shlq	$10, %rcx
	addq	%rdx, %rcx
	.loc	6 235 54                        # crypto_pwhash/argon2/argon2-fill-block-avx512f.c:235:54
	shlq	$10, %rsi
.Ltmp107:
	addq	%rcx, %rsi
.Ltmp108:
	#DEBUG_VALUE: argon2_fill_segment_avx512f:ref_block <- $rsi
	#DEBUG_VALUE: argon2_fill_segment_avx512f:curr_block <- undef
	.loc	6 0 0 is_stmt 0                 # crypto_pwhash/argon2/argon2-fill-block-avx512f.c:0
	shlq	$10, %rax
.Ltmp109:
	#DEBUG_VALUE: fill_block:block_XY <- [DW_OP_plus_uconst 128, DW_OP_deref] $rsp
	#DEBUG_VALUE: fill_block:state <- [DW_OP_plus_uconst 5248, DW_OP_stack_value] $rsp
	#DEBUG_VALUE: fill_block:ref_block <- $rsi
	#DEBUG_VALUE: fill_block:next_block <- undef
	.loc	6 181 12 is_stmt 1              # crypto_pwhash/argon2/argon2-fill-block-avx512f.c:181:12
	testl	%r9d, %r9d
.Ltmp110:
	.loc	6 237 27                        # crypto_pwhash/argon2/argon2-fill-block-avx512f.c:237:27
	jne	.LBB0_15
.Ltmp111:
# %bb.37:                               #   in Loop: Header=BB0_17 Depth=1
	#DEBUG_VALUE: argon2_fill_segment_avx512f:position <- [DW_OP_plus_uconst 64, DW_OP_deref_size 8, DW_OP_constu 8, DW_OP_shr, DW_OP_LLVM_convert 64 7, DW_OP_LLVM_convert 24 7, DW_OP_stack_value, DW_OP_LLVM_fragment 72 24] $rsp
	#DEBUG_VALUE: argon2_fill_segment_avx512f:instance <- [DW_OP_plus_uconst 88] [$rsp+0]
	#DEBUG_VALUE: argon2_fill_segment_avx512f:position <- [DW_OP_plus_uconst 80, DW_OP_deref, DW_OP_LLVM_fragment 32 32] $rsp
	#DEBUG_VALUE: argon2_fill_segment_avx512f:position <- [DW_OP_plus_uconst 96, DW_OP_deref, DW_OP_LLVM_fragment 0 32] $rsp
	#DEBUG_VALUE: argon2_fill_segment_avx512f:position <- [DW_OP_plus_uconst 64, DW_OP_deref, DW_OP_LLVM_fragment 64 8] $rsp
	#DEBUG_VALUE: argon2_fill_segment_avx512f:position <- [DW_OP_LLVM_fragment 96 32] $r14
	#DEBUG_VALUE: argon2_fill_segment_avx512f:ref_block <- $rsi
	#DEBUG_VALUE: argon2_fill_segment_avx512f:i <- $r14
	#DEBUG_VALUE: argon2_fill_segment_avx512f:curr_offset <- $r12d
	#DEBUG_VALUE: argon2_fill_segment_avx512f:prev_offset <- $r15d
	#DEBUG_VALUE: index_alpha:instance <- [DW_OP_plus_uconst 88, DW_OP_deref] $rsp
	#DEBUG_VALUE: index_alpha:start_position <- $rbx
	#DEBUG_VALUE: fill_block:block_XY <- [DW_OP_plus_uconst 128, DW_OP_deref] $rsp
	#DEBUG_VALUE: fill_block:state <- [DW_OP_plus_uconst 5248, DW_OP_stack_value] $rsp
	#DEBUG_VALUE: fill_block:ref_block <- $rsi
	.loc	6 0 27 is_stmt 0                # crypto_pwhash/argon2/argon2-fill-block-avx512f.c:0:27
	movl	$64, %ecx
	#DEBUG_VALUE: fill_block:i <- 0
	xorl	%edi, %edi
	leaq	5312(%rsp), %rbx
.Ltmp112:
	.p2align	4
.LBB0_38:                               #   Parent Loop BB0_17 Depth=1
                                        # =>  This Inner Loop Header: Depth=2
	#DEBUG_VALUE: argon2_fill_segment_avx512f:position <- [DW_OP_plus_uconst 64, DW_OP_deref_size 8, DW_OP_constu 8, DW_OP_shr, DW_OP_LLVM_convert 64 7, DW_OP_LLVM_convert 24 7, DW_OP_stack_value, DW_OP_LLVM_fragment 72 24] $rsp
	#DEBUG_VALUE: argon2_fill_segment_avx512f:instance <- [DW_OP_plus_uconst 88] [$rsp+0]
	#DEBUG_VALUE: argon2_fill_segment_avx512f:position <- [DW_OP_plus_uconst 80, DW_OP_deref, DW_OP_LLVM_fragment 32 32] $rsp
	#DEBUG_VALUE: argon2_fill_segment_avx512f:position <- [DW_OP_plus_uconst 96, DW_OP_deref, DW_OP_LLVM_fragment 0 32] $rsp
	#DEBUG_VALUE: argon2_fill_segment_avx512f:position <- [DW_OP_plus_uconst 64, DW_OP_deref, DW_OP_LLVM_fragment 64 8] $rsp
	#DEBUG_VALUE: argon2_fill_segment_avx512f:position <- [DW_OP_LLVM_fragment 96 32] $r14
	#DEBUG_VALUE: argon2_fill_segment_avx512f:ref_block <- $rsi
	#DEBUG_VALUE: argon2_fill_segment_avx512f:i <- $r14
	#DEBUG_VALUE: argon2_fill_segment_avx512f:curr_offset <- $r12d
	#DEBUG_VALUE: argon2_fill_segment_avx512f:prev_offset <- $r15d
	#DEBUG_VALUE: fill_block:block_XY <- [DW_OP_plus_uconst 128, DW_OP_deref] $rsp
	#DEBUG_VALUE: fill_block:state <- [DW_OP_plus_uconst 5248, DW_OP_stack_value] $rsp
	#DEBUG_VALUE: fill_block:ref_block <- $rsi
	#DEBUG_VALUE: fill_block:i <- $rdi
	.loc	6 54 75 is_stmt 1               # crypto_pwhash/argon2/argon2-fill-block-avx512f.c:54:75 @[ crypto_pwhash/argon2/argon2-fill-block-avx512f.c:241:13 ]
	movq	%rdi, %r8
	shlq	$6, %r8
	.loc	6 54 23 is_stmt 0               # crypto_pwhash/argon2/argon2-fill-block-avx512f.c:54:23 @[ crypto_pwhash/argon2/argon2-fill-block-avx512f.c:241:13 ]
	vmovdqu64	(%rsi,%r8), %zmm0
	.loc	6 53 34 is_stmt 1               # crypto_pwhash/argon2/argon2-fill-block-avx512f.c:53:34 @[ crypto_pwhash/argon2/argon2-fill-block-avx512f.c:241:13 ]
	vpxorq	5184(%rsp,%rcx), %zmm0, %zmm0
	.loc	6 53 32 is_stmt 0               # crypto_pwhash/argon2/argon2-fill-block-avx512f.c:53:32 @[ crypto_pwhash/argon2/argon2-fill-block-avx512f.c:241:13 ]
	vmovdqa64	%zmm0, 5184(%rsp,%rcx)
	.loc	6 53 21                         # crypto_pwhash/argon2/argon2-fill-block-avx512f.c:53:21 @[ crypto_pwhash/argon2/argon2-fill-block-avx512f.c:241:13 ]
	vmovdqa64	%zmm0, 64(%rsp,%rcx)
.Ltmp113:
	#DEBUG_VALUE: fill_block:i <- undef
	.loc	6 54 23 is_stmt 1               # crypto_pwhash/argon2/argon2-fill-block-avx512f.c:54:23 @[ crypto_pwhash/argon2/argon2-fill-block-avx512f.c:241:13 ]
	vmovdqu64	64(%rsi,%r8), %zmm0
	.loc	6 53 34                         # crypto_pwhash/argon2/argon2-fill-block-avx512f.c:53:34 @[ crypto_pwhash/argon2/argon2-fill-block-avx512f.c:241:13 ]
	vpxorq	5248(%rsp,%rcx), %zmm0, %zmm0
	.loc	6 53 32 is_stmt 0               # crypto_pwhash/argon2/argon2-fill-block-avx512f.c:53:32 @[ crypto_pwhash/argon2/argon2-fill-block-avx512f.c:241:13 ]
	vmovdqa64	%zmm0, 5248(%rsp,%rcx)
	.loc	6 53 21                         # crypto_pwhash/argon2/argon2-fill-block-avx512f.c:53:21 @[ crypto_pwhash/argon2/argon2-fill-block-avx512f.c:241:13 ]
	vmovdqa64	%zmm0, 128(%rsp,%rcx)
.Ltmp114:
	.loc	6 52 52 is_stmt 1               # crypto_pwhash/argon2/argon2-fill-block-avx512f.c:52:52 @[ crypto_pwhash/argon2/argon2-fill-block-avx512f.c:241:13 ]
	addq	$2, %rdi
.Ltmp115:
	#DEBUG_VALUE: fill_block:i <- $rdi
	.loc	6 52 19 is_stmt 0               # crypto_pwhash/argon2/argon2-fill-block-avx512f.c:52:19 @[ crypto_pwhash/argon2/argon2-fill-block-avx512f.c:241:13 ]
	subq	$-128, %rcx
	cmpq	$1088, %rcx                     # imm = 0x440
.Ltmp116:
	.loc	6 52 5                          # crypto_pwhash/argon2/argon2-fill-block-avx512f.c:52:5 @[ crypto_pwhash/argon2/argon2-fill-block-avx512f.c:241:13 ]
	jne	.LBB0_38
.Ltmp117:
# %bb.39:                               # %.preheader920.i.preheader
                                        #   in Loop: Header=BB0_17 Depth=1
	#DEBUG_VALUE: argon2_fill_segment_avx512f:position <- [DW_OP_plus_uconst 64, DW_OP_deref_size 8, DW_OP_constu 8, DW_OP_shr, DW_OP_LLVM_convert 64 7, DW_OP_LLVM_convert 24 7, DW_OP_stack_value, DW_OP_LLVM_fragment 72 24] $rsp
	#DEBUG_VALUE: argon2_fill_segment_avx512f:instance <- [DW_OP_plus_uconst 88] [$rsp+0]
	#DEBUG_VALUE: argon2_fill_segment_avx512f:position <- [DW_OP_plus_uconst 80, DW_OP_deref, DW_OP_LLVM_fragment 32 32] $rsp
	#DEBUG_VALUE: argon2_fill_segment_avx512f:position <- [DW_OP_plus_uconst 96, DW_OP_deref, DW_OP_LLVM_fragment 0 32] $rsp
	#DEBUG_VALUE: argon2_fill_segment_avx512f:position <- [DW_OP_plus_uconst 64, DW_OP_deref, DW_OP_LLVM_fragment 64 8] $rsp
	#DEBUG_VALUE: argon2_fill_segment_avx512f:position <- [DW_OP_LLVM_fragment 96 32] $r14
	#DEBUG_VALUE: argon2_fill_segment_avx512f:ref_block <- $rsi
	#DEBUG_VALUE: argon2_fill_segment_avx512f:i <- $r14
	#DEBUG_VALUE: argon2_fill_segment_avx512f:curr_offset <- $r12d
	#DEBUG_VALUE: argon2_fill_segment_avx512f:prev_offset <- $r15d
	#DEBUG_VALUE: fill_block:block_XY <- [DW_OP_plus_uconst 128, DW_OP_deref] $rsp
	#DEBUG_VALUE: fill_block:state <- [DW_OP_plus_uconst 5248, DW_OP_stack_value] $rsp
	#DEBUG_VALUE: fill_block:ref_block <- $rsi
	#DEBUG_VALUE: fill_block:i <- $rdi
	.loc	6 0 5                           # crypto_pwhash/argon2/argon2-fill-block-avx512f.c:0:5
	movb	$1, %cl
	leaq	5248(%rsp), %rsi
.Ltmp118:
	.p2align	4
.LBB0_40:                               # %.preheader920.i
                                        #   Parent Loop BB0_17 Depth=1
                                        # =>  This Inner Loop Header: Depth=2
	#DEBUG_VALUE: argon2_fill_segment_avx512f:position <- [DW_OP_plus_uconst 64, DW_OP_deref_size 8, DW_OP_constu 8, DW_OP_shr, DW_OP_LLVM_convert 64 7, DW_OP_LLVM_convert 24 7, DW_OP_stack_value, DW_OP_LLVM_fragment 72 24] $rsp
	#DEBUG_VALUE: argon2_fill_segment_avx512f:instance <- [DW_OP_plus_uconst 88] [$rsp+0]
	#DEBUG_VALUE: argon2_fill_segment_avx512f:position <- [DW_OP_plus_uconst 80, DW_OP_deref, DW_OP_LLVM_fragment 32 32] $rsp
	#DEBUG_VALUE: argon2_fill_segment_avx512f:position <- [DW_OP_plus_uconst 96, DW_OP_deref, DW_OP_LLVM_fragment 0 32] $rsp
	#DEBUG_VALUE: argon2_fill_segment_avx512f:position <- [DW_OP_plus_uconst 64, DW_OP_deref, DW_OP_LLVM_fragment 64 8] $rsp
	#DEBUG_VALUE: argon2_fill_segment_avx512f:position <- [DW_OP_LLVM_fragment 96 32] $r14
	#DEBUG_VALUE: argon2_fill_segment_avx512f:i <- $r14
	#DEBUG_VALUE: argon2_fill_segment_avx512f:curr_offset <- $r12d
	#DEBUG_VALUE: argon2_fill_segment_avx512f:prev_offset <- $r15d
	#DEBUG_VALUE: fill_block:block_XY <- [DW_OP_plus_uconst 128, DW_OP_deref] $rsp
	#DEBUG_VALUE: fill_block:state <- [DW_OP_plus_uconst 5248, DW_OP_stack_value] $rsp
	#DEBUG_VALUE: fill_block:i <- undef
	.loc	6 58 94 is_stmt 1               # crypto_pwhash/argon2/argon2-fill-block-avx512f.c:58:94 @[ crypto_pwhash/argon2/argon2-fill-block-avx512f.c:241:13 ]
	vmovdqa64	(%rsi), %zmm0
.Ltmp119:
	.loc	6 58 522 is_stmt 0              # crypto_pwhash/argon2/argon2-fill-block-avx512f.c:58:522 @[ crypto_pwhash/argon2/argon2-fill-block-avx512f.c:241:13 ]
	vmovdqa64	64(%rsi), %zmm1
.Ltmp120:
	.loc	6 58 950                        # crypto_pwhash/argon2/argon2-fill-block-avx512f.c:58:950 @[ crypto_pwhash/argon2/argon2-fill-block-avx512f.c:241:13 ]
	vmovdqa64	256(%rsi), %zmm2
.Ltmp121:
	.loc	6 58 1378                       # crypto_pwhash/argon2/argon2-fill-block-avx512f.c:58:1378 @[ crypto_pwhash/argon2/argon2-fill-block-avx512f.c:241:13 ]
	vmovdqa64	320(%rsi), %zmm3
.Ltmp122:
	.loc	6 58 50                         # crypto_pwhash/argon2/argon2-fill-block-avx512f.c:58:50 @[ crypto_pwhash/argon2/argon2-fill-block-avx512f.c:241:13 ]
	vinserti64x4	$1, 128(%rsi), %zmm0, %zmm4
.Ltmp123:
	#DEBUG_VALUE: t0 <- $zmm4
	.loc	6 58 220                        # crypto_pwhash/argon2/argon2-fill-block-avx512f.c:58:220 @[ crypto_pwhash/argon2/argon2-fill-block-avx512f.c:241:13 ]
	vshufi64x2	$238, 128(%rsi), %zmm0, %zmm0 # zmm0 = zmm0[4,5,6,7],mem[4,5,6,7]
.Ltmp124:
	#DEBUG_VALUE: t1 <- $zmm0
	.loc	6 58 478                        # crypto_pwhash/argon2/argon2-fill-block-avx512f.c:58:478 @[ crypto_pwhash/argon2/argon2-fill-block-avx512f.c:241:13 ]
	vinserti64x4	$1, 192(%rsi), %zmm1, %zmm5
.Ltmp125:
	#DEBUG_VALUE: t0 <- $zmm5
	.loc	6 58 648                        # crypto_pwhash/argon2/argon2-fill-block-avx512f.c:58:648 @[ crypto_pwhash/argon2/argon2-fill-block-avx512f.c:241:13 ]
	vshufi64x2	$238, 192(%rsi), %zmm1, %zmm1 # zmm1 = zmm1[4,5,6,7],mem[4,5,6,7]
.Ltmp126:
	#DEBUG_VALUE: t1 <- $zmm1
	.loc	6 58 906                        # crypto_pwhash/argon2/argon2-fill-block-avx512f.c:58:906 @[ crypto_pwhash/argon2/argon2-fill-block-avx512f.c:241:13 ]
	vinserti64x4	$1, 384(%rsi), %zmm2, %zmm6
.Ltmp127:
	#DEBUG_VALUE: t0 <- $zmm6
	.loc	6 58 1076                       # crypto_pwhash/argon2/argon2-fill-block-avx512f.c:58:1076 @[ crypto_pwhash/argon2/argon2-fill-block-avx512f.c:241:13 ]
	vshufi64x2	$238, 384(%rsi), %zmm2, %zmm2 # zmm2 = zmm2[4,5,6,7],mem[4,5,6,7]
.Ltmp128:
	#DEBUG_VALUE: t1 <- $zmm2
	.loc	6 58 1334                       # crypto_pwhash/argon2/argon2-fill-block-avx512f.c:58:1334 @[ crypto_pwhash/argon2/argon2-fill-block-avx512f.c:241:13 ]
	vinserti64x4	$1, 448(%rsi), %zmm3, %zmm7
.Ltmp129:
	#DEBUG_VALUE: t0 <- $zmm7
	.loc	6 58 1504                       # crypto_pwhash/argon2/argon2-fill-block-avx512f.c:58:1504 @[ crypto_pwhash/argon2/argon2-fill-block-avx512f.c:241:13 ]
	vshufi64x2	$238, 448(%rsi), %zmm3, %zmm3 # zmm3 = zmm3[4,5,6,7],mem[4,5,6,7]
.Ltmp130:
	#DEBUG_VALUE: t1 <- $zmm3
	#DEBUG_VALUE: muladd:x <- $zmm4
	#DEBUG_VALUE: muladd:y <- $zmm0
	.file	8 "crypto_pwhash/argon2" "blamka-round-avx512f.h"
	.loc	8 12 17 is_stmt 1               # crypto_pwhash/argon2/blamka-round-avx512f.h:12:17 @[ crypto_pwhash/argon2/argon2-fill-block-avx512f.c:58:1755 @[ crypto_pwhash/argon2/argon2-fill-block-avx512f.c:241:13 ] ]
	vpmuludq	%zmm4, %zmm0, %zmm8
.Ltmp131:
	#DEBUG_VALUE: muladd:z <- $zmm8
	.loc	8 14 29                         # crypto_pwhash/argon2/blamka-round-avx512f.h:14:29 @[ crypto_pwhash/argon2/argon2-fill-block-avx512f.c:58:1755 @[ crypto_pwhash/argon2/argon2-fill-block-avx512f.c:241:13 ] ]
	vpaddq	%zmm4, %zmm0, %zmm4
.Ltmp132:
	.loc	8 14 53 is_stmt 0               # crypto_pwhash/argon2/blamka-round-avx512f.h:14:53 @[ crypto_pwhash/argon2/argon2-fill-block-avx512f.c:58:1755 @[ crypto_pwhash/argon2/argon2-fill-block-avx512f.c:241:13 ] ]
	vpaddq	%zmm8, %zmm8, %zmm8
.Ltmp133:
	.loc	8 14 12                         # crypto_pwhash/argon2/blamka-round-avx512f.h:14:12 @[ crypto_pwhash/argon2/argon2-fill-block-avx512f.c:58:1755 @[ crypto_pwhash/argon2/argon2-fill-block-avx512f.c:241:13 ] ]
	vpaddq	%zmm8, %zmm4, %zmm4
.Ltmp134:
	#DEBUG_VALUE: muladd:x <- $zmm6
	#DEBUG_VALUE: muladd:y <- $zmm2
	.loc	8 12 17 is_stmt 1               # crypto_pwhash/argon2/blamka-round-avx512f.h:12:17 @[ crypto_pwhash/argon2/argon2-fill-block-avx512f.c:58:1818 @[ crypto_pwhash/argon2/argon2-fill-block-avx512f.c:241:13 ] ]
	vpmuludq	%zmm6, %zmm2, %zmm8
.Ltmp135:
	#DEBUG_VALUE: muladd:z <- $zmm8
	.loc	8 14 29                         # crypto_pwhash/argon2/blamka-round-avx512f.h:14:29 @[ crypto_pwhash/argon2/argon2-fill-block-avx512f.c:58:1818 @[ crypto_pwhash/argon2/argon2-fill-block-avx512f.c:241:13 ] ]
	vpaddq	%zmm6, %zmm2, %zmm6
.Ltmp136:
	.loc	8 14 53 is_stmt 0               # crypto_pwhash/argon2/blamka-round-avx512f.h:14:53 @[ crypto_pwhash/argon2/argon2-fill-block-avx512f.c:58:1818 @[ crypto_pwhash/argon2/argon2-fill-block-avx512f.c:241:13 ] ]
	vpaddq	%zmm8, %zmm8, %zmm8
.Ltmp137:
	.loc	8 14 12                         # crypto_pwhash/argon2/blamka-round-avx512f.h:14:12 @[ crypto_pwhash/argon2/argon2-fill-block-avx512f.c:58:1818 @[ crypto_pwhash/argon2/argon2-fill-block-avx512f.c:241:13 ] ]
	vpaddq	%zmm8, %zmm6, %zmm6
.Ltmp138:
	.loc	6 58 1881 is_stmt 1             # crypto_pwhash/argon2/argon2-fill-block-avx512f.c:58:1881 @[ crypto_pwhash/argon2/argon2-fill-block-avx512f.c:241:13 ]
	vpxorq	%zmm1, %zmm4, %zmm1
	.loc	6 58 1954 is_stmt 0             # crypto_pwhash/argon2/argon2-fill-block-avx512f.c:58:1954 @[ crypto_pwhash/argon2/argon2-fill-block-avx512f.c:241:13 ]
	vpxorq	%zmm3, %zmm6, %zmm3
	.loc	6 58 2037                       # crypto_pwhash/argon2/argon2-fill-block-avx512f.c:58:2037 @[ crypto_pwhash/argon2/argon2-fill-block-avx512f.c:241:13 ]
	vprolq	$32, %zmm1, %zmm1
	.loc	6 58 2144                       # crypto_pwhash/argon2/argon2-fill-block-avx512f.c:58:2144 @[ crypto_pwhash/argon2/argon2-fill-block-avx512f.c:241:13 ]
	vprolq	$32, %zmm3, %zmm3
.Ltmp139:
	#DEBUG_VALUE: muladd:y <- undef
	#DEBUG_VALUE: muladd:x <- $zmm5
	.loc	8 12 17 is_stmt 1               # crypto_pwhash/argon2/blamka-round-avx512f.h:12:17 @[ crypto_pwhash/argon2/argon2-fill-block-avx512f.c:58:2241 @[ crypto_pwhash/argon2/argon2-fill-block-avx512f.c:241:13 ] ]
	vpmuludq	%zmm5, %zmm1, %zmm8
.Ltmp140:
	#DEBUG_VALUE: muladd:z <- $zmm8
	.loc	8 14 29                         # crypto_pwhash/argon2/blamka-round-avx512f.h:14:29 @[ crypto_pwhash/argon2/argon2-fill-block-avx512f.c:58:2241 @[ crypto_pwhash/argon2/argon2-fill-block-avx512f.c:241:13 ] ]
	vpaddq	%zmm5, %zmm1, %zmm5
.Ltmp141:
	.loc	8 14 53 is_stmt 0               # crypto_pwhash/argon2/blamka-round-avx512f.h:14:53 @[ crypto_pwhash/argon2/argon2-fill-block-avx512f.c:58:2241 @[ crypto_pwhash/argon2/argon2-fill-block-avx512f.c:241:13 ] ]
	vpaddq	%zmm8, %zmm8, %zmm8
.Ltmp142:
	.loc	8 14 12                         # crypto_pwhash/argon2/blamka-round-avx512f.h:14:12 @[ crypto_pwhash/argon2/argon2-fill-block-avx512f.c:58:2241 @[ crypto_pwhash/argon2/argon2-fill-block-avx512f.c:241:13 ] ]
	vpaddq	%zmm8, %zmm5, %zmm5
.Ltmp143:
	#DEBUG_VALUE: muladd:y <- undef
	#DEBUG_VALUE: muladd:x <- $zmm7
	.loc	8 12 17 is_stmt 1               # crypto_pwhash/argon2/blamka-round-avx512f.h:12:17 @[ crypto_pwhash/argon2/argon2-fill-block-avx512f.c:58:2304 @[ crypto_pwhash/argon2/argon2-fill-block-avx512f.c:241:13 ] ]
	vpmuludq	%zmm7, %zmm3, %zmm8
.Ltmp144:
	#DEBUG_VALUE: muladd:z <- $zmm8
	.loc	8 14 29                         # crypto_pwhash/argon2/blamka-round-avx512f.h:14:29 @[ crypto_pwhash/argon2/argon2-fill-block-avx512f.c:58:2304 @[ crypto_pwhash/argon2/argon2-fill-block-avx512f.c:241:13 ] ]
	vpaddq	%zmm7, %zmm3, %zmm7
.Ltmp145:
	.loc	8 14 53 is_stmt 0               # crypto_pwhash/argon2/blamka-round-avx512f.h:14:53 @[ crypto_pwhash/argon2/argon2-fill-block-avx512f.c:58:2304 @[ crypto_pwhash/argon2/argon2-fill-block-avx512f.c:241:13 ] ]
	vpaddq	%zmm8, %zmm8, %zmm8
.Ltmp146:
	.loc	8 14 12                         # crypto_pwhash/argon2/blamka-round-avx512f.h:14:12 @[ crypto_pwhash/argon2/argon2-fill-block-avx512f.c:58:2304 @[ crypto_pwhash/argon2/argon2-fill-block-avx512f.c:241:13 ] ]
	vpaddq	%zmm8, %zmm7, %zmm7
.Ltmp147:
	.loc	6 58 2367 is_stmt 1             # crypto_pwhash/argon2/argon2-fill-block-avx512f.c:58:2367 @[ crypto_pwhash/argon2/argon2-fill-block-avx512f.c:241:13 ]
	vpxorq	%zmm0, %zmm5, %zmm0
.Ltmp148:
	.loc	6 58 2440 is_stmt 0             # crypto_pwhash/argon2/argon2-fill-block-avx512f.c:58:2440 @[ crypto_pwhash/argon2/argon2-fill-block-avx512f.c:241:13 ]
	vpxorq	%zmm2, %zmm7, %zmm2
.Ltmp149:
	.loc	6 58 2523                       # crypto_pwhash/argon2/argon2-fill-block-avx512f.c:58:2523 @[ crypto_pwhash/argon2/argon2-fill-block-avx512f.c:241:13 ]
	vprolq	$40, %zmm0, %zmm0
	.loc	6 58 2630                       # crypto_pwhash/argon2/argon2-fill-block-avx512f.c:58:2630 @[ crypto_pwhash/argon2/argon2-fill-block-avx512f.c:241:13 ]
	vprolq	$40, %zmm2, %zmm2
.Ltmp150:
	#DEBUG_VALUE: muladd:x <- $zmm4
	#DEBUG_VALUE: muladd:y <- undef
	.loc	8 12 17 is_stmt 1               # crypto_pwhash/argon2/blamka-round-avx512f.h:12:17 @[ crypto_pwhash/argon2/argon2-fill-block-avx512f.c:58:2754 @[ crypto_pwhash/argon2/argon2-fill-block-avx512f.c:241:13 ] ]
	vpmuludq	%zmm4, %zmm0, %zmm8
.Ltmp151:
	#DEBUG_VALUE: muladd:z <- $zmm8
	.loc	8 14 29                         # crypto_pwhash/argon2/blamka-round-avx512f.h:14:29 @[ crypto_pwhash/argon2/argon2-fill-block-avx512f.c:58:2754 @[ crypto_pwhash/argon2/argon2-fill-block-avx512f.c:241:13 ] ]
	vpaddq	%zmm4, %zmm0, %zmm4
.Ltmp152:
	.loc	8 14 53 is_stmt 0               # crypto_pwhash/argon2/blamka-round-avx512f.h:14:53 @[ crypto_pwhash/argon2/argon2-fill-block-avx512f.c:58:2754 @[ crypto_pwhash/argon2/argon2-fill-block-avx512f.c:241:13 ] ]
	vpaddq	%zmm8, %zmm8, %zmm8
.Ltmp153:
	.loc	8 14 12                         # crypto_pwhash/argon2/blamka-round-avx512f.h:14:12 @[ crypto_pwhash/argon2/argon2-fill-block-avx512f.c:58:2754 @[ crypto_pwhash/argon2/argon2-fill-block-avx512f.c:241:13 ] ]
	vpaddq	%zmm8, %zmm4, %zmm4
.Ltmp154:
	#DEBUG_VALUE: muladd:x <- $zmm6
	#DEBUG_VALUE: muladd:y <- undef
	.loc	8 12 17 is_stmt 1               # crypto_pwhash/argon2/blamka-round-avx512f.h:12:17 @[ crypto_pwhash/argon2/argon2-fill-block-avx512f.c:58:2817 @[ crypto_pwhash/argon2/argon2-fill-block-avx512f.c:241:13 ] ]
	vpmuludq	%zmm6, %zmm2, %zmm8
.Ltmp155:
	#DEBUG_VALUE: muladd:z <- $zmm8
	.loc	8 14 29                         # crypto_pwhash/argon2/blamka-round-avx512f.h:14:29 @[ crypto_pwhash/argon2/argon2-fill-block-avx512f.c:58:2817 @[ crypto_pwhash/argon2/argon2-fill-block-avx512f.c:241:13 ] ]
	vpaddq	%zmm6, %zmm2, %zmm6
.Ltmp156:
	.loc	8 14 53 is_stmt 0               # crypto_pwhash/argon2/blamka-round-avx512f.h:14:53 @[ crypto_pwhash/argon2/argon2-fill-block-avx512f.c:58:2817 @[ crypto_pwhash/argon2/argon2-fill-block-avx512f.c:241:13 ] ]
	vpaddq	%zmm8, %zmm8, %zmm8
.Ltmp157:
	.loc	8 14 12                         # crypto_pwhash/argon2/blamka-round-avx512f.h:14:12 @[ crypto_pwhash/argon2/argon2-fill-block-avx512f.c:58:2817 @[ crypto_pwhash/argon2/argon2-fill-block-avx512f.c:241:13 ] ]
	vpaddq	%zmm8, %zmm6, %zmm6
.Ltmp158:
	.loc	6 58 2880 is_stmt 1             # crypto_pwhash/argon2/argon2-fill-block-avx512f.c:58:2880 @[ crypto_pwhash/argon2/argon2-fill-block-avx512f.c:241:13 ]
	vpxorq	%zmm1, %zmm4, %zmm1
	.loc	6 58 2953 is_stmt 0             # crypto_pwhash/argon2/argon2-fill-block-avx512f.c:58:2953 @[ crypto_pwhash/argon2/argon2-fill-block-avx512f.c:241:13 ]
	vpxorq	%zmm3, %zmm6, %zmm3
	.loc	6 58 3036                       # crypto_pwhash/argon2/argon2-fill-block-avx512f.c:58:3036 @[ crypto_pwhash/argon2/argon2-fill-block-avx512f.c:241:13 ]
	vprolq	$48, %zmm1, %zmm1
	.loc	6 58 3143                       # crypto_pwhash/argon2/argon2-fill-block-avx512f.c:58:3143 @[ crypto_pwhash/argon2/argon2-fill-block-avx512f.c:241:13 ]
	vprolq	$48, %zmm3, %zmm3
.Ltmp159:
	#DEBUG_VALUE: muladd:x <- $zmm5
	#DEBUG_VALUE: muladd:y <- undef
	.loc	8 12 17 is_stmt 1               # crypto_pwhash/argon2/blamka-round-avx512f.h:12:17 @[ crypto_pwhash/argon2/argon2-fill-block-avx512f.c:58:3240 @[ crypto_pwhash/argon2/argon2-fill-block-avx512f.c:241:13 ] ]
	vpmuludq	%zmm5, %zmm1, %zmm8
.Ltmp160:
	#DEBUG_VALUE: muladd:z <- $zmm8
	.loc	8 14 29                         # crypto_pwhash/argon2/blamka-round-avx512f.h:14:29 @[ crypto_pwhash/argon2/argon2-fill-block-avx512f.c:58:3240 @[ crypto_pwhash/argon2/argon2-fill-block-avx512f.c:241:13 ] ]
	vpaddq	%zmm5, %zmm1, %zmm5
.Ltmp161:
	.loc	8 14 53 is_stmt 0               # crypto_pwhash/argon2/blamka-round-avx512f.h:14:53 @[ crypto_pwhash/argon2/argon2-fill-block-avx512f.c:58:3240 @[ crypto_pwhash/argon2/argon2-fill-block-avx512f.c:241:13 ] ]
	vpaddq	%zmm8, %zmm8, %zmm8
.Ltmp162:
	.loc	8 14 12                         # crypto_pwhash/argon2/blamka-round-avx512f.h:14:12 @[ crypto_pwhash/argon2/argon2-fill-block-avx512f.c:58:3240 @[ crypto_pwhash/argon2/argon2-fill-block-avx512f.c:241:13 ] ]
	vpaddq	%zmm8, %zmm5, %zmm5
.Ltmp163:
	#DEBUG_VALUE: muladd:x <- $zmm7
	#DEBUG_VALUE: muladd:y <- undef
	.loc	8 12 17 is_stmt 1               # crypto_pwhash/argon2/blamka-round-avx512f.h:12:17 @[ crypto_pwhash/argon2/argon2-fill-block-avx512f.c:58:3303 @[ crypto_pwhash/argon2/argon2-fill-block-avx512f.c:241:13 ] ]
	vpmuludq	%zmm7, %zmm3, %zmm8
.Ltmp164:
	#DEBUG_VALUE: muladd:z <- $zmm8
	.loc	8 14 29                         # crypto_pwhash/argon2/blamka-round-avx512f.h:14:29 @[ crypto_pwhash/argon2/argon2-fill-block-avx512f.c:58:3303 @[ crypto_pwhash/argon2/argon2-fill-block-avx512f.c:241:13 ] ]
	vpaddq	%zmm7, %zmm3, %zmm7
.Ltmp165:
	.loc	8 14 53 is_stmt 0               # crypto_pwhash/argon2/blamka-round-avx512f.h:14:53 @[ crypto_pwhash/argon2/argon2-fill-block-avx512f.c:58:3303 @[ crypto_pwhash/argon2/argon2-fill-block-avx512f.c:241:13 ] ]
	vpaddq	%zmm8, %zmm8, %zmm8
.Ltmp166:
	.loc	8 14 12                         # crypto_pwhash/argon2/blamka-round-avx512f.h:14:12 @[ crypto_pwhash/argon2/argon2-fill-block-avx512f.c:58:3303 @[ crypto_pwhash/argon2/argon2-fill-block-avx512f.c:241:13 ] ]
	vpaddq	%zmm8, %zmm7, %zmm7
.Ltmp167:
	.loc	6 58 3366 is_stmt 1             # crypto_pwhash/argon2/argon2-fill-block-avx512f.c:58:3366 @[ crypto_pwhash/argon2/argon2-fill-block-avx512f.c:241:13 ]
	vpxorq	%zmm0, %zmm5, %zmm0
	.loc	6 58 3439 is_stmt 0             # crypto_pwhash/argon2/argon2-fill-block-avx512f.c:58:3439 @[ crypto_pwhash/argon2/argon2-fill-block-avx512f.c:241:13 ]
	vpxorq	%zmm2, %zmm7, %zmm2
	.loc	6 58 3522                       # crypto_pwhash/argon2/argon2-fill-block-avx512f.c:58:3522 @[ crypto_pwhash/argon2/argon2-fill-block-avx512f.c:241:13 ]
	vprolq	$1, %zmm0, %zmm0
	.loc	6 58 3629                       # crypto_pwhash/argon2/argon2-fill-block-avx512f.c:58:3629 @[ crypto_pwhash/argon2/argon2-fill-block-avx512f.c:241:13 ]
	vprolq	$1, %zmm2, %zmm2
.Ltmp168:
	.loc	6 58 3763                       # crypto_pwhash/argon2/argon2-fill-block-avx512f.c:58:3763 @[ crypto_pwhash/argon2/argon2-fill-block-avx512f.c:241:13 ]
	vpermq	$57, %zmm0, %zmm0               # zmm0 = zmm0[1,2,3,0,5,6,7,4]
	.loc	6 58 3909                       # crypto_pwhash/argon2/argon2-fill-block-avx512f.c:58:3909 @[ crypto_pwhash/argon2/argon2-fill-block-avx512f.c:241:13 ]
	vpermq	$57, %zmm2, %zmm2               # zmm2 = zmm2[1,2,3,0,5,6,7,4]
	.loc	6 58 4055                       # crypto_pwhash/argon2/argon2-fill-block-avx512f.c:58:4055 @[ crypto_pwhash/argon2/argon2-fill-block-avx512f.c:241:13 ]
	vpermq	$78, %zmm5, %zmm5               # zmm5 = zmm5[2,3,0,1,6,7,4,5]
	.loc	6 58 4201                       # crypto_pwhash/argon2/argon2-fill-block-avx512f.c:58:4201 @[ crypto_pwhash/argon2/argon2-fill-block-avx512f.c:241:13 ]
	vpermq	$78, %zmm7, %zmm7               # zmm7 = zmm7[2,3,0,1,6,7,4,5]
	.loc	6 58 4347                       # crypto_pwhash/argon2/argon2-fill-block-avx512f.c:58:4347 @[ crypto_pwhash/argon2/argon2-fill-block-avx512f.c:241:13 ]
	vpermq	$147, %zmm1, %zmm1              # zmm1 = zmm1[3,0,1,2,7,4,5,6]
	.loc	6 58 4493                       # crypto_pwhash/argon2/argon2-fill-block-avx512f.c:58:4493 @[ crypto_pwhash/argon2/argon2-fill-block-avx512f.c:241:13 ]
	vpermq	$147, %zmm3, %zmm3              # zmm3 = zmm3[3,0,1,2,7,4,5,6]
.Ltmp169:
	#DEBUG_VALUE: muladd:x <- $zmm4
	#DEBUG_VALUE: muladd:y <- $zmm0
	.loc	8 12 17 is_stmt 1               # crypto_pwhash/argon2/blamka-round-avx512f.h:12:17 @[ crypto_pwhash/argon2/argon2-fill-block-avx512f.c:58:4656 @[ crypto_pwhash/argon2/argon2-fill-block-avx512f.c:241:13 ] ]
	vpmuludq	%zmm4, %zmm0, %zmm8
.Ltmp170:
	#DEBUG_VALUE: muladd:z <- $zmm8
	.loc	8 14 29                         # crypto_pwhash/argon2/blamka-round-avx512f.h:14:29 @[ crypto_pwhash/argon2/argon2-fill-block-avx512f.c:58:4656 @[ crypto_pwhash/argon2/argon2-fill-block-avx512f.c:241:13 ] ]
	vpaddq	%zmm4, %zmm0, %zmm4
.Ltmp171:
	.loc	8 14 53 is_stmt 0               # crypto_pwhash/argon2/blamka-round-avx512f.h:14:53 @[ crypto_pwhash/argon2/argon2-fill-block-avx512f.c:58:4656 @[ crypto_pwhash/argon2/argon2-fill-block-avx512f.c:241:13 ] ]
	vpaddq	%zmm8, %zmm8, %zmm8
.Ltmp172:
	.loc	8 14 12                         # crypto_pwhash/argon2/blamka-round-avx512f.h:14:12 @[ crypto_pwhash/argon2/argon2-fill-block-avx512f.c:58:4656 @[ crypto_pwhash/argon2/argon2-fill-block-avx512f.c:241:13 ] ]
	vpaddq	%zmm8, %zmm4, %zmm4
.Ltmp173:
	#DEBUG_VALUE: muladd:x <- $zmm6
	#DEBUG_VALUE: muladd:y <- $zmm2
	.loc	8 12 17 is_stmt 1               # crypto_pwhash/argon2/blamka-round-avx512f.h:12:17 @[ crypto_pwhash/argon2/argon2-fill-block-avx512f.c:58:4719 @[ crypto_pwhash/argon2/argon2-fill-block-avx512f.c:241:13 ] ]
	vpmuludq	%zmm6, %zmm2, %zmm8
.Ltmp174:
	#DEBUG_VALUE: muladd:z <- $zmm8
	.loc	8 14 29                         # crypto_pwhash/argon2/blamka-round-avx512f.h:14:29 @[ crypto_pwhash/argon2/argon2-fill-block-avx512f.c:58:4719 @[ crypto_pwhash/argon2/argon2-fill-block-avx512f.c:241:13 ] ]
	vpaddq	%zmm6, %zmm2, %zmm6
.Ltmp175:
	.loc	8 14 53 is_stmt 0               # crypto_pwhash/argon2/blamka-round-avx512f.h:14:53 @[ crypto_pwhash/argon2/argon2-fill-block-avx512f.c:58:4719 @[ crypto_pwhash/argon2/argon2-fill-block-avx512f.c:241:13 ] ]
	vpaddq	%zmm8, %zmm8, %zmm8
.Ltmp176:
	.loc	8 14 12                         # crypto_pwhash/argon2/blamka-round-avx512f.h:14:12 @[ crypto_pwhash/argon2/argon2-fill-block-avx512f.c:58:4719 @[ crypto_pwhash/argon2/argon2-fill-block-avx512f.c:241:13 ] ]
	vpaddq	%zmm8, %zmm6, %zmm6
.Ltmp177:
	.loc	6 58 4782 is_stmt 1             # crypto_pwhash/argon2/argon2-fill-block-avx512f.c:58:4782 @[ crypto_pwhash/argon2/argon2-fill-block-avx512f.c:241:13 ]
	vpxorq	%zmm1, %zmm4, %zmm1
	.loc	6 58 4855 is_stmt 0             # crypto_pwhash/argon2/argon2-fill-block-avx512f.c:58:4855 @[ crypto_pwhash/argon2/argon2-fill-block-avx512f.c:241:13 ]
	vpxorq	%zmm3, %zmm6, %zmm3
	.loc	6 58 4938                       # crypto_pwhash/argon2/argon2-fill-block-avx512f.c:58:4938 @[ crypto_pwhash/argon2/argon2-fill-block-avx512f.c:241:13 ]
	vprolq	$32, %zmm1, %zmm1
	.loc	6 58 5045                       # crypto_pwhash/argon2/argon2-fill-block-avx512f.c:58:5045 @[ crypto_pwhash/argon2/argon2-fill-block-avx512f.c:241:13 ]
	vprolq	$32, %zmm3, %zmm3
.Ltmp178:
	#DEBUG_VALUE: muladd:y <- undef
	#DEBUG_VALUE: muladd:x <- $zmm5
	.loc	8 12 17 is_stmt 1               # crypto_pwhash/argon2/blamka-round-avx512f.h:12:17 @[ crypto_pwhash/argon2/argon2-fill-block-avx512f.c:58:5142 @[ crypto_pwhash/argon2/argon2-fill-block-avx512f.c:241:13 ] ]
	vpmuludq	%zmm5, %zmm1, %zmm8
.Ltmp179:
	#DEBUG_VALUE: muladd:z <- $zmm8
	.loc	8 14 29                         # crypto_pwhash/argon2/blamka-round-avx512f.h:14:29 @[ crypto_pwhash/argon2/argon2-fill-block-avx512f.c:58:5142 @[ crypto_pwhash/argon2/argon2-fill-block-avx512f.c:241:13 ] ]
	vpaddq	%zmm5, %zmm1, %zmm5
.Ltmp180:
	.loc	8 14 53 is_stmt 0               # crypto_pwhash/argon2/blamka-round-avx512f.h:14:53 @[ crypto_pwhash/argon2/argon2-fill-block-avx512f.c:58:5142 @[ crypto_pwhash/argon2/argon2-fill-block-avx512f.c:241:13 ] ]
	vpaddq	%zmm8, %zmm8, %zmm8
.Ltmp181:
	.loc	8 14 12                         # crypto_pwhash/argon2/blamka-round-avx512f.h:14:12 @[ crypto_pwhash/argon2/argon2-fill-block-avx512f.c:58:5142 @[ crypto_pwhash/argon2/argon2-fill-block-avx512f.c:241:13 ] ]
	vpaddq	%zmm8, %zmm5, %zmm5
.Ltmp182:
	#DEBUG_VALUE: muladd:y <- undef
	#DEBUG_VALUE: muladd:x <- $zmm7
	.loc	8 12 17 is_stmt 1               # crypto_pwhash/argon2/blamka-round-avx512f.h:12:17 @[ crypto_pwhash/argon2/argon2-fill-block-avx512f.c:58:5205 @[ crypto_pwhash/argon2/argon2-fill-block-avx512f.c:241:13 ] ]
	vpmuludq	%zmm7, %zmm3, %zmm8
.Ltmp183:
	#DEBUG_VALUE: muladd:z <- $zmm8
	.loc	8 14 29                         # crypto_pwhash/argon2/blamka-round-avx512f.h:14:29 @[ crypto_pwhash/argon2/argon2-fill-block-avx512f.c:58:5205 @[ crypto_pwhash/argon2/argon2-fill-block-avx512f.c:241:13 ] ]
	vpaddq	%zmm7, %zmm3, %zmm7
.Ltmp184:
	.loc	8 14 53 is_stmt 0               # crypto_pwhash/argon2/blamka-round-avx512f.h:14:53 @[ crypto_pwhash/argon2/argon2-fill-block-avx512f.c:58:5205 @[ crypto_pwhash/argon2/argon2-fill-block-avx512f.c:241:13 ] ]
	vpaddq	%zmm8, %zmm8, %zmm8
.Ltmp185:
	.loc	8 14 12                         # crypto_pwhash/argon2/blamka-round-avx512f.h:14:12 @[ crypto_pwhash/argon2/argon2-fill-block-avx512f.c:58:5205 @[ crypto_pwhash/argon2/argon2-fill-block-avx512f.c:241:13 ] ]
	vpaddq	%zmm8, %zmm7, %zmm7
.Ltmp186:
	.loc	6 58 5268 is_stmt 1             # crypto_pwhash/argon2/argon2-fill-block-avx512f.c:58:5268 @[ crypto_pwhash/argon2/argon2-fill-block-avx512f.c:241:13 ]
	vpxorq	%zmm0, %zmm5, %zmm0
.Ltmp187:
	.loc	6 58 5341 is_stmt 0             # crypto_pwhash/argon2/argon2-fill-block-avx512f.c:58:5341 @[ crypto_pwhash/argon2/argon2-fill-block-avx512f.c:241:13 ]
	vpxorq	%zmm2, %zmm7, %zmm2
.Ltmp188:
	.loc	6 58 5424                       # crypto_pwhash/argon2/argon2-fill-block-avx512f.c:58:5424 @[ crypto_pwhash/argon2/argon2-fill-block-avx512f.c:241:13 ]
	vprolq	$40, %zmm0, %zmm0
	.loc	6 58 5531                       # crypto_pwhash/argon2/argon2-fill-block-avx512f.c:58:5531 @[ crypto_pwhash/argon2/argon2-fill-block-avx512f.c:241:13 ]
	vprolq	$40, %zmm2, %zmm2
.Ltmp189:
	#DEBUG_VALUE: muladd:x <- $zmm4
	#DEBUG_VALUE: muladd:y <- undef
	.loc	8 12 17 is_stmt 1               # crypto_pwhash/argon2/blamka-round-avx512f.h:12:17 @[ crypto_pwhash/argon2/argon2-fill-block-avx512f.c:58:5655 @[ crypto_pwhash/argon2/argon2-fill-block-avx512f.c:241:13 ] ]
	vpmuludq	%zmm4, %zmm0, %zmm8
.Ltmp190:
	#DEBUG_VALUE: muladd:z <- $zmm8
	.loc	8 14 29                         # crypto_pwhash/argon2/blamka-round-avx512f.h:14:29 @[ crypto_pwhash/argon2/argon2-fill-block-avx512f.c:58:5655 @[ crypto_pwhash/argon2/argon2-fill-block-avx512f.c:241:13 ] ]
	vpaddq	%zmm4, %zmm0, %zmm4
.Ltmp191:
	.loc	8 14 53 is_stmt 0               # crypto_pwhash/argon2/blamka-round-avx512f.h:14:53 @[ crypto_pwhash/argon2/argon2-fill-block-avx512f.c:58:5655 @[ crypto_pwhash/argon2/argon2-fill-block-avx512f.c:241:13 ] ]
	vpaddq	%zmm8, %zmm8, %zmm8
.Ltmp192:
	.loc	8 14 12                         # crypto_pwhash/argon2/blamka-round-avx512f.h:14:12 @[ crypto_pwhash/argon2/argon2-fill-block-avx512f.c:58:5655 @[ crypto_pwhash/argon2/argon2-fill-block-avx512f.c:241:13 ] ]
	vpaddq	%zmm8, %zmm4, %zmm4
.Ltmp193:
	#DEBUG_VALUE: muladd:x <- $zmm6
	#DEBUG_VALUE: muladd:y <- undef
	.loc	8 12 17 is_stmt 1               # crypto_pwhash/argon2/blamka-round-avx512f.h:12:17 @[ crypto_pwhash/argon2/argon2-fill-block-avx512f.c:58:5718 @[ crypto_pwhash/argon2/argon2-fill-block-avx512f.c:241:13 ] ]
	vpmuludq	%zmm6, %zmm2, %zmm8
.Ltmp194:
	#DEBUG_VALUE: muladd:z <- $zmm8
	.loc	8 14 29                         # crypto_pwhash/argon2/blamka-round-avx512f.h:14:29 @[ crypto_pwhash/argon2/argon2-fill-block-avx512f.c:58:5718 @[ crypto_pwhash/argon2/argon2-fill-block-avx512f.c:241:13 ] ]
	vpaddq	%zmm6, %zmm2, %zmm6
.Ltmp195:
	.loc	8 14 53 is_stmt 0               # crypto_pwhash/argon2/blamka-round-avx512f.h:14:53 @[ crypto_pwhash/argon2/argon2-fill-block-avx512f.c:58:5718 @[ crypto_pwhash/argon2/argon2-fill-block-avx512f.c:241:13 ] ]
	vpaddq	%zmm8, %zmm8, %zmm8
.Ltmp196:
	.loc	8 14 12                         # crypto_pwhash/argon2/blamka-round-avx512f.h:14:12 @[ crypto_pwhash/argon2/argon2-fill-block-avx512f.c:58:5718 @[ crypto_pwhash/argon2/argon2-fill-block-avx512f.c:241:13 ] ]
	vpaddq	%zmm8, %zmm6, %zmm6
.Ltmp197:
	.loc	6 58 5781 is_stmt 1             # crypto_pwhash/argon2/argon2-fill-block-avx512f.c:58:5781 @[ crypto_pwhash/argon2/argon2-fill-block-avx512f.c:241:13 ]
	vpxorq	%zmm1, %zmm4, %zmm1
	.loc	6 58 5854 is_stmt 0             # crypto_pwhash/argon2/argon2-fill-block-avx512f.c:58:5854 @[ crypto_pwhash/argon2/argon2-fill-block-avx512f.c:241:13 ]
	vpxorq	%zmm3, %zmm6, %zmm3
	.loc	6 58 5937                       # crypto_pwhash/argon2/argon2-fill-block-avx512f.c:58:5937 @[ crypto_pwhash/argon2/argon2-fill-block-avx512f.c:241:13 ]
	vprolq	$48, %zmm1, %zmm1
	.loc	6 58 6044                       # crypto_pwhash/argon2/argon2-fill-block-avx512f.c:58:6044 @[ crypto_pwhash/argon2/argon2-fill-block-avx512f.c:241:13 ]
	vprolq	$48, %zmm3, %zmm3
.Ltmp198:
	#DEBUG_VALUE: muladd:x <- $zmm5
	#DEBUG_VALUE: muladd:y <- undef
	.loc	8 12 17 is_stmt 1               # crypto_pwhash/argon2/blamka-round-avx512f.h:12:17 @[ crypto_pwhash/argon2/argon2-fill-block-avx512f.c:58:6141 @[ crypto_pwhash/argon2/argon2-fill-block-avx512f.c:241:13 ] ]
	vpmuludq	%zmm5, %zmm1, %zmm8
.Ltmp199:
	#DEBUG_VALUE: muladd:z <- $zmm8
	.loc	8 14 29                         # crypto_pwhash/argon2/blamka-round-avx512f.h:14:29 @[ crypto_pwhash/argon2/argon2-fill-block-avx512f.c:58:6141 @[ crypto_pwhash/argon2/argon2-fill-block-avx512f.c:241:13 ] ]
	vpaddq	%zmm5, %zmm1, %zmm5
.Ltmp200:
	.loc	8 14 53 is_stmt 0               # crypto_pwhash/argon2/blamka-round-avx512f.h:14:53 @[ crypto_pwhash/argon2/argon2-fill-block-avx512f.c:58:6141 @[ crypto_pwhash/argon2/argon2-fill-block-avx512f.c:241:13 ] ]
	vpaddq	%zmm8, %zmm8, %zmm8
.Ltmp201:
	.loc	8 14 12                         # crypto_pwhash/argon2/blamka-round-avx512f.h:14:12 @[ crypto_pwhash/argon2/argon2-fill-block-avx512f.c:58:6141 @[ crypto_pwhash/argon2/argon2-fill-block-avx512f.c:241:13 ] ]
	vpaddq	%zmm8, %zmm5, %zmm5
.Ltmp202:
	#DEBUG_VALUE: muladd:x <- $zmm7
	#DEBUG_VALUE: muladd:y <- undef
	.loc	8 12 17 is_stmt 1               # crypto_pwhash/argon2/blamka-round-avx512f.h:12:17 @[ crypto_pwhash/argon2/argon2-fill-block-avx512f.c:58:6204 @[ crypto_pwhash/argon2/argon2-fill-block-avx512f.c:241:13 ] ]
	vpmuludq	%zmm7, %zmm3, %zmm8
.Ltmp203:
	#DEBUG_VALUE: muladd:z <- $zmm8
	.loc	8 14 29                         # crypto_pwhash/argon2/blamka-round-avx512f.h:14:29 @[ crypto_pwhash/argon2/argon2-fill-block-avx512f.c:58:6204 @[ crypto_pwhash/argon2/argon2-fill-block-avx512f.c:241:13 ] ]
	vpaddq	%zmm7, %zmm3, %zmm7
.Ltmp204:
	.loc	8 14 53 is_stmt 0               # crypto_pwhash/argon2/blamka-round-avx512f.h:14:53 @[ crypto_pwhash/argon2/argon2-fill-block-avx512f.c:58:6204 @[ crypto_pwhash/argon2/argon2-fill-block-avx512f.c:241:13 ] ]
	vpaddq	%zmm8, %zmm8, %zmm8
.Ltmp205:
	.loc	8 14 12                         # crypto_pwhash/argon2/blamka-round-avx512f.h:14:12 @[ crypto_pwhash/argon2/argon2-fill-block-avx512f.c:58:6204 @[ crypto_pwhash/argon2/argon2-fill-block-avx512f.c:241:13 ] ]
	vpaddq	%zmm8, %zmm7, %zmm7
.Ltmp206:
	.loc	6 58 6267 is_stmt 1             # crypto_pwhash/argon2/argon2-fill-block-avx512f.c:58:6267 @[ crypto_pwhash/argon2/argon2-fill-block-avx512f.c:241:13 ]
	vpxorq	%zmm0, %zmm5, %zmm0
	.loc	6 58 6340 is_stmt 0             # crypto_pwhash/argon2/argon2-fill-block-avx512f.c:58:6340 @[ crypto_pwhash/argon2/argon2-fill-block-avx512f.c:241:13 ]
	vpxorq	%zmm2, %zmm7, %zmm2
	.loc	6 58 6423                       # crypto_pwhash/argon2/argon2-fill-block-avx512f.c:58:6423 @[ crypto_pwhash/argon2/argon2-fill-block-avx512f.c:241:13 ]
	vprolq	$1, %zmm0, %zmm0
	.loc	6 58 6530                       # crypto_pwhash/argon2/argon2-fill-block-avx512f.c:58:6530 @[ crypto_pwhash/argon2/argon2-fill-block-avx512f.c:241:13 ]
	vprolq	$1, %zmm2, %zmm2
.Ltmp207:
	.loc	6 58 7591                       # crypto_pwhash/argon2/argon2-fill-block-avx512f.c:58:7591 @[ crypto_pwhash/argon2/argon2-fill-block-avx512f.c:241:13 ]
	vmovdqa64	%zmm4, %zmm8
	vpermt2q	%zmm0, %zmm9, %zmm8
.Ltmp208:
	#DEBUG_VALUE: t0 <- $zmm8
	.loc	6 58 7761                       # crypto_pwhash/argon2/argon2-fill-block-avx512f.c:58:7761 @[ crypto_pwhash/argon2/argon2-fill-block-avx512f.c:241:13 ]
	vpermt2q	%zmm0, %zmm10, %zmm4
.Ltmp209:
	#DEBUG_VALUE: t1 <- $zmm4
	.loc	6 58 7933                       # crypto_pwhash/argon2/argon2-fill-block-avx512f.c:58:7933 @[ crypto_pwhash/argon2/argon2-fill-block-avx512f.c:241:13 ]
	vmovdqa64	%zmm8, (%rsi)
	.loc	6 58 7956                       # crypto_pwhash/argon2/argon2-fill-block-avx512f.c:58:7956 @[ crypto_pwhash/argon2/argon2-fill-block-avx512f.c:241:13 ]
	vmovdqa64	%zmm4, 128(%rsi)
.Ltmp210:
	.loc	6 58 8019                       # crypto_pwhash/argon2/argon2-fill-block-avx512f.c:58:8019 @[ crypto_pwhash/argon2/argon2-fill-block-avx512f.c:241:13 ]
	vmovdqa64	%zmm5, %zmm0
	vpermt2q	%zmm1, %zmm11, %zmm0
.Ltmp211:
	#DEBUG_VALUE: t0 <- $zmm0
	.loc	6 58 8189                       # crypto_pwhash/argon2/argon2-fill-block-avx512f.c:58:8189 @[ crypto_pwhash/argon2/argon2-fill-block-avx512f.c:241:13 ]
	vpermt2q	%zmm1, %zmm12, %zmm5
.Ltmp212:
	#DEBUG_VALUE: t1 <- $zmm5
	.loc	6 58 8361                       # crypto_pwhash/argon2/argon2-fill-block-avx512f.c:58:8361 @[ crypto_pwhash/argon2/argon2-fill-block-avx512f.c:241:13 ]
	vmovdqa64	%zmm0, 64(%rsi)
	.loc	6 58 8384                       # crypto_pwhash/argon2/argon2-fill-block-avx512f.c:58:8384 @[ crypto_pwhash/argon2/argon2-fill-block-avx512f.c:241:13 ]
	vmovdqa64	%zmm5, 192(%rsi)
.Ltmp213:
	.loc	6 58 8447                       # crypto_pwhash/argon2/argon2-fill-block-avx512f.c:58:8447 @[ crypto_pwhash/argon2/argon2-fill-block-avx512f.c:241:13 ]
	vmovdqa64	%zmm6, %zmm0
.Ltmp214:
	vpermt2q	%zmm2, %zmm9, %zmm0
.Ltmp215:
	#DEBUG_VALUE: t0 <- $zmm0
	.loc	6 58 8617                       # crypto_pwhash/argon2/argon2-fill-block-avx512f.c:58:8617 @[ crypto_pwhash/argon2/argon2-fill-block-avx512f.c:241:13 ]
	vpermt2q	%zmm2, %zmm10, %zmm6
.Ltmp216:
	#DEBUG_VALUE: t1 <- $zmm6
	.loc	6 58 8789                       # crypto_pwhash/argon2/argon2-fill-block-avx512f.c:58:8789 @[ crypto_pwhash/argon2/argon2-fill-block-avx512f.c:241:13 ]
	vmovdqa64	%zmm0, 256(%rsi)
	.loc	6 58 8812                       # crypto_pwhash/argon2/argon2-fill-block-avx512f.c:58:8812 @[ crypto_pwhash/argon2/argon2-fill-block-avx512f.c:241:13 ]
	vmovdqa64	%zmm6, 384(%rsi)
.Ltmp217:
	.loc	6 58 8875                       # crypto_pwhash/argon2/argon2-fill-block-avx512f.c:58:8875 @[ crypto_pwhash/argon2/argon2-fill-block-avx512f.c:241:13 ]
	vmovdqa64	%zmm7, %zmm0
.Ltmp218:
	vpermt2q	%zmm3, %zmm11, %zmm0
.Ltmp219:
	#DEBUG_VALUE: t0 <- $zmm0
	.loc	6 58 9045                       # crypto_pwhash/argon2/argon2-fill-block-avx512f.c:58:9045 @[ crypto_pwhash/argon2/argon2-fill-block-avx512f.c:241:13 ]
	vpermt2q	%zmm3, %zmm12, %zmm7
.Ltmp220:
	#DEBUG_VALUE: t1 <- $zmm7
	.loc	6 58 9217                       # crypto_pwhash/argon2/argon2-fill-block-avx512f.c:58:9217 @[ crypto_pwhash/argon2/argon2-fill-block-avx512f.c:241:13 ]
	vmovdqa64	%zmm0, 320(%rsi)
	.loc	6 58 9240                       # crypto_pwhash/argon2/argon2-fill-block-avx512f.c:58:9240 @[ crypto_pwhash/argon2/argon2-fill-block-avx512f.c:241:13 ]
	vmovdqa64	%zmm7, 448(%rsi)
	movq	%r11, %rsi
.Ltmp221:
	.loc	6 57 5 is_stmt 1                # crypto_pwhash/argon2/argon2-fill-block-avx512f.c:57:5 @[ crypto_pwhash/argon2/argon2-fill-block-avx512f.c:241:13 ]
	testb	$1, %cl
	movl	$0, %ecx
	jne	.LBB0_40
.Ltmp222:
# %bb.41:                               # %.preheader919.i.preheader
                                        #   in Loop: Header=BB0_17 Depth=1
	#DEBUG_VALUE: argon2_fill_segment_avx512f:position <- [DW_OP_plus_uconst 64, DW_OP_deref_size 8, DW_OP_constu 8, DW_OP_shr, DW_OP_LLVM_convert 64 7, DW_OP_LLVM_convert 24 7, DW_OP_stack_value, DW_OP_LLVM_fragment 72 24] $rsp
	#DEBUG_VALUE: argon2_fill_segment_avx512f:instance <- [DW_OP_plus_uconst 88] [$rsp+0]
	#DEBUG_VALUE: argon2_fill_segment_avx512f:position <- [DW_OP_plus_uconst 80, DW_OP_deref, DW_OP_LLVM_fragment 32 32] $rsp
	#DEBUG_VALUE: argon2_fill_segment_avx512f:position <- [DW_OP_plus_uconst 96, DW_OP_deref, DW_OP_LLVM_fragment 0 32] $rsp
	#DEBUG_VALUE: argon2_fill_segment_avx512f:position <- [DW_OP_plus_uconst 64, DW_OP_deref, DW_OP_LLVM_fragment 64 8] $rsp
	#DEBUG_VALUE: argon2_fill_segment_avx512f:position <- [DW_OP_LLVM_fragment 96 32] $r14
	#DEBUG_VALUE: argon2_fill_segment_avx512f:i <- $r14
	#DEBUG_VALUE: argon2_fill_segment_avx512f:curr_offset <- $r12d
	#DEBUG_VALUE: argon2_fill_segment_avx512f:prev_offset <- $r15d
	#DEBUG_VALUE: fill_block:block_XY <- [DW_OP_plus_uconst 128, DW_OP_deref] $rsp
	#DEBUG_VALUE: fill_block:state <- [DW_OP_plus_uconst 5248, DW_OP_stack_value] $rsp
	#DEBUG_VALUE: t0 <- $zmm8
	#DEBUG_VALUE: t1 <- $zmm4
	#DEBUG_VALUE: t1 <- $zmm5
	#DEBUG_VALUE: t1 <- $zmm6
	#DEBUG_VALUE: t0 <- $zmm0
	#DEBUG_VALUE: t1 <- $zmm7
	.loc	6 0 5 is_stmt 0                 # crypto_pwhash/argon2/argon2-fill-block-avx512f.c:0:5
	movb	$1, %cl
	leaq	5248(%rsp), %rsi
.Ltmp223:
	.p2align	4
.LBB0_42:                               # %.preheader919.i
                                        #   Parent Loop BB0_17 Depth=1
                                        # =>  This Inner Loop Header: Depth=2
	#DEBUG_VALUE: argon2_fill_segment_avx512f:position <- [DW_OP_plus_uconst 64, DW_OP_deref_size 8, DW_OP_constu 8, DW_OP_shr, DW_OP_LLVM_convert 64 7, DW_OP_LLVM_convert 24 7, DW_OP_stack_value, DW_OP_LLVM_fragment 72 24] $rsp
	#DEBUG_VALUE: argon2_fill_segment_avx512f:instance <- [DW_OP_plus_uconst 88] [$rsp+0]
	#DEBUG_VALUE: argon2_fill_segment_avx512f:position <- [DW_OP_plus_uconst 80, DW_OP_deref, DW_OP_LLVM_fragment 32 32] $rsp
	#DEBUG_VALUE: argon2_fill_segment_avx512f:position <- [DW_OP_plus_uconst 96, DW_OP_deref, DW_OP_LLVM_fragment 0 32] $rsp
	#DEBUG_VALUE: argon2_fill_segment_avx512f:position <- [DW_OP_plus_uconst 64, DW_OP_deref, DW_OP_LLVM_fragment 64 8] $rsp
	#DEBUG_VALUE: argon2_fill_segment_avx512f:position <- [DW_OP_LLVM_fragment 96 32] $r14
	#DEBUG_VALUE: argon2_fill_segment_avx512f:i <- $r14
	#DEBUG_VALUE: argon2_fill_segment_avx512f:curr_offset <- $r12d
	#DEBUG_VALUE: argon2_fill_segment_avx512f:prev_offset <- $r15d
	#DEBUG_VALUE: fill_block:block_XY <- [DW_OP_plus_uconst 128, DW_OP_deref] $rsp
	#DEBUG_VALUE: fill_block:state <- [DW_OP_plus_uconst 5248, DW_OP_stack_value] $rsp
	#DEBUG_VALUE: fill_block:i <- undef
	#DEBUG_VALUE: t0 <- undef
	#DEBUG_VALUE: t1 <- undef
	.loc	6 64 99 is_stmt 1               # crypto_pwhash/argon2/argon2-fill-block-avx512f.c:64:99 @[ crypto_pwhash/argon2/argon2-fill-block-avx512f.c:241:13 ]
	vmovdqa64	(%rsi), %zmm0
	.loc	6 64 136 is_stmt 0              # crypto_pwhash/argon2/argon2-fill-block-avx512f.c:64:136 @[ crypto_pwhash/argon2/argon2-fill-block-avx512f.c:241:13 ]
	vmovdqa64	128(%rsi), %zmm1
.Ltmp224:
	.loc	6 64 781                        # crypto_pwhash/argon2/argon2-fill-block-avx512f.c:64:781 @[ crypto_pwhash/argon2/argon2-fill-block-avx512f.c:241:13 ]
	vmovdqa64	256(%rsi), %zmm2
	.loc	6 64 818                        # crypto_pwhash/argon2/argon2-fill-block-avx512f.c:64:818 @[ crypto_pwhash/argon2/argon2-fill-block-avx512f.c:241:13 ]
	vmovdqa64	384(%rsi), %zmm3
.Ltmp225:
	.loc	6 64 466                        # crypto_pwhash/argon2/argon2-fill-block-avx512f.c:64:466 @[ crypto_pwhash/argon2/argon2-fill-block-avx512f.c:241:13 ]
	vmovdqa64	%zmm0, %zmm4
	vpermt2q	%zmm1, %zmm13, %zmm4
.Ltmp226:
	#DEBUG_VALUE: muladd:x <- $zmm4
	.loc	6 64 580                        # crypto_pwhash/argon2/argon2-fill-block-avx512f.c:64:580 @[ crypto_pwhash/argon2/argon2-fill-block-avx512f.c:241:13 ]
	vpermt2q	%zmm1, %zmm14, %zmm0
.Ltmp227:
	#DEBUG_VALUE: muladd:x <- $zmm0
	#DEBUG_VALUE: t0 <- undef
	#DEBUG_VALUE: t1 <- undef
	.loc	6 64 1148                       # crypto_pwhash/argon2/argon2-fill-block-avx512f.c:64:1148 @[ crypto_pwhash/argon2/argon2-fill-block-avx512f.c:241:13 ]
	vmovdqa64	%zmm2, %zmm1
	vpermt2q	%zmm3, %zmm13, %zmm1
	.loc	6 64 1262                       # crypto_pwhash/argon2/argon2-fill-block-avx512f.c:64:1262 @[ crypto_pwhash/argon2/argon2-fill-block-avx512f.c:241:13 ]
	vpermt2q	%zmm3, %zmm14, %zmm2
.Ltmp228:
	.loc	6 64 1463                       # crypto_pwhash/argon2/argon2-fill-block-avx512f.c:64:1463 @[ crypto_pwhash/argon2/argon2-fill-block-avx512f.c:241:13 ]
	vmovdqa64	512(%rsi), %zmm3
	.loc	6 64 1500                       # crypto_pwhash/argon2/argon2-fill-block-avx512f.c:64:1500 @[ crypto_pwhash/argon2/argon2-fill-block-avx512f.c:241:13 ]
	vmovdqa64	640(%rsi), %zmm5
.Ltmp229:
	#DEBUG_VALUE: t0 <- undef
	#DEBUG_VALUE: t1 <- undef
	.loc	6 64 1830                       # crypto_pwhash/argon2/argon2-fill-block-avx512f.c:64:1830 @[ crypto_pwhash/argon2/argon2-fill-block-avx512f.c:241:13 ]
	vmovdqa64	%zmm3, %zmm6
	vpermt2q	%zmm5, %zmm13, %zmm6
	.loc	6 64 1944                       # crypto_pwhash/argon2/argon2-fill-block-avx512f.c:64:1944 @[ crypto_pwhash/argon2/argon2-fill-block-avx512f.c:241:13 ]
	vpermt2q	%zmm5, %zmm14, %zmm3
.Ltmp230:
	.loc	6 64 2145                       # crypto_pwhash/argon2/argon2-fill-block-avx512f.c:64:2145 @[ crypto_pwhash/argon2/argon2-fill-block-avx512f.c:241:13 ]
	vmovdqa64	768(%rsi), %zmm5
	.loc	6 64 2182                       # crypto_pwhash/argon2/argon2-fill-block-avx512f.c:64:2182 @[ crypto_pwhash/argon2/argon2-fill-block-avx512f.c:241:13 ]
	vmovdqa64	896(%rsi), %zmm7
.Ltmp231:
	#DEBUG_VALUE: t0 <- undef
	#DEBUG_VALUE: t1 <- undef
	.loc	6 64 2512                       # crypto_pwhash/argon2/argon2-fill-block-avx512f.c:64:2512 @[ crypto_pwhash/argon2/argon2-fill-block-avx512f.c:241:13 ]
	vmovdqa64	%zmm5, %zmm8
	vpermt2q	%zmm7, %zmm13, %zmm8
	.loc	6 64 2626                       # crypto_pwhash/argon2/argon2-fill-block-avx512f.c:64:2626 @[ crypto_pwhash/argon2/argon2-fill-block-avx512f.c:241:13 ]
	vpermt2q	%zmm7, %zmm14, %zmm5
.Ltmp232:
	#DEBUG_VALUE: muladd:y <- $zmm1
	.loc	8 12 17 is_stmt 1               # crypto_pwhash/argon2/blamka-round-avx512f.h:12:17 @[ crypto_pwhash/argon2/argon2-fill-block-avx512f.c:64:2771 @[ crypto_pwhash/argon2/argon2-fill-block-avx512f.c:241:13 ] ]
	vpmuludq	%zmm4, %zmm1, %zmm7
.Ltmp233:
	#DEBUG_VALUE: muladd:z <- $zmm7
	.loc	8 14 29                         # crypto_pwhash/argon2/blamka-round-avx512f.h:14:29 @[ crypto_pwhash/argon2/argon2-fill-block-avx512f.c:64:2771 @[ crypto_pwhash/argon2/argon2-fill-block-avx512f.c:241:13 ] ]
	vpaddq	%zmm4, %zmm1, %zmm4
.Ltmp234:
	.loc	8 14 53 is_stmt 0               # crypto_pwhash/argon2/blamka-round-avx512f.h:14:53 @[ crypto_pwhash/argon2/argon2-fill-block-avx512f.c:64:2771 @[ crypto_pwhash/argon2/argon2-fill-block-avx512f.c:241:13 ] ]
	vpaddq	%zmm7, %zmm7, %zmm7
.Ltmp235:
	.loc	8 14 12                         # crypto_pwhash/argon2/blamka-round-avx512f.h:14:12 @[ crypto_pwhash/argon2/argon2-fill-block-avx512f.c:64:2771 @[ crypto_pwhash/argon2/argon2-fill-block-avx512f.c:241:13 ] ]
	vpaddq	%zmm7, %zmm4, %zmm4
.Ltmp236:
	#DEBUG_VALUE: muladd:y <- $zmm2
	.loc	8 12 17 is_stmt 1               # crypto_pwhash/argon2/blamka-round-avx512f.h:12:17 @[ crypto_pwhash/argon2/argon2-fill-block-avx512f.c:64:2834 @[ crypto_pwhash/argon2/argon2-fill-block-avx512f.c:241:13 ] ]
	vpmuludq	%zmm0, %zmm2, %zmm7
.Ltmp237:
	#DEBUG_VALUE: muladd:z <- $zmm7
	.loc	8 14 29                         # crypto_pwhash/argon2/blamka-round-avx512f.h:14:29 @[ crypto_pwhash/argon2/argon2-fill-block-avx512f.c:64:2834 @[ crypto_pwhash/argon2/argon2-fill-block-avx512f.c:241:13 ] ]
	vpaddq	%zmm0, %zmm2, %zmm0
.Ltmp238:
	.loc	8 14 53 is_stmt 0               # crypto_pwhash/argon2/blamka-round-avx512f.h:14:53 @[ crypto_pwhash/argon2/argon2-fill-block-avx512f.c:64:2834 @[ crypto_pwhash/argon2/argon2-fill-block-avx512f.c:241:13 ] ]
	vpaddq	%zmm7, %zmm7, %zmm7
.Ltmp239:
	.loc	8 14 12                         # crypto_pwhash/argon2/blamka-round-avx512f.h:14:12 @[ crypto_pwhash/argon2/argon2-fill-block-avx512f.c:64:2834 @[ crypto_pwhash/argon2/argon2-fill-block-avx512f.c:241:13 ] ]
	vpaddq	%zmm7, %zmm0, %zmm0
.Ltmp240:
	.loc	6 64 2897 is_stmt 1             # crypto_pwhash/argon2/argon2-fill-block-avx512f.c:64:2897 @[ crypto_pwhash/argon2/argon2-fill-block-avx512f.c:241:13 ]
	vpxorq	%zmm4, %zmm8, %zmm7
	.loc	6 64 2970 is_stmt 0             # crypto_pwhash/argon2/argon2-fill-block-avx512f.c:64:2970 @[ crypto_pwhash/argon2/argon2-fill-block-avx512f.c:241:13 ]
	vpxorq	%zmm0, %zmm5, %zmm5
	.loc	6 64 3053                       # crypto_pwhash/argon2/argon2-fill-block-avx512f.c:64:3053 @[ crypto_pwhash/argon2/argon2-fill-block-avx512f.c:241:13 ]
	vprolq	$32, %zmm7, %zmm7
	.loc	6 64 3160                       # crypto_pwhash/argon2/argon2-fill-block-avx512f.c:64:3160 @[ crypto_pwhash/argon2/argon2-fill-block-avx512f.c:241:13 ]
	vprolq	$32, %zmm5, %zmm5
.Ltmp241:
	#DEBUG_VALUE: muladd:y <- undef
	#DEBUG_VALUE: muladd:x <- $zmm6
	.loc	8 12 17 is_stmt 1               # crypto_pwhash/argon2/blamka-round-avx512f.h:12:17 @[ crypto_pwhash/argon2/argon2-fill-block-avx512f.c:64:3257 @[ crypto_pwhash/argon2/argon2-fill-block-avx512f.c:241:13 ] ]
	vpmuludq	%zmm6, %zmm7, %zmm8
.Ltmp242:
	#DEBUG_VALUE: muladd:z <- $zmm8
	.loc	8 14 29                         # crypto_pwhash/argon2/blamka-round-avx512f.h:14:29 @[ crypto_pwhash/argon2/argon2-fill-block-avx512f.c:64:3257 @[ crypto_pwhash/argon2/argon2-fill-block-avx512f.c:241:13 ] ]
	vpaddq	%zmm6, %zmm7, %zmm6
.Ltmp243:
	.loc	8 14 53 is_stmt 0               # crypto_pwhash/argon2/blamka-round-avx512f.h:14:53 @[ crypto_pwhash/argon2/argon2-fill-block-avx512f.c:64:3257 @[ crypto_pwhash/argon2/argon2-fill-block-avx512f.c:241:13 ] ]
	vpaddq	%zmm8, %zmm8, %zmm8
.Ltmp244:
	.loc	8 14 12                         # crypto_pwhash/argon2/blamka-round-avx512f.h:14:12 @[ crypto_pwhash/argon2/argon2-fill-block-avx512f.c:64:3257 @[ crypto_pwhash/argon2/argon2-fill-block-avx512f.c:241:13 ] ]
	vpaddq	%zmm8, %zmm6, %zmm6
.Ltmp245:
	#DEBUG_VALUE: muladd:y <- undef
	#DEBUG_VALUE: muladd:x <- $zmm3
	.loc	8 12 17 is_stmt 1               # crypto_pwhash/argon2/blamka-round-avx512f.h:12:17 @[ crypto_pwhash/argon2/argon2-fill-block-avx512f.c:64:3320 @[ crypto_pwhash/argon2/argon2-fill-block-avx512f.c:241:13 ] ]
	vpmuludq	%zmm3, %zmm5, %zmm8
.Ltmp246:
	#DEBUG_VALUE: muladd:z <- $zmm8
	.loc	8 14 29                         # crypto_pwhash/argon2/blamka-round-avx512f.h:14:29 @[ crypto_pwhash/argon2/argon2-fill-block-avx512f.c:64:3320 @[ crypto_pwhash/argon2/argon2-fill-block-avx512f.c:241:13 ] ]
	vpaddq	%zmm3, %zmm5, %zmm3
.Ltmp247:
	.loc	8 14 53 is_stmt 0               # crypto_pwhash/argon2/blamka-round-avx512f.h:14:53 @[ crypto_pwhash/argon2/argon2-fill-block-avx512f.c:64:3320 @[ crypto_pwhash/argon2/argon2-fill-block-avx512f.c:241:13 ] ]
	vpaddq	%zmm8, %zmm8, %zmm8
.Ltmp248:
	.loc	8 14 12                         # crypto_pwhash/argon2/blamka-round-avx512f.h:14:12 @[ crypto_pwhash/argon2/argon2-fill-block-avx512f.c:64:3320 @[ crypto_pwhash/argon2/argon2-fill-block-avx512f.c:241:13 ] ]
	vpaddq	%zmm8, %zmm3, %zmm3
.Ltmp249:
	.loc	6 64 3383 is_stmt 1             # crypto_pwhash/argon2/argon2-fill-block-avx512f.c:64:3383 @[ crypto_pwhash/argon2/argon2-fill-block-avx512f.c:241:13 ]
	vpxorq	%zmm1, %zmm6, %zmm1
.Ltmp250:
	.loc	6 64 3456 is_stmt 0             # crypto_pwhash/argon2/argon2-fill-block-avx512f.c:64:3456 @[ crypto_pwhash/argon2/argon2-fill-block-avx512f.c:241:13 ]
	vpxorq	%zmm2, %zmm3, %zmm2
.Ltmp251:
	.loc	6 64 3539                       # crypto_pwhash/argon2/argon2-fill-block-avx512f.c:64:3539 @[ crypto_pwhash/argon2/argon2-fill-block-avx512f.c:241:13 ]
	vprolq	$40, %zmm1, %zmm1
	.loc	6 64 3646                       # crypto_pwhash/argon2/argon2-fill-block-avx512f.c:64:3646 @[ crypto_pwhash/argon2/argon2-fill-block-avx512f.c:241:13 ]
	vprolq	$40, %zmm2, %zmm2
.Ltmp252:
	#DEBUG_VALUE: muladd:x <- $zmm4
	#DEBUG_VALUE: muladd:y <- undef
	.loc	8 12 17 is_stmt 1               # crypto_pwhash/argon2/blamka-round-avx512f.h:12:17 @[ crypto_pwhash/argon2/argon2-fill-block-avx512f.c:64:3770 @[ crypto_pwhash/argon2/argon2-fill-block-avx512f.c:241:13 ] ]
	vpmuludq	%zmm4, %zmm1, %zmm8
.Ltmp253:
	#DEBUG_VALUE: muladd:z <- $zmm8
	.loc	8 14 29                         # crypto_pwhash/argon2/blamka-round-avx512f.h:14:29 @[ crypto_pwhash/argon2/argon2-fill-block-avx512f.c:64:3770 @[ crypto_pwhash/argon2/argon2-fill-block-avx512f.c:241:13 ] ]
	vpaddq	%zmm4, %zmm1, %zmm4
.Ltmp254:
	.loc	8 14 53 is_stmt 0               # crypto_pwhash/argon2/blamka-round-avx512f.h:14:53 @[ crypto_pwhash/argon2/argon2-fill-block-avx512f.c:64:3770 @[ crypto_pwhash/argon2/argon2-fill-block-avx512f.c:241:13 ] ]
	vpaddq	%zmm8, %zmm8, %zmm8
.Ltmp255:
	.loc	8 14 12                         # crypto_pwhash/argon2/blamka-round-avx512f.h:14:12 @[ crypto_pwhash/argon2/argon2-fill-block-avx512f.c:64:3770 @[ crypto_pwhash/argon2/argon2-fill-block-avx512f.c:241:13 ] ]
	vpaddq	%zmm8, %zmm4, %zmm4
.Ltmp256:
	#DEBUG_VALUE: muladd:x <- $zmm0
	#DEBUG_VALUE: muladd:y <- undef
	.loc	8 12 17 is_stmt 1               # crypto_pwhash/argon2/blamka-round-avx512f.h:12:17 @[ crypto_pwhash/argon2/argon2-fill-block-avx512f.c:64:3833 @[ crypto_pwhash/argon2/argon2-fill-block-avx512f.c:241:13 ] ]
	vpmuludq	%zmm0, %zmm2, %zmm8
.Ltmp257:
	#DEBUG_VALUE: muladd:z <- $zmm8
	.loc	8 14 29                         # crypto_pwhash/argon2/blamka-round-avx512f.h:14:29 @[ crypto_pwhash/argon2/argon2-fill-block-avx512f.c:64:3833 @[ crypto_pwhash/argon2/argon2-fill-block-avx512f.c:241:13 ] ]
	vpaddq	%zmm0, %zmm2, %zmm0
.Ltmp258:
	.loc	8 14 53 is_stmt 0               # crypto_pwhash/argon2/blamka-round-avx512f.h:14:53 @[ crypto_pwhash/argon2/argon2-fill-block-avx512f.c:64:3833 @[ crypto_pwhash/argon2/argon2-fill-block-avx512f.c:241:13 ] ]
	vpaddq	%zmm8, %zmm8, %zmm8
.Ltmp259:
	.loc	8 14 12                         # crypto_pwhash/argon2/blamka-round-avx512f.h:14:12 @[ crypto_pwhash/argon2/argon2-fill-block-avx512f.c:64:3833 @[ crypto_pwhash/argon2/argon2-fill-block-avx512f.c:241:13 ] ]
	vpaddq	%zmm8, %zmm0, %zmm0
.Ltmp260:
	.loc	6 64 3896 is_stmt 1             # crypto_pwhash/argon2/argon2-fill-block-avx512f.c:64:3896 @[ crypto_pwhash/argon2/argon2-fill-block-avx512f.c:241:13 ]
	vpxorq	%zmm7, %zmm4, %zmm7
	.loc	6 64 3969 is_stmt 0             # crypto_pwhash/argon2/argon2-fill-block-avx512f.c:64:3969 @[ crypto_pwhash/argon2/argon2-fill-block-avx512f.c:241:13 ]
	vpxorq	%zmm5, %zmm0, %zmm5
	.loc	6 64 4052                       # crypto_pwhash/argon2/argon2-fill-block-avx512f.c:64:4052 @[ crypto_pwhash/argon2/argon2-fill-block-avx512f.c:241:13 ]
	vprolq	$48, %zmm7, %zmm7
	.loc	6 64 4159                       # crypto_pwhash/argon2/argon2-fill-block-avx512f.c:64:4159 @[ crypto_pwhash/argon2/argon2-fill-block-avx512f.c:241:13 ]
	vprolq	$48, %zmm5, %zmm5
.Ltmp261:
	#DEBUG_VALUE: muladd:x <- $zmm6
	#DEBUG_VALUE: muladd:y <- undef
	.loc	8 12 17 is_stmt 1               # crypto_pwhash/argon2/blamka-round-avx512f.h:12:17 @[ crypto_pwhash/argon2/argon2-fill-block-avx512f.c:64:4256 @[ crypto_pwhash/argon2/argon2-fill-block-avx512f.c:241:13 ] ]
	vpmuludq	%zmm6, %zmm7, %zmm8
.Ltmp262:
	#DEBUG_VALUE: muladd:z <- $zmm8
	.loc	8 14 29                         # crypto_pwhash/argon2/blamka-round-avx512f.h:14:29 @[ crypto_pwhash/argon2/argon2-fill-block-avx512f.c:64:4256 @[ crypto_pwhash/argon2/argon2-fill-block-avx512f.c:241:13 ] ]
	vpaddq	%zmm6, %zmm7, %zmm6
.Ltmp263:
	.loc	8 14 53 is_stmt 0               # crypto_pwhash/argon2/blamka-round-avx512f.h:14:53 @[ crypto_pwhash/argon2/argon2-fill-block-avx512f.c:64:4256 @[ crypto_pwhash/argon2/argon2-fill-block-avx512f.c:241:13 ] ]
	vpaddq	%zmm8, %zmm8, %zmm8
.Ltmp264:
	.loc	8 14 12                         # crypto_pwhash/argon2/blamka-round-avx512f.h:14:12 @[ crypto_pwhash/argon2/argon2-fill-block-avx512f.c:64:4256 @[ crypto_pwhash/argon2/argon2-fill-block-avx512f.c:241:13 ] ]
	vpaddq	%zmm8, %zmm6, %zmm6
.Ltmp265:
	#DEBUG_VALUE: muladd:x <- $zmm3
	#DEBUG_VALUE: muladd:y <- undef
	.loc	8 12 17 is_stmt 1               # crypto_pwhash/argon2/blamka-round-avx512f.h:12:17 @[ crypto_pwhash/argon2/argon2-fill-block-avx512f.c:64:4319 @[ crypto_pwhash/argon2/argon2-fill-block-avx512f.c:241:13 ] ]
	vpmuludq	%zmm3, %zmm5, %zmm8
.Ltmp266:
	#DEBUG_VALUE: muladd:z <- $zmm8
	.loc	8 14 29                         # crypto_pwhash/argon2/blamka-round-avx512f.h:14:29 @[ crypto_pwhash/argon2/argon2-fill-block-avx512f.c:64:4319 @[ crypto_pwhash/argon2/argon2-fill-block-avx512f.c:241:13 ] ]
	vpaddq	%zmm3, %zmm5, %zmm3
.Ltmp267:
	.loc	8 14 53 is_stmt 0               # crypto_pwhash/argon2/blamka-round-avx512f.h:14:53 @[ crypto_pwhash/argon2/argon2-fill-block-avx512f.c:64:4319 @[ crypto_pwhash/argon2/argon2-fill-block-avx512f.c:241:13 ] ]
	vpaddq	%zmm8, %zmm8, %zmm8
.Ltmp268:
	.loc	8 14 12                         # crypto_pwhash/argon2/blamka-round-avx512f.h:14:12 @[ crypto_pwhash/argon2/argon2-fill-block-avx512f.c:64:4319 @[ crypto_pwhash/argon2/argon2-fill-block-avx512f.c:241:13 ] ]
	vpaddq	%zmm8, %zmm3, %zmm3
.Ltmp269:
	.loc	6 64 4382 is_stmt 1             # crypto_pwhash/argon2/argon2-fill-block-avx512f.c:64:4382 @[ crypto_pwhash/argon2/argon2-fill-block-avx512f.c:241:13 ]
	vpxorq	%zmm1, %zmm6, %zmm1
	.loc	6 64 4455 is_stmt 0             # crypto_pwhash/argon2/argon2-fill-block-avx512f.c:64:4455 @[ crypto_pwhash/argon2/argon2-fill-block-avx512f.c:241:13 ]
	vpxorq	%zmm2, %zmm3, %zmm2
	.loc	6 64 4538                       # crypto_pwhash/argon2/argon2-fill-block-avx512f.c:64:4538 @[ crypto_pwhash/argon2/argon2-fill-block-avx512f.c:241:13 ]
	vprolq	$1, %zmm1, %zmm1
	.loc	6 64 4645                       # crypto_pwhash/argon2/argon2-fill-block-avx512f.c:64:4645 @[ crypto_pwhash/argon2/argon2-fill-block-avx512f.c:241:13 ]
	vprolq	$1, %zmm2, %zmm2
.Ltmp270:
	.loc	6 64 4779                       # crypto_pwhash/argon2/argon2-fill-block-avx512f.c:64:4779 @[ crypto_pwhash/argon2/argon2-fill-block-avx512f.c:241:13 ]
	vpermq	$57, %zmm1, %zmm1               # zmm1 = zmm1[1,2,3,0,5,6,7,4]
	.loc	6 64 4925                       # crypto_pwhash/argon2/argon2-fill-block-avx512f.c:64:4925 @[ crypto_pwhash/argon2/argon2-fill-block-avx512f.c:241:13 ]
	vpermq	$57, %zmm2, %zmm2               # zmm2 = zmm2[1,2,3,0,5,6,7,4]
	.loc	6 64 5071                       # crypto_pwhash/argon2/argon2-fill-block-avx512f.c:64:5071 @[ crypto_pwhash/argon2/argon2-fill-block-avx512f.c:241:13 ]
	vpermq	$78, %zmm6, %zmm6               # zmm6 = zmm6[2,3,0,1,6,7,4,5]
	.loc	6 64 5217                       # crypto_pwhash/argon2/argon2-fill-block-avx512f.c:64:5217 @[ crypto_pwhash/argon2/argon2-fill-block-avx512f.c:241:13 ]
	vpermq	$78, %zmm3, %zmm3               # zmm3 = zmm3[2,3,0,1,6,7,4,5]
	.loc	6 64 5363                       # crypto_pwhash/argon2/argon2-fill-block-avx512f.c:64:5363 @[ crypto_pwhash/argon2/argon2-fill-block-avx512f.c:241:13 ]
	vpermq	$147, %zmm7, %zmm7              # zmm7 = zmm7[3,0,1,2,7,4,5,6]
	.loc	6 64 5509                       # crypto_pwhash/argon2/argon2-fill-block-avx512f.c:64:5509 @[ crypto_pwhash/argon2/argon2-fill-block-avx512f.c:241:13 ]
	vpermq	$147, %zmm5, %zmm5              # zmm5 = zmm5[3,0,1,2,7,4,5,6]
.Ltmp271:
	#DEBUG_VALUE: muladd:x <- $zmm4
	#DEBUG_VALUE: muladd:y <- $zmm1
	.loc	8 12 17 is_stmt 1               # crypto_pwhash/argon2/blamka-round-avx512f.h:12:17 @[ crypto_pwhash/argon2/argon2-fill-block-avx512f.c:64:5672 @[ crypto_pwhash/argon2/argon2-fill-block-avx512f.c:241:13 ] ]
	vpmuludq	%zmm4, %zmm1, %zmm8
.Ltmp272:
	#DEBUG_VALUE: muladd:z <- $zmm8
	.loc	8 14 29                         # crypto_pwhash/argon2/blamka-round-avx512f.h:14:29 @[ crypto_pwhash/argon2/argon2-fill-block-avx512f.c:64:5672 @[ crypto_pwhash/argon2/argon2-fill-block-avx512f.c:241:13 ] ]
	vpaddq	%zmm4, %zmm1, %zmm4
.Ltmp273:
	.loc	8 14 53 is_stmt 0               # crypto_pwhash/argon2/blamka-round-avx512f.h:14:53 @[ crypto_pwhash/argon2/argon2-fill-block-avx512f.c:64:5672 @[ crypto_pwhash/argon2/argon2-fill-block-avx512f.c:241:13 ] ]
	vpaddq	%zmm8, %zmm8, %zmm8
.Ltmp274:
	.loc	8 14 12                         # crypto_pwhash/argon2/blamka-round-avx512f.h:14:12 @[ crypto_pwhash/argon2/argon2-fill-block-avx512f.c:64:5672 @[ crypto_pwhash/argon2/argon2-fill-block-avx512f.c:241:13 ] ]
	vpaddq	%zmm8, %zmm4, %zmm4
.Ltmp275:
	#DEBUG_VALUE: muladd:x <- $zmm0
	#DEBUG_VALUE: muladd:y <- $zmm2
	.loc	8 12 17 is_stmt 1               # crypto_pwhash/argon2/blamka-round-avx512f.h:12:17 @[ crypto_pwhash/argon2/argon2-fill-block-avx512f.c:64:5735 @[ crypto_pwhash/argon2/argon2-fill-block-avx512f.c:241:13 ] ]
	vpmuludq	%zmm0, %zmm2, %zmm8
.Ltmp276:
	#DEBUG_VALUE: muladd:z <- $zmm8
	.loc	8 14 29                         # crypto_pwhash/argon2/blamka-round-avx512f.h:14:29 @[ crypto_pwhash/argon2/argon2-fill-block-avx512f.c:64:5735 @[ crypto_pwhash/argon2/argon2-fill-block-avx512f.c:241:13 ] ]
	vpaddq	%zmm0, %zmm2, %zmm0
.Ltmp277:
	.loc	8 14 53 is_stmt 0               # crypto_pwhash/argon2/blamka-round-avx512f.h:14:53 @[ crypto_pwhash/argon2/argon2-fill-block-avx512f.c:64:5735 @[ crypto_pwhash/argon2/argon2-fill-block-avx512f.c:241:13 ] ]
	vpaddq	%zmm8, %zmm8, %zmm8
.Ltmp278:
	.loc	8 14 12                         # crypto_pwhash/argon2/blamka-round-avx512f.h:14:12 @[ crypto_pwhash/argon2/argon2-fill-block-avx512f.c:64:5735 @[ crypto_pwhash/argon2/argon2-fill-block-avx512f.c:241:13 ] ]
	vpaddq	%zmm8, %zmm0, %zmm0
.Ltmp279:
	.loc	6 64 5798 is_stmt 1             # crypto_pwhash/argon2/argon2-fill-block-avx512f.c:64:5798 @[ crypto_pwhash/argon2/argon2-fill-block-avx512f.c:241:13 ]
	vpxorq	%zmm7, %zmm4, %zmm7
	.loc	6 64 5871 is_stmt 0             # crypto_pwhash/argon2/argon2-fill-block-avx512f.c:64:5871 @[ crypto_pwhash/argon2/argon2-fill-block-avx512f.c:241:13 ]
	vpxorq	%zmm5, %zmm0, %zmm5
	.loc	6 64 5954                       # crypto_pwhash/argon2/argon2-fill-block-avx512f.c:64:5954 @[ crypto_pwhash/argon2/argon2-fill-block-avx512f.c:241:13 ]
	vprolq	$32, %zmm7, %zmm7
	.loc	6 64 6061                       # crypto_pwhash/argon2/argon2-fill-block-avx512f.c:64:6061 @[ crypto_pwhash/argon2/argon2-fill-block-avx512f.c:241:13 ]
	vprolq	$32, %zmm5, %zmm5
.Ltmp280:
	#DEBUG_VALUE: muladd:y <- undef
	#DEBUG_VALUE: muladd:x <- $zmm6
	.loc	8 12 17 is_stmt 1               # crypto_pwhash/argon2/blamka-round-avx512f.h:12:17 @[ crypto_pwhash/argon2/argon2-fill-block-avx512f.c:64:6158 @[ crypto_pwhash/argon2/argon2-fill-block-avx512f.c:241:13 ] ]
	vpmuludq	%zmm6, %zmm7, %zmm8
.Ltmp281:
	#DEBUG_VALUE: muladd:z <- $zmm8
	.loc	8 14 29                         # crypto_pwhash/argon2/blamka-round-avx512f.h:14:29 @[ crypto_pwhash/argon2/argon2-fill-block-avx512f.c:64:6158 @[ crypto_pwhash/argon2/argon2-fill-block-avx512f.c:241:13 ] ]
	vpaddq	%zmm6, %zmm7, %zmm6
.Ltmp282:
	.loc	8 14 53 is_stmt 0               # crypto_pwhash/argon2/blamka-round-avx512f.h:14:53 @[ crypto_pwhash/argon2/argon2-fill-block-avx512f.c:64:6158 @[ crypto_pwhash/argon2/argon2-fill-block-avx512f.c:241:13 ] ]
	vpaddq	%zmm8, %zmm8, %zmm8
.Ltmp283:
	.loc	8 14 12                         # crypto_pwhash/argon2/blamka-round-avx512f.h:14:12 @[ crypto_pwhash/argon2/argon2-fill-block-avx512f.c:64:6158 @[ crypto_pwhash/argon2/argon2-fill-block-avx512f.c:241:13 ] ]
	vpaddq	%zmm8, %zmm6, %zmm6
.Ltmp284:
	#DEBUG_VALUE: muladd:y <- undef
	#DEBUG_VALUE: muladd:x <- $zmm3
	.loc	8 12 17 is_stmt 1               # crypto_pwhash/argon2/blamka-round-avx512f.h:12:17 @[ crypto_pwhash/argon2/argon2-fill-block-avx512f.c:64:6221 @[ crypto_pwhash/argon2/argon2-fill-block-avx512f.c:241:13 ] ]
	vpmuludq	%zmm3, %zmm5, %zmm8
.Ltmp285:
	#DEBUG_VALUE: muladd:z <- $zmm8
	.loc	8 14 29                         # crypto_pwhash/argon2/blamka-round-avx512f.h:14:29 @[ crypto_pwhash/argon2/argon2-fill-block-avx512f.c:64:6221 @[ crypto_pwhash/argon2/argon2-fill-block-avx512f.c:241:13 ] ]
	vpaddq	%zmm3, %zmm5, %zmm3
.Ltmp286:
	.loc	8 14 53 is_stmt 0               # crypto_pwhash/argon2/blamka-round-avx512f.h:14:53 @[ crypto_pwhash/argon2/argon2-fill-block-avx512f.c:64:6221 @[ crypto_pwhash/argon2/argon2-fill-block-avx512f.c:241:13 ] ]
	vpaddq	%zmm8, %zmm8, %zmm8
.Ltmp287:
	.loc	8 14 12                         # crypto_pwhash/argon2/blamka-round-avx512f.h:14:12 @[ crypto_pwhash/argon2/argon2-fill-block-avx512f.c:64:6221 @[ crypto_pwhash/argon2/argon2-fill-block-avx512f.c:241:13 ] ]
	vpaddq	%zmm8, %zmm3, %zmm3
.Ltmp288:
	.loc	6 64 6284 is_stmt 1             # crypto_pwhash/argon2/argon2-fill-block-avx512f.c:64:6284 @[ crypto_pwhash/argon2/argon2-fill-block-avx512f.c:241:13 ]
	vpxorq	%zmm1, %zmm6, %zmm1
.Ltmp289:
	.loc	6 64 6357 is_stmt 0             # crypto_pwhash/argon2/argon2-fill-block-avx512f.c:64:6357 @[ crypto_pwhash/argon2/argon2-fill-block-avx512f.c:241:13 ]
	vpxorq	%zmm2, %zmm3, %zmm2
.Ltmp290:
	.loc	6 64 6440                       # crypto_pwhash/argon2/argon2-fill-block-avx512f.c:64:6440 @[ crypto_pwhash/argon2/argon2-fill-block-avx512f.c:241:13 ]
	vprolq	$40, %zmm1, %zmm1
	.loc	6 64 6547                       # crypto_pwhash/argon2/argon2-fill-block-avx512f.c:64:6547 @[ crypto_pwhash/argon2/argon2-fill-block-avx512f.c:241:13 ]
	vprolq	$40, %zmm2, %zmm2
.Ltmp291:
	#DEBUG_VALUE: muladd:x <- $zmm4
	#DEBUG_VALUE: muladd:y <- undef
	.loc	8 12 17 is_stmt 1               # crypto_pwhash/argon2/blamka-round-avx512f.h:12:17 @[ crypto_pwhash/argon2/argon2-fill-block-avx512f.c:64:6671 @[ crypto_pwhash/argon2/argon2-fill-block-avx512f.c:241:13 ] ]
	vpmuludq	%zmm4, %zmm1, %zmm8
.Ltmp292:
	#DEBUG_VALUE: muladd:z <- $zmm8
	.loc	8 14 29                         # crypto_pwhash/argon2/blamka-round-avx512f.h:14:29 @[ crypto_pwhash/argon2/argon2-fill-block-avx512f.c:64:6671 @[ crypto_pwhash/argon2/argon2-fill-block-avx512f.c:241:13 ] ]
	vpaddq	%zmm4, %zmm1, %zmm4
.Ltmp293:
	.loc	8 14 53 is_stmt 0               # crypto_pwhash/argon2/blamka-round-avx512f.h:14:53 @[ crypto_pwhash/argon2/argon2-fill-block-avx512f.c:64:6671 @[ crypto_pwhash/argon2/argon2-fill-block-avx512f.c:241:13 ] ]
	vpaddq	%zmm8, %zmm8, %zmm8
.Ltmp294:
	.loc	8 14 12                         # crypto_pwhash/argon2/blamka-round-avx512f.h:14:12 @[ crypto_pwhash/argon2/argon2-fill-block-avx512f.c:64:6671 @[ crypto_pwhash/argon2/argon2-fill-block-avx512f.c:241:13 ] ]
	vpaddq	%zmm8, %zmm4, %zmm4
.Ltmp295:
	#DEBUG_VALUE: muladd:x <- $zmm0
	#DEBUG_VALUE: muladd:y <- undef
	.loc	8 12 17 is_stmt 1               # crypto_pwhash/argon2/blamka-round-avx512f.h:12:17 @[ crypto_pwhash/argon2/argon2-fill-block-avx512f.c:64:6734 @[ crypto_pwhash/argon2/argon2-fill-block-avx512f.c:241:13 ] ]
	vpmuludq	%zmm0, %zmm2, %zmm8
.Ltmp296:
	#DEBUG_VALUE: muladd:z <- $zmm8
	.loc	8 14 29                         # crypto_pwhash/argon2/blamka-round-avx512f.h:14:29 @[ crypto_pwhash/argon2/argon2-fill-block-avx512f.c:64:6734 @[ crypto_pwhash/argon2/argon2-fill-block-avx512f.c:241:13 ] ]
	vpaddq	%zmm0, %zmm2, %zmm0
.Ltmp297:
	.loc	8 14 53 is_stmt 0               # crypto_pwhash/argon2/blamka-round-avx512f.h:14:53 @[ crypto_pwhash/argon2/argon2-fill-block-avx512f.c:64:6734 @[ crypto_pwhash/argon2/argon2-fill-block-avx512f.c:241:13 ] ]
	vpaddq	%zmm8, %zmm8, %zmm8
.Ltmp298:
	.loc	8 14 12                         # crypto_pwhash/argon2/blamka-round-avx512f.h:14:12 @[ crypto_pwhash/argon2/argon2-fill-block-avx512f.c:64:6734 @[ crypto_pwhash/argon2/argon2-fill-block-avx512f.c:241:13 ] ]
	vpaddq	%zmm8, %zmm0, %zmm0
.Ltmp299:
	.loc	6 64 6797 is_stmt 1             # crypto_pwhash/argon2/argon2-fill-block-avx512f.c:64:6797 @[ crypto_pwhash/argon2/argon2-fill-block-avx512f.c:241:13 ]
	vpxorq	%zmm7, %zmm4, %zmm7
	.loc	6 64 6870 is_stmt 0             # crypto_pwhash/argon2/argon2-fill-block-avx512f.c:64:6870 @[ crypto_pwhash/argon2/argon2-fill-block-avx512f.c:241:13 ]
	vpxorq	%zmm5, %zmm0, %zmm5
	.loc	6 64 6953                       # crypto_pwhash/argon2/argon2-fill-block-avx512f.c:64:6953 @[ crypto_pwhash/argon2/argon2-fill-block-avx512f.c:241:13 ]
	vprolq	$48, %zmm7, %zmm7
	.loc	6 64 7060                       # crypto_pwhash/argon2/argon2-fill-block-avx512f.c:64:7060 @[ crypto_pwhash/argon2/argon2-fill-block-avx512f.c:241:13 ]
	vprolq	$48, %zmm5, %zmm5
.Ltmp300:
	#DEBUG_VALUE: muladd:x <- $zmm6
	#DEBUG_VALUE: muladd:y <- undef
	.loc	8 12 17 is_stmt 1               # crypto_pwhash/argon2/blamka-round-avx512f.h:12:17 @[ crypto_pwhash/argon2/argon2-fill-block-avx512f.c:64:7157 @[ crypto_pwhash/argon2/argon2-fill-block-avx512f.c:241:13 ] ]
	vpmuludq	%zmm6, %zmm7, %zmm8
.Ltmp301:
	#DEBUG_VALUE: muladd:z <- $zmm8
	.loc	8 14 29                         # crypto_pwhash/argon2/blamka-round-avx512f.h:14:29 @[ crypto_pwhash/argon2/argon2-fill-block-avx512f.c:64:7157 @[ crypto_pwhash/argon2/argon2-fill-block-avx512f.c:241:13 ] ]
	vpaddq	%zmm6, %zmm7, %zmm6
.Ltmp302:
	.loc	8 14 53 is_stmt 0               # crypto_pwhash/argon2/blamka-round-avx512f.h:14:53 @[ crypto_pwhash/argon2/argon2-fill-block-avx512f.c:64:7157 @[ crypto_pwhash/argon2/argon2-fill-block-avx512f.c:241:13 ] ]
	vpaddq	%zmm8, %zmm8, %zmm8
.Ltmp303:
	.loc	8 14 12                         # crypto_pwhash/argon2/blamka-round-avx512f.h:14:12 @[ crypto_pwhash/argon2/argon2-fill-block-avx512f.c:64:7157 @[ crypto_pwhash/argon2/argon2-fill-block-avx512f.c:241:13 ] ]
	vpaddq	%zmm8, %zmm6, %zmm6
.Ltmp304:
	#DEBUG_VALUE: muladd:x <- $zmm3
	#DEBUG_VALUE: muladd:y <- undef
	.loc	8 12 17 is_stmt 1               # crypto_pwhash/argon2/blamka-round-avx512f.h:12:17 @[ crypto_pwhash/argon2/argon2-fill-block-avx512f.c:64:7220 @[ crypto_pwhash/argon2/argon2-fill-block-avx512f.c:241:13 ] ]
	vpmuludq	%zmm3, %zmm5, %zmm8
.Ltmp305:
	#DEBUG_VALUE: muladd:z <- $zmm8
	.loc	8 14 29                         # crypto_pwhash/argon2/blamka-round-avx512f.h:14:29 @[ crypto_pwhash/argon2/argon2-fill-block-avx512f.c:64:7220 @[ crypto_pwhash/argon2/argon2-fill-block-avx512f.c:241:13 ] ]
	vpaddq	%zmm3, %zmm5, %zmm3
.Ltmp306:
	.loc	8 14 53 is_stmt 0               # crypto_pwhash/argon2/blamka-round-avx512f.h:14:53 @[ crypto_pwhash/argon2/argon2-fill-block-avx512f.c:64:7220 @[ crypto_pwhash/argon2/argon2-fill-block-avx512f.c:241:13 ] ]
	vpaddq	%zmm8, %zmm8, %zmm8
.Ltmp307:
	.loc	8 14 12                         # crypto_pwhash/argon2/blamka-round-avx512f.h:14:12 @[ crypto_pwhash/argon2/argon2-fill-block-avx512f.c:64:7220 @[ crypto_pwhash/argon2/argon2-fill-block-avx512f.c:241:13 ] ]
	vpaddq	%zmm8, %zmm3, %zmm3
.Ltmp308:
	.loc	6 64 7283 is_stmt 1             # crypto_pwhash/argon2/argon2-fill-block-avx512f.c:64:7283 @[ crypto_pwhash/argon2/argon2-fill-block-avx512f.c:241:13 ]
	vpxorq	%zmm1, %zmm6, %zmm1
	.loc	6 64 7356 is_stmt 0             # crypto_pwhash/argon2/argon2-fill-block-avx512f.c:64:7356 @[ crypto_pwhash/argon2/argon2-fill-block-avx512f.c:241:13 ]
	vpxorq	%zmm2, %zmm3, %zmm2
	.loc	6 64 7439                       # crypto_pwhash/argon2/argon2-fill-block-avx512f.c:64:7439 @[ crypto_pwhash/argon2/argon2-fill-block-avx512f.c:241:13 ]
	vprolq	$1, %zmm1, %zmm1
	.loc	6 64 7546                       # crypto_pwhash/argon2/argon2-fill-block-avx512f.c:64:7546 @[ crypto_pwhash/argon2/argon2-fill-block-avx512f.c:241:13 ]
	vprolq	$1, %zmm2, %zmm2
.Ltmp309:
	.loc	6 64 8840                       # crypto_pwhash/argon2/argon2-fill-block-avx512f.c:64:8840 @[ crypto_pwhash/argon2/argon2-fill-block-avx512f.c:241:13 ]
	vshufi64x2	$136, %zmm0, %zmm4, %zmm8 # zmm8 = zmm4[0,1,4,5],zmm0[0,1,4,5]
.Ltmp310:
	#DEBUG_VALUE: t0 <- $zmm8
	.loc	6 64 9010                       # crypto_pwhash/argon2/argon2-fill-block-avx512f.c:64:9010 @[ crypto_pwhash/argon2/argon2-fill-block-avx512f.c:241:13 ]
	vshufi64x2	$221, %zmm0, %zmm4, %zmm0 # zmm0 = zmm4[2,3,6,7],zmm0[2,3,6,7]
.Ltmp311:
	#DEBUG_VALUE: t1 <- $zmm0
	.loc	6 64 9182                       # crypto_pwhash/argon2/argon2-fill-block-avx512f.c:64:9182 @[ crypto_pwhash/argon2/argon2-fill-block-avx512f.c:241:13 ]
	vmovdqa64	%zmm8, (%rsi)
	.loc	6 64 9205                       # crypto_pwhash/argon2/argon2-fill-block-avx512f.c:64:9205 @[ crypto_pwhash/argon2/argon2-fill-block-avx512f.c:241:13 ]
	vmovdqa64	%zmm0, 128(%rsi)
.Ltmp312:
	.loc	6 64 9522                       # crypto_pwhash/argon2/argon2-fill-block-avx512f.c:64:9522 @[ crypto_pwhash/argon2/argon2-fill-block-avx512f.c:241:13 ]
	vmovdqa64	%zmm1, %zmm0
.Ltmp313:
	vpermt2q	%zmm2, %zmm15, %zmm0
.Ltmp314:
	#DEBUG_VALUE: t0 <- $zmm0
	.loc	6 64 9692                       # crypto_pwhash/argon2/argon2-fill-block-avx512f.c:64:9692 @[ crypto_pwhash/argon2/argon2-fill-block-avx512f.c:241:13 ]
	vpermt2q	%zmm2, %zmm16, %zmm1
.Ltmp315:
	#DEBUG_VALUE: t1 <- $zmm1
	.loc	6 64 9864                       # crypto_pwhash/argon2/argon2-fill-block-avx512f.c:64:9864 @[ crypto_pwhash/argon2/argon2-fill-block-avx512f.c:241:13 ]
	vmovdqa64	%zmm0, 256(%rsi)
	.loc	6 64 9887                       # crypto_pwhash/argon2/argon2-fill-block-avx512f.c:64:9887 @[ crypto_pwhash/argon2/argon2-fill-block-avx512f.c:241:13 ]
	vmovdqa64	%zmm1, 384(%rsi)
.Ltmp316:
	.loc	6 64 10204                      # crypto_pwhash/argon2/argon2-fill-block-avx512f.c:64:10204 @[ crypto_pwhash/argon2/argon2-fill-block-avx512f.c:241:13 ]
	vshufi64x2	$221, %zmm3, %zmm6, %zmm0 # zmm0 = zmm6[2,3,6,7],zmm3[2,3,6,7]
.Ltmp317:
	#DEBUG_VALUE: t0 <- $zmm0
	.loc	6 64 10374                      # crypto_pwhash/argon2/argon2-fill-block-avx512f.c:64:10374 @[ crypto_pwhash/argon2/argon2-fill-block-avx512f.c:241:13 ]
	vshufi64x2	$136, %zmm3, %zmm6, %zmm1 # zmm1 = zmm6[0,1,4,5],zmm3[0,1,4,5]
.Ltmp318:
	#DEBUG_VALUE: t1 <- $zmm1
	.loc	6 64 10546                      # crypto_pwhash/argon2/argon2-fill-block-avx512f.c:64:10546 @[ crypto_pwhash/argon2/argon2-fill-block-avx512f.c:241:13 ]
	vmovdqa64	%zmm0, 512(%rsi)
	.loc	6 64 10569                      # crypto_pwhash/argon2/argon2-fill-block-avx512f.c:64:10569 @[ crypto_pwhash/argon2/argon2-fill-block-avx512f.c:241:13 ]
	vmovdqa64	%zmm1, 640(%rsi)
.Ltmp319:
	.loc	6 64 10886                      # crypto_pwhash/argon2/argon2-fill-block-avx512f.c:64:10886 @[ crypto_pwhash/argon2/argon2-fill-block-avx512f.c:241:13 ]
	vmovdqa64	%zmm7, %zmm0
.Ltmp320:
	vpermt2q	%zmm5, %zmm16, %zmm0
.Ltmp321:
	#DEBUG_VALUE: t0 <- $zmm0
	.loc	6 64 11056                      # crypto_pwhash/argon2/argon2-fill-block-avx512f.c:64:11056 @[ crypto_pwhash/argon2/argon2-fill-block-avx512f.c:241:13 ]
	vpermt2q	%zmm5, %zmm15, %zmm7
.Ltmp322:
	#DEBUG_VALUE: t1 <- $zmm7
	.loc	6 64 11228                      # crypto_pwhash/argon2/argon2-fill-block-avx512f.c:64:11228 @[ crypto_pwhash/argon2/argon2-fill-block-avx512f.c:241:13 ]
	vmovdqa64	%zmm0, 768(%rsi)
	.loc	6 64 11251                      # crypto_pwhash/argon2/argon2-fill-block-avx512f.c:64:11251 @[ crypto_pwhash/argon2/argon2-fill-block-avx512f.c:241:13 ]
	vmovdqa64	%zmm7, 896(%rsi)
	movq	%rbx, %rsi
.Ltmp323:
	.loc	6 63 5 is_stmt 1                # crypto_pwhash/argon2/argon2-fill-block-avx512f.c:63:5 @[ crypto_pwhash/argon2/argon2-fill-block-avx512f.c:241:13 ]
	testb	$1, %cl
	movl	$0, %ecx
	jne	.LBB0_42
.Ltmp324:
# %bb.43:                               # %.preheader.i.preheader
                                        #   in Loop: Header=BB0_17 Depth=1
	#DEBUG_VALUE: argon2_fill_segment_avx512f:position <- [DW_OP_plus_uconst 64, DW_OP_deref_size 8, DW_OP_constu 8, DW_OP_shr, DW_OP_LLVM_convert 64 7, DW_OP_LLVM_convert 24 7, DW_OP_stack_value, DW_OP_LLVM_fragment 72 24] $rsp
	#DEBUG_VALUE: argon2_fill_segment_avx512f:instance <- [DW_OP_plus_uconst 88] [$rsp+0]
	#DEBUG_VALUE: argon2_fill_segment_avx512f:position <- [DW_OP_plus_uconst 80, DW_OP_deref, DW_OP_LLVM_fragment 32 32] $rsp
	#DEBUG_VALUE: argon2_fill_segment_avx512f:position <- [DW_OP_plus_uconst 96, DW_OP_deref, DW_OP_LLVM_fragment 0 32] $rsp
	#DEBUG_VALUE: argon2_fill_segment_avx512f:position <- [DW_OP_plus_uconst 64, DW_OP_deref, DW_OP_LLVM_fragment 64 8] $rsp
	#DEBUG_VALUE: argon2_fill_segment_avx512f:position <- [DW_OP_LLVM_fragment 96 32] $r14
	#DEBUG_VALUE: argon2_fill_segment_avx512f:i <- $r14
	#DEBUG_VALUE: argon2_fill_segment_avx512f:curr_offset <- $r12d
	#DEBUG_VALUE: argon2_fill_segment_avx512f:prev_offset <- $r15d
	#DEBUG_VALUE: fill_block:block_XY <- [DW_OP_plus_uconst 128, DW_OP_deref] $rsp
	#DEBUG_VALUE: fill_block:state <- [DW_OP_plus_uconst 5248, DW_OP_stack_value] $rsp
	.loc	6 69 5                          # crypto_pwhash/argon2/argon2-fill-block-avx512f.c:69:5 @[ crypto_pwhash/argon2/argon2-fill-block-avx512f.c:241:13 ]
	addq	%rax, %rdx
	movl	$64, %eax
.Ltmp325:
	.loc	6 0 5 is_stmt 0                 # :0:5
.Ltmp326:
	.p2align	4
.LBB0_44:                               # %.preheader.i
                                        #   Parent Loop BB0_17 Depth=1
                                        # =>  This Inner Loop Header: Depth=2
	#DEBUG_VALUE: argon2_fill_segment_avx512f:position <- [DW_OP_plus_uconst 64, DW_OP_deref_size 8, DW_OP_constu 8, DW_OP_shr, DW_OP_LLVM_convert 64 7, DW_OP_LLVM_convert 24 7, DW_OP_stack_value, DW_OP_LLVM_fragment 72 24] $rsp
	#DEBUG_VALUE: argon2_fill_segment_avx512f:instance <- [DW_OP_plus_uconst 88] [$rsp+0]
	#DEBUG_VALUE: argon2_fill_segment_avx512f:position <- [DW_OP_plus_uconst 80, DW_OP_deref, DW_OP_LLVM_fragment 32 32] $rsp
	#DEBUG_VALUE: argon2_fill_segment_avx512f:position <- [DW_OP_plus_uconst 96, DW_OP_deref, DW_OP_LLVM_fragment 0 32] $rsp
	#DEBUG_VALUE: argon2_fill_segment_avx512f:position <- [DW_OP_plus_uconst 64, DW_OP_deref, DW_OP_LLVM_fragment 64 8] $rsp
	#DEBUG_VALUE: argon2_fill_segment_avx512f:position <- [DW_OP_LLVM_fragment 96 32] $r14
	#DEBUG_VALUE: argon2_fill_segment_avx512f:i <- $r14
	#DEBUG_VALUE: argon2_fill_segment_avx512f:curr_offset <- $r12d
	#DEBUG_VALUE: argon2_fill_segment_avx512f:prev_offset <- $r15d
	#DEBUG_VALUE: fill_block:block_XY <- [DW_OP_plus_uconst 128, DW_OP_deref] $rsp
	#DEBUG_VALUE: fill_block:state <- [DW_OP_plus_uconst 5248, DW_OP_stack_value] $rsp
	#DEBUG_VALUE: fill_block:i <- [DW_OP_consts 64, DW_OP_minus, DW_OP_consts 128, DW_OP_div, DW_OP_consts 2, DW_OP_mul, DW_OP_stack_value] $rax
	.loc	6 70 47 is_stmt 1               # crypto_pwhash/argon2/argon2-fill-block-avx512f.c:70:47 @[ crypto_pwhash/argon2/argon2-fill-block-avx512f.c:241:13 ]
	vmovdqa64	64(%rsp,%rax), %zmm0
	.loc	6 70 20 is_stmt 0               # crypto_pwhash/argon2/argon2-fill-block-avx512f.c:70:20 @[ crypto_pwhash/argon2/argon2-fill-block-avx512f.c:241:13 ]
	vpxorq	5184(%rsp,%rax), %zmm0, %zmm0
	.loc	6 70 18                         # crypto_pwhash/argon2/argon2-fill-block-avx512f.c:70:18 @[ crypto_pwhash/argon2/argon2-fill-block-avx512f.c:241:13 ]
	vmovdqa64	%zmm0, 5184(%rsp,%rax)
	.loc	6 71 9 is_stmt 1                # crypto_pwhash/argon2/argon2-fill-block-avx512f.c:71:9 @[ crypto_pwhash/argon2/argon2-fill-block-avx512f.c:241:13 ]
	vmovdqu64	%zmm0, -64(%rdx,%rax)
.Ltmp327:
	#DEBUG_VALUE: fill_block:i <- [DW_OP_consts 64, DW_OP_minus, DW_OP_consts 128, DW_OP_div, DW_OP_consts 2, DW_OP_mul, DW_OP_consts 1, DW_OP_plus, DW_OP_stack_value] $rax
	.loc	6 70 47                         # crypto_pwhash/argon2/argon2-fill-block-avx512f.c:70:47 @[ crypto_pwhash/argon2/argon2-fill-block-avx512f.c:241:13 ]
	vmovdqa64	128(%rsp,%rax), %zmm0
	.loc	6 70 20 is_stmt 0               # crypto_pwhash/argon2/argon2-fill-block-avx512f.c:70:20 @[ crypto_pwhash/argon2/argon2-fill-block-avx512f.c:241:13 ]
	vpxorq	5248(%rsp,%rax), %zmm0, %zmm0
	.loc	6 70 18                         # crypto_pwhash/argon2/argon2-fill-block-avx512f.c:70:18 @[ crypto_pwhash/argon2/argon2-fill-block-avx512f.c:241:13 ]
	vmovdqa64	%zmm0, 5248(%rsp,%rax)
	.loc	6 71 9 is_stmt 1                # crypto_pwhash/argon2/argon2-fill-block-avx512f.c:71:9 @[ crypto_pwhash/argon2/argon2-fill-block-avx512f.c:241:13 ]
	vmovdqu64	%zmm0, (%rdx,%rax)
.Ltmp328:
	#DEBUG_VALUE: fill_block:i <- [DW_OP_consts 64, DW_OP_minus, DW_OP_consts 128, DW_OP_div, DW_OP_consts 2, DW_OP_mul, DW_OP_consts 2, DW_OP_plus, DW_OP_stack_value] $rax
	.loc	6 69 19                         # crypto_pwhash/argon2/argon2-fill-block-avx512f.c:69:19 @[ crypto_pwhash/argon2/argon2-fill-block-avx512f.c:241:13 ]
	subq	$-128, %rax
.Ltmp329:
	cmpq	$1088, %rax                     # imm = 0x440
.Ltmp330:
	.loc	6 69 5 is_stmt 0                # crypto_pwhash/argon2/argon2-fill-block-avx512f.c:69:5 @[ crypto_pwhash/argon2/argon2-fill-block-avx512f.c:241:13 ]
	jne	.LBB0_44
	jmp	.LBB0_16
.Ltmp331:
.LBB0_45:                               # %.loopexit
	#DEBUG_VALUE: argon2_fill_segment_avx512f:position <- [DW_OP_plus_uconst 64, DW_OP_deref_size 8, DW_OP_constu 8, DW_OP_shr, DW_OP_LLVM_convert 64 7, DW_OP_LLVM_convert 24 7, DW_OP_stack_value, DW_OP_LLVM_fragment 72 24] $rsp
	#DEBUG_VALUE: argon2_fill_segment_avx512f:instance <- [DW_OP_LLVM_entry_value 1] $rdi
	#DEBUG_VALUE: argon2_fill_segment_avx512f:position <- [DW_OP_plus_uconst 64, DW_OP_deref, DW_OP_LLVM_fragment 64 8] $rsp
	.loc	6 245 1 is_stmt 1               # crypto_pwhash/argon2/argon2-fill-block-avx512f.c:245:1
	leaq	-40(%rbp), %rsp
.Ltmp332:
	.loc	6 245 1 epilogue_begin is_stmt 0 # crypto_pwhash/argon2/argon2-fill-block-avx512f.c:245:1
	popq	%rbx
	popq	%r12
	popq	%r13
	popq	%r14
	popq	%r15
	popq	%rbp
	.cfi_def_cfa %rsp, 8
	vzeroupper
	retq
.Ltmp333:
.Lfunc_end0:
	.size	argon2_fill_segment_avx512f, .Lfunc_end0-argon2_fill_segment_avx512f
	.cfi_endproc
	.file	9 "/home/leizhenyuu/opt/Anonymous_Repo" "llvm-project/build/lib/clang/21/include/__stddef_size_t.h"
                                        # -- End function
	.section	.rodata,"a",@progbits
	.p2align	6, 0x0                          # -- Begin function fill_block_with_xor
.LCPI1_0:
	.quad	0                               # 0x0
	.quad	1                               # 0x1
	.quad	2                               # 0x2
	.quad	3                               # 0x3
	.quad	11                              # 0xb
	.quad	8                               # 0x8
	.quad	9                               # 0x9
	.quad	10                              # 0xa
.LCPI1_1:
	.quad	4                               # 0x4
	.quad	5                               # 0x5
	.quad	6                               # 0x6
	.quad	7                               # 0x7
	.quad	15                              # 0xf
	.quad	12                              # 0xc
	.quad	13                              # 0xd
	.quad	14                              # 0xe
.LCPI1_2:
	.quad	2                               # 0x2
	.quad	3                               # 0x3
	.quad	0                               # 0x0
	.quad	1                               # 0x1
	.quad	9                               # 0x9
	.quad	10                              # 0xa
	.quad	11                              # 0xb
	.quad	8                               # 0x8
.LCPI1_3:
	.quad	6                               # 0x6
	.quad	7                               # 0x7
	.quad	4                               # 0x4
	.quad	5                               # 0x5
	.quad	13                              # 0xd
	.quad	14                              # 0xe
	.quad	15                              # 0xf
	.quad	12                              # 0xc
.LCPI1_4:
	.quad	0                               # 0x0
	.quad	1                               # 0x1
	.quad	8                               # 0x8
	.quad	9                               # 0x9
	.quad	2                               # 0x2
	.quad	3                               # 0x3
	.quad	10                              # 0xa
	.quad	11                              # 0xb
.LCPI1_5:
	.quad	4                               # 0x4
	.quad	5                               # 0x5
	.quad	12                              # 0xc
	.quad	13                              # 0xd
	.quad	6                               # 0x6
	.quad	7                               # 0x7
	.quad	14                              # 0xe
	.quad	15                              # 0xf
.LCPI1_6:
	.quad	3                               # 0x3
	.quad	0                               # 0x0
	.quad	7                               # 0x7
	.quad	4                               # 0x4
	.quad	11                              # 0xb
	.quad	8                               # 0x8
	.quad	15                              # 0xf
	.quad	12                              # 0xc
.LCPI1_7:
	.quad	1                               # 0x1
	.quad	2                               # 0x2
	.quad	5                               # 0x5
	.quad	6                               # 0x6
	.quad	9                               # 0x9
	.quad	10                              # 0xa
	.quad	13                              # 0xd
	.quad	14                              # 0xe
	.text
	.p2align	4
	.type	fill_block_with_xor,@function
fill_block_with_xor:                    # @fill_block_with_xor
.Lfunc_begin1:
	.loc	6 78 0 is_stmt 1                # crypto_pwhash/argon2/argon2-fill-block-avx512f.c:78:0
	.cfi_startproc
# %bb.0:
	#DEBUG_VALUE: fill_block_with_xor:state <- $rdi
	#DEBUG_VALUE: fill_block_with_xor:ref_block <- $rsi
	#DEBUG_VALUE: fill_block_with_xor:next_block <- $rdx
	pushq	%rbp
	.cfi_def_cfa_offset 16
	.cfi_offset %rbp, -16
	movq	%rsp, %rbp
	.cfi_def_cfa_register %rbp
	andq	$-64, %rsp
	subq	$1088, %rsp                     # imm = 0x440
	movl	$64, %eax
.Ltmp334:
	#DEBUG_VALUE: fill_block_with_xor:i <- 0
	.loc	6 0 0 is_stmt 0                 # :0:0
.Ltmp335:
	.p2align	4
.LBB1_1:                                # =>This Inner Loop Header: Depth=1
	#DEBUG_VALUE: fill_block_with_xor:state <- $rdi
	#DEBUG_VALUE: fill_block_with_xor:ref_block <- $rsi
	#DEBUG_VALUE: fill_block_with_xor:next_block <- $rdx
	#DEBUG_VALUE: fill_block_with_xor:i <- [DW_OP_consts 64, DW_OP_minus, DW_OP_consts 128, DW_OP_div, DW_OP_consts 2, DW_OP_mul, DW_OP_stack_value] $rax
	.loc	6 84 23 prologue_end is_stmt 1  # crypto_pwhash/argon2/argon2-fill-block-avx512f.c:84:23
	vmovdqu64	-64(%rsi,%rax), %zmm0
	.loc	6 83 20                         # crypto_pwhash/argon2/argon2-fill-block-avx512f.c:83:20
	vpxorq	-64(%rdi,%rax), %zmm0, %zmm0
	.loc	6 83 18 is_stmt 0               # crypto_pwhash/argon2/argon2-fill-block-avx512f.c:83:18
	vmovdqa64	%zmm0, -64(%rdi,%rax)
	.loc	6 85 23 is_stmt 1               # crypto_pwhash/argon2/argon2-fill-block-avx512f.c:85:23
	vpxorq	-64(%rdx,%rax), %zmm0, %zmm0
	.loc	6 85 21 is_stmt 0               # crypto_pwhash/argon2/argon2-fill-block-avx512f.c:85:21
	vmovdqa64	%zmm0, -64(%rsp,%rax)
.Ltmp336:
	#DEBUG_VALUE: fill_block_with_xor:i <- [DW_OP_consts 64, DW_OP_minus, DW_OP_consts 128, DW_OP_div, DW_OP_consts 2, DW_OP_mul, DW_OP_consts 1, DW_OP_plus, DW_OP_stack_value] $rax
	.loc	6 84 23 is_stmt 1               # crypto_pwhash/argon2/argon2-fill-block-avx512f.c:84:23
	vmovdqu64	(%rsi,%rax), %zmm0
	.loc	6 83 20                         # crypto_pwhash/argon2/argon2-fill-block-avx512f.c:83:20
	vpxorq	(%rdi,%rax), %zmm0, %zmm0
	.loc	6 83 18 is_stmt 0               # crypto_pwhash/argon2/argon2-fill-block-avx512f.c:83:18
	vmovdqa64	%zmm0, (%rdi,%rax)
	.loc	6 85 23 is_stmt 1               # crypto_pwhash/argon2/argon2-fill-block-avx512f.c:85:23
	vpxorq	(%rdx,%rax), %zmm0, %zmm0
	.loc	6 85 21 is_stmt 0               # crypto_pwhash/argon2/argon2-fill-block-avx512f.c:85:21
	vmovdqa64	%zmm0, (%rsp,%rax)
.Ltmp337:
	#DEBUG_VALUE: fill_block_with_xor:i <- [DW_OP_consts 64, DW_OP_minus, DW_OP_consts 128, DW_OP_div, DW_OP_consts 2, DW_OP_mul, DW_OP_consts 2, DW_OP_plus, DW_OP_stack_value] $rax
	.loc	6 82 19 is_stmt 1               # crypto_pwhash/argon2/argon2-fill-block-avx512f.c:82:19
	subq	$-128, %rax
.Ltmp338:
	cmpq	$1088, %rax                     # imm = 0x440
.Ltmp339:
	.loc	6 82 5 is_stmt 0                # crypto_pwhash/argon2/argon2-fill-block-avx512f.c:82:5
	jne	.LBB1_1
.Ltmp340:
# %bb.2:                                # %.preheader924.preheader
	#DEBUG_VALUE: fill_block_with_xor:state <- $rdi
	#DEBUG_VALUE: fill_block_with_xor:ref_block <- $rsi
	#DEBUG_VALUE: fill_block_with_xor:next_block <- $rdx
	.loc	6 0 5                           # crypto_pwhash/argon2/argon2-fill-block-avx512f.c:0:5
	movb	$1, %al
	xorl	%ecx, %ecx
	vmovdqa64	.LCPI1_0(%rip), %zmm0   # zmm0 = [0,1,2,3,11,8,9,10]
	vmovdqa64	.LCPI1_1(%rip), %zmm1   # zmm1 = [4,5,6,7,15,12,13,14]
	vmovdqa64	.LCPI1_2(%rip), %zmm2   # zmm2 = [2,3,0,1,9,10,11,8]
	vmovdqa64	.LCPI1_3(%rip), %zmm3   # zmm3 = [6,7,4,5,13,14,15,12]
.Ltmp341:
	.p2align	4
.LBB1_3:                                # %.preheader924
                                        # =>This Inner Loop Header: Depth=1
	#DEBUG_VALUE: fill_block_with_xor:state <- $rdi
	#DEBUG_VALUE: fill_block_with_xor:ref_block <- $rsi
	#DEBUG_VALUE: fill_block_with_xor:next_block <- $rdx
	#DEBUG_VALUE: fill_block_with_xor:i <- $rcx
	.loc	6 90 94 is_stmt 1               # crypto_pwhash/argon2/argon2-fill-block-avx512f.c:90:94
	vmovdqa64	(%rdi,%rcx), %zmm4
.Ltmp342:
	.loc	6 90 522 is_stmt 0              # crypto_pwhash/argon2/argon2-fill-block-avx512f.c:90:522
	vmovdqa64	64(%rdi,%rcx), %zmm5
.Ltmp343:
	.loc	6 90 950                        # crypto_pwhash/argon2/argon2-fill-block-avx512f.c:90:950
	vmovdqa64	256(%rdi,%rcx), %zmm6
.Ltmp344:
	.loc	6 90 1378                       # crypto_pwhash/argon2/argon2-fill-block-avx512f.c:90:1378
	vmovdqa64	320(%rdi,%rcx), %zmm7
.Ltmp345:
	.loc	6 90 50                         # crypto_pwhash/argon2/argon2-fill-block-avx512f.c:90:50
	vinserti64x4	$1, 128(%rdi,%rcx), %zmm4, %zmm8
.Ltmp346:
	#DEBUG_VALUE: t0 <- $zmm8
	.loc	6 90 220                        # crypto_pwhash/argon2/argon2-fill-block-avx512f.c:90:220
	vshufi64x2	$238, 128(%rdi,%rcx), %zmm4, %zmm4 # zmm4 = zmm4[4,5,6,7],mem[4,5,6,7]
.Ltmp347:
	#DEBUG_VALUE: t1 <- $zmm4
	.loc	6 90 478                        # crypto_pwhash/argon2/argon2-fill-block-avx512f.c:90:478
	vinserti64x4	$1, 192(%rdi,%rcx), %zmm5, %zmm9
.Ltmp348:
	#DEBUG_VALUE: t0 <- $zmm9
	.loc	6 90 648                        # crypto_pwhash/argon2/argon2-fill-block-avx512f.c:90:648
	vshufi64x2	$238, 192(%rdi,%rcx), %zmm5, %zmm5 # zmm5 = zmm5[4,5,6,7],mem[4,5,6,7]
.Ltmp349:
	#DEBUG_VALUE: t1 <- $zmm5
	.loc	6 90 906                        # crypto_pwhash/argon2/argon2-fill-block-avx512f.c:90:906
	vinserti64x4	$1, 384(%rdi,%rcx), %zmm6, %zmm10
.Ltmp350:
	#DEBUG_VALUE: t0 <- $zmm10
	.loc	6 90 1076                       # crypto_pwhash/argon2/argon2-fill-block-avx512f.c:90:1076
	vshufi64x2	$238, 384(%rdi,%rcx), %zmm6, %zmm6 # zmm6 = zmm6[4,5,6,7],mem[4,5,6,7]
.Ltmp351:
	#DEBUG_VALUE: t1 <- $zmm6
	.loc	6 90 1334                       # crypto_pwhash/argon2/argon2-fill-block-avx512f.c:90:1334
	vinserti64x4	$1, 448(%rdi,%rcx), %zmm7, %zmm11
.Ltmp352:
	#DEBUG_VALUE: t0 <- $zmm11
	.loc	6 90 1504                       # crypto_pwhash/argon2/argon2-fill-block-avx512f.c:90:1504
	vshufi64x2	$238, 448(%rdi,%rcx), %zmm7, %zmm7 # zmm7 = zmm7[4,5,6,7],mem[4,5,6,7]
.Ltmp353:
	#DEBUG_VALUE: t1 <- $zmm7
	#DEBUG_VALUE: muladd:x <- $zmm8
	#DEBUG_VALUE: muladd:y <- $zmm4
	.loc	8 12 17 is_stmt 1               # crypto_pwhash/argon2/blamka-round-avx512f.h:12:17 @[ crypto_pwhash/argon2/argon2-fill-block-avx512f.c:90:1755 ]
	vpmuludq	%zmm8, %zmm4, %zmm12
.Ltmp354:
	#DEBUG_VALUE: muladd:z <- $zmm12
	.loc	8 14 29                         # crypto_pwhash/argon2/blamka-round-avx512f.h:14:29 @[ crypto_pwhash/argon2/argon2-fill-block-avx512f.c:90:1755 ]
	vpaddq	%zmm8, %zmm4, %zmm8
.Ltmp355:
	.loc	8 14 53 is_stmt 0               # crypto_pwhash/argon2/blamka-round-avx512f.h:14:53 @[ crypto_pwhash/argon2/argon2-fill-block-avx512f.c:90:1755 ]
	vpaddq	%zmm12, %zmm12, %zmm12
.Ltmp356:
	.loc	8 14 12                         # crypto_pwhash/argon2/blamka-round-avx512f.h:14:12 @[ crypto_pwhash/argon2/argon2-fill-block-avx512f.c:90:1755 ]
	vpaddq	%zmm12, %zmm8, %zmm8
.Ltmp357:
	#DEBUG_VALUE: muladd:x <- $zmm10
	#DEBUG_VALUE: muladd:y <- $zmm6
	.loc	8 12 17 is_stmt 1               # crypto_pwhash/argon2/blamka-round-avx512f.h:12:17 @[ crypto_pwhash/argon2/argon2-fill-block-avx512f.c:90:1818 ]
	vpmuludq	%zmm10, %zmm6, %zmm12
.Ltmp358:
	#DEBUG_VALUE: muladd:z <- $zmm12
	.loc	8 14 29                         # crypto_pwhash/argon2/blamka-round-avx512f.h:14:29 @[ crypto_pwhash/argon2/argon2-fill-block-avx512f.c:90:1818 ]
	vpaddq	%zmm10, %zmm6, %zmm10
.Ltmp359:
	.loc	8 14 53 is_stmt 0               # crypto_pwhash/argon2/blamka-round-avx512f.h:14:53 @[ crypto_pwhash/argon2/argon2-fill-block-avx512f.c:90:1818 ]
	vpaddq	%zmm12, %zmm12, %zmm12
.Ltmp360:
	.loc	8 14 12                         # crypto_pwhash/argon2/blamka-round-avx512f.h:14:12 @[ crypto_pwhash/argon2/argon2-fill-block-avx512f.c:90:1818 ]
	vpaddq	%zmm12, %zmm10, %zmm10
.Ltmp361:
	.loc	6 90 1881 is_stmt 1             # crypto_pwhash/argon2/argon2-fill-block-avx512f.c:90:1881
	vpxorq	%zmm8, %zmm5, %zmm5
	.loc	6 90 1954 is_stmt 0             # crypto_pwhash/argon2/argon2-fill-block-avx512f.c:90:1954
	vpxorq	%zmm10, %zmm7, %zmm7
	.loc	6 90 2037                       # crypto_pwhash/argon2/argon2-fill-block-avx512f.c:90:2037
	vprolq	$32, %zmm5, %zmm5
	.loc	6 90 2144                       # crypto_pwhash/argon2/argon2-fill-block-avx512f.c:90:2144
	vprolq	$32, %zmm7, %zmm7
.Ltmp362:
	#DEBUG_VALUE: muladd:y <- undef
	#DEBUG_VALUE: muladd:x <- $zmm9
	.loc	8 12 17 is_stmt 1               # crypto_pwhash/argon2/blamka-round-avx512f.h:12:17 @[ crypto_pwhash/argon2/argon2-fill-block-avx512f.c:90:2241 ]
	vpmuludq	%zmm9, %zmm5, %zmm12
.Ltmp363:
	#DEBUG_VALUE: muladd:z <- $zmm12
	.loc	8 14 29                         # crypto_pwhash/argon2/blamka-round-avx512f.h:14:29 @[ crypto_pwhash/argon2/argon2-fill-block-avx512f.c:90:2241 ]
	vpaddq	%zmm9, %zmm5, %zmm9
.Ltmp364:
	.loc	8 14 53 is_stmt 0               # crypto_pwhash/argon2/blamka-round-avx512f.h:14:53 @[ crypto_pwhash/argon2/argon2-fill-block-avx512f.c:90:2241 ]
	vpaddq	%zmm12, %zmm12, %zmm12
.Ltmp365:
	.loc	8 14 12                         # crypto_pwhash/argon2/blamka-round-avx512f.h:14:12 @[ crypto_pwhash/argon2/argon2-fill-block-avx512f.c:90:2241 ]
	vpaddq	%zmm12, %zmm9, %zmm9
.Ltmp366:
	#DEBUG_VALUE: muladd:y <- undef
	#DEBUG_VALUE: muladd:x <- $zmm11
	.loc	8 12 17 is_stmt 1               # crypto_pwhash/argon2/blamka-round-avx512f.h:12:17 @[ crypto_pwhash/argon2/argon2-fill-block-avx512f.c:90:2304 ]
	vpmuludq	%zmm11, %zmm7, %zmm12
.Ltmp367:
	#DEBUG_VALUE: muladd:z <- $zmm12
	.loc	8 14 29                         # crypto_pwhash/argon2/blamka-round-avx512f.h:14:29 @[ crypto_pwhash/argon2/argon2-fill-block-avx512f.c:90:2304 ]
	vpaddq	%zmm11, %zmm7, %zmm11
.Ltmp368:
	.loc	8 14 53 is_stmt 0               # crypto_pwhash/argon2/blamka-round-avx512f.h:14:53 @[ crypto_pwhash/argon2/argon2-fill-block-avx512f.c:90:2304 ]
	vpaddq	%zmm12, %zmm12, %zmm12
.Ltmp369:
	.loc	8 14 12                         # crypto_pwhash/argon2/blamka-round-avx512f.h:14:12 @[ crypto_pwhash/argon2/argon2-fill-block-avx512f.c:90:2304 ]
	vpaddq	%zmm12, %zmm11, %zmm11
.Ltmp370:
	.loc	6 90 2367 is_stmt 1             # crypto_pwhash/argon2/argon2-fill-block-avx512f.c:90:2367
	vpxorq	%zmm4, %zmm9, %zmm4
.Ltmp371:
	.loc	6 90 2440 is_stmt 0             # crypto_pwhash/argon2/argon2-fill-block-avx512f.c:90:2440
	vpxorq	%zmm6, %zmm11, %zmm6
.Ltmp372:
	.loc	6 90 2523                       # crypto_pwhash/argon2/argon2-fill-block-avx512f.c:90:2523
	vprolq	$40, %zmm4, %zmm4
	.loc	6 90 2630                       # crypto_pwhash/argon2/argon2-fill-block-avx512f.c:90:2630
	vprolq	$40, %zmm6, %zmm6
.Ltmp373:
	#DEBUG_VALUE: muladd:x <- $zmm8
	#DEBUG_VALUE: muladd:y <- undef
	.loc	8 12 17 is_stmt 1               # crypto_pwhash/argon2/blamka-round-avx512f.h:12:17 @[ crypto_pwhash/argon2/argon2-fill-block-avx512f.c:90:2754 ]
	vpmuludq	%zmm8, %zmm4, %zmm12
.Ltmp374:
	#DEBUG_VALUE: muladd:z <- $zmm12
	.loc	8 14 29                         # crypto_pwhash/argon2/blamka-round-avx512f.h:14:29 @[ crypto_pwhash/argon2/argon2-fill-block-avx512f.c:90:2754 ]
	vpaddq	%zmm8, %zmm4, %zmm8
.Ltmp375:
	.loc	8 14 53 is_stmt 0               # crypto_pwhash/argon2/blamka-round-avx512f.h:14:53 @[ crypto_pwhash/argon2/argon2-fill-block-avx512f.c:90:2754 ]
	vpaddq	%zmm12, %zmm12, %zmm12
.Ltmp376:
	.loc	8 14 12                         # crypto_pwhash/argon2/blamka-round-avx512f.h:14:12 @[ crypto_pwhash/argon2/argon2-fill-block-avx512f.c:90:2754 ]
	vpaddq	%zmm12, %zmm8, %zmm8
.Ltmp377:
	#DEBUG_VALUE: muladd:x <- $zmm10
	#DEBUG_VALUE: muladd:y <- undef
	.loc	8 12 17 is_stmt 1               # crypto_pwhash/argon2/blamka-round-avx512f.h:12:17 @[ crypto_pwhash/argon2/argon2-fill-block-avx512f.c:90:2817 ]
	vpmuludq	%zmm10, %zmm6, %zmm12
.Ltmp378:
	#DEBUG_VALUE: muladd:z <- $zmm12
	.loc	8 14 29                         # crypto_pwhash/argon2/blamka-round-avx512f.h:14:29 @[ crypto_pwhash/argon2/argon2-fill-block-avx512f.c:90:2817 ]
	vpaddq	%zmm10, %zmm6, %zmm10
.Ltmp379:
	.loc	8 14 53 is_stmt 0               # crypto_pwhash/argon2/blamka-round-avx512f.h:14:53 @[ crypto_pwhash/argon2/argon2-fill-block-avx512f.c:90:2817 ]
	vpaddq	%zmm12, %zmm12, %zmm12
.Ltmp380:
	.loc	8 14 12                         # crypto_pwhash/argon2/blamka-round-avx512f.h:14:12 @[ crypto_pwhash/argon2/argon2-fill-block-avx512f.c:90:2817 ]
	vpaddq	%zmm12, %zmm10, %zmm10
.Ltmp381:
	.loc	6 90 2880 is_stmt 1             # crypto_pwhash/argon2/argon2-fill-block-avx512f.c:90:2880
	vpxorq	%zmm5, %zmm8, %zmm5
	.loc	6 90 2953 is_stmt 0             # crypto_pwhash/argon2/argon2-fill-block-avx512f.c:90:2953
	vpxorq	%zmm7, %zmm10, %zmm7
	.loc	6 90 3036                       # crypto_pwhash/argon2/argon2-fill-block-avx512f.c:90:3036
	vprolq	$48, %zmm5, %zmm5
	.loc	6 90 3143                       # crypto_pwhash/argon2/argon2-fill-block-avx512f.c:90:3143
	vprolq	$48, %zmm7, %zmm7
.Ltmp382:
	#DEBUG_VALUE: muladd:x <- $zmm9
	#DEBUG_VALUE: muladd:y <- undef
	.loc	8 12 17 is_stmt 1               # crypto_pwhash/argon2/blamka-round-avx512f.h:12:17 @[ crypto_pwhash/argon2/argon2-fill-block-avx512f.c:90:3240 ]
	vpmuludq	%zmm9, %zmm5, %zmm12
.Ltmp383:
	#DEBUG_VALUE: muladd:z <- $zmm12
	.loc	8 14 29                         # crypto_pwhash/argon2/blamka-round-avx512f.h:14:29 @[ crypto_pwhash/argon2/argon2-fill-block-avx512f.c:90:3240 ]
	vpaddq	%zmm9, %zmm5, %zmm9
.Ltmp384:
	.loc	8 14 53 is_stmt 0               # crypto_pwhash/argon2/blamka-round-avx512f.h:14:53 @[ crypto_pwhash/argon2/argon2-fill-block-avx512f.c:90:3240 ]
	vpaddq	%zmm12, %zmm12, %zmm12
.Ltmp385:
	.loc	8 14 12                         # crypto_pwhash/argon2/blamka-round-avx512f.h:14:12 @[ crypto_pwhash/argon2/argon2-fill-block-avx512f.c:90:3240 ]
	vpaddq	%zmm12, %zmm9, %zmm9
.Ltmp386:
	#DEBUG_VALUE: muladd:x <- $zmm11
	#DEBUG_VALUE: muladd:y <- undef
	.loc	8 12 17 is_stmt 1               # crypto_pwhash/argon2/blamka-round-avx512f.h:12:17 @[ crypto_pwhash/argon2/argon2-fill-block-avx512f.c:90:3303 ]
	vpmuludq	%zmm11, %zmm7, %zmm12
.Ltmp387:
	#DEBUG_VALUE: muladd:z <- $zmm12
	.loc	8 14 29                         # crypto_pwhash/argon2/blamka-round-avx512f.h:14:29 @[ crypto_pwhash/argon2/argon2-fill-block-avx512f.c:90:3303 ]
	vpaddq	%zmm11, %zmm7, %zmm11
.Ltmp388:
	.loc	8 14 53 is_stmt 0               # crypto_pwhash/argon2/blamka-round-avx512f.h:14:53 @[ crypto_pwhash/argon2/argon2-fill-block-avx512f.c:90:3303 ]
	vpaddq	%zmm12, %zmm12, %zmm12
.Ltmp389:
	.loc	8 14 12                         # crypto_pwhash/argon2/blamka-round-avx512f.h:14:12 @[ crypto_pwhash/argon2/argon2-fill-block-avx512f.c:90:3303 ]
	vpaddq	%zmm12, %zmm11, %zmm11
.Ltmp390:
	.loc	6 90 3366 is_stmt 1             # crypto_pwhash/argon2/argon2-fill-block-avx512f.c:90:3366
	vpxorq	%zmm4, %zmm9, %zmm4
	.loc	6 90 3439 is_stmt 0             # crypto_pwhash/argon2/argon2-fill-block-avx512f.c:90:3439
	vpxorq	%zmm6, %zmm11, %zmm6
	.loc	6 90 3522                       # crypto_pwhash/argon2/argon2-fill-block-avx512f.c:90:3522
	vprolq	$1, %zmm4, %zmm4
	.loc	6 90 3629                       # crypto_pwhash/argon2/argon2-fill-block-avx512f.c:90:3629
	vprolq	$1, %zmm6, %zmm6
.Ltmp391:
	.loc	6 90 3763                       # crypto_pwhash/argon2/argon2-fill-block-avx512f.c:90:3763
	vpermq	$57, %zmm4, %zmm4               # zmm4 = zmm4[1,2,3,0,5,6,7,4]
	.loc	6 90 3909                       # crypto_pwhash/argon2/argon2-fill-block-avx512f.c:90:3909
	vpermq	$57, %zmm6, %zmm6               # zmm6 = zmm6[1,2,3,0,5,6,7,4]
	.loc	6 90 4055                       # crypto_pwhash/argon2/argon2-fill-block-avx512f.c:90:4055
	vpermq	$78, %zmm9, %zmm9               # zmm9 = zmm9[2,3,0,1,6,7,4,5]
	.loc	6 90 4201                       # crypto_pwhash/argon2/argon2-fill-block-avx512f.c:90:4201
	vpermq	$78, %zmm11, %zmm11             # zmm11 = zmm11[2,3,0,1,6,7,4,5]
	.loc	6 90 4347                       # crypto_pwhash/argon2/argon2-fill-block-avx512f.c:90:4347
	vpermq	$147, %zmm5, %zmm5              # zmm5 = zmm5[3,0,1,2,7,4,5,6]
	.loc	6 90 4493                       # crypto_pwhash/argon2/argon2-fill-block-avx512f.c:90:4493
	vpermq	$147, %zmm7, %zmm7              # zmm7 = zmm7[3,0,1,2,7,4,5,6]
.Ltmp392:
	#DEBUG_VALUE: muladd:x <- $zmm8
	#DEBUG_VALUE: muladd:y <- $zmm4
	.loc	8 12 17 is_stmt 1               # crypto_pwhash/argon2/blamka-round-avx512f.h:12:17 @[ crypto_pwhash/argon2/argon2-fill-block-avx512f.c:90:4656 ]
	vpmuludq	%zmm8, %zmm4, %zmm12
.Ltmp393:
	#DEBUG_VALUE: muladd:z <- $zmm12
	.loc	8 14 29                         # crypto_pwhash/argon2/blamka-round-avx512f.h:14:29 @[ crypto_pwhash/argon2/argon2-fill-block-avx512f.c:90:4656 ]
	vpaddq	%zmm8, %zmm4, %zmm8
.Ltmp394:
	.loc	8 14 53 is_stmt 0               # crypto_pwhash/argon2/blamka-round-avx512f.h:14:53 @[ crypto_pwhash/argon2/argon2-fill-block-avx512f.c:90:4656 ]
	vpaddq	%zmm12, %zmm12, %zmm12
.Ltmp395:
	.loc	8 14 12                         # crypto_pwhash/argon2/blamka-round-avx512f.h:14:12 @[ crypto_pwhash/argon2/argon2-fill-block-avx512f.c:90:4656 ]
	vpaddq	%zmm12, %zmm8, %zmm8
.Ltmp396:
	#DEBUG_VALUE: muladd:x <- $zmm10
	#DEBUG_VALUE: muladd:y <- $zmm6
	.loc	8 12 17 is_stmt 1               # crypto_pwhash/argon2/blamka-round-avx512f.h:12:17 @[ crypto_pwhash/argon2/argon2-fill-block-avx512f.c:90:4719 ]
	vpmuludq	%zmm10, %zmm6, %zmm12
.Ltmp397:
	#DEBUG_VALUE: muladd:z <- $zmm12
	.loc	8 14 29                         # crypto_pwhash/argon2/blamka-round-avx512f.h:14:29 @[ crypto_pwhash/argon2/argon2-fill-block-avx512f.c:90:4719 ]
	vpaddq	%zmm10, %zmm6, %zmm10
.Ltmp398:
	.loc	8 14 53 is_stmt 0               # crypto_pwhash/argon2/blamka-round-avx512f.h:14:53 @[ crypto_pwhash/argon2/argon2-fill-block-avx512f.c:90:4719 ]
	vpaddq	%zmm12, %zmm12, %zmm12
.Ltmp399:
	.loc	8 14 12                         # crypto_pwhash/argon2/blamka-round-avx512f.h:14:12 @[ crypto_pwhash/argon2/argon2-fill-block-avx512f.c:90:4719 ]
	vpaddq	%zmm12, %zmm10, %zmm10
.Ltmp400:
	.loc	6 90 4782 is_stmt 1             # crypto_pwhash/argon2/argon2-fill-block-avx512f.c:90:4782
	vpxorq	%zmm5, %zmm8, %zmm5
	.loc	6 90 4855 is_stmt 0             # crypto_pwhash/argon2/argon2-fill-block-avx512f.c:90:4855
	vpxorq	%zmm7, %zmm10, %zmm7
	.loc	6 90 4938                       # crypto_pwhash/argon2/argon2-fill-block-avx512f.c:90:4938
	vprolq	$32, %zmm5, %zmm5
	.loc	6 90 5045                       # crypto_pwhash/argon2/argon2-fill-block-avx512f.c:90:5045
	vprolq	$32, %zmm7, %zmm7
.Ltmp401:
	#DEBUG_VALUE: muladd:y <- undef
	#DEBUG_VALUE: muladd:x <- $zmm9
	.loc	8 12 17 is_stmt 1               # crypto_pwhash/argon2/blamka-round-avx512f.h:12:17 @[ crypto_pwhash/argon2/argon2-fill-block-avx512f.c:90:5142 ]
	vpmuludq	%zmm9, %zmm5, %zmm12
.Ltmp402:
	#DEBUG_VALUE: muladd:z <- $zmm12
	.loc	8 14 29                         # crypto_pwhash/argon2/blamka-round-avx512f.h:14:29 @[ crypto_pwhash/argon2/argon2-fill-block-avx512f.c:90:5142 ]
	vpaddq	%zmm9, %zmm5, %zmm9
.Ltmp403:
	.loc	8 14 53 is_stmt 0               # crypto_pwhash/argon2/blamka-round-avx512f.h:14:53 @[ crypto_pwhash/argon2/argon2-fill-block-avx512f.c:90:5142 ]
	vpaddq	%zmm12, %zmm12, %zmm12
.Ltmp404:
	.loc	8 14 12                         # crypto_pwhash/argon2/blamka-round-avx512f.h:14:12 @[ crypto_pwhash/argon2/argon2-fill-block-avx512f.c:90:5142 ]
	vpaddq	%zmm12, %zmm9, %zmm9
.Ltmp405:
	#DEBUG_VALUE: muladd:y <- undef
	#DEBUG_VALUE: muladd:x <- $zmm11
	.loc	8 12 17 is_stmt 1               # crypto_pwhash/argon2/blamka-round-avx512f.h:12:17 @[ crypto_pwhash/argon2/argon2-fill-block-avx512f.c:90:5205 ]
	vpmuludq	%zmm11, %zmm7, %zmm12
.Ltmp406:
	#DEBUG_VALUE: muladd:z <- $zmm12
	.loc	8 14 29                         # crypto_pwhash/argon2/blamka-round-avx512f.h:14:29 @[ crypto_pwhash/argon2/argon2-fill-block-avx512f.c:90:5205 ]
	vpaddq	%zmm11, %zmm7, %zmm11
.Ltmp407:
	.loc	8 14 53 is_stmt 0               # crypto_pwhash/argon2/blamka-round-avx512f.h:14:53 @[ crypto_pwhash/argon2/argon2-fill-block-avx512f.c:90:5205 ]
	vpaddq	%zmm12, %zmm12, %zmm12
.Ltmp408:
	.loc	8 14 12                         # crypto_pwhash/argon2/blamka-round-avx512f.h:14:12 @[ crypto_pwhash/argon2/argon2-fill-block-avx512f.c:90:5205 ]
	vpaddq	%zmm12, %zmm11, %zmm11
.Ltmp409:
	.loc	6 90 5268 is_stmt 1             # crypto_pwhash/argon2/argon2-fill-block-avx512f.c:90:5268
	vpxorq	%zmm4, %zmm9, %zmm4
.Ltmp410:
	.loc	6 90 5341 is_stmt 0             # crypto_pwhash/argon2/argon2-fill-block-avx512f.c:90:5341
	vpxorq	%zmm6, %zmm11, %zmm6
.Ltmp411:
	.loc	6 90 5424                       # crypto_pwhash/argon2/argon2-fill-block-avx512f.c:90:5424
	vprolq	$40, %zmm4, %zmm4
	.loc	6 90 5531                       # crypto_pwhash/argon2/argon2-fill-block-avx512f.c:90:5531
	vprolq	$40, %zmm6, %zmm6
.Ltmp412:
	#DEBUG_VALUE: muladd:x <- $zmm8
	#DEBUG_VALUE: muladd:y <- undef
	.loc	8 12 17 is_stmt 1               # crypto_pwhash/argon2/blamka-round-avx512f.h:12:17 @[ crypto_pwhash/argon2/argon2-fill-block-avx512f.c:90:5655 ]
	vpmuludq	%zmm8, %zmm4, %zmm12
.Ltmp413:
	#DEBUG_VALUE: muladd:z <- $zmm12
	.loc	8 14 29                         # crypto_pwhash/argon2/blamka-round-avx512f.h:14:29 @[ crypto_pwhash/argon2/argon2-fill-block-avx512f.c:90:5655 ]
	vpaddq	%zmm8, %zmm4, %zmm8
.Ltmp414:
	.loc	8 14 53 is_stmt 0               # crypto_pwhash/argon2/blamka-round-avx512f.h:14:53 @[ crypto_pwhash/argon2/argon2-fill-block-avx512f.c:90:5655 ]
	vpaddq	%zmm12, %zmm12, %zmm12
.Ltmp415:
	.loc	8 14 12                         # crypto_pwhash/argon2/blamka-round-avx512f.h:14:12 @[ crypto_pwhash/argon2/argon2-fill-block-avx512f.c:90:5655 ]
	vpaddq	%zmm12, %zmm8, %zmm8
.Ltmp416:
	#DEBUG_VALUE: muladd:x <- $zmm10
	#DEBUG_VALUE: muladd:y <- undef
	.loc	8 12 17 is_stmt 1               # crypto_pwhash/argon2/blamka-round-avx512f.h:12:17 @[ crypto_pwhash/argon2/argon2-fill-block-avx512f.c:90:5718 ]
	vpmuludq	%zmm10, %zmm6, %zmm12
.Ltmp417:
	#DEBUG_VALUE: muladd:z <- $zmm12
	.loc	8 14 29                         # crypto_pwhash/argon2/blamka-round-avx512f.h:14:29 @[ crypto_pwhash/argon2/argon2-fill-block-avx512f.c:90:5718 ]
	vpaddq	%zmm10, %zmm6, %zmm10
.Ltmp418:
	.loc	8 14 53 is_stmt 0               # crypto_pwhash/argon2/blamka-round-avx512f.h:14:53 @[ crypto_pwhash/argon2/argon2-fill-block-avx512f.c:90:5718 ]
	vpaddq	%zmm12, %zmm12, %zmm12
.Ltmp419:
	.loc	8 14 12                         # crypto_pwhash/argon2/blamka-round-avx512f.h:14:12 @[ crypto_pwhash/argon2/argon2-fill-block-avx512f.c:90:5718 ]
	vpaddq	%zmm12, %zmm10, %zmm10
.Ltmp420:
	.loc	6 90 5781 is_stmt 1             # crypto_pwhash/argon2/argon2-fill-block-avx512f.c:90:5781
	vpxorq	%zmm5, %zmm8, %zmm5
	.loc	6 90 5854 is_stmt 0             # crypto_pwhash/argon2/argon2-fill-block-avx512f.c:90:5854
	vpxorq	%zmm7, %zmm10, %zmm7
	.loc	6 90 5937                       # crypto_pwhash/argon2/argon2-fill-block-avx512f.c:90:5937
	vprolq	$48, %zmm5, %zmm5
	.loc	6 90 6044                       # crypto_pwhash/argon2/argon2-fill-block-avx512f.c:90:6044
	vprolq	$48, %zmm7, %zmm7
.Ltmp421:
	#DEBUG_VALUE: muladd:x <- $zmm9
	#DEBUG_VALUE: muladd:y <- undef
	.loc	8 12 17 is_stmt 1               # crypto_pwhash/argon2/blamka-round-avx512f.h:12:17 @[ crypto_pwhash/argon2/argon2-fill-block-avx512f.c:90:6141 ]
	vpmuludq	%zmm9, %zmm5, %zmm12
.Ltmp422:
	#DEBUG_VALUE: muladd:z <- $zmm12
	.loc	8 14 29                         # crypto_pwhash/argon2/blamka-round-avx512f.h:14:29 @[ crypto_pwhash/argon2/argon2-fill-block-avx512f.c:90:6141 ]
	vpaddq	%zmm9, %zmm5, %zmm9
.Ltmp423:
	.loc	8 14 53 is_stmt 0               # crypto_pwhash/argon2/blamka-round-avx512f.h:14:53 @[ crypto_pwhash/argon2/argon2-fill-block-avx512f.c:90:6141 ]
	vpaddq	%zmm12, %zmm12, %zmm12
.Ltmp424:
	.loc	8 14 12                         # crypto_pwhash/argon2/blamka-round-avx512f.h:14:12 @[ crypto_pwhash/argon2/argon2-fill-block-avx512f.c:90:6141 ]
	vpaddq	%zmm12, %zmm9, %zmm9
.Ltmp425:
	#DEBUG_VALUE: muladd:x <- $zmm11
	#DEBUG_VALUE: muladd:y <- undef
	.loc	8 12 17 is_stmt 1               # crypto_pwhash/argon2/blamka-round-avx512f.h:12:17 @[ crypto_pwhash/argon2/argon2-fill-block-avx512f.c:90:6204 ]
	vpmuludq	%zmm11, %zmm7, %zmm12
.Ltmp426:
	#DEBUG_VALUE: muladd:z <- $zmm12
	.loc	8 14 29                         # crypto_pwhash/argon2/blamka-round-avx512f.h:14:29 @[ crypto_pwhash/argon2/argon2-fill-block-avx512f.c:90:6204 ]
	vpaddq	%zmm11, %zmm7, %zmm11
.Ltmp427:
	.loc	8 14 53 is_stmt 0               # crypto_pwhash/argon2/blamka-round-avx512f.h:14:53 @[ crypto_pwhash/argon2/argon2-fill-block-avx512f.c:90:6204 ]
	vpaddq	%zmm12, %zmm12, %zmm12
.Ltmp428:
	.loc	8 14 12                         # crypto_pwhash/argon2/blamka-round-avx512f.h:14:12 @[ crypto_pwhash/argon2/argon2-fill-block-avx512f.c:90:6204 ]
	vpaddq	%zmm12, %zmm11, %zmm11
.Ltmp429:
	.loc	6 90 6267 is_stmt 1             # crypto_pwhash/argon2/argon2-fill-block-avx512f.c:90:6267
	vpxorq	%zmm4, %zmm9, %zmm4
	.loc	6 90 6340 is_stmt 0             # crypto_pwhash/argon2/argon2-fill-block-avx512f.c:90:6340
	vpxorq	%zmm6, %zmm11, %zmm6
	.loc	6 90 6423                       # crypto_pwhash/argon2/argon2-fill-block-avx512f.c:90:6423
	vprolq	$1, %zmm4, %zmm4
	.loc	6 90 6530                       # crypto_pwhash/argon2/argon2-fill-block-avx512f.c:90:6530
	vprolq	$1, %zmm6, %zmm6
.Ltmp430:
	.loc	6 90 7591                       # crypto_pwhash/argon2/argon2-fill-block-avx512f.c:90:7591
	vmovdqa64	%zmm8, %zmm12
	vpermt2q	%zmm4, %zmm0, %zmm12
.Ltmp431:
	#DEBUG_VALUE: t0 <- $zmm12
	.loc	6 90 7761                       # crypto_pwhash/argon2/argon2-fill-block-avx512f.c:90:7761
	vpermt2q	%zmm4, %zmm1, %zmm8
.Ltmp432:
	#DEBUG_VALUE: t1 <- $zmm8
	.loc	6 90 7933                       # crypto_pwhash/argon2/argon2-fill-block-avx512f.c:90:7933
	vmovdqa64	%zmm12, (%rdi,%rcx)
	.loc	6 90 7956                       # crypto_pwhash/argon2/argon2-fill-block-avx512f.c:90:7956
	vmovdqa64	%zmm8, 128(%rdi,%rcx)
.Ltmp433:
	.loc	6 90 8019                       # crypto_pwhash/argon2/argon2-fill-block-avx512f.c:90:8019
	vmovdqa64	%zmm9, %zmm4
	vpermt2q	%zmm5, %zmm2, %zmm4
.Ltmp434:
	#DEBUG_VALUE: t0 <- $zmm4
	.loc	6 90 8189                       # crypto_pwhash/argon2/argon2-fill-block-avx512f.c:90:8189
	vpermt2q	%zmm5, %zmm3, %zmm9
.Ltmp435:
	#DEBUG_VALUE: t1 <- $zmm9
	.loc	6 90 8361                       # crypto_pwhash/argon2/argon2-fill-block-avx512f.c:90:8361
	vmovdqa64	%zmm4, 64(%rdi,%rcx)
	.loc	6 90 8384                       # crypto_pwhash/argon2/argon2-fill-block-avx512f.c:90:8384
	vmovdqa64	%zmm9, 192(%rdi,%rcx)
.Ltmp436:
	.loc	6 90 8447                       # crypto_pwhash/argon2/argon2-fill-block-avx512f.c:90:8447
	vmovdqa64	%zmm10, %zmm4
.Ltmp437:
	vpermt2q	%zmm6, %zmm0, %zmm4
.Ltmp438:
	#DEBUG_VALUE: t0 <- $zmm4
	.loc	6 90 8617                       # crypto_pwhash/argon2/argon2-fill-block-avx512f.c:90:8617
	vpermt2q	%zmm6, %zmm1, %zmm10
.Ltmp439:
	#DEBUG_VALUE: t1 <- $zmm10
	.loc	6 90 8789                       # crypto_pwhash/argon2/argon2-fill-block-avx512f.c:90:8789
	vmovdqa64	%zmm4, 256(%rdi,%rcx)
	.loc	6 90 8812                       # crypto_pwhash/argon2/argon2-fill-block-avx512f.c:90:8812
	vmovdqa64	%zmm10, 384(%rdi,%rcx)
.Ltmp440:
	.loc	6 90 8875                       # crypto_pwhash/argon2/argon2-fill-block-avx512f.c:90:8875
	vmovdqa64	%zmm11, %zmm4
.Ltmp441:
	vpermt2q	%zmm7, %zmm2, %zmm4
.Ltmp442:
	#DEBUG_VALUE: t0 <- $zmm4
	.loc	6 90 9045                       # crypto_pwhash/argon2/argon2-fill-block-avx512f.c:90:9045
	vpermt2q	%zmm7, %zmm3, %zmm11
.Ltmp443:
	#DEBUG_VALUE: t1 <- $zmm11
	.loc	6 90 9217                       # crypto_pwhash/argon2/argon2-fill-block-avx512f.c:90:9217
	vmovdqa64	%zmm4, 320(%rdi,%rcx)
	.loc	6 90 9240                       # crypto_pwhash/argon2/argon2-fill-block-avx512f.c:90:9240
	vmovdqa64	%zmm11, 448(%rdi,%rcx)
	movl	$512, %ecx                      # imm = 0x200
.Ltmp444:
	#DEBUG_VALUE: fill_block_with_xor:i <- [DW_OP_plus_uconst 1, DW_OP_stack_value] undef
	.loc	6 89 5 is_stmt 1                # crypto_pwhash/argon2/argon2-fill-block-avx512f.c:89:5
	testb	$1, %al
	movl	$0, %eax
	jne	.LBB1_3
.Ltmp445:
# %bb.4:                                # %.preheader923.preheader
	#DEBUG_VALUE: fill_block_with_xor:state <- $rdi
	#DEBUG_VALUE: fill_block_with_xor:ref_block <- $rsi
	#DEBUG_VALUE: fill_block_with_xor:next_block <- $rdx
	#DEBUG_VALUE: t0 <- $zmm12
	#DEBUG_VALUE: t1 <- $zmm8
	#DEBUG_VALUE: t1 <- $zmm9
	#DEBUG_VALUE: t1 <- $zmm10
	#DEBUG_VALUE: t0 <- $zmm4
	#DEBUG_VALUE: t1 <- $zmm11
	.loc	6 0 5 is_stmt 0                 # crypto_pwhash/argon2/argon2-fill-block-avx512f.c:0:5
	movb	$1, %al
	xorl	%ecx, %ecx
	vmovdqa64	.LCPI1_4(%rip), %zmm0   # zmm0 = [0,1,8,9,2,3,10,11]
	vmovdqa64	.LCPI1_5(%rip), %zmm1   # zmm1 = [4,5,12,13,6,7,14,15]
	vmovdqa64	.LCPI1_6(%rip), %zmm2   # zmm2 = [3,0,7,4,11,8,15,12]
	vmovdqa64	.LCPI1_7(%rip), %zmm3   # zmm3 = [1,2,5,6,9,10,13,14]
.Ltmp446:
	.p2align	4
.LBB1_5:                                # %.preheader923
                                        # =>This Inner Loop Header: Depth=1
	#DEBUG_VALUE: fill_block_with_xor:state <- $rdi
	#DEBUG_VALUE: fill_block_with_xor:ref_block <- $rsi
	#DEBUG_VALUE: fill_block_with_xor:next_block <- $rdx
	#DEBUG_VALUE: fill_block_with_xor:i <- $rcx
	.loc	6 96 99 is_stmt 1               # crypto_pwhash/argon2/argon2-fill-block-avx512f.c:96:99
	shlq	$6, %rcx
.Ltmp447:
	#DEBUG_VALUE: t0 <- undef
	#DEBUG_VALUE: t1 <- undef
	vmovdqa64	(%rdi,%rcx), %zmm4
	.loc	6 96 136 is_stmt 0              # crypto_pwhash/argon2/argon2-fill-block-avx512f.c:96:136
	vmovdqa64	128(%rdi,%rcx), %zmm5
.Ltmp448:
	.loc	6 96 781                        # crypto_pwhash/argon2/argon2-fill-block-avx512f.c:96:781
	vmovdqa64	256(%rdi,%rcx), %zmm6
	.loc	6 96 818                        # crypto_pwhash/argon2/argon2-fill-block-avx512f.c:96:818
	vmovdqa64	384(%rdi,%rcx), %zmm7
.Ltmp449:
	.loc	6 96 466                        # crypto_pwhash/argon2/argon2-fill-block-avx512f.c:96:466
	vmovdqa64	%zmm4, %zmm8
	vpermt2q	%zmm5, %zmm0, %zmm8
.Ltmp450:
	#DEBUG_VALUE: muladd:x <- $zmm8
	.loc	6 96 580                        # crypto_pwhash/argon2/argon2-fill-block-avx512f.c:96:580
	vpermt2q	%zmm5, %zmm1, %zmm4
.Ltmp451:
	#DEBUG_VALUE: muladd:x <- $zmm4
	#DEBUG_VALUE: t0 <- undef
	#DEBUG_VALUE: t1 <- undef
	.loc	6 96 1148                       # crypto_pwhash/argon2/argon2-fill-block-avx512f.c:96:1148
	vmovdqa64	%zmm6, %zmm5
	vpermt2q	%zmm7, %zmm0, %zmm5
	.loc	6 96 1262                       # crypto_pwhash/argon2/argon2-fill-block-avx512f.c:96:1262
	vpermt2q	%zmm7, %zmm1, %zmm6
.Ltmp452:
	.loc	6 96 1463                       # crypto_pwhash/argon2/argon2-fill-block-avx512f.c:96:1463
	vmovdqa64	512(%rdi,%rcx), %zmm7
	.loc	6 96 1500                       # crypto_pwhash/argon2/argon2-fill-block-avx512f.c:96:1500
	vmovdqa64	640(%rdi,%rcx), %zmm9
.Ltmp453:
	#DEBUG_VALUE: t0 <- undef
	#DEBUG_VALUE: t1 <- undef
	.loc	6 96 1830                       # crypto_pwhash/argon2/argon2-fill-block-avx512f.c:96:1830
	vmovdqa64	%zmm7, %zmm10
	vpermt2q	%zmm9, %zmm0, %zmm10
	.loc	6 96 1944                       # crypto_pwhash/argon2/argon2-fill-block-avx512f.c:96:1944
	vpermt2q	%zmm9, %zmm1, %zmm7
.Ltmp454:
	.loc	6 96 2145                       # crypto_pwhash/argon2/argon2-fill-block-avx512f.c:96:2145
	vmovdqa64	768(%rdi,%rcx), %zmm9
	.loc	6 96 2182                       # crypto_pwhash/argon2/argon2-fill-block-avx512f.c:96:2182
	vmovdqa64	896(%rdi,%rcx), %zmm11
.Ltmp455:
	#DEBUG_VALUE: t0 <- undef
	#DEBUG_VALUE: t1 <- undef
	.loc	6 96 2512                       # crypto_pwhash/argon2/argon2-fill-block-avx512f.c:96:2512
	vmovdqa64	%zmm9, %zmm12
	vpermt2q	%zmm11, %zmm0, %zmm12
	.loc	6 96 2626                       # crypto_pwhash/argon2/argon2-fill-block-avx512f.c:96:2626
	vpermt2q	%zmm11, %zmm1, %zmm9
.Ltmp456:
	#DEBUG_VALUE: muladd:y <- $zmm5
	.loc	8 12 17 is_stmt 1               # crypto_pwhash/argon2/blamka-round-avx512f.h:12:17 @[ crypto_pwhash/argon2/argon2-fill-block-avx512f.c:96:2771 ]
	vpmuludq	%zmm8, %zmm5, %zmm11
.Ltmp457:
	#DEBUG_VALUE: muladd:z <- $zmm11
	.loc	8 14 29                         # crypto_pwhash/argon2/blamka-round-avx512f.h:14:29 @[ crypto_pwhash/argon2/argon2-fill-block-avx512f.c:96:2771 ]
	vpaddq	%zmm8, %zmm5, %zmm8
.Ltmp458:
	.loc	8 14 53 is_stmt 0               # crypto_pwhash/argon2/blamka-round-avx512f.h:14:53 @[ crypto_pwhash/argon2/argon2-fill-block-avx512f.c:96:2771 ]
	vpaddq	%zmm11, %zmm11, %zmm11
.Ltmp459:
	.loc	8 14 12                         # crypto_pwhash/argon2/blamka-round-avx512f.h:14:12 @[ crypto_pwhash/argon2/argon2-fill-block-avx512f.c:96:2771 ]
	vpaddq	%zmm11, %zmm8, %zmm8
.Ltmp460:
	#DEBUG_VALUE: muladd:y <- $zmm6
	.loc	8 12 17 is_stmt 1               # crypto_pwhash/argon2/blamka-round-avx512f.h:12:17 @[ crypto_pwhash/argon2/argon2-fill-block-avx512f.c:96:2834 ]
	vpmuludq	%zmm4, %zmm6, %zmm11
.Ltmp461:
	#DEBUG_VALUE: muladd:z <- $zmm11
	.loc	8 14 29                         # crypto_pwhash/argon2/blamka-round-avx512f.h:14:29 @[ crypto_pwhash/argon2/argon2-fill-block-avx512f.c:96:2834 ]
	vpaddq	%zmm4, %zmm6, %zmm4
.Ltmp462:
	.loc	8 14 53 is_stmt 0               # crypto_pwhash/argon2/blamka-round-avx512f.h:14:53 @[ crypto_pwhash/argon2/argon2-fill-block-avx512f.c:96:2834 ]
	vpaddq	%zmm11, %zmm11, %zmm11
.Ltmp463:
	.loc	8 14 12                         # crypto_pwhash/argon2/blamka-round-avx512f.h:14:12 @[ crypto_pwhash/argon2/argon2-fill-block-avx512f.c:96:2834 ]
	vpaddq	%zmm11, %zmm4, %zmm4
.Ltmp464:
	.loc	6 96 2897 is_stmt 1             # crypto_pwhash/argon2/argon2-fill-block-avx512f.c:96:2897
	vpxorq	%zmm8, %zmm12, %zmm11
	.loc	6 96 2970 is_stmt 0             # crypto_pwhash/argon2/argon2-fill-block-avx512f.c:96:2970
	vpxorq	%zmm4, %zmm9, %zmm9
	.loc	6 96 3053                       # crypto_pwhash/argon2/argon2-fill-block-avx512f.c:96:3053
	vprolq	$32, %zmm11, %zmm11
	.loc	6 96 3160                       # crypto_pwhash/argon2/argon2-fill-block-avx512f.c:96:3160
	vprolq	$32, %zmm9, %zmm9
.Ltmp465:
	#DEBUG_VALUE: muladd:y <- undef
	#DEBUG_VALUE: muladd:x <- $zmm10
	.loc	8 12 17 is_stmt 1               # crypto_pwhash/argon2/blamka-round-avx512f.h:12:17 @[ crypto_pwhash/argon2/argon2-fill-block-avx512f.c:96:3257 ]
	vpmuludq	%zmm10, %zmm11, %zmm12
.Ltmp466:
	#DEBUG_VALUE: muladd:z <- $zmm12
	.loc	8 14 29                         # crypto_pwhash/argon2/blamka-round-avx512f.h:14:29 @[ crypto_pwhash/argon2/argon2-fill-block-avx512f.c:96:3257 ]
	vpaddq	%zmm10, %zmm11, %zmm10
.Ltmp467:
	.loc	8 14 53 is_stmt 0               # crypto_pwhash/argon2/blamka-round-avx512f.h:14:53 @[ crypto_pwhash/argon2/argon2-fill-block-avx512f.c:96:3257 ]
	vpaddq	%zmm12, %zmm12, %zmm12
.Ltmp468:
	.loc	8 14 12                         # crypto_pwhash/argon2/blamka-round-avx512f.h:14:12 @[ crypto_pwhash/argon2/argon2-fill-block-avx512f.c:96:3257 ]
	vpaddq	%zmm12, %zmm10, %zmm10
.Ltmp469:
	#DEBUG_VALUE: muladd:y <- undef
	#DEBUG_VALUE: muladd:x <- $zmm7
	.loc	8 12 17 is_stmt 1               # crypto_pwhash/argon2/blamka-round-avx512f.h:12:17 @[ crypto_pwhash/argon2/argon2-fill-block-avx512f.c:96:3320 ]
	vpmuludq	%zmm7, %zmm9, %zmm12
.Ltmp470:
	#DEBUG_VALUE: muladd:z <- $zmm12
	.loc	8 14 29                         # crypto_pwhash/argon2/blamka-round-avx512f.h:14:29 @[ crypto_pwhash/argon2/argon2-fill-block-avx512f.c:96:3320 ]
	vpaddq	%zmm7, %zmm9, %zmm7
.Ltmp471:
	.loc	8 14 53 is_stmt 0               # crypto_pwhash/argon2/blamka-round-avx512f.h:14:53 @[ crypto_pwhash/argon2/argon2-fill-block-avx512f.c:96:3320 ]
	vpaddq	%zmm12, %zmm12, %zmm12
.Ltmp472:
	.loc	8 14 12                         # crypto_pwhash/argon2/blamka-round-avx512f.h:14:12 @[ crypto_pwhash/argon2/argon2-fill-block-avx512f.c:96:3320 ]
	vpaddq	%zmm12, %zmm7, %zmm7
.Ltmp473:
	.loc	6 96 3383 is_stmt 1             # crypto_pwhash/argon2/argon2-fill-block-avx512f.c:96:3383
	vpxorq	%zmm5, %zmm10, %zmm5
.Ltmp474:
	.loc	6 96 3456 is_stmt 0             # crypto_pwhash/argon2/argon2-fill-block-avx512f.c:96:3456
	vpxorq	%zmm6, %zmm7, %zmm6
.Ltmp475:
	.loc	6 96 3539                       # crypto_pwhash/argon2/argon2-fill-block-avx512f.c:96:3539
	vprolq	$40, %zmm5, %zmm5
	.loc	6 96 3646                       # crypto_pwhash/argon2/argon2-fill-block-avx512f.c:96:3646
	vprolq	$40, %zmm6, %zmm6
.Ltmp476:
	#DEBUG_VALUE: muladd:x <- $zmm8
	#DEBUG_VALUE: muladd:y <- undef
	.loc	8 12 17 is_stmt 1               # crypto_pwhash/argon2/blamka-round-avx512f.h:12:17 @[ crypto_pwhash/argon2/argon2-fill-block-avx512f.c:96:3770 ]
	vpmuludq	%zmm8, %zmm5, %zmm12
.Ltmp477:
	#DEBUG_VALUE: muladd:z <- $zmm12
	.loc	8 14 29                         # crypto_pwhash/argon2/blamka-round-avx512f.h:14:29 @[ crypto_pwhash/argon2/argon2-fill-block-avx512f.c:96:3770 ]
	vpaddq	%zmm8, %zmm5, %zmm8
.Ltmp478:
	.loc	8 14 53 is_stmt 0               # crypto_pwhash/argon2/blamka-round-avx512f.h:14:53 @[ crypto_pwhash/argon2/argon2-fill-block-avx512f.c:96:3770 ]
	vpaddq	%zmm12, %zmm12, %zmm12
.Ltmp479:
	.loc	8 14 12                         # crypto_pwhash/argon2/blamka-round-avx512f.h:14:12 @[ crypto_pwhash/argon2/argon2-fill-block-avx512f.c:96:3770 ]
	vpaddq	%zmm12, %zmm8, %zmm8
.Ltmp480:
	#DEBUG_VALUE: muladd:x <- $zmm4
	#DEBUG_VALUE: muladd:y <- undef
	.loc	8 12 17 is_stmt 1               # crypto_pwhash/argon2/blamka-round-avx512f.h:12:17 @[ crypto_pwhash/argon2/argon2-fill-block-avx512f.c:96:3833 ]
	vpmuludq	%zmm4, %zmm6, %zmm12
.Ltmp481:
	#DEBUG_VALUE: muladd:z <- $zmm12
	.loc	8 14 29                         # crypto_pwhash/argon2/blamka-round-avx512f.h:14:29 @[ crypto_pwhash/argon2/argon2-fill-block-avx512f.c:96:3833 ]
	vpaddq	%zmm4, %zmm6, %zmm4
.Ltmp482:
	.loc	8 14 53 is_stmt 0               # crypto_pwhash/argon2/blamka-round-avx512f.h:14:53 @[ crypto_pwhash/argon2/argon2-fill-block-avx512f.c:96:3833 ]
	vpaddq	%zmm12, %zmm12, %zmm12
.Ltmp483:
	.loc	8 14 12                         # crypto_pwhash/argon2/blamka-round-avx512f.h:14:12 @[ crypto_pwhash/argon2/argon2-fill-block-avx512f.c:96:3833 ]
	vpaddq	%zmm12, %zmm4, %zmm4
.Ltmp484:
	.loc	6 96 3896 is_stmt 1             # crypto_pwhash/argon2/argon2-fill-block-avx512f.c:96:3896
	vpxorq	%zmm11, %zmm8, %zmm11
	.loc	6 96 3969 is_stmt 0             # crypto_pwhash/argon2/argon2-fill-block-avx512f.c:96:3969
	vpxorq	%zmm9, %zmm4, %zmm9
	.loc	6 96 4052                       # crypto_pwhash/argon2/argon2-fill-block-avx512f.c:96:4052
	vprolq	$48, %zmm11, %zmm11
	.loc	6 96 4159                       # crypto_pwhash/argon2/argon2-fill-block-avx512f.c:96:4159
	vprolq	$48, %zmm9, %zmm9
.Ltmp485:
	#DEBUG_VALUE: muladd:x <- $zmm10
	#DEBUG_VALUE: muladd:y <- undef
	.loc	8 12 17 is_stmt 1               # crypto_pwhash/argon2/blamka-round-avx512f.h:12:17 @[ crypto_pwhash/argon2/argon2-fill-block-avx512f.c:96:4256 ]
	vpmuludq	%zmm10, %zmm11, %zmm12
.Ltmp486:
	#DEBUG_VALUE: muladd:z <- $zmm12
	.loc	8 14 29                         # crypto_pwhash/argon2/blamka-round-avx512f.h:14:29 @[ crypto_pwhash/argon2/argon2-fill-block-avx512f.c:96:4256 ]
	vpaddq	%zmm10, %zmm11, %zmm10
.Ltmp487:
	.loc	8 14 53 is_stmt 0               # crypto_pwhash/argon2/blamka-round-avx512f.h:14:53 @[ crypto_pwhash/argon2/argon2-fill-block-avx512f.c:96:4256 ]
	vpaddq	%zmm12, %zmm12, %zmm12
.Ltmp488:
	.loc	8 14 12                         # crypto_pwhash/argon2/blamka-round-avx512f.h:14:12 @[ crypto_pwhash/argon2/argon2-fill-block-avx512f.c:96:4256 ]
	vpaddq	%zmm12, %zmm10, %zmm10
.Ltmp489:
	#DEBUG_VALUE: muladd:x <- $zmm7
	#DEBUG_VALUE: muladd:y <- undef
	.loc	8 12 17 is_stmt 1               # crypto_pwhash/argon2/blamka-round-avx512f.h:12:17 @[ crypto_pwhash/argon2/argon2-fill-block-avx512f.c:96:4319 ]
	vpmuludq	%zmm7, %zmm9, %zmm12
.Ltmp490:
	#DEBUG_VALUE: muladd:z <- $zmm12
	.loc	8 14 29                         # crypto_pwhash/argon2/blamka-round-avx512f.h:14:29 @[ crypto_pwhash/argon2/argon2-fill-block-avx512f.c:96:4319 ]
	vpaddq	%zmm7, %zmm9, %zmm7
.Ltmp491:
	.loc	8 14 53 is_stmt 0               # crypto_pwhash/argon2/blamka-round-avx512f.h:14:53 @[ crypto_pwhash/argon2/argon2-fill-block-avx512f.c:96:4319 ]
	vpaddq	%zmm12, %zmm12, %zmm12
.Ltmp492:
	.loc	8 14 12                         # crypto_pwhash/argon2/blamka-round-avx512f.h:14:12 @[ crypto_pwhash/argon2/argon2-fill-block-avx512f.c:96:4319 ]
	vpaddq	%zmm12, %zmm7, %zmm7
.Ltmp493:
	.loc	6 96 4382 is_stmt 1             # crypto_pwhash/argon2/argon2-fill-block-avx512f.c:96:4382
	vpxorq	%zmm5, %zmm10, %zmm5
	.loc	6 96 4455 is_stmt 0             # crypto_pwhash/argon2/argon2-fill-block-avx512f.c:96:4455
	vpxorq	%zmm6, %zmm7, %zmm6
	.loc	6 96 4538                       # crypto_pwhash/argon2/argon2-fill-block-avx512f.c:96:4538
	vprolq	$1, %zmm5, %zmm5
	.loc	6 96 4645                       # crypto_pwhash/argon2/argon2-fill-block-avx512f.c:96:4645
	vprolq	$1, %zmm6, %zmm6
.Ltmp494:
	.loc	6 96 4779                       # crypto_pwhash/argon2/argon2-fill-block-avx512f.c:96:4779
	vpermq	$57, %zmm5, %zmm5               # zmm5 = zmm5[1,2,3,0,5,6,7,4]
	.loc	6 96 4925                       # crypto_pwhash/argon2/argon2-fill-block-avx512f.c:96:4925
	vpermq	$57, %zmm6, %zmm6               # zmm6 = zmm6[1,2,3,0,5,6,7,4]
	.loc	6 96 5071                       # crypto_pwhash/argon2/argon2-fill-block-avx512f.c:96:5071
	vpermq	$78, %zmm10, %zmm10             # zmm10 = zmm10[2,3,0,1,6,7,4,5]
	.loc	6 96 5217                       # crypto_pwhash/argon2/argon2-fill-block-avx512f.c:96:5217
	vpermq	$78, %zmm7, %zmm7               # zmm7 = zmm7[2,3,0,1,6,7,4,5]
	.loc	6 96 5363                       # crypto_pwhash/argon2/argon2-fill-block-avx512f.c:96:5363
	vpermq	$147, %zmm11, %zmm11            # zmm11 = zmm11[3,0,1,2,7,4,5,6]
	.loc	6 96 5509                       # crypto_pwhash/argon2/argon2-fill-block-avx512f.c:96:5509
	vpermq	$147, %zmm9, %zmm9              # zmm9 = zmm9[3,0,1,2,7,4,5,6]
.Ltmp495:
	#DEBUG_VALUE: muladd:x <- $zmm8
	#DEBUG_VALUE: muladd:y <- $zmm5
	.loc	8 12 17 is_stmt 1               # crypto_pwhash/argon2/blamka-round-avx512f.h:12:17 @[ crypto_pwhash/argon2/argon2-fill-block-avx512f.c:96:5672 ]
	vpmuludq	%zmm8, %zmm5, %zmm12
.Ltmp496:
	#DEBUG_VALUE: muladd:z <- $zmm12
	.loc	8 14 29                         # crypto_pwhash/argon2/blamka-round-avx512f.h:14:29 @[ crypto_pwhash/argon2/argon2-fill-block-avx512f.c:96:5672 ]
	vpaddq	%zmm8, %zmm5, %zmm8
.Ltmp497:
	.loc	8 14 53 is_stmt 0               # crypto_pwhash/argon2/blamka-round-avx512f.h:14:53 @[ crypto_pwhash/argon2/argon2-fill-block-avx512f.c:96:5672 ]
	vpaddq	%zmm12, %zmm12, %zmm12
.Ltmp498:
	.loc	8 14 12                         # crypto_pwhash/argon2/blamka-round-avx512f.h:14:12 @[ crypto_pwhash/argon2/argon2-fill-block-avx512f.c:96:5672 ]
	vpaddq	%zmm12, %zmm8, %zmm8
.Ltmp499:
	#DEBUG_VALUE: muladd:x <- $zmm4
	#DEBUG_VALUE: muladd:y <- $zmm6
	.loc	8 12 17 is_stmt 1               # crypto_pwhash/argon2/blamka-round-avx512f.h:12:17 @[ crypto_pwhash/argon2/argon2-fill-block-avx512f.c:96:5735 ]
	vpmuludq	%zmm4, %zmm6, %zmm12
.Ltmp500:
	#DEBUG_VALUE: muladd:z <- $zmm12
	.loc	8 14 29                         # crypto_pwhash/argon2/blamka-round-avx512f.h:14:29 @[ crypto_pwhash/argon2/argon2-fill-block-avx512f.c:96:5735 ]
	vpaddq	%zmm4, %zmm6, %zmm4
.Ltmp501:
	.loc	8 14 53 is_stmt 0               # crypto_pwhash/argon2/blamka-round-avx512f.h:14:53 @[ crypto_pwhash/argon2/argon2-fill-block-avx512f.c:96:5735 ]
	vpaddq	%zmm12, %zmm12, %zmm12
.Ltmp502:
	.loc	8 14 12                         # crypto_pwhash/argon2/blamka-round-avx512f.h:14:12 @[ crypto_pwhash/argon2/argon2-fill-block-avx512f.c:96:5735 ]
	vpaddq	%zmm12, %zmm4, %zmm4
.Ltmp503:
	.loc	6 96 5798 is_stmt 1             # crypto_pwhash/argon2/argon2-fill-block-avx512f.c:96:5798
	vpxorq	%zmm11, %zmm8, %zmm11
	.loc	6 96 5871 is_stmt 0             # crypto_pwhash/argon2/argon2-fill-block-avx512f.c:96:5871
	vpxorq	%zmm9, %zmm4, %zmm9
	.loc	6 96 5954                       # crypto_pwhash/argon2/argon2-fill-block-avx512f.c:96:5954
	vprolq	$32, %zmm11, %zmm11
	.loc	6 96 6061                       # crypto_pwhash/argon2/argon2-fill-block-avx512f.c:96:6061
	vprolq	$32, %zmm9, %zmm9
.Ltmp504:
	#DEBUG_VALUE: muladd:y <- undef
	#DEBUG_VALUE: muladd:x <- $zmm10
	.loc	8 12 17 is_stmt 1               # crypto_pwhash/argon2/blamka-round-avx512f.h:12:17 @[ crypto_pwhash/argon2/argon2-fill-block-avx512f.c:96:6158 ]
	vpmuludq	%zmm10, %zmm11, %zmm12
.Ltmp505:
	#DEBUG_VALUE: muladd:z <- $zmm12
	.loc	8 14 29                         # crypto_pwhash/argon2/blamka-round-avx512f.h:14:29 @[ crypto_pwhash/argon2/argon2-fill-block-avx512f.c:96:6158 ]
	vpaddq	%zmm10, %zmm11, %zmm10
.Ltmp506:
	.loc	8 14 53 is_stmt 0               # crypto_pwhash/argon2/blamka-round-avx512f.h:14:53 @[ crypto_pwhash/argon2/argon2-fill-block-avx512f.c:96:6158 ]
	vpaddq	%zmm12, %zmm12, %zmm12
.Ltmp507:
	.loc	8 14 12                         # crypto_pwhash/argon2/blamka-round-avx512f.h:14:12 @[ crypto_pwhash/argon2/argon2-fill-block-avx512f.c:96:6158 ]
	vpaddq	%zmm12, %zmm10, %zmm10
.Ltmp508:
	#DEBUG_VALUE: muladd:y <- undef
	#DEBUG_VALUE: muladd:x <- $zmm7
	.loc	8 12 17 is_stmt 1               # crypto_pwhash/argon2/blamka-round-avx512f.h:12:17 @[ crypto_pwhash/argon2/argon2-fill-block-avx512f.c:96:6221 ]
	vpmuludq	%zmm7, %zmm9, %zmm12
.Ltmp509:
	#DEBUG_VALUE: muladd:z <- $zmm12
	.loc	8 14 29                         # crypto_pwhash/argon2/blamka-round-avx512f.h:14:29 @[ crypto_pwhash/argon2/argon2-fill-block-avx512f.c:96:6221 ]
	vpaddq	%zmm7, %zmm9, %zmm7
.Ltmp510:
	.loc	8 14 53 is_stmt 0               # crypto_pwhash/argon2/blamka-round-avx512f.h:14:53 @[ crypto_pwhash/argon2/argon2-fill-block-avx512f.c:96:6221 ]
	vpaddq	%zmm12, %zmm12, %zmm12
.Ltmp511:
	.loc	8 14 12                         # crypto_pwhash/argon2/blamka-round-avx512f.h:14:12 @[ crypto_pwhash/argon2/argon2-fill-block-avx512f.c:96:6221 ]
	vpaddq	%zmm12, %zmm7, %zmm7
.Ltmp512:
	.loc	6 96 6284 is_stmt 1             # crypto_pwhash/argon2/argon2-fill-block-avx512f.c:96:6284
	vpxorq	%zmm5, %zmm10, %zmm5
.Ltmp513:
	.loc	6 96 6357 is_stmt 0             # crypto_pwhash/argon2/argon2-fill-block-avx512f.c:96:6357
	vpxorq	%zmm6, %zmm7, %zmm6
.Ltmp514:
	.loc	6 96 6440                       # crypto_pwhash/argon2/argon2-fill-block-avx512f.c:96:6440
	vprolq	$40, %zmm5, %zmm5
	.loc	6 96 6547                       # crypto_pwhash/argon2/argon2-fill-block-avx512f.c:96:6547
	vprolq	$40, %zmm6, %zmm6
.Ltmp515:
	#DEBUG_VALUE: muladd:x <- $zmm8
	#DEBUG_VALUE: muladd:y <- undef
	.loc	8 12 17 is_stmt 1               # crypto_pwhash/argon2/blamka-round-avx512f.h:12:17 @[ crypto_pwhash/argon2/argon2-fill-block-avx512f.c:96:6671 ]
	vpmuludq	%zmm8, %zmm5, %zmm12
.Ltmp516:
	#DEBUG_VALUE: muladd:z <- $zmm12
	.loc	8 14 29                         # crypto_pwhash/argon2/blamka-round-avx512f.h:14:29 @[ crypto_pwhash/argon2/argon2-fill-block-avx512f.c:96:6671 ]
	vpaddq	%zmm8, %zmm5, %zmm8
.Ltmp517:
	.loc	8 14 53 is_stmt 0               # crypto_pwhash/argon2/blamka-round-avx512f.h:14:53 @[ crypto_pwhash/argon2/argon2-fill-block-avx512f.c:96:6671 ]
	vpaddq	%zmm12, %zmm12, %zmm12
.Ltmp518:
	.loc	8 14 12                         # crypto_pwhash/argon2/blamka-round-avx512f.h:14:12 @[ crypto_pwhash/argon2/argon2-fill-block-avx512f.c:96:6671 ]
	vpaddq	%zmm12, %zmm8, %zmm8
.Ltmp519:
	#DEBUG_VALUE: muladd:x <- $zmm4
	#DEBUG_VALUE: muladd:y <- undef
	.loc	8 12 17 is_stmt 1               # crypto_pwhash/argon2/blamka-round-avx512f.h:12:17 @[ crypto_pwhash/argon2/argon2-fill-block-avx512f.c:96:6734 ]
	vpmuludq	%zmm4, %zmm6, %zmm12
.Ltmp520:
	#DEBUG_VALUE: muladd:z <- $zmm12
	.loc	8 14 29                         # crypto_pwhash/argon2/blamka-round-avx512f.h:14:29 @[ crypto_pwhash/argon2/argon2-fill-block-avx512f.c:96:6734 ]
	vpaddq	%zmm4, %zmm6, %zmm4
.Ltmp521:
	.loc	8 14 53 is_stmt 0               # crypto_pwhash/argon2/blamka-round-avx512f.h:14:53 @[ crypto_pwhash/argon2/argon2-fill-block-avx512f.c:96:6734 ]
	vpaddq	%zmm12, %zmm12, %zmm12
.Ltmp522:
	.loc	8 14 12                         # crypto_pwhash/argon2/blamka-round-avx512f.h:14:12 @[ crypto_pwhash/argon2/argon2-fill-block-avx512f.c:96:6734 ]
	vpaddq	%zmm12, %zmm4, %zmm4
.Ltmp523:
	.loc	6 96 6797 is_stmt 1             # crypto_pwhash/argon2/argon2-fill-block-avx512f.c:96:6797
	vpxorq	%zmm11, %zmm8, %zmm11
	.loc	6 96 6870 is_stmt 0             # crypto_pwhash/argon2/argon2-fill-block-avx512f.c:96:6870
	vpxorq	%zmm9, %zmm4, %zmm9
	.loc	6 96 6953                       # crypto_pwhash/argon2/argon2-fill-block-avx512f.c:96:6953
	vprolq	$48, %zmm11, %zmm11
	.loc	6 96 7060                       # crypto_pwhash/argon2/argon2-fill-block-avx512f.c:96:7060
	vprolq	$48, %zmm9, %zmm9
.Ltmp524:
	#DEBUG_VALUE: muladd:x <- $zmm10
	#DEBUG_VALUE: muladd:y <- undef
	.loc	8 12 17 is_stmt 1               # crypto_pwhash/argon2/blamka-round-avx512f.h:12:17 @[ crypto_pwhash/argon2/argon2-fill-block-avx512f.c:96:7157 ]
	vpmuludq	%zmm10, %zmm11, %zmm12
.Ltmp525:
	#DEBUG_VALUE: muladd:z <- $zmm12
	.loc	8 14 29                         # crypto_pwhash/argon2/blamka-round-avx512f.h:14:29 @[ crypto_pwhash/argon2/argon2-fill-block-avx512f.c:96:7157 ]
	vpaddq	%zmm10, %zmm11, %zmm10
.Ltmp526:
	.loc	8 14 53 is_stmt 0               # crypto_pwhash/argon2/blamka-round-avx512f.h:14:53 @[ crypto_pwhash/argon2/argon2-fill-block-avx512f.c:96:7157 ]
	vpaddq	%zmm12, %zmm12, %zmm12
.Ltmp527:
	.loc	8 14 12                         # crypto_pwhash/argon2/blamka-round-avx512f.h:14:12 @[ crypto_pwhash/argon2/argon2-fill-block-avx512f.c:96:7157 ]
	vpaddq	%zmm12, %zmm10, %zmm10
.Ltmp528:
	#DEBUG_VALUE: muladd:x <- $zmm7
	#DEBUG_VALUE: muladd:y <- undef
	.loc	8 12 17 is_stmt 1               # crypto_pwhash/argon2/blamka-round-avx512f.h:12:17 @[ crypto_pwhash/argon2/argon2-fill-block-avx512f.c:96:7220 ]
	vpmuludq	%zmm7, %zmm9, %zmm12
.Ltmp529:
	#DEBUG_VALUE: muladd:z <- $zmm12
	.loc	8 14 29                         # crypto_pwhash/argon2/blamka-round-avx512f.h:14:29 @[ crypto_pwhash/argon2/argon2-fill-block-avx512f.c:96:7220 ]
	vpaddq	%zmm7, %zmm9, %zmm7
.Ltmp530:
	.loc	8 14 53 is_stmt 0               # crypto_pwhash/argon2/blamka-round-avx512f.h:14:53 @[ crypto_pwhash/argon2/argon2-fill-block-avx512f.c:96:7220 ]
	vpaddq	%zmm12, %zmm12, %zmm12
.Ltmp531:
	.loc	8 14 12                         # crypto_pwhash/argon2/blamka-round-avx512f.h:14:12 @[ crypto_pwhash/argon2/argon2-fill-block-avx512f.c:96:7220 ]
	vpaddq	%zmm12, %zmm7, %zmm7
.Ltmp532:
	.loc	6 96 7283 is_stmt 1             # crypto_pwhash/argon2/argon2-fill-block-avx512f.c:96:7283
	vpxorq	%zmm5, %zmm10, %zmm5
	.loc	6 96 7356 is_stmt 0             # crypto_pwhash/argon2/argon2-fill-block-avx512f.c:96:7356
	vpxorq	%zmm6, %zmm7, %zmm6
	.loc	6 96 7439                       # crypto_pwhash/argon2/argon2-fill-block-avx512f.c:96:7439
	vprolq	$1, %zmm5, %zmm5
	.loc	6 96 7546                       # crypto_pwhash/argon2/argon2-fill-block-avx512f.c:96:7546
	vprolq	$1, %zmm6, %zmm6
.Ltmp533:
	.loc	6 96 8840                       # crypto_pwhash/argon2/argon2-fill-block-avx512f.c:96:8840
	vshufi64x2	$136, %zmm4, %zmm8, %zmm12 # zmm12 = zmm8[0,1,4,5],zmm4[0,1,4,5]
.Ltmp534:
	#DEBUG_VALUE: t0 <- $zmm12
	.loc	6 96 9010                       # crypto_pwhash/argon2/argon2-fill-block-avx512f.c:96:9010
	vshufi64x2	$221, %zmm4, %zmm8, %zmm4 # zmm4 = zmm8[2,3,6,7],zmm4[2,3,6,7]
.Ltmp535:
	#DEBUG_VALUE: t1 <- $zmm4
	.loc	6 96 9182                       # crypto_pwhash/argon2/argon2-fill-block-avx512f.c:96:9182
	vmovdqa64	%zmm12, (%rdi,%rcx)
	.loc	6 96 9205                       # crypto_pwhash/argon2/argon2-fill-block-avx512f.c:96:9205
	vmovdqa64	%zmm4, 128(%rdi,%rcx)
.Ltmp536:
	.loc	6 96 9522                       # crypto_pwhash/argon2/argon2-fill-block-avx512f.c:96:9522
	vmovdqa64	%zmm5, %zmm4
.Ltmp537:
	vpermt2q	%zmm6, %zmm2, %zmm4
.Ltmp538:
	#DEBUG_VALUE: t0 <- $zmm4
	.loc	6 96 9692                       # crypto_pwhash/argon2/argon2-fill-block-avx512f.c:96:9692
	vpermt2q	%zmm6, %zmm3, %zmm5
.Ltmp539:
	#DEBUG_VALUE: t1 <- $zmm5
	.loc	6 96 9864                       # crypto_pwhash/argon2/argon2-fill-block-avx512f.c:96:9864
	vmovdqa64	%zmm4, 256(%rdi,%rcx)
	.loc	6 96 9887                       # crypto_pwhash/argon2/argon2-fill-block-avx512f.c:96:9887
	vmovdqa64	%zmm5, 384(%rdi,%rcx)
.Ltmp540:
	.loc	6 96 10204                      # crypto_pwhash/argon2/argon2-fill-block-avx512f.c:96:10204
	vshufi64x2	$221, %zmm7, %zmm10, %zmm4 # zmm4 = zmm10[2,3,6,7],zmm7[2,3,6,7]
.Ltmp541:
	#DEBUG_VALUE: t0 <- $zmm4
	.loc	6 96 10374                      # crypto_pwhash/argon2/argon2-fill-block-avx512f.c:96:10374
	vshufi64x2	$136, %zmm7, %zmm10, %zmm5 # zmm5 = zmm10[0,1,4,5],zmm7[0,1,4,5]
.Ltmp542:
	#DEBUG_VALUE: t1 <- $zmm5
	.loc	6 96 10546                      # crypto_pwhash/argon2/argon2-fill-block-avx512f.c:96:10546
	vmovdqa64	%zmm4, 512(%rdi,%rcx)
	.loc	6 96 10569                      # crypto_pwhash/argon2/argon2-fill-block-avx512f.c:96:10569
	vmovdqa64	%zmm5, 640(%rdi,%rcx)
.Ltmp543:
	.loc	6 96 10886                      # crypto_pwhash/argon2/argon2-fill-block-avx512f.c:96:10886
	vmovdqa64	%zmm11, %zmm4
.Ltmp544:
	vpermt2q	%zmm9, %zmm3, %zmm4
.Ltmp545:
	#DEBUG_VALUE: t0 <- $zmm4
	.loc	6 96 11056                      # crypto_pwhash/argon2/argon2-fill-block-avx512f.c:96:11056
	vpermt2q	%zmm9, %zmm2, %zmm11
.Ltmp546:
	#DEBUG_VALUE: t1 <- $zmm11
	.loc	6 96 11228                      # crypto_pwhash/argon2/argon2-fill-block-avx512f.c:96:11228
	vmovdqa64	%zmm4, 768(%rdi,%rcx)
	.loc	6 96 11251                      # crypto_pwhash/argon2/argon2-fill-block-avx512f.c:96:11251
	vmovdqa64	%zmm11, 896(%rdi,%rcx)
	movl	$1, %ecx
.Ltmp547:
	#DEBUG_VALUE: fill_block_with_xor:i <- [DW_OP_plus_uconst 1, DW_OP_stack_value] undef
	.loc	6 95 5 is_stmt 1                # crypto_pwhash/argon2/argon2-fill-block-avx512f.c:95:5
	testb	$1, %al
	movl	$0, %eax
	jne	.LBB1_5
.Ltmp548:
# %bb.6:                                # %.preheader.preheader
	#DEBUG_VALUE: fill_block_with_xor:state <- $rdi
	#DEBUG_VALUE: fill_block_with_xor:ref_block <- $rsi
	#DEBUG_VALUE: fill_block_with_xor:next_block <- $rdx
	#DEBUG_VALUE: t0 <- $zmm12
	#DEBUG_VALUE: t1 <- $zmm5
	#DEBUG_VALUE: t0 <- $zmm4
	#DEBUG_VALUE: t1 <- $zmm11
	.loc	6 0 5 is_stmt 0                 # crypto_pwhash/argon2/argon2-fill-block-avx512f.c:0:5
	movl	$64, %eax
.Ltmp549:
	.p2align	4
.LBB1_7:                                # %.preheader
                                        # =>This Inner Loop Header: Depth=1
	#DEBUG_VALUE: fill_block_with_xor:state <- $rdi
	#DEBUG_VALUE: fill_block_with_xor:ref_block <- $rsi
	#DEBUG_VALUE: fill_block_with_xor:next_block <- $rdx
	#DEBUG_VALUE: fill_block_with_xor:i <- [DW_OP_consts 64, DW_OP_minus, DW_OP_consts 128, DW_OP_div, DW_OP_consts 2, DW_OP_mul, DW_OP_stack_value] $rax
	.loc	6 102 47 is_stmt 1              # crypto_pwhash/argon2/argon2-fill-block-avx512f.c:102:47
	vmovdqa64	-64(%rsp,%rax), %zmm0
	.loc	6 102 20 is_stmt 0              # crypto_pwhash/argon2/argon2-fill-block-avx512f.c:102:20
	vpxorq	-64(%rdi,%rax), %zmm0, %zmm0
	.loc	6 102 18                        # crypto_pwhash/argon2/argon2-fill-block-avx512f.c:102:18
	vmovdqa64	%zmm0, -64(%rdi,%rax)
	.loc	6 103 9 is_stmt 1               # crypto_pwhash/argon2/argon2-fill-block-avx512f.c:103:9
	vmovdqu64	%zmm0, -64(%rdx,%rax)
.Ltmp550:
	#DEBUG_VALUE: fill_block_with_xor:i <- [DW_OP_consts 64, DW_OP_minus, DW_OP_consts 128, DW_OP_div, DW_OP_consts 2, DW_OP_mul, DW_OP_consts 1, DW_OP_plus, DW_OP_stack_value] $rax
	.loc	6 102 47                        # crypto_pwhash/argon2/argon2-fill-block-avx512f.c:102:47
	vmovdqa64	(%rsp,%rax), %zmm0
	.loc	6 102 20 is_stmt 0              # crypto_pwhash/argon2/argon2-fill-block-avx512f.c:102:20
	vpxorq	(%rdi,%rax), %zmm0, %zmm0
	.loc	6 102 18                        # crypto_pwhash/argon2/argon2-fill-block-avx512f.c:102:18
	vmovdqa64	%zmm0, (%rdi,%rax)
	.loc	6 103 9 is_stmt 1               # crypto_pwhash/argon2/argon2-fill-block-avx512f.c:103:9
	vmovdqu64	%zmm0, (%rdx,%rax)
.Ltmp551:
	#DEBUG_VALUE: fill_block_with_xor:i <- [DW_OP_consts 64, DW_OP_minus, DW_OP_consts 128, DW_OP_div, DW_OP_consts 2, DW_OP_mul, DW_OP_consts 2, DW_OP_plus, DW_OP_stack_value] $rax
	.loc	6 101 19                        # crypto_pwhash/argon2/argon2-fill-block-avx512f.c:101:19
	subq	$-128, %rax
.Ltmp552:
	cmpq	$1088, %rax                     # imm = 0x440
.Ltmp553:
	.loc	6 101 5 is_stmt 0               # crypto_pwhash/argon2/argon2-fill-block-avx512f.c:101:5
	jne	.LBB1_7
.Ltmp554:
# %bb.8:
	#DEBUG_VALUE: fill_block_with_xor:state <- $rdi
	#DEBUG_VALUE: fill_block_with_xor:ref_block <- $rsi
	#DEBUG_VALUE: fill_block_with_xor:next_block <- $rdx
	.loc	6 105 1 is_stmt 1               # crypto_pwhash/argon2/argon2-fill-block-avx512f.c:105:1
	movq	%rbp, %rsp
	.loc	6 105 1 epilogue_begin is_stmt 0 # crypto_pwhash/argon2/argon2-fill-block-avx512f.c:105:1
	popq	%rbp
	.cfi_def_cfa %rsp, 8
	vzeroupper
	retq
.Ltmp555:
.Lfunc_end1:
	.size	fill_block_with_xor, .Lfunc_end1-fill_block_with_xor
	.cfi_endproc
                                        # -- End function
	.section	".note.GNU-stack","",@progbits
	.addrsig