	.file	"argon2-encoding.c"
	.file	0 "/home/leizhenyuu/opt/Anonymous_Repo/libsodium_o2_attr_inline/src/libsodium" "argon2-encoding.c" md5 0x4647c2d06741595b79f270d503cdfed3
	.file	1 "crypto_pwhash/argon2" "argon2-encoding.c"
	.file	2 "crypto_pwhash/argon2" "argon2.h"
	.file	3 "crypto_pwhash/argon2" "argon2-core.h"
	.file	4 "/usr/include/x86_64-linux-gnu/bits" "types.h"
	.file	5 "/usr/include/x86_64-linux-gnu/bits" "stdint-uintn.h"
	.text
	.hidden	argon2_decode_string            # -- Begin function argon2_decode_string
	.globl	argon2_decode_string
	.p2align	4
	.type	argon2_decode_string,@function
argon2_decode_string:                   # @argon2_decode_string
.Lfunc_begin0:
	.loc	1 95 0                          # crypto_pwhash/argon2/argon2-encoding.c:95:0
	.cfi_startproc
# %bb.0:
	#DEBUG_VALUE: argon2_decode_string:ctx <- $rdi
	#DEBUG_VALUE: argon2_decode_string:str <- $rsi
	#DEBUG_VALUE: argon2_decode_string:type <- $edx
	pushq	%rbp
	.cfi_def_cfa_offset 16
	pushq	%r15
	.cfi_def_cfa_offset 24
	pushq	%r14
	.cfi_def_cfa_offset 32
	pushq	%r13
	.cfi_def_cfa_offset 40
	pushq	%r12
	.cfi_def_cfa_offset 48
	pushq	%rbx
	.cfi_def_cfa_offset 56
	subq	$24, %rsp
	.cfi_def_cfa_offset 80
	.cfi_offset %rbx, -56
	.cfi_offset %r12, -48
	.cfi_offset %r13, -40
	.cfi_offset %r14, -32
	.cfi_offset %r15, -24
	.cfi_offset %rbp, -16
	movq	%rsi, %r12
	movq	%rdi, %rbx
.Ltmp0:
	.loc	1 156 29 prologue_end           # crypto_pwhash/argon2/argon2-encoding.c:156:29
	movl	8(%rdi), %r14d
	.loc	1 155 30                        # crypto_pwhash/argon2/argon2-encoding.c:155:30
	movl	40(%rdi), %r15d
.Ltmp1:
	#DEBUG_VALUE: argon2_decode_string:maxsaltlen <- $r15d
	#DEBUG_VALUE: argon2_decode_string:maxoutlen <- $r14d
	#DEBUG_VALUE: argon2_decode_string:version <- 0
	.loc	1 160 18                        # crypto_pwhash/argon2/argon2-encoding.c:160:18
	movl	$0, 40(%rdi)
	.loc	1 161 17                        # crypto_pwhash/argon2/argon2-encoding.c:161:17
	movl	$0, 8(%rdi)
.Ltmp2:
	.loc	1 163 14                        # crypto_pwhash/argon2/argon2-encoding.c:163:14
	cmpl	$1, %edx
	je	.LBB0_4
.Ltmp3:
# %bb.1:
	#DEBUG_VALUE: argon2_decode_string:ctx <- $rbx
	#DEBUG_VALUE: argon2_decode_string:str <- $r12
	#DEBUG_VALUE: argon2_decode_string:type <- $edx
	#DEBUG_VALUE: argon2_decode_string:maxsaltlen <- $r15d
	#DEBUG_VALUE: argon2_decode_string:maxoutlen <- $r14d
	#DEBUG_VALUE: argon2_decode_string:version <- 0
	.loc	1 0 14 is_stmt 0                # crypto_pwhash/argon2/argon2-encoding.c:0:14
	movl	$-26, %eax
	.loc	1 163 14                        # crypto_pwhash/argon2/argon2-encoding.c:163:14
	cmpl	$2, %edx
	jne	.LBB0_36
.Ltmp4:
# %bb.2:
	#DEBUG_VALUE: argon2_decode_string:ctx <- $rbx
	#DEBUG_VALUE: argon2_decode_string:str <- $r12
	#DEBUG_VALUE: argon2_decode_string:type <- $edx
	#DEBUG_VALUE: argon2_decode_string:maxsaltlen <- $r15d
	#DEBUG_VALUE: argon2_decode_string:maxoutlen <- $r14d
	#DEBUG_VALUE: argon2_decode_string:version <- 0
	#DEBUG_VALUE: cc_len <- 9
	.loc	1 164 55 is_stmt 1              # crypto_pwhash/argon2/argon2-encoding.c:164:55
	leaq	.L.str(%rip), %rsi
	movl	$9, %edx
.Ltmp5:
	#DEBUG_VALUE: argon2_decode_string:type <- [DW_OP_LLVM_entry_value 1] $edx
	movq	%r12, %rdi
	callq	strncmp@PLT
.Ltmp6:
	movl	%eax, %ecx
	movl	$-32, %eax
.Ltmp7:
	#DEBUG_VALUE: argon2_decode_string:str <- undef
	.loc	1 164 89 is_stmt 0              # crypto_pwhash/argon2/argon2-encoding.c:164:89
	testl	%ecx, %ecx
	jne	.LBB0_36
.Ltmp8:
# %bb.3:
	#DEBUG_VALUE: argon2_decode_string:ctx <- $rbx
	#DEBUG_VALUE: argon2_decode_string:type <- [DW_OP_LLVM_entry_value 1] $edx
	#DEBUG_VALUE: argon2_decode_string:maxsaltlen <- $r15d
	#DEBUG_VALUE: argon2_decode_string:maxoutlen <- $r14d
	#DEBUG_VALUE: argon2_decode_string:version <- 0
	.loc	1 0 89                          # crypto_pwhash/argon2/argon2-encoding.c:0:89
	addq	$9, %r12
.Ltmp9:
	#DEBUG_VALUE: argon2_decode_string:str <- $r12
	#DEBUG_VALUE: cc_len <- 3
	.loc	1 170 45 is_stmt 1              # crypto_pwhash/argon2/argon2-encoding.c:170:45
	cmpb	$36, (%r12)
	je	.LBB0_7
	jmp	.LBB0_36
.Ltmp10:
.LBB0_4:
	#DEBUG_VALUE: argon2_decode_string:ctx <- $rbx
	#DEBUG_VALUE: argon2_decode_string:str <- $r12
	#DEBUG_VALUE: argon2_decode_string:type <- $edx
	#DEBUG_VALUE: argon2_decode_string:maxsaltlen <- $r15d
	#DEBUG_VALUE: argon2_decode_string:maxoutlen <- $r14d
	#DEBUG_VALUE: argon2_decode_string:version <- 0
	#DEBUG_VALUE: cc_len <- 8
	.loc	1 166 54                        # crypto_pwhash/argon2/argon2-encoding.c:166:54
	leaq	.L.str.1(%rip), %rsi
	movl	$8, %edx
.Ltmp11:
	#DEBUG_VALUE: argon2_decode_string:type <- [DW_OP_LLVM_entry_value 1] $edx
	movq	%r12, %rdi
	callq	strncmp@PLT
.Ltmp12:
	movl	%eax, %ecx
	movl	$-32, %eax
.Ltmp13:
	#DEBUG_VALUE: argon2_decode_string:str <- undef
	.loc	1 166 87 is_stmt 0              # crypto_pwhash/argon2/argon2-encoding.c:166:87
	testl	%ecx, %ecx
	jne	.LBB0_36
.Ltmp14:
# %bb.5:
	#DEBUG_VALUE: argon2_decode_string:ctx <- $rbx
	#DEBUG_VALUE: argon2_decode_string:type <- [DW_OP_LLVM_entry_value 1] $edx
	#DEBUG_VALUE: argon2_decode_string:maxsaltlen <- $r15d
	#DEBUG_VALUE: argon2_decode_string:maxoutlen <- $r14d
	#DEBUG_VALUE: argon2_decode_string:version <- 0
	.loc	1 0 87                          # crypto_pwhash/argon2/argon2-encoding.c:0:87
	addq	$8, %r12
.Ltmp15:
	#DEBUG_VALUE: argon2_decode_string:str <- $r12
	#DEBUG_VALUE: cc_len <- 3
	.loc	1 170 45 is_stmt 1              # crypto_pwhash/argon2/argon2-encoding.c:170:45
	cmpb	$36, (%r12)
	jne	.LBB0_36
.Ltmp16:
.LBB0_7:                                # %sub_1
	#DEBUG_VALUE: argon2_decode_string:ctx <- $rbx
	#DEBUG_VALUE: argon2_decode_string:str <- $r12
	#DEBUG_VALUE: argon2_decode_string:type <- [DW_OP_LLVM_entry_value 1] $edx
	#DEBUG_VALUE: argon2_decode_string:maxsaltlen <- $r15d
	#DEBUG_VALUE: argon2_decode_string:maxoutlen <- $r14d
	#DEBUG_VALUE: argon2_decode_string:version <- 0
	#DEBUG_VALUE: cc_len <- 3
	cmpb	$118, 1(%r12)
	jne	.LBB0_36
.Ltmp17:
# %bb.8:                                # %.tail
	#DEBUG_VALUE: argon2_decode_string:ctx <- $rbx
	#DEBUG_VALUE: argon2_decode_string:str <- $r12
	#DEBUG_VALUE: argon2_decode_string:type <- [DW_OP_LLVM_entry_value 1] $edx
	#DEBUG_VALUE: argon2_decode_string:maxsaltlen <- $r15d
	#DEBUG_VALUE: argon2_decode_string:maxoutlen <- $r14d
	#DEBUG_VALUE: argon2_decode_string:version <- 0
	#DEBUG_VALUE: cc_len <- 3
	.loc	1 170 73 is_stmt 0              # crypto_pwhash/argon2/argon2-encoding.c:170:73
	cmpb	$61, 2(%r12)
	jne	.LBB0_36
.Ltmp18:
# %bb.9:
	#DEBUG_VALUE: argon2_decode_string:ctx <- $rbx
	#DEBUG_VALUE: argon2_decode_string:str <- $r12
	#DEBUG_VALUE: argon2_decode_string:type <- [DW_OP_LLVM_entry_value 1] $edx
	#DEBUG_VALUE: argon2_decode_string:maxsaltlen <- $r15d
	#DEBUG_VALUE: argon2_decode_string:maxoutlen <- $r14d
	#DEBUG_VALUE: argon2_decode_string:version <- 0
	.loc	1 0 0                           # crypto_pwhash/argon2/argon2-encoding.c:0
	addq	$3, %r12
.Ltmp19:
	#DEBUG_VALUE: argon2_decode_string:str <- $r12
	#DEBUG_VALUE: decode_decimal:str <- $r12
	#DEBUG_VALUE: decode_decimal:v <- undef
	#DEBUG_VALUE: decode_decimal:acc <- 0
	#DEBUG_VALUE: decode_decimal:orig <- $r12
	.loc	1 48 13 is_stmt 1               # crypto_pwhash/argon2/argon2-encoding.c:48:13 @[ crypto_pwhash/argon2/argon2-encoding.c:171:37 ]
	movzbl	(%r12), %esi
.Ltmp20:
	.loc	1 49 21                         # crypto_pwhash/argon2/argon2-encoding.c:49:21 @[ crypto_pwhash/argon2/argon2-encoding.c:171:37 ]
	leal	-58(%rsi), %ecx
	cmpb	$-10, %cl
	jae	.LBB0_10
.Ltmp21:
.LBB0_36:                               # %.thread
	#DEBUG_VALUE: argon2_decode_string:ctx <- $rbx
	#DEBUG_VALUE: argon2_decode_string:type <- [DW_OP_LLVM_entry_value 1] $edx
	.loc	1 209 1 epilogue_begin          # crypto_pwhash/argon2/argon2-encoding.c:209:1
	addq	$24, %rsp
	.cfi_def_cfa_offset 56
	popq	%rbx
.Ltmp22:
	#DEBUG_VALUE: argon2_decode_string:ctx <- [DW_OP_LLVM_entry_value 1] $rdi
	.cfi_def_cfa_offset 48
	popq	%r12
	.cfi_def_cfa_offset 40
	popq	%r13
	.cfi_def_cfa_offset 32
	popq	%r14
	.cfi_def_cfa_offset 24
	popq	%r15
	.cfi_def_cfa_offset 16
	popq	%rbp
	.cfi_def_cfa_offset 8
	retq
.Ltmp23:
.LBB0_10:                               # %.lr.ph.i.preheader
	.cfi_def_cfa_offset 80
	#DEBUG_VALUE: argon2_decode_string:ctx <- $rbx
	#DEBUG_VALUE: argon2_decode_string:str <- $r12
	#DEBUG_VALUE: argon2_decode_string:type <- [DW_OP_LLVM_entry_value 1] $edx
	#DEBUG_VALUE: argon2_decode_string:maxsaltlen <- $r15d
	#DEBUG_VALUE: argon2_decode_string:maxoutlen <- $r14d
	#DEBUG_VALUE: argon2_decode_string:version <- 0
	#DEBUG_VALUE: decode_decimal:str <- $r12
	#DEBUG_VALUE: decode_decimal:acc <- 0
	#DEBUG_VALUE: decode_decimal:orig <- $r12
	.loc	1 0 1 is_stmt 0                 # crypto_pwhash/argon2/argon2-encoding.c:0:1
	xorl	%ecx, %ecx
	movabsq	$1844674407370955161, %rdi      # imm = 0x1999999999999999
	movl	%esi, %r8d
	xorl	%edx, %edx
.Ltmp24:
.LBB0_11:                               # %.lr.ph.i
                                        # =>This Inner Loop Header: Depth=1
	#DEBUG_VALUE: argon2_decode_string:ctx <- $rbx
	#DEBUG_VALUE: argon2_decode_string:str <- $r12
	#DEBUG_VALUE: argon2_decode_string:type <- [DW_OP_LLVM_entry_value 1] $edx
	#DEBUG_VALUE: argon2_decode_string:maxsaltlen <- $r15d
	#DEBUG_VALUE: argon2_decode_string:maxoutlen <- $r14d
	#DEBUG_VALUE: argon2_decode_string:version <- 0
	#DEBUG_VALUE: decode_decimal:orig <- $r12
	#DEBUG_VALUE: decode_decimal:acc <- $rdx
	#DEBUG_VALUE: decode_decimal:str <- [DW_OP_LLVM_arg 0, DW_OP_consts 3, DW_OP_LLVM_arg 1, DW_OP_plus, DW_OP_plus, DW_OP_stack_value] undef, undef
	#DEBUG_VALUE: c <- [DW_OP_LLVM_convert 8 5, DW_OP_LLVM_convert 32 5, DW_OP_constu 48, DW_OP_minus, DW_OP_stack_value] $r8b
	.loc	1 53 17 is_stmt 1               # crypto_pwhash/argon2/argon2-encoding.c:53:17 @[ crypto_pwhash/argon2/argon2-encoding.c:171:37 ]
	cmpq	%rdi, %rdx
	ja	.LBB0_36
.Ltmp25:
# %bb.12:                               #   in Loop: Header=BB0_11 Depth=1
	#DEBUG_VALUE: argon2_decode_string:ctx <- $rbx
	#DEBUG_VALUE: argon2_decode_string:str <- $r12
	#DEBUG_VALUE: argon2_decode_string:type <- [DW_OP_LLVM_entry_value 1] $edx
	#DEBUG_VALUE: argon2_decode_string:maxsaltlen <- $r15d
	#DEBUG_VALUE: argon2_decode_string:maxoutlen <- $r14d
	#DEBUG_VALUE: argon2_decode_string:version <- 0
	#DEBUG_VALUE: decode_decimal:acc <- $rdx
	#DEBUG_VALUE: decode_decimal:orig <- $r12
	#DEBUG_VALUE: c <- [DW_OP_LLVM_convert 8 5, DW_OP_LLVM_convert 32 5, DW_OP_constu 48, DW_OP_minus, DW_OP_stack_value] $r8b
	.loc	1 52 11                         # crypto_pwhash/argon2/argon2-encoding.c:52:11 @[ crypto_pwhash/argon2/argon2-encoding.c:171:37 ]
	addb	$-48, %r8b
.Ltmp26:
	#DEBUG_VALUE: c <- [DW_OP_LLVM_convert 8 7, DW_OP_LLVM_convert 32 7, DW_OP_stack_value] $r8b
	.loc	1 56 13                         # crypto_pwhash/argon2/argon2-encoding.c:56:13 @[ crypto_pwhash/argon2/argon2-encoding.c:171:37 ]
	addq	%rdx, %rdx
.Ltmp27:
	leaq	(%rdx,%rdx,4), %r9
.Ltmp28:
	#DEBUG_VALUE: decode_decimal:acc <- $r9
	.loc	1 57 13                         # crypto_pwhash/argon2/argon2-encoding.c:57:13 @[ crypto_pwhash/argon2/argon2-encoding.c:171:37 ]
	movzbl	%r8b, %edx
	.loc	1 57 31 is_stmt 0               # crypto_pwhash/argon2/argon2-encoding.c:57:31 @[ crypto_pwhash/argon2/argon2-encoding.c:171:37 ]
	addq	%r9, %rdx
	jb	.LBB0_36
.Ltmp29:
# %bb.13:                               #   in Loop: Header=BB0_11 Depth=1
	#DEBUG_VALUE: argon2_decode_string:ctx <- $rbx
	#DEBUG_VALUE: argon2_decode_string:str <- $r12
	#DEBUG_VALUE: argon2_decode_string:type <- [DW_OP_LLVM_entry_value 1] $edx
	#DEBUG_VALUE: argon2_decode_string:maxsaltlen <- $r15d
	#DEBUG_VALUE: argon2_decode_string:maxoutlen <- $r14d
	#DEBUG_VALUE: argon2_decode_string:version <- 0
	#DEBUG_VALUE: decode_decimal:acc <- $r9
	#DEBUG_VALUE: decode_decimal:orig <- $r12
	#DEBUG_VALUE: c <- [DW_OP_LLVM_convert 8 7, DW_OP_LLVM_convert 32 7, DW_OP_stack_value] $r8b
	#DEBUG_VALUE: decode_decimal:acc <- undef
	#DEBUG_VALUE: decode_decimal:str <- [DW_OP_LLVM_arg 0, DW_OP_consts 4, DW_OP_LLVM_arg 1, DW_OP_plus, DW_OP_plus, DW_OP_stack_value] undef, undef
	.loc	1 48 13 is_stmt 1               # crypto_pwhash/argon2/argon2-encoding.c:48:13 @[ crypto_pwhash/argon2/argon2-encoding.c:171:37 ]
	movzbl	1(%r12,%rcx), %r8d
.Ltmp30:
	#DEBUG_VALUE: c <- [DW_OP_LLVM_convert 8 5, DW_OP_LLVM_convert 32 5, DW_OP_stack_value] $r8b
	.loc	1 49 21                         # crypto_pwhash/argon2/argon2-encoding.c:49:21 @[ crypto_pwhash/argon2/argon2-encoding.c:171:37 ]
	leal	-58(%r8), %r9d
	incq	%rcx
	cmpb	$-11, %r9b
	ja	.LBB0_11
.Ltmp31:
# %bb.14:                               # %._crit_edge.i
	#DEBUG_VALUE: argon2_decode_string:ctx <- $rbx
	#DEBUG_VALUE: argon2_decode_string:str <- $r12
	#DEBUG_VALUE: argon2_decode_string:type <- [DW_OP_LLVM_entry_value 1] $edx
	#DEBUG_VALUE: argon2_decode_string:maxsaltlen <- $r15d
	#DEBUG_VALUE: argon2_decode_string:maxoutlen <- $r14d
	#DEBUG_VALUE: argon2_decode_string:version <- 0
	#DEBUG_VALUE: decode_decimal:orig <- $r12
	#DEBUG_VALUE: decode_decimal:acc <- undef
	.loc	1 62 13                         # crypto_pwhash/argon2/argon2-encoding.c:62:13 @[ crypto_pwhash/argon2/argon2-encoding.c:171:37 ]
	testq	%rcx, %rcx
	.loc	1 62 21 is_stmt 0               # crypto_pwhash/argon2/argon2-encoding.c:62:21 @[ crypto_pwhash/argon2/argon2-encoding.c:171:37 ]
	je	.LBB0_36
.Ltmp32:
# %bb.15:                               # %decode_decimal.exit
	#DEBUG_VALUE: argon2_decode_string:ctx <- $rbx
	#DEBUG_VALUE: argon2_decode_string:str <- $r12
	#DEBUG_VALUE: argon2_decode_string:type <- [DW_OP_LLVM_entry_value 1] $edx
	#DEBUG_VALUE: argon2_decode_string:maxsaltlen <- $r15d
	#DEBUG_VALUE: argon2_decode_string:maxoutlen <- $r14d
	#DEBUG_VALUE: argon2_decode_string:version <- 0
	#DEBUG_VALUE: decode_decimal:orig <- $r12
	.loc	1 62 0                          # crypto_pwhash/argon2/argon2-encoding.c:62 @[ crypto_pwhash/argon2/argon2-encoding.c:171:37 ]
	leaq	(%r12,%rcx), %r8
	.loc	1 62 31                         # crypto_pwhash/argon2/argon2-encoding.c:62:31 @[ crypto_pwhash/argon2/argon2-encoding.c:171:37 ]
	cmpb	$48, %sil
	setne	%al
	cmpq	$1, %rcx
	sete	%sil
	.loc	1 62 38                         # crypto_pwhash/argon2/argon2-encoding.c:62:38 @[ crypto_pwhash/argon2/argon2-encoding.c:171:37 ]
	orb	%al, %sil
.Ltmp33:
	#DEBUG_VALUE: dec_x <- undef
	.loc	1 0 38                          # crypto_pwhash/argon2/argon2-encoding.c:0:38
	movq	%rdx, %r9
	shrq	$32, %r9
	xorl	%edi, %edi
	.loc	1 62 38                         # crypto_pwhash/argon2/argon2-encoding.c:62:38 @[ crypto_pwhash/argon2/argon2-encoding.c:171:37 ]
	testb	%sil, %sil
	cmovneq	%r8, %rdi
.Ltmp34:
	#DEBUG_VALUE: argon2_decode_string:str <- $rdi
	.loc	1 0 38                          # crypto_pwhash/argon2/argon2-encoding.c:0:38
	movl	$-26, %eax
	movl	$-32, %r10d
.Ltmp35:
	#DEBUG_VALUE: argon2_decode_string:version <- undef
	cmovel	%r10d, %eax
	testq	%r9, %r9
	cmovnel	%r10d, %eax
	cmpq	$19, %rdx
	jne	.LBB0_36
.Ltmp36:
# %bb.16:                               # %decode_decimal.exit
	#DEBUG_VALUE: argon2_decode_string:ctx <- $rbx
	#DEBUG_VALUE: argon2_decode_string:str <- $rdi
	#DEBUG_VALUE: argon2_decode_string:type <- [DW_OP_LLVM_entry_value 1] $edx
	#DEBUG_VALUE: argon2_decode_string:maxsaltlen <- $r15d
	#DEBUG_VALUE: argon2_decode_string:maxoutlen <- $r14d
	testb	%sil, %sil
.Ltmp37:
	.loc	1 175 45 is_stmt 1              # crypto_pwhash/argon2/argon2-encoding.c:175:45
	je	.LBB0_36
.Ltmp38:
# %bb.17:                               # %sub_0176
	#DEBUG_VALUE: argon2_decode_string:ctx <- $rbx
	#DEBUG_VALUE: argon2_decode_string:str <- $rdi
	#DEBUG_VALUE: argon2_decode_string:type <- [DW_OP_LLVM_entry_value 1] $edx
	#DEBUG_VALUE: argon2_decode_string:maxsaltlen <- $r15d
	#DEBUG_VALUE: argon2_decode_string:maxoutlen <- $r14d
	#DEBUG_VALUE: cc_len <- 3
	.loc	1 0 45 is_stmt 0                # crypto_pwhash/argon2/argon2-encoding.c:0:45
	movl	$-32, %eax
	.loc	1 175 45                        # crypto_pwhash/argon2/argon2-encoding.c:175:45
	cmpb	$36, (%r8)
	jne	.LBB0_36
.Ltmp39:
# %bb.18:                               # %sub_1177
	#DEBUG_VALUE: argon2_decode_string:ctx <- $rbx
	#DEBUG_VALUE: argon2_decode_string:str <- $rdi
	#DEBUG_VALUE: argon2_decode_string:type <- [DW_OP_LLVM_entry_value 1] $edx
	#DEBUG_VALUE: argon2_decode_string:maxsaltlen <- $r15d
	#DEBUG_VALUE: argon2_decode_string:maxoutlen <- $r14d
	#DEBUG_VALUE: cc_len <- 3
	cmpb	$109, 1(%r12,%rcx)
	jne	.LBB0_36
.Ltmp40:
# %bb.19:                               # %.tail175
	#DEBUG_VALUE: argon2_decode_string:ctx <- $rbx
	#DEBUG_VALUE: argon2_decode_string:str <- $rdi
	#DEBUG_VALUE: argon2_decode_string:type <- [DW_OP_LLVM_entry_value 1] $edx
	#DEBUG_VALUE: argon2_decode_string:maxsaltlen <- $r15d
	#DEBUG_VALUE: argon2_decode_string:maxoutlen <- $r14d
	#DEBUG_VALUE: cc_len <- 3
	.loc	1 175 73                        # crypto_pwhash/argon2/argon2-encoding.c:175:73
	cmpb	$61, 2(%r12,%rcx)
.Ltmp41:
	#DEBUG_VALUE: argon2_decode_string:str <- undef
	.loc	1 0 73                          # crypto_pwhash/argon2/argon2-encoding.c:0:73
	jne	.LBB0_36
.Ltmp42:
# %bb.20:
	#DEBUG_VALUE: argon2_decode_string:ctx <- $rbx
	#DEBUG_VALUE: argon2_decode_string:type <- [DW_OP_LLVM_entry_value 1] $edx
	#DEBUG_VALUE: argon2_decode_string:maxsaltlen <- $r15d
	#DEBUG_VALUE: argon2_decode_string:maxoutlen <- $r14d
	#DEBUG_VALUE: cc_len <- 3
	.loc	1 175 73                        # crypto_pwhash/argon2/argon2-encoding.c:175:73
	addq	$3, %rdi
	leaq	8(%rsp), %rsi
.Ltmp43:
	.loc	1 176 37 is_stmt 1              # crypto_pwhash/argon2/argon2-encoding.c:176:37
	callq	decode_decimal
.Ltmp44:
	#DEBUG_VALUE: argon2_decode_string:str <- $rax
	.loc	1 176 74 is_stmt 0              # crypto_pwhash/argon2/argon2-encoding.c:176:74
	testq	%rax, %rax
	setne	%dl
	movq	8(%rsp), %rcx
	movq	%rcx, %rsi
	shrq	$32, %rsi
	sete	%sil
	.loc	1 176 88                        # crypto_pwhash/argon2/argon2-encoding.c:176:88
	andb	%dl, %sil
	cmpb	$1, %sil
	jne	.LBB0_35
.Ltmp45:
# %bb.21:                               # %sub_0181
	#DEBUG_VALUE: argon2_decode_string:ctx <- $rbx
	#DEBUG_VALUE: argon2_decode_string:str <- $rax
	#DEBUG_VALUE: argon2_decode_string:type <- [DW_OP_LLVM_entry_value 1] $edx
	#DEBUG_VALUE: argon2_decode_string:maxsaltlen <- $r15d
	#DEBUG_VALUE: argon2_decode_string:maxoutlen <- $r14d
	.loc	1 176 161                       # crypto_pwhash/argon2/argon2-encoding.c:176:161
	movl	%ecx, 80(%rbx)
.Ltmp46:
	#DEBUG_VALUE: cc_len <- 3
	.loc	1 180 45 is_stmt 1              # crypto_pwhash/argon2/argon2-encoding.c:180:45
	cmpb	$44, (%rax)
	jne	.LBB0_35
.Ltmp47:
# %bb.22:                               # %sub_1182
	#DEBUG_VALUE: argon2_decode_string:ctx <- $rbx
	#DEBUG_VALUE: argon2_decode_string:str <- $rax
	#DEBUG_VALUE: argon2_decode_string:type <- [DW_OP_LLVM_entry_value 1] $edx
	#DEBUG_VALUE: argon2_decode_string:maxsaltlen <- $r15d
	#DEBUG_VALUE: argon2_decode_string:maxoutlen <- $r14d
	#DEBUG_VALUE: cc_len <- 3
	cmpb	$116, 1(%rax)
	jne	.LBB0_35
.Ltmp48:
# %bb.23:                               # %.tail180
	#DEBUG_VALUE: argon2_decode_string:ctx <- $rbx
	#DEBUG_VALUE: argon2_decode_string:str <- $rax
	#DEBUG_VALUE: argon2_decode_string:type <- [DW_OP_LLVM_entry_value 1] $edx
	#DEBUG_VALUE: argon2_decode_string:maxsaltlen <- $r15d
	#DEBUG_VALUE: argon2_decode_string:maxoutlen <- $r14d
	#DEBUG_VALUE: cc_len <- 3
	.loc	1 180 73 is_stmt 0              # crypto_pwhash/argon2/argon2-encoding.c:180:73
	cmpb	$61, 2(%rax)
.Ltmp49:
	#DEBUG_VALUE: argon2_decode_string:str <- undef
	.loc	1 0 73                          # crypto_pwhash/argon2/argon2-encoding.c:0:73
	jne	.LBB0_35
.Ltmp50:
# %bb.24:
	#DEBUG_VALUE: argon2_decode_string:ctx <- $rbx
	#DEBUG_VALUE: argon2_decode_string:type <- [DW_OP_LLVM_entry_value 1] $edx
	#DEBUG_VALUE: argon2_decode_string:maxsaltlen <- $r15d
	#DEBUG_VALUE: argon2_decode_string:maxoutlen <- $r14d
	#DEBUG_VALUE: cc_len <- 3
	.loc	1 180 73                        # crypto_pwhash/argon2/argon2-encoding.c:180:73
	addq	$3, %rax
	leaq	8(%rsp), %rsi
.Ltmp51:
	.loc	1 181 37 is_stmt 1              # crypto_pwhash/argon2/argon2-encoding.c:181:37
	movq	%rax, %rdi
	callq	decode_decimal
.Ltmp52:
	#DEBUG_VALUE: argon2_decode_string:str <- $rax
	.loc	1 181 74 is_stmt 0              # crypto_pwhash/argon2/argon2-encoding.c:181:74
	testq	%rax, %rax
	setne	%dl
	movq	8(%rsp), %rcx
	movq	%rcx, %rsi
	shrq	$32, %rsi
	sete	%sil
	.loc	1 181 88                        # crypto_pwhash/argon2/argon2-encoding.c:181:88
	andb	%dl, %sil
	cmpb	$1, %sil
	jne	.LBB0_35
.Ltmp53:
# %bb.25:                               # %sub_0186
	#DEBUG_VALUE: argon2_decode_string:ctx <- $rbx
	#DEBUG_VALUE: argon2_decode_string:str <- $rax
	#DEBUG_VALUE: argon2_decode_string:type <- [DW_OP_LLVM_entry_value 1] $edx
	#DEBUG_VALUE: argon2_decode_string:maxsaltlen <- $r15d
	#DEBUG_VALUE: argon2_decode_string:maxoutlen <- $r14d
	.loc	1 181 161                       # crypto_pwhash/argon2/argon2-encoding.c:181:161
	movl	%ecx, 76(%rbx)
.Ltmp54:
	#DEBUG_VALUE: cc_len <- 3
	.loc	1 185 45 is_stmt 1              # crypto_pwhash/argon2/argon2-encoding.c:185:45
	cmpb	$44, (%rax)
	jne	.LBB0_35
.Ltmp55:
# %bb.26:                               # %sub_1187
	#DEBUG_VALUE: argon2_decode_string:ctx <- $rbx
	#DEBUG_VALUE: argon2_decode_string:str <- $rax
	#DEBUG_VALUE: argon2_decode_string:type <- [DW_OP_LLVM_entry_value 1] $edx
	#DEBUG_VALUE: argon2_decode_string:maxsaltlen <- $r15d
	#DEBUG_VALUE: argon2_decode_string:maxoutlen <- $r14d
	#DEBUG_VALUE: cc_len <- 3
	cmpb	$112, 1(%rax)
	jne	.LBB0_35
.Ltmp56:
# %bb.27:                               # %.tail185
	#DEBUG_VALUE: argon2_decode_string:ctx <- $rbx
	#DEBUG_VALUE: argon2_decode_string:str <- $rax
	#DEBUG_VALUE: argon2_decode_string:type <- [DW_OP_LLVM_entry_value 1] $edx
	#DEBUG_VALUE: argon2_decode_string:maxsaltlen <- $r15d
	#DEBUG_VALUE: argon2_decode_string:maxoutlen <- $r14d
	#DEBUG_VALUE: cc_len <- 3
	.loc	1 185 73 is_stmt 0              # crypto_pwhash/argon2/argon2-encoding.c:185:73
	cmpb	$61, 2(%rax)
.Ltmp57:
	#DEBUG_VALUE: argon2_decode_string:str <- undef
	.loc	1 0 73                          # crypto_pwhash/argon2/argon2-encoding.c:0:73
	jne	.LBB0_35
.Ltmp58:
# %bb.28:
	#DEBUG_VALUE: argon2_decode_string:ctx <- $rbx
	#DEBUG_VALUE: argon2_decode_string:type <- [DW_OP_LLVM_entry_value 1] $edx
	#DEBUG_VALUE: argon2_decode_string:maxsaltlen <- $r15d
	#DEBUG_VALUE: argon2_decode_string:maxoutlen <- $r14d
	#DEBUG_VALUE: cc_len <- 3
	.loc	1 185 73                        # crypto_pwhash/argon2/argon2-encoding.c:185:73
	addq	$3, %rax
	leaq	8(%rsp), %rsi
.Ltmp59:
	.loc	1 186 37 is_stmt 1              # crypto_pwhash/argon2/argon2-encoding.c:186:37
	movq	%rax, %rdi
	callq	decode_decimal
.Ltmp60:
	movq	%rax, %r12
.Ltmp61:
	#DEBUG_VALUE: argon2_decode_string:str <- $r12
	.loc	1 186 74 is_stmt 0              # crypto_pwhash/argon2/argon2-encoding.c:186:74
	testq	%rax, %rax
	setne	%cl
	movq	8(%rsp), %rax
	movq	%rax, %rdx
	shrq	$32, %rdx
	sete	%dl
	.loc	1 186 88                        # crypto_pwhash/argon2/argon2-encoding.c:186:88
	andb	%cl, %dl
	cmpb	$1, %dl
	jne	.LBB0_35
.Ltmp62:
# %bb.29:
	#DEBUG_VALUE: argon2_decode_string:ctx <- $rbx
	#DEBUG_VALUE: argon2_decode_string:str <- $r12
	#DEBUG_VALUE: argon2_decode_string:type <- [DW_OP_LLVM_entry_value 1] $edx
	#DEBUG_VALUE: argon2_decode_string:maxsaltlen <- $r15d
	#DEBUG_VALUE: argon2_decode_string:maxoutlen <- $r14d
	.loc	1 186 160                       # crypto_pwhash/argon2/argon2-encoding.c:186:160
	movl	%eax, 84(%rbx)
.Ltmp63:
	.loc	1 190 18 is_stmt 1              # crypto_pwhash/argon2/argon2-encoding.c:190:18
	movl	%eax, 88(%rbx)
.Ltmp64:
	#DEBUG_VALUE: cc_len <- 1
	.loc	1 192 69                        # crypto_pwhash/argon2/argon2-encoding.c:192:69
	cmpb	$36, (%r12)
.Ltmp65:
	#DEBUG_VALUE: argon2_decode_string:str <- undef
	.loc	1 0 69 is_stmt 0                # crypto_pwhash/argon2/argon2-encoding.c:0:69
	jne	.LBB0_35
.Ltmp66:
# %bb.30:
	#DEBUG_VALUE: argon2_decode_string:ctx <- $rbx
	#DEBUG_VALUE: argon2_decode_string:type <- [DW_OP_LLVM_entry_value 1] $edx
	#DEBUG_VALUE: argon2_decode_string:maxsaltlen <- $r15d
	#DEBUG_VALUE: argon2_decode_string:maxoutlen <- $r14d
	#DEBUG_VALUE: cc_len <- 1
	.loc	1 192 69                        # crypto_pwhash/argon2/argon2-encoding.c:192:69
	incq	%r12
.Ltmp67:
	.loc	1 193 17 is_stmt 1              # crypto_pwhash/argon2/argon2-encoding.c:193:17
	movq	%r15, 8(%rsp)
.Ltmp68:
	.loc	1 193 90 is_stmt 0              # crypto_pwhash/argon2/argon2-encoding.c:193:90
	movq	32(%rbx), %r13
	.loc	1 193 116                       # crypto_pwhash/argon2/argon2-encoding.c:193:116
	movq	%r12, %rdi
	callq	strlen@PLT
.Ltmp69:
	.loc	1 0 116                         # crypto_pwhash/argon2/argon2-encoding.c:0:116
	leaq	16(%rsp), %rbp
	leaq	8(%rsp), %r9
	.loc	1 193 66                        # crypto_pwhash/argon2/argon2-encoding.c:193:66
	movq	%r13, %rdi
	movq	%r15, %rsi
	movq	%r12, %rdx
	movq	%rax, %rcx
	xorl	%r8d, %r8d
	pushq	$3
	.cfi_adjust_cfa_offset 8
	pushq	%rbp
	.cfi_adjust_cfa_offset 8
	callq	sodium_base642bin@PLT
.Ltmp70:
	addq	$16, %rsp
	.cfi_adjust_cfa_offset -16
	.loc	1 193 164                       # crypto_pwhash/argon2/argon2-encoding.c:193:164
	testl	%eax, %eax
	sete	%cl
	movq	8(%rsp), %rax
	movq	%rax, %rdx
	shrq	$32, %rdx
	sete	%dl
	.loc	1 193 169                       # crypto_pwhash/argon2/argon2-encoding.c:193:169
	testb	%dl, %cl
	je	.LBB0_35
.Ltmp71:
# %bb.31:
	#DEBUG_VALUE: argon2_decode_string:ctx <- $rbx
	#DEBUG_VALUE: argon2_decode_string:type <- [DW_OP_LLVM_entry_value 1] $edx
	#DEBUG_VALUE: argon2_decode_string:maxsaltlen <- $r15d
	#DEBUG_VALUE: argon2_decode_string:maxoutlen <- $r14d
	.loc	1 193 245                       # crypto_pwhash/argon2/argon2-encoding.c:193:245
	movl	%eax, 40(%rbx)
	.loc	1 193 273                       # crypto_pwhash/argon2/argon2-encoding.c:193:273
	movq	16(%rsp), %r15
.Ltmp72:
	#DEBUG_VALUE: argon2_decode_string:str <- $r15
	#DEBUG_VALUE: cc_len <- 1
	.loc	1 194 69 is_stmt 1              # crypto_pwhash/argon2/argon2-encoding.c:194:69
	cmpb	$36, (%r15)
.Ltmp73:
	#DEBUG_VALUE: argon2_decode_string:str <- undef
	.loc	1 0 69 is_stmt 0                # crypto_pwhash/argon2/argon2-encoding.c:0:69
	jne	.LBB0_35
.Ltmp74:
# %bb.32:
	#DEBUG_VALUE: argon2_decode_string:ctx <- $rbx
	#DEBUG_VALUE: argon2_decode_string:type <- [DW_OP_LLVM_entry_value 1] $edx
	#DEBUG_VALUE: argon2_decode_string:maxoutlen <- $r14d
	#DEBUG_VALUE: cc_len <- 1
	.loc	1 194 69                        # crypto_pwhash/argon2/argon2-encoding.c:194:69
	incq	%r15
.Ltmp75:
	.loc	1 195 17 is_stmt 1              # crypto_pwhash/argon2/argon2-encoding.c:195:17
	movq	%r14, 8(%rsp)
.Ltmp76:
	.loc	1 195 89 is_stmt 0              # crypto_pwhash/argon2/argon2-encoding.c:195:89
	movq	(%rbx), %r12
	.loc	1 195 113                       # crypto_pwhash/argon2/argon2-encoding.c:195:113
	movq	%r15, %rdi
	callq	strlen@PLT
.Ltmp77:
	.loc	1 0 113                         # crypto_pwhash/argon2/argon2-encoding.c:0:113
	leaq	8(%rsp), %r9
	.loc	1 195 65                        # crypto_pwhash/argon2/argon2-encoding.c:195:65
	movq	%r12, %rdi
	movq	%r14, %rsi
	movq	%r15, %rdx
	movq	%rax, %rcx
	xorl	%r8d, %r8d
	pushq	$3
	.cfi_adjust_cfa_offset 8
	pushq	%rbp
	.cfi_adjust_cfa_offset 8
	callq	sodium_base642bin@PLT
.Ltmp78:
	addq	$16, %rsp
	.cfi_adjust_cfa_offset -16
	.loc	1 195 161                       # crypto_pwhash/argon2/argon2-encoding.c:195:161
	testl	%eax, %eax
	sete	%cl
	movq	8(%rsp), %rax
	movq	%rax, %rdx
	shrq	$32, %rdx
	sete	%dl
	.loc	1 195 166                       # crypto_pwhash/argon2/argon2-encoding.c:195:166
	testb	%dl, %cl
	je	.LBB0_35
.Ltmp79:
# %bb.33:
	#DEBUG_VALUE: argon2_decode_string:ctx <- $rbx
	#DEBUG_VALUE: argon2_decode_string:type <- [DW_OP_LLVM_entry_value 1] $edx
	#DEBUG_VALUE: argon2_decode_string:maxoutlen <- $r14d
	.loc	1 195 241                       # crypto_pwhash/argon2/argon2-encoding.c:195:241
	movl	%eax, 8(%rbx)
	.loc	1 195 269                       # crypto_pwhash/argon2/argon2-encoding.c:195:269
	movq	16(%rsp), %r14
.Ltmp80:
	#DEBUG_VALUE: argon2_decode_string:str <- $r14
	.loc	1 196 25 is_stmt 1              # crypto_pwhash/argon2/argon2-encoding.c:196:25
	movq	%rbx, %rdi
	callq	argon2_validate_inputs@PLT
.Ltmp81:
	#DEBUG_VALUE: argon2_decode_string:validation_result <- $eax
	.loc	1 197 27                        # crypto_pwhash/argon2/argon2-encoding.c:197:27
	testl	%eax, %eax
	jne	.LBB0_36
.Ltmp82:
# %bb.34:
	#DEBUG_VALUE: argon2_decode_string:ctx <- $rbx
	#DEBUG_VALUE: argon2_decode_string:str <- $r14
	#DEBUG_VALUE: argon2_decode_string:type <- [DW_OP_LLVM_entry_value 1] $edx
	#DEBUG_VALUE: argon2_decode_string:validation_result <- $eax
	.loc	1 200 14                        # crypto_pwhash/argon2/argon2-encoding.c:200:14
	xorl	%eax, %eax
.Ltmp83:
	cmpb	$0, (%r14)
	sete	%al
.Ltmp84:
	.loc	1 0 0 is_stmt 0                 # crypto_pwhash/argon2/argon2-encoding.c:0
	shll	$5, %eax
	addl	$-32, %eax
	jmp	.LBB0_36
.Ltmp85:
.LBB0_35:                               # %.critedge167
	#DEBUG_VALUE: argon2_decode_string:ctx <- $rbx
	#DEBUG_VALUE: argon2_decode_string:type <- [DW_OP_LLVM_entry_value 1] $edx
	#DEBUG_VALUE: argon2_decode_string:maxoutlen <- $r14d
	#DEBUG_VALUE: cc_len <- 3
	movl	$-32, %eax
	jmp	.LBB0_36
.Lfunc_end0:
	.size	argon2_decode_string, .Lfunc_end0-argon2_decode_string
	.cfi_endproc
	.file	6 "/usr/include" "string.h"
	.file	7 "/home/leizhenyuu/opt/Anonymous_Repo" "llvm-project/build/lib/clang/21/include/__stddef_size_t.h"
	.file	8 "./include/sodium" "utils.h"
                                        # -- End function
	.p2align	4                               # -- Begin function decode_decimal
	.type	decode_decimal,@function
decode_decimal:                         # @decode_decimal
.Lfunc_begin1:
	.cfi_startproc
# %bb.0:
	#DEBUG_VALUE: decode_decimal:str <- $rdi
	#DEBUG_VALUE: decode_decimal:v <- $rsi
	#DEBUG_VALUE: decode_decimal:orig <- $rdi
	#DEBUG_VALUE: decode_decimal:acc <- 0
	.loc	1 48 13 prologue_end is_stmt 1  # crypto_pwhash/argon2/argon2-encoding.c:48:13
	movzbl	(%rdi), %ecx
.Ltmp86:
	.loc	1 49 21                         # crypto_pwhash/argon2/argon2-encoding.c:49:21
	leal	-58(%rcx), %eax
	cmpb	$-10, %al
	jae	.LBB1_2
.Ltmp87:
.LBB1_1:
	#DEBUG_VALUE: decode_decimal:v <- $rsi
	#DEBUG_VALUE: decode_decimal:orig <- $rdi
	.loc	1 0 21 is_stmt 0                # crypto_pwhash/argon2/argon2-encoding.c:0:21
	xorl	%eax, %eax
	.loc	1 67 1 is_stmt 1                # crypto_pwhash/argon2/argon2-encoding.c:67:1
	retq
.Ltmp88:
.LBB1_2:                                # %.lr.ph.preheader
	#DEBUG_VALUE: decode_decimal:str <- $rdi
	#DEBUG_VALUE: decode_decimal:v <- $rsi
	#DEBUG_VALUE: decode_decimal:orig <- $rdi
	#DEBUG_VALUE: decode_decimal:acc <- 0
	.loc	1 0 1 is_stmt 0                 # crypto_pwhash/argon2/argon2-encoding.c:0:1
	xorl	%eax, %eax
	movabsq	$1844674407370955161, %r9       # imm = 0x1999999999999999
	xorl	%edx, %edx
	movl	%ecx, %r10d
	xorl	%r8d, %r8d
.Ltmp89:
	.p2align	4
.LBB1_3:                                # %.lr.ph
                                        # =>This Inner Loop Header: Depth=1
	#DEBUG_VALUE: decode_decimal:v <- $rsi
	#DEBUG_VALUE: decode_decimal:orig <- $rdi
	#DEBUG_VALUE: decode_decimal:str <- [DW_OP_LLVM_arg 0, DW_OP_LLVM_arg 0, DW_OP_plus, DW_OP_stack_value] undef
	#DEBUG_VALUE: decode_decimal:acc <- $r8
	#DEBUG_VALUE: c <- [DW_OP_LLVM_convert 8 5, DW_OP_LLVM_convert 32 5, DW_OP_constu 48, DW_OP_minus, DW_OP_stack_value] $r10b
	.loc	1 53 17 is_stmt 1               # crypto_pwhash/argon2/argon2-encoding.c:53:17
	cmpq	%r9, %r8
	ja	.LBB1_9
.Ltmp90:
# %bb.4:                                #   in Loop: Header=BB1_3 Depth=1
	#DEBUG_VALUE: decode_decimal:v <- $rsi
	#DEBUG_VALUE: decode_decimal:orig <- $rdi
	#DEBUG_VALUE: decode_decimal:acc <- $r8
	#DEBUG_VALUE: c <- [DW_OP_LLVM_convert 8 5, DW_OP_LLVM_convert 32 5, DW_OP_constu 48, DW_OP_minus, DW_OP_stack_value] $r10b
	.loc	1 52 11                         # crypto_pwhash/argon2/argon2-encoding.c:52:11
	addb	$-48, %r10b
.Ltmp91:
	#DEBUG_VALUE: c <- [DW_OP_LLVM_convert 8 7, DW_OP_LLVM_convert 32 7, DW_OP_stack_value] $r10b
	.loc	1 56 13                         # crypto_pwhash/argon2/argon2-encoding.c:56:13
	addq	%r8, %r8
.Ltmp92:
	leaq	(%r8,%r8,4), %r11
.Ltmp93:
	#DEBUG_VALUE: decode_decimal:acc <- $r11
	.loc	1 57 13                         # crypto_pwhash/argon2/argon2-encoding.c:57:13
	movzbl	%r10b, %r8d
	.loc	1 57 31 is_stmt 0               # crypto_pwhash/argon2/argon2-encoding.c:57:31
	addq	%r11, %r8
	jb	.LBB1_9
.Ltmp94:
# %bb.5:                                #   in Loop: Header=BB1_3 Depth=1
	#DEBUG_VALUE: decode_decimal:v <- $rsi
	#DEBUG_VALUE: decode_decimal:orig <- $rdi
	#DEBUG_VALUE: decode_decimal:acc <- $r11
	#DEBUG_VALUE: c <- [DW_OP_LLVM_convert 8 7, DW_OP_LLVM_convert 32 7, DW_OP_stack_value] $r10b
	#DEBUG_VALUE: decode_decimal:str <- [DW_OP_LLVM_arg 0, DW_OP_consts 1, DW_OP_LLVM_arg 0, DW_OP_plus, DW_OP_plus, DW_OP_stack_value] undef
	#DEBUG_VALUE: decode_decimal:acc <- undef
	.loc	1 48 13 is_stmt 1               # crypto_pwhash/argon2/argon2-encoding.c:48:13
	movzbl	1(%rdi,%rdx), %r10d
.Ltmp95:
	#DEBUG_VALUE: c <- [DW_OP_LLVM_convert 8 5, DW_OP_LLVM_convert 32 5, DW_OP_stack_value] $r10b
	.loc	1 49 21                         # crypto_pwhash/argon2/argon2-encoding.c:49:21
	leal	-58(%r10), %r11d
	incq	%rdx
	cmpb	$-11, %r11b
	ja	.LBB1_3
.Ltmp96:
# %bb.6:                                # %._crit_edge
	#DEBUG_VALUE: decode_decimal:v <- $rsi
	#DEBUG_VALUE: decode_decimal:orig <- $rdi
	#DEBUG_VALUE: decode_decimal:acc <- undef
	.loc	1 62 13                         # crypto_pwhash/argon2/argon2-encoding.c:62:13
	testq	%rdx, %rdx
	.loc	1 62 21 is_stmt 0               # crypto_pwhash/argon2/argon2-encoding.c:62:21
	je	.LBB1_1
.Ltmp97:
# %bb.7:
	#DEBUG_VALUE: decode_decimal:v <- $rsi
	#DEBUG_VALUE: decode_decimal:orig <- $rdi
	.loc	1 62 31                         # crypto_pwhash/argon2/argon2-encoding.c:62:31
	cmpb	$48, %cl
	sete	%al
	cmpq	$1, %rdx
	setne	%cl
	.loc	1 62 38                         # crypto_pwhash/argon2/argon2-encoding.c:62:38
	testb	%al, %cl
	jne	.LBB1_1
.Ltmp98:
# %bb.8:
	#DEBUG_VALUE: decode_decimal:v <- $rsi
	#DEBUG_VALUE: decode_decimal:orig <- $rdi
	.loc	1 0 0                           # crypto_pwhash/argon2/argon2-encoding.c:0
	addq	%rdx, %rdi
.Ltmp99:
	.loc	1 65 8 is_stmt 1                # crypto_pwhash/argon2/argon2-encoding.c:65:8
	movq	%r8, (%rsi)
	movq	%rdi, %rax
.Ltmp100:
.LBB1_9:                                # %.thread
	#DEBUG_VALUE: decode_decimal:v <- $rsi
	.loc	1 67 1                          # crypto_pwhash/argon2/argon2-encoding.c:67:1
	retq
.Ltmp101:
.Lfunc_end1:
	.size	decode_decimal, .Lfunc_end1-decode_decimal
	.cfi_endproc
                                        # -- End function
	.hidden	argon2_encode_string            # -- Begin function argon2_encode_string
	.globl	argon2_encode_string
	.p2align	4
	.type	argon2_encode_string,@function
argon2_encode_string:                   # @argon2_encode_string
.Lfunc_begin2:
	.loc	1 243 0                         # crypto_pwhash/argon2/argon2-encoding.c:243:0
	.cfi_startproc
# %bb.0:
	#DEBUG_VALUE: argon2_encode_string:dst <- $rdi
	#DEBUG_VALUE: argon2_encode_string:dst_len <- $rsi
	#DEBUG_VALUE: argon2_encode_string:ctx <- $rdx
	#DEBUG_VALUE: argon2_encode_string:type <- $ecx
	pushq	%r15
	.cfi_def_cfa_offset 16
	pushq	%r14
	.cfi_def_cfa_offset 24
	pushq	%r13
	.cfi_def_cfa_offset 32
	pushq	%r12
	.cfi_def_cfa_offset 40
	pushq	%rbx
	.cfi_def_cfa_offset 48
	subq	$32, %rsp
	.cfi_def_cfa_offset 80
	.cfi_offset %rbx, -48
	.cfi_offset %r12, -40
	.cfi_offset %r13, -32
	.cfi_offset %r14, -24
	.cfi_offset %r15, -16
	movq	%rsi, %rbx
	movq	%fs:40, %rax
	movq	%rax, 24(%rsp)
.Ltmp102:
	.loc	1 276 5 prologue_end            # crypto_pwhash/argon2/argon2-encoding.c:276:5
	cmpl	$1, %ecx
	je	.LBB2_4
.Ltmp103:
# %bb.1:
	#DEBUG_VALUE: argon2_encode_string:dst <- $rdi
	#DEBUG_VALUE: argon2_encode_string:dst_len <- $rbx
	#DEBUG_VALUE: argon2_encode_string:ctx <- $rdx
	#DEBUG_VALUE: argon2_encode_string:type <- $ecx
	cmpl	$2, %ecx
	jne	.LBB2_32
.Ltmp104:
# %bb.2:
	#DEBUG_VALUE: argon2_encode_string:dst <- $rdi
	#DEBUG_VALUE: argon2_encode_string:dst_len <- $rbx
	#DEBUG_VALUE: argon2_encode_string:ctx <- $rdx
	#DEBUG_VALUE: argon2_encode_string:type <- $ecx
	#DEBUG_VALUE: pp_len <- 12
	.loc	1 278 65                        # crypto_pwhash/argon2/argon2-encoding.c:278:65
	cmpq	$13, %rbx
	jb	.LBB2_32
.Ltmp105:
# %bb.3:                                # %.thread
	#DEBUG_VALUE: argon2_encode_string:dst <- $rdi
	#DEBUG_VALUE: argon2_encode_string:dst_len <- $rbx
	#DEBUG_VALUE: argon2_encode_string:ctx <- $rdx
	#DEBUG_VALUE: argon2_encode_string:type <- $ecx
	#DEBUG_VALUE: pp_len <- 12
	#DEBUG_VALUE: memcpy:__dest <- $rdi
	#DEBUG_VALUE: memcpy:__len <- 13
	.loc	1 0 65 is_stmt 0                # crypto_pwhash/argon2/argon2-encoding.c:0:65
	movabsq	$17299872254866030, %rax        # imm = 0x3D76246469326E
.Ltmp106:
	.file	9 "/usr/include/x86_64-linux-gnu/bits" "string_fortified.h"
	.loc	9 29 10 is_stmt 1               # /usr/include/x86_64-linux-gnu/bits/string_fortified.h:29:10 @[ crypto_pwhash/argon2/argon2-encoding.c:278:110 ]
	movq	%rax, 5(%rdi)
	movabsq	$7580242547573940516, %rax      # imm = 0x69326E6F67726124
	movq	%rdi, %r15
	movq	%rax, (%rdi)
	movq	$-12, %r14
	movl	$12, %r12d
.Ltmp107:
	#DEBUG_VALUE: memcpy:__src <- undef
	.loc	9 0 10 is_stmt 0                # /usr/include/x86_64-linux-gnu/bits/string_fortified.h:0:10
	jmp	.LBB2_6
.Ltmp108:
.LBB2_4:
	#DEBUG_VALUE: argon2_encode_string:dst <- $rdi
	#DEBUG_VALUE: argon2_encode_string:dst_len <- $rbx
	#DEBUG_VALUE: argon2_encode_string:ctx <- $rdx
	#DEBUG_VALUE: argon2_encode_string:type <- $ecx
	#DEBUG_VALUE: pp_len <- 11
	.loc	1 280 64 is_stmt 1              # crypto_pwhash/argon2/argon2-encoding.c:280:64
	cmpq	$12, %rbx
	jb	.LBB2_32
.Ltmp109:
# %bb.5:                                # %.thread204
	#DEBUG_VALUE: argon2_encode_string:dst <- $rdi
	#DEBUG_VALUE: argon2_encode_string:dst_len <- $rbx
	#DEBUG_VALUE: argon2_encode_string:ctx <- $rdx
	#DEBUG_VALUE: argon2_encode_string:type <- $ecx
	#DEBUG_VALUE: pp_len <- 11
	#DEBUG_VALUE: memcpy:__dest <- $rdi
	#DEBUG_VALUE: memcpy:__len <- 12
	.loc	1 0 64 is_stmt 0                # crypto_pwhash/argon2/argon2-encoding.c:0:64
	movabsq	$7580242547573940516, %rax      # imm = 0x69326E6F67726124
.Ltmp110:
	.loc	9 29 10 is_stmt 1               # /usr/include/x86_64-linux-gnu/bits/string_fortified.h:29:10 @[ crypto_pwhash/argon2/argon2-encoding.c:280:109 ]
	movq	%rax, (%rdi)
	movq	%rdi, %r15
	movl	$4027940, 8(%rdi)               # imm = 0x3D7624
	movq	$-11, %r14
	movl	$11, %r12d
.Ltmp111:
	#DEBUG_VALUE: memcpy:__src <- undef
.LBB2_6:
	#DEBUG_VALUE: argon2_encode_string:dst <- $r15
	#DEBUG_VALUE: argon2_encode_string:dst_len <- $rbx
	#DEBUG_VALUE: argon2_encode_string:ctx <- $rdx
	#DEBUG_VALUE: argon2_encode_string:type <- $ecx
	#DEBUG_VALUE: argon2_encode_string:dst <- undef
	#DEBUG_VALUE: argon2_encode_string:dst_len <- undef
	.loc	9 0 10 is_stmt 0                # /usr/include/x86_64-linux-gnu/bits/string_fortified.h:0:10
	movq	%rdx, %r13
	.loc	1 284 25 is_stmt 1              # crypto_pwhash/argon2/argon2-encoding.c:284:25
	movq	%rdx, %rdi
	callq	argon2_validate_inputs@PLT
.Ltmp112:
	#DEBUG_VALUE: argon2_encode_string:type <- [DW_OP_LLVM_entry_value 1] $ecx
	#DEBUG_VALUE: argon2_encode_string:ctx <- $r13
	#DEBUG_VALUE: argon2_encode_string:validation_result <- $eax
	.loc	1 285 27                        # crypto_pwhash/argon2/argon2-encoding.c:285:27
	testl	%eax, %eax
	jne	.LBB2_33
.Ltmp113:
# %bb.7:                                # %u32_to_string.exit
	#DEBUG_VALUE: argon2_encode_string:ctx <- $r13
	#DEBUG_VALUE: argon2_encode_string:type <- [DW_OP_LLVM_entry_value 1] $ecx
	#DEBUG_VALUE: argon2_encode_string:validation_result <- $eax
	.loc	1 0 0 is_stmt 0                 # crypto_pwhash/argon2/argon2-encoding.c:0
	addq	%r14, %rbx
.Ltmp114:
	#DEBUG_VALUE: argon2_encode_string:dst_len <- $rbx
	#DEBUG_VALUE: u32_to_string:str <- [DW_OP_plus_uconst 2, DW_OP_stack_value] $rsp
	#DEBUG_VALUE: u32_to_string:i <- 8
	#DEBUG_VALUE: u32_to_string:tmp <- [DW_OP_LLVM_fragment 64 16] 14641
	#DEBUG_VALUE: u32_to_string:x <- 0
	#DEBUG_VALUE: memcpy:__dest <- [DW_OP_plus_uconst 2, DW_OP_stack_value] $rsp
	#DEBUG_VALUE: memcpy:__src <- undef
	#DEBUG_VALUE: memcpy:__len <- 2
	.loc	9 29 10 is_stmt 1               # /usr/include/x86_64-linux-gnu/bits/string_fortified.h:29:10 @[ crypto_pwhash/argon2/argon2-encoding.c:224:5 @[ crypto_pwhash/argon2/argon2-encoding.c:288:25 ] ]
	movw	$14641, 2(%rsp)                 # imm = 0x3931
.Ltmp115:
	.loc	1 225 27                        # crypto_pwhash/argon2/argon2-encoding.c:225:27 @[ crypto_pwhash/argon2/argon2-encoding.c:288:25 ]
	movb	$0, 4(%rsp)
	leaq	2(%rsp), %rdi
.Ltmp116:
	.loc	1 288 89                        # crypto_pwhash/argon2/argon2-encoding.c:288:89
	callq	strlen@PLT
.Ltmp117:
	#DEBUG_VALUE: pp_len <- $rax
	.loc	1 288 113 is_stmt 0             # crypto_pwhash/argon2/argon2-encoding.c:288:113
	subq	%rax, %rbx
.Ltmp118:
	jbe	.LBB2_32
.Ltmp119:
# %bb.8:
	#DEBUG_VALUE: argon2_encode_string:ctx <- $r13
	#DEBUG_VALUE: argon2_encode_string:type <- [DW_OP_LLVM_entry_value 1] $ecx
	#DEBUG_VALUE: pp_len <- $rax
	.loc	1 0 113                         # crypto_pwhash/argon2/argon2-encoding.c:0:113
	movq	%rax, %r14
	movq	%r15, %rdi
	addq	%r12, %rdi
.Ltmp120:
	#DEBUG_VALUE: argon2_encode_string:dst <- $rdi
	.loc	1 288 182                       # crypto_pwhash/argon2/argon2-encoding.c:288:182
	leaq	1(%rax), %rdx
.Ltmp121:
	#DEBUG_VALUE: memcpy:__len <- $rdx
	#DEBUG_VALUE: memcpy:__dest <- $rdi
	#DEBUG_VALUE: memcpy:__src <- [DW_OP_plus_uconst 2, DW_OP_stack_value] $rsp
	.loc	1 0 182                         # crypto_pwhash/argon2/argon2-encoding.c:0:182
	leaq	2(%rsp), %rsi
	movq	%rdi, %r15
.Ltmp122:
	.loc	9 29 10 is_stmt 1               # /usr/include/x86_64-linux-gnu/bits/string_fortified.h:29:10 @[ crypto_pwhash/argon2/argon2-encoding.c:288:158 ]
	callq	memcpy@PLT
.Ltmp123:
	#DEBUG_VALUE: memcpy:__dest <- $r15
	#DEBUG_VALUE: pp_len <- $r14
	#DEBUG_VALUE: argon2_encode_string:dst <- [DW_OP_LLVM_arg 0, DW_OP_LLVM_arg 1, DW_OP_plus, DW_OP_stack_value] $r15, $r14
	#DEBUG_VALUE: argon2_encode_string:dst_len <- undef
	#DEBUG_VALUE: pp_len <- 3
	.loc	1 289 52                        # crypto_pwhash/argon2/argon2-encoding.c:289:52
	cmpq	$4, %rbx
	jb	.LBB2_32
.Ltmp124:
# %bb.9:
	#DEBUG_VALUE: argon2_encode_string:dst <- [DW_OP_LLVM_arg 0, DW_OP_LLVM_arg 1, DW_OP_plus, DW_OP_stack_value] $r15, $r14
	#DEBUG_VALUE: argon2_encode_string:ctx <- $r13
	#DEBUG_VALUE: argon2_encode_string:type <- [DW_OP_LLVM_entry_value 1] $ecx
	#DEBUG_VALUE: pp_len <- $r14
	#DEBUG_VALUE: pp_len <- 3
	.loc	1 288 0                         # crypto_pwhash/argon2/argon2-encoding.c:288
	movq	%r14, %rax
	.loc	1 288 192 is_stmt 0             # crypto_pwhash/argon2/argon2-encoding.c:288:192
	addq	%r15, %r14
.Ltmp125:
	#DEBUG_VALUE: pp_len <- $rax
	#DEBUG_VALUE: argon2_encode_string:dst <- [DW_OP_LLVM_arg 0, DW_OP_LLVM_arg 1, DW_OP_plus, DW_OP_stack_value] $r15, $rax
	#DEBUG_VALUE: argon2_encode_string:dst <- $r14
	#DEBUG_VALUE: memcpy:__dest <- $r14
	#DEBUG_VALUE: memcpy:__src <- undef
	#DEBUG_VALUE: memcpy:__len <- 4
	.loc	9 29 10 is_stmt 1               # /usr/include/x86_64-linux-gnu/bits/string_fortified.h:29:10 @[ crypto_pwhash/argon2/argon2-encoding.c:289:97 ]
	movl	$4025636, (%r15,%rax)           # imm = 0x3D6D24
.Ltmp126:
	.loc	1 290 49                        # crypto_pwhash/argon2/argon2-encoding.c:290:49
	movl	80(%r13), %ecx
	#DEBUG_VALUE: u32_to_string:x <- $ecx
	#DEBUG_VALUE: u32_to_string:tmp <- [DW_OP_plus_uconst 14, DW_OP_deref] $rsp
	#DEBUG_VALUE: u32_to_string:str <- [DW_OP_plus_uconst 2, DW_OP_stack_value] $rsp
	movl	$9, %eax
	xorl	%esi, %esi
	#DEBUG_VALUE: u32_to_string:i <- 10
	movl	$3435973837, %edx               # imm = 0xCCCCCCCD
.Ltmp127:
	.loc	1 0 49 is_stmt 0                # :0:49
.Ltmp128:
	.p2align	4
.LBB2_10:                               # =>This Inner Loop Header: Depth=1
	#DEBUG_VALUE: argon2_encode_string:dst <- $r14
	#DEBUG_VALUE: argon2_encode_string:ctx <- $r13
	#DEBUG_VALUE: argon2_encode_string:type <- [DW_OP_LLVM_entry_value 1] $ecx
	#DEBUG_VALUE: u32_to_string:x <- $ecx
	#DEBUG_VALUE: u32_to_string:tmp <- [DW_OP_plus_uconst 14, DW_OP_deref] $rsp
	#DEBUG_VALUE: u32_to_string:str <- [DW_OP_plus_uconst 2, DW_OP_stack_value] $rsp
	movl	%ecx, %edi
.Ltmp129:
	#DEBUG_VALUE: u32_to_string:i <- [DW_OP_consts 18446744073709551615, DW_OP_mul, DW_OP_consts 10, DW_OP_plus, DW_OP_stack_value] $rsi
	#DEBUG_VALUE: u32_to_string:x <- $ecx
	.loc	1 222 11 is_stmt 1              # crypto_pwhash/argon2/argon2-encoding.c:222:11 @[ crypto_pwhash/argon2/argon2-encoding.c:290:25 ]
	movl	%ecx, %ecx
.Ltmp130:
	imulq	%rdx, %rcx
.Ltmp131:
	#DEBUG_VALUE: u32_to_string:x <- $edi
	shrq	$35, %rcx
.Ltmp132:
	#DEBUG_VALUE: u32_to_string:x <- $ecx
	leal	(%rcx,%rcx), %r8d
	leal	(%r8,%r8,4), %r8d
	movl	%edi, %r9d
	subl	%r8d, %r9d
	.loc	1 221 20                        # crypto_pwhash/argon2/argon2-encoding.c:221:20 @[ crypto_pwhash/argon2/argon2-encoding.c:290:25 ]
	orb	$48, %r9b
.Ltmp133:
	#DEBUG_VALUE: u32_to_string:i <- [DW_OP_consts 18446744073709551615, DW_OP_mul, DW_OP_consts 9, DW_OP_plus, DW_OP_stack_value] $rsi
	.loc	1 221 18 is_stmt 0              # crypto_pwhash/argon2/argon2-encoding.c:221:18 @[ crypto_pwhash/argon2/argon2-encoding.c:290:25 ]
	movb	%r9b, 14(%rsp,%rax)
	.loc	1 223 5 is_stmt 1               # crypto_pwhash/argon2/argon2-encoding.c:223:5 @[ crypto_pwhash/argon2/argon2-encoding.c:290:25 ]
	leaq	1(%rsi), %r15
.Ltmp134:
	.loc	1 223 16 is_stmt 0              # crypto_pwhash/argon2/argon2-encoding.c:223:16 @[ crypto_pwhash/argon2/argon2-encoding.c:290:25 ]
	cmpl	$10, %edi
.Ltmp135:
	.loc	1 223 5                         # crypto_pwhash/argon2/argon2-encoding.c:223:5 @[ crypto_pwhash/argon2/argon2-encoding.c:290:25 ]
	jb	.LBB2_12
.Ltmp136:
# %bb.11:                               #   in Loop: Header=BB2_10 Depth=1
	#DEBUG_VALUE: argon2_encode_string:dst <- $r14
	#DEBUG_VALUE: argon2_encode_string:ctx <- $r13
	#DEBUG_VALUE: argon2_encode_string:type <- [DW_OP_LLVM_entry_value 1] $ecx
	#DEBUG_VALUE: u32_to_string:x <- $ecx
	#DEBUG_VALUE: u32_to_string:tmp <- [DW_OP_plus_uconst 14, DW_OP_deref] $rsp
	#DEBUG_VALUE: u32_to_string:str <- [DW_OP_plus_uconst 2, DW_OP_stack_value] $rsp
	#DEBUG_VALUE: u32_to_string:i <- [DW_OP_consts 18446744073709551615, DW_OP_mul, DW_OP_consts 9, DW_OP_plus, DW_OP_stack_value] $rsi
	decq	%rax
	cmpq	$9, %rsi
	movq	%r15, %rsi
.Ltmp137:
	jne	.LBB2_10
.Ltmp138:
.LBB2_12:                               # %u32_to_string.exit201
	#DEBUG_VALUE: argon2_encode_string:dst <- $r14
	#DEBUG_VALUE: argon2_encode_string:ctx <- $r13
	#DEBUG_VALUE: argon2_encode_string:type <- [DW_OP_LLVM_entry_value 1] $ecx
	#DEBUG_VALUE: pp_len <- 3
	#DEBUG_VALUE: u32_to_string:x <- $ecx
	#DEBUG_VALUE: u32_to_string:tmp <- [DW_OP_plus_uconst 14, DW_OP_deref] $rsp
	#DEBUG_VALUE: u32_to_string:str <- [DW_OP_plus_uconst 2, DW_OP_stack_value] $rsp
	.loc	1 0 5                           # crypto_pwhash/argon2/argon2-encoding.c:0:5
	leaq	14(%rsp), %rsi
.Ltmp139:
	.loc	1 289 133 is_stmt 1             # crypto_pwhash/argon2/argon2-encoding.c:289:133
	subq	%r15, %rsi
	addq	$10, %rsi
.Ltmp140:
	#DEBUG_VALUE: argon2_encode_string:dst <- undef
	.loc	1 289 152 is_stmt 0             # crypto_pwhash/argon2/argon2-encoding.c:289:152
	addq	$-3, %rbx
.Ltmp141:
	#DEBUG_VALUE: argon2_encode_string:dst_len <- $rbx
	#DEBUG_VALUE: memcpy:__dest <- [DW_OP_plus_uconst 2, DW_OP_stack_value] $rsp
	#DEBUG_VALUE: memcpy:__src <- undef
	#DEBUG_VALUE: memcpy:__len <- undef
	.loc	1 0 152                         # crypto_pwhash/argon2/argon2-encoding.c:0:152
	leaq	2(%rsp), %r12
.Ltmp142:
	.loc	9 29 10 is_stmt 1               # /usr/include/x86_64-linux-gnu/bits/string_fortified.h:29:10 @[ crypto_pwhash/argon2/argon2-encoding.c:224:5 @[ crypto_pwhash/argon2/argon2-encoding.c:290:25 ] ]
	movl	$11, %ecx
.Ltmp143:
	movq	%r12, %rdi
	movq	%r15, %rdx
	callq	__memcpy_chk@PLT
.Ltmp144:
	.loc	1 225 27                        # crypto_pwhash/argon2/argon2-encoding.c:225:27 @[ crypto_pwhash/argon2/argon2-encoding.c:290:25 ]
	movb	$0, 2(%rsp,%r15)
.Ltmp145:
	.loc	1 290 79                        # crypto_pwhash/argon2/argon2-encoding.c:290:79
	movq	%r12, %rdi
	callq	strlen@PLT
.Ltmp146:
	#DEBUG_VALUE: pp_len <- $rax
	.loc	1 290 103 is_stmt 0             # crypto_pwhash/argon2/argon2-encoding.c:290:103
	subq	%rax, %rbx
.Ltmp147:
	jbe	.LBB2_32
.Ltmp148:
# %bb.13:
	#DEBUG_VALUE: argon2_encode_string:ctx <- $r13
	#DEBUG_VALUE: argon2_encode_string:type <- [DW_OP_LLVM_entry_value 1] $ecx
	#DEBUG_VALUE: pp_len <- $rax
	.loc	1 0 0                           # crypto_pwhash/argon2/argon2-encoding.c:0
	movq	%rax, %r12
	addq	$3, %r14
.Ltmp149:
	#DEBUG_VALUE: argon2_encode_string:dst <- $r14
	.loc	1 290 172                       # crypto_pwhash/argon2/argon2-encoding.c:290:172
	leaq	1(%rax), %rdx
.Ltmp150:
	#DEBUG_VALUE: memcpy:__len <- $rdx
	#DEBUG_VALUE: memcpy:__dest <- $r14
	#DEBUG_VALUE: memcpy:__src <- [DW_OP_plus_uconst 2, DW_OP_stack_value] $rsp
	.loc	1 0 172                         # crypto_pwhash/argon2/argon2-encoding.c:0:172
	leaq	2(%rsp), %rsi
.Ltmp151:
	.loc	9 29 10 is_stmt 1               # /usr/include/x86_64-linux-gnu/bits/string_fortified.h:29:10 @[ crypto_pwhash/argon2/argon2-encoding.c:290:148 ]
	movq	%r14, %rdi
	callq	memcpy@PLT
.Ltmp152:
	#DEBUG_VALUE: pp_len <- $r12
	#DEBUG_VALUE: argon2_encode_string:dst <- [DW_OP_LLVM_arg 0, DW_OP_LLVM_arg 1, DW_OP_plus, DW_OP_stack_value] $r14, $r12
	#DEBUG_VALUE: argon2_encode_string:dst_len <- undef
	#DEBUG_VALUE: pp_len <- 3
	.loc	1 291 52                        # crypto_pwhash/argon2/argon2-encoding.c:291:52
	cmpq	$4, %rbx
	jb	.LBB2_32
.Ltmp153:
# %bb.14:
	#DEBUG_VALUE: argon2_encode_string:dst <- [DW_OP_LLVM_arg 0, DW_OP_LLVM_arg 1, DW_OP_plus, DW_OP_stack_value] $r14, $r12
	#DEBUG_VALUE: argon2_encode_string:ctx <- $r13
	#DEBUG_VALUE: argon2_encode_string:type <- [DW_OP_LLVM_entry_value 1] $ecx
	#DEBUG_VALUE: pp_len <- 3
	#DEBUG_VALUE: argon2_encode_string:dst <- undef
	#DEBUG_VALUE: memcpy:__dest <- undef
	#DEBUG_VALUE: memcpy:__src <- undef
	#DEBUG_VALUE: memcpy:__len <- 4
	.loc	9 29 10                         # /usr/include/x86_64-linux-gnu/bits/string_fortified.h:29:10 @[ crypto_pwhash/argon2/argon2-encoding.c:291:97 ]
	movl	$4027436, (%r14,%r12)           # imm = 0x3D742C
.Ltmp154:
	#DEBUG_VALUE: argon2_encode_string:dst <- [DW_OP_plus_uconst 3, DW_OP_stack_value] undef
	.loc	1 291 152                       # crypto_pwhash/argon2/argon2-encoding.c:291:152
	addq	$-3, %rbx
.Ltmp155:
	#DEBUG_VALUE: argon2_encode_string:dst_len <- $rbx
	.loc	1 292 49                        # crypto_pwhash/argon2/argon2-encoding.c:292:49
	movl	76(%r13), %esi
	leaq	2(%rsp), %r15
	.loc	1 292 25 is_stmt 0              # crypto_pwhash/argon2/argon2-encoding.c:292:25
	movq	%r15, %rdi
	callq	u32_to_string
.Ltmp156:
	.loc	1 292 79                        # crypto_pwhash/argon2/argon2-encoding.c:292:79
	movq	%r15, %rdi
	callq	strlen@PLT
.Ltmp157:
	#DEBUG_VALUE: pp_len <- $rax
	.loc	1 292 103                       # crypto_pwhash/argon2/argon2-encoding.c:292:103
	subq	%rax, %rbx
.Ltmp158:
	jbe	.LBB2_32
.Ltmp159:
# %bb.15:
	#DEBUG_VALUE: argon2_encode_string:ctx <- $r13
	#DEBUG_VALUE: argon2_encode_string:type <- [DW_OP_LLVM_entry_value 1] $ecx
	#DEBUG_VALUE: pp_len <- 3
	#DEBUG_VALUE: pp_len <- $rax
	.loc	1 0 0                           # crypto_pwhash/argon2/argon2-encoding.c:0
	movq	%rax, %r15
	addq	%r12, %r14
.Ltmp160:
	#DEBUG_VALUE: argon2_encode_string:dst <- [DW_OP_plus_uconst 3, DW_OP_stack_value] $r14
	.loc	1 291 133 is_stmt 1             # crypto_pwhash/argon2/argon2-encoding.c:291:133
	addq	$3, %r14
.Ltmp161:
	#DEBUG_VALUE: argon2_encode_string:dst <- $r14
	.loc	1 292 172                       # crypto_pwhash/argon2/argon2-encoding.c:292:172
	leaq	1(%rax), %rdx
.Ltmp162:
	#DEBUG_VALUE: memcpy:__len <- $rdx
	#DEBUG_VALUE: memcpy:__dest <- $r14
	#DEBUG_VALUE: memcpy:__src <- [DW_OP_plus_uconst 2, DW_OP_stack_value] $rsp
	.loc	1 0 172 is_stmt 0               # crypto_pwhash/argon2/argon2-encoding.c:0:172
	leaq	2(%rsp), %rsi
.Ltmp163:
	.loc	9 29 10 is_stmt 1               # /usr/include/x86_64-linux-gnu/bits/string_fortified.h:29:10 @[ crypto_pwhash/argon2/argon2-encoding.c:292:148 ]
	movq	%r14, %rdi
	callq	memcpy@PLT
.Ltmp164:
	#DEBUG_VALUE: pp_len <- $r15
	#DEBUG_VALUE: argon2_encode_string:dst <- [DW_OP_LLVM_arg 0, DW_OP_LLVM_arg 1, DW_OP_plus, DW_OP_stack_value] $r14, $r15
	#DEBUG_VALUE: argon2_encode_string:dst_len <- undef
	#DEBUG_VALUE: pp_len <- 3
	.loc	1 293 52                        # crypto_pwhash/argon2/argon2-encoding.c:293:52
	cmpq	$4, %rbx
	jb	.LBB2_32
.Ltmp165:
# %bb.16:
	#DEBUG_VALUE: argon2_encode_string:dst <- [DW_OP_LLVM_arg 0, DW_OP_LLVM_arg 1, DW_OP_plus, DW_OP_stack_value] $r14, $r15
	#DEBUG_VALUE: argon2_encode_string:ctx <- $r13
	#DEBUG_VALUE: argon2_encode_string:type <- [DW_OP_LLVM_entry_value 1] $ecx
	#DEBUG_VALUE: pp_len <- 3
	#DEBUG_VALUE: argon2_encode_string:dst <- undef
	#DEBUG_VALUE: memcpy:__dest <- undef
	#DEBUG_VALUE: memcpy:__src <- undef
	#DEBUG_VALUE: memcpy:__len <- 4
	.loc	9 29 10                         # /usr/include/x86_64-linux-gnu/bits/string_fortified.h:29:10 @[ crypto_pwhash/argon2/argon2-encoding.c:293:97 ]
	movl	$4026412, (%r14,%r15)           # imm = 0x3D702C
.Ltmp166:
	#DEBUG_VALUE: argon2_encode_string:dst <- [DW_OP_plus_uconst 3, DW_OP_stack_value] undef
	.loc	1 293 152                       # crypto_pwhash/argon2/argon2-encoding.c:293:152
	addq	$-3, %rbx
.Ltmp167:
	#DEBUG_VALUE: argon2_encode_string:dst_len <- $rbx
	.loc	1 294 49                        # crypto_pwhash/argon2/argon2-encoding.c:294:49
	movl	84(%r13), %esi
	leaq	2(%rsp), %r12
	.loc	1 294 25 is_stmt 0              # crypto_pwhash/argon2/argon2-encoding.c:294:25
	movq	%r12, %rdi
	callq	u32_to_string
.Ltmp168:
	.loc	1 294 78                        # crypto_pwhash/argon2/argon2-encoding.c:294:78
	movq	%r12, %rdi
	callq	strlen@PLT
.Ltmp169:
	#DEBUG_VALUE: pp_len <- $rax
	.loc	1 294 102                       # crypto_pwhash/argon2/argon2-encoding.c:294:102
	subq	%rax, %rbx
.Ltmp170:
	jbe	.LBB2_32
.Ltmp171:
# %bb.17:
	#DEBUG_VALUE: argon2_encode_string:ctx <- $r13
	#DEBUG_VALUE: argon2_encode_string:type <- [DW_OP_LLVM_entry_value 1] $ecx
	#DEBUG_VALUE: pp_len <- 3
	#DEBUG_VALUE: pp_len <- $rax
	.loc	1 0 0                           # crypto_pwhash/argon2/argon2-encoding.c:0
	movq	%rax, %r12
	addq	%r15, %r14
.Ltmp172:
	#DEBUG_VALUE: argon2_encode_string:dst <- [DW_OP_plus_uconst 3, DW_OP_stack_value] $r14
	.loc	1 293 133 is_stmt 1             # crypto_pwhash/argon2/argon2-encoding.c:293:133
	addq	$3, %r14
.Ltmp173:
	#DEBUG_VALUE: argon2_encode_string:dst <- $r14
	.loc	1 294 171                       # crypto_pwhash/argon2/argon2-encoding.c:294:171
	leaq	1(%rax), %rdx
.Ltmp174:
	#DEBUG_VALUE: memcpy:__len <- $rdx
	#DEBUG_VALUE: memcpy:__dest <- $r14
	#DEBUG_VALUE: memcpy:__src <- [DW_OP_plus_uconst 2, DW_OP_stack_value] $rsp
	.loc	1 0 171 is_stmt 0               # crypto_pwhash/argon2/argon2-encoding.c:0:171
	leaq	2(%rsp), %rsi
.Ltmp175:
	.loc	9 29 10 is_stmt 1               # /usr/include/x86_64-linux-gnu/bits/string_fortified.h:29:10 @[ crypto_pwhash/argon2/argon2-encoding.c:294:147 ]
	movq	%r14, %rdi
	callq	memcpy@PLT
.Ltmp176:
	#DEBUG_VALUE: pp_len <- $r12
	#DEBUG_VALUE: argon2_encode_string:dst <- [DW_OP_LLVM_arg 0, DW_OP_LLVM_arg 1, DW_OP_plus, DW_OP_stack_value] $r14, $r12
	#DEBUG_VALUE: argon2_encode_string:dst_len <- undef
	#DEBUG_VALUE: pp_len <- 1
	.loc	1 296 50                        # crypto_pwhash/argon2/argon2-encoding.c:296:50
	cmpq	$2, %rbx
	jb	.LBB2_32
.Ltmp177:
# %bb.18:
	#DEBUG_VALUE: argon2_encode_string:dst <- [DW_OP_LLVM_arg 0, DW_OP_LLVM_arg 1, DW_OP_plus, DW_OP_stack_value] $r14, $r12
	#DEBUG_VALUE: argon2_encode_string:ctx <- $r13
	#DEBUG_VALUE: argon2_encode_string:type <- [DW_OP_LLVM_entry_value 1] $ecx
	#DEBUG_VALUE: pp_len <- 1
	#DEBUG_VALUE: argon2_encode_string:dst <- [DW_OP_LLVM_arg 0, DW_OP_LLVM_arg 1, DW_OP_plus, DW_OP_stack_value] $r14, $r12
	#DEBUG_VALUE: memcpy:__dest <- [DW_OP_LLVM_arg 0, DW_OP_LLVM_arg 1, DW_OP_plus, DW_OP_stack_value] $r14, $r12
	#DEBUG_VALUE: memcpy:__src <- undef
	#DEBUG_VALUE: memcpy:__len <- 2
	.loc	9 29 10                         # /usr/include/x86_64-linux-gnu/bits/string_fortified.h:29:10 @[ crypto_pwhash/argon2/argon2-encoding.c:296:95 ]
	movw	$36, (%r14,%r12)
.Ltmp178:
	.loc	1 296 129                       # crypto_pwhash/argon2/argon2-encoding.c:296:129
	addq	%r12, %r14
.Ltmp179:
	incq	%r14
.Ltmp180:
	#DEBUG_VALUE: argon2_encode_string:dst <- $r14
	.loc	1 296 148 is_stmt 0             # crypto_pwhash/argon2/argon2-encoding.c:296:148
	decq	%rbx
.Ltmp181:
	#DEBUG_VALUE: argon2_encode_string:dst_len <- $rbx
	.loc	1 297 67 is_stmt 1              # crypto_pwhash/argon2/argon2-encoding.c:297:67
	movq	32(%r13), %rdx
	.loc	1 297 80 is_stmt 0              # crypto_pwhash/argon2/argon2-encoding.c:297:80
	movl	40(%r13), %ecx
	.loc	1 297 29                        # crypto_pwhash/argon2/argon2-encoding.c:297:29
	movq	%r14, %rdi
	movq	%rbx, %rsi
	movl	$3, %r8d
	callq	sodium_bin2base64@PLT
.Ltmp182:
	.loc	1 297 93                        # crypto_pwhash/argon2/argon2-encoding.c:297:93
	testq	%rax, %rax
	je	.LBB2_32
.Ltmp183:
# %bb.19:
	#DEBUG_VALUE: argon2_encode_string:dst <- $r14
	#DEBUG_VALUE: argon2_encode_string:dst_len <- $rbx
	#DEBUG_VALUE: argon2_encode_string:ctx <- $r13
	#DEBUG_VALUE: argon2_encode_string:type <- [DW_OP_LLVM_entry_value 1] $ecx
	.loc	1 297 150                       # crypto_pwhash/argon2/argon2-encoding.c:297:150
	movq	%r14, %rdi
	callq	strlen@PLT
.Ltmp184:
	movq	%rax, %rcx
.Ltmp185:
	#DEBUG_VALUE: sb_len <- $rax
	#DEBUG_VALUE: argon2_encode_string:dst <- [DW_OP_LLVM_arg 0, DW_OP_LLVM_arg 1, DW_OP_plus, DW_OP_stack_value] $r14, $rax
	.loc	1 297 186                       # crypto_pwhash/argon2/argon2-encoding.c:297:186
	subq	%rax, %rbx
.Ltmp186:
	#DEBUG_VALUE: argon2_encode_string:dst_len <- $rbx
	#DEBUG_VALUE: pp_len <- 1
	.loc	1 0 186                         # crypto_pwhash/argon2/argon2-encoding.c:0:186
	movl	$-31, %eax
.Ltmp187:
	#DEBUG_VALUE: sb_len <- $rcx
	#DEBUG_VALUE: argon2_encode_string:dst <- [DW_OP_LLVM_arg 0, DW_OP_LLVM_arg 1, DW_OP_plus, DW_OP_stack_value] $r14, $rcx
	.loc	1 299 50 is_stmt 1              # crypto_pwhash/argon2/argon2-encoding.c:299:50
	cmpq	$2, %rbx
	jb	.LBB2_33
.Ltmp188:
# %bb.20:
	#DEBUG_VALUE: argon2_encode_string:dst <- [DW_OP_LLVM_arg 0, DW_OP_LLVM_arg 1, DW_OP_plus, DW_OP_stack_value] $r14, $rcx
	#DEBUG_VALUE: argon2_encode_string:dst_len <- $rbx
	#DEBUG_VALUE: argon2_encode_string:ctx <- $r13
	#DEBUG_VALUE: argon2_encode_string:type <- [DW_OP_LLVM_entry_value 1] $ecx
	#DEBUG_VALUE: pp_len <- 1
	#DEBUG_VALUE: argon2_encode_string:dst <- [DW_OP_LLVM_arg 0, DW_OP_LLVM_arg 1, DW_OP_plus, DW_OP_stack_value] $r14, $rcx
	#DEBUG_VALUE: memcpy:__dest <- [DW_OP_LLVM_arg 0, DW_OP_LLVM_arg 1, DW_OP_plus, DW_OP_stack_value] $r14, $rcx
	#DEBUG_VALUE: memcpy:__src <- undef
	#DEBUG_VALUE: memcpy:__len <- 2
	.loc	9 29 10                         # /usr/include/x86_64-linux-gnu/bits/string_fortified.h:29:10 @[ crypto_pwhash/argon2/argon2-encoding.c:299:95 ]
	movw	$36, (%r14,%rcx)
.Ltmp189:
	.loc	1 299 129                       # crypto_pwhash/argon2/argon2-encoding.c:299:129
	leaq	(%r14,%rcx), %rdi
	incq	%rdi
.Ltmp190:
	#DEBUG_VALUE: argon2_encode_string:dst <- $rdi
	.loc	1 299 148 is_stmt 0             # crypto_pwhash/argon2/argon2-encoding.c:299:148
	decq	%rbx
.Ltmp191:
	#DEBUG_VALUE: argon2_encode_string:dst_len <- $rbx
	.loc	1 300 67 is_stmt 1              # crypto_pwhash/argon2/argon2-encoding.c:300:67
	movq	(%r13), %rdx
	.loc	1 300 79 is_stmt 0              # crypto_pwhash/argon2/argon2-encoding.c:300:79
	movl	8(%r13), %ecx
.Ltmp192:
	.loc	1 300 29                        # crypto_pwhash/argon2/argon2-encoding.c:300:29
	movq	%rbx, %rsi
	movl	$3, %r8d
	callq	sodium_bin2base64@PLT
.Ltmp193:
	.loc	1 0 29                          # crypto_pwhash/argon2/argon2-encoding.c:0:29
	xorl	%ecx, %ecx
	.loc	1 300 91                        # crypto_pwhash/argon2/argon2-encoding.c:300:91
	testq	%rax, %rax
	movl	$-31, %eax
	cmovnel	%ecx, %eax
	jmp	.LBB2_33
.Ltmp194:
.LBB2_32:
	#DEBUG_VALUE: argon2_encode_string:ctx <- [DW_OP_LLVM_entry_value 1] $rdx
	#DEBUG_VALUE: argon2_encode_string:type <- [DW_OP_LLVM_entry_value 1] $ecx
	.loc	1 0 91                          # crypto_pwhash/argon2/argon2-encoding.c:0:91
	movl	$-31, %eax
.Ltmp195:
.LBB2_33:                               # %.thread247
	#DEBUG_VALUE: argon2_encode_string:ctx <- [DW_OP_LLVM_entry_value 1] $rdx
	#DEBUG_VALUE: argon2_encode_string:type <- [DW_OP_LLVM_entry_value 1] $ecx
	.loc	1 306 1 is_stmt 1               # crypto_pwhash/argon2/argon2-encoding.c:306:1
	movq	%fs:40, %rcx
	cmpq	24(%rsp), %rcx
	jne	.LBB2_35
.Ltmp196:
# %bb.34:                               # %SP_return
	#DEBUG_VALUE: argon2_encode_string:ctx <- [DW_OP_LLVM_entry_value 1] $rdx
	#DEBUG_VALUE: argon2_encode_string:type <- [DW_OP_LLVM_entry_value 1] $ecx
	.loc	1 306 1 epilogue_begin is_stmt 0 # crypto_pwhash/argon2/argon2-encoding.c:306:1
	addq	$32, %rsp
	.cfi_def_cfa_offset 48
	popq	%rbx
	.cfi_def_cfa_offset 40
	popq	%r12
	.cfi_def_cfa_offset 32
	popq	%r13
	.cfi_def_cfa_offset 24
	popq	%r14
	.cfi_def_cfa_offset 16
	popq	%r15
	.cfi_def_cfa_offset 8
	retq
.Ltmp197:
.LBB2_35:                               # %CallStackCheckFailBlk
	.cfi_def_cfa_offset 80
	#DEBUG_VALUE: argon2_encode_string:ctx <- [DW_OP_LLVM_entry_value 1] $rdx
	#DEBUG_VALUE: argon2_encode_string:type <- [DW_OP_LLVM_entry_value 1] $ecx
	.loc	1 0 0                           # crypto_pwhash/argon2/argon2-encoding.c:0
	callq	__stack_chk_fail@PLT
.Ltmp198:
.Lfunc_end2:
	.size	argon2_encode_string, .Lfunc_end2-argon2_encode_string
	.cfi_endproc
                                        # -- End function
	.p2align	4                               # -- Begin function u32_to_string
	.type	u32_to_string,@function
u32_to_string:                          # @u32_to_string
.Lfunc_begin3:
	.loc	1 215 0 is_stmt 1               # crypto_pwhash/argon2/argon2-encoding.c:215:0
	.cfi_startproc
# %bb.0:
	#DEBUG_VALUE: u32_to_string:str <- $rdi
	#DEBUG_VALUE: u32_to_string:x <- $esi
	pushq	%r14
	.cfi_def_cfa_offset 16
	pushq	%rbx
	.cfi_def_cfa_offset 24
	subq	$24, %rsp
	.cfi_def_cfa_offset 48
	.cfi_offset %rbx, -24
	.cfi_offset %r14, -16
	movl	%esi, %eax
	movq	%rdi, %rbx
	movq	%fs:40, %rcx
	movq	%rcx, 16(%rsp)
.Ltmp199:
	#DEBUG_VALUE: u32_to_string:i <- 10
	.loc	1 220 5 prologue_end            # crypto_pwhash/argon2/argon2-encoding.c:220:5
	leaq	16(%rsp), %rsi
.Ltmp200:
	#DEBUG_VALUE: u32_to_string:x <- $eax
	.loc	1 0 5 is_stmt 0                 # crypto_pwhash/argon2/argon2-encoding.c:0:5
	xorl	%edx, %edx
	movl	$3435973837, %ecx               # imm = 0xCCCCCCCD
.Ltmp201:
	.p2align	4
.LBB3_1:                                # =>This Inner Loop Header: Depth=1
	#DEBUG_VALUE: u32_to_string:str <- $rbx
	#DEBUG_VALUE: u32_to_string:x <- $eax
	movl	%eax, %edi
.Ltmp202:
	#DEBUG_VALUE: u32_to_string:i <- [DW_OP_consts 18446744073709551615, DW_OP_mul, DW_OP_consts 10, DW_OP_plus, DW_OP_stack_value] $rdx
	#DEBUG_VALUE: u32_to_string:x <- $edi
	.loc	1 222 11 is_stmt 1              # crypto_pwhash/argon2/argon2-encoding.c:222:11
	movl	%eax, %eax
	imulq	%rcx, %rax
	shrq	$35, %rax
.Ltmp203:
	#DEBUG_VALUE: u32_to_string:x <- $eax
	leal	(%rax,%rax), %r8d
	leal	(%r8,%r8,4), %r8d
	movl	%edi, %r9d
	subl	%r8d, %r9d
	.loc	1 221 20                        # crypto_pwhash/argon2/argon2-encoding.c:221:20
	orb	$48, %r9b
	.loc	1 221 18 is_stmt 0              # crypto_pwhash/argon2/argon2-encoding.c:221:18
	movb	%r9b, -1(%rsi)
.Ltmp204:
	#DEBUG_VALUE: u32_to_string:i <- [DW_OP_consts 18446744073709551615, DW_OP_mul, DW_OP_consts 9, DW_OP_plus, DW_OP_stack_value] $rdx
	decq	%rsi
	.loc	1 223 5 is_stmt 1               # crypto_pwhash/argon2/argon2-encoding.c:223:5
	leaq	1(%rdx), %r14
.Ltmp205:
	.loc	1 223 16 is_stmt 0              # crypto_pwhash/argon2/argon2-encoding.c:223:16
	cmpl	$10, %edi
.Ltmp206:
	.loc	1 223 5                         # crypto_pwhash/argon2/argon2-encoding.c:223:5
	jb	.LBB3_3
.Ltmp207:
# %bb.2:                                #   in Loop: Header=BB3_1 Depth=1
	#DEBUG_VALUE: u32_to_string:str <- $rbx
	#DEBUG_VALUE: u32_to_string:x <- $eax
	#DEBUG_VALUE: u32_to_string:i <- [DW_OP_consts 18446744073709551615, DW_OP_mul, DW_OP_consts 9, DW_OP_plus, DW_OP_stack_value] $rdx
	cmpq	$9, %rdx
	movq	%r14, %rdx
.Ltmp208:
	jne	.LBB3_1
.Ltmp209:
.LBB3_3:
	#DEBUG_VALUE: u32_to_string:str <- $rbx
	#DEBUG_VALUE: u32_to_string:x <- $eax
	#DEBUG_VALUE: memcpy:__dest <- $rbx
	#DEBUG_VALUE: memcpy:__src <- undef
	#DEBUG_VALUE: memcpy:__len <- undef
	.loc	9 29 10 is_stmt 1               # /usr/include/x86_64-linux-gnu/bits/string_fortified.h:29:10 @[ crypto_pwhash/argon2/argon2-encoding.c:224:5 ]
	movq	%rbx, %rdi
	movq	%r14, %rdx
	callq	memcpy@PLT
.Ltmp210:
	.loc	1 225 27                        # crypto_pwhash/argon2/argon2-encoding.c:225:27
	movb	$0, (%rbx,%r14)
	.loc	1 226 1                         # crypto_pwhash/argon2/argon2-encoding.c:226:1
	movq	%fs:40, %rax
	cmpq	16(%rsp), %rax
	jne	.LBB3_5
.Ltmp211:
# %bb.4:                                # %SP_return
	#DEBUG_VALUE: u32_to_string:str <- $rbx
	.loc	1 226 1 epilogue_begin is_stmt 0 # crypto_pwhash/argon2/argon2-encoding.c:226:1
	addq	$24, %rsp
	.cfi_def_cfa_offset 24
	popq	%rbx
.Ltmp212:
	#DEBUG_VALUE: u32_to_string:str <- [DW_OP_LLVM_entry_value 1] $rdi
	.cfi_def_cfa_offset 16
	popq	%r14
	.cfi_def_cfa_offset 8
	retq
.Ltmp213:
.LBB3_5:                                # %CallStackCheckFailBlk
	.cfi_def_cfa_offset 48
	#DEBUG_VALUE: u32_to_string:str <- $rbx
	#DEBUG_VALUE: memcpy:__dest <- $rbx
	.loc	1 0 0                           # crypto_pwhash/argon2/argon2-encoding.c:0
	callq	__stack_chk_fail@PLT
.Ltmp214:
.Lfunc_end3:
	.size	u32_to_string, .Lfunc_end3-u32_to_string
	.cfi_endproc
                                        # -- End function
	.type	.L.str,@object                  # @.str
	.section	.rodata.str1.1,"aMS",@progbits,1
.L.str:
	.asciz	"$argon2id"
	.size	.L.str, 10

	.type	.L.str.1,@object                # @.str.1
.L.str.1:
	.asciz	"$argon2i"
	.size	.L.str.1, 9

	.type	.L.str.7,@object                # @.str.7
.L.str.7:
	.asciz	"$argon2id$v="
	.size	.L.str.7, 13

	.type	.L.str.8,@object                # @.str.8
.L.str.8:
	.asciz	"$argon2i$v="
	.size	.L.str.8, 12

	.section	".note.GNU-stack","",@progbits
	.addrsig
	.addrsig_sym __stack_chk_fail