	.file	"argon2-core.c"
	.file	0 "/home/leizhenyuu/opt/Anonymous_Repo/libsodium_o2_attr_inline/src/libsodium" "argon2-core.c" md5 0xd530fbffec0b4ed503f1e482316c1b42
	.file	1 "crypto_pwhash/argon2" "argon2-core.h"
	.file	2 "/usr/include/x86_64-linux-gnu/bits" "types.h"
	.file	3 "/usr/include/x86_64-linux-gnu/bits" "stdint-uintn.h"
	.file	4 "/home/leizhenyuu/opt/Anonymous_Repo" "llvm-project/build/lib/clang/21/include/__stddef_size_t.h"
	.file	5 "crypto_pwhash/argon2" "argon2.h"
	.file	6 "crypto_pwhash/argon2" "argon2-core.c"
	.text
	.hidden	argon2_finalize                 # -- Begin function argon2_finalize
	.globl	argon2_finalize
	.p2align	4
	.type	argon2_finalize,@function
argon2_finalize:                        # @argon2_finalize
.Lfunc_begin0:
	.loc	6 193 0                         # crypto_pwhash/argon2/argon2-core.c:193:0
	.cfi_startproc
# %bb.0:
	#DEBUG_VALUE: argon2_finalize:context <- $rdi
	#DEBUG_VALUE: argon2_finalize:instance <- $rsi
	pushq	%rbp
	.cfi_def_cfa_offset 16
	pushq	%r15
	.cfi_def_cfa_offset 24
	pushq	%r14
	.cfi_def_cfa_offset 32
	pushq	%r13
	.cfi_def_cfa_offset 40
	pushq	%r12
	.cfi_def_cfa_offset 48
	pushq	%rbx
	.cfi_def_cfa_offset 56
	subq	$2088, %rsp                     # imm = 0x828
	.cfi_def_cfa_offset 2144
	.cfi_offset %rbx, -56
	.cfi_offset %r12, -48
	.cfi_offset %r13, -40
	.cfi_offset %r14, -32
	.cfi_offset %r15, -24
	.cfi_offset %rbp, -16
	movq	%fs:40, %rax
	movq	%rax, 2080(%rsp)
.Ltmp0:
	.loc	6 194 17 prologue_end           # crypto_pwhash/argon2/argon2-core.c:194:17
	testq	%rdi, %rdi
	sete	%al
	testq	%rsi, %rsi
	sete	%cl
	.loc	6 194 31 is_stmt 0              # crypto_pwhash/argon2/argon2-core.c:194:31
	orb	%al, %cl
	jne	.LBB0_13
.Ltmp1:
# %bb.1:
	#DEBUG_VALUE: argon2_finalize:context <- $rdi
	#DEBUG_VALUE: argon2_finalize:instance <- $rsi
	.loc	6 0 31                          # crypto_pwhash/argon2/argon2-core.c:0:31
	movq	%rdi, 8(%rsp)                   # 8-byte Spill
.Ltmp2:
	#DEBUG_VALUE: argon2_finalize:context <- [DW_OP_plus_uconst 8] [$rsp+0]
	.loc	6 199 30 is_stmt 1              # crypto_pwhash/argon2/argon2-core.c:199:30
	movq	(%rsi), %rax
	.loc	6 199 38 is_stmt 0              # crypto_pwhash/argon2/argon2-core.c:199:38
	movq	8(%rax), %r13
	.loc	6 199 57                        # crypto_pwhash/argon2/argon2-core.c:199:57
	movl	32(%rsi), %ebp
	.loc	6 199 45                        # crypto_pwhash/argon2/argon2-core.c:199:45
	movq	%rbp, %rax
	shlq	$10, %rax
	movq	%rsi, %rbx
.Ltmp3:
	#DEBUG_VALUE: argon2_finalize:instance <- $rbx
	.loc	6 199 69                        # crypto_pwhash/argon2/argon2-core.c:199:69
	leaq	(%rax,%r13), %rsi
	addq	$-1024, %rsi                    # imm = 0xFC00
.Ltmp4:
	#DEBUG_VALUE: copy_block:src <- $rsi
	#DEBUG_VALUE: memcpy:__src <- $rsi
	#DEBUG_VALUE: copy_block:dst <- [DW_OP_plus_uconst 32, DW_OP_stack_value] $rsp
	#DEBUG_VALUE: memcpy:__dest <- [DW_OP_plus_uconst 32, DW_OP_stack_value] $rsp
	#DEBUG_VALUE: memcpy:__len <- 1024
	.loc	6 0 69                          # crypto_pwhash/argon2/argon2-core.c:0:69
	leaq	32(%rsp), %r12
	movl	$1024, %r15d                    # imm = 0x400
.Ltmp5:
	.file	7 "/usr/include/x86_64-linux-gnu/bits" "string_fortified.h"
	.loc	7 29 10 is_stmt 1               # /usr/include/x86_64-linux-gnu/bits/string_fortified.h:29:10 @[ crypto_pwhash/argon2/argon2-core.h:76:5 @[ crypto_pwhash/argon2/argon2-core.c:198:9 ] ]
	movl	$1024, %edx                     # imm = 0x400
	movq	%r12, %rdi
	callq	memcpy@PLT
.Ltmp6:
	#DEBUG_VALUE: l <- 1
	.loc	7 0 10 is_stmt 0                # /usr/include/x86_64-linux-gnu/bits/string_fortified.h:0:10
	movq	%rbx, 16(%rsp)                  # 8-byte Spill
.Ltmp7:
	#DEBUG_VALUE: argon2_finalize:instance <- [DW_OP_plus_uconst 16] [$rsp+0]
	movl	36(%rbx), %eax
	cmpq	$2, %rax
.Ltmp8:
	.loc	6 202 9 is_stmt 1               # crypto_pwhash/argon2/argon2-core.c:202:9
	jb	.LBB0_10
.Ltmp9:
# %bb.2:                                # %.lr.ph
	#DEBUG_VALUE: argon2_finalize:context <- [DW_OP_plus_uconst 8] [$rsp+0]
	#DEBUG_VALUE: argon2_finalize:instance <- [DW_OP_plus_uconst 16] [$rsp+0]
	#DEBUG_VALUE: l <- 1
	leal	-1(,%rbp,2), %edx
	leaq	1024(%r13), %rsi
	leaq	48(%r13), %rdi
	leaq	24(%r13), %r8
	movl	$1, %r9d
	xorl	%r10d, %r10d
	movl	%edx, %r11d
	jmp	.LBB0_3
.Ltmp10:
	.loc	6 0 9 is_stmt 0                 # :0:9
.Ltmp11:
	.p2align	4
.LBB0_9:                                # %xor_block.exit
                                        #   in Loop: Header=BB0_3 Depth=1
	#DEBUG_VALUE: argon2_finalize:context <- [DW_OP_plus_uconst 8] [$rsp+0]
	#DEBUG_VALUE: argon2_finalize:instance <- [DW_OP_plus_uconst 16] [$rsp+0]
	#DEBUG_VALUE: l <- $r9
	.loc	6 202 42 is_stmt 1              # crypto_pwhash/argon2/argon2-core.c:202:42
	incq	%r9
.Ltmp12:
	#DEBUG_VALUE: l <- $r9
	.loc	6 202 9 is_stmt 0               # crypto_pwhash/argon2/argon2-core.c:202:9
	incl	%r10d
	addl	%ebp, %r11d
.Ltmp13:
	.loc	6 202 23                        # crypto_pwhash/argon2/argon2-core.c:202:23
	cmpq	%rax, %r9
.Ltmp14:
	.loc	6 202 9                         # crypto_pwhash/argon2/argon2-core.c:202:9
	je	.LBB0_10
.Ltmp15:
.LBB0_3:                                # %vector.memcheck
                                        # =>This Loop Header: Depth=1
                                        #     Child Loop BB0_6 Depth 2
                                        #     Child Loop BB0_8 Depth 2
	#DEBUG_VALUE: argon2_finalize:context <- [DW_OP_plus_uconst 8] [$rsp+0]
	#DEBUG_VALUE: argon2_finalize:instance <- [DW_OP_plus_uconst 16] [$rsp+0]
	.loc	6 204 19 is_stmt 1              # crypto_pwhash/argon2/argon2-core.c:204:19
	movl	%r11d, %r14d
	shlq	$10, %r14
.Ltmp16:
	#DEBUG_VALUE: l <- $r9
	#DEBUG_VALUE: last_block_in_lane <- [DW_OP_LLVM_arg 0, DW_OP_constu 1, DW_OP_minus, DW_OP_LLVM_arg 1, DW_OP_LLVM_arg 2, DW_OP_LLVM_convert 64 7, DW_OP_LLVM_convert 32 7, DW_OP_mul, DW_OP_plus, DW_OP_stack_value] $ebp, $ebp, $r9
	#DEBUG_VALUE: xor_block:dst <- [DW_OP_plus_uconst 32, DW_OP_stack_value] $rsp
	#DEBUG_VALUE: xor_block:src <- [DW_OP_LLVM_arg 0, DW_OP_LLVM_arg 1, DW_OP_constu 1, DW_OP_minus, DW_OP_LLVM_arg 2, DW_OP_LLVM_arg 3, DW_OP_LLVM_convert 64 7, DW_OP_LLVM_convert 32 7, DW_OP_mul, DW_OP_plus, DW_OP_LLVM_convert 32 7, DW_OP_LLVM_convert 64 7, DW_OP_constu 1024, DW_OP_mul, DW_OP_plus, DW_OP_stack_value] $r13, $ebp, $ebp, $r9
	#DEBUG_VALUE: xor_block:i <- 0
	movl	%ebp, %ebx
	imull	%r10d, %ebx
	addl	%edx, %ebx
	shlq	$10, %rbx
	leaq	(%rsi,%rbx), %rcx
.Ltmp17:
	.loc	1 84 5                          # crypto_pwhash/argon2/argon2-core.h:84:5 @[ crypto_pwhash/argon2/argon2-core.c:205:13 ]
	cmpq	%rcx, %r12
.Ltmp18:
	.loc	1 84 45 is_stmt 0               # crypto_pwhash/argon2/argon2-core.h:84:45 @[ crypto_pwhash/argon2/argon2-core.c:205:13 ]
	jae	.LBB0_5
.Ltmp19:
# %bb.4:                                # %vector.memcheck
                                        #   in Loop: Header=BB0_3 Depth=1
	#DEBUG_VALUE: argon2_finalize:context <- [DW_OP_plus_uconst 8] [$rsp+0]
	#DEBUG_VALUE: argon2_finalize:instance <- [DW_OP_plus_uconst 16] [$rsp+0]
	#DEBUG_VALUE: l <- $r9
	#DEBUG_VALUE: last_block_in_lane <- [DW_OP_LLVM_arg 0, DW_OP_constu 1, DW_OP_minus, DW_OP_LLVM_arg 1, DW_OP_LLVM_arg 2, DW_OP_LLVM_convert 64 7, DW_OP_LLVM_convert 32 7, DW_OP_mul, DW_OP_plus, DW_OP_stack_value] $ebp, $ebp, $r9
	#DEBUG_VALUE: xor_block:dst <- [DW_OP_plus_uconst 32, DW_OP_stack_value] $rsp
	#DEBUG_VALUE: xor_block:src <- [DW_OP_LLVM_arg 0, DW_OP_LLVM_arg 1, DW_OP_constu 1, DW_OP_minus, DW_OP_LLVM_arg 2, DW_OP_LLVM_arg 3, DW_OP_LLVM_convert 64 7, DW_OP_LLVM_convert 32 7, DW_OP_mul, DW_OP_plus, DW_OP_LLVM_convert 32 7, DW_OP_LLVM_convert 64 7, DW_OP_constu 1024, DW_OP_mul, DW_OP_plus, DW_OP_stack_value] $r13, $ebp, $ebp, $r9
	#DEBUG_VALUE: xor_block:i <- 0
	.loc	6 0 0                           # crypto_pwhash/argon2/argon2-core.c:0
	addq	%r13, %rbx
.Ltmp20:
	.loc	1 84 45                         # crypto_pwhash/argon2/argon2-core.h:84:45 @[ crypto_pwhash/argon2/argon2-core.c:205:13 ]
	leaq	1056(%rsp), %rcx
	cmpq	%rcx, %rbx
	jae	.LBB0_5
.Ltmp21:
# %bb.7:                                # %scalar.ph.preheader
                                        #   in Loop: Header=BB0_3 Depth=1
	#DEBUG_VALUE: argon2_finalize:context <- [DW_OP_plus_uconst 8] [$rsp+0]
	#DEBUG_VALUE: argon2_finalize:instance <- [DW_OP_plus_uconst 16] [$rsp+0]
	#DEBUG_VALUE: l <- $r9
	#DEBUG_VALUE: last_block_in_lane <- [DW_OP_LLVM_arg 0, DW_OP_constu 1, DW_OP_minus, DW_OP_LLVM_arg 1, DW_OP_LLVM_arg 2, DW_OP_LLVM_convert 64 7, DW_OP_LLVM_convert 32 7, DW_OP_mul, DW_OP_plus, DW_OP_stack_value] $ebp, $ebp, $r9
	#DEBUG_VALUE: xor_block:dst <- [DW_OP_plus_uconst 32, DW_OP_stack_value] $rsp
	#DEBUG_VALUE: xor_block:src <- [DW_OP_LLVM_arg 0, DW_OP_LLVM_arg 1, DW_OP_constu 1, DW_OP_minus, DW_OP_LLVM_arg 2, DW_OP_LLVM_arg 3, DW_OP_LLVM_convert 64 7, DW_OP_LLVM_convert 32 7, DW_OP_mul, DW_OP_plus, DW_OP_LLVM_convert 32 7, DW_OP_LLVM_convert 64 7, DW_OP_constu 1024, DW_OP_mul, DW_OP_plus, DW_OP_stack_value] $r13, $ebp, $ebp, $r9
	#DEBUG_VALUE: xor_block:i <- 0
	.loc	1 0 45                          # crypto_pwhash/argon2/argon2-core.h:0:45
	addq	%r8, %r14
	xorl	%ebx, %ebx
.Ltmp22:
	.p2align	4
.LBB0_8:                                # %scalar.ph
                                        #   Parent Loop BB0_3 Depth=1
                                        # =>  This Inner Loop Header: Depth=2
	#DEBUG_VALUE: argon2_finalize:context <- [DW_OP_plus_uconst 8] [$rsp+0]
	#DEBUG_VALUE: argon2_finalize:instance <- [DW_OP_plus_uconst 16] [$rsp+0]
	#DEBUG_VALUE: l <- $r9
	#DEBUG_VALUE: last_block_in_lane <- [DW_OP_LLVM_arg 0, DW_OP_constu 1, DW_OP_minus, DW_OP_LLVM_arg 1, DW_OP_LLVM_arg 2, DW_OP_LLVM_convert 64 7, DW_OP_LLVM_convert 32 7, DW_OP_mul, DW_OP_plus, DW_OP_stack_value] $ebp, $ebp, $r9
	#DEBUG_VALUE: xor_block:dst <- [DW_OP_plus_uconst 32, DW_OP_stack_value] $rsp
	#DEBUG_VALUE: xor_block:src <- [DW_OP_LLVM_arg 0, DW_OP_LLVM_arg 1, DW_OP_constu 1, DW_OP_minus, DW_OP_LLVM_arg 2, DW_OP_LLVM_arg 3, DW_OP_LLVM_convert 64 7, DW_OP_LLVM_convert 32 7, DW_OP_mul, DW_OP_plus, DW_OP_LLVM_convert 32 7, DW_OP_LLVM_convert 64 7, DW_OP_constu 1024, DW_OP_mul, DW_OP_plus, DW_OP_stack_value] $r13, $ebp, $ebp, $r9
	#DEBUG_VALUE: xor_block:i <- $rbx
	.loc	1 85 22 is_stmt 1               # crypto_pwhash/argon2/argon2-core.h:85:22 @[ crypto_pwhash/argon2/argon2-core.c:205:13 ]
	movq	-24(%r14,%rbx,8), %rcx
	.loc	1 85 19 is_stmt 0               # crypto_pwhash/argon2/argon2-core.h:85:19 @[ crypto_pwhash/argon2/argon2-core.c:205:13 ]
	xorq	%rcx, 32(%rsp,%rbx,8)
.Ltmp23:
	#DEBUG_VALUE: xor_block:i <- [DW_OP_constu 1, DW_OP_or, DW_OP_stack_value] $rbx
	.loc	1 85 22                         # crypto_pwhash/argon2/argon2-core.h:85:22 @[ crypto_pwhash/argon2/argon2-core.c:205:13 ]
	movq	-16(%r14,%rbx,8), %rcx
	.loc	1 85 19                         # crypto_pwhash/argon2/argon2-core.h:85:19 @[ crypto_pwhash/argon2/argon2-core.c:205:13 ]
	xorq	%rcx, 40(%rsp,%rbx,8)
.Ltmp24:
	#DEBUG_VALUE: xor_block:i <- [DW_OP_constu 2, DW_OP_or, DW_OP_stack_value] $rbx
	.loc	1 85 22                         # crypto_pwhash/argon2/argon2-core.h:85:22 @[ crypto_pwhash/argon2/argon2-core.c:205:13 ]
	movq	-8(%r14,%rbx,8), %rcx
	.loc	1 85 19                         # crypto_pwhash/argon2/argon2-core.h:85:19 @[ crypto_pwhash/argon2/argon2-core.c:205:13 ]
	xorq	%rcx, 48(%rsp,%rbx,8)
.Ltmp25:
	#DEBUG_VALUE: xor_block:i <- [DW_OP_constu 3, DW_OP_or, DW_OP_stack_value] $rbx
	.loc	1 85 22                         # crypto_pwhash/argon2/argon2-core.h:85:22 @[ crypto_pwhash/argon2/argon2-core.c:205:13 ]
	movq	(%r14,%rbx,8), %rcx
	.loc	1 85 19                         # crypto_pwhash/argon2/argon2-core.h:85:19 @[ crypto_pwhash/argon2/argon2-core.c:205:13 ]
	xorq	%rcx, 56(%rsp,%rbx,8)
.Ltmp26:
	.loc	1 84 45 is_stmt 1               # crypto_pwhash/argon2/argon2-core.h:84:45 @[ crypto_pwhash/argon2/argon2-core.c:205:13 ]
	addq	$4, %rbx
.Ltmp27:
	#DEBUG_VALUE: xor_block:i <- $rbx
	.loc	1 84 19 is_stmt 0               # crypto_pwhash/argon2/argon2-core.h:84:19 @[ crypto_pwhash/argon2/argon2-core.c:205:13 ]
	cmpq	$128, %rbx
.Ltmp28:
	.loc	1 84 5                          # crypto_pwhash/argon2/argon2-core.h:84:5 @[ crypto_pwhash/argon2/argon2-core.c:205:13 ]
	jne	.LBB0_8
	jmp	.LBB0_9
.Ltmp29:
	.loc	1 0 5                           # :0:5
.Ltmp30:
	.p2align	4
.LBB0_5:                                # %vector.body.preheader
                                        #   in Loop: Header=BB0_3 Depth=1
	#DEBUG_VALUE: argon2_finalize:context <- [DW_OP_plus_uconst 8] [$rsp+0]
	#DEBUG_VALUE: argon2_finalize:instance <- [DW_OP_plus_uconst 16] [$rsp+0]
	#DEBUG_VALUE: l <- $r9
	#DEBUG_VALUE: last_block_in_lane <- [DW_OP_LLVM_arg 0, DW_OP_constu 1, DW_OP_minus, DW_OP_LLVM_arg 1, DW_OP_LLVM_arg 2, DW_OP_LLVM_convert 64 7, DW_OP_LLVM_convert 32 7, DW_OP_mul, DW_OP_plus, DW_OP_stack_value] $ebp, $ebp, $r9
	#DEBUG_VALUE: xor_block:dst <- [DW_OP_plus_uconst 32, DW_OP_stack_value] $rsp
	#DEBUG_VALUE: xor_block:src <- [DW_OP_LLVM_arg 0, DW_OP_LLVM_arg 1, DW_OP_constu 1, DW_OP_minus, DW_OP_LLVM_arg 2, DW_OP_LLVM_arg 3, DW_OP_LLVM_convert 64 7, DW_OP_LLVM_convert 32 7, DW_OP_mul, DW_OP_plus, DW_OP_LLVM_convert 32 7, DW_OP_LLVM_convert 64 7, DW_OP_constu 1024, DW_OP_mul, DW_OP_plus, DW_OP_stack_value] $r13, $ebp, $ebp, $r9
	#DEBUG_VALUE: xor_block:i <- 0
	addq	%rdi, %r14
	xorl	%ebx, %ebx
.Ltmp31:
	.p2align	4
.LBB0_6:                                # %vector.body
                                        #   Parent Loop BB0_3 Depth=1
                                        # =>  This Inner Loop Header: Depth=2
	#DEBUG_VALUE: argon2_finalize:context <- [DW_OP_plus_uconst 8] [$rsp+0]
	#DEBUG_VALUE: argon2_finalize:instance <- [DW_OP_plus_uconst 16] [$rsp+0]
	#DEBUG_VALUE: l <- $r9
	#DEBUG_VALUE: last_block_in_lane <- [DW_OP_LLVM_arg 0, DW_OP_constu 1, DW_OP_minus, DW_OP_LLVM_arg 1, DW_OP_LLVM_arg 2, DW_OP_LLVM_convert 64 7, DW_OP_LLVM_convert 32 7, DW_OP_mul, DW_OP_plus, DW_OP_stack_value] $ebp, $ebp, $r9
	#DEBUG_VALUE: xor_block:dst <- [DW_OP_plus_uconst 32, DW_OP_stack_value] $rsp
	#DEBUG_VALUE: xor_block:src <- [DW_OP_LLVM_arg 0, DW_OP_LLVM_arg 1, DW_OP_constu 1, DW_OP_minus, DW_OP_LLVM_arg 2, DW_OP_LLVM_arg 3, DW_OP_LLVM_convert 64 7, DW_OP_LLVM_convert 32 7, DW_OP_mul, DW_OP_plus, DW_OP_LLVM_convert 32 7, DW_OP_LLVM_convert 64 7, DW_OP_constu 1024, DW_OP_mul, DW_OP_plus, DW_OP_stack_value] $r13, $ebp, $ebp, $r9
	#DEBUG_VALUE: xor_block:i <- 0
	.loc	1 85 22 is_stmt 1               # crypto_pwhash/argon2/argon2-core.h:85:22 @[ crypto_pwhash/argon2/argon2-core.c:205:13 ]
	movups	-48(%r14,%rbx,8), %xmm0
	movups	-32(%r14,%rbx,8), %xmm1
	.loc	1 85 19 is_stmt 0               # crypto_pwhash/argon2/argon2-core.h:85:19 @[ crypto_pwhash/argon2/argon2-core.c:205:13 ]
	movups	32(%rsp,%rbx,8), %xmm2
	xorps	%xmm0, %xmm2
	movups	48(%rsp,%rbx,8), %xmm0
	xorps	%xmm1, %xmm0
	movups	64(%rsp,%rbx,8), %xmm1
	movups	80(%rsp,%rbx,8), %xmm3
	movups	%xmm2, 32(%rsp,%rbx,8)
	movups	%xmm0, 48(%rsp,%rbx,8)
	.loc	1 85 22                         # crypto_pwhash/argon2/argon2-core.h:85:22 @[ crypto_pwhash/argon2/argon2-core.c:205:13 ]
	movups	-16(%r14,%rbx,8), %xmm0
	.loc	1 85 19                         # crypto_pwhash/argon2/argon2-core.h:85:19 @[ crypto_pwhash/argon2/argon2-core.c:205:13 ]
	xorps	%xmm1, %xmm0
	.loc	1 85 22                         # crypto_pwhash/argon2/argon2-core.h:85:22 @[ crypto_pwhash/argon2/argon2-core.c:205:13 ]
	movups	(%r14,%rbx,8), %xmm1
	.loc	1 85 19                         # crypto_pwhash/argon2/argon2-core.h:85:19 @[ crypto_pwhash/argon2/argon2-core.c:205:13 ]
	xorps	%xmm3, %xmm1
	movups	%xmm0, 64(%rsp,%rbx,8)
	movups	%xmm1, 80(%rsp,%rbx,8)
.Ltmp32:
	.loc	1 84 45 is_stmt 1               # crypto_pwhash/argon2/argon2-core.h:84:45 @[ crypto_pwhash/argon2/argon2-core.c:205:13 ]
	addq	$8, %rbx
	cmpq	$128, %rbx
	jne	.LBB0_6
	jmp	.LBB0_9
.Ltmp33:
.LBB0_10:                               # %._crit_edge
	#DEBUG_VALUE: argon2_finalize:context <- [DW_OP_plus_uconst 8] [$rsp+0]
	#DEBUG_VALUE: argon2_finalize:instance <- [DW_OP_plus_uconst 16] [$rsp+0]
	#DEBUG_VALUE: copy_block:dst <- [DW_OP_plus_uconst 32, DW_OP_stack_value] $rsp
	#DEBUG_VALUE: memcpy:__dest <- [DW_OP_plus_uconst 32, DW_OP_stack_value] $rsp
	#DEBUG_VALUE: memcpy:__len <- 1024
	.loc	1 0 45 is_stmt 0                # crypto_pwhash/argon2/argon2-core.h:0:45
	xorl	%ebx, %ebx
	#DEBUG_VALUE: store_block:output <- [DW_OP_plus_uconst 1056, DW_OP_stack_value] $rsp
	#DEBUG_VALUE: store_block:src <- [DW_OP_plus_uconst 32, DW_OP_stack_value] $rsp
	#DEBUG_VALUE: store_block:i <- 0
	leaq	24(%rsp), %r12
.Ltmp34:
	.p2align	4
.LBB0_11:                               # =>This Inner Loop Header: Depth=1
	#DEBUG_VALUE: argon2_finalize:context <- [DW_OP_plus_uconst 8] [$rsp+0]
	#DEBUG_VALUE: argon2_finalize:instance <- [DW_OP_plus_uconst 16] [$rsp+0]
	#DEBUG_VALUE: store_block:output <- [DW_OP_plus_uconst 1056, DW_OP_stack_value] $rsp
	#DEBUG_VALUE: store_block:src <- [DW_OP_plus_uconst 32, DW_OP_stack_value] $rsp
	#DEBUG_VALUE: store_block:i <- [DW_OP_consts 1024, DW_OP_minus, DW_OP_consts 18446744073709551608, DW_OP_div, DW_OP_stack_value] $r15
	.loc	6 64 67 is_stmt 1               # crypto_pwhash/argon2/argon2-core.c:64:67 @[ crypto_pwhash/argon2/argon2-core.c:212:13 ]
	leaq	(%rsp,%rbx), %rdi
	addq	$1056, %rdi                     # imm = 0x420
	movq	32(%rsp,%rbx), %rax
	#DEBUG_VALUE: store64_le:w <- undef
	movq	%rax, 24(%rsp)
.Ltmp35:
	#DEBUG_VALUE: store64_le:dst <- [DW_OP_LLVM_arg 0, DW_OP_consts 1024, DW_OP_minus, DW_OP_consts 18446744073709551608, DW_OP_div, DW_OP_consts 8, DW_OP_mul, DW_OP_LLVM_arg 1, DW_OP_plus_uconst 1056, DW_OP_plus, DW_OP_stack_value] $r15, $rsp
	#DEBUG_VALUE: memcpy:__dest <- [DW_OP_LLVM_arg 0, DW_OP_consts 1024, DW_OP_minus, DW_OP_consts 18446744073709551608, DW_OP_div, DW_OP_consts 8, DW_OP_mul, DW_OP_LLVM_arg 1, DW_OP_plus_uconst 1056, DW_OP_plus, DW_OP_stack_value] $r15, $rsp
	#DEBUG_VALUE: store64_le:w <- [DW_OP_plus_uconst 24, DW_OP_deref] $rsp
	#DEBUG_VALUE: memcpy:__src <- [DW_OP_plus_uconst 24, DW_OP_stack_value] $rsp
	#DEBUG_VALUE: memcpy:__len <- 8
	.loc	7 29 10                         # /usr/include/x86_64-linux-gnu/bits/string_fortified.h:29:10 @[ ./include/sodium/private/common.h:87:5 @[ crypto_pwhash/argon2/argon2-core.c:64:9 @[ crypto_pwhash/argon2/argon2-core.c:212:13 ] ] ]
	movl	$8, %edx
	movq	%r12, %rsi
	movq	%r15, %rcx
	callq	__memcpy_chk@PLT
.Ltmp36:
	#DEBUG_VALUE: store_block:i <- [DW_OP_consts 1024, DW_OP_minus, DW_OP_consts 18446744073709551608, DW_OP_div, DW_OP_consts 1, DW_OP_plus, DW_OP_stack_value] $r15
	.loc	6 63 19                         # crypto_pwhash/argon2/argon2-core.c:63:19 @[ crypto_pwhash/argon2/argon2-core.c:212:13 ]
	addq	$8, %rbx
	addq	$-8, %r15
.Ltmp37:
	.loc	6 63 5 is_stmt 0                # crypto_pwhash/argon2/argon2-core.c:63:5 @[ crypto_pwhash/argon2/argon2-core.c:212:13 ]
	jne	.LBB0_11
.Ltmp38:
# %bb.12:                               # %store_block.exit
	#DEBUG_VALUE: argon2_finalize:context <- [DW_OP_plus_uconst 8] [$rsp+0]
	#DEBUG_VALUE: argon2_finalize:instance <- [DW_OP_plus_uconst 16] [$rsp+0]
	.loc	6 0 5                           # crypto_pwhash/argon2/argon2-core.c:0:5
	movq	8(%rsp), %rbx                   # 8-byte Reload
	.loc	6 213 35 is_stmt 1              # crypto_pwhash/argon2/argon2-core.c:213:35
	movq	(%rbx), %rdi
	.loc	6 213 49 is_stmt 0              # crypto_pwhash/argon2/argon2-core.c:213:49
	movl	8(%rbx), %esi
	leaq	1056(%rsp), %r15
	.loc	6 213 13                        # crypto_pwhash/argon2/argon2-core.c:213:13
	movl	$1024, %ecx                     # imm = 0x400
	movq	%r15, %rdx
	callq	blake2b_long@PLT
.Ltmp39:
	.loc	6 0 13                          # crypto_pwhash/argon2/argon2-core.c:0:13
	leaq	32(%rsp), %rdi
	.loc	6 215 13 is_stmt 1              # crypto_pwhash/argon2/argon2-core.c:215:13
	movl	$1024, %esi                     # imm = 0x400
	callq	sodium_memzero@PLT
.Ltmp40:
	.loc	6 217 13                        # crypto_pwhash/argon2/argon2-core.c:217:13
	movl	$1024, %esi                     # imm = 0x400
	movq	%r15, %rdi
	callq	sodium_memzero@PLT
.Ltmp41:
	.loc	6 221 49                        # crypto_pwhash/argon2/argon2-core.c:221:49
	movl	92(%rbx), %esi
	movq	16(%rsp), %rdi                  # 8-byte Reload
	.loc	6 221 9 is_stmt 0               # crypto_pwhash/argon2/argon2-core.c:221:9
	callq	argon2_free_instance
.Ltmp42:
.LBB0_13:
	#DEBUG_VALUE: argon2_finalize:context <- [DW_OP_LLVM_entry_value 1] $rdi
	#DEBUG_VALUE: argon2_finalize:instance <- [DW_OP_LLVM_entry_value 1] $rsi
	.loc	6 223 1 is_stmt 1               # crypto_pwhash/argon2/argon2-core.c:223:1
	movq	%fs:40, %rax
	cmpq	2080(%rsp), %rax
	jne	.LBB0_15
.Ltmp43:
# %bb.14:                               # %SP_return
	#DEBUG_VALUE: argon2_finalize:context <- [DW_OP_LLVM_entry_value 1] $rdi
	#DEBUG_VALUE: argon2_finalize:instance <- [DW_OP_LLVM_entry_value 1] $rsi
	.loc	6 223 1 epilogue_begin is_stmt 0 # crypto_pwhash/argon2/argon2-core.c:223:1
	addq	$2088, %rsp                     # imm = 0x828
	.cfi_def_cfa_offset 56
	popq	%rbx
	.cfi_def_cfa_offset 48
	popq	%r12
	.cfi_def_cfa_offset 40
	popq	%r13
	.cfi_def_cfa_offset 32
	popq	%r14
	.cfi_def_cfa_offset 24
	popq	%r15
	.cfi_def_cfa_offset 16
	popq	%rbp
	.cfi_def_cfa_offset 8
	retq
.Ltmp44:
.LBB0_15:                               # %CallStackCheckFailBlk
	.cfi_def_cfa_offset 2144
	#DEBUG_VALUE: argon2_finalize:context <- [DW_OP_LLVM_entry_value 1] $rdi
	#DEBUG_VALUE: argon2_finalize:instance <- [DW_OP_LLVM_entry_value 1] $rsi
	.loc	6 0 0                           # crypto_pwhash/argon2/argon2-core.c:0
	callq	__stack_chk_fail@PLT
.Ltmp45:
.Lfunc_end0:
	.size	argon2_finalize, .Lfunc_end0-argon2_finalize
	.cfi_endproc
	.file	8 "./include/sodium/private" "common.h"
	.file	9 "crypto_pwhash/argon2" "blake2b-long.h"
	.file	10 "./include/sodium" "utils.h"
                                        # -- End function
	.p2align	4                               # -- Begin function argon2_free_instance
	.type	argon2_free_instance,@function
argon2_free_instance:                   # @argon2_free_instance
.Lfunc_begin1:
	.loc	6 180 0 is_stmt 1               # crypto_pwhash/argon2/argon2-core.c:180:0
	.cfi_startproc
# %bb.0:
	#DEBUG_VALUE: argon2_free_instance:instance <- $rdi
	#DEBUG_VALUE: argon2_free_instance:flags <- $esi
	pushq	%r14
	.cfi_def_cfa_offset 16
	pushq	%rbx
	.cfi_def_cfa_offset 24
	pushq	%rax
	.cfi_def_cfa_offset 32
	.cfi_offset %rbx, -24
	.cfi_offset %r14, -16
	movq	%rdi, %rbx
.Ltmp46:
	#DEBUG_VALUE: clear_memory:instance <- undef
	#DEBUG_VALUE: clear_memory:clear <- undef
	.loc	6 145 9 prologue_end            # crypto_pwhash/argon2/argon2-core.c:145:9 @[ crypto_pwhash/argon2/argon2-core.c:182:5 ]
	testb	$4, %sil
	je	.LBB1_5
.Ltmp47:
# %bb.1:
	#DEBUG_VALUE: argon2_free_instance:instance <- $rbx
	#DEBUG_VALUE: argon2_free_instance:flags <- $esi
	.loc	6 146 23                        # crypto_pwhash/argon2/argon2-core.c:146:23 @[ crypto_pwhash/argon2/argon2-core.c:182:5 ]
	movq	(%rbx), %rax
	.loc	6 146 30 is_stmt 0              # crypto_pwhash/argon2/argon2-core.c:146:30 @[ crypto_pwhash/argon2/argon2-core.c:182:5 ]
	testq	%rax, %rax
	je	.LBB1_3
.Ltmp48:
# %bb.2:
	#DEBUG_VALUE: argon2_free_instance:instance <- $rbx
	#DEBUG_VALUE: argon2_free_instance:flags <- $esi
	.loc	6 147 46 is_stmt 1              # crypto_pwhash/argon2/argon2-core.c:147:46 @[ crypto_pwhash/argon2/argon2-core.c:182:5 ]
	movq	8(%rax), %rdi
	.loc	6 148 54                        # crypto_pwhash/argon2/argon2-core.c:148:54 @[ crypto_pwhash/argon2/argon2-core.c:182:5 ]
	movl	24(%rbx), %esi
.Ltmp49:
	#DEBUG_VALUE: argon2_free_instance:flags <- [DW_OP_LLVM_entry_value 1] $esi
	.loc	6 148 42 is_stmt 0              # crypto_pwhash/argon2/argon2-core.c:148:42 @[ crypto_pwhash/argon2/argon2-core.c:182:5 ]
	shlq	$10, %rsi
	.loc	6 147 13 is_stmt 1              # crypto_pwhash/argon2/argon2-core.c:147:13 @[ crypto_pwhash/argon2/argon2-core.c:182:5 ]
	callq	sodium_memzero@PLT
.Ltmp50:
.LBB1_3:
	#DEBUG_VALUE: argon2_free_instance:instance <- $rbx
	#DEBUG_VALUE: argon2_free_instance:flags <- [DW_OP_LLVM_entry_value 1] $esi
	.loc	6 150 23                        # crypto_pwhash/argon2/argon2-core.c:150:23 @[ crypto_pwhash/argon2/argon2-core.c:182:5 ]
	movq	8(%rbx), %rdi
	.loc	6 150 36 is_stmt 0              # crypto_pwhash/argon2/argon2-core.c:150:36 @[ crypto_pwhash/argon2/argon2-core.c:182:5 ]
	testq	%rdi, %rdi
	je	.LBB1_5
.Ltmp51:
# %bb.4:
	#DEBUG_VALUE: argon2_free_instance:instance <- $rbx
	#DEBUG_VALUE: argon2_free_instance:flags <- [DW_OP_LLVM_entry_value 1] $esi
	.loc	6 152 57 is_stmt 1              # crypto_pwhash/argon2/argon2-core.c:152:57 @[ crypto_pwhash/argon2/argon2-core.c:182:5 ]
	movl	28(%rbx), %esi
	.loc	6 152 45 is_stmt 0              # crypto_pwhash/argon2/argon2-core.c:152:45 @[ crypto_pwhash/argon2/argon2-core.c:182:5 ]
	shlq	$3, %rsi
	.loc	6 151 13 is_stmt 1              # crypto_pwhash/argon2/argon2-core.c:151:13 @[ crypto_pwhash/argon2/argon2-core.c:182:5 ]
	callq	sodium_memzero@PLT
.Ltmp52:
.LBB1_5:                                # %clear_memory.exit
	#DEBUG_VALUE: argon2_free_instance:instance <- $rbx
	#DEBUG_VALUE: argon2_free_instance:flags <- [DW_OP_LLVM_entry_value 1] $esi
	.loc	6 185 20                        # crypto_pwhash/argon2/argon2-core.c:185:20
	movq	8(%rbx), %rdi
	.loc	6 185 5 is_stmt 0               # crypto_pwhash/argon2/argon2-core.c:185:5
	callq	free@PLT
.Ltmp53:
	.loc	6 186 28 is_stmt 1              # crypto_pwhash/argon2/argon2-core.c:186:28
	movq	$0, 8(%rbx)
	.loc	6 187 27                        # crypto_pwhash/argon2/argon2-core.c:187:27
	movq	(%rbx), %r14
.Ltmp54:
	#DEBUG_VALUE: free_memory:region <- $r14
	.loc	6 166 9                         # crypto_pwhash/argon2/argon2-core.c:166:9 @[ crypto_pwhash/argon2/argon2-core.c:187:5 ]
	testq	%r14, %r14
	.loc	6 166 16 is_stmt 0              # crypto_pwhash/argon2/argon2-core.c:166:16 @[ crypto_pwhash/argon2/argon2-core.c:187:5 ]
	je	.LBB1_8
.Ltmp55:
# %bb.6:
	#DEBUG_VALUE: argon2_free_instance:instance <- $rbx
	#DEBUG_VALUE: argon2_free_instance:flags <- [DW_OP_LLVM_entry_value 1] $esi
	#DEBUG_VALUE: free_memory:region <- $r14
	.loc	6 166 27                        # crypto_pwhash/argon2/argon2-core.c:166:27 @[ crypto_pwhash/argon2/argon2-core.c:187:5 ]
	movq	(%r14), %rdi
	.loc	6 166 19                        # crypto_pwhash/argon2/argon2-core.c:166:19 @[ crypto_pwhash/argon2/argon2-core.c:187:5 ]
	testq	%rdi, %rdi
	.loc	6 166 16                        # crypto_pwhash/argon2/argon2-core.c:166:16 @[ crypto_pwhash/argon2/argon2-core.c:187:5 ]
	je	.LBB1_8
.Ltmp56:
# %bb.7:
	#DEBUG_VALUE: argon2_free_instance:instance <- $rbx
	#DEBUG_VALUE: argon2_free_instance:flags <- [DW_OP_LLVM_entry_value 1] $esi
	#DEBUG_VALUE: free_memory:region <- $r14
	.loc	6 168 42 is_stmt 1              # crypto_pwhash/argon2/argon2-core.c:168:42 @[ crypto_pwhash/argon2/argon2-core.c:187:5 ]
	movq	16(%r14), %rsi
	.loc	6 168 13 is_stmt 0              # crypto_pwhash/argon2/argon2-core.c:168:13 @[ crypto_pwhash/argon2/argon2-core.c:187:5 ]
	callq	munmap@PLT
.Ltmp57:
	testl	%eax, %eax
	jne	.LBB1_9
.Ltmp58:
.LBB1_8:
	#DEBUG_VALUE: argon2_free_instance:instance <- $rbx
	#DEBUG_VALUE: argon2_free_instance:flags <- [DW_OP_LLVM_entry_value 1] $esi
	#DEBUG_VALUE: free_memory:region <- $r14
	.loc	6 175 5 is_stmt 1               # crypto_pwhash/argon2/argon2-core.c:175:5 @[ crypto_pwhash/argon2/argon2-core.c:187:5 ]
	movq	%r14, %rdi
	callq	free@PLT
.Ltmp59:
.LBB1_9:                                # %free_memory.exit
	#DEBUG_VALUE: argon2_free_instance:instance <- $rbx
	#DEBUG_VALUE: argon2_free_instance:flags <- [DW_OP_LLVM_entry_value 1] $esi
	.loc	6 188 22                        # crypto_pwhash/argon2/argon2-core.c:188:22
	movq	$0, (%rbx)
	.loc	6 189 1 epilogue_begin          # crypto_pwhash/argon2/argon2-core.c:189:1
	addq	$8, %rsp
	.cfi_def_cfa_offset 24
	popq	%rbx
.Ltmp60:
	#DEBUG_VALUE: argon2_free_instance:instance <- [DW_OP_LLVM_entry_value 1] $rdi
	.cfi_def_cfa_offset 16
	popq	%r14
	.cfi_def_cfa_offset 8
	retq
.Ltmp61:
.Lfunc_end1:
	.size	argon2_free_instance, .Lfunc_end1-argon2_free_instance
	.cfi_endproc
	.file	11 "/usr/include" "stdlib.h"
	.file	12 "/usr/include/x86_64-linux-gnu/sys" "mman.h"
                                        # -- End function
	.hidden	argon2_fill_memory_blocks       # -- Begin function argon2_fill_memory_blocks
	.globl	argon2_fill_memory_blocks
	.p2align	4
	.type	argon2_fill_memory_blocks,@function
argon2_fill_memory_blocks:              # @argon2_fill_memory_blocks
.Lfunc_begin2:
	.cfi_startproc
# %bb.0:
	#DEBUG_VALUE: argon2_fill_memory_blocks:instance <- $rdi
	#DEBUG_VALUE: argon2_fill_memory_blocks:pass <- $esi
	.loc	6 232 18 prologue_end           # crypto_pwhash/argon2/argon2-core.c:232:18
	testq	%rdi, %rdi
	.loc	6 232 32 is_stmt 0              # crypto_pwhash/argon2/argon2-core.c:232:32
	je	.LBB2_14
.Ltmp62:
# %bb.1:
	#DEBUG_VALUE: argon2_fill_memory_blocks:instance <- $rdi
	#DEBUG_VALUE: argon2_fill_memory_blocks:pass <- $esi
	pushq	%r15
	.cfi_def_cfa_offset 16
	pushq	%r14
	.cfi_def_cfa_offset 24
	pushq	%r13
	.cfi_def_cfa_offset 32
	pushq	%r12
	.cfi_def_cfa_offset 40
	pushq	%rbx
	.cfi_def_cfa_offset 48
	.cfi_offset %rbx, -48
	.cfi_offset %r12, -40
	.cfi_offset %r13, -32
	.cfi_offset %r14, -24
	.cfi_offset %r15, -16
	movq	%rdi, %rbx
	.loc	6 232 51                        # crypto_pwhash/argon2/argon2-core.c:232:51
	cmpl	$0, 36(%rdi)
	.loc	6 232 32                        # crypto_pwhash/argon2/argon2-core.c:232:32
	je	.LBB2_13
.Ltmp63:
# %bb.2:                                # %.lr.ph
	#DEBUG_VALUE: argon2_fill_memory_blocks:instance <- $rbx
	#DEBUG_VALUE: argon2_fill_memory_blocks:pass <- $esi
	.loc	6 0 32                          # crypto_pwhash/argon2/argon2-core.c:0:32
	movabsq	$4294967296, %r12               # imm = 0x100000000
	.loc	6 236 19 is_stmt 1              # crypto_pwhash/argon2/argon2-core.c:236:19
	movl	%esi, %r14d
.Ltmp64:
	#DEBUG_VALUE: argon2_fill_memory_blocks:pass <- $r14d
	#DEBUG_VALUE: argon2_fill_memory_blocks:position <- [DW_OP_LLVM_fragment 0 64] $r14d
	.loc	6 0 19 is_stmt 0                # crypto_pwhash/argon2/argon2-core.c:0:19
	xorl	%r13d, %r13d
.Ltmp65:
	#DEBUG_VALUE: argon2_fill_memory_blocks:s <- 0
	#DEBUG_VALUE: argon2_fill_memory_blocks:l <- 0
	#DEBUG_VALUE: argon2_fill_memory_blocks:position <- [DW_OP_LLVM_fragment 64 64] 0
	movq	%r14, %r15
.Ltmp66:
	.p2align	4
.LBB2_3:                                # =>This Inner Loop Header: Depth=1
	#DEBUG_VALUE: argon2_fill_memory_blocks:instance <- $rbx
	#DEBUG_VALUE: argon2_fill_memory_blocks:pass <- $r14d
	#DEBUG_VALUE: argon2_fill_memory_blocks:s <- 0
	#DEBUG_VALUE: argon2_fill_memory_blocks:position <- [DW_OP_LLVM_fragment 64 64] 0
	#DEBUG_VALUE: argon2_fill_memory_blocks:l <- $r13
	#DEBUG_VALUE: argon2_fill_memory_blocks:position <- [DW_OP_LLVM_fragment 0 64] $r14d
	#DEBUG_VALUE: argon2_fill_memory_blocks:position <- [DW_OP_LLVM_arg 0, DW_OP_constu 32, DW_OP_shl, DW_OP_LLVM_arg 1, DW_OP_or, DW_OP_stack_value, DW_OP_LLVM_fragment 32 32] $r13, $r14d
	#DEBUG_VALUE: argon2_fill_memory_blocks:position <- [DW_OP_LLVM_fragment 96 32] 0
	.loc	6 242 13 is_stmt 1              # crypto_pwhash/argon2/argon2-core.c:242:13
	movq	%rbx, %rdi
	movq	%r15, %rsi
	xorl	%edx, %edx
	callq	*fill_segment(%rip)
.Ltmp67:
	.loc	6 239 42                        # crypto_pwhash/argon2/argon2-core.c:239:42
	incq	%r13
.Ltmp68:
	#DEBUG_VALUE: argon2_fill_memory_blocks:l <- $r13
	#DEBUG_VALUE: argon2_fill_memory_blocks:position <- [DW_OP_LLVM_arg 0, DW_OP_constu 32, DW_OP_shl, DW_OP_LLVM_arg 1, DW_OP_or, DW_OP_stack_value, DW_OP_LLVM_fragment 0 64] undef, undef
	#DEBUG_VALUE: argon2_fill_memory_blocks:position <- [DW_OP_LLVM_fragment 64 64] 0
	.loc	6 239 35 is_stmt 0              # crypto_pwhash/argon2/argon2-core.c:239:35
	movl	36(%rbx), %eax
	.loc	6 239 23                        # crypto_pwhash/argon2/argon2-core.c:239:23
	addq	%r12, %r15
	cmpq	%rax, %r13
.Ltmp69:
	.loc	6 239 9                         # crypto_pwhash/argon2/argon2-core.c:239:9
	jb	.LBB2_3
.Ltmp70:
# %bb.4:                                # %._crit_edge
	#DEBUG_VALUE: argon2_fill_memory_blocks:instance <- $rbx
	#DEBUG_VALUE: argon2_fill_memory_blocks:pass <- $r14d
	#DEBUG_VALUE: argon2_fill_memory_blocks:s <- 0
	#DEBUG_VALUE: argon2_fill_memory_blocks:l <- $r13
	#DEBUG_VALUE: argon2_fill_memory_blocks:position <- [DW_OP_LLVM_fragment 64 64] 0
	#DEBUG_VALUE: argon2_fill_memory_blocks:s <- 1
	#DEBUG_VALUE: argon2_fill_memory_blocks:l <- 0
	#DEBUG_VALUE: argon2_fill_memory_blocks:position <- [DW_OP_LLVM_arg 0, DW_OP_constu 32, DW_OP_shl, DW_OP_LLVM_arg 1, DW_OP_or, DW_OP_stack_value, DW_OP_LLVM_fragment 0 64] undef, undef
	#DEBUG_VALUE: argon2_fill_memory_blocks:position <- [DW_OP_LLVM_fragment 64 64] 1
	.loc	6 239 23                        # crypto_pwhash/argon2/argon2-core.c:239:23
	testl	%eax, %eax
.Ltmp71:
	.loc	6 239 9                         # crypto_pwhash/argon2/argon2-core.c:239:9
	je	.LBB2_13
.Ltmp72:
# %bb.5:                                # %.lr.ph.1.preheader
	#DEBUG_VALUE: argon2_fill_memory_blocks:instance <- $rbx
	#DEBUG_VALUE: argon2_fill_memory_blocks:pass <- $r14d
	#DEBUG_VALUE: argon2_fill_memory_blocks:s <- 1
	#DEBUG_VALUE: argon2_fill_memory_blocks:l <- 0
	#DEBUG_VALUE: argon2_fill_memory_blocks:position <- [DW_OP_LLVM_fragment 64 64] 1
	.loc	6 0 9                           # crypto_pwhash/argon2/argon2-core.c:0:9
	xorl	%r13d, %r13d
	movq	%r14, %r15
.Ltmp73:
	.p2align	4
.LBB2_6:                                # %.lr.ph.1
                                        # =>This Inner Loop Header: Depth=1
	#DEBUG_VALUE: argon2_fill_memory_blocks:instance <- $rbx
	#DEBUG_VALUE: argon2_fill_memory_blocks:pass <- $r14d
	#DEBUG_VALUE: argon2_fill_memory_blocks:s <- 1
	#DEBUG_VALUE: argon2_fill_memory_blocks:position <- [DW_OP_LLVM_fragment 64 64] 1
	#DEBUG_VALUE: argon2_fill_memory_blocks:l <- $r13
	#DEBUG_VALUE: argon2_fill_memory_blocks:position <- [DW_OP_LLVM_fragment 0 64] $r14d
	#DEBUG_VALUE: argon2_fill_memory_blocks:position <- [DW_OP_LLVM_arg 0, DW_OP_constu 32, DW_OP_shl, DW_OP_LLVM_arg 1, DW_OP_or, DW_OP_stack_value, DW_OP_LLVM_fragment 32 32] $r13, $r14d
	#DEBUG_VALUE: argon2_fill_memory_blocks:position <- [DW_OP_LLVM_fragment 96 32] 1
	.loc	6 242 13 is_stmt 1              # crypto_pwhash/argon2/argon2-core.c:242:13
	movl	$1, %edx
	movq	%rbx, %rdi
	movq	%r15, %rsi
	callq	*fill_segment(%rip)
.Ltmp74:
	.loc	6 239 42                        # crypto_pwhash/argon2/argon2-core.c:239:42
	incq	%r13
.Ltmp75:
	#DEBUG_VALUE: argon2_fill_memory_blocks:l <- $r13
	#DEBUG_VALUE: argon2_fill_memory_blocks:position <- [DW_OP_LLVM_arg 0, DW_OP_constu 32, DW_OP_shl, DW_OP_LLVM_arg 1, DW_OP_or, DW_OP_stack_value, DW_OP_LLVM_fragment 0 64] undef, undef
	#DEBUG_VALUE: argon2_fill_memory_blocks:position <- [DW_OP_LLVM_fragment 64 64] 1
	.loc	6 239 35 is_stmt 0              # crypto_pwhash/argon2/argon2-core.c:239:35
	movl	36(%rbx), %eax
	.loc	6 239 23                        # crypto_pwhash/argon2/argon2-core.c:239:23
	addq	%r12, %r15
	cmpq	%rax, %r13
.Ltmp76:
	.loc	6 239 9                         # crypto_pwhash/argon2/argon2-core.c:239:9
	jb	.LBB2_6
.Ltmp77:
# %bb.7:                                # %._crit_edge.1
	#DEBUG_VALUE: argon2_fill_memory_blocks:instance <- $rbx
	#DEBUG_VALUE: argon2_fill_memory_blocks:pass <- $r14d
	#DEBUG_VALUE: argon2_fill_memory_blocks:s <- 1
	#DEBUG_VALUE: argon2_fill_memory_blocks:l <- $r13
	#DEBUG_VALUE: argon2_fill_memory_blocks:position <- [DW_OP_LLVM_fragment 64 64] 1
	.loc	6 239 23                        # crypto_pwhash/argon2/argon2-core.c:239:23
	testl	%eax, %eax
.Ltmp78:
	#DEBUG_VALUE: argon2_fill_memory_blocks:s <- 2
	#DEBUG_VALUE: argon2_fill_memory_blocks:l <- 0
	#DEBUG_VALUE: argon2_fill_memory_blocks:position <- [DW_OP_LLVM_fragment 0 64] undef
	#DEBUG_VALUE: argon2_fill_memory_blocks:position <- [DW_OP_LLVM_fragment 64 64] 2
	.loc	6 239 9                         # crypto_pwhash/argon2/argon2-core.c:239:9
	je	.LBB2_13
.Ltmp79:
# %bb.8:                                # %.lr.ph.2.preheader
	#DEBUG_VALUE: argon2_fill_memory_blocks:instance <- $rbx
	#DEBUG_VALUE: argon2_fill_memory_blocks:pass <- $r14d
	#DEBUG_VALUE: argon2_fill_memory_blocks:s <- 2
	#DEBUG_VALUE: argon2_fill_memory_blocks:l <- 0
	#DEBUG_VALUE: argon2_fill_memory_blocks:position <- [DW_OP_LLVM_fragment 64 64] 2
	.loc	6 0 9                           # crypto_pwhash/argon2/argon2-core.c:0:9
	xorl	%r13d, %r13d
	movq	%r14, %r15
.Ltmp80:
	.p2align	4
.LBB2_9:                                # %.lr.ph.2
                                        # =>This Inner Loop Header: Depth=1
	#DEBUG_VALUE: argon2_fill_memory_blocks:instance <- $rbx
	#DEBUG_VALUE: argon2_fill_memory_blocks:pass <- $r14d
	#DEBUG_VALUE: argon2_fill_memory_blocks:s <- 2
	#DEBUG_VALUE: argon2_fill_memory_blocks:position <- [DW_OP_LLVM_fragment 64 64] 2
	#DEBUG_VALUE: argon2_fill_memory_blocks:l <- $r13
	#DEBUG_VALUE: argon2_fill_memory_blocks:position <- [DW_OP_LLVM_fragment 0 64] $r14d
	#DEBUG_VALUE: argon2_fill_memory_blocks:position <- [DW_OP_LLVM_arg 0, DW_OP_constu 32, DW_OP_shl, DW_OP_LLVM_arg 1, DW_OP_or, DW_OP_stack_value, DW_OP_LLVM_fragment 32 32] $r13, $r14d
	#DEBUG_VALUE: argon2_fill_memory_blocks:position <- [DW_OP_LLVM_fragment 96 32] 2
	.loc	6 242 13 is_stmt 1              # crypto_pwhash/argon2/argon2-core.c:242:13
	movl	$2, %edx
	movq	%rbx, %rdi
	movq	%r15, %rsi
	callq	*fill_segment(%rip)
.Ltmp81:
	.loc	6 239 42                        # crypto_pwhash/argon2/argon2-core.c:239:42
	incq	%r13
.Ltmp82:
	#DEBUG_VALUE: argon2_fill_memory_blocks:l <- $r13
	#DEBUG_VALUE: argon2_fill_memory_blocks:position <- [DW_OP_LLVM_arg 0, DW_OP_constu 32, DW_OP_shl, DW_OP_LLVM_arg 1, DW_OP_or, DW_OP_stack_value, DW_OP_LLVM_fragment 0 64] undef, undef
	#DEBUG_VALUE: argon2_fill_memory_blocks:position <- [DW_OP_LLVM_fragment 64 64] 2
	.loc	6 239 35 is_stmt 0              # crypto_pwhash/argon2/argon2-core.c:239:35
	movl	36(%rbx), %eax
	.loc	6 239 23                        # crypto_pwhash/argon2/argon2-core.c:239:23
	addq	%r12, %r15
	cmpq	%rax, %r13
.Ltmp83:
	.loc	6 239 9                         # crypto_pwhash/argon2/argon2-core.c:239:9
	jb	.LBB2_9
.Ltmp84:
# %bb.10:                               # %._crit_edge.2
	#DEBUG_VALUE: argon2_fill_memory_blocks:instance <- $rbx
	#DEBUG_VALUE: argon2_fill_memory_blocks:pass <- $r14d
	#DEBUG_VALUE: argon2_fill_memory_blocks:s <- 2
	#DEBUG_VALUE: argon2_fill_memory_blocks:l <- $r13
	#DEBUG_VALUE: argon2_fill_memory_blocks:position <- [DW_OP_LLVM_fragment 64 64] 2
	.loc	6 239 23                        # crypto_pwhash/argon2/argon2-core.c:239:23
	testl	%eax, %eax
.Ltmp85:
	#DEBUG_VALUE: argon2_fill_memory_blocks:s <- 3
	#DEBUG_VALUE: argon2_fill_memory_blocks:l <- 0
	#DEBUG_VALUE: argon2_fill_memory_blocks:position <- [DW_OP_LLVM_fragment 0 64] undef
	#DEBUG_VALUE: argon2_fill_memory_blocks:position <- [DW_OP_LLVM_fragment 64 64] 3
	.loc	6 239 9                         # crypto_pwhash/argon2/argon2-core.c:239:9
	je	.LBB2_13
.Ltmp86:
# %bb.11:                               # %.lr.ph.3.preheader
	#DEBUG_VALUE: argon2_fill_memory_blocks:instance <- $rbx
	#DEBUG_VALUE: argon2_fill_memory_blocks:pass <- $r14d
	#DEBUG_VALUE: argon2_fill_memory_blocks:s <- 3
	#DEBUG_VALUE: argon2_fill_memory_blocks:l <- 0
	#DEBUG_VALUE: argon2_fill_memory_blocks:position <- [DW_OP_LLVM_fragment 64 64] 3
	.loc	6 0 9                           # crypto_pwhash/argon2/argon2-core.c:0:9
	xorl	%r15d, %r15d
.Ltmp87:
	.p2align	4
.LBB2_12:                               # %.lr.ph.3
                                        # =>This Inner Loop Header: Depth=1
	#DEBUG_VALUE: argon2_fill_memory_blocks:instance <- $rbx
	#DEBUG_VALUE: argon2_fill_memory_blocks:pass <- [DW_OP_LLVM_entry_value 1] $esi
	#DEBUG_VALUE: argon2_fill_memory_blocks:s <- 3
	#DEBUG_VALUE: argon2_fill_memory_blocks:position <- [DW_OP_LLVM_fragment 64 64] 3
	#DEBUG_VALUE: argon2_fill_memory_blocks:l <- $r15
	#DEBUG_VALUE: argon2_fill_memory_blocks:position <- [DW_OP_LLVM_fragment 0 64] undef
	#DEBUG_VALUE: argon2_fill_memory_blocks:position <- [DW_OP_LLVM_arg 0, DW_OP_constu 32, DW_OP_shl, DW_OP_LLVM_arg 1, DW_OP_or, DW_OP_stack_value, DW_OP_LLVM_fragment 32 32] undef, undef
	#DEBUG_VALUE: argon2_fill_memory_blocks:position <- [DW_OP_LLVM_fragment 96 32] 3
	.loc	6 242 13 is_stmt 1              # crypto_pwhash/argon2/argon2-core.c:242:13
	movl	$3, %edx
	movq	%rbx, %rdi
	movq	%r14, %rsi
	callq	*fill_segment(%rip)
.Ltmp88:
	.loc	6 239 42                        # crypto_pwhash/argon2/argon2-core.c:239:42
	incq	%r15
.Ltmp89:
	#DEBUG_VALUE: argon2_fill_memory_blocks:l <- $r15
	#DEBUG_VALUE: argon2_fill_memory_blocks:position <- [DW_OP_LLVM_arg 0, DW_OP_constu 32, DW_OP_shl, DW_OP_LLVM_arg 1, DW_OP_or, DW_OP_stack_value, DW_OP_LLVM_fragment 0 64] undef, undef
	#DEBUG_VALUE: argon2_fill_memory_blocks:position <- [DW_OP_LLVM_fragment 64 64] 3
	.loc	6 239 35 is_stmt 0              # crypto_pwhash/argon2/argon2-core.c:239:35
	movl	36(%rbx), %eax
	.loc	6 239 23                        # crypto_pwhash/argon2/argon2-core.c:239:23
	addq	%r12, %r14
	cmpq	%rax, %r15
.Ltmp90:
	.loc	6 239 9                         # crypto_pwhash/argon2/argon2-core.c:239:9
	jb	.LBB2_12
.Ltmp91:
.LBB2_13:
	#DEBUG_VALUE: argon2_fill_memory_blocks:instance <- $rbx
	#DEBUG_VALUE: argon2_fill_memory_blocks:pass <- [DW_OP_LLVM_entry_value 1] $esi
	.loc	6 0 9                           # crypto_pwhash/argon2/argon2-core.c:0:9
	popq	%rbx
.Ltmp92:
	#DEBUG_VALUE: argon2_fill_memory_blocks:instance <- [DW_OP_LLVM_entry_value 1] $rdi
	.cfi_def_cfa_offset 40
	popq	%r12
	.cfi_def_cfa_offset 32
	popq	%r13
	.cfi_def_cfa_offset 24
	popq	%r14
	.cfi_def_cfa_offset 16
	popq	%r15
	.cfi_def_cfa_offset 8
	.cfi_restore %rbx
	.cfi_restore %r12
	.cfi_restore %r13
	.cfi_restore %r14
	.cfi_restore %r15
.Ltmp93:
.LBB2_14:                               # %.loopexit
	#DEBUG_VALUE: argon2_fill_memory_blocks:instance <- [DW_OP_LLVM_entry_value 1] $rdi
	#DEBUG_VALUE: argon2_fill_memory_blocks:pass <- [DW_OP_LLVM_entry_value 1] $esi
	.loc	6 245 1 is_stmt 1               # crypto_pwhash/argon2/argon2-core.c:245:1
	retq
.Ltmp94:
.Lfunc_end2:
	.size	argon2_fill_memory_blocks, .Lfunc_end2-argon2_fill_memory_blocks
	.cfi_endproc
                                        # -- End function
	.hidden	argon2_validate_inputs          # -- Begin function argon2_validate_inputs
	.globl	argon2_validate_inputs
	.p2align	4
	.type	argon2_validate_inputs,@function
argon2_validate_inputs:                 # @argon2_validate_inputs
.Lfunc_begin3:
	.cfi_startproc
# %bb.0:
	#DEBUG_VALUE: argon2_validate_inputs:context <- $rdi
	.loc	6 251 20 prologue_end           # crypto_pwhash/argon2/argon2-core.c:251:20
	testq	%rdi, %rdi
	je	.LBB3_1
.Ltmp95:
# %bb.2:
	#DEBUG_VALUE: argon2_validate_inputs:context <- $rdi
	.loc	6 255 20                        # crypto_pwhash/argon2/argon2-core.c:255:20
	cmpq	$0, (%rdi)
	je	.LBB3_3
.Ltmp96:
# %bb.4:
	#DEBUG_VALUE: argon2_validate_inputs:context <- $rdi
	.loc	6 0 20 is_stmt 0                # crypto_pwhash/argon2/argon2-core.c:0:20
	movl	$-2, %eax
.Ltmp97:
	.loc	6 260 13 is_stmt 1              # crypto_pwhash/argon2/argon2-core.c:260:13
	cmpl	$16, 8(%rdi)
	jae	.LBB3_5
.Ltmp98:
.LBB3_23:                               # %.thread
	#DEBUG_VALUE: argon2_validate_inputs:context <- $rdi
	.loc	6 370 1                         # crypto_pwhash/argon2/argon2-core.c:370:1
	retq
.Ltmp99:
.LBB3_1:
	#DEBUG_VALUE: argon2_validate_inputs:context <- $rdi
	.loc	6 0 1 is_stmt 0                 # crypto_pwhash/argon2/argon2-core.c:0:1
	movl	$-25, %eax
	.loc	6 370 1 is_stmt 1               # crypto_pwhash/argon2/argon2-core.c:370:1
	retq
.Ltmp100:
.LBB3_3:
	#DEBUG_VALUE: argon2_validate_inputs:context <- $rdi
	.loc	6 0 1 is_stmt 0                 # crypto_pwhash/argon2/argon2-core.c:0:1
	movl	$-1, %eax
	.loc	6 370 1 is_stmt 1               # crypto_pwhash/argon2/argon2-core.c:370:1
	retq
.Ltmp101:
.LBB3_5:
	#DEBUG_VALUE: argon2_validate_inputs:context <- $rdi
	.loc	6 269 20                        # crypto_pwhash/argon2/argon2-core.c:269:20
	cmpq	$0, 16(%rdi)
	je	.LBB3_6
.Ltmp102:
.LBB3_7:
	#DEBUG_VALUE: argon2_validate_inputs:context <- $rdi
	.loc	6 284 20                        # crypto_pwhash/argon2/argon2-core.c:284:20
	cmpq	$0, 32(%rdi)
.Ltmp103:
	.loc	6 0 0 is_stmt 0                 # crypto_pwhash/argon2/argon2-core.c:0
	movl	40(%rdi), %ecx
.Ltmp104:
	.loc	6 284 20                        # crypto_pwhash/argon2/argon2-core.c:284:20
	je	.LBB3_8
.Ltmp105:
# %bb.9:
	#DEBUG_VALUE: argon2_validate_inputs:context <- $rdi
	.loc	6 0 20                          # crypto_pwhash/argon2/argon2-core.c:0:20
	movl	$-6, %eax
.Ltmp106:
	.loc	6 290 12 is_stmt 1              # crypto_pwhash/argon2/argon2-core.c:290:12
	cmpl	$8, %ecx
	jb	.LBB3_23
.Ltmp107:
# %bb.10:
	#DEBUG_VALUE: argon2_validate_inputs:context <- $rdi
	.loc	6 299 20                        # crypto_pwhash/argon2/argon2-core.c:299:20
	cmpq	$0, 48(%rdi)
	je	.LBB3_11
.Ltmp108:
.LBB3_12:
	#DEBUG_VALUE: argon2_validate_inputs:context <- $rdi
	.loc	6 314 20                        # crypto_pwhash/argon2/argon2-core.c:314:20
	cmpq	$0, 64(%rdi)
	je	.LBB3_13
.Ltmp109:
.LBB3_14:
	#DEBUG_VALUE: argon2_validate_inputs:context <- $rdi
	.loc	6 329 23                        # crypto_pwhash/argon2/argon2-core.c:329:23
	movl	84(%rdi), %ecx
	.loc	6 329 12 is_stmt 0              # crypto_pwhash/argon2/argon2-core.c:329:12
	testl	%ecx, %ecx
	je	.LBB3_15
.Ltmp110:
# %bb.16:
	#DEBUG_VALUE: argon2_validate_inputs:context <- $rdi
	.loc	6 0 12                          # crypto_pwhash/argon2/argon2-core.c:0:12
	movl	$-17, %eax
.Ltmp111:
	.loc	6 333 19 is_stmt 1              # crypto_pwhash/argon2/argon2-core.c:333:19
	cmpl	$16777215, %ecx                 # imm = 0xFFFFFF
	ja	.LBB3_23
.Ltmp112:
# %bb.17:
	#DEBUG_VALUE: argon2_validate_inputs:context <- $rdi
	.loc	6 338 29                        # crypto_pwhash/argon2/argon2-core.c:338:29
	movl	80(%rdi), %eax
	.loc	6 338 18 is_stmt 0              # crypto_pwhash/argon2/argon2-core.c:338:18
	cmpl	$8, %eax
	setb	%dl
	shll	$3, %ecx
	cmpl	%ecx, %eax
	setb	%al
	orb	%dl, %al
	movl	$-14, %eax
	jne	.LBB3_23
.Ltmp113:
# %bb.18:
	#DEBUG_VALUE: argon2_validate_inputs:context <- $rdi
	.loc	6 351 12 is_stmt 1              # crypto_pwhash/argon2/argon2-core.c:351:12
	cmpl	$0, 76(%rdi)
	je	.LBB3_19
.Ltmp114:
# %bb.20:
	#DEBUG_VALUE: argon2_validate_inputs:context <- $rdi
	.loc	6 360 23                        # crypto_pwhash/argon2/argon2-core.c:360:23
	movl	88(%rdi), %eax
	.loc	6 360 12 is_stmt 0              # crypto_pwhash/argon2/argon2-core.c:360:12
	testl	%eax, %eax
	je	.LBB3_21
.Ltmp115:
# %bb.22:
	#DEBUG_VALUE: argon2_validate_inputs:context <- $rdi
	.loc	6 0 12                          # crypto_pwhash/argon2/argon2-core.c:0:12
	xorl	%ecx, %ecx
.Ltmp116:
	.loc	6 364 19 is_stmt 1              # crypto_pwhash/argon2/argon2-core.c:364:19
	cmpl	$16777216, %eax                 # imm = 0x1000000
	movl	$-29, %eax
.Ltmp117:
	.loc	6 0 0 is_stmt 0                 # crypto_pwhash/argon2/argon2-core.c:0
	cmovbl	%ecx, %eax
	.loc	6 370 1 is_stmt 1               # crypto_pwhash/argon2/argon2-core.c:370:1
	retq
.Ltmp118:
.LBB3_6:
	#DEBUG_VALUE: argon2_validate_inputs:context <- $rdi
	.loc	6 0 1 is_stmt 0                 # crypto_pwhash/argon2/argon2-core.c:0:1
	movl	$-18, %eax
.Ltmp119:
	.loc	6 270 15 is_stmt 1              # crypto_pwhash/argon2/argon2-core.c:270:15
	cmpl	$0, 24(%rdi)
	jne	.LBB3_23
	jmp	.LBB3_7
.Ltmp120:
.LBB3_8:
	#DEBUG_VALUE: argon2_validate_inputs:context <- $rdi
	.loc	6 285 15                        # crypto_pwhash/argon2/argon2-core.c:285:15
	testl	%ecx, %ecx
	movl	$-6, %ecx
	movl	$-19, %eax
	cmovel	%ecx, %eax
.Ltmp121:
	.loc	6 370 1                         # crypto_pwhash/argon2/argon2-core.c:370:1
	retq
.Ltmp122:
.LBB3_11:
	#DEBUG_VALUE: argon2_validate_inputs:context <- $rdi
	.loc	6 0 1 is_stmt 0                 # crypto_pwhash/argon2/argon2-core.c:0:1
	movl	$-20, %eax
.Ltmp123:
	.loc	6 300 15 is_stmt 1              # crypto_pwhash/argon2/argon2-core.c:300:15
	cmpl	$0, 56(%rdi)
	jne	.LBB3_23
	jmp	.LBB3_12
.Ltmp124:
.LBB3_13:
	#DEBUG_VALUE: argon2_validate_inputs:context <- $rdi
	.loc	6 0 15 is_stmt 0                # crypto_pwhash/argon2/argon2-core.c:0:15
	movl	$-21, %eax
.Ltmp125:
	.loc	6 315 15 is_stmt 1              # crypto_pwhash/argon2/argon2-core.c:315:15
	cmpl	$0, 72(%rdi)
	jne	.LBB3_23
	jmp	.LBB3_14
.Ltmp126:
.LBB3_15:
	#DEBUG_VALUE: argon2_validate_inputs:context <- $rdi
	.loc	6 0 15 is_stmt 0                # crypto_pwhash/argon2/argon2-core.c:0:15
	movl	$-16, %eax
	.loc	6 370 1 is_stmt 1               # crypto_pwhash/argon2/argon2-core.c:370:1
	retq
.Ltmp127:
.LBB3_19:
	#DEBUG_VALUE: argon2_validate_inputs:context <- $rdi
	.loc	6 0 1 is_stmt 0                 # crypto_pwhash/argon2/argon2-core.c:0:1
	movl	$-12, %eax
	.loc	6 370 1 is_stmt 1               # crypto_pwhash/argon2/argon2-core.c:370:1
	retq
.Ltmp128:
.LBB3_21:
	#DEBUG_VALUE: argon2_validate_inputs:context <- $rdi
	.loc	6 0 1 is_stmt 0                 # crypto_pwhash/argon2/argon2-core.c:0:1
	movl	$-28, %eax
	.loc	6 370 1 is_stmt 1               # crypto_pwhash/argon2/argon2-core.c:370:1
	retq
.Ltmp129:
.Lfunc_end3:
	.size	argon2_validate_inputs, .Lfunc_end3-argon2_validate_inputs
	.cfi_endproc
                                        # -- End function
	.hidden	argon2_initialize               # -- Begin function argon2_initialize
	.globl	argon2_initialize
	.p2align	4
	.type	argon2_initialize,@function
argon2_initialize:                      # @argon2_initialize
.Lfunc_begin4:
	.loc	6 482 0                         # crypto_pwhash/argon2/argon2-core.c:482:0
	.cfi_startproc
# %bb.0:
	#DEBUG_VALUE: argon2_initialize:instance <- $rdi
	#DEBUG_VALUE: argon2_initialize:context <- $rsi
	pushq	%rbp
	.cfi_def_cfa_offset 16
	.cfi_offset %rbp, -16
	movq	%rsp, %rbp
	.cfi_def_cfa_register %rbp
	pushq	%r15
	pushq	%r14
	pushq	%r13
	pushq	%r12
	pushq	%rbx
	andq	$-64, %rsp
	subq	$1216, %rsp                     # imm = 0x4C0
	.cfi_offset %rbx, -56
	.cfi_offset %r12, -48
	.cfi_offset %r13, -40
	.cfi_offset %r14, -32
	.cfi_offset %r15, -24
	movq	%fs:40, %rax
	movq	%rax, 1152(%rsp)
.Ltmp130:
	#DEBUG_VALUE: argon2_initialize:result <- 0
	.loc	6 486 18 prologue_end           # crypto_pwhash/argon2/argon2-core.c:486:18
	testq	%rdi, %rdi
	sete	%al
	testq	%rsi, %rsi
	sete	%cl
	.loc	6 486 32 is_stmt 0              # crypto_pwhash/argon2/argon2-core.c:486:32
	orb	%al, %cl
	movl	$-25, %eax
	jne	.LBB4_31
.Ltmp131:
# %bb.1:
	#DEBUG_VALUE: argon2_initialize:instance <- $rdi
	#DEBUG_VALUE: argon2_initialize:context <- $rsi
	#DEBUG_VALUE: argon2_initialize:result <- 0
	.loc	6 0 32                          # crypto_pwhash/argon2/argon2-core.c:0:32
	movq	%rsi, %r14
	movq	%rdi, %rbx
.Ltmp132:
	.loc	6 493 46 is_stmt 1              # crypto_pwhash/argon2/argon2-core.c:493:46
	movl	28(%rdi), %edi
.Ltmp133:
	#DEBUG_VALUE: argon2_initialize:instance <- $rbx
	.loc	6 493 34 is_stmt 0              # crypto_pwhash/argon2/argon2-core.c:493:34
	shlq	$3, %rdi
	.loc	6 493 10                        # crypto_pwhash/argon2/argon2-core.c:493:10
	callq	malloc@PLT
.Ltmp134:
	#DEBUG_VALUE: argon2_initialize:context <- $r14
	movq	%rax, %rcx
	.loc	6 492 33 is_stmt 1              # crypto_pwhash/argon2/argon2-core.c:492:33
	movq	%rax, 8(%rbx)
	movl	$-22, %eax
	.loc	6 493 63                        # crypto_pwhash/argon2/argon2-core.c:493:63
	testq	%rcx, %rcx
	je	.LBB4_31
.Ltmp135:
# %bb.2:
	#DEBUG_VALUE: argon2_initialize:instance <- $rbx
	#DEBUG_VALUE: argon2_initialize:context <- $r14
	#DEBUG_VALUE: argon2_initialize:result <- 0
	.loc	6 497 61                        # crypto_pwhash/argon2/argon2-core.c:497:61
	movl	24(%rbx), %r15d
.Ltmp136:
	#DEBUG_VALUE: allocate_memory:region <- $rbx
	#DEBUG_VALUE: allocate_memory:m_cost <- undef
	#DEBUG_VALUE: allocate_memory:memory_size <- undef
	testq	%r15, %r15
.Ltmp137:
	.loc	6 87 21                         # crypto_pwhash/argon2/argon2-core.c:87:21 @[ crypto_pwhash/argon2/argon2-core.c:497:14 ]
	je	.LBB4_6
.Ltmp138:
# %bb.3:
	#DEBUG_VALUE: argon2_initialize:instance <- $rbx
	#DEBUG_VALUE: argon2_initialize:context <- $r14
	#DEBUG_VALUE: argon2_initialize:result <- 0
	#DEBUG_VALUE: allocate_memory:region <- $rbx
	.loc	6 90 32                         # crypto_pwhash/argon2/argon2-core.c:90:32 @[ crypto_pwhash/argon2/argon2-core.c:497:14 ]
	movl	$24, %edi
	callq	malloc@PLT
.Ltmp139:
	.loc	6 90 13 is_stmt 0               # crypto_pwhash/argon2/argon2-core.c:90:13 @[ crypto_pwhash/argon2/argon2-core.c:497:14 ]
	movq	%rax, (%rbx)
.Ltmp140:
	.loc	6 91 17 is_stmt 1               # crypto_pwhash/argon2/argon2-core.c:91:17 @[ crypto_pwhash/argon2/argon2-core.c:497:14 ]
	testq	%rax, %rax
	je	.LBB4_6
.Ltmp141:
# %bb.4:
	#DEBUG_VALUE: argon2_initialize:instance <- $rbx
	#DEBUG_VALUE: argon2_initialize:context <- $r14
	#DEBUG_VALUE: argon2_initialize:result <- 0
	#DEBUG_VALUE: allocate_memory:region <- $rbx
	.loc	6 0 0 is_stmt 0                 # crypto_pwhash/argon2/argon2-core.c:0 @[ crypto_pwhash/argon2/argon2-core.c:497:14 ]
	shlq	$10, %r15
.Ltmp142:
	#DEBUG_VALUE: allocate_memory:memory_size <- $r15
	.loc	6 94 21 is_stmt 1               # crypto_pwhash/argon2/argon2-core.c:94:21 @[ crypto_pwhash/argon2/argon2-core.c:497:14 ]
	xorps	%xmm0, %xmm0
	movups	%xmm0, (%rax)
.Ltmp143:
	.loc	6 97 17                         # crypto_pwhash/argon2/argon2-core.c:97:17 @[ crypto_pwhash/argon2/argon2-core.c:497:14 ]
	xorl	%edi, %edi
	movq	%r15, %rsi
	movl	$3, %edx
	movl	$32802, %ecx                    # imm = 0x8022
	movl	$-1, %r8d
	xorl	%r9d, %r9d
	callq	mmap@PLT
.Ltmp144:
	#DEBUG_VALUE: allocate_memory:base <- undef
	#DEBUG_VALUE: allocate_memory:memory <- undef
	.loc	6 119 14                        # crypto_pwhash/argon2/argon2-core.c:119:14 @[ crypto_pwhash/argon2/argon2-core.c:497:14 ]
	leaq	1(%rax), %rcx
	cmpq	$1, %rcx
	ja	.LBB4_7
.Ltmp145:
# %bb.5:
	#DEBUG_VALUE: argon2_initialize:instance <- $rbx
	#DEBUG_VALUE: argon2_initialize:context <- $r14
	#DEBUG_VALUE: argon2_initialize:result <- 0
	#DEBUG_VALUE: allocate_memory:region <- $rbx
	#DEBUG_VALUE: allocate_memory:memory_size <- $r15
	.loc	6 121 14                        # crypto_pwhash/argon2/argon2-core.c:121:14 @[ crypto_pwhash/argon2/argon2-core.c:497:14 ]
	movq	(%rbx), %rdi
	.loc	6 121 9 is_stmt 0               # crypto_pwhash/argon2/argon2-core.c:121:9 @[ crypto_pwhash/argon2/argon2-core.c:497:14 ]
	callq	free@PLT
.Ltmp146:
	.loc	6 122 17 is_stmt 1              # crypto_pwhash/argon2/argon2-core.c:122:17 @[ crypto_pwhash/argon2/argon2-core.c:497:14 ]
	movq	$0, (%rbx)
.Ltmp147:
.LBB4_6:
	#DEBUG_VALUE: argon2_initialize:instance <- $rbx
	#DEBUG_VALUE: argon2_initialize:context <- $r14
	#DEBUG_VALUE: argon2_initialize:result <- 0
	#DEBUG_VALUE: argon2_initialize:result <- -22
	.loc	6 499 49                        # crypto_pwhash/argon2/argon2-core.c:499:49
	movl	92(%r14), %esi
	.loc	6 499 9 is_stmt 0               # crypto_pwhash/argon2/argon2-core.c:499:9
	movq	%rbx, %rdi
	callq	argon2_free_instance
.Ltmp148:
	.loc	6 0 9                           # crypto_pwhash/argon2/argon2-core.c:0:9
	movl	$-22, %eax
.Ltmp149:
.LBB4_31:
	#DEBUG_VALUE: argon2_initialize:instance <- [DW_OP_LLVM_entry_value 1] $rdi
	#DEBUG_VALUE: argon2_initialize:context <- [DW_OP_LLVM_entry_value 1] $rsi
	.loc	6 519 1 is_stmt 1               # crypto_pwhash/argon2/argon2-core.c:519:1
	movq	%fs:40, %rcx
	cmpq	1152(%rsp), %rcx
	jne	.LBB4_33
.Ltmp150:
# %bb.32:                               # %SP_return
	#DEBUG_VALUE: argon2_initialize:instance <- [DW_OP_LLVM_entry_value 1] $rdi
	#DEBUG_VALUE: argon2_initialize:context <- [DW_OP_LLVM_entry_value 1] $rsi
	leaq	-40(%rbp), %rsp
	.loc	6 519 1 epilogue_begin is_stmt 0 # crypto_pwhash/argon2/argon2-core.c:519:1
	popq	%rbx
	popq	%r12
	popq	%r13
	popq	%r14
	popq	%r15
	popq	%rbp
	.cfi_def_cfa %rsp, 8
	retq
.Ltmp151:
.LBB4_7:
	.cfi_def_cfa %rbp, 16
	#DEBUG_VALUE: argon2_initialize:instance <- $rbx
	#DEBUG_VALUE: argon2_initialize:context <- $r14
	#DEBUG_VALUE: argon2_initialize:result <- 0
	#DEBUG_VALUE: allocate_memory:region <- $rbx
	#DEBUG_VALUE: allocate_memory:memory_size <- $r15
	.loc	6 126 6 is_stmt 1               # crypto_pwhash/argon2/argon2-core.c:126:6 @[ crypto_pwhash/argon2/argon2-core.c:497:14 ]
	movq	(%rbx), %rcx
	.loc	6 126 21 is_stmt 0              # crypto_pwhash/argon2/argon2-core.c:126:21 @[ crypto_pwhash/argon2/argon2-core.c:497:14 ]
	movq	%rax, (%rcx)
	.loc	6 127 6 is_stmt 1               # crypto_pwhash/argon2/argon2-core.c:127:6 @[ crypto_pwhash/argon2/argon2-core.c:497:14 ]
	movq	(%rbx), %rcx
	.loc	6 127 23 is_stmt 0              # crypto_pwhash/argon2/argon2-core.c:127:23 @[ crypto_pwhash/argon2/argon2-core.c:497:14 ]
	movq	%rax, 8(%rcx)
	.loc	6 128 6 is_stmt 1               # crypto_pwhash/argon2/argon2-core.c:128:6 @[ crypto_pwhash/argon2/argon2-core.c:497:14 ]
	movq	(%rbx), %rax
	.loc	6 128 21 is_stmt 0              # crypto_pwhash/argon2/argon2-core.c:128:21 @[ crypto_pwhash/argon2/argon2-core.c:497:14 ]
	movq	%r15, 16(%rax)
.Ltmp152:
	#DEBUG_VALUE: argon2_initialize:result <- 0
	.loc	6 507 55 is_stmt 1              # crypto_pwhash/argon2/argon2-core.c:507:55
	movl	44(%rbx), %r13d
.Ltmp153:
	#DEBUG_VALUE: argon2_initial_hash:type <- $r13d
	#DEBUG_VALUE: argon2_initial_hash:value <- [DW_OP_plus_uconst 44, DW_OP_deref] $rsp
	#DEBUG_VALUE: argon2_initial_hash:blockhash <- [DW_OP_plus_uconst 48, DW_OP_stack_value] $rsp
	#DEBUG_VALUE: argon2_initial_hash:context <- $r14
	.loc	6 0 55 is_stmt 0                # crypto_pwhash/argon2/argon2-core.c:0:55
	leaq	128(%rsp), %r15
.Ltmp154:
	.loc	6 407 5 is_stmt 1               # crypto_pwhash/argon2/argon2-core.c:407:5 @[ crypto_pwhash/argon2/argon2-core.c:507:5 ]
	movl	$64, %ecx
	movq	%r15, %rdi
	xorl	%esi, %esi
	xorl	%edx, %edx
	callq	crypto_generichash_blake2b_init@PLT
.Ltmp155:
	.loc	6 410 35                        # crypto_pwhash/argon2/argon2-core.c:410:35 @[ crypto_pwhash/argon2/argon2-core.c:507:5 ]
	movl	84(%r14), %eax
.Ltmp156:
	#DEBUG_VALUE: store32_le:dst <- [DW_OP_plus_uconst 44, DW_OP_stack_value] $rsp
	#DEBUG_VALUE: store32_le:w <- undef
	#DEBUG_VALUE: memcpy:__dest <- [DW_OP_plus_uconst 44, DW_OP_stack_value] $rsp
	#DEBUG_VALUE: memcpy:__src <- undef
	#DEBUG_VALUE: memcpy:__len <- 4
	.loc	7 29 10                         # /usr/include/x86_64-linux-gnu/bits/string_fortified.h:29:10 @[ ./include/sodium/private/common.h:122:5 @[ crypto_pwhash/argon2/argon2-core.c:410:5 @[ crypto_pwhash/argon2/argon2-core.c:507:5 ] ] ]
	movl	%eax, 44(%rsp)
	leaq	44(%rsp), %r12
.Ltmp157:
	.loc	6 411 5                         # crypto_pwhash/argon2/argon2-core.c:411:5 @[ crypto_pwhash/argon2/argon2-core.c:507:5 ]
	movl	$4, %edx
	movq	%r15, %rdi
	movq	%r12, %rsi
	callq	crypto_generichash_blake2b_update@PLT
.Ltmp158:
	.loc	6 413 35                        # crypto_pwhash/argon2/argon2-core.c:413:35 @[ crypto_pwhash/argon2/argon2-core.c:507:5 ]
	movl	8(%r14), %eax
.Ltmp159:
	#DEBUG_VALUE: store32_le:dst <- [DW_OP_plus_uconst 44, DW_OP_stack_value] $rsp
	#DEBUG_VALUE: store32_le:w <- undef
	#DEBUG_VALUE: memcpy:__dest <- [DW_OP_plus_uconst 44, DW_OP_stack_value] $rsp
	#DEBUG_VALUE: memcpy:__src <- undef
	#DEBUG_VALUE: memcpy:__len <- 4
	.loc	7 29 10                         # /usr/include/x86_64-linux-gnu/bits/string_fortified.h:29:10 @[ ./include/sodium/private/common.h:122:5 @[ crypto_pwhash/argon2/argon2-core.c:413:5 @[ crypto_pwhash/argon2/argon2-core.c:507:5 ] ] ]
	movl	%eax, 44(%rsp)
.Ltmp160:
	.loc	6 414 5                         # crypto_pwhash/argon2/argon2-core.c:414:5 @[ crypto_pwhash/argon2/argon2-core.c:507:5 ]
	movl	$4, %edx
	movq	%r15, %rdi
	movq	%r12, %rsi
	callq	crypto_generichash_blake2b_update@PLT
.Ltmp161:
	.loc	6 416 35                        # crypto_pwhash/argon2/argon2-core.c:416:35 @[ crypto_pwhash/argon2/argon2-core.c:507:5 ]
	movl	80(%r14), %eax
.Ltmp162:
	#DEBUG_VALUE: store32_le:dst <- [DW_OP_plus_uconst 44, DW_OP_stack_value] $rsp
	#DEBUG_VALUE: store32_le:w <- undef
	#DEBUG_VALUE: memcpy:__dest <- [DW_OP_plus_uconst 44, DW_OP_stack_value] $rsp
	#DEBUG_VALUE: memcpy:__src <- undef
	#DEBUG_VALUE: memcpy:__len <- 4
	.loc	7 29 10                         # /usr/include/x86_64-linux-gnu/bits/string_fortified.h:29:10 @[ ./include/sodium/private/common.h:122:5 @[ crypto_pwhash/argon2/argon2-core.c:416:5 @[ crypto_pwhash/argon2/argon2-core.c:507:5 ] ] ]
	movl	%eax, 44(%rsp)
.Ltmp163:
	.loc	6 417 5                         # crypto_pwhash/argon2/argon2-core.c:417:5 @[ crypto_pwhash/argon2/argon2-core.c:507:5 ]
	movl	$4, %edx
	movq	%r15, %rdi
	movq	%r12, %rsi
	callq	crypto_generichash_blake2b_update@PLT
.Ltmp164:
	.loc	6 419 35                        # crypto_pwhash/argon2/argon2-core.c:419:35 @[ crypto_pwhash/argon2/argon2-core.c:507:5 ]
	movl	76(%r14), %eax
.Ltmp165:
	#DEBUG_VALUE: store32_le:dst <- [DW_OP_plus_uconst 44, DW_OP_stack_value] $rsp
	#DEBUG_VALUE: store32_le:w <- undef
	#DEBUG_VALUE: memcpy:__dest <- [DW_OP_plus_uconst 44, DW_OP_stack_value] $rsp
	#DEBUG_VALUE: memcpy:__src <- undef
	#DEBUG_VALUE: memcpy:__len <- 4
	.loc	7 29 10                         # /usr/include/x86_64-linux-gnu/bits/string_fortified.h:29:10 @[ ./include/sodium/private/common.h:122:5 @[ crypto_pwhash/argon2/argon2-core.c:419:5 @[ crypto_pwhash/argon2/argon2-core.c:507:5 ] ] ]
	movl	%eax, 44(%rsp)
.Ltmp166:
	.loc	6 420 5                         # crypto_pwhash/argon2/argon2-core.c:420:5 @[ crypto_pwhash/argon2/argon2-core.c:507:5 ]
	movl	$4, %edx
	movq	%r15, %rdi
	movq	%r12, %rsi
	callq	crypto_generichash_blake2b_update@PLT
.Ltmp167:
	#DEBUG_VALUE: store32_le:dst <- [DW_OP_plus_uconst 44, DW_OP_stack_value] $rsp
	#DEBUG_VALUE: store32_le:w <- undef
	#DEBUG_VALUE: memcpy:__dest <- [DW_OP_plus_uconst 44, DW_OP_stack_value] $rsp
	#DEBUG_VALUE: memcpy:__src <- undef
	#DEBUG_VALUE: memcpy:__len <- 4
	.loc	7 29 10                         # /usr/include/x86_64-linux-gnu/bits/string_fortified.h:29:10 @[ ./include/sodium/private/common.h:122:5 @[ crypto_pwhash/argon2/argon2-core.c:422:5 @[ crypto_pwhash/argon2/argon2-core.c:507:5 ] ] ]
	movl	$19, 44(%rsp)
.Ltmp168:
	.loc	6 423 5                         # crypto_pwhash/argon2/argon2-core.c:423:5 @[ crypto_pwhash/argon2/argon2-core.c:507:5 ]
	movl	$4, %edx
	movq	%r15, %rdi
	movq	%r12, %rsi
	callq	crypto_generichash_blake2b_update@PLT
.Ltmp169:
	#DEBUG_VALUE: store32_le:dst <- [DW_OP_plus_uconst 44, DW_OP_stack_value] $rsp
	#DEBUG_VALUE: store32_le:w <- undef
	#DEBUG_VALUE: memcpy:__dest <- [DW_OP_plus_uconst 44, DW_OP_stack_value] $rsp
	#DEBUG_VALUE: memcpy:__src <- undef
	#DEBUG_VALUE: memcpy:__len <- 4
	.loc	7 29 10                         # /usr/include/x86_64-linux-gnu/bits/string_fortified.h:29:10 @[ ./include/sodium/private/common.h:122:5 @[ crypto_pwhash/argon2/argon2-core.c:425:5 @[ crypto_pwhash/argon2/argon2-core.c:507:5 ] ] ]
	movl	%r13d, 44(%rsp)
.Ltmp170:
	.loc	6 426 5                         # crypto_pwhash/argon2/argon2-core.c:426:5 @[ crypto_pwhash/argon2/argon2-core.c:507:5 ]
	movl	$4, %edx
	movq	%r15, %rdi
	movq	%r12, %rsi
	callq	crypto_generichash_blake2b_update@PLT
.Ltmp171:
	.loc	6 428 35                        # crypto_pwhash/argon2/argon2-core.c:428:35 @[ crypto_pwhash/argon2/argon2-core.c:507:5 ]
	movl	24(%r14), %eax
.Ltmp172:
	#DEBUG_VALUE: store32_le:dst <- [DW_OP_plus_uconst 44, DW_OP_stack_value] $rsp
	#DEBUG_VALUE: store32_le:w <- undef
	#DEBUG_VALUE: memcpy:__dest <- [DW_OP_plus_uconst 44, DW_OP_stack_value] $rsp
	#DEBUG_VALUE: memcpy:__src <- undef
	#DEBUG_VALUE: memcpy:__len <- 4
	.loc	7 29 10                         # /usr/include/x86_64-linux-gnu/bits/string_fortified.h:29:10 @[ ./include/sodium/private/common.h:122:5 @[ crypto_pwhash/argon2/argon2-core.c:428:5 @[ crypto_pwhash/argon2/argon2-core.c:507:5 ] ] ]
	movl	%eax, 44(%rsp)
.Ltmp173:
	.loc	6 429 5                         # crypto_pwhash/argon2/argon2-core.c:429:5 @[ crypto_pwhash/argon2/argon2-core.c:507:5 ]
	movl	$4, %edx
	movq	%r15, %rdi
	movq	%r12, %rsi
	callq	crypto_generichash_blake2b_update@PLT
.Ltmp174:
	.loc	6 431 18                        # crypto_pwhash/argon2/argon2-core.c:431:18 @[ crypto_pwhash/argon2/argon2-core.c:507:5 ]
	movq	16(%r14), %rsi
	.loc	6 431 22 is_stmt 0              # crypto_pwhash/argon2/argon2-core.c:431:22 @[ crypto_pwhash/argon2/argon2-core.c:507:5 ]
	testq	%rsi, %rsi
	je	.LBB4_10
.Ltmp175:
# %bb.8:
	#DEBUG_VALUE: argon2_initialize:instance <- $rbx
	#DEBUG_VALUE: argon2_initialize:context <- $r14
	#DEBUG_VALUE: argon2_initialize:result <- 0
	#DEBUG_VALUE: argon2_initial_hash:type <- $r13d
	#DEBUG_VALUE: argon2_initial_hash:value <- [DW_OP_plus_uconst 44, DW_OP_deref] $rsp
	#DEBUG_VALUE: argon2_initial_hash:blockhash <- [DW_OP_plus_uconst 48, DW_OP_stack_value] $rsp
	#DEBUG_VALUE: argon2_initial_hash:context <- $r14
	.loc	6 433 66 is_stmt 1              # crypto_pwhash/argon2/argon2-core.c:433:66 @[ crypto_pwhash/argon2/argon2-core.c:507:5 ]
	movl	24(%r14), %edx
	leaq	128(%rsp), %rdi
	.loc	6 432 9                         # crypto_pwhash/argon2/argon2-core.c:432:9 @[ crypto_pwhash/argon2/argon2-core.c:507:5 ]
	callq	crypto_generichash_blake2b_update@PLT
.Ltmp176:
	.loc	6 436 28                        # crypto_pwhash/argon2/argon2-core.c:436:28 @[ crypto_pwhash/argon2/argon2-core.c:507:5 ]
	testb	$1, 92(%r14)
	je	.LBB4_10
.Ltmp177:
# %bb.9:
	#DEBUG_VALUE: argon2_initialize:instance <- $rbx
	#DEBUG_VALUE: argon2_initialize:context <- $r14
	#DEBUG_VALUE: argon2_initialize:result <- 0
	#DEBUG_VALUE: argon2_initial_hash:type <- $r13d
	#DEBUG_VALUE: argon2_initial_hash:value <- [DW_OP_plus_uconst 44, DW_OP_deref] $rsp
	#DEBUG_VALUE: argon2_initial_hash:blockhash <- [DW_OP_plus_uconst 48, DW_OP_stack_value] $rsp
	#DEBUG_VALUE: argon2_initial_hash:context <- $r14
	.loc	6 437 37                        # crypto_pwhash/argon2/argon2-core.c:437:37 @[ crypto_pwhash/argon2/argon2-core.c:507:5 ]
	movq	16(%r14), %rdi
	.loc	6 437 51 is_stmt 0              # crypto_pwhash/argon2/argon2-core.c:437:51 @[ crypto_pwhash/argon2/argon2-core.c:507:5 ]
	movl	24(%r14), %esi
	.loc	6 437 13                        # crypto_pwhash/argon2/argon2-core.c:437:13 @[ crypto_pwhash/argon2/argon2-core.c:507:5 ]
	callq	sodium_memzero@PLT
.Ltmp178:
	.loc	6 438 29 is_stmt 1              # crypto_pwhash/argon2/argon2-core.c:438:29 @[ crypto_pwhash/argon2/argon2-core.c:507:5 ]
	movl	$0, 24(%r14)
.Ltmp179:
.LBB4_10:
	#DEBUG_VALUE: argon2_initialize:instance <- $rbx
	#DEBUG_VALUE: argon2_initialize:context <- $r14
	#DEBUG_VALUE: argon2_initialize:result <- 0
	#DEBUG_VALUE: argon2_initial_hash:type <- $r13d
	#DEBUG_VALUE: argon2_initial_hash:value <- [DW_OP_plus_uconst 44, DW_OP_deref] $rsp
	#DEBUG_VALUE: argon2_initial_hash:blockhash <- [DW_OP_plus_uconst 48, DW_OP_stack_value] $rsp
	#DEBUG_VALUE: argon2_initial_hash:context <- $r14
	.loc	6 443 35                        # crypto_pwhash/argon2/argon2-core.c:443:35 @[ crypto_pwhash/argon2/argon2-core.c:507:5 ]
	movl	40(%r14), %eax
.Ltmp180:
	#DEBUG_VALUE: store32_le:dst <- [DW_OP_plus_uconst 44, DW_OP_stack_value] $rsp
	#DEBUG_VALUE: store32_le:w <- undef
	#DEBUG_VALUE: memcpy:__dest <- [DW_OP_plus_uconst 44, DW_OP_stack_value] $rsp
	#DEBUG_VALUE: memcpy:__src <- undef
	#DEBUG_VALUE: memcpy:__len <- 4
	.loc	7 29 10                         # /usr/include/x86_64-linux-gnu/bits/string_fortified.h:29:10 @[ ./include/sodium/private/common.h:122:5 @[ crypto_pwhash/argon2/argon2-core.c:443:5 @[ crypto_pwhash/argon2/argon2-core.c:507:5 ] ] ]
	movl	%eax, 44(%rsp)
	#DEBUG_VALUE: argon2_initial_hash:value <- [DW_OP_plus_uconst 44, DW_OP_deref] $rsp
	leaq	128(%rsp), %rdi
	leaq	44(%rsp), %rsi
.Ltmp181:
	.loc	6 444 5                         # crypto_pwhash/argon2/argon2-core.c:444:5 @[ crypto_pwhash/argon2/argon2-core.c:507:5 ]
	movl	$4, %edx
	callq	crypto_generichash_blake2b_update@PLT
.Ltmp182:
	.loc	6 446 18                        # crypto_pwhash/argon2/argon2-core.c:446:18 @[ crypto_pwhash/argon2/argon2-core.c:507:5 ]
	movq	32(%r14), %rsi
	.loc	6 446 23 is_stmt 0              # crypto_pwhash/argon2/argon2-core.c:446:23 @[ crypto_pwhash/argon2/argon2-core.c:507:5 ]
	testq	%rsi, %rsi
	je	.LBB4_12
.Ltmp183:
# %bb.11:
	#DEBUG_VALUE: argon2_initialize:instance <- $rbx
	#DEBUG_VALUE: argon2_initialize:context <- $r14
	#DEBUG_VALUE: argon2_initialize:result <- 0
	#DEBUG_VALUE: argon2_initial_hash:type <- $r13d
	#DEBUG_VALUE: argon2_initial_hash:value <- [DW_OP_plus_uconst 44, DW_OP_deref] $rsp
	#DEBUG_VALUE: argon2_initial_hash:blockhash <- [DW_OP_plus_uconst 48, DW_OP_stack_value] $rsp
	#DEBUG_VALUE: argon2_initial_hash:context <- $r14
	.loc	6 448 67 is_stmt 1              # crypto_pwhash/argon2/argon2-core.c:448:67 @[ crypto_pwhash/argon2/argon2-core.c:507:5 ]
	movl	40(%r14), %edx
	leaq	128(%rsp), %rdi
	.loc	6 447 9                         # crypto_pwhash/argon2/argon2-core.c:447:9 @[ crypto_pwhash/argon2/argon2-core.c:507:5 ]
	callq	crypto_generichash_blake2b_update@PLT
.Ltmp184:
.LBB4_12:
	#DEBUG_VALUE: argon2_initialize:instance <- $rbx
	#DEBUG_VALUE: argon2_initialize:context <- $r14
	#DEBUG_VALUE: argon2_initialize:result <- 0
	#DEBUG_VALUE: argon2_initial_hash:type <- $r13d
	#DEBUG_VALUE: argon2_initial_hash:value <- [DW_OP_plus_uconst 44, DW_OP_deref] $rsp
	#DEBUG_VALUE: argon2_initial_hash:blockhash <- [DW_OP_plus_uconst 48, DW_OP_stack_value] $rsp
	#DEBUG_VALUE: argon2_initial_hash:context <- $r14
	.loc	6 451 35                        # crypto_pwhash/argon2/argon2-core.c:451:35 @[ crypto_pwhash/argon2/argon2-core.c:507:5 ]
	movl	56(%r14), %eax
.Ltmp185:
	#DEBUG_VALUE: store32_le:dst <- [DW_OP_plus_uconst 44, DW_OP_stack_value] $rsp
	#DEBUG_VALUE: store32_le:w <- undef
	#DEBUG_VALUE: memcpy:__dest <- [DW_OP_plus_uconst 44, DW_OP_stack_value] $rsp
	#DEBUG_VALUE: memcpy:__src <- undef
	#DEBUG_VALUE: memcpy:__len <- 4
	.loc	7 29 10                         # /usr/include/x86_64-linux-gnu/bits/string_fortified.h:29:10 @[ ./include/sodium/private/common.h:122:5 @[ crypto_pwhash/argon2/argon2-core.c:451:5 @[ crypto_pwhash/argon2/argon2-core.c:507:5 ] ] ]
	movl	%eax, 44(%rsp)
	#DEBUG_VALUE: argon2_initial_hash:value <- [DW_OP_plus_uconst 44, DW_OP_deref] $rsp
	leaq	128(%rsp), %rdi
	leaq	44(%rsp), %rsi
.Ltmp186:
	.loc	6 452 5                         # crypto_pwhash/argon2/argon2-core.c:452:5 @[ crypto_pwhash/argon2/argon2-core.c:507:5 ]
	movl	$4, %edx
	callq	crypto_generichash_blake2b_update@PLT
.Ltmp187:
	.loc	6 455 18                        # crypto_pwhash/argon2/argon2-core.c:455:18 @[ crypto_pwhash/argon2/argon2-core.c:507:5 ]
	movq	48(%r14), %rsi
	.loc	6 455 25 is_stmt 0              # crypto_pwhash/argon2/argon2-core.c:455:25 @[ crypto_pwhash/argon2/argon2-core.c:507:5 ]
	testq	%rsi, %rsi
	je	.LBB4_15
.Ltmp188:
# %bb.13:
	#DEBUG_VALUE: argon2_initialize:instance <- $rbx
	#DEBUG_VALUE: argon2_initialize:context <- $r14
	#DEBUG_VALUE: argon2_initialize:result <- 0
	#DEBUG_VALUE: argon2_initial_hash:type <- $r13d
	#DEBUG_VALUE: argon2_initial_hash:value <- [DW_OP_plus_uconst 44, DW_OP_deref] $rsp
	#DEBUG_VALUE: argon2_initial_hash:blockhash <- [DW_OP_plus_uconst 48, DW_OP_stack_value] $rsp
	#DEBUG_VALUE: argon2_initial_hash:context <- $r14
	.loc	6 457 69 is_stmt 1              # crypto_pwhash/argon2/argon2-core.c:457:69 @[ crypto_pwhash/argon2/argon2-core.c:507:5 ]
	movl	56(%r14), %edx
	leaq	128(%rsp), %rdi
	.loc	6 456 9                         # crypto_pwhash/argon2/argon2-core.c:456:9 @[ crypto_pwhash/argon2/argon2-core.c:507:5 ]
	callq	crypto_generichash_blake2b_update@PLT
.Ltmp189:
	.loc	6 459 28                        # crypto_pwhash/argon2/argon2-core.c:459:28 @[ crypto_pwhash/argon2/argon2-core.c:507:5 ]
	testb	$2, 92(%r14)
	je	.LBB4_15
.Ltmp190:
# %bb.14:
	#DEBUG_VALUE: argon2_initialize:instance <- $rbx
	#DEBUG_VALUE: argon2_initialize:context <- $r14
	#DEBUG_VALUE: argon2_initialize:result <- 0
	#DEBUG_VALUE: argon2_initial_hash:type <- $r13d
	#DEBUG_VALUE: argon2_initial_hash:value <- [DW_OP_plus_uconst 44, DW_OP_deref] $rsp
	#DEBUG_VALUE: argon2_initial_hash:blockhash <- [DW_OP_plus_uconst 48, DW_OP_stack_value] $rsp
	#DEBUG_VALUE: argon2_initial_hash:context <- $r14
	.loc	6 460 37                        # crypto_pwhash/argon2/argon2-core.c:460:37 @[ crypto_pwhash/argon2/argon2-core.c:507:5 ]
	movq	48(%r14), %rdi
	.loc	6 460 54 is_stmt 0              # crypto_pwhash/argon2/argon2-core.c:460:54 @[ crypto_pwhash/argon2/argon2-core.c:507:5 ]
	movl	56(%r14), %esi
	.loc	6 460 13                        # crypto_pwhash/argon2/argon2-core.c:460:13 @[ crypto_pwhash/argon2/argon2-core.c:507:5 ]
	callq	sodium_memzero@PLT
.Ltmp191:
	.loc	6 461 32 is_stmt 1              # crypto_pwhash/argon2/argon2-core.c:461:32 @[ crypto_pwhash/argon2/argon2-core.c:507:5 ]
	movl	$0, 56(%r14)
.Ltmp192:
.LBB4_15:
	#DEBUG_VALUE: argon2_initialize:instance <- $rbx
	#DEBUG_VALUE: argon2_initialize:context <- $r14
	#DEBUG_VALUE: argon2_initialize:result <- 0
	#DEBUG_VALUE: argon2_initial_hash:type <- $r13d
	#DEBUG_VALUE: argon2_initial_hash:value <- [DW_OP_plus_uconst 44, DW_OP_deref] $rsp
	#DEBUG_VALUE: argon2_initial_hash:blockhash <- [DW_OP_plus_uconst 48, DW_OP_stack_value] $rsp
	#DEBUG_VALUE: argon2_initial_hash:context <- $r14
	.loc	6 466 35                        # crypto_pwhash/argon2/argon2-core.c:466:35 @[ crypto_pwhash/argon2/argon2-core.c:507:5 ]
	movl	72(%r14), %eax
.Ltmp193:
	#DEBUG_VALUE: store32_le:dst <- [DW_OP_plus_uconst 44, DW_OP_stack_value] $rsp
	#DEBUG_VALUE: store32_le:w <- undef
	#DEBUG_VALUE: memcpy:__dest <- [DW_OP_plus_uconst 44, DW_OP_stack_value] $rsp
	#DEBUG_VALUE: memcpy:__src <- undef
	#DEBUG_VALUE: memcpy:__len <- 4
	.loc	7 29 10                         # /usr/include/x86_64-linux-gnu/bits/string_fortified.h:29:10 @[ ./include/sodium/private/common.h:122:5 @[ crypto_pwhash/argon2/argon2-core.c:466:5 @[ crypto_pwhash/argon2/argon2-core.c:507:5 ] ] ]
	movl	%eax, 44(%rsp)
	#DEBUG_VALUE: argon2_initial_hash:value <- [DW_OP_plus_uconst 44, DW_OP_deref] $rsp
	leaq	128(%rsp), %rdi
	leaq	44(%rsp), %rsi
.Ltmp194:
	.loc	6 467 5                         # crypto_pwhash/argon2/argon2-core.c:467:5 @[ crypto_pwhash/argon2/argon2-core.c:507:5 ]
	movl	$4, %edx
	callq	crypto_generichash_blake2b_update@PLT
.Ltmp195:
	.loc	6 470 18                        # crypto_pwhash/argon2/argon2-core.c:470:18 @[ crypto_pwhash/argon2/argon2-core.c:507:5 ]
	movq	64(%r14), %rsi
	.loc	6 470 21 is_stmt 0              # crypto_pwhash/argon2/argon2-core.c:470:21 @[ crypto_pwhash/argon2/argon2-core.c:507:5 ]
	testq	%rsi, %rsi
	je	.LBB4_17
.Ltmp196:
# %bb.16:
	#DEBUG_VALUE: argon2_initialize:instance <- $rbx
	#DEBUG_VALUE: argon2_initialize:context <- $r14
	#DEBUG_VALUE: argon2_initialize:result <- 0
	#DEBUG_VALUE: argon2_initial_hash:type <- $r13d
	#DEBUG_VALUE: argon2_initial_hash:value <- [DW_OP_plus_uconst 44, DW_OP_deref] $rsp
	#DEBUG_VALUE: argon2_initial_hash:blockhash <- [DW_OP_plus_uconst 48, DW_OP_stack_value] $rsp
	#DEBUG_VALUE: argon2_initial_hash:context <- $r14
	.loc	6 472 65 is_stmt 1              # crypto_pwhash/argon2/argon2-core.c:472:65 @[ crypto_pwhash/argon2/argon2-core.c:507:5 ]
	movl	72(%r14), %edx
	leaq	128(%rsp), %rdi
	.loc	6 471 9                         # crypto_pwhash/argon2/argon2-core.c:471:9 @[ crypto_pwhash/argon2/argon2-core.c:507:5 ]
	callq	crypto_generichash_blake2b_update@PLT
.Ltmp197:
.LBB4_17:                               # %argon2_initial_hash.exit
	#DEBUG_VALUE: argon2_initialize:instance <- $rbx
	#DEBUG_VALUE: argon2_initialize:context <- $r14
	#DEBUG_VALUE: argon2_initialize:result <- 0
	#DEBUG_VALUE: argon2_initial_hash:type <- $r13d
	#DEBUG_VALUE: argon2_initial_hash:value <- [DW_OP_plus_uconst 44, DW_OP_deref] $rsp
	#DEBUG_VALUE: argon2_initial_hash:blockhash <- [DW_OP_plus_uconst 48, DW_OP_stack_value] $rsp
	#DEBUG_VALUE: argon2_initial_hash:context <- $r14
	.loc	6 0 9 is_stmt 0                 # crypto_pwhash/argon2/argon2-core.c:0:9
	leaq	128(%rsp), %r14
.Ltmp198:
	#DEBUG_VALUE: argon2_initialize:context <- [DW_OP_LLVM_entry_value 1] $rsi
	leaq	48(%rsp), %rsi
	.loc	6 476 5 is_stmt 1               # crypto_pwhash/argon2/argon2-core.c:476:5 @[ crypto_pwhash/argon2/argon2-core.c:507:5 ]
	movl	$64, %edx
	movq	%r14, %rdi
	callq	crypto_generichash_blake2b_final@PLT
.Ltmp199:
	.loc	6 509 30                        # crypto_pwhash/argon2/argon2-core.c:509:30
	leaq	112(%rsp), %rdi
	.loc	6 509 5 is_stmt 0               # crypto_pwhash/argon2/argon2-core.c:509:5
	movl	$8, %esi
	callq	sodium_memzero@PLT
.Ltmp200:
	#DEBUG_VALUE: argon2_fill_first_blocks:blockhash_bytes <- [DW_OP_plus_uconst 128, DW_OP_deref] $rsp
	#DEBUG_VALUE: argon2_fill_first_blocks:blockhash <- [DW_OP_plus_uconst 48, DW_OP_stack_value] $rsp
	#DEBUG_VALUE: argon2_fill_first_blocks:instance <- $rbx
	#DEBUG_VALUE: argon2_fill_first_blocks:l <- 0
	.loc	6 379 19 is_stmt 1              # crypto_pwhash/argon2/argon2-core.c:379:19 @[ crypto_pwhash/argon2/argon2-core.c:514:5 ]
	cmpl	$0, 36(%rbx)
.Ltmp201:
	.loc	6 379 5 is_stmt 0               # crypto_pwhash/argon2/argon2-core.c:379:5 @[ crypto_pwhash/argon2/argon2-core.c:514:5 ]
	je	.LBB4_30
.Ltmp202:
# %bb.18:                               # %.lr.ph.i
	#DEBUG_VALUE: argon2_initialize:instance <- $rbx
	#DEBUG_VALUE: argon2_initialize:context <- [DW_OP_LLVM_entry_value 1] $rsi
	#DEBUG_VALUE: argon2_initialize:result <- 0
	#DEBUG_VALUE: argon2_initial_hash:type <- $r13d
	#DEBUG_VALUE: argon2_initial_hash:value <- [DW_OP_plus_uconst 44, DW_OP_deref] $rsp
	#DEBUG_VALUE: argon2_initial_hash:blockhash <- [DW_OP_plus_uconst 48, DW_OP_stack_value] $rsp
	#DEBUG_VALUE: argon2_fill_first_blocks:blockhash_bytes <- [DW_OP_plus_uconst 128, DW_OP_deref] $rsp
	#DEBUG_VALUE: argon2_fill_first_blocks:blockhash <- [DW_OP_plus_uconst 48, DW_OP_stack_value] $rsp
	#DEBUG_VALUE: argon2_fill_first_blocks:instance <- $rbx
	#DEBUG_VALUE: argon2_fill_first_blocks:l <- 0
	.loc	6 0 5                           # crypto_pwhash/argon2/argon2-core.c:0:5
	xorl	%r12d, %r12d
	leaq	48(%rsp), %r15
	jmp	.LBB4_19
.Ltmp203:
	.p2align	4
.LBB4_29:                               # %load_block.exit17.i
                                        #   in Loop: Header=BB4_19 Depth=1
	#DEBUG_VALUE: argon2_initialize:instance <- $rbx
	#DEBUG_VALUE: argon2_initialize:context <- [DW_OP_LLVM_entry_value 1] $rsi
	#DEBUG_VALUE: argon2_initialize:result <- 0
	#DEBUG_VALUE: argon2_fill_first_blocks:blockhash_bytes <- [DW_OP_plus_uconst 128, DW_OP_deref] $rsp
	#DEBUG_VALUE: argon2_fill_first_blocks:blockhash <- [DW_OP_plus_uconst 48, DW_OP_stack_value] $rsp
	#DEBUG_VALUE: argon2_fill_first_blocks:instance <- $rbx
	#DEBUG_VALUE: argon2_fill_first_blocks:l <- $r12d
	.loc	6 379 38 is_stmt 1              # crypto_pwhash/argon2/argon2-core.c:379:38 @[ crypto_pwhash/argon2/argon2-core.c:514:5 ]
	incl	%r12d
.Ltmp204:
	#DEBUG_VALUE: argon2_fill_first_blocks:l <- $r12d
	.loc	6 379 19 is_stmt 0              # crypto_pwhash/argon2/argon2-core.c:379:19 @[ crypto_pwhash/argon2/argon2-core.c:514:5 ]
	cmpl	36(%rbx), %r12d
.Ltmp205:
	.loc	6 379 5                         # crypto_pwhash/argon2/argon2-core.c:379:5 @[ crypto_pwhash/argon2/argon2-core.c:514:5 ]
	jae	.LBB4_30
.Ltmp206:
.LBB4_19:                               # %vector.memcheck22
                                        # =>This Loop Header: Depth=1
                                        #     Child Loop BB4_21 Depth 2
                                        #     Child Loop BB4_23 Depth 2
                                        #     Child Loop BB4_26 Depth 2
                                        #     Child Loop BB4_28 Depth 2
	#DEBUG_VALUE: argon2_initialize:instance <- $rbx
	#DEBUG_VALUE: argon2_initialize:context <- [DW_OP_LLVM_entry_value 1] $rsi
	#DEBUG_VALUE: argon2_initialize:result <- 0
	#DEBUG_VALUE: argon2_fill_first_blocks:blockhash_bytes <- [DW_OP_plus_uconst 128, DW_OP_deref] $rsp
	#DEBUG_VALUE: argon2_fill_first_blocks:blockhash <- [DW_OP_plus_uconst 48, DW_OP_stack_value] $rsp
	#DEBUG_VALUE: argon2_fill_first_blocks:instance <- $rbx
	#DEBUG_VALUE: argon2_fill_first_blocks:l <- $r12d
	#DEBUG_VALUE: store32_le:w <- undef
	#DEBUG_VALUE: memcpy:__src <- undef
	#DEBUG_VALUE: memcpy:__len <- 4
	#DEBUG_VALUE: store32_le:dst <- [DW_OP_plus_uconst 48, DW_OP_plus_uconst 64, DW_OP_stack_value] $rsp
	#DEBUG_VALUE: memcpy:__dest <- [DW_OP_plus_uconst 48, DW_OP_plus_uconst 64, DW_OP_stack_value] $rsp
	.loc	7 29 10 is_stmt 1               # /usr/include/x86_64-linux-gnu/bits/string_fortified.h:29:10 @[ ./include/sodium/private/common.h:122:5 @[ crypto_pwhash/argon2/argon2-core.c:380:9 @[ crypto_pwhash/argon2/argon2-core.c:514:5 ] ] ]
	movl	$0, 112(%rsp)
.Ltmp207:
	#DEBUG_VALUE: store32_le:dst <- [DW_OP_plus_uconst 48, DW_OP_plus_uconst 68, DW_OP_stack_value] $rsp
	#DEBUG_VALUE: store32_le:w <- undef
	#DEBUG_VALUE: memcpy:__dest <- [DW_OP_plus_uconst 48, DW_OP_plus_uconst 68, DW_OP_stack_value] $rsp
	#DEBUG_VALUE: memcpy:__src <- undef
	#DEBUG_VALUE: memcpy:__len <- 4
	.loc	7 29 10 is_stmt 0               # /usr/include/x86_64-linux-gnu/bits/string_fortified.h:29:10 @[ ./include/sodium/private/common.h:122:5 @[ crypto_pwhash/argon2/argon2-core.c:381:9 @[ crypto_pwhash/argon2/argon2-core.c:514:5 ] ] ]
	movl	%r12d, 116(%rsp)
.Ltmp208:
	.loc	6 382 9 is_stmt 1               # crypto_pwhash/argon2/argon2-core.c:382:9 @[ crypto_pwhash/argon2/argon2-core.c:514:5 ]
	movl	$1024, %esi                     # imm = 0x400
	movl	$72, %ecx
	movq	%r14, %rdi
	movq	%r15, %rdx
	callq	blake2b_long@PLT
.Ltmp209:
	.loc	6 384 31                        # crypto_pwhash/argon2/argon2-core.c:384:31 @[ crypto_pwhash/argon2/argon2-core.c:514:5 ]
	movq	(%rbx), %rax
	.loc	6 384 39 is_stmt 0              # crypto_pwhash/argon2/argon2-core.c:384:39 @[ crypto_pwhash/argon2/argon2-core.c:514:5 ]
	movq	8(%rax), %rax
	movl	32(%rbx), %ecx
	.loc	6 384 48                        # crypto_pwhash/argon2/argon2-core.c:384:48 @[ crypto_pwhash/argon2/argon2-core.c:514:5 ]
	imull	%r12d, %ecx
.Ltmp210:
	#DEBUG_VALUE: load_block:dst <- [DW_OP_LLVM_arg 0, DW_OP_LLVM_arg 1, DW_OP_constu 1024, DW_OP_mul, DW_OP_plus, DW_OP_stack_value] undef, undef
	#DEBUG_VALUE: load_block:input <- [DW_OP_plus_uconst 128, DW_OP_stack_value] $rsp
	#DEBUG_VALUE: load_block:i <- 0
	.loc	6 54 5 is_stmt 1                # crypto_pwhash/argon2/argon2-core.c:54:5 @[ crypto_pwhash/argon2/argon2-core.c:384:9 @[ crypto_pwhash/argon2/argon2-core.c:514:5 ] ]
	movq	%rax, %rdx
	subq	%r14, %rdx
	movq	%rcx, %rsi
	shlq	$10, %rsi
	addq	%rdx, %rsi
	shlq	$10, %rcx
	cmpq	$32, %rsi
.Ltmp211:
	.loc	6 54 45 is_stmt 0               # crypto_pwhash/argon2/argon2-core.c:54:45 @[ crypto_pwhash/argon2/argon2-core.c:384:9 @[ crypto_pwhash/argon2/argon2-core.c:514:5 ] ]
	jae	.LBB4_20
.Ltmp212:
# %bb.22:                               # %scalar.ph24.preheader
                                        #   in Loop: Header=BB4_19 Depth=1
	#DEBUG_VALUE: argon2_initialize:instance <- $rbx
	#DEBUG_VALUE: argon2_initialize:context <- [DW_OP_LLVM_entry_value 1] $rsi
	#DEBUG_VALUE: argon2_initialize:result <- 0
	#DEBUG_VALUE: argon2_fill_first_blocks:blockhash_bytes <- [DW_OP_plus_uconst 128, DW_OP_deref] $rsp
	#DEBUG_VALUE: argon2_fill_first_blocks:blockhash <- [DW_OP_plus_uconst 48, DW_OP_stack_value] $rsp
	#DEBUG_VALUE: argon2_fill_first_blocks:instance <- $rbx
	#DEBUG_VALUE: argon2_fill_first_blocks:l <- $r12d
	#DEBUG_VALUE: load_block:input <- [DW_OP_plus_uconst 128, DW_OP_stack_value] $rsp
	#DEBUG_VALUE: load_block:i <- 0
	.loc	6 54 5                          # crypto_pwhash/argon2/argon2-core.c:54:5 @[ crypto_pwhash/argon2/argon2-core.c:384:9 @[ crypto_pwhash/argon2/argon2-core.c:514:5 ] ]
	addq	%rcx, %rax
	addq	$24, %rax
	xorl	%ecx, %ecx
.Ltmp213:
	.loc	6 0 5                           # :0:5
.Ltmp214:
	.p2align	4
.LBB4_23:                               # %scalar.ph24
                                        #   Parent Loop BB4_19 Depth=1
                                        # =>  This Inner Loop Header: Depth=2
	#DEBUG_VALUE: argon2_initialize:instance <- $rbx
	#DEBUG_VALUE: argon2_initialize:context <- [DW_OP_LLVM_entry_value 1] $rsi
	#DEBUG_VALUE: argon2_initialize:result <- 0
	#DEBUG_VALUE: argon2_fill_first_blocks:blockhash_bytes <- [DW_OP_plus_uconst 128, DW_OP_deref] $rsp
	#DEBUG_VALUE: argon2_fill_first_blocks:blockhash <- [DW_OP_plus_uconst 48, DW_OP_stack_value] $rsp
	#DEBUG_VALUE: argon2_fill_first_blocks:instance <- $rbx
	#DEBUG_VALUE: argon2_fill_first_blocks:l <- $r12d
	#DEBUG_VALUE: load_block:input <- [DW_OP_plus_uconst 128, DW_OP_stack_value] $rsp
	#DEBUG_VALUE: load64_le:src <- [DW_OP_LLVM_arg 0, DW_OP_plus_uconst 128, DW_OP_LLVM_arg 1, DW_OP_constu 3, DW_OP_shl, DW_OP_plus, DW_OP_stack_value] $rsp, $rcx
	#DEBUG_VALUE: memcpy:__src <- [DW_OP_LLVM_arg 0, DW_OP_plus_uconst 128, DW_OP_LLVM_arg 1, DW_OP_constu 3, DW_OP_shl, DW_OP_plus, DW_OP_stack_value] $rsp, $rcx
	#DEBUG_VALUE: load_block:i <- $rcx
	#DEBUG_VALUE: load64_le:w <- undef
	#DEBUG_VALUE: memcpy:__dest <- undef
	#DEBUG_VALUE: memcpy:__len <- 8
	.loc	7 29 10 is_stmt 1               # /usr/include/x86_64-linux-gnu/bits/string_fortified.h:29:10 @[ ./include/sodium/private/common.h:67:5 @[ crypto_pwhash/argon2/argon2-core.c:55:21 @[ crypto_pwhash/argon2/argon2-core.c:384:9 @[ crypto_pwhash/argon2/argon2-core.c:514:5 ] ] ] ]
	movq	128(%rsp,%rcx,8), %rdx
.Ltmp215:
	.loc	6 55 19                         # crypto_pwhash/argon2/argon2-core.c:55:19 @[ crypto_pwhash/argon2/argon2-core.c:384:9 @[ crypto_pwhash/argon2/argon2-core.c:514:5 ] ]
	movq	%rdx, -24(%rax,%rcx,8)
.Ltmp216:
	#DEBUG_VALUE: load64_le:src <- [DW_OP_LLVM_arg 0, DW_OP_plus_uconst 128, DW_OP_LLVM_arg 1, DW_OP_constu 1, DW_OP_or, DW_OP_constu 3, DW_OP_shl, DW_OP_plus, DW_OP_stack_value] $rsp, $rcx
	#DEBUG_VALUE: memcpy:__src <- [DW_OP_LLVM_arg 0, DW_OP_plus_uconst 128, DW_OP_LLVM_arg 1, DW_OP_constu 1, DW_OP_or, DW_OP_constu 3, DW_OP_shl, DW_OP_plus, DW_OP_stack_value] $rsp, $rcx
	#DEBUG_VALUE: load_block:i <- [DW_OP_constu 1, DW_OP_or, DW_OP_stack_value] $rcx
	.loc	7 29 10                         # /usr/include/x86_64-linux-gnu/bits/string_fortified.h:29:10 @[ ./include/sodium/private/common.h:67:5 @[ crypto_pwhash/argon2/argon2-core.c:55:21 @[ crypto_pwhash/argon2/argon2-core.c:384:9 @[ crypto_pwhash/argon2/argon2-core.c:514:5 ] ] ] ]
	movq	136(%rsp,%rcx,8), %rdx
.Ltmp217:
	.loc	6 55 19                         # crypto_pwhash/argon2/argon2-core.c:55:19 @[ crypto_pwhash/argon2/argon2-core.c:384:9 @[ crypto_pwhash/argon2/argon2-core.c:514:5 ] ]
	movq	%rdx, -16(%rax,%rcx,8)
.Ltmp218:
	#DEBUG_VALUE: load64_le:src <- [DW_OP_LLVM_arg 0, DW_OP_plus_uconst 128, DW_OP_LLVM_arg 1, DW_OP_constu 2, DW_OP_or, DW_OP_constu 3, DW_OP_shl, DW_OP_plus, DW_OP_stack_value] $rsp, $rcx
	#DEBUG_VALUE: memcpy:__src <- [DW_OP_LLVM_arg 0, DW_OP_plus_uconst 128, DW_OP_LLVM_arg 1, DW_OP_constu 2, DW_OP_or, DW_OP_constu 3, DW_OP_shl, DW_OP_plus, DW_OP_stack_value] $rsp, $rcx
	#DEBUG_VALUE: load_block:i <- [DW_OP_constu 2, DW_OP_or, DW_OP_stack_value] $rcx
	.loc	7 29 10                         # /usr/include/x86_64-linux-gnu/bits/string_fortified.h:29:10 @[ ./include/sodium/private/common.h:67:5 @[ crypto_pwhash/argon2/argon2-core.c:55:21 @[ crypto_pwhash/argon2/argon2-core.c:384:9 @[ crypto_pwhash/argon2/argon2-core.c:514:5 ] ] ] ]
	movq	144(%rsp,%rcx,8), %rdx
.Ltmp219:
	.loc	6 55 19                         # crypto_pwhash/argon2/argon2-core.c:55:19 @[ crypto_pwhash/argon2/argon2-core.c:384:9 @[ crypto_pwhash/argon2/argon2-core.c:514:5 ] ]
	movq	%rdx, -8(%rax,%rcx,8)
.Ltmp220:
	#DEBUG_VALUE: load64_le:src <- [DW_OP_LLVM_arg 0, DW_OP_plus_uconst 128, DW_OP_LLVM_arg 1, DW_OP_constu 3, DW_OP_or, DW_OP_constu 3, DW_OP_shl, DW_OP_plus, DW_OP_stack_value] $rsp, $rcx
	#DEBUG_VALUE: memcpy:__src <- [DW_OP_LLVM_arg 0, DW_OP_plus_uconst 128, DW_OP_LLVM_arg 1, DW_OP_constu 3, DW_OP_or, DW_OP_constu 3, DW_OP_shl, DW_OP_plus, DW_OP_stack_value] $rsp, $rcx
	#DEBUG_VALUE: load_block:i <- [DW_OP_constu 3, DW_OP_or, DW_OP_stack_value] $rcx
	.loc	7 29 10                         # /usr/include/x86_64-linux-gnu/bits/string_fortified.h:29:10 @[ ./include/sodium/private/common.h:67:5 @[ crypto_pwhash/argon2/argon2-core.c:55:21 @[ crypto_pwhash/argon2/argon2-core.c:384:9 @[ crypto_pwhash/argon2/argon2-core.c:514:5 ] ] ] ]
	movq	152(%rsp,%rcx,8), %rdx
.Ltmp221:
	.loc	6 55 19                         # crypto_pwhash/argon2/argon2-core.c:55:19 @[ crypto_pwhash/argon2/argon2-core.c:384:9 @[ crypto_pwhash/argon2/argon2-core.c:514:5 ] ]
	movq	%rdx, (%rax,%rcx,8)
.Ltmp222:
	.loc	6 54 45                         # crypto_pwhash/argon2/argon2-core.c:54:45 @[ crypto_pwhash/argon2/argon2-core.c:384:9 @[ crypto_pwhash/argon2/argon2-core.c:514:5 ] ]
	addq	$4, %rcx
.Ltmp223:
	#DEBUG_VALUE: load_block:i <- $rcx
	.loc	6 54 19 is_stmt 0               # crypto_pwhash/argon2/argon2-core.c:54:19 @[ crypto_pwhash/argon2/argon2-core.c:384:9 @[ crypto_pwhash/argon2/argon2-core.c:514:5 ] ]
	cmpq	$128, %rcx
.Ltmp224:
	.loc	6 54 5                          # crypto_pwhash/argon2/argon2-core.c:54:5 @[ crypto_pwhash/argon2/argon2-core.c:384:9 @[ crypto_pwhash/argon2/argon2-core.c:514:5 ] ]
	jne	.LBB4_23
	jmp	.LBB4_24
.Ltmp225:
	.loc	6 0 5                           # :0:5
.Ltmp226:
	.p2align	4
.LBB4_20:                               # %vector.body26.preheader
                                        #   in Loop: Header=BB4_19 Depth=1
	#DEBUG_VALUE: argon2_initialize:instance <- $rbx
	#DEBUG_VALUE: argon2_initialize:context <- [DW_OP_LLVM_entry_value 1] $rsi
	#DEBUG_VALUE: argon2_initialize:result <- 0
	#DEBUG_VALUE: argon2_fill_first_blocks:blockhash_bytes <- [DW_OP_plus_uconst 128, DW_OP_deref] $rsp
	#DEBUG_VALUE: argon2_fill_first_blocks:blockhash <- [DW_OP_plus_uconst 48, DW_OP_stack_value] $rsp
	#DEBUG_VALUE: argon2_fill_first_blocks:instance <- $rbx
	#DEBUG_VALUE: argon2_fill_first_blocks:l <- $r12d
	#DEBUG_VALUE: load_block:input <- [DW_OP_plus_uconst 128, DW_OP_stack_value] $rsp
	#DEBUG_VALUE: load_block:i <- 0
	.loc	6 54 5                          # crypto_pwhash/argon2/argon2-core.c:54:5 @[ crypto_pwhash/argon2/argon2-core.c:384:9 @[ crypto_pwhash/argon2/argon2-core.c:514:5 ] ]
	addq	%rcx, %rax
	addq	$48, %rax
	xorl	%ecx, %ecx
.Ltmp227:
	.loc	6 0 5                           # :0:5
.Ltmp228:
	.p2align	4
.LBB4_21:                               # %vector.body26
                                        #   Parent Loop BB4_19 Depth=1
                                        # =>  This Inner Loop Header: Depth=2
	#DEBUG_VALUE: argon2_initialize:instance <- $rbx
	#DEBUG_VALUE: argon2_initialize:context <- [DW_OP_LLVM_entry_value 1] $rsi
	#DEBUG_VALUE: argon2_initialize:result <- 0
	#DEBUG_VALUE: argon2_fill_first_blocks:blockhash_bytes <- [DW_OP_plus_uconst 128, DW_OP_deref] $rsp
	#DEBUG_VALUE: argon2_fill_first_blocks:blockhash <- [DW_OP_plus_uconst 48, DW_OP_stack_value] $rsp
	#DEBUG_VALUE: argon2_fill_first_blocks:instance <- $rbx
	#DEBUG_VALUE: argon2_fill_first_blocks:l <- $r12d
	#DEBUG_VALUE: load_block:input <- [DW_OP_plus_uconst 128, DW_OP_stack_value] $rsp
	#DEBUG_VALUE: load_block:i <- 0
	.loc	7 29 10 is_stmt 1               # /usr/include/x86_64-linux-gnu/bits/string_fortified.h:29:10 @[ ./include/sodium/private/common.h:67:5 @[ crypto_pwhash/argon2/argon2-core.c:55:21 @[ crypto_pwhash/argon2/argon2-core.c:384:9 @[ crypto_pwhash/argon2/argon2-core.c:514:5 ] ] ] ]
	movaps	128(%rsp,%rcx,8), %xmm0
	movaps	144(%rsp,%rcx,8), %xmm1
.Ltmp229:
	.loc	6 55 19                         # crypto_pwhash/argon2/argon2-core.c:55:19 @[ crypto_pwhash/argon2/argon2-core.c:384:9 @[ crypto_pwhash/argon2/argon2-core.c:514:5 ] ]
	movups	%xmm0, -48(%rax,%rcx,8)
	movups	%xmm1, -32(%rax,%rcx,8)
.Ltmp230:
	.loc	7 29 10                         # /usr/include/x86_64-linux-gnu/bits/string_fortified.h:29:10 @[ ./include/sodium/private/common.h:67:5 @[ crypto_pwhash/argon2/argon2-core.c:55:21 @[ crypto_pwhash/argon2/argon2-core.c:384:9 @[ crypto_pwhash/argon2/argon2-core.c:514:5 ] ] ] ]
	movaps	160(%rsp,%rcx,8), %xmm0
	movaps	176(%rsp,%rcx,8), %xmm1
.Ltmp231:
	.loc	6 55 19                         # crypto_pwhash/argon2/argon2-core.c:55:19 @[ crypto_pwhash/argon2/argon2-core.c:384:9 @[ crypto_pwhash/argon2/argon2-core.c:514:5 ] ]
	movups	%xmm0, -16(%rax,%rcx,8)
	movups	%xmm1, (%rax,%rcx,8)
.Ltmp232:
	.loc	6 54 45                         # crypto_pwhash/argon2/argon2-core.c:54:45 @[ crypto_pwhash/argon2/argon2-core.c:384:9 @[ crypto_pwhash/argon2/argon2-core.c:514:5 ] ]
	addq	$8, %rcx
	cmpq	$128, %rcx
	jne	.LBB4_21
.Ltmp233:
.LBB4_24:                               # %load_block.exit.i
                                        #   in Loop: Header=BB4_19 Depth=1
	#DEBUG_VALUE: argon2_initialize:instance <- $rbx
	#DEBUG_VALUE: argon2_initialize:context <- [DW_OP_LLVM_entry_value 1] $rsi
	#DEBUG_VALUE: argon2_initialize:result <- 0
	#DEBUG_VALUE: argon2_fill_first_blocks:blockhash_bytes <- [DW_OP_plus_uconst 128, DW_OP_deref] $rsp
	#DEBUG_VALUE: argon2_fill_first_blocks:blockhash <- [DW_OP_plus_uconst 48, DW_OP_stack_value] $rsp
	#DEBUG_VALUE: argon2_fill_first_blocks:instance <- $rbx
	#DEBUG_VALUE: argon2_fill_first_blocks:l <- $r12d
	#DEBUG_VALUE: store32_le:w <- undef
	#DEBUG_VALUE: memcpy:__src <- undef
	#DEBUG_VALUE: memcpy:__len <- 4
	#DEBUG_VALUE: store32_le:dst <- [DW_OP_plus_uconst 48, DW_OP_plus_uconst 64, DW_OP_stack_value] $rsp
	#DEBUG_VALUE: memcpy:__dest <- [DW_OP_plus_uconst 48, DW_OP_plus_uconst 64, DW_OP_stack_value] $rsp
	.loc	7 29 10                         # /usr/include/x86_64-linux-gnu/bits/string_fortified.h:29:10 @[ ./include/sodium/private/common.h:122:5 @[ crypto_pwhash/argon2/argon2-core.c:387:9 @[ crypto_pwhash/argon2/argon2-core.c:514:5 ] ] ]
	movl	$1, 112(%rsp)
.Ltmp234:
	.loc	6 388 9                         # crypto_pwhash/argon2/argon2-core.c:388:9 @[ crypto_pwhash/argon2/argon2-core.c:514:5 ]
	movl	$1024, %esi                     # imm = 0x400
	movl	$72, %ecx
	movq	%r14, %rdi
	movq	%r15, %rdx
	callq	blake2b_long@PLT
.Ltmp235:
	.loc	6 390 31                        # crypto_pwhash/argon2/argon2-core.c:390:31 @[ crypto_pwhash/argon2/argon2-core.c:514:5 ]
	movq	(%rbx), %rax
	.loc	6 390 39 is_stmt 0              # crypto_pwhash/argon2/argon2-core.c:390:39 @[ crypto_pwhash/argon2/argon2-core.c:514:5 ]
	movq	8(%rax), %rax
	movl	32(%rbx), %ecx
	.loc	6 390 48                        # crypto_pwhash/argon2/argon2-core.c:390:48 @[ crypto_pwhash/argon2/argon2-core.c:514:5 ]
	imull	%r12d, %ecx
	.loc	6 390 72                        # crypto_pwhash/argon2/argon2-core.c:390:72 @[ crypto_pwhash/argon2/argon2-core.c:514:5 ]
	incl	%ecx
.Ltmp236:
	#DEBUG_VALUE: load_block:dst <- [DW_OP_LLVM_arg 0, DW_OP_LLVM_arg 1, DW_OP_constu 1024, DW_OP_mul, DW_OP_plus, DW_OP_stack_value] $rax, $ecx
	#DEBUG_VALUE: load_block:input <- [DW_OP_plus_uconst 128, DW_OP_stack_value] $rsp
	#DEBUG_VALUE: load_block:i <- 0
	.loc	6 54 5 is_stmt 1                # crypto_pwhash/argon2/argon2-core.c:54:5 @[ crypto_pwhash/argon2/argon2-core.c:390:9 @[ crypto_pwhash/argon2/argon2-core.c:514:5 ] ]
	movq	%rax, %rdx
	subq	%r14, %rdx
	movq	%rcx, %rsi
	shlq	$10, %rsi
	addq	%rdx, %rsi
	shlq	$10, %rcx
.Ltmp237:
	cmpq	$32, %rsi
.Ltmp238:
	.loc	6 54 45 is_stmt 0               # crypto_pwhash/argon2/argon2-core.c:54:45 @[ crypto_pwhash/argon2/argon2-core.c:390:9 @[ crypto_pwhash/argon2/argon2-core.c:514:5 ] ]
	jae	.LBB4_25
.Ltmp239:
# %bb.27:                               # %scalar.ph.preheader
                                        #   in Loop: Header=BB4_19 Depth=1
	#DEBUG_VALUE: argon2_initialize:instance <- $rbx
	#DEBUG_VALUE: argon2_initialize:context <- [DW_OP_LLVM_entry_value 1] $rsi
	#DEBUG_VALUE: argon2_initialize:result <- 0
	#DEBUG_VALUE: argon2_fill_first_blocks:blockhash_bytes <- [DW_OP_plus_uconst 128, DW_OP_deref] $rsp
	#DEBUG_VALUE: argon2_fill_first_blocks:blockhash <- [DW_OP_plus_uconst 48, DW_OP_stack_value] $rsp
	#DEBUG_VALUE: argon2_fill_first_blocks:instance <- $rbx
	#DEBUG_VALUE: argon2_fill_first_blocks:l <- $r12d
	#DEBUG_VALUE: load_block:input <- [DW_OP_plus_uconst 128, DW_OP_stack_value] $rsp
	#DEBUG_VALUE: load_block:i <- 0
	.loc	6 54 5                          # crypto_pwhash/argon2/argon2-core.c:54:5 @[ crypto_pwhash/argon2/argon2-core.c:390:9 @[ crypto_pwhash/argon2/argon2-core.c:514:5 ] ]
	addq	%rcx, %rax
	addq	$24, %rax
	xorl	%ecx, %ecx
.Ltmp240:
	.loc	6 0 5                           # :0:5
.Ltmp241:
	.p2align	4
.LBB4_28:                               # %scalar.ph
                                        #   Parent Loop BB4_19 Depth=1
                                        # =>  This Inner Loop Header: Depth=2
	#DEBUG_VALUE: argon2_initialize:instance <- $rbx
	#DEBUG_VALUE: argon2_initialize:context <- [DW_OP_LLVM_entry_value 1] $rsi
	#DEBUG_VALUE: argon2_initialize:result <- 0
	#DEBUG_VALUE: argon2_fill_first_blocks:blockhash_bytes <- [DW_OP_plus_uconst 128, DW_OP_deref] $rsp
	#DEBUG_VALUE: argon2_fill_first_blocks:blockhash <- [DW_OP_plus_uconst 48, DW_OP_stack_value] $rsp
	#DEBUG_VALUE: argon2_fill_first_blocks:instance <- $rbx
	#DEBUG_VALUE: argon2_fill_first_blocks:l <- $r12d
	#DEBUG_VALUE: load_block:input <- [DW_OP_plus_uconst 128, DW_OP_stack_value] $rsp
	#DEBUG_VALUE: load64_le:src <- [DW_OP_LLVM_arg 0, DW_OP_plus_uconst 128, DW_OP_LLVM_arg 1, DW_OP_constu 3, DW_OP_shl, DW_OP_plus, DW_OP_stack_value] $rsp, $rcx
	#DEBUG_VALUE: memcpy:__src <- [DW_OP_LLVM_arg 0, DW_OP_plus_uconst 128, DW_OP_LLVM_arg 1, DW_OP_constu 3, DW_OP_shl, DW_OP_plus, DW_OP_stack_value] $rsp, $rcx
	#DEBUG_VALUE: load_block:i <- $rcx
	#DEBUG_VALUE: load64_le:w <- undef
	#DEBUG_VALUE: memcpy:__dest <- undef
	#DEBUG_VALUE: memcpy:__len <- 8
	.loc	7 29 10 is_stmt 1               # /usr/include/x86_64-linux-gnu/bits/string_fortified.h:29:10 @[ ./include/sodium/private/common.h:67:5 @[ crypto_pwhash/argon2/argon2-core.c:55:21 @[ crypto_pwhash/argon2/argon2-core.c:390:9 @[ crypto_pwhash/argon2/argon2-core.c:514:5 ] ] ] ]
	movq	128(%rsp,%rcx,8), %rdx
.Ltmp242:
	.loc	6 55 19                         # crypto_pwhash/argon2/argon2-core.c:55:19 @[ crypto_pwhash/argon2/argon2-core.c:390:9 @[ crypto_pwhash/argon2/argon2-core.c:514:5 ] ]
	movq	%rdx, -24(%rax,%rcx,8)
.Ltmp243:
	#DEBUG_VALUE: load64_le:src <- [DW_OP_LLVM_arg 0, DW_OP_plus_uconst 128, DW_OP_LLVM_arg 1, DW_OP_constu 1, DW_OP_or, DW_OP_constu 3, DW_OP_shl, DW_OP_plus, DW_OP_stack_value] $rsp, $rcx
	#DEBUG_VALUE: memcpy:__src <- [DW_OP_LLVM_arg 0, DW_OP_plus_uconst 128, DW_OP_LLVM_arg 1, DW_OP_constu 1, DW_OP_or, DW_OP_constu 3, DW_OP_shl, DW_OP_plus, DW_OP_stack_value] $rsp, $rcx
	#DEBUG_VALUE: load_block:i <- [DW_OP_constu 1, DW_OP_or, DW_OP_stack_value] $rcx
	.loc	7 29 10                         # /usr/include/x86_64-linux-gnu/bits/string_fortified.h:29:10 @[ ./include/sodium/private/common.h:67:5 @[ crypto_pwhash/argon2/argon2-core.c:55:21 @[ crypto_pwhash/argon2/argon2-core.c:390:9 @[ crypto_pwhash/argon2/argon2-core.c:514:5 ] ] ] ]
	movq	136(%rsp,%rcx,8), %rdx
.Ltmp244:
	.loc	6 55 19                         # crypto_pwhash/argon2/argon2-core.c:55:19 @[ crypto_pwhash/argon2/argon2-core.c:390:9 @[ crypto_pwhash/argon2/argon2-core.c:514:5 ] ]
	movq	%rdx, -16(%rax,%rcx,8)
.Ltmp245:
	#DEBUG_VALUE: load64_le:src <- [DW_OP_LLVM_arg 0, DW_OP_plus_uconst 128, DW_OP_LLVM_arg 1, DW_OP_constu 2, DW_OP_or, DW_OP_constu 3, DW_OP_shl, DW_OP_plus, DW_OP_stack_value] $rsp, $rcx
	#DEBUG_VALUE: memcpy:__src <- [DW_OP_LLVM_arg 0, DW_OP_plus_uconst 128, DW_OP_LLVM_arg 1, DW_OP_constu 2, DW_OP_or, DW_OP_constu 3, DW_OP_shl, DW_OP_plus, DW_OP_stack_value] $rsp, $rcx
	#DEBUG_VALUE: load_block:i <- [DW_OP_constu 2, DW_OP_or, DW_OP_stack_value] $rcx
	.loc	7 29 10                         # /usr/include/x86_64-linux-gnu/bits/string_fortified.h:29:10 @[ ./include/sodium/private/common.h:67:5 @[ crypto_pwhash/argon2/argon2-core.c:55:21 @[ crypto_pwhash/argon2/argon2-core.c:390:9 @[ crypto_pwhash/argon2/argon2-core.c:514:5 ] ] ] ]
	movq	144(%rsp,%rcx,8), %rdx
.Ltmp246:
	.loc	6 55 19                         # crypto_pwhash/argon2/argon2-core.c:55:19 @[ crypto_pwhash/argon2/argon2-core.c:390:9 @[ crypto_pwhash/argon2/argon2-core.c:514:5 ] ]
	movq	%rdx, -8(%rax,%rcx,8)
.Ltmp247:
	#DEBUG_VALUE: load64_le:src <- [DW_OP_LLVM_arg 0, DW_OP_plus_uconst 128, DW_OP_LLVM_arg 1, DW_OP_constu 3, DW_OP_or, DW_OP_constu 3, DW_OP_shl, DW_OP_plus, DW_OP_stack_value] $rsp, $rcx
	#DEBUG_VALUE: memcpy:__src <- [DW_OP_LLVM_arg 0, DW_OP_plus_uconst 128, DW_OP_LLVM_arg 1, DW_OP_constu 3, DW_OP_or, DW_OP_constu 3, DW_OP_shl, DW_OP_plus, DW_OP_stack_value] $rsp, $rcx
	#DEBUG_VALUE: load_block:i <- [DW_OP_constu 3, DW_OP_or, DW_OP_stack_value] $rcx
	.loc	7 29 10                         # /usr/include/x86_64-linux-gnu/bits/string_fortified.h:29:10 @[ ./include/sodium/private/common.h:67:5 @[ crypto_pwhash/argon2/argon2-core.c:55:21 @[ crypto_pwhash/argon2/argon2-core.c:390:9 @[ crypto_pwhash/argon2/argon2-core.c:514:5 ] ] ] ]
	movq	152(%rsp,%rcx,8), %rdx
.Ltmp248:
	.loc	6 55 19                         # crypto_pwhash/argon2/argon2-core.c:55:19 @[ crypto_pwhash/argon2/argon2-core.c:390:9 @[ crypto_pwhash/argon2/argon2-core.c:514:5 ] ]
	movq	%rdx, (%rax,%rcx,8)
.Ltmp249:
	.loc	6 54 45                         # crypto_pwhash/argon2/argon2-core.c:54:45 @[ crypto_pwhash/argon2/argon2-core.c:390:9 @[ crypto_pwhash/argon2/argon2-core.c:514:5 ] ]
	addq	$4, %rcx
.Ltmp250:
	#DEBUG_VALUE: load_block:i <- $rcx
	.loc	6 54 19 is_stmt 0               # crypto_pwhash/argon2/argon2-core.c:54:19 @[ crypto_pwhash/argon2/argon2-core.c:390:9 @[ crypto_pwhash/argon2/argon2-core.c:514:5 ] ]
	cmpq	$128, %rcx
.Ltmp251:
	.loc	6 54 5                          # crypto_pwhash/argon2/argon2-core.c:54:5 @[ crypto_pwhash/argon2/argon2-core.c:390:9 @[ crypto_pwhash/argon2/argon2-core.c:514:5 ] ]
	jne	.LBB4_28
	jmp	.LBB4_29
.Ltmp252:
	.loc	6 0 5                           # :0:5
.Ltmp253:
	.p2align	4
.LBB4_25:                               # %vector.body.preheader
                                        #   in Loop: Header=BB4_19 Depth=1
	#DEBUG_VALUE: argon2_initialize:instance <- $rbx
	#DEBUG_VALUE: argon2_initialize:context <- [DW_OP_LLVM_entry_value 1] $rsi
	#DEBUG_VALUE: argon2_initialize:result <- 0
	#DEBUG_VALUE: argon2_fill_first_blocks:blockhash_bytes <- [DW_OP_plus_uconst 128, DW_OP_deref] $rsp
	#DEBUG_VALUE: argon2_fill_first_blocks:blockhash <- [DW_OP_plus_uconst 48, DW_OP_stack_value] $rsp
	#DEBUG_VALUE: argon2_fill_first_blocks:instance <- $rbx
	#DEBUG_VALUE: argon2_fill_first_blocks:l <- $r12d
	#DEBUG_VALUE: load_block:input <- [DW_OP_plus_uconst 128, DW_OP_stack_value] $rsp
	#DEBUG_VALUE: load_block:i <- 0
	.loc	6 54 5                          # crypto_pwhash/argon2/argon2-core.c:54:5 @[ crypto_pwhash/argon2/argon2-core.c:390:9 @[ crypto_pwhash/argon2/argon2-core.c:514:5 ] ]
	addq	%rcx, %rax
	addq	$48, %rax
	xorl	%ecx, %ecx
.Ltmp254:
	.loc	6 0 5                           # :0:5
.Ltmp255:
	.p2align	4
.LBB4_26:                               # %vector.body
                                        #   Parent Loop BB4_19 Depth=1
                                        # =>  This Inner Loop Header: Depth=2
	#DEBUG_VALUE: argon2_initialize:instance <- $rbx
	#DEBUG_VALUE: argon2_initialize:context <- [DW_OP_LLVM_entry_value 1] $rsi
	#DEBUG_VALUE: argon2_initialize:result <- 0
	#DEBUG_VALUE: argon2_fill_first_blocks:blockhash_bytes <- [DW_OP_plus_uconst 128, DW_OP_deref] $rsp
	#DEBUG_VALUE: argon2_fill_first_blocks:blockhash <- [DW_OP_plus_uconst 48, DW_OP_stack_value] $rsp
	#DEBUG_VALUE: argon2_fill_first_blocks:instance <- $rbx
	#DEBUG_VALUE: argon2_fill_first_blocks:l <- $r12d
	#DEBUG_VALUE: load_block:input <- [DW_OP_plus_uconst 128, DW_OP_stack_value] $rsp
	#DEBUG_VALUE: load_block:i <- 0
	.loc	7 29 10 is_stmt 1               # /usr/include/x86_64-linux-gnu/bits/string_fortified.h:29:10 @[ ./include/sodium/private/common.h:67:5 @[ crypto_pwhash/argon2/argon2-core.c:55:21 @[ crypto_pwhash/argon2/argon2-core.c:390:9 @[ crypto_pwhash/argon2/argon2-core.c:514:5 ] ] ] ]
	movaps	128(%rsp,%rcx,8), %xmm0
	movaps	144(%rsp,%rcx,8), %xmm1
.Ltmp256:
	.loc	6 55 19                         # crypto_pwhash/argon2/argon2-core.c:55:19 @[ crypto_pwhash/argon2/argon2-core.c:390:9 @[ crypto_pwhash/argon2/argon2-core.c:514:5 ] ]
	movups	%xmm0, -48(%rax,%rcx,8)
	movups	%xmm1, -32(%rax,%rcx,8)
.Ltmp257:
	.loc	7 29 10                         # /usr/include/x86_64-linux-gnu/bits/string_fortified.h:29:10 @[ ./include/sodium/private/common.h:67:5 @[ crypto_pwhash/argon2/argon2-core.c:55:21 @[ crypto_pwhash/argon2/argon2-core.c:390:9 @[ crypto_pwhash/argon2/argon2-core.c:514:5 ] ] ] ]
	movaps	160(%rsp,%rcx,8), %xmm0
	movaps	176(%rsp,%rcx,8), %xmm1
.Ltmp258:
	.loc	6 55 19                         # crypto_pwhash/argon2/argon2-core.c:55:19 @[ crypto_pwhash/argon2/argon2-core.c:390:9 @[ crypto_pwhash/argon2/argon2-core.c:514:5 ] ]
	movups	%xmm0, -16(%rax,%rcx,8)
	movups	%xmm1, (%rax,%rcx,8)
.Ltmp259:
	.loc	6 54 45                         # crypto_pwhash/argon2/argon2-core.c:54:45 @[ crypto_pwhash/argon2/argon2-core.c:390:9 @[ crypto_pwhash/argon2/argon2-core.c:514:5 ] ]
	addq	$8, %rcx
	cmpq	$128, %rcx
	jne	.LBB4_26
	jmp	.LBB4_29
.Ltmp260:
.LBB4_30:                               # %argon2_fill_first_blocks.exit
	#DEBUG_VALUE: argon2_initialize:instance <- $rbx
	#DEBUG_VALUE: argon2_initialize:context <- [DW_OP_LLVM_entry_value 1] $rsi
	#DEBUG_VALUE: argon2_initialize:result <- 0
	#DEBUG_VALUE: argon2_fill_first_blocks:blockhash_bytes <- [DW_OP_plus_uconst 128, DW_OP_deref] $rsp
	#DEBUG_VALUE: argon2_fill_first_blocks:blockhash <- [DW_OP_plus_uconst 48, DW_OP_stack_value] $rsp
	#DEBUG_VALUE: argon2_fill_first_blocks:instance <- $rbx
	.loc	6 0 45 is_stmt 0                # crypto_pwhash/argon2/argon2-core.c:0:45
	leaq	128(%rsp), %rdi
	.loc	6 393 5 is_stmt 1               # crypto_pwhash/argon2/argon2-core.c:393:5 @[ crypto_pwhash/argon2/argon2-core.c:514:5 ]
	movl	$1024, %esi                     # imm = 0x400
	callq	sodium_memzero@PLT
.Ltmp261:
	.loc	6 0 5 is_stmt 0                 # crypto_pwhash/argon2/argon2-core.c:0:5
	leaq	48(%rsp), %rdi
.Ltmp262:
	.loc	6 516 5 is_stmt 1               # crypto_pwhash/argon2/argon2-core.c:516:5
	movl	$72, %esi
	callq	sodium_memzero@PLT
.Ltmp263:
	.loc	6 0 5 is_stmt 0                 # crypto_pwhash/argon2/argon2-core.c:0:5
	xorl	%eax, %eax
	jmp	.LBB4_31
.Ltmp264:
.LBB4_33:                               # %CallStackCheckFailBlk
	#DEBUG_VALUE: argon2_initialize:instance <- [DW_OP_LLVM_entry_value 1] $rdi
	#DEBUG_VALUE: argon2_initialize:context <- [DW_OP_LLVM_entry_value 1] $rsi
	callq	__stack_chk_fail@PLT
.Ltmp265:
.Lfunc_end4:
	.size	argon2_initialize, .Lfunc_end4-argon2_initialize
	.cfi_endproc
	.file	13 "./include/sodium" "crypto_generichash_blake2b.h"
                                        # -- End function
	.hidden	_crypto_pwhash_argon2_pick_best_implementation # -- Begin function _crypto_pwhash_argon2_pick_best_implementation
	.globl	_crypto_pwhash_argon2_pick_best_implementation
	.p2align	4
	.type	_crypto_pwhash_argon2_pick_best_implementation,@function
_crypto_pwhash_argon2_pick_best_implementation: # @_crypto_pwhash_argon2_pick_best_implementation
.Lfunc_begin5:
	.loc	6 554 0 is_stmt 1               # crypto_pwhash/argon2/argon2-core.c:554:0
	.cfi_startproc
# %bb.0:
	pushq	%rax
	.cfi_def_cfa_offset 16
.Ltmp266:
	.loc	6 528 9 prologue_end            # crypto_pwhash/argon2/argon2-core.c:528:9 @[ crypto_pwhash/argon2/argon2-core.c:555:12 ]
	callq	sodium_runtime_has_avx512f@PLT
.Ltmp267:
	testl	%eax, %eax
	je	.LBB5_2
.Ltmp268:
# %bb.1:
	.loc	6 0 9 is_stmt 0                 # crypto_pwhash/argon2/argon2-core.c:0:9
	movq	argon2_fill_segment_avx512f@GOTPCREL(%rip), %rax
	jmp	.LBB5_7
.LBB5_2:
.Ltmp269:
	.loc	6 535 9 is_stmt 1               # crypto_pwhash/argon2/argon2-core.c:535:9 @[ crypto_pwhash/argon2/argon2-core.c:555:12 ]
	callq	sodium_runtime_has_avx2@PLT
.Ltmp270:
	testl	%eax, %eax
	je	.LBB5_4
.Ltmp271:
# %bb.3:
	.loc	6 0 9 is_stmt 0                 # crypto_pwhash/argon2/argon2-core.c:0:9
	movq	argon2_fill_segment_avx2@GOTPCREL(%rip), %rax
	jmp	.LBB5_7
.LBB5_4:
.Ltmp272:
	.loc	6 541 9 is_stmt 1               # crypto_pwhash/argon2/argon2-core.c:541:9 @[ crypto_pwhash/argon2/argon2-core.c:555:12 ]
	callq	sodium_runtime_has_ssse3@PLT
.Ltmp273:
	testl	%eax, %eax
.Ltmp274:
	.loc	6 0 0 is_stmt 0                 # crypto_pwhash/argon2/argon2-core.c:0 @[ crypto_pwhash/argon2/argon2-core.c:555:12 ]
	jne	.LBB5_5
# %bb.6:
	movq	argon2_fill_segment_ref@GOTPCREL(%rip), %rax
	jmp	.LBB5_7
.LBB5_5:
	movq	argon2_fill_segment_ssse3@GOTPCREL(%rip), %rax
.LBB5_7:                                # %argon2_pick_best_implementation.exit
	movq	%rax, fill_segment(%rip)
.Ltmp275:
	.loc	6 555 5 is_stmt 1               # crypto_pwhash/argon2/argon2-core.c:555:5
	xorl	%eax, %eax
	.loc	6 555 5 epilogue_begin is_stmt 0 # crypto_pwhash/argon2/argon2-core.c:555:5
	popq	%rcx
	.cfi_def_cfa_offset 8
	retq
.Ltmp276:
.Lfunc_end5:
	.size	_crypto_pwhash_argon2_pick_best_implementation, .Lfunc_end5-_crypto_pwhash_argon2_pick_best_implementation
	.cfi_endproc
	.file	14 "./include/sodium" "runtime.h"
                                        # -- End function
	.type	fill_segment,@object            # @fill_segment
	.data
	.p2align	3, 0x0
fill_segment:
	.quad	argon2_fill_segment_ref
	.size	fill_segment, 8

	.section	".note.GNU-stack","",@progbits
	.addrsig
	.addrsig_sym argon2_fill_segment_ref
	.addrsig_sym argon2_fill_segment_avx512f
	.addrsig_sym argon2_fill_segment_avx2
	.addrsig_sym argon2_fill_segment_ssse3
	.addrsig_sym __stack_chk_fail