	.file	"argon2.c"
	.file	0 "/home/leizhenyuu/opt/Anonymous_Repo/libsodium_o2_attr_inline/src/libsodium" "argon2.c" md5 0xcaa1c5c7d32fb47e5b795b8b91bbe14b
	.file	1 "crypto_pwhash/argon2" "argon2.h"
	.file	2 "/usr/include/x86_64-linux-gnu/bits" "types.h"
	.file	3 "/usr/include/x86_64-linux-gnu/bits" "stdint-uintn.h"
	.text
	.hidden	argon2_ctx                      # -- Begin function argon2_ctx
	.globl	argon2_ctx
	.p2align	4
	.type	argon2_ctx,@function
argon2_ctx:                             # @argon2_ctx
.Lfunc_begin0:
	.file	4 "crypto_pwhash/argon2" "argon2.c"
	.loc	4 29 0                          # crypto_pwhash/argon2/argon2.c:29:0
	.cfi_startproc
# %bb.0:
	#DEBUG_VALUE: argon2_ctx:context <- $rdi
	#DEBUG_VALUE: argon2_ctx:type <- $esi
	pushq	%rbp
	.cfi_def_cfa_offset 16
	pushq	%r14
	.cfi_def_cfa_offset 24
	pushq	%rbx
	.cfi_def_cfa_offset 32
	subq	$64, %rsp
	.cfi_def_cfa_offset 96
	.cfi_offset %rbx, -32
	.cfi_offset %r14, -24
	.cfi_offset %rbp, -16
	movl	%esi, %r14d
	movq	%rdi, %rbx
.Ltmp0:
	#DEBUG_VALUE: argon2_ctx:instance <- [DW_OP_plus_uconst 8, DW_OP_deref] $rsp
	.loc	4 31 18 prologue_end            # crypto_pwhash/argon2/argon2.c:31:18
	callq	argon2_validate_inputs@PLT
.Ltmp1:
	#DEBUG_VALUE: argon2_ctx:type <- $r14d
	#DEBUG_VALUE: argon2_ctx:context <- $rbx
	#DEBUG_VALUE: argon2_ctx:result <- $eax
	.loc	4 36 19                         # crypto_pwhash/argon2/argon2.c:36:19
	testl	%eax, %eax
	jne	.LBB0_7
.Ltmp2:
# %bb.1:
	#DEBUG_VALUE: argon2_ctx:context <- $rbx
	#DEBUG_VALUE: argon2_ctx:type <- $r14d
	#DEBUG_VALUE: argon2_ctx:instance <- [DW_OP_plus_uconst 8, DW_OP_deref] $rsp
	#DEBUG_VALUE: argon2_ctx:result <- $eax
	.loc	4 40 27                         # crypto_pwhash/argon2/argon2.c:40:27
	leal	-3(%r14), %ecx
	movl	$-26, %eax
.Ltmp3:
	cmpl	$-2, %ecx
	jb	.LBB0_7
.Ltmp4:
# %bb.2:
	#DEBUG_VALUE: argon2_ctx:context <- $rbx
	#DEBUG_VALUE: argon2_ctx:type <- $r14d
	#DEBUG_VALUE: argon2_ctx:instance <- [DW_OP_plus_uconst 8, DW_OP_deref] $rsp
	.loc	4 46 30                         # crypto_pwhash/argon2/argon2.c:46:30
	movl	80(%rbx), %ecx
.Ltmp5:
	#DEBUG_VALUE: argon2_ctx:memory_blocks <- $ecx
	.loc	4 56 21                         # crypto_pwhash/argon2/argon2.c:56:21
	movq	$0, 8(%rsp)
	#DEBUG_VALUE: argon2_ctx:instance <- [DW_OP_plus_uconst 8, DW_OP_deref] $rsp
	.loc	4 57 32                         # crypto_pwhash/argon2/argon2.c:57:32
	movl	76(%rbx), %eax
	.loc	4 57 21 is_stmt 0               # crypto_pwhash/argon2/argon2.c:57:21
	movl	%eax, 24(%rsp)
	.loc	4 58 27 is_stmt 1               # crypto_pwhash/argon2/argon2.c:58:27
	movl	$-1, 28(%rsp)
.Ltmp6:
	#DEBUG_VALUE: argon2_ctx:instance <- [DW_OP_plus_uconst 8, DW_OP_deref, DW_OP_LLVM_fragment 0 192] $rsp
	#DEBUG_VALUE: argon2_ctx:instance <- [DW_OP_plus_uconst 8, DW_OP_plus_uconst 28, DW_OP_deref, DW_OP_LLVM_fragment 224 224] $rsp
	#DEBUG_VALUE: argon2_ctx:instance <- [DW_OP_LLVM_fragment 192 32] undef
	#DEBUG_VALUE: argon2_ctx:instance <- [DW_OP_plus_uconst 8, DW_OP_plus_uconst 32, DW_OP_deref, DW_OP_LLVM_fragment 256 192] $rsp
	#DEBUG_VALUE: argon2_ctx:instance <- [DW_OP_plus_uconst 8, DW_OP_plus_uconst 36, DW_OP_deref, DW_OP_LLVM_fragment 288 160] $rsp
	#DEBUG_VALUE: argon2_ctx:instance <- [DW_OP_LLVM_fragment 256 32] undef
	#DEBUG_VALUE: argon2_ctx:instance <- [DW_OP_LLVM_fragment 288 32] undef
	#DEBUG_VALUE: argon2_ctx:instance <- [DW_OP_plus_uconst 8, DW_OP_plus_uconst 40, DW_OP_deref, DW_OP_LLVM_fragment 320 128] $rsp
	.loc	4 48 43                         # crypto_pwhash/argon2/argon2.c:48:43
	movq	84(%rbx), %rsi
	movl	84(%rbx), %edi
	.loc	4 48 32 is_stmt 0               # crypto_pwhash/argon2/argon2.c:48:32
	leal	(,%rdi,8), %eax
	.loc	4 48 23                         # crypto_pwhash/argon2/argon2.c:48:23
	cmpl	%eax, %ecx
	cmoval	%ecx, %eax
.Ltmp7:
	#DEBUG_VALUE: argon2_ctx:memory_blocks <- $eax
	.loc	4 52 54 is_stmt 1               # crypto_pwhash/argon2/argon2.c:52:54
	shll	$2, %edi
	.loc	4 52 36 is_stmt 0               # crypto_pwhash/argon2/argon2.c:52:36
	xorl	%edx, %edx
	divl	%edi
.Ltmp8:
	#DEBUG_VALUE: argon2_ctx:segment_length <- $eax
	#DEBUG_VALUE: argon2_ctx:instance <- [DW_OP_LLVM_fragment 224 32] $eax
	.loc	4 54 36 is_stmt 1               # crypto_pwhash/argon2/argon2.c:54:36
	imull	%eax, %edi
.Ltmp9:
	#DEBUG_VALUE: argon2_ctx:instance <- [DW_OP_LLVM_fragment 192 32] $edi
	#DEBUG_VALUE: argon2_ctx:memory_blocks <- $edi
	.loc	4 59 28                         # crypto_pwhash/argon2/argon2.c:59:28
	movl	%edi, 32(%rsp)
.Ltmp10:
	#DEBUG_VALUE: argon2_ctx:instance <- [DW_OP_plus_uconst 8, DW_OP_deref, DW_OP_LLVM_fragment 0 224] $rsp
	.loc	4 60 29                         # crypto_pwhash/argon2/argon2.c:60:29
	movl	%eax, 36(%rsp)
.Ltmp11:
	#DEBUG_VALUE: argon2_ctx:instance <- [DW_OP_plus_uconst 8, DW_OP_deref, DW_OP_LLVM_fragment 0 256] $rsp
	.loc	4 61 43                         # crypto_pwhash/argon2/argon2.c:61:43
	shll	$2, %eax
.Ltmp12:
	#DEBUG_VALUE: argon2_ctx:instance <- [DW_OP_LLVM_fragment 256 32] $eax
	.loc	4 61 26 is_stmt 0               # crypto_pwhash/argon2/argon2.c:61:26
	movl	%eax, 40(%rsp)
.Ltmp13:
	#DEBUG_VALUE: argon2_ctx:instance <- [DW_OP_plus_uconst 8, DW_OP_deref, DW_OP_LLVM_fragment 0 288] $rsp
	.loc	4 62 20 is_stmt 1               # crypto_pwhash/argon2/argon2.c:62:20
	movq	%rsi, 44(%rsp)
.Ltmp14:
	#DEBUG_VALUE: argon2_ctx:instance <- [DW_OP_plus_uconst 8, DW_OP_deref] $rsp
	.loc	4 64 19                         # crypto_pwhash/argon2/argon2.c:64:19
	movl	%r14d, 52(%rsp)
	leaq	8(%rsp), %rdi
.Ltmp15:
	.loc	4 69 14                         # crypto_pwhash/argon2/argon2.c:69:14
	movq	%rbx, %rsi
	callq	argon2_initialize@PLT
.Ltmp16:
	#DEBUG_VALUE: argon2_ctx:result <- $eax
	.loc	4 71 19                         # crypto_pwhash/argon2/argon2.c:71:19
	testl	%eax, %eax
	jne	.LBB0_7
.Ltmp17:
# %bb.3:                                # %.preheader
	#DEBUG_VALUE: argon2_ctx:context <- $rbx
	#DEBUG_VALUE: argon2_ctx:type <- $r14d
	#DEBUG_VALUE: argon2_ctx:instance <- [DW_OP_plus_uconst 8, DW_OP_deref] $rsp
	#DEBUG_VALUE: argon2_ctx:result <- $eax
	#DEBUG_VALUE: argon2_ctx:pass <- 0
	.loc	4 76 25                         # crypto_pwhash/argon2/argon2.c:76:25
	cmpl	$0, 24(%rsp)
.Ltmp18:
	.loc	4 76 5 is_stmt 0                # crypto_pwhash/argon2/argon2.c:76:5
	je	.LBB0_6
.Ltmp19:
# %bb.4:                                # %.lr.ph.preheader
	#DEBUG_VALUE: argon2_ctx:context <- $rbx
	#DEBUG_VALUE: argon2_ctx:type <- $r14d
	#DEBUG_VALUE: argon2_ctx:instance <- [DW_OP_plus_uconst 8, DW_OP_deref] $rsp
	#DEBUG_VALUE: argon2_ctx:result <- $eax
	#DEBUG_VALUE: argon2_ctx:pass <- 0
	.loc	4 0 5                           # crypto_pwhash/argon2/argon2.c:0:5
	xorl	%ebp, %ebp
	leaq	8(%rsp), %r14
.Ltmp20:
	#DEBUG_VALUE: argon2_ctx:type <- [DW_OP_LLVM_entry_value 1] $esi
	.p2align	4
.LBB0_5:                                # %.lr.ph
                                        # =>This Inner Loop Header: Depth=1
	#DEBUG_VALUE: argon2_ctx:context <- $rbx
	#DEBUG_VALUE: argon2_ctx:type <- [DW_OP_LLVM_entry_value 1] $esi
	#DEBUG_VALUE: argon2_ctx:instance <- [DW_OP_plus_uconst 8, DW_OP_deref] $rsp
	#DEBUG_VALUE: argon2_ctx:pass <- $ebp
	.loc	4 77 9 is_stmt 1                # crypto_pwhash/argon2/argon2.c:77:9
	movq	%r14, %rdi
	movl	%ebp, %esi
	callq	argon2_fill_memory_blocks@PLT
.Ltmp21:
	.loc	4 76 48                         # crypto_pwhash/argon2/argon2.c:76:48
	incl	%ebp
.Ltmp22:
	#DEBUG_VALUE: argon2_ctx:pass <- $ebp
	.loc	4 76 25 is_stmt 0               # crypto_pwhash/argon2/argon2.c:76:25
	cmpl	24(%rsp), %ebp
.Ltmp23:
	.loc	4 76 5                          # crypto_pwhash/argon2/argon2.c:76:5
	jb	.LBB0_5
.Ltmp24:
.LBB0_6:                                # %._crit_edge
	#DEBUG_VALUE: argon2_ctx:context <- $rbx
	#DEBUG_VALUE: argon2_ctx:type <- [DW_OP_LLVM_entry_value 1] $esi
	#DEBUG_VALUE: argon2_ctx:instance <- [DW_OP_plus_uconst 8, DW_OP_deref] $rsp
	.loc	4 0 5                           # crypto_pwhash/argon2/argon2.c:0:5
	leaq	8(%rsp), %rsi
	.loc	4 81 5 is_stmt 1                # crypto_pwhash/argon2/argon2.c:81:5
	movq	%rbx, %rdi
	callq	argon2_finalize@PLT
.Ltmp25:
	.loc	4 0 5 is_stmt 0                 # crypto_pwhash/argon2/argon2.c:0:5
	xorl	%eax, %eax
.Ltmp26:
.LBB0_7:
	#DEBUG_VALUE: argon2_ctx:context <- $rbx
	#DEBUG_VALUE: argon2_ctx:type <- [DW_OP_LLVM_entry_value 1] $esi
	#DEBUG_VALUE: argon2_ctx:instance <- [DW_OP_plus_uconst 8, DW_OP_deref] $rsp
	.loc	4 84 1 epilogue_begin is_stmt 1 # crypto_pwhash/argon2/argon2.c:84:1
	addq	$64, %rsp
	.cfi_def_cfa_offset 32
	popq	%rbx
.Ltmp27:
	#DEBUG_VALUE: argon2_ctx:context <- [DW_OP_LLVM_entry_value 1] $rdi
	.cfi_def_cfa_offset 24
	popq	%r14
	.cfi_def_cfa_offset 16
	popq	%rbp
	.cfi_def_cfa_offset 8
	retq
.Ltmp28:
.Lfunc_end0:
	.size	argon2_ctx, .Lfunc_end0-argon2_ctx
	.cfi_endproc
	.file	5 "crypto_pwhash/argon2" "argon2-core.h"
	.file	6 "/home/leizhenyuu/opt/Anonymous_Repo" "llvm-project/build/lib/clang/21/include/__stddef_size_t.h"
                                        # -- End function
	.hidden	argon2_hash                     # -- Begin function argon2_hash
	.globl	argon2_hash
	.p2align	4
	.type	argon2_hash,@function
argon2_hash:                            # @argon2_hash
.Lfunc_begin1:
	.loc	4 92 0                          # crypto_pwhash/argon2/argon2.c:92:0
	.cfi_startproc
# %bb.0:
	#DEBUG_VALUE: argon2_hash:t_cost <- $edi
	#DEBUG_VALUE: argon2_hash:m_cost <- $esi
	#DEBUG_VALUE: argon2_hash:parallelism <- $edx
	#DEBUG_VALUE: argon2_hash:pwd <- $rcx
	#DEBUG_VALUE: argon2_hash:pwdlen <- $r8
	#DEBUG_VALUE: argon2_hash:salt <- $r9
	pushq	%rbp
	.cfi_def_cfa_offset 16
	pushq	%r15
	.cfi_def_cfa_offset 24
	pushq	%r14
	.cfi_def_cfa_offset 32
	pushq	%r13
	.cfi_def_cfa_offset 40
	pushq	%r12
	.cfi_def_cfa_offset 48
	pushq	%rbx
	.cfi_def_cfa_offset 56
	subq	$104, %rsp
	.cfi_def_cfa_offset 160
	.cfi_offset %rbx, -56
	.cfi_offset %r12, -48
	.cfi_offset %r13, -40
	.cfi_offset %r14, -32
	.cfi_offset %r15, -24
	.cfi_offset %rbp, -16
.Ltmp29:
	#DEBUG_VALUE: argon2_hash:saltlen <- [DW_OP_plus_uconst 160] [$rsp+0]
	#DEBUG_VALUE: argon2_hash:hash <- [DW_OP_plus_uconst 168] [$rsp+0]
	#DEBUG_VALUE: argon2_hash:hashlen <- [DW_OP_plus_uconst 176] [$rsp+0]
	#DEBUG_VALUE: argon2_hash:encoded <- [DW_OP_plus_uconst 184] [$rsp+0]
	#DEBUG_VALUE: argon2_hash:encodedlen <- [DW_OP_plus_uconst 192] [$rsp+0]
	#DEBUG_VALUE: argon2_hash:type <- [DW_OP_plus_uconst 200] [$rsp+0]
	movq	%r9, %r14
	movq	%r8, %rbx
	movq	%rcx, %r15
	movl	%edx, %ebp
	movl	%esi, %r13d
	movl	%edi, 4(%rsp)                   # 4-byte Spill
.Ltmp30:
	#DEBUG_VALUE: argon2_hash:t_cost <- [DW_OP_plus_uconst 4] [$rsp+0]
	movq	176(%rsp), %rcx
.Ltmp31:
	#DEBUG_VALUE: argon2_hash:pwd <- $r15
	movq	168(%rsp), %rdi
.Ltmp32:
	.loc	4 97 14 prologue_end            # crypto_pwhash/argon2/argon2.c:97:14
	testq	%rdi, %rdi
	je	.LBB1_2
.Ltmp33:
# %bb.1:
	#DEBUG_VALUE: argon2_hash:t_cost <- [DW_OP_plus_uconst 4] [$rsp+0]
	#DEBUG_VALUE: argon2_hash:m_cost <- $r13d
	#DEBUG_VALUE: argon2_hash:parallelism <- $ebp
	#DEBUG_VALUE: argon2_hash:pwd <- $r15
	#DEBUG_VALUE: argon2_hash:pwdlen <- $rbx
	#DEBUG_VALUE: argon2_hash:salt <- $r14
	#DEBUG_VALUE: argon2_hash:saltlen <- [DW_OP_plus_uconst 160] [$rsp+0]
	#DEBUG_VALUE: argon2_hash:hash <- [DW_OP_plus_uconst 168] [$rsp+0]
	#DEBUG_VALUE: argon2_hash:hashlen <- [DW_OP_plus_uconst 176] [$rsp+0]
	#DEBUG_VALUE: argon2_hash:encoded <- [DW_OP_plus_uconst 184] [$rsp+0]
	#DEBUG_VALUE: argon2_hash:encodedlen <- [DW_OP_plus_uconst 192] [$rsp+0]
	#DEBUG_VALUE: argon2_hash:type <- [DW_OP_plus_uconst 200] [$rsp+0]
	.loc	4 0 14 is_stmt 0                # crypto_pwhash/argon2/argon2.c:0:14
	movq	%rcx, %r12
.Ltmp34:
	.loc	4 98 9 is_stmt 1                # crypto_pwhash/argon2/argon2.c:98:9
	movq	%rcx, %rsi
	callq	randombytes_buf@PLT
.Ltmp35:
	.loc	4 0 9 is_stmt 0                 # crypto_pwhash/argon2/argon2.c:0:9
	movq	%r12, %rcx
.Ltmp36:
.LBB1_2:
	#DEBUG_VALUE: argon2_hash:t_cost <- [DW_OP_plus_uconst 4] [$rsp+0]
	#DEBUG_VALUE: argon2_hash:m_cost <- $r13d
	#DEBUG_VALUE: argon2_hash:parallelism <- $ebp
	#DEBUG_VALUE: argon2_hash:pwd <- $r15
	#DEBUG_VALUE: argon2_hash:pwdlen <- $rbx
	#DEBUG_VALUE: argon2_hash:salt <- $r14
	#DEBUG_VALUE: argon2_hash:saltlen <- [DW_OP_plus_uconst 160] [$rsp+0]
	#DEBUG_VALUE: argon2_hash:hash <- [DW_OP_plus_uconst 168] [$rsp+0]
	#DEBUG_VALUE: argon2_hash:hashlen <- [DW_OP_plus_uconst 176] [$rsp+0]
	#DEBUG_VALUE: argon2_hash:encoded <- [DW_OP_plus_uconst 184] [$rsp+0]
	#DEBUG_VALUE: argon2_hash:encodedlen <- [DW_OP_plus_uconst 192] [$rsp+0]
	#DEBUG_VALUE: argon2_hash:type <- [DW_OP_plus_uconst 200] [$rsp+0]
	.loc	4 101 16 is_stmt 1              # crypto_pwhash/argon2/argon2.c:101:16
	movq	%rbx, %rax
	shrq	$32, %rax
	movl	$-5, %r12d
	jne	.LBB1_16
.Ltmp37:
# %bb.3:
	#DEBUG_VALUE: argon2_hash:t_cost <- [DW_OP_plus_uconst 4] [$rsp+0]
	#DEBUG_VALUE: argon2_hash:m_cost <- $r13d
	#DEBUG_VALUE: argon2_hash:parallelism <- $ebp
	#DEBUG_VALUE: argon2_hash:pwd <- $r15
	#DEBUG_VALUE: argon2_hash:pwdlen <- $rbx
	#DEBUG_VALUE: argon2_hash:salt <- $r14
	#DEBUG_VALUE: argon2_hash:saltlen <- [DW_OP_plus_uconst 160] [$rsp+0]
	#DEBUG_VALUE: argon2_hash:hash <- [DW_OP_plus_uconst 168] [$rsp+0]
	#DEBUG_VALUE: argon2_hash:hashlen <- [DW_OP_plus_uconst 176] [$rsp+0]
	#DEBUG_VALUE: argon2_hash:encoded <- [DW_OP_plus_uconst 184] [$rsp+0]
	#DEBUG_VALUE: argon2_hash:encodedlen <- [DW_OP_plus_uconst 192] [$rsp+0]
	#DEBUG_VALUE: argon2_hash:type <- [DW_OP_plus_uconst 200] [$rsp+0]
	.loc	4 105 17                        # crypto_pwhash/argon2/argon2.c:105:17
	movq	%rcx, %rax
	shrq	$32, %rax
	movl	$-3, %r12d
	jne	.LBB1_16
.Ltmp38:
# %bb.4:
	#DEBUG_VALUE: argon2_hash:t_cost <- [DW_OP_plus_uconst 4] [$rsp+0]
	#DEBUG_VALUE: argon2_hash:m_cost <- $r13d
	#DEBUG_VALUE: argon2_hash:parallelism <- $ebp
	#DEBUG_VALUE: argon2_hash:pwd <- $r15
	#DEBUG_VALUE: argon2_hash:pwdlen <- $rbx
	#DEBUG_VALUE: argon2_hash:salt <- $r14
	#DEBUG_VALUE: argon2_hash:saltlen <- [DW_OP_plus_uconst 160] [$rsp+0]
	#DEBUG_VALUE: argon2_hash:hash <- [DW_OP_plus_uconst 168] [$rsp+0]
	#DEBUG_VALUE: argon2_hash:hashlen <- [DW_OP_plus_uconst 176] [$rsp+0]
	#DEBUG_VALUE: argon2_hash:encoded <- [DW_OP_plus_uconst 184] [$rsp+0]
	#DEBUG_VALUE: argon2_hash:encodedlen <- [DW_OP_plus_uconst 192] [$rsp+0]
	#DEBUG_VALUE: argon2_hash:type <- [DW_OP_plus_uconst 200] [$rsp+0]
	.loc	4 0 17 is_stmt 0                # crypto_pwhash/argon2/argon2.c:0:17
	movq	160(%rsp), %rax
.Ltmp39:
	.loc	4 109 17 is_stmt 1              # crypto_pwhash/argon2/argon2.c:109:17
	shrq	$32, %rax
	movl	$-7, %r12d
	jne	.LBB1_16
.Ltmp40:
# %bb.5:
	#DEBUG_VALUE: argon2_hash:t_cost <- [DW_OP_plus_uconst 4] [$rsp+0]
	#DEBUG_VALUE: argon2_hash:m_cost <- $r13d
	#DEBUG_VALUE: argon2_hash:parallelism <- $ebp
	#DEBUG_VALUE: argon2_hash:pwd <- $r15
	#DEBUG_VALUE: argon2_hash:pwdlen <- $rbx
	#DEBUG_VALUE: argon2_hash:salt <- $r14
	#DEBUG_VALUE: argon2_hash:saltlen <- [DW_OP_plus_uconst 160] [$rsp+0]
	#DEBUG_VALUE: argon2_hash:hash <- [DW_OP_plus_uconst 168] [$rsp+0]
	#DEBUG_VALUE: argon2_hash:hashlen <- [DW_OP_plus_uconst 176] [$rsp+0]
	#DEBUG_VALUE: argon2_hash:encoded <- [DW_OP_plus_uconst 184] [$rsp+0]
	#DEBUG_VALUE: argon2_hash:encodedlen <- [DW_OP_plus_uconst 192] [$rsp+0]
	#DEBUG_VALUE: argon2_hash:type <- [DW_OP_plus_uconst 200] [$rsp+0]
	.loc	4 113 23                        # crypto_pwhash/argon2/argon2.c:113:23
	movq	%rcx, %rdi
	movq	%rcx, %r12
	callq	malloc@PLT
.Ltmp41:
	#DEBUG_VALUE: argon2_hash:out <- $rax
	.loc	4 114 10                        # crypto_pwhash/argon2/argon2.c:114:10
	testq	%rax, %rax
	.loc	4 114 9 is_stmt 0               # crypto_pwhash/argon2/argon2.c:114:9
	je	.LBB1_6
.Ltmp42:
# %bb.7:
	#DEBUG_VALUE: argon2_hash:t_cost <- [DW_OP_plus_uconst 4] [$rsp+0]
	#DEBUG_VALUE: argon2_hash:m_cost <- $r13d
	#DEBUG_VALUE: argon2_hash:parallelism <- $ebp
	#DEBUG_VALUE: argon2_hash:pwd <- $r15
	#DEBUG_VALUE: argon2_hash:pwdlen <- $rbx
	#DEBUG_VALUE: argon2_hash:salt <- $r14
	#DEBUG_VALUE: argon2_hash:saltlen <- [DW_OP_plus_uconst 160] [$rsp+0]
	#DEBUG_VALUE: argon2_hash:hash <- [DW_OP_plus_uconst 168] [$rsp+0]
	#DEBUG_VALUE: argon2_hash:hashlen <- [DW_OP_plus_uconst 176] [$rsp+0]
	#DEBUG_VALUE: argon2_hash:encoded <- [DW_OP_plus_uconst 184] [$rsp+0]
	#DEBUG_VALUE: argon2_hash:encodedlen <- [DW_OP_plus_uconst 192] [$rsp+0]
	#DEBUG_VALUE: argon2_hash:type <- [DW_OP_plus_uconst 200] [$rsp+0]
	#DEBUG_VALUE: argon2_hash:out <- $rax
	.loc	4 0 9                           # crypto_pwhash/argon2/argon2.c:0:9
	movl	200(%rsp), %edx
	.loc	4 118 17 is_stmt 1              # crypto_pwhash/argon2/argon2.c:118:17
	movq	%rax, 8(%rsp)
	.loc	4 119 20                        # crypto_pwhash/argon2/argon2.c:119:20
	movl	%r12d, 16(%rsp)
	.loc	4 120 17                        # crypto_pwhash/argon2/argon2.c:120:17
	movq	%r15, 24(%rsp)
	.loc	4 121 20                        # crypto_pwhash/argon2/argon2.c:121:20
	movl	%ebx, 32(%rsp)
	.loc	4 122 18                        # crypto_pwhash/argon2/argon2.c:122:18
	movq	%r14, 40(%rsp)
	.loc	4 123 21                        # crypto_pwhash/argon2/argon2.c:123:21
	movq	160(%rsp), %rcx
	movl	%ecx, 48(%rsp)
	.loc	4 124 20                        # crypto_pwhash/argon2/argon2.c:124:20
	movq	$0, 56(%rsp)
	.loc	4 125 23                        # crypto_pwhash/argon2/argon2.c:125:23
	movl	$0, 64(%rsp)
	.loc	4 126 16                        # crypto_pwhash/argon2/argon2.c:126:16
	movq	$0, 72(%rsp)
	.loc	4 127 19                        # crypto_pwhash/argon2/argon2.c:127:19
	movl	$0, 80(%rsp)
	movl	4(%rsp), %ecx                   # 4-byte Reload
	.loc	4 128 20                        # crypto_pwhash/argon2/argon2.c:128:20
	movl	%ecx, 84(%rsp)
	.loc	4 129 20                        # crypto_pwhash/argon2/argon2.c:129:20
	movl	%r13d, 88(%rsp)
	.loc	4 130 19                        # crypto_pwhash/argon2/argon2.c:130:19
	movl	%ebp, 92(%rsp)
	.loc	4 131 21                        # crypto_pwhash/argon2/argon2.c:131:21
	movl	%ebp, 96(%rsp)
	movl	%edx, %ebp
.Ltmp43:
	#DEBUG_VALUE: argon2_hash:parallelism <- [DW_OP_LLVM_entry_value 1] $edx
	.loc	4 132 19                        # crypto_pwhash/argon2/argon2.c:132:19
	movl	$0, 100(%rsp)
	leaq	8(%rsp), %rdi
	.loc	4 134 14                        # crypto_pwhash/argon2/argon2.c:134:14
	movl	%edx, %esi
	movq	%rax, %r13
.Ltmp44:
	#DEBUG_VALUE: argon2_hash:out <- $r13
	#DEBUG_VALUE: argon2_hash:m_cost <- [DW_OP_LLVM_entry_value 1] $esi
	callq	argon2_ctx
.Ltmp45:
	#DEBUG_VALUE: argon2_hash:result <- $eax
	.loc	4 136 16                        # crypto_pwhash/argon2/argon2.c:136:16
	testl	%eax, %eax
	je	.LBB1_9
.Ltmp46:
# %bb.8:
	#DEBUG_VALUE: argon2_hash:t_cost <- [DW_OP_plus_uconst 4] [$rsp+0]
	#DEBUG_VALUE: argon2_hash:m_cost <- [DW_OP_LLVM_entry_value 1] $esi
	#DEBUG_VALUE: argon2_hash:parallelism <- [DW_OP_LLVM_entry_value 1] $edx
	#DEBUG_VALUE: argon2_hash:pwd <- $r15
	#DEBUG_VALUE: argon2_hash:pwdlen <- $rbx
	#DEBUG_VALUE: argon2_hash:salt <- $r14
	#DEBUG_VALUE: argon2_hash:saltlen <- [DW_OP_plus_uconst 160] [$rsp+0]
	#DEBUG_VALUE: argon2_hash:hash <- [DW_OP_plus_uconst 168] [$rsp+0]
	#DEBUG_VALUE: argon2_hash:hashlen <- [DW_OP_plus_uconst 176] [$rsp+0]
	#DEBUG_VALUE: argon2_hash:encoded <- [DW_OP_plus_uconst 184] [$rsp+0]
	#DEBUG_VALUE: argon2_hash:encodedlen <- [DW_OP_plus_uconst 192] [$rsp+0]
	#DEBUG_VALUE: argon2_hash:type <- [DW_OP_plus_uconst 200] [$rsp+0]
	#DEBUG_VALUE: argon2_hash:out <- $r13
	#DEBUG_VALUE: argon2_hash:result <- $eax
	.loc	4 0 0 is_stmt 0                 # crypto_pwhash/argon2/argon2.c:0
	movl	%eax, %r12d
.Ltmp47:
	.loc	4 137 9 is_stmt 1               # crypto_pwhash/argon2/argon2.c:137:9
	movq	%r13, %rdi
	movq	176(%rsp), %rsi
	callq	sodium_memzero@PLT
.Ltmp48:
	#DEBUG_VALUE: argon2_hash:result <- $r12d
	.loc	4 139 9                         # crypto_pwhash/argon2/argon2.c:139:9
	jmp	.LBB1_15
.Ltmp49:
.LBB1_6:
	#DEBUG_VALUE: argon2_hash:t_cost <- [DW_OP_plus_uconst 4] [$rsp+0]
	#DEBUG_VALUE: argon2_hash:m_cost <- $r13d
	#DEBUG_VALUE: argon2_hash:parallelism <- $ebp
	#DEBUG_VALUE: argon2_hash:pwd <- $r15
	#DEBUG_VALUE: argon2_hash:pwdlen <- $rbx
	#DEBUG_VALUE: argon2_hash:salt <- $r14
	#DEBUG_VALUE: argon2_hash:saltlen <- [DW_OP_plus_uconst 160] [$rsp+0]
	#DEBUG_VALUE: argon2_hash:hash <- [DW_OP_plus_uconst 168] [$rsp+0]
	#DEBUG_VALUE: argon2_hash:hashlen <- [DW_OP_plus_uconst 176] [$rsp+0]
	#DEBUG_VALUE: argon2_hash:encoded <- [DW_OP_plus_uconst 184] [$rsp+0]
	#DEBUG_VALUE: argon2_hash:encodedlen <- [DW_OP_plus_uconst 192] [$rsp+0]
	#DEBUG_VALUE: argon2_hash:type <- [DW_OP_plus_uconst 200] [$rsp+0]
	#DEBUG_VALUE: argon2_hash:out <- $rax
	.loc	4 0 9 is_stmt 0                 # crypto_pwhash/argon2/argon2.c:0:9
	movl	$-22, %r12d
.Ltmp50:
	.loc	4 114 9 is_stmt 1               # crypto_pwhash/argon2/argon2.c:114:9
	jmp	.LBB1_16
.Ltmp51:
.LBB1_9:
	#DEBUG_VALUE: argon2_hash:t_cost <- [DW_OP_plus_uconst 4] [$rsp+0]
	#DEBUG_VALUE: argon2_hash:m_cost <- [DW_OP_LLVM_entry_value 1] $esi
	#DEBUG_VALUE: argon2_hash:parallelism <- [DW_OP_LLVM_entry_value 1] $edx
	#DEBUG_VALUE: argon2_hash:pwd <- $r15
	#DEBUG_VALUE: argon2_hash:pwdlen <- $rbx
	#DEBUG_VALUE: argon2_hash:salt <- $r14
	#DEBUG_VALUE: argon2_hash:saltlen <- [DW_OP_plus_uconst 160] [$rsp+0]
	#DEBUG_VALUE: argon2_hash:hash <- [DW_OP_plus_uconst 168] [$rsp+0]
	#DEBUG_VALUE: argon2_hash:hashlen <- [DW_OP_plus_uconst 176] [$rsp+0]
	#DEBUG_VALUE: argon2_hash:encoded <- [DW_OP_plus_uconst 184] [$rsp+0]
	#DEBUG_VALUE: argon2_hash:encodedlen <- [DW_OP_plus_uconst 192] [$rsp+0]
	#DEBUG_VALUE: argon2_hash:type <- [DW_OP_plus_uconst 200] [$rsp+0]
	#DEBUG_VALUE: argon2_hash:out <- $r13
	#DEBUG_VALUE: argon2_hash:result <- $eax
	.loc	4 0 9 is_stmt 0                 # crypto_pwhash/argon2/argon2.c:0:9
	movq	176(%rsp), %r15
.Ltmp52:
	#DEBUG_VALUE: argon2_hash:pwd <- [DW_OP_LLVM_entry_value 1] $rcx
	movq	192(%rsp), %rbx
.Ltmp53:
	#DEBUG_VALUE: argon2_hash:pwdlen <- [DW_OP_LLVM_entry_value 1] $r8
	movq	184(%rsp), %r14
.Ltmp54:
	#DEBUG_VALUE: argon2_hash:salt <- [DW_OP_LLVM_entry_value 1] $r9
	.loc	4 143 9 is_stmt 1               # crypto_pwhash/argon2/argon2.c:143:9
	testq	%r14, %r14
	sete	%al
.Ltmp55:
	.loc	4 0 9 is_stmt 0                 # crypto_pwhash/argon2/argon2.c:0:9
	testq	%rbx, %rbx
	sete	%cl
	.loc	4 143 17                        # crypto_pwhash/argon2/argon2.c:143:17
	orb	%al, %cl
	jne	.LBB1_12
.Ltmp56:
# %bb.10:
	#DEBUG_VALUE: argon2_hash:t_cost <- [DW_OP_plus_uconst 4] [$rsp+0]
	#DEBUG_VALUE: argon2_hash:m_cost <- [DW_OP_LLVM_entry_value 1] $esi
	#DEBUG_VALUE: argon2_hash:parallelism <- [DW_OP_LLVM_entry_value 1] $edx
	#DEBUG_VALUE: argon2_hash:pwd <- [DW_OP_LLVM_entry_value 1] $rcx
	#DEBUG_VALUE: argon2_hash:pwdlen <- [DW_OP_LLVM_entry_value 1] $r8
	#DEBUG_VALUE: argon2_hash:salt <- [DW_OP_LLVM_entry_value 1] $r9
	#DEBUG_VALUE: argon2_hash:saltlen <- [DW_OP_plus_uconst 160] [$rsp+0]
	#DEBUG_VALUE: argon2_hash:hash <- [DW_OP_plus_uconst 168] [$rsp+0]
	#DEBUG_VALUE: argon2_hash:hashlen <- [DW_OP_plus_uconst 176] [$rsp+0]
	#DEBUG_VALUE: argon2_hash:encoded <- [DW_OP_plus_uconst 184] [$rsp+0]
	#DEBUG_VALUE: argon2_hash:encodedlen <- [DW_OP_plus_uconst 192] [$rsp+0]
	#DEBUG_VALUE: argon2_hash:type <- [DW_OP_plus_uconst 200] [$rsp+0]
	#DEBUG_VALUE: argon2_hash:out <- $r13
	.loc	4 0 17                          # crypto_pwhash/argon2/argon2.c:0:17
	leaq	8(%rsp), %rdx
.Ltmp57:
	.loc	4 144 13 is_stmt 1              # crypto_pwhash/argon2/argon2.c:144:13
	movq	%r14, %rdi
	movq	%rbx, %rsi
	movl	%ebp, %ecx
	callq	argon2_encode_string@PLT
.Ltmp58:
	.loc	4 145 50                        # crypto_pwhash/argon2/argon2.c:145:50
	testl	%eax, %eax
	je	.LBB1_12
.Ltmp59:
# %bb.11:
	#DEBUG_VALUE: argon2_hash:t_cost <- [DW_OP_plus_uconst 4] [$rsp+0]
	#DEBUG_VALUE: argon2_hash:m_cost <- [DW_OP_LLVM_entry_value 1] $esi
	#DEBUG_VALUE: argon2_hash:parallelism <- [DW_OP_LLVM_entry_value 1] $edx
	#DEBUG_VALUE: argon2_hash:pwd <- [DW_OP_LLVM_entry_value 1] $rcx
	#DEBUG_VALUE: argon2_hash:pwdlen <- [DW_OP_LLVM_entry_value 1] $r8
	#DEBUG_VALUE: argon2_hash:salt <- [DW_OP_LLVM_entry_value 1] $r9
	#DEBUG_VALUE: argon2_hash:saltlen <- [DW_OP_plus_uconst 160] [$rsp+0]
	#DEBUG_VALUE: argon2_hash:hash <- [DW_OP_plus_uconst 168] [$rsp+0]
	#DEBUG_VALUE: argon2_hash:hashlen <- [DW_OP_plus_uconst 176] [$rsp+0]
	#DEBUG_VALUE: argon2_hash:encoded <- [DW_OP_plus_uconst 184] [$rsp+0]
	#DEBUG_VALUE: argon2_hash:encodedlen <- [DW_OP_plus_uconst 192] [$rsp+0]
	#DEBUG_VALUE: argon2_hash:type <- [DW_OP_plus_uconst 200] [$rsp+0]
	#DEBUG_VALUE: argon2_hash:out <- $r13
	.loc	4 146 13                        # crypto_pwhash/argon2/argon2.c:146:13
	movq	%r13, %rdi
	movq	%r15, %rsi
	callq	sodium_memzero@PLT
.Ltmp60:
	.loc	4 147 13                        # crypto_pwhash/argon2/argon2.c:147:13
	movq	%r14, %rdi
	movq	%rbx, %rsi
	callq	sodium_memzero@PLT
.Ltmp61:
	.loc	4 0 13 is_stmt 0                # crypto_pwhash/argon2/argon2.c:0:13
	movl	$-31, %r12d
	.loc	4 149 13 is_stmt 1              # crypto_pwhash/argon2/argon2.c:149:13
	jmp	.LBB1_15
.Ltmp62:
.LBB1_12:
	#DEBUG_VALUE: argon2_hash:t_cost <- [DW_OP_plus_uconst 4] [$rsp+0]
	#DEBUG_VALUE: argon2_hash:m_cost <- [DW_OP_LLVM_entry_value 1] $esi
	#DEBUG_VALUE: argon2_hash:parallelism <- [DW_OP_LLVM_entry_value 1] $edx
	#DEBUG_VALUE: argon2_hash:pwd <- [DW_OP_LLVM_entry_value 1] $rcx
	#DEBUG_VALUE: argon2_hash:pwdlen <- [DW_OP_LLVM_entry_value 1] $r8
	#DEBUG_VALUE: argon2_hash:salt <- [DW_OP_LLVM_entry_value 1] $r9
	#DEBUG_VALUE: argon2_hash:saltlen <- [DW_OP_plus_uconst 160] [$rsp+0]
	#DEBUG_VALUE: argon2_hash:hash <- [DW_OP_plus_uconst 168] [$rsp+0]
	#DEBUG_VALUE: argon2_hash:hashlen <- [DW_OP_plus_uconst 176] [$rsp+0]
	#DEBUG_VALUE: argon2_hash:encoded <- [DW_OP_plus_uconst 184] [$rsp+0]
	#DEBUG_VALUE: argon2_hash:encodedlen <- [DW_OP_plus_uconst 192] [$rsp+0]
	#DEBUG_VALUE: argon2_hash:type <- [DW_OP_plus_uconst 200] [$rsp+0]
	#DEBUG_VALUE: argon2_hash:out <- $r13
	.loc	4 0 13 is_stmt 0                # crypto_pwhash/argon2/argon2.c:0:13
	movq	168(%rsp), %rdi
.Ltmp63:
	.loc	4 97 14 is_stmt 1               # crypto_pwhash/argon2/argon2.c:97:14
	testq	%rdi, %rdi
.Ltmp64:
	.loc	4 154 9                         # crypto_pwhash/argon2/argon2.c:154:9
	je	.LBB1_14
.Ltmp65:
# %bb.13:
	#DEBUG_VALUE: argon2_hash:t_cost <- [DW_OP_plus_uconst 4] [$rsp+0]
	#DEBUG_VALUE: argon2_hash:m_cost <- [DW_OP_LLVM_entry_value 1] $esi
	#DEBUG_VALUE: argon2_hash:parallelism <- [DW_OP_LLVM_entry_value 1] $edx
	#DEBUG_VALUE: argon2_hash:pwd <- [DW_OP_LLVM_entry_value 1] $rcx
	#DEBUG_VALUE: argon2_hash:pwdlen <- [DW_OP_LLVM_entry_value 1] $r8
	#DEBUG_VALUE: argon2_hash:salt <- [DW_OP_LLVM_entry_value 1] $r9
	#DEBUG_VALUE: argon2_hash:saltlen <- [DW_OP_plus_uconst 160] [$rsp+0]
	#DEBUG_VALUE: argon2_hash:hash <- [DW_OP_plus_uconst 168] [$rsp+0]
	#DEBUG_VALUE: argon2_hash:hashlen <- [DW_OP_plus_uconst 176] [$rsp+0]
	#DEBUG_VALUE: argon2_hash:encoded <- [DW_OP_plus_uconst 184] [$rsp+0]
	#DEBUG_VALUE: argon2_hash:encodedlen <- [DW_OP_plus_uconst 192] [$rsp+0]
	#DEBUG_VALUE: argon2_hash:type <- [DW_OP_plus_uconst 200] [$rsp+0]
	#DEBUG_VALUE: argon2_hash:out <- $r13
	#DEBUG_VALUE: memcpy:__dest <- undef
	#DEBUG_VALUE: memcpy:__src <- $r13
	#DEBUG_VALUE: memcpy:__len <- undef
	.file	7 "/usr/include/x86_64-linux-gnu/bits" "string_fortified.h"
	.loc	7 29 10                         # /usr/include/x86_64-linux-gnu/bits/string_fortified.h:29:10 @[ crypto_pwhash/argon2/argon2.c:155:9 ]
	movq	%r13, %rsi
	movq	%r15, %rdx
	callq	memcpy@PLT
.Ltmp66:
.LBB1_14:
	#DEBUG_VALUE: argon2_hash:t_cost <- [DW_OP_plus_uconst 4] [$rsp+0]
	#DEBUG_VALUE: argon2_hash:m_cost <- [DW_OP_LLVM_entry_value 1] $esi
	#DEBUG_VALUE: argon2_hash:parallelism <- [DW_OP_LLVM_entry_value 1] $edx
	#DEBUG_VALUE: argon2_hash:pwd <- [DW_OP_LLVM_entry_value 1] $rcx
	#DEBUG_VALUE: argon2_hash:pwdlen <- [DW_OP_LLVM_entry_value 1] $r8
	#DEBUG_VALUE: argon2_hash:salt <- [DW_OP_LLVM_entry_value 1] $r9
	#DEBUG_VALUE: argon2_hash:saltlen <- [DW_OP_plus_uconst 160] [$rsp+0]
	#DEBUG_VALUE: argon2_hash:hash <- [DW_OP_plus_uconst 168] [$rsp+0]
	#DEBUG_VALUE: argon2_hash:hashlen <- [DW_OP_plus_uconst 176] [$rsp+0]
	#DEBUG_VALUE: argon2_hash:encoded <- [DW_OP_plus_uconst 184] [$rsp+0]
	#DEBUG_VALUE: argon2_hash:encodedlen <- [DW_OP_plus_uconst 192] [$rsp+0]
	#DEBUG_VALUE: argon2_hash:type <- [DW_OP_plus_uconst 200] [$rsp+0]
	#DEBUG_VALUE: argon2_hash:out <- $r13
	.loc	4 158 5                         # crypto_pwhash/argon2/argon2.c:158:5
	movq	%r13, %rdi
	movq	%r15, %rsi
	callq	sodium_memzero@PLT
.Ltmp67:
	.loc	4 0 5 is_stmt 0                 # crypto_pwhash/argon2/argon2.c:0:5
	xorl	%r12d, %r12d
.Ltmp68:
.LBB1_15:                               # %.sink.split
	#DEBUG_VALUE: argon2_hash:t_cost <- [DW_OP_plus_uconst 4] [$rsp+0]
	#DEBUG_VALUE: argon2_hash:m_cost <- [DW_OP_LLVM_entry_value 1] $esi
	#DEBUG_VALUE: argon2_hash:parallelism <- [DW_OP_LLVM_entry_value 1] $edx
	#DEBUG_VALUE: argon2_hash:pwd <- [DW_OP_LLVM_entry_value 1] $rcx
	#DEBUG_VALUE: argon2_hash:pwdlen <- [DW_OP_LLVM_entry_value 1] $r8
	#DEBUG_VALUE: argon2_hash:salt <- [DW_OP_LLVM_entry_value 1] $r9
	#DEBUG_VALUE: argon2_hash:saltlen <- [DW_OP_plus_uconst 160] [$rsp+0]
	#DEBUG_VALUE: argon2_hash:hash <- [DW_OP_plus_uconst 168] [$rsp+0]
	#DEBUG_VALUE: argon2_hash:hashlen <- [DW_OP_plus_uconst 176] [$rsp+0]
	#DEBUG_VALUE: argon2_hash:encoded <- [DW_OP_plus_uconst 184] [$rsp+0]
	#DEBUG_VALUE: argon2_hash:encodedlen <- [DW_OP_plus_uconst 192] [$rsp+0]
	#DEBUG_VALUE: argon2_hash:type <- [DW_OP_plus_uconst 200] [$rsp+0]
	#DEBUG_VALUE: argon2_hash:out <- $r13
	movq	%r13, %rdi
	callq	free@PLT
.Ltmp69:
.LBB1_16:
	#DEBUG_VALUE: argon2_hash:t_cost <- [DW_OP_plus_uconst 4] [$rsp+0]
	#DEBUG_VALUE: argon2_hash:m_cost <- [DW_OP_LLVM_entry_value 1] $esi
	#DEBUG_VALUE: argon2_hash:parallelism <- [DW_OP_LLVM_entry_value 1] $edx
	#DEBUG_VALUE: argon2_hash:pwd <- [DW_OP_LLVM_entry_value 1] $rcx
	#DEBUG_VALUE: argon2_hash:pwdlen <- [DW_OP_LLVM_entry_value 1] $r8
	#DEBUG_VALUE: argon2_hash:salt <- [DW_OP_LLVM_entry_value 1] $r9
	#DEBUG_VALUE: argon2_hash:saltlen <- [DW_OP_plus_uconst 160] [$rsp+0]
	#DEBUG_VALUE: argon2_hash:hash <- [DW_OP_plus_uconst 168] [$rsp+0]
	#DEBUG_VALUE: argon2_hash:hashlen <- [DW_OP_plus_uconst 176] [$rsp+0]
	#DEBUG_VALUE: argon2_hash:encoded <- [DW_OP_plus_uconst 184] [$rsp+0]
	#DEBUG_VALUE: argon2_hash:encodedlen <- [DW_OP_plus_uconst 192] [$rsp+0]
	#DEBUG_VALUE: argon2_hash:type <- [DW_OP_plus_uconst 200] [$rsp+0]
	.loc	4 162 1 is_stmt 1               # crypto_pwhash/argon2/argon2.c:162:1
	movl	%r12d, %eax
	.loc	4 162 1 epilogue_begin is_stmt 0 # crypto_pwhash/argon2/argon2.c:162:1
	addq	$104, %rsp
	.cfi_def_cfa_offset 56
	popq	%rbx
	.cfi_def_cfa_offset 48
	popq	%r12
	.cfi_def_cfa_offset 40
	popq	%r13
	.cfi_def_cfa_offset 32
	popq	%r14
	.cfi_def_cfa_offset 24
	popq	%r15
	.cfi_def_cfa_offset 16
	popq	%rbp
	.cfi_def_cfa_offset 8
	retq
.Ltmp70:
.Lfunc_end1:
	.size	argon2_hash, .Lfunc_end1-argon2_hash
	.cfi_endproc
	.file	8 "./include/sodium" "randombytes.h"
	.file	9 "/usr/include" "stdlib.h"
	.file	10 "./include/sodium" "utils.h"
	.file	11 "crypto_pwhash/argon2" "argon2-encoding.h"
                                        # -- End function
	.hidden	argon2i_hash_encoded            # -- Begin function argon2i_hash_encoded
	.globl	argon2i_hash_encoded
	.p2align	4
	.type	argon2i_hash_encoded,@function
argon2i_hash_encoded:                   # @argon2i_hash_encoded
.Lfunc_begin2:
	.loc	4 170 0 is_stmt 1               # crypto_pwhash/argon2/argon2.c:170:0
	.cfi_startproc
# %bb.0:
	#DEBUG_VALUE: argon2i_hash_encoded:t_cost <- $edi
	#DEBUG_VALUE: argon2i_hash_encoded:m_cost <- $esi
	#DEBUG_VALUE: argon2i_hash_encoded:parallelism <- $edx
	#DEBUG_VALUE: argon2i_hash_encoded:pwd <- $rcx
	#DEBUG_VALUE: argon2i_hash_encoded:pwdlen <- $r8
	#DEBUG_VALUE: argon2i_hash_encoded:salt <- $r9
	subq	$56, %rsp
	.cfi_def_cfa_offset 64
.Ltmp71:
	#DEBUG_VALUE: argon2i_hash_encoded:saltlen <- [DW_OP_plus_uconst 64] [$rsp+0]
	#DEBUG_VALUE: argon2i_hash_encoded:hashlen <- [DW_OP_plus_uconst 72] [$rsp+0]
	#DEBUG_VALUE: argon2i_hash_encoded:encoded <- [DW_OP_plus_uconst 80] [$rsp+0]
	#DEBUG_VALUE: argon2i_hash_encoded:encodedlen <- [DW_OP_plus_uconst 88] [$rsp+0]
	movq	64(%rsp), %rax
	movups	72(%rsp), %xmm0
	movq	88(%rsp), %r10
.Ltmp72:
	.loc	4 171 12 prologue_end           # crypto_pwhash/argon2/argon2.c:171:12
	movq	%r10, 32(%rsp)
	movups	%xmm0, 16(%rsp)
	movq	%rax, (%rsp)
	movl	$1, 40(%rsp)
	movq	$0, 8(%rsp)
	callq	argon2_hash
.Ltmp73:
	#DEBUG_VALUE: argon2i_hash_encoded:salt <- [DW_OP_LLVM_entry_value 1] $r9
	#DEBUG_VALUE: argon2i_hash_encoded:pwdlen <- [DW_OP_LLVM_entry_value 1] $r8
	#DEBUG_VALUE: argon2i_hash_encoded:pwd <- [DW_OP_LLVM_entry_value 1] $rcx
	#DEBUG_VALUE: argon2i_hash_encoded:parallelism <- [DW_OP_LLVM_entry_value 1] $edx
	#DEBUG_VALUE: argon2i_hash_encoded:m_cost <- [DW_OP_LLVM_entry_value 1] $esi
	#DEBUG_VALUE: argon2i_hash_encoded:t_cost <- [DW_OP_LLVM_entry_value 1] $edi
	.loc	4 171 5 epilogue_begin is_stmt 0 # crypto_pwhash/argon2/argon2.c:171:5
	addq	$56, %rsp
	.cfi_def_cfa_offset 8
	retq
.Ltmp74:
.Lfunc_end2:
	.size	argon2i_hash_encoded, .Lfunc_end2-argon2i_hash_encoded
	.cfi_endproc
                                        # -- End function
	.hidden	argon2i_hash_raw                # -- Begin function argon2i_hash_raw
	.globl	argon2i_hash_raw
	.p2align	4
	.type	argon2i_hash_raw,@function
argon2i_hash_raw:                       # @argon2i_hash_raw
.Lfunc_begin3:
	.loc	4 180 0 is_stmt 1               # crypto_pwhash/argon2/argon2.c:180:0
	.cfi_startproc
# %bb.0:
	#DEBUG_VALUE: argon2i_hash_raw:t_cost <- $edi
	#DEBUG_VALUE: argon2i_hash_raw:m_cost <- $esi
	#DEBUG_VALUE: argon2i_hash_raw:parallelism <- $edx
	#DEBUG_VALUE: argon2i_hash_raw:pwd <- $rcx
	#DEBUG_VALUE: argon2i_hash_raw:pwdlen <- $r8
	#DEBUG_VALUE: argon2i_hash_raw:salt <- $r9
	subq	$56, %rsp
	.cfi_def_cfa_offset 64
.Ltmp75:
	#DEBUG_VALUE: argon2i_hash_raw:saltlen <- [DW_OP_plus_uconst 64] [$rsp+0]
	#DEBUG_VALUE: argon2i_hash_raw:hash <- [DW_OP_plus_uconst 72] [$rsp+0]
	#DEBUG_VALUE: argon2i_hash_raw:hashlen <- [DW_OP_plus_uconst 80] [$rsp+0]
	movaps	64(%rsp), %xmm0
	movq	80(%rsp), %rax
.Ltmp76:
	.loc	4 181 12 prologue_end           # crypto_pwhash/argon2/argon2.c:181:12
	xorps	%xmm1, %xmm1
	movups	%xmm1, 24(%rsp)
	movq	%rax, 16(%rsp)
	movups	%xmm0, (%rsp)
	movl	$1, 40(%rsp)
	callq	argon2_hash
.Ltmp77:
	#DEBUG_VALUE: argon2i_hash_raw:salt <- [DW_OP_LLVM_entry_value 1] $r9
	#DEBUG_VALUE: argon2i_hash_raw:pwdlen <- [DW_OP_LLVM_entry_value 1] $r8
	#DEBUG_VALUE: argon2i_hash_raw:pwd <- [DW_OP_LLVM_entry_value 1] $rcx
	#DEBUG_VALUE: argon2i_hash_raw:parallelism <- [DW_OP_LLVM_entry_value 1] $edx
	#DEBUG_VALUE: argon2i_hash_raw:m_cost <- [DW_OP_LLVM_entry_value 1] $esi
	#DEBUG_VALUE: argon2i_hash_raw:t_cost <- [DW_OP_LLVM_entry_value 1] $edi
	.loc	4 181 5 epilogue_begin is_stmt 0 # crypto_pwhash/argon2/argon2.c:181:5
	addq	$56, %rsp
	.cfi_def_cfa_offset 8
	retq
.Ltmp78:
.Lfunc_end3:
	.size	argon2i_hash_raw, .Lfunc_end3-argon2i_hash_raw
	.cfi_endproc
                                        # -- End function
	.hidden	argon2id_hash_encoded           # -- Begin function argon2id_hash_encoded
	.globl	argon2id_hash_encoded
	.p2align	4
	.type	argon2id_hash_encoded,@function
argon2id_hash_encoded:                  # @argon2id_hash_encoded
.Lfunc_begin4:
	.loc	4 191 0 is_stmt 1               # crypto_pwhash/argon2/argon2.c:191:0
	.cfi_startproc
# %bb.0:
	#DEBUG_VALUE: argon2id_hash_encoded:t_cost <- $edi
	#DEBUG_VALUE: argon2id_hash_encoded:m_cost <- $esi
	#DEBUG_VALUE: argon2id_hash_encoded:parallelism <- $edx
	#DEBUG_VALUE: argon2id_hash_encoded:pwd <- $rcx
	#DEBUG_VALUE: argon2id_hash_encoded:pwdlen <- $r8
	#DEBUG_VALUE: argon2id_hash_encoded:salt <- $r9
	subq	$56, %rsp
	.cfi_def_cfa_offset 64
.Ltmp79:
	#DEBUG_VALUE: argon2id_hash_encoded:saltlen <- [DW_OP_plus_uconst 64] [$rsp+0]
	#DEBUG_VALUE: argon2id_hash_encoded:hashlen <- [DW_OP_plus_uconst 72] [$rsp+0]
	#DEBUG_VALUE: argon2id_hash_encoded:encoded <- [DW_OP_plus_uconst 80] [$rsp+0]
	#DEBUG_VALUE: argon2id_hash_encoded:encodedlen <- [DW_OP_plus_uconst 88] [$rsp+0]
	movq	64(%rsp), %rax
	movups	72(%rsp), %xmm0
	movq	88(%rsp), %r10
.Ltmp80:
	.loc	4 192 12 prologue_end           # crypto_pwhash/argon2/argon2.c:192:12
	movq	%r10, 32(%rsp)
	movups	%xmm0, 16(%rsp)
	movq	%rax, (%rsp)
	movl	$2, 40(%rsp)
	movq	$0, 8(%rsp)
	callq	argon2_hash
.Ltmp81:
	#DEBUG_VALUE: argon2id_hash_encoded:salt <- [DW_OP_LLVM_entry_value 1] $r9
	#DEBUG_VALUE: argon2id_hash_encoded:pwdlen <- [DW_OP_LLVM_entry_value 1] $r8
	#DEBUG_VALUE: argon2id_hash_encoded:pwd <- [DW_OP_LLVM_entry_value 1] $rcx
	#DEBUG_VALUE: argon2id_hash_encoded:parallelism <- [DW_OP_LLVM_entry_value 1] $edx
	#DEBUG_VALUE: argon2id_hash_encoded:m_cost <- [DW_OP_LLVM_entry_value 1] $esi
	#DEBUG_VALUE: argon2id_hash_encoded:t_cost <- [DW_OP_LLVM_entry_value 1] $edi
	.loc	4 192 5 epilogue_begin is_stmt 0 # crypto_pwhash/argon2/argon2.c:192:5
	addq	$56, %rsp
	.cfi_def_cfa_offset 8
	retq
.Ltmp82:
.Lfunc_end4:
	.size	argon2id_hash_encoded, .Lfunc_end4-argon2id_hash_encoded
	.cfi_endproc
                                        # -- End function
	.hidden	argon2id_hash_raw               # -- Begin function argon2id_hash_raw
	.globl	argon2id_hash_raw
	.p2align	4
	.type	argon2id_hash_raw,@function
argon2id_hash_raw:                      # @argon2id_hash_raw
.Lfunc_begin5:
	.loc	4 201 0 is_stmt 1               # crypto_pwhash/argon2/argon2.c:201:0
	.cfi_startproc
# %bb.0:
	#DEBUG_VALUE: argon2id_hash_raw:t_cost <- $edi
	#DEBUG_VALUE: argon2id_hash_raw:m_cost <- $esi
	#DEBUG_VALUE: argon2id_hash_raw:parallelism <- $edx
	#DEBUG_VALUE: argon2id_hash_raw:pwd <- $rcx
	#DEBUG_VALUE: argon2id_hash_raw:pwdlen <- $r8
	#DEBUG_VALUE: argon2id_hash_raw:salt <- $r9
	subq	$56, %rsp
	.cfi_def_cfa_offset 64
.Ltmp83:
	#DEBUG_VALUE: argon2id_hash_raw:saltlen <- [DW_OP_plus_uconst 64] [$rsp+0]
	#DEBUG_VALUE: argon2id_hash_raw:hash <- [DW_OP_plus_uconst 72] [$rsp+0]
	#DEBUG_VALUE: argon2id_hash_raw:hashlen <- [DW_OP_plus_uconst 80] [$rsp+0]
	movaps	64(%rsp), %xmm0
	movq	80(%rsp), %rax
.Ltmp84:
	.loc	4 202 12 prologue_end           # crypto_pwhash/argon2/argon2.c:202:12
	xorps	%xmm1, %xmm1
	movups	%xmm1, 24(%rsp)
	movq	%rax, 16(%rsp)
	movups	%xmm0, (%rsp)
	movl	$2, 40(%rsp)
	callq	argon2_hash
.Ltmp85:
	#DEBUG_VALUE: argon2id_hash_raw:salt <- [DW_OP_LLVM_entry_value 1] $r9
	#DEBUG_VALUE: argon2id_hash_raw:pwdlen <- [DW_OP_LLVM_entry_value 1] $r8
	#DEBUG_VALUE: argon2id_hash_raw:pwd <- [DW_OP_LLVM_entry_value 1] $rcx
	#DEBUG_VALUE: argon2id_hash_raw:parallelism <- [DW_OP_LLVM_entry_value 1] $edx
	#DEBUG_VALUE: argon2id_hash_raw:m_cost <- [DW_OP_LLVM_entry_value 1] $esi
	#DEBUG_VALUE: argon2id_hash_raw:t_cost <- [DW_OP_LLVM_entry_value 1] $edi
	.loc	4 202 5 epilogue_begin is_stmt 0 # crypto_pwhash/argon2/argon2.c:202:5
	addq	$56, %rsp
	.cfi_def_cfa_offset 8
	retq
.Ltmp86:
.Lfunc_end5:
	.size	argon2id_hash_raw, .Lfunc_end5-argon2id_hash_raw
	.cfi_endproc
                                        # -- End function
	.hidden	argon2_verify                   # -- Begin function argon2_verify
	.globl	argon2_verify
	.p2align	4
	.type	argon2_verify,@function
argon2_verify:                          # @argon2_verify
.Lfunc_begin6:
	.loc	4 209 0 is_stmt 1               # crypto_pwhash/argon2/argon2.c:209:0
	.cfi_startproc
# %bb.0:
	#DEBUG_VALUE: argon2_verify:encoded <- $rdi
	#DEBUG_VALUE: argon2_verify:pwd <- $rsi
	#DEBUG_VALUE: argon2_verify:pwdlen <- $rdx
	#DEBUG_VALUE: argon2_verify:type <- $ecx
	pushq	%rbp
	.cfi_def_cfa_offset 16
	pushq	%r15
	.cfi_def_cfa_offset 24
	pushq	%r14
	.cfi_def_cfa_offset 32
	pushq	%r13
	.cfi_def_cfa_offset 40
	pushq	%r12
	.cfi_def_cfa_offset 48
	pushq	%rbx
	.cfi_def_cfa_offset 56
	subq	$168, %rsp
	.cfi_def_cfa_offset 224
	.cfi_offset %rbx, -56
	.cfi_offset %r12, -48
	.cfi_offset %r13, -40
	.cfi_offset %r14, -32
	.cfi_offset %r15, -24
	.cfi_offset %rbp, -16
	movl	%ecx, %ebp
	movq	%rdx, %rbx
	movq	%rsi, %r14
	movq	%rdi, %r12
.Ltmp87:
	#DEBUG_VALUE: argon2_verify:ctx <- [DW_OP_plus_uconst 56, DW_OP_deref] $rsp
	#DEBUG_VALUE: memset:__dest <- [DW_OP_plus_uconst 56, DW_OP_stack_value] $rsp
	#DEBUG_VALUE: memset:__ch <- 0
	#DEBUG_VALUE: memset:__len <- 96
	#DEBUG_VALUE: argon2_verify:ctx <- [DW_OP_LLVM_fragment 128 64] 0
	#DEBUG_VALUE: argon2_verify:ctx <- [DW_OP_plus_uconst 56, DW_OP_deref, DW_OP_LLVM_fragment 0 128] $rsp
	#DEBUG_VALUE: argon2_verify:ctx <- [DW_OP_LLVM_fragment 192 32] 0
	#DEBUG_VALUE: argon2_verify:ctx <- [DW_OP_LLVM_fragment 384 64] 0
	#DEBUG_VALUE: argon2_verify:ctx <- [DW_OP_plus_uconst 56, DW_OP_plus_uconst 28, DW_OP_deref, DW_OP_LLVM_fragment 224 160] $rsp
	#DEBUG_VALUE: argon2_verify:ctx <- [DW_OP_LLVM_fragment 448 32] 0
	#DEBUG_VALUE: argon2_verify:ctx <- [DW_OP_plus_uconst 56, DW_OP_plus_uconst 60, DW_OP_deref, DW_OP_LLVM_fragment 480 288] $rsp
	.loc	4 218 13 prologue_end           # crypto_pwhash/argon2/argon2.c:218:13
	xorps	%xmm0, %xmm0
	movups	%xmm0, 128(%rsp)
	movups	%xmm0, 112(%rsp)
	movups	%xmm0, 96(%rsp)
	movups	%xmm0, 80(%rsp)
	movups	%xmm0, 64(%rsp)
	movq	$0, 144(%rsp)
.Ltmp88:
	#DEBUG_VALUE: argon2_verify:ctx <- [DW_OP_plus_uconst 56, DW_OP_plus_uconst 56, DW_OP_deref, DW_OP_LLVM_fragment 448 320] $rsp
	.loc	4 224 19                        # crypto_pwhash/argon2/argon2.c:224:19
	callq	strlen@PLT
.Ltmp89:
	#DEBUG_VALUE: argon2_verify:type <- $ebp
	#DEBUG_VALUE: argon2_verify:pwdlen <- $rbx
	#DEBUG_VALUE: argon2_verify:pwd <- $r14
	#DEBUG_VALUE: argon2_verify:encoded <- $r12
	movq	%rax, %r15
.Ltmp90:
	#DEBUG_VALUE: argon2_verify:encoded_len <- $r15
	.loc	4 225 21                        # crypto_pwhash/argon2/argon2.c:225:21
	shrq	$32, %rax
	movl	$-34, %eax
	jne	.LBB6_12
.Ltmp91:
# %bb.1:
	#DEBUG_VALUE: argon2_verify:encoded <- $r12
	#DEBUG_VALUE: argon2_verify:pwd <- $r14
	#DEBUG_VALUE: argon2_verify:pwdlen <- $rbx
	#DEBUG_VALUE: argon2_verify:type <- $ebp
	#DEBUG_VALUE: argon2_verify:ctx <- [DW_OP_LLVM_fragment 128 64] 0
	#DEBUG_VALUE: argon2_verify:ctx <- [DW_OP_plus_uconst 56, DW_OP_deref, DW_OP_LLVM_fragment 0 128] $rsp
	#DEBUG_VALUE: argon2_verify:ctx <- [DW_OP_LLVM_fragment 192 32] 0
	#DEBUG_VALUE: argon2_verify:ctx <- [DW_OP_LLVM_fragment 384 64] 0
	#DEBUG_VALUE: argon2_verify:ctx <- [DW_OP_plus_uconst 56, DW_OP_plus_uconst 28, DW_OP_deref, DW_OP_LLVM_fragment 224 160] $rsp
	#DEBUG_VALUE: argon2_verify:ctx <- [DW_OP_plus_uconst 56, DW_OP_plus_uconst 56, DW_OP_deref, DW_OP_LLVM_fragment 448 320] $rsp
	#DEBUG_VALUE: argon2_verify:encoded_len <- $r15
	.loc	4 0 21 is_stmt 0                # crypto_pwhash/argon2/argon2.c:0:21
	movq	%r14, 152(%rsp)                 # 8-byte Spill
.Ltmp92:
	#DEBUG_VALUE: argon2_verify:pwd <- [DW_OP_plus_uconst 152] [$rsp+0]
	movq	%rbx, 160(%rsp)                 # 8-byte Spill
.Ltmp93:
	#DEBUG_VALUE: argon2_verify:pwdlen <- [DW_OP_plus_uconst 160] [$rsp+0]
	.loc	4 228 15 is_stmt 1              # crypto_pwhash/argon2/argon2.c:228:15
	movl	%r15d, 128(%rsp)
	#DEBUG_VALUE: argon2_verify:ctx <- [DW_OP_plus_uconst 56, DW_OP_plus_uconst 56, DW_OP_deref, DW_OP_LLVM_fragment 448 320] $rsp
	.loc	4 229 17                        # crypto_pwhash/argon2/argon2.c:229:17
	movl	%r15d, 96(%rsp)
.Ltmp94:
	#DEBUG_VALUE: argon2_verify:ctx <- [DW_OP_plus_uconst 56, DW_OP_plus_uconst 28, DW_OP_deref, DW_OP_LLVM_fragment 224 160] $rsp
	.loc	4 230 16                        # crypto_pwhash/argon2/argon2.c:230:16
	movl	%r15d, 64(%rsp)
.Ltmp95:
	#DEBUG_VALUE: argon2_verify:ctx <- [DW_OP_plus_uconst 56, DW_OP_deref, DW_OP_LLVM_fragment 0 128] $rsp
	.loc	4 232 26                        # crypto_pwhash/argon2/argon2.c:232:26
	movq	%r15, %rdi
	callq	malloc@PLT
.Ltmp96:
	movq	%rax, %r14
	.loc	4 232 12 is_stmt 0              # crypto_pwhash/argon2/argon2.c:232:12
	movq	%rax, 120(%rsp)
.Ltmp97:
	#DEBUG_VALUE: argon2_verify:ctx <- [DW_OP_plus_uconst 56, DW_OP_plus_uconst 56, DW_OP_deref, DW_OP_LLVM_fragment 448 320] $rsp
	.loc	4 233 28 is_stmt 1              # crypto_pwhash/argon2/argon2.c:233:28
	movq	%r15, %rdi
	callq	malloc@PLT
.Ltmp98:
	movq	%rax, %rbx
	.loc	4 233 14 is_stmt 0              # crypto_pwhash/argon2/argon2.c:233:14
	movq	%rax, 88(%rsp)
.Ltmp99:
	#DEBUG_VALUE: argon2_verify:ctx <- [DW_OP_plus_uconst 56, DW_OP_plus_uconst 28, DW_OP_deref, DW_OP_LLVM_fragment 224 160] $rsp
	.loc	4 234 27 is_stmt 1              # crypto_pwhash/argon2/argon2.c:234:27
	movq	%r15, %rdi
	callq	malloc@PLT
.Ltmp100:
	movq	%rax, %r13
	.loc	4 234 13 is_stmt 0              # crypto_pwhash/argon2/argon2.c:234:13
	movq	%rax, 56(%rsp)
.Ltmp101:
	#DEBUG_VALUE: argon2_verify:ctx <- [DW_OP_plus_uconst 56, DW_OP_deref, DW_OP_LLVM_fragment 0 128] $rsp
	.loc	4 0 13                          # crypto_pwhash/argon2/argon2.c:0:13
	testq	%r14, %r14
.Ltmp102:
	.loc	4 235 18 is_stmt 1              # crypto_pwhash/argon2/argon2.c:235:18
	je	.LBB6_4
.Ltmp103:
# %bb.2:
	#DEBUG_VALUE: argon2_verify:encoded <- $r12
	#DEBUG_VALUE: argon2_verify:pwd <- [DW_OP_plus_uconst 152] [$rsp+0]
	#DEBUG_VALUE: argon2_verify:pwdlen <- [DW_OP_plus_uconst 160] [$rsp+0]
	#DEBUG_VALUE: argon2_verify:type <- $ebp
	#DEBUG_VALUE: argon2_verify:ctx <- [DW_OP_LLVM_fragment 128 64] 0
	#DEBUG_VALUE: argon2_verify:ctx <- [DW_OP_plus_uconst 56, DW_OP_deref, DW_OP_LLVM_fragment 0 128] $rsp
	#DEBUG_VALUE: argon2_verify:ctx <- [DW_OP_LLVM_fragment 192 32] 0
	#DEBUG_VALUE: argon2_verify:ctx <- [DW_OP_LLVM_fragment 384 64] 0
	#DEBUG_VALUE: argon2_verify:ctx <- [DW_OP_plus_uconst 56, DW_OP_plus_uconst 28, DW_OP_deref, DW_OP_LLVM_fragment 224 160] $rsp
	#DEBUG_VALUE: argon2_verify:ctx <- [DW_OP_plus_uconst 56, DW_OP_plus_uconst 56, DW_OP_deref, DW_OP_LLVM_fragment 448 320] $rsp
	#DEBUG_VALUE: argon2_verify:encoded_len <- $r15
	testq	%rbx, %rbx
	je	.LBB6_4
.Ltmp104:
# %bb.3:
	#DEBUG_VALUE: argon2_verify:encoded <- $r12
	#DEBUG_VALUE: argon2_verify:pwd <- [DW_OP_plus_uconst 152] [$rsp+0]
	#DEBUG_VALUE: argon2_verify:pwdlen <- [DW_OP_plus_uconst 160] [$rsp+0]
	#DEBUG_VALUE: argon2_verify:type <- $ebp
	#DEBUG_VALUE: argon2_verify:ctx <- [DW_OP_LLVM_fragment 128 64] 0
	#DEBUG_VALUE: argon2_verify:ctx <- [DW_OP_plus_uconst 56, DW_OP_deref, DW_OP_LLVM_fragment 0 128] $rsp
	#DEBUG_VALUE: argon2_verify:ctx <- [DW_OP_LLVM_fragment 192 32] 0
	#DEBUG_VALUE: argon2_verify:ctx <- [DW_OP_LLVM_fragment 384 64] 0
	#DEBUG_VALUE: argon2_verify:ctx <- [DW_OP_plus_uconst 56, DW_OP_plus_uconst 28, DW_OP_deref, DW_OP_LLVM_fragment 224 160] $rsp
	#DEBUG_VALUE: argon2_verify:ctx <- [DW_OP_plus_uconst 56, DW_OP_plus_uconst 56, DW_OP_deref, DW_OP_LLVM_fragment 448 320] $rsp
	#DEBUG_VALUE: argon2_verify:encoded_len <- $r15
	testq	%r13, %r13
	je	.LBB6_4
.Ltmp105:
# %bb.5:
	#DEBUG_VALUE: argon2_verify:encoded <- $r12
	#DEBUG_VALUE: argon2_verify:pwd <- [DW_OP_plus_uconst 152] [$rsp+0]
	#DEBUG_VALUE: argon2_verify:pwdlen <- [DW_OP_plus_uconst 160] [$rsp+0]
	#DEBUG_VALUE: argon2_verify:type <- $ebp
	#DEBUG_VALUE: argon2_verify:ctx <- [DW_OP_LLVM_fragment 128 64] 0
	#DEBUG_VALUE: argon2_verify:ctx <- [DW_OP_plus_uconst 56, DW_OP_deref, DW_OP_LLVM_fragment 0 128] $rsp
	#DEBUG_VALUE: argon2_verify:ctx <- [DW_OP_LLVM_fragment 192 32] 0
	#DEBUG_VALUE: argon2_verify:ctx <- [DW_OP_LLVM_fragment 384 64] 0
	#DEBUG_VALUE: argon2_verify:ctx <- [DW_OP_plus_uconst 56, DW_OP_plus_uconst 28, DW_OP_deref, DW_OP_LLVM_fragment 224 160] $rsp
	#DEBUG_VALUE: argon2_verify:ctx <- [DW_OP_plus_uconst 56, DW_OP_plus_uconst 56, DW_OP_deref, DW_OP_LLVM_fragment 448 320] $rsp
	#DEBUG_VALUE: argon2_verify:encoded_len <- $r15
	.loc	4 241 23                        # crypto_pwhash/argon2/argon2.c:241:23
	movq	%r15, %rdi
	callq	malloc@PLT
.Ltmp106:
	#DEBUG_VALUE: argon2_verify:out <- $rax
	.loc	4 242 10                        # crypto_pwhash/argon2/argon2.c:242:10
	testq	%rax, %rax
	.loc	4 242 9 is_stmt 0               # crypto_pwhash/argon2/argon2.c:242:9
	je	.LBB6_4
.Ltmp107:
# %bb.6:
	#DEBUG_VALUE: argon2_verify:encoded <- $r12
	#DEBUG_VALUE: argon2_verify:pwd <- [DW_OP_plus_uconst 152] [$rsp+0]
	#DEBUG_VALUE: argon2_verify:pwdlen <- [DW_OP_plus_uconst 160] [$rsp+0]
	#DEBUG_VALUE: argon2_verify:type <- $ebp
	#DEBUG_VALUE: argon2_verify:ctx <- [DW_OP_LLVM_fragment 128 64] 0
	#DEBUG_VALUE: argon2_verify:ctx <- [DW_OP_plus_uconst 56, DW_OP_deref, DW_OP_LLVM_fragment 0 128] $rsp
	#DEBUG_VALUE: argon2_verify:ctx <- [DW_OP_LLVM_fragment 192 32] 0
	#DEBUG_VALUE: argon2_verify:ctx <- [DW_OP_LLVM_fragment 384 64] 0
	#DEBUG_VALUE: argon2_verify:ctx <- [DW_OP_plus_uconst 56, DW_OP_plus_uconst 28, DW_OP_deref, DW_OP_LLVM_fragment 224 160] $rsp
	#DEBUG_VALUE: argon2_verify:ctx <- [DW_OP_plus_uconst 56, DW_OP_plus_uconst 56, DW_OP_deref, DW_OP_LLVM_fragment 448 320] $rsp
	#DEBUG_VALUE: argon2_verify:encoded_len <- $r15
	#DEBUG_VALUE: argon2_verify:out <- $rax
	.loc	4 0 0                           # crypto_pwhash/argon2/argon2.c:0
	movq	%rax, %r15
.Ltmp108:
	leaq	56(%rsp), %rdi
	.loc	4 249 21 is_stmt 1              # crypto_pwhash/argon2/argon2.c:249:21
	movq	%r12, %rsi
	movl	%ebp, %edx
	callq	argon2_decode_string@PLT
.Ltmp109:
	#DEBUG_VALUE: argon2_verify:out <- $r15
	#DEBUG_VALUE: argon2_verify:decode_result <- $eax
	.loc	4 250 23                        # crypto_pwhash/argon2/argon2.c:250:23
	testl	%eax, %eax
	je	.LBB6_8
.Ltmp110:
# %bb.7:
	#DEBUG_VALUE: argon2_verify:encoded <- $r12
	#DEBUG_VALUE: argon2_verify:pwd <- [DW_OP_plus_uconst 152] [$rsp+0]
	#DEBUG_VALUE: argon2_verify:pwdlen <- [DW_OP_plus_uconst 160] [$rsp+0]
	#DEBUG_VALUE: argon2_verify:type <- $ebp
	#DEBUG_VALUE: argon2_verify:ctx <- [DW_OP_LLVM_fragment 128 64] 0
	#DEBUG_VALUE: argon2_verify:ctx <- [DW_OP_plus_uconst 56, DW_OP_deref, DW_OP_LLVM_fragment 0 128] $rsp
	#DEBUG_VALUE: argon2_verify:ctx <- [DW_OP_LLVM_fragment 192 32] 0
	#DEBUG_VALUE: argon2_verify:ctx <- [DW_OP_LLVM_fragment 384 64] 0
	#DEBUG_VALUE: argon2_verify:ctx <- [DW_OP_plus_uconst 56, DW_OP_plus_uconst 28, DW_OP_deref, DW_OP_LLVM_fragment 224 160] $rsp
	#DEBUG_VALUE: argon2_verify:ctx <- [DW_OP_plus_uconst 56, DW_OP_plus_uconst 56, DW_OP_deref, DW_OP_LLVM_fragment 448 320] $rsp
	#DEBUG_VALUE: argon2_verify:out <- $r15
	#DEBUG_VALUE: argon2_verify:decode_result <- $eax
	.loc	4 251 18                        # crypto_pwhash/argon2/argon2.c:251:18
	movq	120(%rsp), %rdi
	movl	%eax, %ebx
.Ltmp111:
	#DEBUG_VALUE: argon2_verify:decode_result <- $ebx
	.loc	4 251 9 is_stmt 0               # crypto_pwhash/argon2/argon2.c:251:9
	callq	free@PLT
.Ltmp112:
	.loc	4 252 18 is_stmt 1              # crypto_pwhash/argon2/argon2.c:252:18
	movq	88(%rsp), %rdi
	.loc	4 252 9 is_stmt 0               # crypto_pwhash/argon2/argon2.c:252:9
	callq	free@PLT
.Ltmp113:
	.loc	4 253 18 is_stmt 1              # crypto_pwhash/argon2/argon2.c:253:18
	movq	56(%rsp), %rdi
	.loc	4 253 9 is_stmt 0               # crypto_pwhash/argon2/argon2.c:253:9
	callq	free@PLT
.Ltmp114:
	.loc	4 254 9 is_stmt 1               # crypto_pwhash/argon2/argon2.c:254:9
	movq	%r15, %rdi
	jmp	.LBB6_11
.Ltmp115:
.LBB6_4:
	#DEBUG_VALUE: argon2_verify:encoded <- $r12
	#DEBUG_VALUE: argon2_verify:pwd <- [DW_OP_plus_uconst 152] [$rsp+0]
	#DEBUG_VALUE: argon2_verify:pwdlen <- [DW_OP_plus_uconst 160] [$rsp+0]
	#DEBUG_VALUE: argon2_verify:type <- $ebp
	#DEBUG_VALUE: argon2_verify:ctx <- [DW_OP_LLVM_fragment 128 64] 0
	#DEBUG_VALUE: argon2_verify:ctx <- [DW_OP_plus_uconst 56, DW_OP_deref, DW_OP_LLVM_fragment 0 128] $rsp
	#DEBUG_VALUE: argon2_verify:ctx <- [DW_OP_LLVM_fragment 192 32] 0
	#DEBUG_VALUE: argon2_verify:ctx <- [DW_OP_LLVM_fragment 384 64] 0
	#DEBUG_VALUE: argon2_verify:ctx <- [DW_OP_plus_uconst 56, DW_OP_plus_uconst 28, DW_OP_deref, DW_OP_LLVM_fragment 224 160] $rsp
	#DEBUG_VALUE: argon2_verify:ctx <- [DW_OP_plus_uconst 56, DW_OP_plus_uconst 56, DW_OP_deref, DW_OP_LLVM_fragment 448 320] $rsp
	#DEBUG_VALUE: argon2_verify:encoded_len <- $r15
	.loc	4 0 0 is_stmt 0                 # crypto_pwhash/argon2/argon2.c:0
	movq	%r14, %rdi
	callq	free@PLT
.Ltmp116:
	movq	%rbx, %rdi
	callq	free@PLT
.Ltmp117:
	movq	%r13, %rdi
	callq	free@PLT
.Ltmp118:
	movl	$-22, %eax
.Ltmp119:
	.loc	4 239 9 is_stmt 1               # crypto_pwhash/argon2/argon2.c:239:9
	jmp	.LBB6_12
.Ltmp120:
.LBB6_8:
	#DEBUG_VALUE: argon2_verify:encoded <- $r12
	#DEBUG_VALUE: argon2_verify:pwd <- [DW_OP_plus_uconst 152] [$rsp+0]
	#DEBUG_VALUE: argon2_verify:pwdlen <- [DW_OP_plus_uconst 160] [$rsp+0]
	#DEBUG_VALUE: argon2_verify:type <- $ebp
	#DEBUG_VALUE: argon2_verify:ctx <- [DW_OP_LLVM_fragment 128 64] 0
	#DEBUG_VALUE: argon2_verify:ctx <- [DW_OP_plus_uconst 56, DW_OP_deref, DW_OP_LLVM_fragment 0 128] $rsp
	#DEBUG_VALUE: argon2_verify:ctx <- [DW_OP_LLVM_fragment 192 32] 0
	#DEBUG_VALUE: argon2_verify:ctx <- [DW_OP_LLVM_fragment 384 64] 0
	#DEBUG_VALUE: argon2_verify:ctx <- [DW_OP_plus_uconst 56, DW_OP_plus_uconst 28, DW_OP_deref, DW_OP_LLVM_fragment 224 160] $rsp
	#DEBUG_VALUE: argon2_verify:ctx <- [DW_OP_plus_uconst 56, DW_OP_plus_uconst 56, DW_OP_deref, DW_OP_LLVM_fragment 448 320] $rsp
	#DEBUG_VALUE: argon2_verify:out <- $r15
	#DEBUG_VALUE: argon2_verify:decode_result <- $eax
	.loc	4 258 27                        # crypto_pwhash/argon2/argon2.c:258:27
	movl	132(%rsp), %edi
	.loc	4 258 39 is_stmt 0              # crypto_pwhash/argon2/argon2.c:258:39
	movl	136(%rsp), %esi
	.loc	4 258 51                        # crypto_pwhash/argon2/argon2.c:258:51
	movl	144(%rsp), %edx
	.loc	4 259 27 is_stmt 1              # crypto_pwhash/argon2/argon2.c:259:27
	movq	88(%rsp), %r9
	.loc	4 259 37 is_stmt 0              # crypto_pwhash/argon2/argon2.c:259:37
	movl	96(%rsp), %eax
.Ltmp121:
	.loc	4 259 55                        # crypto_pwhash/argon2/argon2.c:259:55
	movl	64(%rsp), %ecx
	.loc	4 258 11 is_stmt 1              # crypto_pwhash/argon2/argon2.c:258:11
	movl	%ebp, 40(%rsp)
	xorps	%xmm0, %xmm0
	movups	%xmm0, 24(%rsp)
	movq	%rcx, 16(%rsp)
	movq	%r15, 8(%rsp)
	movq	%rax, (%rsp)
	movq	152(%rsp), %rcx                 # 8-byte Reload
	movq	160(%rsp), %r8                  # 8-byte Reload
	callq	argon2_hash
.Ltmp122:
	movl	%eax, %ebx
.Ltmp123:
	#DEBUG_VALUE: argon2_verify:ret <- $ebx
	.loc	4 261 14                        # crypto_pwhash/argon2/argon2.c:261:14
	movq	120(%rsp), %rdi
	.loc	4 261 5 is_stmt 0               # crypto_pwhash/argon2/argon2.c:261:5
	callq	free@PLT
.Ltmp124:
	.loc	4 262 14 is_stmt 1              # crypto_pwhash/argon2/argon2.c:262:14
	movq	88(%rsp), %rdi
	.loc	4 262 5 is_stmt 0               # crypto_pwhash/argon2/argon2.c:262:5
	callq	free@PLT
.Ltmp125:
	.loc	4 264 13 is_stmt 1              # crypto_pwhash/argon2/argon2.c:264:13
	testl	%ebx, %ebx
	.loc	4 264 26 is_stmt 0              # crypto_pwhash/argon2/argon2.c:264:26
	jne	.LBB6_10
.Ltmp126:
# %bb.9:
	#DEBUG_VALUE: argon2_verify:encoded <- $r12
	#DEBUG_VALUE: argon2_verify:pwd <- [DW_OP_plus_uconst 152] [$rsp+0]
	#DEBUG_VALUE: argon2_verify:pwdlen <- [DW_OP_plus_uconst 160] [$rsp+0]
	#DEBUG_VALUE: argon2_verify:type <- $ebp
	#DEBUG_VALUE: argon2_verify:ctx <- [DW_OP_LLVM_fragment 128 64] 0
	#DEBUG_VALUE: argon2_verify:ctx <- [DW_OP_plus_uconst 56, DW_OP_deref, DW_OP_LLVM_fragment 0 128] $rsp
	#DEBUG_VALUE: argon2_verify:ctx <- [DW_OP_LLVM_fragment 192 32] 0
	#DEBUG_VALUE: argon2_verify:ctx <- [DW_OP_LLVM_fragment 384 64] 0
	#DEBUG_VALUE: argon2_verify:ctx <- [DW_OP_plus_uconst 56, DW_OP_plus_uconst 28, DW_OP_deref, DW_OP_LLVM_fragment 224 160] $rsp
	#DEBUG_VALUE: argon2_verify:ctx <- [DW_OP_plus_uconst 56, DW_OP_plus_uconst 56, DW_OP_deref, DW_OP_LLVM_fragment 448 320] $rsp
	#DEBUG_VALUE: argon2_verify:out <- $r15
	#DEBUG_VALUE: argon2_verify:ret <- $ebx
	.loc	4 264 52                        # crypto_pwhash/argon2/argon2.c:264:52
	movq	56(%rsp), %rsi
	.loc	4 264 61                        # crypto_pwhash/argon2/argon2.c:264:61
	movl	64(%rsp), %edx
	.loc	4 264 29                        # crypto_pwhash/argon2/argon2.c:264:29
	movq	%r15, %rdi
	callq	sodium_memcmp@PLT
.Ltmp127:
	.loc	4 264 69                        # crypto_pwhash/argon2/argon2.c:264:69
	testl	%eax, %eax
	movl	$-35, %ebx
.Ltmp128:
	.loc	4 264 26                        # crypto_pwhash/argon2/argon2.c:264:26
	cmovel	%eax, %ebx
.Ltmp129:
.LBB6_10:
	#DEBUG_VALUE: argon2_verify:encoded <- $r12
	#DEBUG_VALUE: argon2_verify:pwd <- [DW_OP_plus_uconst 152] [$rsp+0]
	#DEBUG_VALUE: argon2_verify:pwdlen <- [DW_OP_plus_uconst 160] [$rsp+0]
	#DEBUG_VALUE: argon2_verify:type <- $ebp
	#DEBUG_VALUE: argon2_verify:ctx <- [DW_OP_LLVM_fragment 128 64] 0
	#DEBUG_VALUE: argon2_verify:ctx <- [DW_OP_plus_uconst 56, DW_OP_deref, DW_OP_LLVM_fragment 0 128] $rsp
	#DEBUG_VALUE: argon2_verify:ctx <- [DW_OP_LLVM_fragment 192 32] 0
	#DEBUG_VALUE: argon2_verify:ctx <- [DW_OP_LLVM_fragment 384 64] 0
	#DEBUG_VALUE: argon2_verify:ctx <- [DW_OP_plus_uconst 56, DW_OP_plus_uconst 28, DW_OP_deref, DW_OP_LLVM_fragment 224 160] $rsp
	#DEBUG_VALUE: argon2_verify:ctx <- [DW_OP_plus_uconst 56, DW_OP_plus_uconst 56, DW_OP_deref, DW_OP_LLVM_fragment 448 320] $rsp
	#DEBUG_VALUE: argon2_verify:out <- $r15
	#DEBUG_VALUE: argon2_verify:ret <- $ebx
	.loc	4 267 5 is_stmt 1               # crypto_pwhash/argon2/argon2.c:267:5
	movq	%r15, %rdi
	callq	free@PLT
.Ltmp130:
	.loc	4 268 14                        # crypto_pwhash/argon2/argon2.c:268:14
	movq	56(%rsp), %rdi
.Ltmp131:
.LBB6_11:
	#DEBUG_VALUE: argon2_verify:encoded <- $r12
	#DEBUG_VALUE: argon2_verify:pwd <- [DW_OP_plus_uconst 152] [$rsp+0]
	#DEBUG_VALUE: argon2_verify:pwdlen <- [DW_OP_plus_uconst 160] [$rsp+0]
	#DEBUG_VALUE: argon2_verify:type <- $ebp
	#DEBUG_VALUE: argon2_verify:ctx <- [DW_OP_LLVM_fragment 128 64] 0
	#DEBUG_VALUE: argon2_verify:ctx <- [DW_OP_plus_uconst 56, DW_OP_deref, DW_OP_LLVM_fragment 0 128] $rsp
	#DEBUG_VALUE: argon2_verify:ctx <- [DW_OP_LLVM_fragment 192 32] 0
	#DEBUG_VALUE: argon2_verify:ctx <- [DW_OP_LLVM_fragment 384 64] 0
	#DEBUG_VALUE: argon2_verify:ctx <- [DW_OP_plus_uconst 56, DW_OP_plus_uconst 28, DW_OP_deref, DW_OP_LLVM_fragment 224 160] $rsp
	#DEBUG_VALUE: argon2_verify:ctx <- [DW_OP_plus_uconst 56, DW_OP_plus_uconst 56, DW_OP_deref, DW_OP_LLVM_fragment 448 320] $rsp
	#DEBUG_VALUE: argon2_verify:out <- $r15
	.loc	4 0 0 is_stmt 0                 # crypto_pwhash/argon2/argon2.c:0
	callq	free@PLT
.Ltmp132:
	movl	%ebx, %eax
.Ltmp133:
.LBB6_12:
	#DEBUG_VALUE: argon2_verify:encoded <- $r12
	#DEBUG_VALUE: argon2_verify:pwd <- [DW_OP_LLVM_entry_value 1] $rsi
	#DEBUG_VALUE: argon2_verify:pwdlen <- [DW_OP_LLVM_entry_value 1] $rdx
	#DEBUG_VALUE: argon2_verify:type <- $ebp
	#DEBUG_VALUE: argon2_verify:ctx <- [DW_OP_LLVM_fragment 128 64] 0
	#DEBUG_VALUE: argon2_verify:ctx <- [DW_OP_plus_uconst 56, DW_OP_deref, DW_OP_LLVM_fragment 0 128] $rsp
	#DEBUG_VALUE: argon2_verify:ctx <- [DW_OP_LLVM_fragment 192 32] 0
	#DEBUG_VALUE: argon2_verify:ctx <- [DW_OP_LLVM_fragment 384 64] 0
	#DEBUG_VALUE: argon2_verify:ctx <- [DW_OP_plus_uconst 56, DW_OP_plus_uconst 28, DW_OP_deref, DW_OP_LLVM_fragment 224 160] $rsp
	#DEBUG_VALUE: argon2_verify:ctx <- [DW_OP_plus_uconst 56, DW_OP_plus_uconst 56, DW_OP_deref, DW_OP_LLVM_fragment 448 320] $rsp
	.loc	4 271 1 epilogue_begin is_stmt 1 # crypto_pwhash/argon2/argon2.c:271:1
	addq	$168, %rsp
	.cfi_def_cfa_offset 56
	popq	%rbx
	.cfi_def_cfa_offset 48
	popq	%r12
.Ltmp134:
	#DEBUG_VALUE: argon2_verify:encoded <- [DW_OP_LLVM_entry_value 1] $rdi
	.cfi_def_cfa_offset 40
	popq	%r13
	.cfi_def_cfa_offset 32
	popq	%r14
	.cfi_def_cfa_offset 24
	popq	%r15
	.cfi_def_cfa_offset 16
	popq	%rbp
.Ltmp135:
	#DEBUG_VALUE: argon2_verify:type <- [DW_OP_LLVM_entry_value 1] $ecx
	.cfi_def_cfa_offset 8
	retq
.Ltmp136:
.Lfunc_end6:
	.size	argon2_verify, .Lfunc_end6-argon2_verify
	.cfi_endproc
	.file	12 "/usr/include" "string.h"
                                        # -- End function
	.hidden	argon2i_verify                  # -- Begin function argon2i_verify
	.globl	argon2i_verify
	.p2align	4
	.type	argon2i_verify,@function
argon2i_verify:                         # @argon2i_verify
.Lfunc_begin7:
	.cfi_startproc
# %bb.0:
	#DEBUG_VALUE: argon2i_verify:encoded <- $rdi
	#DEBUG_VALUE: argon2i_verify:pwd <- $rsi
	#DEBUG_VALUE: argon2i_verify:pwdlen <- $rdx
	.loc	4 276 12 prologue_end           # crypto_pwhash/argon2/argon2.c:276:12
	movl	$1, %ecx
.Ltmp137:
	jmp	argon2_verify                   # TAILCALL
.Ltmp138:
.Lfunc_end7:
	.size	argon2i_verify, .Lfunc_end7-argon2i_verify
	.cfi_endproc
                                        # -- End function
	.hidden	argon2id_verify                 # -- Begin function argon2id_verify
	.globl	argon2id_verify
	.p2align	4
	.type	argon2id_verify,@function
argon2id_verify:                        # @argon2id_verify
.Lfunc_begin8:
	.cfi_startproc
# %bb.0:
	#DEBUG_VALUE: argon2id_verify:encoded <- $rdi
	#DEBUG_VALUE: argon2id_verify:pwd <- $rsi
	#DEBUG_VALUE: argon2id_verify:pwdlen <- $rdx
	.loc	4 282 12 prologue_end           # crypto_pwhash/argon2/argon2.c:282:12
	movl	$2, %ecx
.Ltmp139:
	jmp	argon2_verify                   # TAILCALL
.Ltmp140:
.Lfunc_end8:
	.size	argon2id_verify, .Lfunc_end8-argon2id_verify
	.cfi_endproc
                                        # -- End function
	.section	".note.GNU-stack","",@progbits
	.addrsig