	.file	"argon2-fill-block-avx2.c"
	.file	0 "/home/leizhenyuu/opt/Anonymous_Repo/libsodium_o2_attr_inline/src/libsodium" "argon2-fill-block-avx2.c" md5 0x9f9d0632c39aca9a1fc71a44339ca493
	.file	1 "crypto_pwhash/argon2" "argon2.h"
	.file	2 "crypto_pwhash/argon2" "argon2-core.h"
	.file	3 "/usr/include/x86_64-linux-gnu/bits" "types.h"
	.file	4 "/usr/include/x86_64-linux-gnu/bits" "stdint-uintn.h"
	.file	5 "/home/leizhenyuu/opt/Anonymous_Repo" "llvm-project/build/lib/clang/21/include/avxintrin.h"
	.section	.rodata.cst32,"aM",@progbits,32
	.p2align	5, 0x0                          # -- Begin function argon2_fill_segment_avx2
.LCPI0_0:
	.byte	3                               # 0x3
	.byte	4                               # 0x4
	.byte	5                               # 0x5
	.byte	6                               # 0x6
	.byte	7                               # 0x7
	.byte	0                               # 0x0
	.byte	1                               # 0x1
	.byte	2                               # 0x2
	.byte	11                              # 0xb
	.byte	12                              # 0xc
	.byte	13                              # 0xd
	.byte	14                              # 0xe
	.byte	15                              # 0xf
	.byte	8                               # 0x8
	.byte	9                               # 0x9
	.byte	10                              # 0xa
	.byte	3                               # 0x3
	.byte	4                               # 0x4
	.byte	5                               # 0x5
	.byte	6                               # 0x6
	.byte	7                               # 0x7
	.byte	0                               # 0x0
	.byte	1                               # 0x1
	.byte	2                               # 0x2
	.byte	11                              # 0xb
	.byte	12                              # 0xc
	.byte	13                              # 0xd
	.byte	14                              # 0xe
	.byte	15                              # 0xf
	.byte	8                               # 0x8
	.byte	9                               # 0x9
	.byte	10                              # 0xa
	.text
	.hidden	argon2_fill_segment_avx2
	.globl	argon2_fill_segment_avx2
	.p2align	4
	.type	argon2_fill_segment_avx2,@function
argon2_fill_segment_avx2:               # @argon2_fill_segment_avx2
.Lfunc_begin0:
	.file	6 "crypto_pwhash/argon2" "argon2-fill-block-avx2.c"
	.loc	6 145 0                         # crypto_pwhash/argon2/argon2-fill-block-avx2.c:145:0
	.cfi_startproc
# %bb.0:
	#DEBUG_VALUE: argon2_fill_segment_avx2:position <- [DW_OP_constu 8, DW_OP_shr, DW_OP_LLVM_convert 64 7, DW_OP_LLVM_convert 24 7, DW_OP_stack_value, DW_OP_LLVM_fragment 72 24] $rdx
	#DEBUG_VALUE: argon2_fill_segment_avx2:instance <- $rdi
	pushq	%rbp
	.cfi_def_cfa_offset 16
	.cfi_offset %rbp, -16
	movq	%rsp, %rbp
	.cfi_def_cfa_register %rbp
	pushq	%r15
	pushq	%r14
	pushq	%r13
	pushq	%r12
	pushq	%rbx
	andq	$-32, %rsp
	subq	$5248, %rsp                     # imm = 0x1480
	.cfi_offset %rbx, -56
	.cfi_offset %r12, -48
	.cfi_offset %r13, -40
	.cfi_offset %r14, -32
	.cfi_offset %r15, -24
	movq	%rdx, 32(%rsp)                  # 8-byte Spill
.Ltmp0:
	#DEBUG_VALUE: argon2_fill_segment_avx2:position <- [DW_OP_plus_uconst 32, DW_OP_deref_size 8, DW_OP_constu 8, DW_OP_shr, DW_OP_LLVM_convert 64 7, DW_OP_LLVM_convert 24 7, DW_OP_stack_value, DW_OP_LLVM_fragment 72 24] $rsp
	#DEBUG_VALUE: argon2_fill_segment_avx2:position <- [DW_OP_LLVM_fragment 32 32] undef
	#DEBUG_VALUE: argon2_fill_segment_avx2:position <- [DW_OP_LLVM_fragment 0 32] $esi
	#DEBUG_VALUE: argon2_fill_segment_avx2:position <- [DW_OP_plus_uconst 32, DW_OP_deref, DW_OP_LLVM_fragment 64 8] $rsp
	#DEBUG_VALUE: argon2_fill_segment_avx2:position <- [DW_OP_plus_uconst 32, DW_OP_deref_size 8, DW_OP_constu 32, DW_OP_shr, DW_OP_LLVM_convert 64 7, DW_OP_LLVM_convert 32 7, DW_OP_stack_value, DW_OP_LLVM_fragment 96 32] $rsp
	#DEBUG_VALUE: argon2_fill_segment_avx2:ref_block <- 0
	#DEBUG_VALUE: argon2_fill_segment_avx2:curr_block <- 0
	#DEBUG_VALUE: argon2_fill_segment_avx2:data_independent_addressing <- 1
	#DEBUG_VALUE: argon2_fill_segment_avx2:pseudo_rands <- 0
	.loc	6 156 18 prologue_end           # crypto_pwhash/argon2/argon2-fill-block-avx2.c:156:18
	testq	%rdi, %rdi
	je	.LBB0_43
.Ltmp1:
# %bb.1:
	#DEBUG_VALUE: argon2_fill_segment_avx2:position <- [DW_OP_plus_uconst 32, DW_OP_deref_size 8, DW_OP_constu 8, DW_OP_shr, DW_OP_LLVM_convert 64 7, DW_OP_LLVM_convert 24 7, DW_OP_stack_value, DW_OP_LLVM_fragment 72 24] $rsp
	#DEBUG_VALUE: argon2_fill_segment_avx2:instance <- $rdi
	#DEBUG_VALUE: argon2_fill_segment_avx2:position <- [DW_OP_LLVM_fragment 0 32] $esi
	#DEBUG_VALUE: argon2_fill_segment_avx2:position <- [DW_OP_plus_uconst 32, DW_OP_deref, DW_OP_LLVM_fragment 64 8] $rsp
	#DEBUG_VALUE: argon2_fill_segment_avx2:position <- [DW_OP_plus_uconst 32, DW_OP_deref_size 8, DW_OP_constu 32, DW_OP_shr, DW_OP_LLVM_convert 64 7, DW_OP_LLVM_convert 32 7, DW_OP_stack_value, DW_OP_LLVM_fragment 96 32] $rsp
	#DEBUG_VALUE: argon2_fill_segment_avx2:ref_block <- 0
	#DEBUG_VALUE: argon2_fill_segment_avx2:curr_block <- 0
	#DEBUG_VALUE: argon2_fill_segment_avx2:data_independent_addressing <- 1
	#DEBUG_VALUE: argon2_fill_segment_avx2:pseudo_rands <- 0
	.loc	6 0 18 is_stmt 0                # crypto_pwhash/argon2/argon2-fill-block-avx2.c:0:18
	movq	%rsi, %r8
	shrq	$32, %r8
.Ltmp2:
	#DEBUG_VALUE: argon2_fill_segment_avx2:position <- [DW_OP_LLVM_fragment 32 32] $r8d
	.loc	6 160 19 is_stmt 1              # crypto_pwhash/argon2/argon2-fill-block-avx2.c:160:19
	movl	44(%rdi), %ebx
	cmpq	$2, %rbx
	movq	%rsi, 48(%rsp)                  # 8-byte Spill
.Ltmp3:
	#DEBUG_VALUE: argon2_fill_segment_avx2:position <- [DW_OP_plus_uconst 48, DW_OP_deref, DW_OP_LLVM_fragment 0 32] $rsp
	.loc	6 0 19 is_stmt 0                # crypto_pwhash/argon2/argon2-fill-block-avx2.c:0:19
	movq	%rdi, 64(%rsp)                  # 8-byte Spill
.Ltmp4:
	#DEBUG_VALUE: argon2_fill_segment_avx2:instance <- [DW_OP_plus_uconst 64] [$rsp+0]
	movq	%r8, 56(%rsp)                   # 8-byte Spill
	.loc	6 160 37                        # crypto_pwhash/argon2/argon2-fill-block-avx2.c:160:37
	jne	.LBB0_4
.Ltmp5:
# %bb.2:
	#DEBUG_VALUE: argon2_fill_segment_avx2:position <- [DW_OP_plus_uconst 32, DW_OP_deref_size 8, DW_OP_constu 8, DW_OP_shr, DW_OP_LLVM_convert 64 7, DW_OP_LLVM_convert 24 7, DW_OP_stack_value, DW_OP_LLVM_fragment 72 24] $rsp
	#DEBUG_VALUE: argon2_fill_segment_avx2:instance <- [DW_OP_plus_uconst 64] [$rsp+0]
	#DEBUG_VALUE: argon2_fill_segment_avx2:position <- [DW_OP_plus_uconst 56, DW_OP_deref, DW_OP_LLVM_fragment 32 32] $rsp
	#DEBUG_VALUE: argon2_fill_segment_avx2:position <- [DW_OP_plus_uconst 48, DW_OP_deref, DW_OP_LLVM_fragment 0 32] $rsp
	#DEBUG_VALUE: argon2_fill_segment_avx2:position <- [DW_OP_plus_uconst 32, DW_OP_deref, DW_OP_LLVM_fragment 64 8] $rsp
	#DEBUG_VALUE: argon2_fill_segment_avx2:position <- [DW_OP_plus_uconst 32, DW_OP_deref_size 8, DW_OP_constu 32, DW_OP_shr, DW_OP_LLVM_convert 64 7, DW_OP_LLVM_convert 32 7, DW_OP_stack_value, DW_OP_LLVM_fragment 96 32] $rsp
	#DEBUG_VALUE: argon2_fill_segment_avx2:ref_block <- 0
	#DEBUG_VALUE: argon2_fill_segment_avx2:curr_block <- 0
	#DEBUG_VALUE: argon2_fill_segment_avx2:data_independent_addressing <- 1
	#DEBUG_VALUE: argon2_fill_segment_avx2:pseudo_rands <- 0
	.loc	6 161 24 is_stmt 1              # crypto_pwhash/argon2/argon2-fill-block-avx2.c:161:24
	testl	%esi, %esi
	setne	%al
	cmpb	$2, 32(%rsp)                    # 1-byte Folded Reload
	setae	%cl
	.loc	6 161 29 is_stmt 0              # crypto_pwhash/argon2/argon2-fill-block-avx2.c:161:29
	orb	%al, %cl
.Ltmp6:
	#DEBUG_VALUE: argon2_fill_segment_avx2:data_independent_addressing <- undef
	.loc	6 165 30 is_stmt 1              # crypto_pwhash/argon2/argon2-fill-block-avx2.c:165:30
	movq	8(%rdi), %rax
.Ltmp7:
	#DEBUG_VALUE: argon2_fill_segment_avx2:pseudo_rands <- $rax
	.loc	6 0 30 is_stmt 0                # crypto_pwhash/argon2/argon2-fill-block-avx2.c:0:30
	movq	%rax, 72(%rsp)                  # 8-byte Spill
.Ltmp8:
	#DEBUG_VALUE: argon2_fill_segment_avx2:pseudo_rands <- [DW_OP_plus_uconst 72, DW_OP_deref] $rsp
	.loc	6 167 9 is_stmt 1               # crypto_pwhash/argon2/argon2-fill-block-avx2.c:167:9
	cmpb	$1, %cl
	jne	.LBB0_5
.Ltmp9:
# %bb.3:                                # %._crit_edge
	#DEBUG_VALUE: argon2_fill_segment_avx2:position <- [DW_OP_plus_uconst 32, DW_OP_deref_size 8, DW_OP_constu 8, DW_OP_shr, DW_OP_LLVM_convert 64 7, DW_OP_LLVM_convert 24 7, DW_OP_stack_value, DW_OP_LLVM_fragment 72 24] $rsp
	#DEBUG_VALUE: argon2_fill_segment_avx2:instance <- [DW_OP_plus_uconst 64] [$rsp+0]
	#DEBUG_VALUE: argon2_fill_segment_avx2:position <- [DW_OP_plus_uconst 56, DW_OP_deref, DW_OP_LLVM_fragment 32 32] $rsp
	#DEBUG_VALUE: argon2_fill_segment_avx2:position <- [DW_OP_plus_uconst 48, DW_OP_deref, DW_OP_LLVM_fragment 0 32] $rsp
	#DEBUG_VALUE: argon2_fill_segment_avx2:position <- [DW_OP_plus_uconst 32, DW_OP_deref, DW_OP_LLVM_fragment 64 8] $rsp
	#DEBUG_VALUE: argon2_fill_segment_avx2:position <- [DW_OP_plus_uconst 32, DW_OP_deref_size 8, DW_OP_constu 32, DW_OP_shr, DW_OP_LLVM_convert 64 7, DW_OP_LLVM_convert 32 7, DW_OP_stack_value, DW_OP_LLVM_fragment 96 32] $rsp
	#DEBUG_VALUE: argon2_fill_segment_avx2:ref_block <- 0
	#DEBUG_VALUE: argon2_fill_segment_avx2:curr_block <- 0
	#DEBUG_VALUE: argon2_fill_segment_avx2:pseudo_rands <- [DW_OP_plus_uconst 72, DW_OP_deref] $rsp
	.loc	6 179 46                        # crypto_pwhash/argon2/argon2-fill-block-avx2.c:179:46
	movl	28(%rdi), %r14d
	movb	$1, %al
	movl	%eax, 44(%rsp)                  # 4-byte Spill
.Ltmp10:
	.loc	6 167 9                         # crypto_pwhash/argon2/argon2-fill-block-avx2.c:167:9
	jmp	.LBB0_11
.Ltmp11:
.LBB0_4:                                # %.thread
	#DEBUG_VALUE: argon2_fill_segment_avx2:position <- [DW_OP_plus_uconst 32, DW_OP_deref_size 8, DW_OP_constu 8, DW_OP_shr, DW_OP_LLVM_convert 64 7, DW_OP_LLVM_convert 24 7, DW_OP_stack_value, DW_OP_LLVM_fragment 72 24] $rsp
	#DEBUG_VALUE: argon2_fill_segment_avx2:instance <- [DW_OP_plus_uconst 64] [$rsp+0]
	#DEBUG_VALUE: argon2_fill_segment_avx2:position <- [DW_OP_plus_uconst 56, DW_OP_deref, DW_OP_LLVM_fragment 32 32] $rsp
	#DEBUG_VALUE: argon2_fill_segment_avx2:position <- [DW_OP_plus_uconst 48, DW_OP_deref, DW_OP_LLVM_fragment 0 32] $rsp
	#DEBUG_VALUE: argon2_fill_segment_avx2:position <- [DW_OP_plus_uconst 32, DW_OP_deref, DW_OP_LLVM_fragment 64 8] $rsp
	#DEBUG_VALUE: argon2_fill_segment_avx2:position <- [DW_OP_plus_uconst 32, DW_OP_deref_size 8, DW_OP_constu 32, DW_OP_shr, DW_OP_LLVM_convert 64 7, DW_OP_LLVM_convert 32 7, DW_OP_stack_value, DW_OP_LLVM_fragment 96 32] $rsp
	#DEBUG_VALUE: argon2_fill_segment_avx2:ref_block <- 0
	#DEBUG_VALUE: argon2_fill_segment_avx2:curr_block <- 0
	#DEBUG_VALUE: argon2_fill_segment_avx2:data_independent_addressing <- 1
	#DEBUG_VALUE: argon2_fill_segment_avx2:pseudo_rands <- 0
	#DEBUG_VALUE: argon2_fill_segment_avx2:data_independent_addressing <- undef
	.loc	6 165 30                        # crypto_pwhash/argon2/argon2-fill-block-avx2.c:165:30
	movq	8(%rdi), %rax
.Ltmp12:
	#DEBUG_VALUE: argon2_fill_segment_avx2:pseudo_rands <- $rax
	.loc	6 0 30 is_stmt 0                # crypto_pwhash/argon2/argon2-fill-block-avx2.c:0:30
	movq	%rax, 72(%rsp)                  # 8-byte Spill
.Ltmp13:
	#DEBUG_VALUE: argon2_fill_segment_avx2:pseudo_rands <- [DW_OP_plus_uconst 72, DW_OP_deref] $rsp
.LBB0_5:
	#DEBUG_VALUE: argon2_fill_segment_avx2:position <- [DW_OP_plus_uconst 32, DW_OP_deref_size 8, DW_OP_constu 8, DW_OP_shr, DW_OP_LLVM_convert 64 7, DW_OP_LLVM_convert 24 7, DW_OP_stack_value, DW_OP_LLVM_fragment 72 24] $rsp
	#DEBUG_VALUE: argon2_fill_segment_avx2:instance <- [DW_OP_plus_uconst 64] [$rsp+0]
	#DEBUG_VALUE: argon2_fill_segment_avx2:position <- [DW_OP_plus_uconst 56, DW_OP_deref, DW_OP_LLVM_fragment 32 32] $rsp
	#DEBUG_VALUE: argon2_fill_segment_avx2:position <- [DW_OP_plus_uconst 48, DW_OP_deref, DW_OP_LLVM_fragment 0 32] $rsp
	#DEBUG_VALUE: argon2_fill_segment_avx2:position <- [DW_OP_plus_uconst 32, DW_OP_deref, DW_OP_LLVM_fragment 64 8] $rsp
	#DEBUG_VALUE: argon2_fill_segment_avx2:position <- [DW_OP_plus_uconst 32, DW_OP_deref_size 8, DW_OP_constu 32, DW_OP_shr, DW_OP_LLVM_convert 64 7, DW_OP_LLVM_convert 32 7, DW_OP_stack_value, DW_OP_LLVM_fragment 96 32] $rsp
	#DEBUG_VALUE: argon2_fill_segment_avx2:ref_block <- 0
	#DEBUG_VALUE: argon2_fill_segment_avx2:curr_block <- 0
	#DEBUG_VALUE: argon2_fill_segment_avx2:pseudo_rands <- $rax
	movq	%rdi, %r15
	#DEBUG_VALUE: zero2_block <- [DW_OP_plus_uconst 2144, DW_OP_deref] $rsp
.Ltmp14:
	#DEBUG_VALUE: generate_addresses:instance <- [DW_OP_plus_uconst 64, DW_OP_deref] $rsp
	#DEBUG_VALUE: generate_addresses:position <- undef
	#DEBUG_VALUE: generate_addresses:pseudo_rands <- [DW_OP_plus_uconst 72, DW_OP_deref] $rsp
	#DEBUG_VALUE: init_block_value:b <- [DW_OP_plus_uconst 1120, DW_OP_stack_value] $rsp
	#DEBUG_VALUE: init_block_value:in <- 0
	#DEBUG_VALUE: memset:__dest <- [DW_OP_plus_uconst 1120, DW_OP_stack_value] $rsp
	#DEBUG_VALUE: memset:__ch <- 0
	#DEBUG_VALUE: memset:__len <- 1024
	leaq	1120(%rsp), %rdi
	xorl	%r14d, %r14d
.Ltmp15:
	.file	7 "/usr/include/x86_64-linux-gnu/bits" "string_fortified.h"
	.loc	7 59 10 is_stmt 1               # /usr/include/x86_64-linux-gnu/bits/string_fortified.h:59:10 @[ crypto_pwhash/argon2/argon2-core.h:69:5 @[ crypto_pwhash/argon2/argon2-fill-block-avx2.c:106:5 @[ crypto_pwhash/argon2/argon2-fill-block-avx2.c:168:9 ] ] ]
	movl	$1024, %edx                     # imm = 0x400
	xorl	%esi, %esi
	callq	memset@PLT
.Ltmp16:
	#DEBUG_VALUE: init_block_value:b <- [DW_OP_plus_uconst 96, DW_OP_stack_value] $rsp
	#DEBUG_VALUE: init_block_value:in <- 0
	#DEBUG_VALUE: memset:__dest <- [DW_OP_plus_uconst 96, DW_OP_stack_value] $rsp
	#DEBUG_VALUE: memset:__ch <- 0
	#DEBUG_VALUE: memset:__len <- 1024
	.loc	7 59 10 is_stmt 0               # /usr/include/x86_64-linux-gnu/bits/string_fortified.h:59:10 @[ crypto_pwhash/argon2/argon2-core.h:69:5 @[ crypto_pwhash/argon2/argon2-fill-block-avx2.c:107:5 @[ crypto_pwhash/argon2/argon2-fill-block-avx2.c:168:9 ] ] ]
	leaq	152(%rsp), %rdi
	movl	$968, %edx                      # imm = 0x3C8
	xorl	%esi, %esi
	callq	memset@PLT
.Ltmp17:
	.loc	7 0 10                          # /usr/include/x86_64-linux-gnu/bits/string_fortified.h:0:10
	movq	48(%rsp), %rsi                  # 8-byte Reload
.Ltmp18:
	.loc	6 110 28 is_stmt 1              # crypto_pwhash/argon2/argon2-fill-block-avx2.c:110:28 @[ crypto_pwhash/argon2/argon2-fill-block-avx2.c:168:9 ]
	movl	%esi, %eax
	.loc	6 110 26 is_stmt 0              # crypto_pwhash/argon2/argon2-fill-block-avx2.c:110:26 @[ crypto_pwhash/argon2/argon2-fill-block-avx2.c:168:9 ]
	movq	%rax, 96(%rsp)
	movq	56(%rsp), %rax                  # 8-byte Reload
	.loc	6 111 26 is_stmt 1              # crypto_pwhash/argon2/argon2-fill-block-avx2.c:111:26 @[ crypto_pwhash/argon2/argon2-fill-block-avx2.c:168:9 ]
	movq	%rax, 104(%rsp)
	.loc	6 112 28                        # crypto_pwhash/argon2/argon2-fill-block-avx2.c:112:28 @[ crypto_pwhash/argon2/argon2-fill-block-avx2.c:168:9 ]
	movzbl	32(%rsp), %eax                  # 1-byte Folded Reload
	.loc	6 112 26 is_stmt 0              # crypto_pwhash/argon2/argon2-fill-block-avx2.c:112:26 @[ crypto_pwhash/argon2/argon2-fill-block-avx2.c:168:9 ]
	movq	%rax, 112(%rsp)
	.loc	6 113 38 is_stmt 1              # crypto_pwhash/argon2/argon2-fill-block-avx2.c:113:38 @[ crypto_pwhash/argon2/argon2-fill-block-avx2.c:168:9 ]
	movl	24(%r15), %eax
	.loc	6 113 26 is_stmt 0              # crypto_pwhash/argon2/argon2-fill-block-avx2.c:113:26 @[ crypto_pwhash/argon2/argon2-fill-block-avx2.c:168:9 ]
	movq	%rax, 120(%rsp)
	.loc	6 114 38 is_stmt 1              # crypto_pwhash/argon2/argon2-fill-block-avx2.c:114:38 @[ crypto_pwhash/argon2/argon2-fill-block-avx2.c:168:9 ]
	movl	16(%r15), %eax
	.loc	6 114 26 is_stmt 0              # crypto_pwhash/argon2/argon2-fill-block-avx2.c:114:26 @[ crypto_pwhash/argon2/argon2-fill-block-avx2.c:168:9 ]
	movq	%rax, 128(%rsp)
	.loc	6 115 26 is_stmt 1              # crypto_pwhash/argon2/argon2-fill-block-avx2.c:115:26 @[ crypto_pwhash/argon2/argon2-fill-block-avx2.c:168:9 ]
	movq	%rbx, 136(%rsp)
.Ltmp19:
	#DEBUG_VALUE: generate_addresses:i <- 0
	.loc	6 117 23                        # crypto_pwhash/argon2/argon2-fill-block-avx2.c:117:23 @[ crypto_pwhash/argon2/argon2-fill-block-avx2.c:168:9 ]
	cmpl	$0, 28(%r15)
	movq	%r15, %rdi
.Ltmp20:
	.loc	6 117 9 is_stmt 0               # crypto_pwhash/argon2/argon2-fill-block-avx2.c:117:9 @[ crypto_pwhash/argon2/argon2-fill-block-avx2.c:168:9 ]
	je	.LBB0_10
.Ltmp21:
# %bb.6:                                # %.lr.ph.i
	#DEBUG_VALUE: argon2_fill_segment_avx2:position <- [DW_OP_plus_uconst 32, DW_OP_deref_size 8, DW_OP_constu 8, DW_OP_shr, DW_OP_LLVM_convert 64 7, DW_OP_LLVM_convert 24 7, DW_OP_stack_value, DW_OP_LLVM_fragment 72 24] $rsp
	#DEBUG_VALUE: argon2_fill_segment_avx2:instance <- [DW_OP_plus_uconst 64] [$rsp+0]
	#DEBUG_VALUE: argon2_fill_segment_avx2:position <- [DW_OP_plus_uconst 56, DW_OP_deref, DW_OP_LLVM_fragment 32 32] $rsp
	#DEBUG_VALUE: argon2_fill_segment_avx2:position <- [DW_OP_plus_uconst 48, DW_OP_deref, DW_OP_LLVM_fragment 0 32] $rsp
	#DEBUG_VALUE: argon2_fill_segment_avx2:position <- [DW_OP_plus_uconst 32, DW_OP_deref, DW_OP_LLVM_fragment 64 8] $rsp
	#DEBUG_VALUE: argon2_fill_segment_avx2:position <- [DW_OP_plus_uconst 32, DW_OP_deref_size 8, DW_OP_constu 32, DW_OP_shr, DW_OP_LLVM_convert 64 7, DW_OP_LLVM_convert 32 7, DW_OP_stack_value, DW_OP_LLVM_fragment 96 32] $rsp
	#DEBUG_VALUE: argon2_fill_segment_avx2:ref_block <- 0
	#DEBUG_VALUE: argon2_fill_segment_avx2:curr_block <- 0
	#DEBUG_VALUE: zero2_block <- [DW_OP_plus_uconst 2144, DW_OP_deref] $rsp
	#DEBUG_VALUE: generate_addresses:instance <- [DW_OP_plus_uconst 64, DW_OP_deref] $rsp
	#DEBUG_VALUE: generate_addresses:pseudo_rands <- [DW_OP_plus_uconst 72, DW_OP_deref] $rsp
	#DEBUG_VALUE: init_block_value:b <- [DW_OP_plus_uconst 1120, DW_OP_stack_value] $rsp
	#DEBUG_VALUE: init_block_value:in <- 0
	#DEBUG_VALUE: memset:__dest <- [DW_OP_plus_uconst 1120, DW_OP_stack_value] $rsp
	#DEBUG_VALUE: memset:__ch <- 0
	#DEBUG_VALUE: memset:__len <- 1024
	#DEBUG_VALUE: init_block_value:b <- [DW_OP_plus_uconst 96, DW_OP_stack_value] $rsp
	#DEBUG_VALUE: init_block_value:in <- 0
	#DEBUG_VALUE: memset:__dest <- [DW_OP_plus_uconst 96, DW_OP_stack_value] $rsp
	#DEBUG_VALUE: memset:__ch <- 0
	#DEBUG_VALUE: memset:__len <- 1024
	#DEBUG_VALUE: generate_addresses:i <- 0
	.loc	6 0 9                           # crypto_pwhash/argon2/argon2-fill-block-avx2.c:0:9
	xorl	%r13d, %r13d
	xorl	%ebx, %ebx
	jmp	.LBB0_8
.Ltmp22:
	.p2align	4
.LBB0_7:                                #   in Loop: Header=BB0_8 Depth=1
	#DEBUG_VALUE: argon2_fill_segment_avx2:position <- [DW_OP_plus_uconst 32, DW_OP_deref_size 8, DW_OP_constu 8, DW_OP_shr, DW_OP_LLVM_convert 64 7, DW_OP_LLVM_convert 24 7, DW_OP_stack_value, DW_OP_LLVM_fragment 72 24] $rsp
	#DEBUG_VALUE: argon2_fill_segment_avx2:instance <- [DW_OP_plus_uconst 64] [$rsp+0]
	#DEBUG_VALUE: argon2_fill_segment_avx2:position <- [DW_OP_plus_uconst 56, DW_OP_deref, DW_OP_LLVM_fragment 32 32] $rsp
	#DEBUG_VALUE: argon2_fill_segment_avx2:position <- [DW_OP_plus_uconst 48, DW_OP_deref, DW_OP_LLVM_fragment 0 32] $rsp
	#DEBUG_VALUE: argon2_fill_segment_avx2:position <- [DW_OP_plus_uconst 32, DW_OP_deref, DW_OP_LLVM_fragment 64 8] $rsp
	#DEBUG_VALUE: argon2_fill_segment_avx2:position <- [DW_OP_plus_uconst 32, DW_OP_deref_size 8, DW_OP_constu 32, DW_OP_shr, DW_OP_LLVM_convert 64 7, DW_OP_LLVM_convert 32 7, DW_OP_stack_value, DW_OP_LLVM_fragment 96 32] $rsp
	#DEBUG_VALUE: argon2_fill_segment_avx2:ref_block <- 0
	#DEBUG_VALUE: argon2_fill_segment_avx2:curr_block <- 0
	#DEBUG_VALUE: generate_addresses:instance <- [DW_OP_plus_uconst 64, DW_OP_deref] $rsp
	#DEBUG_VALUE: generate_addresses:pseudo_rands <- [DW_OP_plus_uconst 72, DW_OP_deref] $rsp
	#DEBUG_VALUE: generate_addresses:i <- $r13
	.loc	6 137 31 is_stmt 1              # crypto_pwhash/argon2/argon2-fill-block-avx2.c:137:31 @[ crypto_pwhash/argon2/argon2-fill-block-avx2.c:168:9 ]
	movq	1120(%rsp,%r14,8), %rax
	movq	72(%rsp), %rcx                  # 8-byte Reload
	.loc	6 137 29 is_stmt 0              # crypto_pwhash/argon2/argon2-fill-block-avx2.c:137:29 @[ crypto_pwhash/argon2/argon2-fill-block-avx2.c:168:9 ]
	movq	%rax, (%rcx,%r13,8)
.Ltmp23:
	.loc	6 117 51 is_stmt 1              # crypto_pwhash/argon2/argon2-fill-block-avx2.c:117:51 @[ crypto_pwhash/argon2/argon2-fill-block-avx2.c:168:9 ]
	incq	%r13
.Ltmp24:
	#DEBUG_VALUE: generate_addresses:i <- $r13
	.loc	6 117 35 is_stmt 0              # crypto_pwhash/argon2/argon2-fill-block-avx2.c:117:35 @[ crypto_pwhash/argon2/argon2-fill-block-avx2.c:168:9 ]
	movl	28(%rdi), %r14d
	.loc	6 117 23                        # crypto_pwhash/argon2/argon2-fill-block-avx2.c:117:23 @[ crypto_pwhash/argon2/argon2-fill-block-avx2.c:168:9 ]
	cmpq	%r14, %r13
.Ltmp25:
	.loc	6 117 9                         # crypto_pwhash/argon2/argon2-fill-block-avx2.c:117:9 @[ crypto_pwhash/argon2/argon2-fill-block-avx2.c:168:9 ]
	jae	.LBB0_10
.Ltmp26:
.LBB0_8:                                # =>This Inner Loop Header: Depth=1
	#DEBUG_VALUE: argon2_fill_segment_avx2:position <- [DW_OP_plus_uconst 32, DW_OP_deref_size 8, DW_OP_constu 8, DW_OP_shr, DW_OP_LLVM_convert 64 7, DW_OP_LLVM_convert 24 7, DW_OP_stack_value, DW_OP_LLVM_fragment 72 24] $rsp
	#DEBUG_VALUE: argon2_fill_segment_avx2:instance <- [DW_OP_plus_uconst 64] [$rsp+0]
	#DEBUG_VALUE: argon2_fill_segment_avx2:position <- [DW_OP_plus_uconst 56, DW_OP_deref, DW_OP_LLVM_fragment 32 32] $rsp
	#DEBUG_VALUE: argon2_fill_segment_avx2:position <- [DW_OP_plus_uconst 48, DW_OP_deref, DW_OP_LLVM_fragment 0 32] $rsp
	#DEBUG_VALUE: argon2_fill_segment_avx2:position <- [DW_OP_plus_uconst 32, DW_OP_deref, DW_OP_LLVM_fragment 64 8] $rsp
	#DEBUG_VALUE: argon2_fill_segment_avx2:position <- [DW_OP_plus_uconst 32, DW_OP_deref_size 8, DW_OP_constu 32, DW_OP_shr, DW_OP_LLVM_convert 64 7, DW_OP_LLVM_convert 32 7, DW_OP_stack_value, DW_OP_LLVM_fragment 96 32] $rsp
	#DEBUG_VALUE: argon2_fill_segment_avx2:ref_block <- 0
	#DEBUG_VALUE: argon2_fill_segment_avx2:curr_block <- 0
	#DEBUG_VALUE: generate_addresses:instance <- [DW_OP_plus_uconst 64, DW_OP_deref] $rsp
	#DEBUG_VALUE: generate_addresses:pseudo_rands <- [DW_OP_plus_uconst 72, DW_OP_deref] $rsp
	#DEBUG_VALUE: generate_addresses:i <- $r13
	.loc	6 118 47 is_stmt 1              # crypto_pwhash/argon2/argon2-fill-block-avx2.c:118:47 @[ crypto_pwhash/argon2/argon2-fill-block-avx2.c:168:9 ]
	movq	%r13, %r14
	andq	$127, %r14
	jne	.LBB0_7
.Ltmp27:
# %bb.9:                                #   in Loop: Header=BB0_8 Depth=1
	#DEBUG_VALUE: argon2_fill_segment_avx2:position <- [DW_OP_plus_uconst 32, DW_OP_deref_size 8, DW_OP_constu 8, DW_OP_shr, DW_OP_LLVM_convert 64 7, DW_OP_LLVM_convert 24 7, DW_OP_stack_value, DW_OP_LLVM_fragment 72 24] $rsp
	#DEBUG_VALUE: argon2_fill_segment_avx2:instance <- [DW_OP_plus_uconst 64] [$rsp+0]
	#DEBUG_VALUE: argon2_fill_segment_avx2:position <- [DW_OP_plus_uconst 56, DW_OP_deref, DW_OP_LLVM_fragment 32 32] $rsp
	#DEBUG_VALUE: argon2_fill_segment_avx2:position <- [DW_OP_plus_uconst 48, DW_OP_deref, DW_OP_LLVM_fragment 0 32] $rsp
	#DEBUG_VALUE: argon2_fill_segment_avx2:position <- [DW_OP_plus_uconst 32, DW_OP_deref, DW_OP_LLVM_fragment 64 8] $rsp
	#DEBUG_VALUE: argon2_fill_segment_avx2:position <- [DW_OP_plus_uconst 32, DW_OP_deref_size 8, DW_OP_constu 32, DW_OP_shr, DW_OP_LLVM_convert 64 7, DW_OP_LLVM_convert 32 7, DW_OP_stack_value, DW_OP_LLVM_fragment 96 32] $rsp
	#DEBUG_VALUE: argon2_fill_segment_avx2:ref_block <- 0
	#DEBUG_VALUE: argon2_fill_segment_avx2:curr_block <- 0
	#DEBUG_VALUE: generate_addresses:instance <- [DW_OP_plus_uconst 64, DW_OP_deref] $rsp
	#DEBUG_VALUE: generate_addresses:pseudo_rands <- [DW_OP_plus_uconst 72, DW_OP_deref] $rsp
	#DEBUG_VALUE: generate_addresses:i <- $r13
	#DEBUG_VALUE: memset:__dest <- [DW_OP_plus_uconst 3168, DW_OP_stack_value] $rsp
	#DEBUG_VALUE: memset:__ch <- 0
	#DEBUG_VALUE: memset:__len <- 1024
	.loc	7 59 10                         # /usr/include/x86_64-linux-gnu/bits/string_fortified.h:59:10 @[ crypto_pwhash/argon2/argon2-fill-block-avx2.c:123:17 @[ crypto_pwhash/argon2/argon2-fill-block-avx2.c:168:9 ] ]
	movl	$1024, %edx                     # imm = 0x400
	leaq	3168(%rsp), %rdi
	xorl	%esi, %esi
	callq	memset@PLT
.Ltmp28:
	#DEBUG_VALUE: memset:__dest <- [DW_OP_plus_uconst 2144, DW_OP_stack_value] $rsp
	#DEBUG_VALUE: memset:__ch <- 0
	#DEBUG_VALUE: memset:__len <- 1024
	.loc	7 59 10 is_stmt 0               # /usr/include/x86_64-linux-gnu/bits/string_fortified.h:59:10 @[ crypto_pwhash/argon2/argon2-fill-block-avx2.c:124:17 @[ crypto_pwhash/argon2/argon2-fill-block-avx2.c:168:9 ] ]
	movl	$1024, %edx                     # imm = 0x400
	leaq	2144(%rsp), %rdi
	xorl	%esi, %esi
	callq	memset@PLT
.Ltmp29:
	#DEBUG_VALUE: zero2_block <- [DW_OP_plus_uconst 2144, DW_OP_deref] $rsp
	#DEBUG_VALUE: init_block_value:b <- [DW_OP_plus_uconst 1120, DW_OP_stack_value] $rsp
	#DEBUG_VALUE: init_block_value:in <- 0
	#DEBUG_VALUE: memset:__dest <- [DW_OP_plus_uconst 1120, DW_OP_stack_value] $rsp
	#DEBUG_VALUE: memset:__ch <- 0
	#DEBUG_VALUE: memset:__len <- 1024
	.loc	7 59 10                         # /usr/include/x86_64-linux-gnu/bits/string_fortified.h:59:10 @[ crypto_pwhash/argon2/argon2-core.h:69:5 @[ crypto_pwhash/argon2/argon2-fill-block-avx2.c:125:17 @[ crypto_pwhash/argon2/argon2-fill-block-avx2.c:168:9 ] ] ]
	movl	$1024, %edx                     # imm = 0x400
	leaq	1120(%rsp), %r12
	movq	%r12, %rdi
	xorl	%esi, %esi
	callq	memset@PLT
.Ltmp30:
	#DEBUG_VALUE: init_block_value:b <- [DW_OP_plus_uconst 4200, DW_OP_stack_value] $rsp
	#DEBUG_VALUE: init_block_value:in <- 0
	#DEBUG_VALUE: memset:__dest <- [DW_OP_plus_uconst 4200, DW_OP_stack_value] $rsp
	#DEBUG_VALUE: memset:__ch <- 0
	#DEBUG_VALUE: memset:__len <- 1024
	.loc	7 59 10                         # /usr/include/x86_64-linux-gnu/bits/string_fortified.h:59:10 @[ crypto_pwhash/argon2/argon2-core.h:69:5 @[ crypto_pwhash/argon2/argon2-fill-block-avx2.c:126:17 @[ crypto_pwhash/argon2/argon2-fill-block-avx2.c:168:9 ] ] ]
	movl	$1024, %edx                     # imm = 0x400
	leaq	4200(%rsp), %r15
	movq	%r15, %rdi
	xorl	%esi, %esi
	callq	memset@PLT
.Ltmp31:
	.loc	6 128 33 is_stmt 1              # crypto_pwhash/argon2/argon2-fill-block-avx2.c:128:33 @[ crypto_pwhash/argon2/argon2-fill-block-avx2.c:168:9 ]
	incq	%rbx
	movq	%rbx, 144(%rsp)
	.loc	6 130 17                        # crypto_pwhash/argon2/argon2-fill-block-avx2.c:130:17 @[ crypto_pwhash/argon2/argon2-fill-block-avx2.c:168:9 ]
	leaq	3168(%rsp), %rdi
	leaq	96(%rsp), %rsi
	movq	%r15, %rdx
	callq	fill_block_with_xor
.Ltmp32:
	.loc	6 133 17                        # crypto_pwhash/argon2/argon2-fill-block-avx2.c:133:17 @[ crypto_pwhash/argon2/argon2-fill-block-avx2.c:168:9 ]
	leaq	2144(%rsp), %rdi
	movq	%r15, %rsi
	movq	%r12, %rdx
	callq	fill_block_with_xor
.Ltmp33:
	.loc	6 0 17 is_stmt 0                # crypto_pwhash/argon2/argon2-fill-block-avx2.c:0:17
	movq	64(%rsp), %rdi                  # 8-byte Reload
	movq	48(%rsp), %rsi                  # 8-byte Reload
	jmp	.LBB0_7
.Ltmp34:
.LBB0_10:                               # %generate_addresses.exit
	#DEBUG_VALUE: argon2_fill_segment_avx2:position <- [DW_OP_plus_uconst 32, DW_OP_deref_size 8, DW_OP_constu 8, DW_OP_shr, DW_OP_LLVM_convert 64 7, DW_OP_LLVM_convert 24 7, DW_OP_stack_value, DW_OP_LLVM_fragment 72 24] $rsp
	#DEBUG_VALUE: argon2_fill_segment_avx2:instance <- [DW_OP_plus_uconst 64] [$rsp+0]
	#DEBUG_VALUE: argon2_fill_segment_avx2:position <- [DW_OP_plus_uconst 56, DW_OP_deref, DW_OP_LLVM_fragment 32 32] $rsp
	#DEBUG_VALUE: argon2_fill_segment_avx2:position <- [DW_OP_plus_uconst 48, DW_OP_deref, DW_OP_LLVM_fragment 0 32] $rsp
	#DEBUG_VALUE: argon2_fill_segment_avx2:position <- [DW_OP_plus_uconst 32, DW_OP_deref, DW_OP_LLVM_fragment 64 8] $rsp
	#DEBUG_VALUE: argon2_fill_segment_avx2:position <- [DW_OP_plus_uconst 32, DW_OP_deref_size 8, DW_OP_constu 32, DW_OP_shr, DW_OP_LLVM_convert 64 7, DW_OP_LLVM_convert 32 7, DW_OP_stack_value, DW_OP_LLVM_fragment 96 32] $rsp
	#DEBUG_VALUE: argon2_fill_segment_avx2:ref_block <- 0
	#DEBUG_VALUE: argon2_fill_segment_avx2:curr_block <- 0
	#DEBUG_VALUE: generate_addresses:instance <- [DW_OP_plus_uconst 64, DW_OP_deref] $rsp
	#DEBUG_VALUE: generate_addresses:pseudo_rands <- [DW_OP_plus_uconst 72, DW_OP_deref] $rsp
	#DEBUG_VALUE: init_block_value:b <- [DW_OP_plus_uconst 1120, DW_OP_stack_value] $rsp
	#DEBUG_VALUE: init_block_value:in <- 0
	#DEBUG_VALUE: memset:__dest <- [DW_OP_plus_uconst 1120, DW_OP_stack_value] $rsp
	#DEBUG_VALUE: memset:__ch <- 0
	#DEBUG_VALUE: memset:__len <- 1024
	#DEBUG_VALUE: init_block_value:b <- [DW_OP_plus_uconst 96, DW_OP_stack_value] $rsp
	#DEBUG_VALUE: init_block_value:in <- 0
	#DEBUG_VALUE: memset:__dest <- [DW_OP_plus_uconst 96, DW_OP_stack_value] $rsp
	#DEBUG_VALUE: memset:__ch <- 0
	#DEBUG_VALUE: memset:__len <- 1024
	movl	$0, 44(%rsp)                    # 4-byte Folded Spill
	movq	56(%rsp), %r8                   # 8-byte Reload
.Ltmp35:
.LBB0_11:
	#DEBUG_VALUE: argon2_fill_segment_avx2:position <- [DW_OP_plus_uconst 32, DW_OP_deref_size 8, DW_OP_constu 8, DW_OP_shr, DW_OP_LLVM_convert 64 7, DW_OP_LLVM_convert 24 7, DW_OP_stack_value, DW_OP_LLVM_fragment 72 24] $rsp
	#DEBUG_VALUE: argon2_fill_segment_avx2:instance <- [DW_OP_plus_uconst 64] [$rsp+0]
	#DEBUG_VALUE: argon2_fill_segment_avx2:position <- [DW_OP_plus_uconst 56, DW_OP_deref, DW_OP_LLVM_fragment 32 32] $rsp
	#DEBUG_VALUE: argon2_fill_segment_avx2:position <- [DW_OP_plus_uconst 48, DW_OP_deref, DW_OP_LLVM_fragment 0 32] $rsp
	#DEBUG_VALUE: argon2_fill_segment_avx2:position <- [DW_OP_plus_uconst 32, DW_OP_deref, DW_OP_LLVM_fragment 64 8] $rsp
	#DEBUG_VALUE: argon2_fill_segment_avx2:position <- [DW_OP_plus_uconst 32, DW_OP_deref_size 8, DW_OP_constu 32, DW_OP_shr, DW_OP_LLVM_convert 64 7, DW_OP_LLVM_convert 32 7, DW_OP_stack_value, DW_OP_LLVM_fragment 96 32] $rsp
	#DEBUG_VALUE: argon2_fill_segment_avx2:ref_block <- 0
	#DEBUG_VALUE: argon2_fill_segment_avx2:curr_block <- 0
	#DEBUG_VALUE: argon2_fill_segment_avx2:starting_index <- 0
	.loc	6 173 12 is_stmt 1              # crypto_pwhash/argon2/argon2-fill-block-avx2.c:173:12
	testl	%esi, %esi
	sete	%al
	movq	32(%rsp), %rsi                  # 8-byte Reload
	testb	%sil, %sil
	sete	%cl
	.loc	6 173 30 is_stmt 0              # crypto_pwhash/argon2/argon2-fill-block-avx2.c:173:30
	andb	%al, %cl
	movb	%cl, 31(%rsp)                   # 1-byte Spill
	movzbl	%cl, %eax
.Ltmp36:
	.loc	6 178 45 is_stmt 1              # crypto_pwhash/argon2/argon2-fill-block-avx2.c:178:45
	movl	32(%rdi), %ecx
	.loc	6 178 33 is_stmt 0              # crypto_pwhash/argon2/argon2-fill-block-avx2.c:178:33
	movl	%ecx, %edx
	imull	%r8d, %edx
	.loc	6 179 19 is_stmt 1              # crypto_pwhash/argon2/argon2-fill-block-avx2.c:179:19
	movzbl	%sil, %r8d
	.loc	6 179 34 is_stmt 0              # crypto_pwhash/argon2/argon2-fill-block-avx2.c:179:34
	movl	%r14d, %esi
	movq	%r8, 88(%rsp)                   # 8-byte Spill
	imull	%r8d, %esi
.Ltmp37:
	#DEBUG_VALUE: argon2_fill_segment_avx2:starting_index <- undef
	#DEBUG_VALUE: memcpy:__dest <- [DW_OP_plus_uconst 96, DW_OP_stack_value] $rsp
	#DEBUG_VALUE: memcpy:__len <- 1024
	#DEBUG_VALUE: argon2_fill_segment_avx2:i <- undef
	.loc	6 178 57 is_stmt 1              # crypto_pwhash/argon2/argon2-fill-block-avx2.c:178:57
	leal	(%rdx,%rax,2), %r12d
.Ltmp38:
	.loc	6 173 30                        # crypto_pwhash/argon2/argon2-fill-block-avx2.c:173:30
	movl	%eax, %ebx
	addl	%eax, %ebx
.Ltmp39:
	#DEBUG_VALUE: argon2_fill_segment_avx2:i <- $ebx
	#DEBUG_VALUE: argon2_fill_segment_avx2:starting_index <- $ebx
	.loc	6 179 61                        # crypto_pwhash/argon2/argon2-fill-block-avx2.c:179:61
	addl	%esi, %r12d
.Ltmp40:
	#DEBUG_VALUE: argon2_fill_segment_avx2:curr_offset <- $r12d
	.loc	6 181 26                        # crypto_pwhash/argon2/argon2-fill-block-avx2.c:181:26
	xorl	%r15d, %r15d
	movl	%r12d, %eax
	xorl	%edx, %edx
	divl	%ecx
	.loc	6 181 11 is_stmt 0              # crypto_pwhash/argon2/argon2-fill-block-avx2.c:181:11
	decl	%ecx
	negl	%edx
	sbbl	%r15d, %r15d
	orl	%ecx, %r15d
	.loc	6 0 0                           # crypto_pwhash/argon2/argon2-fill-block-avx2.c:0
	addl	%r12d, %r15d
.Ltmp41:
	#DEBUG_VALUE: argon2_fill_segment_avx2:prev_offset <- $r15d
	.loc	6 189 31 is_stmt 1              # crypto_pwhash/argon2/argon2-fill-block-avx2.c:189:31
	movq	(%rdi), %rax
	.loc	6 189 46 is_stmt 0              # crypto_pwhash/argon2/argon2-fill-block-avx2.c:189:46
	movq	%r15, %rsi
	shlq	$10, %rsi
	addq	8(%rax), %rsi
.Ltmp42:
	#DEBUG_VALUE: memcpy:__src <- $rsi
	.loc	6 0 46                          # crypto_pwhash/argon2/argon2-fill-block-avx2.c:0:46
	leaq	96(%rsp), %rdi
.Ltmp43:
	.loc	7 29 10 is_stmt 1               # /usr/include/x86_64-linux-gnu/bits/string_fortified.h:29:10 @[ crypto_pwhash/argon2/argon2-fill-block-avx2.c:189:5 ]
	movl	$1024, %edx                     # imm = 0x400
	callq	memcpy@PLT
.Ltmp44:
	.loc	7 0 10 is_stmt 0                # /usr/include/x86_64-linux-gnu/bits/string_fortified.h:0:10
	movq	64(%rsp), %r10                  # 8-byte Reload
	movq	48(%rsp), %r9                   # 8-byte Reload
.Ltmp45:
	.loc	6 192 32 is_stmt 1              # crypto_pwhash/argon2/argon2-fill-block-avx2.c:192:32
	cmpl	%r14d, %ebx
.Ltmp46:
	.loc	6 192 5 is_stmt 0               # crypto_pwhash/argon2/argon2-fill-block-avx2.c:192:5
	jae	.LBB0_43
.Ltmp47:
# %bb.12:                               # %.lr.ph
	#DEBUG_VALUE: argon2_fill_segment_avx2:position <- [DW_OP_plus_uconst 32, DW_OP_deref_size 8, DW_OP_constu 8, DW_OP_shr, DW_OP_LLVM_convert 64 7, DW_OP_LLVM_convert 24 7, DW_OP_stack_value, DW_OP_LLVM_fragment 72 24] $rsp
	#DEBUG_VALUE: argon2_fill_segment_avx2:instance <- [DW_OP_plus_uconst 64] [$rsp+0]
	#DEBUG_VALUE: argon2_fill_segment_avx2:position <- [DW_OP_plus_uconst 56, DW_OP_deref, DW_OP_LLVM_fragment 32 32] $rsp
	#DEBUG_VALUE: argon2_fill_segment_avx2:position <- [DW_OP_plus_uconst 48, DW_OP_deref, DW_OP_LLVM_fragment 0 32] $rsp
	#DEBUG_VALUE: argon2_fill_segment_avx2:position <- [DW_OP_plus_uconst 32, DW_OP_deref, DW_OP_LLVM_fragment 64 8] $rsp
	#DEBUG_VALUE: argon2_fill_segment_avx2:position <- [DW_OP_plus_uconst 32, DW_OP_deref_size 8, DW_OP_constu 32, DW_OP_shr, DW_OP_LLVM_convert 64 7, DW_OP_LLVM_convert 32 7, DW_OP_stack_value, DW_OP_LLVM_fragment 96 32] $rsp
	#DEBUG_VALUE: argon2_fill_segment_avx2:ref_block <- 0
	#DEBUG_VALUE: argon2_fill_segment_avx2:curr_block <- 0
	#DEBUG_VALUE: argon2_fill_segment_avx2:starting_index <- $ebx
	#DEBUG_VALUE: argon2_fill_segment_avx2:i <- $ebx
	#DEBUG_VALUE: argon2_fill_segment_avx2:curr_offset <- $r12d
	#DEBUG_VALUE: argon2_fill_segment_avx2:prev_offset <- $r15d
	.loc	6 0 5                           # crypto_pwhash/argon2/argon2-fill-block-avx2.c:0:5
	movq	88(%rsp), %rax                  # 8-byte Reload
	incl	%eax
	movl	%eax, 84(%rsp)                  # 4-byte Spill
	.loc	6 192 5                         # crypto_pwhash/argon2/argon2-fill-block-avx2.c:192:5
	movl	%ebx, %r13d
.Ltmp48:
	#DEBUG_VALUE: argon2_fill_segment_avx2:i <- $r13d
	#DEBUG_VALUE: argon2_fill_segment_avx2:starting_index <- $r13d
	.loc	6 0 5                           # crypto_pwhash/argon2/argon2-fill-block-avx2.c:0:5
	vmovdqa	.LCPI0_0(%rip), %ymm11          # ymm11 = [3,4,5,6,7,0,1,2,11,12,13,14,15,8,9,10,3,4,5,6,7,0,1,2,11,12,13,14,15,8,9,10]
	jmp	.LBB0_15
.Ltmp49:
	.p2align	4
.LBB0_13:                               #   in Loop: Header=BB0_15 Depth=1
	#DEBUG_VALUE: argon2_fill_segment_avx2:position <- [DW_OP_plus_uconst 32, DW_OP_deref_size 8, DW_OP_constu 8, DW_OP_shr, DW_OP_LLVM_convert 64 7, DW_OP_LLVM_convert 24 7, DW_OP_stack_value, DW_OP_LLVM_fragment 72 24] $rsp
	#DEBUG_VALUE: argon2_fill_segment_avx2:instance <- [DW_OP_plus_uconst 64] [$rsp+0]
	#DEBUG_VALUE: argon2_fill_segment_avx2:position <- [DW_OP_plus_uconst 56, DW_OP_deref, DW_OP_LLVM_fragment 32 32] $rsp
	#DEBUG_VALUE: argon2_fill_segment_avx2:position <- [DW_OP_plus_uconst 48, DW_OP_deref, DW_OP_LLVM_fragment 0 32] $rsp
	#DEBUG_VALUE: argon2_fill_segment_avx2:position <- [DW_OP_plus_uconst 32, DW_OP_deref, DW_OP_LLVM_fragment 64 8] $rsp
	#DEBUG_VALUE: argon2_fill_segment_avx2:position <- [DW_OP_LLVM_fragment 96 32] $r13
	#DEBUG_VALUE: argon2_fill_segment_avx2:ref_block <- $rsi
	#DEBUG_VALUE: argon2_fill_segment_avx2:i <- $r13
	#DEBUG_VALUE: argon2_fill_segment_avx2:curr_offset <- $r12d
	#DEBUG_VALUE: argon2_fill_segment_avx2:prev_offset <- $ebx
	addq	%rax, %rdx
.Ltmp50:
	#DEBUG_VALUE: argon2_fill_segment_avx2:curr_block <- $rdx
	.loc	6 230 13 is_stmt 1              # crypto_pwhash/argon2/argon2-fill-block-avx2.c:230:13
	leaq	96(%rsp), %rdi
	vzeroupper
	callq	fill_block_with_xor
.Ltmp51:
	.loc	6 0 13 is_stmt 0                # crypto_pwhash/argon2/argon2-fill-block-avx2.c:0:13
	vmovdqa	.LCPI0_0(%rip), %ymm11          # ymm11 = [3,4,5,6,7,0,1,2,11,12,13,14,15,8,9,10,3,4,5,6,7,0,1,2,11,12,13,14,15,8,9,10]
	movq	64(%rsp), %r10                  # 8-byte Reload
	movq	48(%rsp), %r9                   # 8-byte Reload
.Ltmp52:
.LBB0_14:                               #   in Loop: Header=BB0_15 Depth=1
	#DEBUG_VALUE: argon2_fill_segment_avx2:position <- [DW_OP_plus_uconst 32, DW_OP_deref_size 8, DW_OP_constu 8, DW_OP_shr, DW_OP_LLVM_convert 64 7, DW_OP_LLVM_convert 24 7, DW_OP_stack_value, DW_OP_LLVM_fragment 72 24] $rsp
	#DEBUG_VALUE: argon2_fill_segment_avx2:instance <- [DW_OP_plus_uconst 64] [$rsp+0]
	#DEBUG_VALUE: argon2_fill_segment_avx2:position <- [DW_OP_plus_uconst 56, DW_OP_deref, DW_OP_LLVM_fragment 32 32] $rsp
	#DEBUG_VALUE: argon2_fill_segment_avx2:position <- [DW_OP_plus_uconst 48, DW_OP_deref, DW_OP_LLVM_fragment 0 32] $rsp
	#DEBUG_VALUE: argon2_fill_segment_avx2:position <- [DW_OP_plus_uconst 32, DW_OP_deref, DW_OP_LLVM_fragment 64 8] $rsp
	#DEBUG_VALUE: argon2_fill_segment_avx2:position <- [DW_OP_LLVM_fragment 96 32] $r13
	#DEBUG_VALUE: argon2_fill_segment_avx2:i <- $r13
	#DEBUG_VALUE: argon2_fill_segment_avx2:curr_offset <- $r12d
	#DEBUG_VALUE: argon2_fill_segment_avx2:prev_offset <- $ebx
	.loc	6 193 10 is_stmt 1              # crypto_pwhash/argon2/argon2-fill-block-avx2.c:193:10
	incq	%r13
.Ltmp53:
	#DEBUG_VALUE: argon2_fill_segment_avx2:i <- $r13
	.loc	6 193 15 is_stmt 0              # crypto_pwhash/argon2/argon2-fill-block-avx2.c:193:15
	incl	%r12d
.Ltmp54:
	#DEBUG_VALUE: argon2_fill_segment_avx2:curr_offset <- $r12d
	.loc	6 193 30                        # crypto_pwhash/argon2/argon2-fill-block-avx2.c:193:30
	incl	%ebx
.Ltmp55:
	#DEBUG_VALUE: argon2_fill_segment_avx2:prev_offset <- $ebx
	.loc	6 192 44 is_stmt 1              # crypto_pwhash/argon2/argon2-fill-block-avx2.c:192:44
	movl	28(%r10), %r14d
	movl	%ebx, %r15d
.Ltmp56:
	#DEBUG_VALUE: argon2_fill_segment_avx2:prev_offset <- $r15d
	.loc	6 192 32 is_stmt 0              # crypto_pwhash/argon2/argon2-fill-block-avx2.c:192:32
	cmpq	%r14, %r13
.Ltmp57:
	.loc	6 192 5                         # crypto_pwhash/argon2/argon2-fill-block-avx2.c:192:5
	jae	.LBB0_43
.Ltmp58:
.LBB0_15:                               # =>This Loop Header: Depth=1
                                        #     Child Loop BB0_36 Depth 2
                                        #     Child Loop BB0_38 Depth 2
                                        #     Child Loop BB0_40 Depth 2
                                        #     Child Loop BB0_42 Depth 2
	#DEBUG_VALUE: argon2_fill_segment_avx2:position <- [DW_OP_plus_uconst 32, DW_OP_deref_size 8, DW_OP_constu 8, DW_OP_shr, DW_OP_LLVM_convert 64 7, DW_OP_LLVM_convert 24 7, DW_OP_stack_value, DW_OP_LLVM_fragment 72 24] $rsp
	#DEBUG_VALUE: argon2_fill_segment_avx2:instance <- [DW_OP_plus_uconst 64] [$rsp+0]
	#DEBUG_VALUE: argon2_fill_segment_avx2:position <- [DW_OP_plus_uconst 56, DW_OP_deref, DW_OP_LLVM_fragment 32 32] $rsp
	#DEBUG_VALUE: argon2_fill_segment_avx2:position <- [DW_OP_plus_uconst 48, DW_OP_deref, DW_OP_LLVM_fragment 0 32] $rsp
	#DEBUG_VALUE: argon2_fill_segment_avx2:position <- [DW_OP_plus_uconst 32, DW_OP_deref, DW_OP_LLVM_fragment 64 8] $rsp
	#DEBUG_VALUE: argon2_fill_segment_avx2:curr_offset <- $r12d
	#DEBUG_VALUE: argon2_fill_segment_avx2:prev_offset <- $r15d
	#DEBUG_VALUE: argon2_fill_segment_avx2:i <- $r13
	#DEBUG_VALUE: argon2_fill_segment_avx2:curr_offset <- $r12d
	#DEBUG_VALUE: argon2_fill_segment_avx2:prev_offset <- $r15d
	.loc	6 195 37 is_stmt 1              # crypto_pwhash/argon2/argon2-fill-block-avx2.c:195:37
	movl	32(%r10), %edi
	.loc	6 195 25 is_stmt 0              # crypto_pwhash/argon2/argon2-fill-block-avx2.c:195:25
	movl	%r12d, %eax
	xorl	%edx, %edx
	divl	%edi
	leal	-1(%r12), %ebx
	.loc	6 195 49                        # crypto_pwhash/argon2/argon2-fill-block-avx2.c:195:49
	cmpl	$1, %edx
	cmovnel	%r15d, %ebx
.Ltmp59:
	#DEBUG_VALUE: argon2_fill_segment_avx2:prev_offset <- $ebx
	.loc	6 201 13 is_stmt 1              # crypto_pwhash/argon2/argon2-fill-block-avx2.c:201:13
	cmpb	$0, 44(%rsp)                    # 1-byte Folded Reload
	je	.LBB0_17
.Ltmp60:
# %bb.16:                               #   in Loop: Header=BB0_15 Depth=1
	#DEBUG_VALUE: argon2_fill_segment_avx2:position <- [DW_OP_plus_uconst 32, DW_OP_deref_size 8, DW_OP_constu 8, DW_OP_shr, DW_OP_LLVM_convert 64 7, DW_OP_LLVM_convert 24 7, DW_OP_stack_value, DW_OP_LLVM_fragment 72 24] $rsp
	#DEBUG_VALUE: argon2_fill_segment_avx2:instance <- [DW_OP_plus_uconst 64] [$rsp+0]
	#DEBUG_VALUE: argon2_fill_segment_avx2:position <- [DW_OP_plus_uconst 56, DW_OP_deref, DW_OP_LLVM_fragment 32 32] $rsp
	#DEBUG_VALUE: argon2_fill_segment_avx2:position <- [DW_OP_plus_uconst 48, DW_OP_deref, DW_OP_LLVM_fragment 0 32] $rsp
	#DEBUG_VALUE: argon2_fill_segment_avx2:position <- [DW_OP_plus_uconst 32, DW_OP_deref, DW_OP_LLVM_fragment 64 8] $rsp
	#DEBUG_VALUE: argon2_fill_segment_avx2:i <- $r13
	#DEBUG_VALUE: argon2_fill_segment_avx2:curr_offset <- $r12d
	#DEBUG_VALUE: argon2_fill_segment_avx2:prev_offset <- $ebx
	.loc	6 207 37                        # crypto_pwhash/argon2/argon2-fill-block-avx2.c:207:37
	movq	(%r10), %rcx
	.loc	6 207 27 is_stmt 0              # crypto_pwhash/argon2/argon2-fill-block-avx2.c:207:27
	movl	%ebx, %eax
	shlq	$10, %rax
	addq	8(%rcx), %rax
.Ltmp61:
	#DEBUG_VALUE: argon2_fill_segment_avx2:pseudo_rand <- undef
	.loc	6 0 27                          # crypto_pwhash/argon2/argon2-fill-block-avx2.c:0:27
	jmp	.LBB0_18
.Ltmp62:
	.p2align	4
.LBB0_17:                               #   in Loop: Header=BB0_15 Depth=1
	#DEBUG_VALUE: argon2_fill_segment_avx2:position <- [DW_OP_plus_uconst 32, DW_OP_deref_size 8, DW_OP_constu 8, DW_OP_shr, DW_OP_LLVM_convert 64 7, DW_OP_LLVM_convert 24 7, DW_OP_stack_value, DW_OP_LLVM_fragment 72 24] $rsp
	#DEBUG_VALUE: argon2_fill_segment_avx2:instance <- [DW_OP_plus_uconst 64] [$rsp+0]
	#DEBUG_VALUE: argon2_fill_segment_avx2:position <- [DW_OP_plus_uconst 56, DW_OP_deref, DW_OP_LLVM_fragment 32 32] $rsp
	#DEBUG_VALUE: argon2_fill_segment_avx2:position <- [DW_OP_plus_uconst 48, DW_OP_deref, DW_OP_LLVM_fragment 0 32] $rsp
	#DEBUG_VALUE: argon2_fill_segment_avx2:position <- [DW_OP_plus_uconst 32, DW_OP_deref, DW_OP_LLVM_fragment 64 8] $rsp
	#DEBUG_VALUE: argon2_fill_segment_avx2:i <- $r13
	#DEBUG_VALUE: argon2_fill_segment_avx2:curr_offset <- $r12d
	#DEBUG_VALUE: argon2_fill_segment_avx2:prev_offset <- $ebx
	movq	72(%rsp), %rax                  # 8-byte Reload
.Ltmp63:
	.loc	6 204 27 is_stmt 1              # crypto_pwhash/argon2/argon2-fill-block-avx2.c:204:27
	leaq	(%rax,%r13,8), %rax
.Ltmp64:
	#DEBUG_VALUE: argon2_fill_segment_avx2:pseudo_rand <- undef
.LBB0_18:                               #   in Loop: Header=BB0_15 Depth=1
	#DEBUG_VALUE: argon2_fill_segment_avx2:position <- [DW_OP_plus_uconst 32, DW_OP_deref_size 8, DW_OP_constu 8, DW_OP_shr, DW_OP_LLVM_convert 64 7, DW_OP_LLVM_convert 24 7, DW_OP_stack_value, DW_OP_LLVM_fragment 72 24] $rsp
	#DEBUG_VALUE: argon2_fill_segment_avx2:instance <- [DW_OP_plus_uconst 64] [$rsp+0]
	#DEBUG_VALUE: argon2_fill_segment_avx2:position <- [DW_OP_plus_uconst 56, DW_OP_deref, DW_OP_LLVM_fragment 32 32] $rsp
	#DEBUG_VALUE: argon2_fill_segment_avx2:position <- [DW_OP_plus_uconst 48, DW_OP_deref, DW_OP_LLVM_fragment 0 32] $rsp
	#DEBUG_VALUE: argon2_fill_segment_avx2:position <- [DW_OP_plus_uconst 32, DW_OP_deref, DW_OP_LLVM_fragment 64 8] $rsp
	#DEBUG_VALUE: argon2_fill_segment_avx2:i <- $r13
	#DEBUG_VALUE: argon2_fill_segment_avx2:curr_offset <- $r12d
	#DEBUG_VALUE: argon2_fill_segment_avx2:prev_offset <- $ebx
	.loc	6 0 27 is_stmt 0                # crypto_pwhash/argon2/argon2-fill-block-avx2.c:0:27
	movq	56(%rsp), %r8                   # 8-byte Reload
	movq	(%rax), %rsi
.Ltmp65:
	#DEBUG_VALUE: argon2_fill_segment_avx2:pseudo_rand <- $rsi
	.loc	6 211 34 is_stmt 1              # crypto_pwhash/argon2/argon2-fill-block-avx2.c:211:34
	movq	%rsi, %rax
	shrq	$32, %rax
                                        # kill: def $eax killed $eax killed $rax
	.loc	6 211 42 is_stmt 0              # crypto_pwhash/argon2/argon2-fill-block-avx2.c:211:42
	xorl	%edx, %edx
	divl	36(%r10)
	movl	%edx, %ecx
.Ltmp66:
	#DEBUG_VALUE: argon2_fill_segment_avx2:ref_lane <- $edx
	.loc	6 213 34 is_stmt 1              # crypto_pwhash/argon2/argon2-fill-block-avx2.c:213:34
	cmpb	$0, 31(%rsp)                    # 1-byte Folded Reload
	cmovneq	%r8, %rcx
.Ltmp67:
	#DEBUG_VALUE: argon2_fill_segment_avx2:ref_lane <- $rcx
	.loc	6 173 12                        # crypto_pwhash/argon2/argon2-fill-block-avx2.c:173:12
	testl	%r9d, %r9d
.Ltmp68:
	#DEBUG_VALUE: argon2_fill_segment_avx2:position <- [DW_OP_LLVM_fragment 96 32] $r13
	#DEBUG_VALUE: index_alpha:instance <- [DW_OP_plus_uconst 64, DW_OP_deref] $rsp
	#DEBUG_VALUE: index_alpha:position <- undef
	#DEBUG_VALUE: index_alpha:pseudo_rand <- [DW_OP_LLVM_convert 64 7, DW_OP_LLVM_convert 32 7, DW_OP_stack_value] $rsi
	#DEBUG_VALUE: index_alpha:same_lane <- undef
	.loc	2 157 24                        # crypto_pwhash/argon2/argon2-core.h:157:24 @[ crypto_pwhash/argon2/argon2-fill-block-avx2.c:222:21 ]
	je	.LBB0_21
.Ltmp69:
# %bb.19:                               #   in Loop: Header=BB0_15 Depth=1
	#DEBUG_VALUE: argon2_fill_segment_avx2:position <- [DW_OP_plus_uconst 32, DW_OP_deref_size 8, DW_OP_constu 8, DW_OP_shr, DW_OP_LLVM_convert 64 7, DW_OP_LLVM_convert 24 7, DW_OP_stack_value, DW_OP_LLVM_fragment 72 24] $rsp
	#DEBUG_VALUE: argon2_fill_segment_avx2:instance <- [DW_OP_plus_uconst 64] [$rsp+0]
	#DEBUG_VALUE: argon2_fill_segment_avx2:position <- [DW_OP_plus_uconst 56, DW_OP_deref, DW_OP_LLVM_fragment 32 32] $rsp
	#DEBUG_VALUE: argon2_fill_segment_avx2:position <- [DW_OP_plus_uconst 48, DW_OP_deref, DW_OP_LLVM_fragment 0 32] $rsp
	#DEBUG_VALUE: argon2_fill_segment_avx2:position <- [DW_OP_plus_uconst 32, DW_OP_deref, DW_OP_LLVM_fragment 64 8] $rsp
	#DEBUG_VALUE: argon2_fill_segment_avx2:position <- [DW_OP_LLVM_fragment 96 32] $r13
	#DEBUG_VALUE: argon2_fill_segment_avx2:i <- $r13
	#DEBUG_VALUE: argon2_fill_segment_avx2:curr_offset <- $r12d
	#DEBUG_VALUE: argon2_fill_segment_avx2:prev_offset <- $ebx
	#DEBUG_VALUE: argon2_fill_segment_avx2:pseudo_rand <- $rsi
	#DEBUG_VALUE: argon2_fill_segment_avx2:ref_lane <- $rcx
	#DEBUG_VALUE: index_alpha:instance <- [DW_OP_plus_uconst 64, DW_OP_deref] $rsp
	#DEBUG_VALUE: index_alpha:pseudo_rand <- [DW_OP_LLVM_convert 64 7, DW_OP_LLVM_convert 32 7, DW_OP_stack_value] $rsi
	.loc	6 223 42                        # crypto_pwhash/argon2/argon2-fill-block-avx2.c:223:42
	cmpl	%r8d, %ecx
.Ltmp70:
	.loc	2 177 13                        # crypto_pwhash/argon2/argon2-core.h:177:13 @[ crypto_pwhash/argon2/argon2-fill-block-avx2.c:222:21 ]
	jne	.LBB0_24
.Ltmp71:
# %bb.20:                               #   in Loop: Header=BB0_15 Depth=1
	#DEBUG_VALUE: argon2_fill_segment_avx2:position <- [DW_OP_plus_uconst 32, DW_OP_deref_size 8, DW_OP_constu 8, DW_OP_shr, DW_OP_LLVM_convert 64 7, DW_OP_LLVM_convert 24 7, DW_OP_stack_value, DW_OP_LLVM_fragment 72 24] $rsp
	#DEBUG_VALUE: argon2_fill_segment_avx2:instance <- [DW_OP_plus_uconst 64] [$rsp+0]
	#DEBUG_VALUE: argon2_fill_segment_avx2:position <- [DW_OP_plus_uconst 56, DW_OP_deref, DW_OP_LLVM_fragment 32 32] $rsp
	#DEBUG_VALUE: argon2_fill_segment_avx2:position <- [DW_OP_plus_uconst 48, DW_OP_deref, DW_OP_LLVM_fragment 0 32] $rsp
	#DEBUG_VALUE: argon2_fill_segment_avx2:position <- [DW_OP_plus_uconst 32, DW_OP_deref, DW_OP_LLVM_fragment 64 8] $rsp
	#DEBUG_VALUE: argon2_fill_segment_avx2:position <- [DW_OP_LLVM_fragment 96 32] $r13
	#DEBUG_VALUE: argon2_fill_segment_avx2:i <- $r13
	#DEBUG_VALUE: argon2_fill_segment_avx2:curr_offset <- $r12d
	#DEBUG_VALUE: argon2_fill_segment_avx2:prev_offset <- $ebx
	#DEBUG_VALUE: argon2_fill_segment_avx2:pseudo_rand <- $rsi
	#DEBUG_VALUE: argon2_fill_segment_avx2:ref_lane <- $rcx
	#DEBUG_VALUE: index_alpha:instance <- [DW_OP_plus_uconst 64, DW_OP_deref] $rsp
	#DEBUG_VALUE: index_alpha:pseudo_rand <- [DW_OP_LLVM_convert 64 7, DW_OP_LLVM_convert 32 7, DW_OP_stack_value] $rsi
	.loc	2 179 60                        # crypto_pwhash/argon2/argon2-core.h:179:60 @[ crypto_pwhash/argon2/argon2-fill-block-avx2.c:222:21 ]
	movl	%r14d, %eax
	notl	%eax
	addl	%r13d, %eax
.Ltmp72:
	#DEBUG_VALUE: index_alpha:reference_area_size <- [DW_OP_LLVM_arg 0, DW_OP_LLVM_arg 0, DW_OP_plus, DW_OP_stack_value] undef
	.loc	2 181 9                         # crypto_pwhash/argon2/argon2-core.h:181:9 @[ crypto_pwhash/argon2/argon2-fill-block-avx2.c:222:21 ]
	jmp	.LBB0_25
.Ltmp73:
	.loc	2 0 9 is_stmt 0                 # :0:9
.Ltmp74:
	.p2align	4
.LBB0_21:                               #   in Loop: Header=BB0_15 Depth=1
	#DEBUG_VALUE: argon2_fill_segment_avx2:position <- [DW_OP_plus_uconst 32, DW_OP_deref_size 8, DW_OP_constu 8, DW_OP_shr, DW_OP_LLVM_convert 64 7, DW_OP_LLVM_convert 24 7, DW_OP_stack_value, DW_OP_LLVM_fragment 72 24] $rsp
	#DEBUG_VALUE: argon2_fill_segment_avx2:instance <- [DW_OP_plus_uconst 64] [$rsp+0]
	#DEBUG_VALUE: argon2_fill_segment_avx2:position <- [DW_OP_plus_uconst 56, DW_OP_deref, DW_OP_LLVM_fragment 32 32] $rsp
	#DEBUG_VALUE: argon2_fill_segment_avx2:position <- [DW_OP_plus_uconst 48, DW_OP_deref, DW_OP_LLVM_fragment 0 32] $rsp
	#DEBUG_VALUE: argon2_fill_segment_avx2:position <- [DW_OP_plus_uconst 32, DW_OP_deref, DW_OP_LLVM_fragment 64 8] $rsp
	#DEBUG_VALUE: argon2_fill_segment_avx2:position <- [DW_OP_LLVM_fragment 96 32] $r13
	#DEBUG_VALUE: argon2_fill_segment_avx2:i <- $r13
	#DEBUG_VALUE: argon2_fill_segment_avx2:curr_offset <- $r12d
	#DEBUG_VALUE: argon2_fill_segment_avx2:prev_offset <- $ebx
	#DEBUG_VALUE: argon2_fill_segment_avx2:pseudo_rand <- $rsi
	#DEBUG_VALUE: argon2_fill_segment_avx2:ref_lane <- $rcx
	#DEBUG_VALUE: index_alpha:instance <- [DW_OP_plus_uconst 64, DW_OP_deref] $rsp
	#DEBUG_VALUE: index_alpha:pseudo_rand <- [DW_OP_LLVM_convert 64 7, DW_OP_LLVM_convert 32 7, DW_OP_stack_value] $rsi
	cmpb	$0, 32(%rsp)                    # 1-byte Folded Reload
.Ltmp75:
	.loc	2 159 29 is_stmt 1              # crypto_pwhash/argon2/argon2-core.h:159:29 @[ crypto_pwhash/argon2/argon2-fill-block-avx2.c:222:21 ]
	je	.LBB0_28
.Ltmp76:
# %bb.22:                               #   in Loop: Header=BB0_15 Depth=1
	#DEBUG_VALUE: argon2_fill_segment_avx2:position <- [DW_OP_plus_uconst 32, DW_OP_deref_size 8, DW_OP_constu 8, DW_OP_shr, DW_OP_LLVM_convert 64 7, DW_OP_LLVM_convert 24 7, DW_OP_stack_value, DW_OP_LLVM_fragment 72 24] $rsp
	#DEBUG_VALUE: argon2_fill_segment_avx2:instance <- [DW_OP_plus_uconst 64] [$rsp+0]
	#DEBUG_VALUE: argon2_fill_segment_avx2:position <- [DW_OP_plus_uconst 56, DW_OP_deref, DW_OP_LLVM_fragment 32 32] $rsp
	#DEBUG_VALUE: argon2_fill_segment_avx2:position <- [DW_OP_plus_uconst 48, DW_OP_deref, DW_OP_LLVM_fragment 0 32] $rsp
	#DEBUG_VALUE: argon2_fill_segment_avx2:position <- [DW_OP_plus_uconst 32, DW_OP_deref, DW_OP_LLVM_fragment 64 8] $rsp
	#DEBUG_VALUE: argon2_fill_segment_avx2:position <- [DW_OP_LLVM_fragment 96 32] $r13
	#DEBUG_VALUE: argon2_fill_segment_avx2:i <- $r13
	#DEBUG_VALUE: argon2_fill_segment_avx2:curr_offset <- $r12d
	#DEBUG_VALUE: argon2_fill_segment_avx2:prev_offset <- $ebx
	#DEBUG_VALUE: argon2_fill_segment_avx2:pseudo_rand <- $rsi
	#DEBUG_VALUE: argon2_fill_segment_avx2:ref_lane <- $rcx
	#DEBUG_VALUE: index_alpha:instance <- [DW_OP_plus_uconst 64, DW_OP_deref] $rsp
	#DEBUG_VALUE: index_alpha:pseudo_rand <- [DW_OP_LLVM_convert 64 7, DW_OP_LLVM_convert 32 7, DW_OP_stack_value] $rsi
	.loc	2 0 0 is_stmt 0                 # crypto_pwhash/argon2/argon2-core.h:0 @[ crypto_pwhash/argon2/argon2-fill-block-avx2.c:222:21 ]
	imull	88(%rsp), %r14d                 # 4-byte Folded Reload
.Ltmp77:
	.loc	6 223 42 is_stmt 1              # crypto_pwhash/argon2/argon2-fill-block-avx2.c:223:42
	cmpl	%r8d, %ecx
.Ltmp78:
	.loc	2 164 17                        # crypto_pwhash/argon2/argon2-core.h:164:17 @[ crypto_pwhash/argon2/argon2-fill-block-avx2.c:222:21 ]
	jne	.LBB0_29
.Ltmp79:
# %bb.23:                               #   in Loop: Header=BB0_15 Depth=1
	#DEBUG_VALUE: argon2_fill_segment_avx2:position <- [DW_OP_plus_uconst 32, DW_OP_deref_size 8, DW_OP_constu 8, DW_OP_shr, DW_OP_LLVM_convert 64 7, DW_OP_LLVM_convert 24 7, DW_OP_stack_value, DW_OP_LLVM_fragment 72 24] $rsp
	#DEBUG_VALUE: argon2_fill_segment_avx2:instance <- [DW_OP_plus_uconst 64] [$rsp+0]
	#DEBUG_VALUE: argon2_fill_segment_avx2:position <- [DW_OP_plus_uconst 56, DW_OP_deref, DW_OP_LLVM_fragment 32 32] $rsp
	#DEBUG_VALUE: argon2_fill_segment_avx2:position <- [DW_OP_plus_uconst 48, DW_OP_deref, DW_OP_LLVM_fragment 0 32] $rsp
	#DEBUG_VALUE: argon2_fill_segment_avx2:position <- [DW_OP_plus_uconst 32, DW_OP_deref, DW_OP_LLVM_fragment 64 8] $rsp
	#DEBUG_VALUE: argon2_fill_segment_avx2:position <- [DW_OP_LLVM_fragment 96 32] $r13
	#DEBUG_VALUE: argon2_fill_segment_avx2:i <- $r13
	#DEBUG_VALUE: argon2_fill_segment_avx2:curr_offset <- $r12d
	#DEBUG_VALUE: argon2_fill_segment_avx2:prev_offset <- $ebx
	#DEBUG_VALUE: argon2_fill_segment_avx2:pseudo_rand <- $rsi
	#DEBUG_VALUE: argon2_fill_segment_avx2:ref_lane <- $rcx
	#DEBUG_VALUE: index_alpha:instance <- [DW_OP_plus_uconst 64, DW_OP_deref] $rsp
	#DEBUG_VALUE: index_alpha:pseudo_rand <- [DW_OP_LLVM_convert 64 7, DW_OP_LLVM_convert 32 7, DW_OP_stack_value] $rsi
	.loc	2 168 37                        # crypto_pwhash/argon2/argon2-core.h:168:37 @[ crypto_pwhash/argon2/argon2-fill-block-avx2.c:222:21 ]
	leal	(%r14,%r13), %edx
	decl	%edx
.Ltmp80:
	#DEBUG_VALUE: index_alpha:reference_area_size <- $edx
	.loc	2 0 37 is_stmt 0                # crypto_pwhash/argon2/argon2-core.h:0:37
	jmp	.LBB0_30
.Ltmp81:
	.p2align	4
.LBB0_24:                               #   in Loop: Header=BB0_15 Depth=1
	#DEBUG_VALUE: argon2_fill_segment_avx2:position <- [DW_OP_plus_uconst 32, DW_OP_deref_size 8, DW_OP_constu 8, DW_OP_shr, DW_OP_LLVM_convert 64 7, DW_OP_LLVM_convert 24 7, DW_OP_stack_value, DW_OP_LLVM_fragment 72 24] $rsp
	#DEBUG_VALUE: argon2_fill_segment_avx2:instance <- [DW_OP_plus_uconst 64] [$rsp+0]
	#DEBUG_VALUE: argon2_fill_segment_avx2:position <- [DW_OP_plus_uconst 56, DW_OP_deref, DW_OP_LLVM_fragment 32 32] $rsp
	#DEBUG_VALUE: argon2_fill_segment_avx2:position <- [DW_OP_plus_uconst 48, DW_OP_deref, DW_OP_LLVM_fragment 0 32] $rsp
	#DEBUG_VALUE: argon2_fill_segment_avx2:position <- [DW_OP_plus_uconst 32, DW_OP_deref, DW_OP_LLVM_fragment 64 8] $rsp
	#DEBUG_VALUE: argon2_fill_segment_avx2:position <- [DW_OP_LLVM_fragment 96 32] $r13
	#DEBUG_VALUE: argon2_fill_segment_avx2:i <- $r13
	#DEBUG_VALUE: argon2_fill_segment_avx2:curr_offset <- $r12d
	#DEBUG_VALUE: argon2_fill_segment_avx2:prev_offset <- $ebx
	#DEBUG_VALUE: argon2_fill_segment_avx2:pseudo_rand <- $rsi
	#DEBUG_VALUE: argon2_fill_segment_avx2:ref_lane <- $rcx
	#DEBUG_VALUE: index_alpha:instance <- [DW_OP_plus_uconst 64, DW_OP_deref] $rsp
	#DEBUG_VALUE: index_alpha:pseudo_rand <- [DW_OP_LLVM_convert 64 7, DW_OP_LLVM_convert 32 7, DW_OP_stack_value] $rsi
	.loc	2 184 36 is_stmt 1              # crypto_pwhash/argon2/argon2-core.h:184:36 @[ crypto_pwhash/argon2/argon2-fill-block-avx2.c:222:21 ]
	cmpq	$1, %r13
	movl	$0, %eax
	sbbl	%eax, %eax
	.loc	2 182 57                        # crypto_pwhash/argon2/argon2-core.h:182:57 @[ crypto_pwhash/argon2/argon2-fill-block-avx2.c:222:21 ]
	subl	%r14d, %eax
.Ltmp82:
	#DEBUG_VALUE: index_alpha:reference_area_size <- [DW_OP_LLVM_arg 0, DW_OP_LLVM_arg 0, DW_OP_plus, DW_OP_stack_value] undef
.LBB0_25:                               #   in Loop: Header=BB0_15 Depth=1
	#DEBUG_VALUE: argon2_fill_segment_avx2:position <- [DW_OP_plus_uconst 32, DW_OP_deref_size 8, DW_OP_constu 8, DW_OP_shr, DW_OP_LLVM_convert 64 7, DW_OP_LLVM_convert 24 7, DW_OP_stack_value, DW_OP_LLVM_fragment 72 24] $rsp
	#DEBUG_VALUE: argon2_fill_segment_avx2:instance <- [DW_OP_plus_uconst 64] [$rsp+0]
	#DEBUG_VALUE: argon2_fill_segment_avx2:position <- [DW_OP_plus_uconst 56, DW_OP_deref, DW_OP_LLVM_fragment 32 32] $rsp
	#DEBUG_VALUE: argon2_fill_segment_avx2:position <- [DW_OP_plus_uconst 48, DW_OP_deref, DW_OP_LLVM_fragment 0 32] $rsp
	#DEBUG_VALUE: argon2_fill_segment_avx2:position <- [DW_OP_plus_uconst 32, DW_OP_deref, DW_OP_LLVM_fragment 64 8] $rsp
	#DEBUG_VALUE: argon2_fill_segment_avx2:position <- [DW_OP_LLVM_fragment 96 32] $r13
	#DEBUG_VALUE: argon2_fill_segment_avx2:i <- $r13
	#DEBUG_VALUE: argon2_fill_segment_avx2:curr_offset <- $r12d
	#DEBUG_VALUE: argon2_fill_segment_avx2:prev_offset <- $ebx
	#DEBUG_VALUE: argon2_fill_segment_avx2:pseudo_rand <- $rsi
	#DEBUG_VALUE: argon2_fill_segment_avx2:ref_lane <- $rcx
	#DEBUG_VALUE: index_alpha:instance <- [DW_OP_plus_uconst 64, DW_OP_deref] $rsp
	#DEBUG_VALUE: index_alpha:pseudo_rand <- [DW_OP_LLVM_convert 64 7, DW_OP_LLVM_convert 32 7, DW_OP_stack_value] $rsi
	.loc	2 0 0 is_stmt 0                 # crypto_pwhash/argon2/argon2-core.h:0 @[ crypto_pwhash/argon2/argon2-fill-block-avx2.c:222:21 ]
	leal	(%rdi,%rax), %edx
.Ltmp83:
	#DEBUG_VALUE: index_alpha:reference_area_size <- $edx
	#DEBUG_VALUE: index_alpha:relative_position <- [DW_OP_LLVM_arg 0, DW_OP_constu 1, DW_OP_minus, DW_OP_LLVM_convert 32 7, DW_OP_LLVM_convert 64 7, DW_OP_LLVM_arg 1, DW_OP_LLVM_convert 64 7, DW_OP_LLVM_convert 32 7, DW_OP_LLVM_convert 32 7, DW_OP_LLVM_convert 64 7, DW_OP_LLVM_arg 3, DW_OP_LLVM_convert 64 7, DW_OP_LLVM_convert 32 7, DW_OP_LLVM_convert 32 7, DW_OP_LLVM_convert 64 7, DW_OP_mul, DW_OP_constu 32, DW_OP_shr, DW_OP_LLVM_arg 2, DW_OP_LLVM_convert 32 7, DW_OP_LLVM_convert 64 7, DW_OP_mul, DW_OP_constu 32, DW_OP_shr, DW_OP_minus, DW_OP_stack_value] $edx, $rsi, $edx, $rsi
	cmpb	$3, 32(%rsp)                    # 1-byte Folded Reload
.Ltmp84:
	#DEBUG_VALUE: index_alpha:start_position <- 0
	.loc	2 199 26 is_stmt 1              # crypto_pwhash/argon2/argon2-core.h:199:26 @[ crypto_pwhash/argon2/argon2-fill-block-avx2.c:222:21 ]
	je	.LBB0_30
.Ltmp85:
# %bb.27:                               #   in Loop: Header=BB0_15 Depth=1
	#DEBUG_VALUE: argon2_fill_segment_avx2:position <- [DW_OP_plus_uconst 32, DW_OP_deref_size 8, DW_OP_constu 8, DW_OP_shr, DW_OP_LLVM_convert 64 7, DW_OP_LLVM_convert 24 7, DW_OP_stack_value, DW_OP_LLVM_fragment 72 24] $rsp
	#DEBUG_VALUE: argon2_fill_segment_avx2:instance <- [DW_OP_plus_uconst 64] [$rsp+0]
	#DEBUG_VALUE: argon2_fill_segment_avx2:position <- [DW_OP_plus_uconst 56, DW_OP_deref, DW_OP_LLVM_fragment 32 32] $rsp
	#DEBUG_VALUE: argon2_fill_segment_avx2:position <- [DW_OP_plus_uconst 48, DW_OP_deref, DW_OP_LLVM_fragment 0 32] $rsp
	#DEBUG_VALUE: argon2_fill_segment_avx2:position <- [DW_OP_plus_uconst 32, DW_OP_deref, DW_OP_LLVM_fragment 64 8] $rsp
	#DEBUG_VALUE: argon2_fill_segment_avx2:position <- [DW_OP_LLVM_fragment 96 32] $r13
	#DEBUG_VALUE: argon2_fill_segment_avx2:i <- $r13
	#DEBUG_VALUE: argon2_fill_segment_avx2:curr_offset <- $r12d
	#DEBUG_VALUE: argon2_fill_segment_avx2:prev_offset <- $ebx
	#DEBUG_VALUE: argon2_fill_segment_avx2:pseudo_rand <- $rsi
	#DEBUG_VALUE: argon2_fill_segment_avx2:ref_lane <- $rcx
	#DEBUG_VALUE: index_alpha:instance <- [DW_OP_plus_uconst 64, DW_OP_deref] $rsp
	#DEBUG_VALUE: index_alpha:pseudo_rand <- [DW_OP_LLVM_convert 64 7, DW_OP_LLVM_convert 32 7, DW_OP_stack_value] $rsi
	#DEBUG_VALUE: index_alpha:reference_area_size <- $edx
	#DEBUG_VALUE: index_alpha:relative_position <- [DW_OP_LLVM_arg 0, DW_OP_constu 1, DW_OP_minus, DW_OP_LLVM_convert 32 7, DW_OP_LLVM_convert 64 7, DW_OP_LLVM_arg 1, DW_OP_LLVM_convert 64 7, DW_OP_LLVM_convert 32 7, DW_OP_LLVM_convert 32 7, DW_OP_LLVM_convert 64 7, DW_OP_LLVM_arg 3, DW_OP_LLVM_convert 64 7, DW_OP_LLVM_convert 32 7, DW_OP_LLVM_convert 32 7, DW_OP_LLVM_convert 64 7, DW_OP_mul, DW_OP_constu 32, DW_OP_shr, DW_OP_LLVM_arg 2, DW_OP_LLVM_convert 32 7, DW_OP_LLVM_convert 64 7, DW_OP_mul, DW_OP_constu 32, DW_OP_shr, DW_OP_minus, DW_OP_stack_value] $edx, $rsi, $edx, $rsi
	#DEBUG_VALUE: index_alpha:start_position <- 0
	.loc	2 201 54                        # crypto_pwhash/argon2/argon2-core.h:201:54 @[ crypto_pwhash/argon2/argon2-fill-block-avx2.c:222:21 ]
	imull	84(%rsp), %r14d                 # 4-byte Folded Reload
	jmp	.LBB0_31
.Ltmp86:
.LBB0_28:                               #   in Loop: Header=BB0_15 Depth=1
	#DEBUG_VALUE: argon2_fill_segment_avx2:position <- [DW_OP_plus_uconst 32, DW_OP_deref_size 8, DW_OP_constu 8, DW_OP_shr, DW_OP_LLVM_convert 64 7, DW_OP_LLVM_convert 24 7, DW_OP_stack_value, DW_OP_LLVM_fragment 72 24] $rsp
	#DEBUG_VALUE: argon2_fill_segment_avx2:instance <- [DW_OP_plus_uconst 64] [$rsp+0]
	#DEBUG_VALUE: argon2_fill_segment_avx2:position <- [DW_OP_plus_uconst 56, DW_OP_deref, DW_OP_LLVM_fragment 32 32] $rsp
	#DEBUG_VALUE: argon2_fill_segment_avx2:position <- [DW_OP_plus_uconst 48, DW_OP_deref, DW_OP_LLVM_fragment 0 32] $rsp
	#DEBUG_VALUE: argon2_fill_segment_avx2:position <- [DW_OP_plus_uconst 32, DW_OP_deref, DW_OP_LLVM_fragment 64 8] $rsp
	#DEBUG_VALUE: argon2_fill_segment_avx2:position <- [DW_OP_LLVM_fragment 96 32] $r13
	#DEBUG_VALUE: argon2_fill_segment_avx2:i <- $r13
	#DEBUG_VALUE: argon2_fill_segment_avx2:curr_offset <- $r12d
	#DEBUG_VALUE: argon2_fill_segment_avx2:prev_offset <- $ebx
	#DEBUG_VALUE: argon2_fill_segment_avx2:pseudo_rand <- $rsi
	#DEBUG_VALUE: argon2_fill_segment_avx2:ref_lane <- $rcx
	#DEBUG_VALUE: index_alpha:instance <- [DW_OP_plus_uconst 64, DW_OP_deref] $rsp
	#DEBUG_VALUE: index_alpha:pseudo_rand <- [DW_OP_LLVM_convert 64 7, DW_OP_LLVM_convert 32 7, DW_OP_stack_value] $rsi
	.loc	2 162 33                        # crypto_pwhash/argon2/argon2-core.h:162:33 @[ crypto_pwhash/argon2/argon2-fill-block-avx2.c:222:21 ]
	leal	-1(%r13), %edx
.Ltmp87:
	#DEBUG_VALUE: index_alpha:reference_area_size <- $edx
	.loc	2 0 33 is_stmt 0                # crypto_pwhash/argon2/argon2-core.h:0:33
	jmp	.LBB0_30
.Ltmp88:
.LBB0_29:                               #   in Loop: Header=BB0_15 Depth=1
	#DEBUG_VALUE: argon2_fill_segment_avx2:position <- [DW_OP_plus_uconst 32, DW_OP_deref_size 8, DW_OP_constu 8, DW_OP_shr, DW_OP_LLVM_convert 64 7, DW_OP_LLVM_convert 24 7, DW_OP_stack_value, DW_OP_LLVM_fragment 72 24] $rsp
	#DEBUG_VALUE: argon2_fill_segment_avx2:instance <- [DW_OP_plus_uconst 64] [$rsp+0]
	#DEBUG_VALUE: argon2_fill_segment_avx2:position <- [DW_OP_plus_uconst 56, DW_OP_deref, DW_OP_LLVM_fragment 32 32] $rsp
	#DEBUG_VALUE: argon2_fill_segment_avx2:position <- [DW_OP_plus_uconst 48, DW_OP_deref, DW_OP_LLVM_fragment 0 32] $rsp
	#DEBUG_VALUE: argon2_fill_segment_avx2:position <- [DW_OP_plus_uconst 32, DW_OP_deref, DW_OP_LLVM_fragment 64 8] $rsp
	#DEBUG_VALUE: argon2_fill_segment_avx2:position <- [DW_OP_LLVM_fragment 96 32] $r13
	#DEBUG_VALUE: argon2_fill_segment_avx2:i <- $r13
	#DEBUG_VALUE: argon2_fill_segment_avx2:curr_offset <- $r12d
	#DEBUG_VALUE: argon2_fill_segment_avx2:prev_offset <- $ebx
	#DEBUG_VALUE: argon2_fill_segment_avx2:pseudo_rand <- $rsi
	#DEBUG_VALUE: argon2_fill_segment_avx2:ref_lane <- $rcx
	#DEBUG_VALUE: index_alpha:instance <- [DW_OP_plus_uconst 64, DW_OP_deref] $rsp
	#DEBUG_VALUE: index_alpha:pseudo_rand <- [DW_OP_LLVM_convert 64 7, DW_OP_LLVM_convert 32 7, DW_OP_stack_value] $rsi
	.loc	2 171 64 is_stmt 1              # crypto_pwhash/argon2/argon2-core.h:171:64 @[ crypto_pwhash/argon2/argon2-fill-block-avx2.c:222:21 ]
	cmpq	$1, %r13
	sbbl	$0, %r14d
.Ltmp89:
	#DEBUG_VALUE: index_alpha:reference_area_size <- $r14d
	.loc	2 0 64 is_stmt 0                # crypto_pwhash/argon2/argon2-core.h:0:64
	movl	%r14d, %edx
.Ltmp90:
	.p2align	4
.LBB0_30:                               # %index_alpha.exit
                                        #   in Loop: Header=BB0_15 Depth=1
	#DEBUG_VALUE: argon2_fill_segment_avx2:position <- [DW_OP_plus_uconst 32, DW_OP_deref_size 8, DW_OP_constu 8, DW_OP_shr, DW_OP_LLVM_convert 64 7, DW_OP_LLVM_convert 24 7, DW_OP_stack_value, DW_OP_LLVM_fragment 72 24] $rsp
	#DEBUG_VALUE: argon2_fill_segment_avx2:instance <- [DW_OP_plus_uconst 64] [$rsp+0]
	#DEBUG_VALUE: argon2_fill_segment_avx2:position <- [DW_OP_plus_uconst 56, DW_OP_deref, DW_OP_LLVM_fragment 32 32] $rsp
	#DEBUG_VALUE: argon2_fill_segment_avx2:position <- [DW_OP_plus_uconst 48, DW_OP_deref, DW_OP_LLVM_fragment 0 32] $rsp
	#DEBUG_VALUE: argon2_fill_segment_avx2:position <- [DW_OP_plus_uconst 32, DW_OP_deref, DW_OP_LLVM_fragment 64 8] $rsp
	#DEBUG_VALUE: argon2_fill_segment_avx2:position <- [DW_OP_LLVM_fragment 96 32] $r13
	#DEBUG_VALUE: argon2_fill_segment_avx2:i <- $r13
	#DEBUG_VALUE: argon2_fill_segment_avx2:curr_offset <- $r12d
	#DEBUG_VALUE: argon2_fill_segment_avx2:prev_offset <- $ebx
	#DEBUG_VALUE: argon2_fill_segment_avx2:pseudo_rand <- $rsi
	#DEBUG_VALUE: argon2_fill_segment_avx2:ref_lane <- $rcx
	#DEBUG_VALUE: index_alpha:instance <- [DW_OP_plus_uconst 64, DW_OP_deref] $rsp
	#DEBUG_VALUE: index_alpha:pseudo_rand <- [DW_OP_LLVM_convert 64 7, DW_OP_LLVM_convert 32 7, DW_OP_stack_value] $rsi
	#DEBUG_VALUE: index_alpha:reference_area_size <- $edx
	xorl	%r14d, %r14d
.Ltmp91:
.LBB0_31:                               # %index_alpha.exit
                                        #   in Loop: Header=BB0_15 Depth=1
	#DEBUG_VALUE: argon2_fill_segment_avx2:position <- [DW_OP_plus_uconst 32, DW_OP_deref_size 8, DW_OP_constu 8, DW_OP_shr, DW_OP_LLVM_convert 64 7, DW_OP_LLVM_convert 24 7, DW_OP_stack_value, DW_OP_LLVM_fragment 72 24] $rsp
	#DEBUG_VALUE: argon2_fill_segment_avx2:instance <- [DW_OP_plus_uconst 64] [$rsp+0]
	#DEBUG_VALUE: argon2_fill_segment_avx2:position <- [DW_OP_plus_uconst 56, DW_OP_deref, DW_OP_LLVM_fragment 32 32] $rsp
	#DEBUG_VALUE: argon2_fill_segment_avx2:position <- [DW_OP_plus_uconst 48, DW_OP_deref, DW_OP_LLVM_fragment 0 32] $rsp
	#DEBUG_VALUE: argon2_fill_segment_avx2:position <- [DW_OP_plus_uconst 32, DW_OP_deref, DW_OP_LLVM_fragment 64 8] $rsp
	#DEBUG_VALUE: argon2_fill_segment_avx2:position <- [DW_OP_LLVM_fragment 96 32] $r13
	#DEBUG_VALUE: argon2_fill_segment_avx2:i <- $r13
	#DEBUG_VALUE: argon2_fill_segment_avx2:curr_offset <- $r12d
	#DEBUG_VALUE: argon2_fill_segment_avx2:prev_offset <- $ebx
	#DEBUG_VALUE: argon2_fill_segment_avx2:pseudo_rand <- $rsi
	#DEBUG_VALUE: argon2_fill_segment_avx2:ref_lane <- $rcx
	#DEBUG_VALUE: index_alpha:instance <- [DW_OP_plus_uconst 64, DW_OP_deref] $rsp
	#DEBUG_VALUE: index_alpha:pseudo_rand <- [DW_OP_LLVM_convert 64 7, DW_OP_LLVM_convert 32 7, DW_OP_stack_value] $rsi
	#DEBUG_VALUE: index_alpha:reference_area_size <- $edx
	.loc	2 192 45 is_stmt 1              # crypto_pwhash/argon2/argon2-core.h:192:45 @[ crypto_pwhash/argon2/argon2-fill-block-avx2.c:222:21 ]
	leal	-1(%rdx), %eax
.Ltmp92:
	#DEBUG_VALUE: index_alpha:relative_position <- [DW_OP_LLVM_arg 0, DW_OP_LLVM_convert 32 7, DW_OP_LLVM_convert 64 7, DW_OP_LLVM_arg 1, DW_OP_LLVM_convert 64 7, DW_OP_LLVM_convert 32 7, DW_OP_LLVM_convert 32 7, DW_OP_LLVM_convert 64 7, DW_OP_LLVM_arg 3, DW_OP_LLVM_convert 64 7, DW_OP_LLVM_convert 32 7, DW_OP_LLVM_convert 32 7, DW_OP_LLVM_convert 64 7, DW_OP_mul, DW_OP_constu 32, DW_OP_shr, DW_OP_LLVM_arg 2, DW_OP_LLVM_convert 32 7, DW_OP_LLVM_convert 64 7, DW_OP_mul, DW_OP_constu 32, DW_OP_shr, DW_OP_minus, DW_OP_stack_value] $eax, $rsi, $edx, $rsi
	#DEBUG_VALUE: index_alpha:relative_position <- [DW_OP_LLVM_arg 0, DW_OP_LLVM_arg 1, DW_OP_LLVM_convert 64 7, DW_OP_LLVM_convert 32 7, DW_OP_LLVM_convert 32 7, DW_OP_LLVM_convert 64 7, DW_OP_LLVM_arg 3, DW_OP_LLVM_convert 64 7, DW_OP_LLVM_convert 32 7, DW_OP_LLVM_convert 32 7, DW_OP_LLVM_convert 64 7, DW_OP_mul, DW_OP_constu 32, DW_OP_shr, DW_OP_LLVM_arg 2, DW_OP_LLVM_convert 32 7, DW_OP_LLVM_convert 64 7, DW_OP_mul, DW_OP_constu 32, DW_OP_shr, DW_OP_minus, DW_OP_stack_value] $eax, $rsi, $edx, $rsi
	.loc	2 192 49 is_stmt 0              # crypto_pwhash/argon2/argon2-core.h:192:49 @[ crypto_pwhash/argon2/argon2-fill-block-avx2.c:222:21 ]
	addq	%r14, %rax
.Ltmp93:
	.loc	2 190 25 is_stmt 1              # crypto_pwhash/argon2/argon2-core.h:190:25 @[ crypto_pwhash/argon2/argon2-fill-block-avx2.c:222:21 ]
	movl	%esi, %esi
.Ltmp94:
	#DEBUG_VALUE: index_alpha:relative_position <- [DW_OP_LLVM_arg 0, DW_OP_LLVM_arg 1, DW_OP_LLVM_arg 3, DW_OP_mul, DW_OP_constu 32, DW_OP_shr, DW_OP_LLVM_arg 2, DW_OP_LLVM_convert 32 7, DW_OP_LLVM_convert 64 7, DW_OP_mul, DW_OP_constu 32, DW_OP_shr, DW_OP_minus, DW_OP_stack_value] undef, undef, undef, undef
	.loc	2 191 43                        # crypto_pwhash/argon2/argon2-core.h:191:43 @[ crypto_pwhash/argon2/argon2-fill-block-avx2.c:222:21 ]
	imulq	%rsi, %rsi
.Ltmp95:
	#DEBUG_VALUE: index_alpha:relative_position <- [DW_OP_LLVM_arg 0, DW_OP_LLVM_arg 1, DW_OP_constu 32, DW_OP_shr, DW_OP_LLVM_arg 2, DW_OP_LLVM_convert 32 7, DW_OP_LLVM_convert 64 7, DW_OP_mul, DW_OP_constu 32, DW_OP_shr, DW_OP_minus, DW_OP_stack_value] undef, undef, undef
	.loc	2 191 63 is_stmt 0              # crypto_pwhash/argon2/argon2-core.h:191:63 @[ crypto_pwhash/argon2/argon2-fill-block-avx2.c:222:21 ]
	shrq	$32, %rsi
.Ltmp96:
	#DEBUG_VALUE: index_alpha:relative_position <- [DW_OP_LLVM_arg 0, DW_OP_LLVM_arg 1, DW_OP_LLVM_arg 2, DW_OP_LLVM_convert 32 7, DW_OP_LLVM_convert 64 7, DW_OP_mul, DW_OP_constu 32, DW_OP_shr, DW_OP_minus, DW_OP_stack_value] undef, undef, undef
	.loc	2 193 26 is_stmt 1              # crypto_pwhash/argon2/argon2-core.h:193:26 @[ crypto_pwhash/argon2/argon2-fill-block-avx2.c:222:21 ]
	movl	%edx, %edx
.Ltmp97:
	#DEBUG_VALUE: index_alpha:relative_position <- [DW_OP_LLVM_arg 0, DW_OP_LLVM_arg 1, DW_OP_LLVM_arg 2, DW_OP_mul, DW_OP_constu 32, DW_OP_shr, DW_OP_minus, DW_OP_stack_value] undef, undef, undef
	.loc	2 193 46 is_stmt 0              # crypto_pwhash/argon2/argon2-core.h:193:46 @[ crypto_pwhash/argon2/argon2-fill-block-avx2.c:222:21 ]
	imulq	%rsi, %rdx
.Ltmp98:
	#DEBUG_VALUE: index_alpha:relative_position <- [DW_OP_LLVM_arg 0, DW_OP_LLVM_arg 1, DW_OP_constu 32, DW_OP_shr, DW_OP_minus, DW_OP_stack_value] undef, undef
	.loc	2 193 66                        # crypto_pwhash/argon2/argon2-core.h:193:66 @[ crypto_pwhash/argon2/argon2-fill-block-avx2.c:222:21 ]
	shrq	$32, %rdx
.Ltmp99:
	#DEBUG_VALUE: index_alpha:relative_position <- undef
	#DEBUG_VALUE: index_alpha:start_position <- $r14
	.loc	2 205 41 is_stmt 1              # crypto_pwhash/argon2/argon2-core.h:205:41 @[ crypto_pwhash/argon2/argon2-fill-block-avx2.c:222:21 ]
	subq	%rdx, %rax
	.loc	2 205 62 is_stmt 0              # crypto_pwhash/argon2/argon2-core.h:205:62 @[ crypto_pwhash/argon2/argon2-fill-block-avx2.c:222:21 ]
	movq	%rax, %rdx
	shrq	$32, %rdx
	je	.LBB0_33
.Ltmp100:
# %bb.32:                               #   in Loop: Header=BB0_15 Depth=1
	#DEBUG_VALUE: argon2_fill_segment_avx2:position <- [DW_OP_plus_uconst 32, DW_OP_deref_size 8, DW_OP_constu 8, DW_OP_shr, DW_OP_LLVM_convert 64 7, DW_OP_LLVM_convert 24 7, DW_OP_stack_value, DW_OP_LLVM_fragment 72 24] $rsp
	#DEBUG_VALUE: argon2_fill_segment_avx2:instance <- [DW_OP_plus_uconst 64] [$rsp+0]
	#DEBUG_VALUE: argon2_fill_segment_avx2:position <- [DW_OP_plus_uconst 56, DW_OP_deref, DW_OP_LLVM_fragment 32 32] $rsp
	#DEBUG_VALUE: argon2_fill_segment_avx2:position <- [DW_OP_plus_uconst 48, DW_OP_deref, DW_OP_LLVM_fragment 0 32] $rsp
	#DEBUG_VALUE: argon2_fill_segment_avx2:position <- [DW_OP_plus_uconst 32, DW_OP_deref, DW_OP_LLVM_fragment 64 8] $rsp
	#DEBUG_VALUE: argon2_fill_segment_avx2:position <- [DW_OP_LLVM_fragment 96 32] $r13
	#DEBUG_VALUE: argon2_fill_segment_avx2:i <- $r13
	#DEBUG_VALUE: argon2_fill_segment_avx2:curr_offset <- $r12d
	#DEBUG_VALUE: argon2_fill_segment_avx2:prev_offset <- $ebx
	#DEBUG_VALUE: argon2_fill_segment_avx2:ref_lane <- $rcx
	#DEBUG_VALUE: index_alpha:instance <- [DW_OP_plus_uconst 64, DW_OP_deref] $rsp
	#DEBUG_VALUE: index_alpha:start_position <- $r14
	xorl	%edx, %edx
	divq	%rdi
	movq	%rdx, %rsi
	jmp	.LBB0_34
.Ltmp101:
	.loc	2 0 62                          # :0:62
.Ltmp102:
	.p2align	4
.LBB0_33:                               #   in Loop: Header=BB0_15 Depth=1
	#DEBUG_VALUE: argon2_fill_segment_avx2:position <- [DW_OP_plus_uconst 32, DW_OP_deref_size 8, DW_OP_constu 8, DW_OP_shr, DW_OP_LLVM_convert 64 7, DW_OP_LLVM_convert 24 7, DW_OP_stack_value, DW_OP_LLVM_fragment 72 24] $rsp
	#DEBUG_VALUE: argon2_fill_segment_avx2:instance <- [DW_OP_plus_uconst 64] [$rsp+0]
	#DEBUG_VALUE: argon2_fill_segment_avx2:position <- [DW_OP_plus_uconst 56, DW_OP_deref, DW_OP_LLVM_fragment 32 32] $rsp
	#DEBUG_VALUE: argon2_fill_segment_avx2:position <- [DW_OP_plus_uconst 48, DW_OP_deref, DW_OP_LLVM_fragment 0 32] $rsp
	#DEBUG_VALUE: argon2_fill_segment_avx2:position <- [DW_OP_plus_uconst 32, DW_OP_deref, DW_OP_LLVM_fragment 64 8] $rsp
	#DEBUG_VALUE: argon2_fill_segment_avx2:position <- [DW_OP_LLVM_fragment 96 32] $r13
	#DEBUG_VALUE: argon2_fill_segment_avx2:i <- $r13
	#DEBUG_VALUE: argon2_fill_segment_avx2:curr_offset <- $r12d
	#DEBUG_VALUE: argon2_fill_segment_avx2:prev_offset <- $ebx
	#DEBUG_VALUE: argon2_fill_segment_avx2:ref_lane <- $rcx
	#DEBUG_VALUE: index_alpha:instance <- [DW_OP_plus_uconst 64, DW_OP_deref] $rsp
	#DEBUG_VALUE: index_alpha:start_position <- $r14
                                        # kill: def $eax killed $eax killed $rax
	.loc	2 205 62                        # crypto_pwhash/argon2/argon2-core.h:205:62 @[ crypto_pwhash/argon2/argon2-fill-block-avx2.c:222:21 ]
	xorl	%edx, %edx
	divl	%edi
	movl	%edx, %esi
.Ltmp103:
.LBB0_34:                               #   in Loop: Header=BB0_15 Depth=1
	#DEBUG_VALUE: argon2_fill_segment_avx2:position <- [DW_OP_plus_uconst 32, DW_OP_deref_size 8, DW_OP_constu 8, DW_OP_shr, DW_OP_LLVM_convert 64 7, DW_OP_LLVM_convert 24 7, DW_OP_stack_value, DW_OP_LLVM_fragment 72 24] $rsp
	#DEBUG_VALUE: argon2_fill_segment_avx2:instance <- [DW_OP_plus_uconst 64] [$rsp+0]
	#DEBUG_VALUE: argon2_fill_segment_avx2:position <- [DW_OP_plus_uconst 56, DW_OP_deref, DW_OP_LLVM_fragment 32 32] $rsp
	#DEBUG_VALUE: argon2_fill_segment_avx2:position <- [DW_OP_plus_uconst 48, DW_OP_deref, DW_OP_LLVM_fragment 0 32] $rsp
	#DEBUG_VALUE: argon2_fill_segment_avx2:position <- [DW_OP_plus_uconst 32, DW_OP_deref, DW_OP_LLVM_fragment 64 8] $rsp
	#DEBUG_VALUE: argon2_fill_segment_avx2:position <- [DW_OP_LLVM_fragment 96 32] $r13
	#DEBUG_VALUE: argon2_fill_segment_avx2:i <- $r13
	#DEBUG_VALUE: argon2_fill_segment_avx2:curr_offset <- $r12d
	#DEBUG_VALUE: argon2_fill_segment_avx2:prev_offset <- $ebx
	#DEBUG_VALUE: argon2_fill_segment_avx2:ref_lane <- $rcx
	#DEBUG_VALUE: index_alpha:instance <- [DW_OP_plus_uconst 64, DW_OP_deref] $rsp
	#DEBUG_VALUE: index_alpha:start_position <- $r14
	.loc	6 0 0                           # crypto_pwhash/argon2/argon2-fill-block-avx2.c:0
	movl	%r12d, %eax
	#DEBUG_VALUE: index_alpha:absolute_position <- $rsi
.Ltmp104:
	#DEBUG_VALUE: argon2_fill_segment_avx2:ref_index <- $rsi
	.loc	6 226 31 is_stmt 1              # crypto_pwhash/argon2/argon2-fill-block-avx2.c:226:31
	movq	(%r10), %rdx
	.loc	6 226 39 is_stmt 0              # crypto_pwhash/argon2/argon2-fill-block-avx2.c:226:39
	movq	8(%rdx), %rdx
	.loc	6 227 43 is_stmt 1              # crypto_pwhash/argon2/argon2-fill-block-avx2.c:227:43
	imulq	%rdi, %rcx
.Ltmp105:
	.loc	6 226 46                        # crypto_pwhash/argon2/argon2-fill-block-avx2.c:226:46
	shlq	$10, %rcx
	addq	%rdx, %rcx
	.loc	6 227 54                        # crypto_pwhash/argon2/argon2-fill-block-avx2.c:227:54
	shlq	$10, %rsi
.Ltmp106:
	addq	%rcx, %rsi
.Ltmp107:
	#DEBUG_VALUE: argon2_fill_segment_avx2:ref_block <- $rsi
	#DEBUG_VALUE: argon2_fill_segment_avx2:curr_block <- undef
	.loc	6 0 0 is_stmt 0                 # crypto_pwhash/argon2/argon2-fill-block-avx2.c:0
	shlq	$10, %rax
.Ltmp108:
	#DEBUG_VALUE: fill_block:block_XY <- [DW_OP_plus_uconst 1120, DW_OP_deref] $rsp
	#DEBUG_VALUE: fill_block:state <- [DW_OP_plus_uconst 96, DW_OP_stack_value] $rsp
	#DEBUG_VALUE: fill_block:ref_block <- $rsi
	#DEBUG_VALUE: fill_block:next_block <- undef
	.loc	6 173 12 is_stmt 1              # crypto_pwhash/argon2/argon2-fill-block-avx2.c:173:12
	testl	%r9d, %r9d
.Ltmp109:
	.loc	6 229 27                        # crypto_pwhash/argon2/argon2-fill-block-avx2.c:229:27
	jne	.LBB0_13
.Ltmp110:
# %bb.35:                               #   in Loop: Header=BB0_15 Depth=1
	#DEBUG_VALUE: argon2_fill_segment_avx2:position <- [DW_OP_plus_uconst 32, DW_OP_deref_size 8, DW_OP_constu 8, DW_OP_shr, DW_OP_LLVM_convert 64 7, DW_OP_LLVM_convert 24 7, DW_OP_stack_value, DW_OP_LLVM_fragment 72 24] $rsp
	#DEBUG_VALUE: argon2_fill_segment_avx2:instance <- [DW_OP_plus_uconst 64] [$rsp+0]
	#DEBUG_VALUE: argon2_fill_segment_avx2:position <- [DW_OP_plus_uconst 56, DW_OP_deref, DW_OP_LLVM_fragment 32 32] $rsp
	#DEBUG_VALUE: argon2_fill_segment_avx2:position <- [DW_OP_plus_uconst 48, DW_OP_deref, DW_OP_LLVM_fragment 0 32] $rsp
	#DEBUG_VALUE: argon2_fill_segment_avx2:position <- [DW_OP_plus_uconst 32, DW_OP_deref, DW_OP_LLVM_fragment 64 8] $rsp
	#DEBUG_VALUE: argon2_fill_segment_avx2:position <- [DW_OP_LLVM_fragment 96 32] $r13
	#DEBUG_VALUE: argon2_fill_segment_avx2:ref_block <- $rsi
	#DEBUG_VALUE: argon2_fill_segment_avx2:i <- $r13
	#DEBUG_VALUE: argon2_fill_segment_avx2:curr_offset <- $r12d
	#DEBUG_VALUE: argon2_fill_segment_avx2:prev_offset <- $ebx
	#DEBUG_VALUE: index_alpha:instance <- [DW_OP_plus_uconst 64, DW_OP_deref] $rsp
	#DEBUG_VALUE: index_alpha:start_position <- $r14
	#DEBUG_VALUE: fill_block:block_XY <- [DW_OP_plus_uconst 1120, DW_OP_deref] $rsp
	#DEBUG_VALUE: fill_block:state <- [DW_OP_plus_uconst 96, DW_OP_stack_value] $rsp
	#DEBUG_VALUE: fill_block:ref_block <- $rsi
	.loc	6 0 27 is_stmt 0                # crypto_pwhash/argon2/argon2-fill-block-avx2.c:0:27
	movl	$32, %ecx
	#DEBUG_VALUE: fill_block:i <- 0
	xorl	%edi, %edi
.Ltmp111:
	.p2align	4
.LBB0_36:                               #   Parent Loop BB0_15 Depth=1
                                        # =>  This Inner Loop Header: Depth=2
	#DEBUG_VALUE: argon2_fill_segment_avx2:position <- [DW_OP_plus_uconst 32, DW_OP_deref_size 8, DW_OP_constu 8, DW_OP_shr, DW_OP_LLVM_convert 64 7, DW_OP_LLVM_convert 24 7, DW_OP_stack_value, DW_OP_LLVM_fragment 72 24] $rsp
	#DEBUG_VALUE: argon2_fill_segment_avx2:instance <- [DW_OP_plus_uconst 64] [$rsp+0]
	#DEBUG_VALUE: argon2_fill_segment_avx2:position <- [DW_OP_plus_uconst 56, DW_OP_deref, DW_OP_LLVM_fragment 32 32] $rsp
	#DEBUG_VALUE: argon2_fill_segment_avx2:position <- [DW_OP_plus_uconst 48, DW_OP_deref, DW_OP_LLVM_fragment 0 32] $rsp
	#DEBUG_VALUE: argon2_fill_segment_avx2:position <- [DW_OP_plus_uconst 32, DW_OP_deref, DW_OP_LLVM_fragment 64 8] $rsp
	#DEBUG_VALUE: argon2_fill_segment_avx2:position <- [DW_OP_LLVM_fragment 96 32] $r13
	#DEBUG_VALUE: argon2_fill_segment_avx2:ref_block <- $rsi
	#DEBUG_VALUE: argon2_fill_segment_avx2:i <- $r13
	#DEBUG_VALUE: argon2_fill_segment_avx2:curr_offset <- $r12d
	#DEBUG_VALUE: argon2_fill_segment_avx2:prev_offset <- $ebx
	#DEBUG_VALUE: fill_block:block_XY <- [DW_OP_plus_uconst 1120, DW_OP_deref] $rsp
	#DEBUG_VALUE: fill_block:state <- [DW_OP_plus_uconst 96, DW_OP_stack_value] $rsp
	#DEBUG_VALUE: fill_block:ref_block <- $rsi
	#DEBUG_VALUE: fill_block:i <- $rdi
	.loc	6 50 75 is_stmt 1               # crypto_pwhash/argon2/argon2-fill-block-avx2.c:50:75 @[ crypto_pwhash/argon2/argon2-fill-block-avx2.c:233:13 ]
	movq	%rdi, %r8
	shlq	$5, %r8
	.loc	6 50 23 is_stmt 0               # crypto_pwhash/argon2/argon2-fill-block-avx2.c:50:23 @[ crypto_pwhash/argon2/argon2-fill-block-avx2.c:233:13 ]
	vmovups	(%rsi,%r8), %ymm0
	.loc	6 49 34 is_stmt 1               # crypto_pwhash/argon2/argon2-fill-block-avx2.c:49:34 @[ crypto_pwhash/argon2/argon2-fill-block-avx2.c:233:13 ]
	vxorps	64(%rsp,%rcx), %ymm0, %ymm0
	.loc	6 49 32 is_stmt 0               # crypto_pwhash/argon2/argon2-fill-block-avx2.c:49:32 @[ crypto_pwhash/argon2/argon2-fill-block-avx2.c:233:13 ]
	vmovaps	%ymm0, 64(%rsp,%rcx)
	.loc	6 49 21                         # crypto_pwhash/argon2/argon2-fill-block-avx2.c:49:21 @[ crypto_pwhash/argon2/argon2-fill-block-avx2.c:233:13 ]
	vmovaps	%ymm0, 1088(%rsp,%rcx)
.Ltmp112:
	#DEBUG_VALUE: fill_block:i <- undef
	.loc	6 50 23 is_stmt 1               # crypto_pwhash/argon2/argon2-fill-block-avx2.c:50:23 @[ crypto_pwhash/argon2/argon2-fill-block-avx2.c:233:13 ]
	vmovdqu	32(%rsi,%r8), %ymm0
	.loc	6 49 34                         # crypto_pwhash/argon2/argon2-fill-block-avx2.c:49:34 @[ crypto_pwhash/argon2/argon2-fill-block-avx2.c:233:13 ]
	vpxor	96(%rsp,%rcx), %ymm0, %ymm0
	.loc	6 49 32 is_stmt 0               # crypto_pwhash/argon2/argon2-fill-block-avx2.c:49:32 @[ crypto_pwhash/argon2/argon2-fill-block-avx2.c:233:13 ]
	vmovdqa	%ymm0, 96(%rsp,%rcx)
	.loc	6 49 21                         # crypto_pwhash/argon2/argon2-fill-block-avx2.c:49:21 @[ crypto_pwhash/argon2/argon2-fill-block-avx2.c:233:13 ]
	vmovdqa	%ymm0, 1120(%rsp,%rcx)
.Ltmp113:
	.loc	6 48 46 is_stmt 1               # crypto_pwhash/argon2/argon2-fill-block-avx2.c:48:46 @[ crypto_pwhash/argon2/argon2-fill-block-avx2.c:233:13 ]
	addq	$2, %rdi
.Ltmp114:
	#DEBUG_VALUE: fill_block:i <- $rdi
	.loc	6 48 19 is_stmt 0               # crypto_pwhash/argon2/argon2-fill-block-avx2.c:48:19 @[ crypto_pwhash/argon2/argon2-fill-block-avx2.c:233:13 ]
	addq	$64, %rcx
	cmpq	$1056, %rcx                     # imm = 0x420
.Ltmp115:
	.loc	6 48 5                          # crypto_pwhash/argon2/argon2-fill-block-avx2.c:48:5 @[ crypto_pwhash/argon2/argon2-fill-block-avx2.c:233:13 ]
	jne	.LBB0_36
.Ltmp116:
# %bb.37:                               # %.preheader917.i.preheader
                                        #   in Loop: Header=BB0_15 Depth=1
	#DEBUG_VALUE: argon2_fill_segment_avx2:position <- [DW_OP_plus_uconst 32, DW_OP_deref_size 8, DW_OP_constu 8, DW_OP_shr, DW_OP_LLVM_convert 64 7, DW_OP_LLVM_convert 24 7, DW_OP_stack_value, DW_OP_LLVM_fragment 72 24] $rsp
	#DEBUG_VALUE: argon2_fill_segment_avx2:instance <- [DW_OP_plus_uconst 64] [$rsp+0]
	#DEBUG_VALUE: argon2_fill_segment_avx2:position <- [DW_OP_plus_uconst 56, DW_OP_deref, DW_OP_LLVM_fragment 32 32] $rsp
	#DEBUG_VALUE: argon2_fill_segment_avx2:position <- [DW_OP_plus_uconst 48, DW_OP_deref, DW_OP_LLVM_fragment 0 32] $rsp
	#DEBUG_VALUE: argon2_fill_segment_avx2:position <- [DW_OP_plus_uconst 32, DW_OP_deref, DW_OP_LLVM_fragment 64 8] $rsp
	#DEBUG_VALUE: argon2_fill_segment_avx2:position <- [DW_OP_LLVM_fragment 96 32] $r13
	#DEBUG_VALUE: argon2_fill_segment_avx2:ref_block <- $rsi
	#DEBUG_VALUE: argon2_fill_segment_avx2:i <- $r13
	#DEBUG_VALUE: argon2_fill_segment_avx2:curr_offset <- $r12d
	#DEBUG_VALUE: argon2_fill_segment_avx2:prev_offset <- $ebx
	#DEBUG_VALUE: fill_block:block_XY <- [DW_OP_plus_uconst 1120, DW_OP_deref] $rsp
	#DEBUG_VALUE: fill_block:state <- [DW_OP_plus_uconst 96, DW_OP_stack_value] $rsp
	#DEBUG_VALUE: fill_block:ref_block <- $rsi
	#DEBUG_VALUE: fill_block:i <- $rdi
	.loc	6 0 5                           # crypto_pwhash/argon2/argon2-fill-block-avx2.c:0:5
	xorl	%ecx, %ecx
.Ltmp117:
	.p2align	4
.LBB0_38:                               # %.preheader917.i
                                        #   Parent Loop BB0_15 Depth=1
                                        # =>  This Inner Loop Header: Depth=2
	#DEBUG_VALUE: argon2_fill_segment_avx2:position <- [DW_OP_plus_uconst 32, DW_OP_deref_size 8, DW_OP_constu 8, DW_OP_shr, DW_OP_LLVM_convert 64 7, DW_OP_LLVM_convert 24 7, DW_OP_stack_value, DW_OP_LLVM_fragment 72 24] $rsp
	#DEBUG_VALUE: argon2_fill_segment_avx2:instance <- [DW_OP_plus_uconst 64] [$rsp+0]
	#DEBUG_VALUE: argon2_fill_segment_avx2:position <- [DW_OP_plus_uconst 56, DW_OP_deref, DW_OP_LLVM_fragment 32 32] $rsp
	#DEBUG_VALUE: argon2_fill_segment_avx2:position <- [DW_OP_plus_uconst 48, DW_OP_deref, DW_OP_LLVM_fragment 0 32] $rsp
	#DEBUG_VALUE: argon2_fill_segment_avx2:position <- [DW_OP_plus_uconst 32, DW_OP_deref, DW_OP_LLVM_fragment 64 8] $rsp
	#DEBUG_VALUE: argon2_fill_segment_avx2:position <- [DW_OP_LLVM_fragment 96 32] $r13
	#DEBUG_VALUE: argon2_fill_segment_avx2:ref_block <- $rsi
	#DEBUG_VALUE: argon2_fill_segment_avx2:i <- $r13
	#DEBUG_VALUE: argon2_fill_segment_avx2:curr_offset <- $r12d
	#DEBUG_VALUE: argon2_fill_segment_avx2:prev_offset <- $ebx
	#DEBUG_VALUE: fill_block:block_XY <- [DW_OP_plus_uconst 1120, DW_OP_deref] $rsp
	#DEBUG_VALUE: fill_block:state <- [DW_OP_plus_uconst 96, DW_OP_stack_value] $rsp
	#DEBUG_VALUE: fill_block:ref_block <- $rsi
	#DEBUG_VALUE: fill_block:i <- [DW_OP_consts 256, DW_OP_div, DW_OP_stack_value] $rcx
	.loc	6 54 48 is_stmt 1               # crypto_pwhash/argon2/argon2-fill-block-avx2.c:54:48 @[ crypto_pwhash/argon2/argon2-fill-block-avx2.c:233:13 ]
	vmovdqa	96(%rsp,%rcx), %ymm0
	.loc	6 54 66 is_stmt 0               # crypto_pwhash/argon2/argon2-fill-block-avx2.c:54:66 @[ crypto_pwhash/argon2/argon2-fill-block-avx2.c:233:13 ]
	vmovdqa	128(%rsp,%rcx), %ymm1
	.loc	6 54 452                        # crypto_pwhash/argon2/argon2-fill-block-avx2.c:54:452 @[ crypto_pwhash/argon2/argon2-fill-block-avx2.c:233:13 ]
	vmovdqa	160(%rsp,%rcx), %ymm2
	.loc	6 54 894                        # crypto_pwhash/argon2/argon2-fill-block-avx2.c:54:894 @[ crypto_pwhash/argon2/argon2-fill-block-avx2.c:233:13 ]
	vmovdqa	224(%rsp,%rcx), %ymm3
	.loc	6 54 31                         # crypto_pwhash/argon2/argon2-fill-block-avx2.c:54:31 @[ crypto_pwhash/argon2/argon2-fill-block-avx2.c:233:13 ]
	vpmuludq	%ymm0, %ymm1, %ymm4
.Ltmp118:
	#DEBUG_VALUE: ml <- $ymm4
	.loc	6 54 90                         # crypto_pwhash/argon2/argon2-fill-block-avx2.c:54:90 @[ crypto_pwhash/argon2/argon2-fill-block-avx2.c:233:13 ]
	vpaddq	%ymm4, %ymm4, %ymm4
.Ltmp119:
	#DEBUG_VALUE: ml <- undef
	.loc	6 54 170                        # crypto_pwhash/argon2/argon2-fill-block-avx2.c:54:170 @[ crypto_pwhash/argon2/argon2-fill-block-avx2.c:233:13 ]
	vpaddq	%ymm0, %ymm1, %ymm0
	.loc	6 54 135                        # crypto_pwhash/argon2/argon2-fill-block-avx2.c:54:135 @[ crypto_pwhash/argon2/argon2-fill-block-avx2.c:233:13 ]
	vpaddq	%ymm4, %ymm0, %ymm0
	.loc	6 54 230                        # crypto_pwhash/argon2/argon2-fill-block-avx2.c:54:230 @[ crypto_pwhash/argon2/argon2-fill-block-avx2.c:233:13 ]
	vpxor	192(%rsp,%rcx), %ymm0, %ymm4
	.loc	6 54 313                        # crypto_pwhash/argon2/argon2-fill-block-avx2.c:54:313 @[ crypto_pwhash/argon2/argon2-fill-block-avx2.c:233:13 ]
	vpshufd	$177, %ymm4, %ymm4              # ymm4 = ymm4[1,0,3,2,5,4,7,6]
	.loc	6 54 435                        # crypto_pwhash/argon2/argon2-fill-block-avx2.c:54:435 @[ crypto_pwhash/argon2/argon2-fill-block-avx2.c:233:13 ]
	vpmuludq	%ymm2, %ymm4, %ymm5
.Ltmp120:
	#DEBUG_VALUE: ml <- $ymm5
	.loc	6 54 494                        # crypto_pwhash/argon2/argon2-fill-block-avx2.c:54:494 @[ crypto_pwhash/argon2/argon2-fill-block-avx2.c:233:13 ]
	vpaddq	%ymm5, %ymm5, %ymm5
.Ltmp121:
	.loc	6 54 574                        # crypto_pwhash/argon2/argon2-fill-block-avx2.c:54:574 @[ crypto_pwhash/argon2/argon2-fill-block-avx2.c:233:13 ]
	vpaddq	%ymm4, %ymm2, %ymm2
	.loc	6 54 539                        # crypto_pwhash/argon2/argon2-fill-block-avx2.c:54:539 @[ crypto_pwhash/argon2/argon2-fill-block-avx2.c:233:13 ]
	vpaddq	%ymm5, %ymm2, %ymm2
	.loc	6 54 634                        # crypto_pwhash/argon2/argon2-fill-block-avx2.c:54:634 @[ crypto_pwhash/argon2/argon2-fill-block-avx2.c:233:13 ]
	vpxor	%ymm1, %ymm2, %ymm1
	.loc	6 54 707                        # crypto_pwhash/argon2/argon2-fill-block-avx2.c:54:707 @[ crypto_pwhash/argon2/argon2-fill-block-avx2.c:233:13 ]
	vpshufb	%ymm11, %ymm1, %ymm1
	.loc	6 54 912                        # crypto_pwhash/argon2/argon2-fill-block-avx2.c:54:912 @[ crypto_pwhash/argon2/argon2-fill-block-avx2.c:233:13 ]
	vmovdqa	256(%rsp,%rcx), %ymm5
	.loc	6 54 877                        # crypto_pwhash/argon2/argon2-fill-block-avx2.c:54:877 @[ crypto_pwhash/argon2/argon2-fill-block-avx2.c:233:13 ]
	vpmuludq	%ymm3, %ymm5, %ymm6
.Ltmp122:
	#DEBUG_VALUE: ml <- $ymm6
	.loc	6 54 936                        # crypto_pwhash/argon2/argon2-fill-block-avx2.c:54:936 @[ crypto_pwhash/argon2/argon2-fill-block-avx2.c:233:13 ]
	vpaddq	%ymm6, %ymm6, %ymm6
.Ltmp123:
	.loc	6 54 1016                       # crypto_pwhash/argon2/argon2-fill-block-avx2.c:54:1016 @[ crypto_pwhash/argon2/argon2-fill-block-avx2.c:233:13 ]
	vpaddq	%ymm3, %ymm5, %ymm3
	.loc	6 54 981                        # crypto_pwhash/argon2/argon2-fill-block-avx2.c:54:981 @[ crypto_pwhash/argon2/argon2-fill-block-avx2.c:233:13 ]
	vpaddq	%ymm6, %ymm3, %ymm3
	.loc	6 54 1076                       # crypto_pwhash/argon2/argon2-fill-block-avx2.c:54:1076 @[ crypto_pwhash/argon2/argon2-fill-block-avx2.c:233:13 ]
	vpxor	320(%rsp,%rcx), %ymm3, %ymm6
	.loc	6 54 1159                       # crypto_pwhash/argon2/argon2-fill-block-avx2.c:54:1159 @[ crypto_pwhash/argon2/argon2-fill-block-avx2.c:233:13 ]
	vpshufd	$177, %ymm6, %ymm6              # ymm6 = ymm6[1,0,3,2,5,4,7,6]
	.loc	6 54 1298                       # crypto_pwhash/argon2/argon2-fill-block-avx2.c:54:1298 @[ crypto_pwhash/argon2/argon2-fill-block-avx2.c:233:13 ]
	vmovdqa	288(%rsp,%rcx), %ymm7
	.loc	6 54 1281                       # crypto_pwhash/argon2/argon2-fill-block-avx2.c:54:1281 @[ crypto_pwhash/argon2/argon2-fill-block-avx2.c:233:13 ]
	vpmuludq	%ymm7, %ymm6, %ymm8
.Ltmp124:
	#DEBUG_VALUE: ml <- $ymm8
	.loc	6 54 1340                       # crypto_pwhash/argon2/argon2-fill-block-avx2.c:54:1340 @[ crypto_pwhash/argon2/argon2-fill-block-avx2.c:233:13 ]
	vpaddq	%ymm8, %ymm8, %ymm8
.Ltmp125:
	.loc	6 54 1420                       # crypto_pwhash/argon2/argon2-fill-block-avx2.c:54:1420 @[ crypto_pwhash/argon2/argon2-fill-block-avx2.c:233:13 ]
	vpaddq	%ymm6, %ymm7, %ymm7
	.loc	6 54 1385                       # crypto_pwhash/argon2/argon2-fill-block-avx2.c:54:1385 @[ crypto_pwhash/argon2/argon2-fill-block-avx2.c:233:13 ]
	vpaddq	%ymm7, %ymm8, %ymm7
	.loc	6 54 1480                       # crypto_pwhash/argon2/argon2-fill-block-avx2.c:54:1480 @[ crypto_pwhash/argon2/argon2-fill-block-avx2.c:233:13 ]
	vpxor	%ymm5, %ymm7, %ymm5
	.loc	6 54 1553                       # crypto_pwhash/argon2/argon2-fill-block-avx2.c:54:1553 @[ crypto_pwhash/argon2/argon2-fill-block-avx2.c:233:13 ]
	vpshufb	%ymm11, %ymm5, %ymm5
.Ltmp126:
	.loc	6 54 1757                       # crypto_pwhash/argon2/argon2-fill-block-avx2.c:54:1757 @[ crypto_pwhash/argon2/argon2-fill-block-avx2.c:233:13 ]
	vpmuludq	%ymm0, %ymm1, %ymm8
.Ltmp127:
	#DEBUG_VALUE: ml <- $ymm8
	.loc	6 54 1816                       # crypto_pwhash/argon2/argon2-fill-block-avx2.c:54:1816 @[ crypto_pwhash/argon2/argon2-fill-block-avx2.c:233:13 ]
	vpaddq	%ymm8, %ymm8, %ymm8
.Ltmp128:
	#DEBUG_VALUE: ml <- undef
	.loc	6 54 1896                       # crypto_pwhash/argon2/argon2-fill-block-avx2.c:54:1896 @[ crypto_pwhash/argon2/argon2-fill-block-avx2.c:233:13 ]
	vpaddq	%ymm1, %ymm0, %ymm0
	.loc	6 54 1861                       # crypto_pwhash/argon2/argon2-fill-block-avx2.c:54:1861 @[ crypto_pwhash/argon2/argon2-fill-block-avx2.c:233:13 ]
	vpaddq	%ymm0, %ymm8, %ymm0
	.loc	6 54 2029                       # crypto_pwhash/argon2/argon2-fill-block-avx2.c:54:2029 @[ crypto_pwhash/argon2/argon2-fill-block-avx2.c:233:13 ]
	vpshuflw	$57, %ymm0, %ymm8               # ymm8 = ymm0[1,2,3,0,4,5,6,7,9,10,11,8,12,13,14,15]
	vpshufhw	$57, %ymm8, %ymm8               # ymm8 = ymm8[0,1,2,3,5,6,7,4,8,9,10,11,13,14,15,12]
	vpshuflw	$57, %ymm4, %ymm4               # ymm4 = ymm4[1,2,3,0,4,5,6,7,9,10,11,8,12,13,14,15]
	vpshufhw	$57, %ymm4, %ymm4               # ymm4 = ymm4[0,1,2,3,5,6,7,4,8,9,10,11,13,14,15,12]
	vpxor	%ymm4, %ymm8, %ymm4
	.loc	6 54 2199                       # crypto_pwhash/argon2/argon2-fill-block-avx2.c:54:2199 @[ crypto_pwhash/argon2/argon2-fill-block-avx2.c:233:13 ]
	vpmuludq	%ymm2, %ymm4, %ymm8
.Ltmp129:
	#DEBUG_VALUE: ml <- $ymm8
	.loc	6 54 2258                       # crypto_pwhash/argon2/argon2-fill-block-avx2.c:54:2258 @[ crypto_pwhash/argon2/argon2-fill-block-avx2.c:233:13 ]
	vpaddq	%ymm8, %ymm8, %ymm8
.Ltmp130:
	.loc	6 54 2338                       # crypto_pwhash/argon2/argon2-fill-block-avx2.c:54:2338 @[ crypto_pwhash/argon2/argon2-fill-block-avx2.c:233:13 ]
	vpaddq	%ymm4, %ymm2, %ymm2
	.loc	6 54 2303                       # crypto_pwhash/argon2/argon2-fill-block-avx2.c:54:2303 @[ crypto_pwhash/argon2/argon2-fill-block-avx2.c:233:13 ]
	vpaddq	%ymm2, %ymm8, %ymm2
	.loc	6 54 2398                       # crypto_pwhash/argon2/argon2-fill-block-avx2.c:54:2398 @[ crypto_pwhash/argon2/argon2-fill-block-avx2.c:233:13 ]
	vpxor	%ymm1, %ymm2, %ymm1
	.loc	6 54 2471                       # crypto_pwhash/argon2/argon2-fill-block-avx2.c:54:2471 @[ crypto_pwhash/argon2/argon2-fill-block-avx2.c:233:13 ]
	vpsrlq	$63, %ymm1, %ymm8
	vpaddq	%ymm1, %ymm1, %ymm1
	vpor	%ymm1, %ymm8, %ymm8
	.loc	6 54 2595                       # crypto_pwhash/argon2/argon2-fill-block-avx2.c:54:2595 @[ crypto_pwhash/argon2/argon2-fill-block-avx2.c:233:13 ]
	vpmuludq	%ymm3, %ymm5, %ymm1
.Ltmp131:
	#DEBUG_VALUE: ml <- $ymm1
	.loc	6 54 2654                       # crypto_pwhash/argon2/argon2-fill-block-avx2.c:54:2654 @[ crypto_pwhash/argon2/argon2-fill-block-avx2.c:233:13 ]
	vpaddq	%ymm1, %ymm1, %ymm1
.Ltmp132:
	.loc	6 54 2734                       # crypto_pwhash/argon2/argon2-fill-block-avx2.c:54:2734 @[ crypto_pwhash/argon2/argon2-fill-block-avx2.c:233:13 ]
	vpaddq	%ymm5, %ymm3, %ymm3
	.loc	6 54 2699                       # crypto_pwhash/argon2/argon2-fill-block-avx2.c:54:2699 @[ crypto_pwhash/argon2/argon2-fill-block-avx2.c:233:13 ]
	vpaddq	%ymm1, %ymm3, %ymm1
	.loc	6 54 2867                       # crypto_pwhash/argon2/argon2-fill-block-avx2.c:54:2867 @[ crypto_pwhash/argon2/argon2-fill-block-avx2.c:233:13 ]
	vpshuflw	$57, %ymm1, %ymm3               # ymm3 = ymm1[1,2,3,0,4,5,6,7,9,10,11,8,12,13,14,15]
	vpshufhw	$57, %ymm3, %ymm3               # ymm3 = ymm3[0,1,2,3,5,6,7,4,8,9,10,11,13,14,15,12]
	vpshuflw	$57, %ymm6, %ymm6               # ymm6 = ymm6[1,2,3,0,4,5,6,7,9,10,11,8,12,13,14,15]
	vpshufhw	$57, %ymm6, %ymm6               # ymm6 = ymm6[0,1,2,3,5,6,7,4,8,9,10,11,13,14,15,12]
	vpxor	%ymm6, %ymm3, %ymm3
	.loc	6 54 3037                       # crypto_pwhash/argon2/argon2-fill-block-avx2.c:54:3037 @[ crypto_pwhash/argon2/argon2-fill-block-avx2.c:233:13 ]
	vpmuludq	%ymm7, %ymm3, %ymm6
.Ltmp133:
	#DEBUG_VALUE: ml <- $ymm6
	.loc	6 54 3096                       # crypto_pwhash/argon2/argon2-fill-block-avx2.c:54:3096 @[ crypto_pwhash/argon2/argon2-fill-block-avx2.c:233:13 ]
	vpaddq	%ymm6, %ymm6, %ymm6
.Ltmp134:
	.loc	6 54 3176                       # crypto_pwhash/argon2/argon2-fill-block-avx2.c:54:3176 @[ crypto_pwhash/argon2/argon2-fill-block-avx2.c:233:13 ]
	vpaddq	%ymm3, %ymm7, %ymm7
	.loc	6 54 3141                       # crypto_pwhash/argon2/argon2-fill-block-avx2.c:54:3141 @[ crypto_pwhash/argon2/argon2-fill-block-avx2.c:233:13 ]
	vpaddq	%ymm6, %ymm7, %ymm6
	.loc	6 54 3236                       # crypto_pwhash/argon2/argon2-fill-block-avx2.c:54:3236 @[ crypto_pwhash/argon2/argon2-fill-block-avx2.c:233:13 ]
	vpxor	%ymm5, %ymm6, %ymm5
	.loc	6 54 3309                       # crypto_pwhash/argon2/argon2-fill-block-avx2.c:54:3309 @[ crypto_pwhash/argon2/argon2-fill-block-avx2.c:233:13 ]
	vpsrlq	$63, %ymm5, %ymm7
	vpaddq	%ymm5, %ymm5, %ymm5
	vpor	%ymm7, %ymm5, %ymm5
.Ltmp135:
	.loc	6 54 3483                       # crypto_pwhash/argon2/argon2-fill-block-avx2.c:54:3483 @[ crypto_pwhash/argon2/argon2-fill-block-avx2.c:233:13 ]
	vpermq	$57, %ymm8, %ymm7               # ymm7 = ymm8[1,2,3,0]
	.loc	6 54 3629                       # crypto_pwhash/argon2/argon2-fill-block-avx2.c:54:3629 @[ crypto_pwhash/argon2/argon2-fill-block-avx2.c:233:13 ]
	vpermq	$78, %ymm2, %ymm2               # ymm2 = ymm2[2,3,0,1]
	.loc	6 54 3775                       # crypto_pwhash/argon2/argon2-fill-block-avx2.c:54:3775 @[ crypto_pwhash/argon2/argon2-fill-block-avx2.c:233:13 ]
	vpermq	$147, %ymm4, %ymm4              # ymm4 = ymm4[3,0,1,2]
	.loc	6 54 3921                       # crypto_pwhash/argon2/argon2-fill-block-avx2.c:54:3921 @[ crypto_pwhash/argon2/argon2-fill-block-avx2.c:233:13 ]
	vpermq	$57, %ymm5, %ymm5               # ymm5 = ymm5[1,2,3,0]
	.loc	6 54 4067                       # crypto_pwhash/argon2/argon2-fill-block-avx2.c:54:4067 @[ crypto_pwhash/argon2/argon2-fill-block-avx2.c:233:13 ]
	vpermq	$78, %ymm6, %ymm6               # ymm6 = ymm6[2,3,0,1]
	.loc	6 54 4213                       # crypto_pwhash/argon2/argon2-fill-block-avx2.c:54:4213 @[ crypto_pwhash/argon2/argon2-fill-block-avx2.c:233:13 ]
	vpermq	$147, %ymm3, %ymm3              # ymm3 = ymm3[3,0,1,2]
.Ltmp136:
	.loc	6 54 4369                       # crypto_pwhash/argon2/argon2-fill-block-avx2.c:54:4369 @[ crypto_pwhash/argon2/argon2-fill-block-avx2.c:233:13 ]
	vpmuludq	%ymm0, %ymm7, %ymm8
.Ltmp137:
	#DEBUG_VALUE: ml <- $ymm8
	.loc	6 54 4428                       # crypto_pwhash/argon2/argon2-fill-block-avx2.c:54:4428 @[ crypto_pwhash/argon2/argon2-fill-block-avx2.c:233:13 ]
	vpaddq	%ymm8, %ymm8, %ymm8
.Ltmp138:
	#DEBUG_VALUE: ml <- undef
	.loc	6 54 4508                       # crypto_pwhash/argon2/argon2-fill-block-avx2.c:54:4508 @[ crypto_pwhash/argon2/argon2-fill-block-avx2.c:233:13 ]
	vpaddq	%ymm0, %ymm7, %ymm0
	.loc	6 54 4473                       # crypto_pwhash/argon2/argon2-fill-block-avx2.c:54:4473 @[ crypto_pwhash/argon2/argon2-fill-block-avx2.c:233:13 ]
	vpaddq	%ymm0, %ymm8, %ymm8
	.loc	6 54 4651                       # crypto_pwhash/argon2/argon2-fill-block-avx2.c:54:4651 @[ crypto_pwhash/argon2/argon2-fill-block-avx2.c:233:13 ]
	vpshufd	$177, %ymm8, %ymm0              # ymm0 = ymm8[1,0,3,2,5,4,7,6]
	vpshufd	$177, %ymm4, %ymm4              # ymm4 = ymm4[1,0,3,2,5,4,7,6]
	vpxor	%ymm4, %ymm0, %ymm4
	.loc	6 54 4773                       # crypto_pwhash/argon2/argon2-fill-block-avx2.c:54:4773 @[ crypto_pwhash/argon2/argon2-fill-block-avx2.c:233:13 ]
	vpmuludq	%ymm2, %ymm4, %ymm0
.Ltmp139:
	#DEBUG_VALUE: ml <- $ymm0
	.loc	6 54 4832                       # crypto_pwhash/argon2/argon2-fill-block-avx2.c:54:4832 @[ crypto_pwhash/argon2/argon2-fill-block-avx2.c:233:13 ]
	vpaddq	%ymm0, %ymm0, %ymm0
.Ltmp140:
	.loc	6 54 4912                       # crypto_pwhash/argon2/argon2-fill-block-avx2.c:54:4912 @[ crypto_pwhash/argon2/argon2-fill-block-avx2.c:233:13 ]
	vpaddq	%ymm4, %ymm2, %ymm2
	.loc	6 54 4877                       # crypto_pwhash/argon2/argon2-fill-block-avx2.c:54:4877 @[ crypto_pwhash/argon2/argon2-fill-block-avx2.c:233:13 ]
	vpaddq	%ymm0, %ymm2, %ymm2
	.loc	6 54 4972                       # crypto_pwhash/argon2/argon2-fill-block-avx2.c:54:4972 @[ crypto_pwhash/argon2/argon2-fill-block-avx2.c:233:13 ]
	vpxor	%ymm7, %ymm2, %ymm0
	.loc	6 54 5045                       # crypto_pwhash/argon2/argon2-fill-block-avx2.c:54:5045 @[ crypto_pwhash/argon2/argon2-fill-block-avx2.c:233:13 ]
	vpshufb	%ymm11, %ymm0, %ymm7
	.loc	6 54 5215                       # crypto_pwhash/argon2/argon2-fill-block-avx2.c:54:5215 @[ crypto_pwhash/argon2/argon2-fill-block-avx2.c:233:13 ]
	vpmuludq	%ymm1, %ymm5, %ymm0
.Ltmp141:
	#DEBUG_VALUE: ml <- $ymm0
	.loc	6 54 5274                       # crypto_pwhash/argon2/argon2-fill-block-avx2.c:54:5274 @[ crypto_pwhash/argon2/argon2-fill-block-avx2.c:233:13 ]
	vpaddq	%ymm0, %ymm0, %ymm0
.Ltmp142:
	.loc	6 54 5354                       # crypto_pwhash/argon2/argon2-fill-block-avx2.c:54:5354 @[ crypto_pwhash/argon2/argon2-fill-block-avx2.c:233:13 ]
	vpaddq	%ymm1, %ymm5, %ymm1
	.loc	6 54 5319                       # crypto_pwhash/argon2/argon2-fill-block-avx2.c:54:5319 @[ crypto_pwhash/argon2/argon2-fill-block-avx2.c:233:13 ]
	vpaddq	%ymm0, %ymm1, %ymm9
	.loc	6 54 5497                       # crypto_pwhash/argon2/argon2-fill-block-avx2.c:54:5497 @[ crypto_pwhash/argon2/argon2-fill-block-avx2.c:233:13 ]
	vpshufd	$177, %ymm9, %ymm0              # ymm0 = ymm9[1,0,3,2,5,4,7,6]
	vpshufd	$177, %ymm3, %ymm1              # ymm1 = ymm3[1,0,3,2,5,4,7,6]
	vpxor	%ymm1, %ymm0, %ymm3
	.loc	6 54 5619                       # crypto_pwhash/argon2/argon2-fill-block-avx2.c:54:5619 @[ crypto_pwhash/argon2/argon2-fill-block-avx2.c:233:13 ]
	vpmuludq	%ymm6, %ymm3, %ymm0
.Ltmp143:
	#DEBUG_VALUE: ml <- $ymm0
	.loc	6 54 5678                       # crypto_pwhash/argon2/argon2-fill-block-avx2.c:54:5678 @[ crypto_pwhash/argon2/argon2-fill-block-avx2.c:233:13 ]
	vpaddq	%ymm0, %ymm0, %ymm0
.Ltmp144:
	.loc	6 54 5758                       # crypto_pwhash/argon2/argon2-fill-block-avx2.c:54:5758 @[ crypto_pwhash/argon2/argon2-fill-block-avx2.c:233:13 ]
	vpaddq	%ymm3, %ymm6, %ymm1
	.loc	6 54 5723                       # crypto_pwhash/argon2/argon2-fill-block-avx2.c:54:5723 @[ crypto_pwhash/argon2/argon2-fill-block-avx2.c:233:13 ]
	vpaddq	%ymm0, %ymm1, %ymm0
	.loc	6 54 5818                       # crypto_pwhash/argon2/argon2-fill-block-avx2.c:54:5818 @[ crypto_pwhash/argon2/argon2-fill-block-avx2.c:233:13 ]
	vpxor	%ymm5, %ymm0, %ymm1
	.loc	6 54 5891                       # crypto_pwhash/argon2/argon2-fill-block-avx2.c:54:5891 @[ crypto_pwhash/argon2/argon2-fill-block-avx2.c:233:13 ]
	vpshufb	%ymm11, %ymm1, %ymm1
.Ltmp145:
	.loc	6 54 6095                       # crypto_pwhash/argon2/argon2-fill-block-avx2.c:54:6095 @[ crypto_pwhash/argon2/argon2-fill-block-avx2.c:233:13 ]
	vpmuludq	%ymm7, %ymm8, %ymm5
.Ltmp146:
	#DEBUG_VALUE: ml <- $ymm5
	.loc	6 54 6154                       # crypto_pwhash/argon2/argon2-fill-block-avx2.c:54:6154 @[ crypto_pwhash/argon2/argon2-fill-block-avx2.c:233:13 ]
	vpaddq	%ymm5, %ymm5, %ymm5
.Ltmp147:
	#DEBUG_VALUE: ml <- undef
	.loc	6 54 6234                       # crypto_pwhash/argon2/argon2-fill-block-avx2.c:54:6234 @[ crypto_pwhash/argon2/argon2-fill-block-avx2.c:233:13 ]
	vpaddq	%ymm7, %ymm8, %ymm6
	.loc	6 54 6199                       # crypto_pwhash/argon2/argon2-fill-block-avx2.c:54:6199 @[ crypto_pwhash/argon2/argon2-fill-block-avx2.c:233:13 ]
	vpaddq	%ymm5, %ymm6, %ymm5
	.loc	6 54 6197                       # crypto_pwhash/argon2/argon2-fill-block-avx2.c:54:6197 @[ crypto_pwhash/argon2/argon2-fill-block-avx2.c:233:13 ]
	vmovdqa	%ymm5, 96(%rsp,%rcx)
	.loc	6 54 6367                       # crypto_pwhash/argon2/argon2-fill-block-avx2.c:54:6367 @[ crypto_pwhash/argon2/argon2-fill-block-avx2.c:233:13 ]
	vpshuflw	$57, %ymm5, %ymm5               # ymm5 = ymm5[1,2,3,0,4,5,6,7,9,10,11,8,12,13,14,15]
	vpshufhw	$57, %ymm5, %ymm5               # ymm5 = ymm5[0,1,2,3,5,6,7,4,8,9,10,11,13,14,15,12]
	vpshuflw	$57, %ymm4, %ymm4               # ymm4 = ymm4[1,2,3,0,4,5,6,7,9,10,11,8,12,13,14,15]
	vpshufhw	$57, %ymm4, %ymm4               # ymm4 = ymm4[0,1,2,3,5,6,7,4,8,9,10,11,13,14,15,12]
	vpxor	%ymm4, %ymm5, %ymm4
	.loc	6 54 6537                       # crypto_pwhash/argon2/argon2-fill-block-avx2.c:54:6537 @[ crypto_pwhash/argon2/argon2-fill-block-avx2.c:233:13 ]
	vpmuludq	%ymm2, %ymm4, %ymm5
.Ltmp148:
	#DEBUG_VALUE: ml <- $ymm5
	.loc	6 54 6596                       # crypto_pwhash/argon2/argon2-fill-block-avx2.c:54:6596 @[ crypto_pwhash/argon2/argon2-fill-block-avx2.c:233:13 ]
	vpaddq	%ymm5, %ymm5, %ymm5
.Ltmp149:
	.loc	6 54 6676                       # crypto_pwhash/argon2/argon2-fill-block-avx2.c:54:6676 @[ crypto_pwhash/argon2/argon2-fill-block-avx2.c:233:13 ]
	vpaddq	%ymm4, %ymm2, %ymm2
	.loc	6 54 6641                       # crypto_pwhash/argon2/argon2-fill-block-avx2.c:54:6641 @[ crypto_pwhash/argon2/argon2-fill-block-avx2.c:233:13 ]
	vpaddq	%ymm5, %ymm2, %ymm2
	.loc	6 54 6736                       # crypto_pwhash/argon2/argon2-fill-block-avx2.c:54:6736 @[ crypto_pwhash/argon2/argon2-fill-block-avx2.c:233:13 ]
	vpxor	%ymm7, %ymm2, %ymm5
	.loc	6 54 6809                       # crypto_pwhash/argon2/argon2-fill-block-avx2.c:54:6809 @[ crypto_pwhash/argon2/argon2-fill-block-avx2.c:233:13 ]
	vpsrlq	$63, %ymm5, %ymm6
	vpaddq	%ymm5, %ymm5, %ymm5
	vpor	%ymm6, %ymm5, %ymm5
	.loc	6 54 6933                       # crypto_pwhash/argon2/argon2-fill-block-avx2.c:54:6933 @[ crypto_pwhash/argon2/argon2-fill-block-avx2.c:233:13 ]
	vpmuludq	%ymm1, %ymm9, %ymm6
.Ltmp150:
	#DEBUG_VALUE: ml <- $ymm6
	.loc	6 54 6992                       # crypto_pwhash/argon2/argon2-fill-block-avx2.c:54:6992 @[ crypto_pwhash/argon2/argon2-fill-block-avx2.c:233:13 ]
	vpaddq	%ymm6, %ymm6, %ymm6
.Ltmp151:
	.loc	6 54 7072                       # crypto_pwhash/argon2/argon2-fill-block-avx2.c:54:7072 @[ crypto_pwhash/argon2/argon2-fill-block-avx2.c:233:13 ]
	vpaddq	%ymm1, %ymm9, %ymm7
	.loc	6 54 7037                       # crypto_pwhash/argon2/argon2-fill-block-avx2.c:54:7037 @[ crypto_pwhash/argon2/argon2-fill-block-avx2.c:233:13 ]
	vpaddq	%ymm6, %ymm7, %ymm6
	.loc	6 54 7035                       # crypto_pwhash/argon2/argon2-fill-block-avx2.c:54:7035 @[ crypto_pwhash/argon2/argon2-fill-block-avx2.c:233:13 ]
	vmovdqa	%ymm6, 224(%rsp,%rcx)
	.loc	6 54 7205                       # crypto_pwhash/argon2/argon2-fill-block-avx2.c:54:7205 @[ crypto_pwhash/argon2/argon2-fill-block-avx2.c:233:13 ]
	vpshuflw	$57, %ymm6, %ymm6               # ymm6 = ymm6[1,2,3,0,4,5,6,7,9,10,11,8,12,13,14,15]
	vpshufhw	$57, %ymm6, %ymm6               # ymm6 = ymm6[0,1,2,3,5,6,7,4,8,9,10,11,13,14,15,12]
	vpshuflw	$57, %ymm3, %ymm3               # ymm3 = ymm3[1,2,3,0,4,5,6,7,9,10,11,8,12,13,14,15]
	vpshufhw	$57, %ymm3, %ymm3               # ymm3 = ymm3[0,1,2,3,5,6,7,4,8,9,10,11,13,14,15,12]
	vpxor	%ymm3, %ymm6, %ymm3
	.loc	6 54 7375                       # crypto_pwhash/argon2/argon2-fill-block-avx2.c:54:7375 @[ crypto_pwhash/argon2/argon2-fill-block-avx2.c:233:13 ]
	vpmuludq	%ymm0, %ymm3, %ymm6
.Ltmp152:
	#DEBUG_VALUE: ml <- $ymm6
	.loc	6 54 7434                       # crypto_pwhash/argon2/argon2-fill-block-avx2.c:54:7434 @[ crypto_pwhash/argon2/argon2-fill-block-avx2.c:233:13 ]
	vpaddq	%ymm6, %ymm6, %ymm6
.Ltmp153:
	.loc	6 54 7514                       # crypto_pwhash/argon2/argon2-fill-block-avx2.c:54:7514 @[ crypto_pwhash/argon2/argon2-fill-block-avx2.c:233:13 ]
	vpaddq	%ymm3, %ymm0, %ymm0
	.loc	6 54 7479                       # crypto_pwhash/argon2/argon2-fill-block-avx2.c:54:7479 @[ crypto_pwhash/argon2/argon2-fill-block-avx2.c:233:13 ]
	vpaddq	%ymm6, %ymm0, %ymm0
	.loc	6 54 7574                       # crypto_pwhash/argon2/argon2-fill-block-avx2.c:54:7574 @[ crypto_pwhash/argon2/argon2-fill-block-avx2.c:233:13 ]
	vpxor	%ymm1, %ymm0, %ymm1
	.loc	6 54 7647                       # crypto_pwhash/argon2/argon2-fill-block-avx2.c:54:7647 @[ crypto_pwhash/argon2/argon2-fill-block-avx2.c:233:13 ]
	vpsrlq	$63, %ymm1, %ymm6
	vpaddq	%ymm1, %ymm1, %ymm1
	vpor	%ymm6, %ymm1, %ymm1
.Ltmp154:
	.loc	6 54 7821                       # crypto_pwhash/argon2/argon2-fill-block-avx2.c:54:7821 @[ crypto_pwhash/argon2/argon2-fill-block-avx2.c:233:13 ]
	vpermq	$147, %ymm5, %ymm5              # ymm5 = ymm5[3,0,1,2]
	.loc	6 54 7809                       # crypto_pwhash/argon2/argon2-fill-block-avx2.c:54:7809 @[ crypto_pwhash/argon2/argon2-fill-block-avx2.c:233:13 ]
	vmovdqa	%ymm5, 128(%rsp,%rcx)
	.loc	6 54 7967                       # crypto_pwhash/argon2/argon2-fill-block-avx2.c:54:7967 @[ crypto_pwhash/argon2/argon2-fill-block-avx2.c:233:13 ]
	vpermq	$78, %ymm2, %ymm2               # ymm2 = ymm2[2,3,0,1]
	.loc	6 54 7955                       # crypto_pwhash/argon2/argon2-fill-block-avx2.c:54:7955 @[ crypto_pwhash/argon2/argon2-fill-block-avx2.c:233:13 ]
	vmovdqa	%ymm2, 160(%rsp,%rcx)
	.loc	6 54 8113                       # crypto_pwhash/argon2/argon2-fill-block-avx2.c:54:8113 @[ crypto_pwhash/argon2/argon2-fill-block-avx2.c:233:13 ]
	vpermq	$57, %ymm4, %ymm2               # ymm2 = ymm4[1,2,3,0]
	.loc	6 54 8101                       # crypto_pwhash/argon2/argon2-fill-block-avx2.c:54:8101 @[ crypto_pwhash/argon2/argon2-fill-block-avx2.c:233:13 ]
	vmovdqa	%ymm2, 192(%rsp,%rcx)
	.loc	6 54 8259                       # crypto_pwhash/argon2/argon2-fill-block-avx2.c:54:8259 @[ crypto_pwhash/argon2/argon2-fill-block-avx2.c:233:13 ]
	vpermq	$147, %ymm1, %ymm1              # ymm1 = ymm1[3,0,1,2]
	.loc	6 54 8247                       # crypto_pwhash/argon2/argon2-fill-block-avx2.c:54:8247 @[ crypto_pwhash/argon2/argon2-fill-block-avx2.c:233:13 ]
	vmovdqa	%ymm1, 256(%rsp,%rcx)
	.loc	6 54 8405                       # crypto_pwhash/argon2/argon2-fill-block-avx2.c:54:8405 @[ crypto_pwhash/argon2/argon2-fill-block-avx2.c:233:13 ]
	vpermq	$78, %ymm0, %ymm0               # ymm0 = ymm0[2,3,0,1]
	.loc	6 54 8393                       # crypto_pwhash/argon2/argon2-fill-block-avx2.c:54:8393 @[ crypto_pwhash/argon2/argon2-fill-block-avx2.c:233:13 ]
	vmovdqa	%ymm0, 288(%rsp,%rcx)
	.loc	6 54 8551                       # crypto_pwhash/argon2/argon2-fill-block-avx2.c:54:8551 @[ crypto_pwhash/argon2/argon2-fill-block-avx2.c:233:13 ]
	vpermq	$57, %ymm3, %ymm0               # ymm0 = ymm3[1,2,3,0]
	.loc	6 54 8539                       # crypto_pwhash/argon2/argon2-fill-block-avx2.c:54:8539 @[ crypto_pwhash/argon2/argon2-fill-block-avx2.c:233:13 ]
	vmovdqa	%ymm0, 320(%rsp,%rcx)
.Ltmp155:
	#DEBUG_VALUE: fill_block:i <- [DW_OP_consts 256, DW_OP_div, DW_OP_consts 1, DW_OP_plus, DW_OP_stack_value] $rcx
	.loc	6 53 19 is_stmt 1               # crypto_pwhash/argon2/argon2-fill-block-avx2.c:53:19 @[ crypto_pwhash/argon2/argon2-fill-block-avx2.c:233:13 ]
	addq	$256, %rcx                      # imm = 0x100
.Ltmp156:
	cmpq	$1024, %rcx                     # imm = 0x400
.Ltmp157:
	.loc	6 53 5 is_stmt 0                # crypto_pwhash/argon2/argon2-fill-block-avx2.c:53:5 @[ crypto_pwhash/argon2/argon2-fill-block-avx2.c:233:13 ]
	jne	.LBB0_38
.Ltmp158:
# %bb.39:                               # %.preheader916.i.preheader
                                        #   in Loop: Header=BB0_15 Depth=1
	#DEBUG_VALUE: argon2_fill_segment_avx2:position <- [DW_OP_plus_uconst 32, DW_OP_deref_size 8, DW_OP_constu 8, DW_OP_shr, DW_OP_LLVM_convert 64 7, DW_OP_LLVM_convert 24 7, DW_OP_stack_value, DW_OP_LLVM_fragment 72 24] $rsp
	#DEBUG_VALUE: argon2_fill_segment_avx2:instance <- [DW_OP_plus_uconst 64] [$rsp+0]
	#DEBUG_VALUE: argon2_fill_segment_avx2:position <- [DW_OP_plus_uconst 56, DW_OP_deref, DW_OP_LLVM_fragment 32 32] $rsp
	#DEBUG_VALUE: argon2_fill_segment_avx2:position <- [DW_OP_plus_uconst 48, DW_OP_deref, DW_OP_LLVM_fragment 0 32] $rsp
	#DEBUG_VALUE: argon2_fill_segment_avx2:position <- [DW_OP_plus_uconst 32, DW_OP_deref, DW_OP_LLVM_fragment 64 8] $rsp
	#DEBUG_VALUE: argon2_fill_segment_avx2:position <- [DW_OP_LLVM_fragment 96 32] $r13
	#DEBUG_VALUE: argon2_fill_segment_avx2:ref_block <- $rsi
	#DEBUG_VALUE: argon2_fill_segment_avx2:i <- $r13
	#DEBUG_VALUE: argon2_fill_segment_avx2:curr_offset <- $r12d
	#DEBUG_VALUE: argon2_fill_segment_avx2:prev_offset <- $ebx
	#DEBUG_VALUE: fill_block:block_XY <- [DW_OP_plus_uconst 1120, DW_OP_deref] $rsp
	#DEBUG_VALUE: fill_block:state <- [DW_OP_plus_uconst 96, DW_OP_stack_value] $rsp
	#DEBUG_VALUE: fill_block:ref_block <- $rsi
	.loc	6 0 5                           # crypto_pwhash/argon2/argon2-fill-block-avx2.c:0:5
	movq	$-128, %rcx
.Ltmp159:
	.p2align	4
.LBB0_40:                               # %.preheader916.i
                                        #   Parent Loop BB0_15 Depth=1
                                        # =>  This Inner Loop Header: Depth=2
	#DEBUG_VALUE: argon2_fill_segment_avx2:position <- [DW_OP_plus_uconst 32, DW_OP_deref_size 8, DW_OP_constu 8, DW_OP_shr, DW_OP_LLVM_convert 64 7, DW_OP_LLVM_convert 24 7, DW_OP_stack_value, DW_OP_LLVM_fragment 72 24] $rsp
	#DEBUG_VALUE: argon2_fill_segment_avx2:instance <- [DW_OP_plus_uconst 64] [$rsp+0]
	#DEBUG_VALUE: argon2_fill_segment_avx2:position <- [DW_OP_plus_uconst 56, DW_OP_deref, DW_OP_LLVM_fragment 32 32] $rsp
	#DEBUG_VALUE: argon2_fill_segment_avx2:position <- [DW_OP_plus_uconst 48, DW_OP_deref, DW_OP_LLVM_fragment 0 32] $rsp
	#DEBUG_VALUE: argon2_fill_segment_avx2:position <- [DW_OP_plus_uconst 32, DW_OP_deref, DW_OP_LLVM_fragment 64 8] $rsp
	#DEBUG_VALUE: argon2_fill_segment_avx2:position <- [DW_OP_LLVM_fragment 96 32] $r13
	#DEBUG_VALUE: argon2_fill_segment_avx2:ref_block <- $rsi
	#DEBUG_VALUE: argon2_fill_segment_avx2:i <- $r13
	#DEBUG_VALUE: argon2_fill_segment_avx2:curr_offset <- $r12d
	#DEBUG_VALUE: argon2_fill_segment_avx2:prev_offset <- $ebx
	#DEBUG_VALUE: fill_block:block_XY <- [DW_OP_plus_uconst 1120, DW_OP_deref] $rsp
	#DEBUG_VALUE: fill_block:state <- [DW_OP_plus_uconst 96, DW_OP_stack_value] $rsp
	#DEBUG_VALUE: fill_block:ref_block <- $rsi
	#DEBUG_VALUE: fill_block:i <- [DW_OP_consts 18446744073709551488, DW_OP_minus, DW_OP_consts 32, DW_OP_div, DW_OP_stack_value] $rcx
	.loc	6 59 48 is_stmt 1               # crypto_pwhash/argon2/argon2-fill-block-avx2.c:59:48 @[ crypto_pwhash/argon2/argon2-fill-block-avx2.c:233:13 ]
	vmovdqa	224(%rsp,%rcx), %ymm0
	.loc	6 59 834 is_stmt 0              # crypto_pwhash/argon2/argon2-fill-block-avx2.c:59:834 @[ crypto_pwhash/argon2/argon2-fill-block-avx2.c:233:13 ]
	vmovdqa	352(%rsp,%rcx), %ymm1
	.loc	6 59 63                         # crypto_pwhash/argon2/argon2-fill-block-avx2.c:59:63 @[ crypto_pwhash/argon2/argon2-fill-block-avx2.c:233:13 ]
	vmovdqa	480(%rsp,%rcx), %ymm2
	.loc	6 59 31                         # crypto_pwhash/argon2/argon2-fill-block-avx2.c:59:31 @[ crypto_pwhash/argon2/argon2-fill-block-avx2.c:233:13 ]
	vpmuludq	%ymm0, %ymm2, %ymm3
.Ltmp160:
	#DEBUG_VALUE: ml <- $ymm3
	.loc	6 59 84                         # crypto_pwhash/argon2/argon2-fill-block-avx2.c:59:84 @[ crypto_pwhash/argon2/argon2-fill-block-avx2.c:233:13 ]
	vpaddq	%ymm3, %ymm3, %ymm3
.Ltmp161:
	#DEBUG_VALUE: ml <- undef
	.loc	6 59 158                        # crypto_pwhash/argon2/argon2-fill-block-avx2.c:59:158 @[ crypto_pwhash/argon2/argon2-fill-block-avx2.c:233:13 ]
	vpaddq	%ymm0, %ymm2, %ymm0
	.loc	6 59 126                        # crypto_pwhash/argon2/argon2-fill-block-avx2.c:59:126 @[ crypto_pwhash/argon2/argon2-fill-block-avx2.c:233:13 ]
	vpaddq	%ymm3, %ymm0, %ymm0
	.loc	6 59 212                        # crypto_pwhash/argon2/argon2-fill-block-avx2.c:59:212 @[ crypto_pwhash/argon2/argon2-fill-block-avx2.c:233:13 ]
	vpxor	992(%rsp,%rcx), %ymm0, %ymm3
	.loc	6 59 849                        # crypto_pwhash/argon2/argon2-fill-block-avx2.c:59:849 @[ crypto_pwhash/argon2/argon2-fill-block-avx2.c:233:13 ]
	vmovdqa	608(%rsp,%rcx), %ymm4
	.loc	6 59 286                        # crypto_pwhash/argon2/argon2-fill-block-avx2.c:59:286 @[ crypto_pwhash/argon2/argon2-fill-block-avx2.c:233:13 ]
	vpshufd	$177, %ymm3, %ymm3              # ymm3 = ymm3[1,0,3,2,5,4,7,6]
	.loc	6 59 422                        # crypto_pwhash/argon2/argon2-fill-block-avx2.c:59:422 @[ crypto_pwhash/argon2/argon2-fill-block-avx2.c:233:13 ]
	vmovdqa	736(%rsp,%rcx), %ymm5
	.loc	6 59 405                        # crypto_pwhash/argon2/argon2-fill-block-avx2.c:59:405 @[ crypto_pwhash/argon2/argon2-fill-block-avx2.c:233:13 ]
	vpmuludq	%ymm5, %ymm3, %ymm6
.Ltmp162:
	#DEBUG_VALUE: ml <- $ymm6
	.loc	6 59 458                        # crypto_pwhash/argon2/argon2-fill-block-avx2.c:59:458 @[ crypto_pwhash/argon2/argon2-fill-block-avx2.c:233:13 ]
	vpaddq	%ymm6, %ymm6, %ymm6
.Ltmp163:
	.loc	6 59 532                        # crypto_pwhash/argon2/argon2-fill-block-avx2.c:59:532 @[ crypto_pwhash/argon2/argon2-fill-block-avx2.c:233:13 ]
	vpaddq	%ymm3, %ymm5, %ymm5
	.loc	6 59 500                        # crypto_pwhash/argon2/argon2-fill-block-avx2.c:59:500 @[ crypto_pwhash/argon2/argon2-fill-block-avx2.c:233:13 ]
	vpaddq	%ymm6, %ymm5, %ymm5
	.loc	6 59 586                        # crypto_pwhash/argon2/argon2-fill-block-avx2.c:59:586 @[ crypto_pwhash/argon2/argon2-fill-block-avx2.c:233:13 ]
	vpxor	%ymm2, %ymm5, %ymm2
	.loc	6 59 650                        # crypto_pwhash/argon2/argon2-fill-block-avx2.c:59:650 @[ crypto_pwhash/argon2/argon2-fill-block-avx2.c:233:13 ]
	vpshufb	%ymm11, %ymm2, %ymm2
	.loc	6 59 817                        # crypto_pwhash/argon2/argon2-fill-block-avx2.c:59:817 @[ crypto_pwhash/argon2/argon2-fill-block-avx2.c:233:13 ]
	vpmuludq	%ymm1, %ymm4, %ymm6
.Ltmp164:
	#DEBUG_VALUE: ml <- $ymm6
	.loc	6 59 870                        # crypto_pwhash/argon2/argon2-fill-block-avx2.c:59:870 @[ crypto_pwhash/argon2/argon2-fill-block-avx2.c:233:13 ]
	vpaddq	%ymm6, %ymm6, %ymm6
.Ltmp165:
	.loc	6 59 944                        # crypto_pwhash/argon2/argon2-fill-block-avx2.c:59:944 @[ crypto_pwhash/argon2/argon2-fill-block-avx2.c:233:13 ]
	vpaddq	%ymm1, %ymm4, %ymm1
	.loc	6 59 912                        # crypto_pwhash/argon2/argon2-fill-block-avx2.c:59:912 @[ crypto_pwhash/argon2/argon2-fill-block-avx2.c:233:13 ]
	vpaddq	%ymm6, %ymm1, %ymm6
	.loc	6 59 998                        # crypto_pwhash/argon2/argon2-fill-block-avx2.c:59:998 @[ crypto_pwhash/argon2/argon2-fill-block-avx2.c:233:13 ]
	vpxor	1120(%rsp,%rcx), %ymm6, %ymm1
	.loc	6 59 1072                       # crypto_pwhash/argon2/argon2-fill-block-avx2.c:59:1072 @[ crypto_pwhash/argon2/argon2-fill-block-avx2.c:233:13 ]
	vpshufd	$177, %ymm1, %ymm7              # ymm7 = ymm1[1,0,3,2,5,4,7,6]
	.loc	6 59 1208                       # crypto_pwhash/argon2/argon2-fill-block-avx2.c:59:1208 @[ crypto_pwhash/argon2/argon2-fill-block-avx2.c:233:13 ]
	vmovdqa	864(%rsp,%rcx), %ymm1
	.loc	6 59 1191                       # crypto_pwhash/argon2/argon2-fill-block-avx2.c:59:1191 @[ crypto_pwhash/argon2/argon2-fill-block-avx2.c:233:13 ]
	vpmuludq	%ymm1, %ymm7, %ymm8
.Ltmp166:
	#DEBUG_VALUE: ml <- $ymm8
	.loc	6 59 1244                       # crypto_pwhash/argon2/argon2-fill-block-avx2.c:59:1244 @[ crypto_pwhash/argon2/argon2-fill-block-avx2.c:233:13 ]
	vpaddq	%ymm8, %ymm8, %ymm8
.Ltmp167:
	.loc	6 59 1318                       # crypto_pwhash/argon2/argon2-fill-block-avx2.c:59:1318 @[ crypto_pwhash/argon2/argon2-fill-block-avx2.c:233:13 ]
	vpaddq	%ymm7, %ymm1, %ymm1
	.loc	6 59 1286                       # crypto_pwhash/argon2/argon2-fill-block-avx2.c:59:1286 @[ crypto_pwhash/argon2/argon2-fill-block-avx2.c:233:13 ]
	vpaddq	%ymm1, %ymm8, %ymm8
	.loc	6 59 1372                       # crypto_pwhash/argon2/argon2-fill-block-avx2.c:59:1372 @[ crypto_pwhash/argon2/argon2-fill-block-avx2.c:233:13 ]
	vpxor	%ymm4, %ymm8, %ymm1
	.loc	6 59 1436                       # crypto_pwhash/argon2/argon2-fill-block-avx2.c:59:1436 @[ crypto_pwhash/argon2/argon2-fill-block-avx2.c:233:13 ]
	vpshufb	%ymm11, %ymm1, %ymm4
.Ltmp168:
	.loc	6 59 1637                       # crypto_pwhash/argon2/argon2-fill-block-avx2.c:59:1637 @[ crypto_pwhash/argon2/argon2-fill-block-avx2.c:233:13 ]
	vpmuludq	%ymm0, %ymm2, %ymm1
.Ltmp169:
	#DEBUG_VALUE: ml <- $ymm1
	.loc	6 59 1690                       # crypto_pwhash/argon2/argon2-fill-block-avx2.c:59:1690 @[ crypto_pwhash/argon2/argon2-fill-block-avx2.c:233:13 ]
	vpaddq	%ymm1, %ymm1, %ymm1
.Ltmp170:
	#DEBUG_VALUE: ml <- undef
	.loc	6 59 1764                       # crypto_pwhash/argon2/argon2-fill-block-avx2.c:59:1764 @[ crypto_pwhash/argon2/argon2-fill-block-avx2.c:233:13 ]
	vpaddq	%ymm2, %ymm0, %ymm0
	.loc	6 59 1732                       # crypto_pwhash/argon2/argon2-fill-block-avx2.c:59:1732 @[ crypto_pwhash/argon2/argon2-fill-block-avx2.c:233:13 ]
	vpaddq	%ymm1, %ymm0, %ymm1
	.loc	6 59 1882                       # crypto_pwhash/argon2/argon2-fill-block-avx2.c:59:1882 @[ crypto_pwhash/argon2/argon2-fill-block-avx2.c:233:13 ]
	vpshuflw	$57, %ymm1, %ymm0               # ymm0 = ymm1[1,2,3,0,4,5,6,7,9,10,11,8,12,13,14,15]
	vpshuflw	$57, %ymm3, %ymm3               # ymm3 = ymm3[1,2,3,0,4,5,6,7,9,10,11,8,12,13,14,15]
	vpxor	%ymm3, %ymm0, %ymm3
	vpshufhw	$57, %ymm3, %ymm9               # ymm9 = ymm3[0,1,2,3,5,6,7,4,8,9,10,11,13,14,15,12]
	.loc	6 59 2049                       # crypto_pwhash/argon2/argon2-fill-block-avx2.c:59:2049 @[ crypto_pwhash/argon2/argon2-fill-block-avx2.c:233:13 ]
	vpmuludq	%ymm5, %ymm9, %ymm0
.Ltmp171:
	#DEBUG_VALUE: ml <- $ymm0
	.loc	6 59 2102                       # crypto_pwhash/argon2/argon2-fill-block-avx2.c:59:2102 @[ crypto_pwhash/argon2/argon2-fill-block-avx2.c:233:13 ]
	vpaddq	%ymm0, %ymm0, %ymm0
.Ltmp172:
	.loc	6 59 2176                       # crypto_pwhash/argon2/argon2-fill-block-avx2.c:59:2176 @[ crypto_pwhash/argon2/argon2-fill-block-avx2.c:233:13 ]
	vpaddq	%ymm5, %ymm9, %ymm5
	.loc	6 59 2144                       # crypto_pwhash/argon2/argon2-fill-block-avx2.c:59:2144 @[ crypto_pwhash/argon2/argon2-fill-block-avx2.c:233:13 ]
	vpaddq	%ymm0, %ymm5, %ymm0
	.loc	6 59 2230                       # crypto_pwhash/argon2/argon2-fill-block-avx2.c:59:2230 @[ crypto_pwhash/argon2/argon2-fill-block-avx2.c:233:13 ]
	vpxor	%ymm2, %ymm0, %ymm2
	.loc	6 59 2294                       # crypto_pwhash/argon2/argon2-fill-block-avx2.c:59:2294 @[ crypto_pwhash/argon2/argon2-fill-block-avx2.c:233:13 ]
	vpsrlq	$63, %ymm2, %ymm5
	vpaddq	%ymm2, %ymm2, %ymm2
	vpor	%ymm5, %ymm2, %ymm5
	.loc	6 59 2409                       # crypto_pwhash/argon2/argon2-fill-block-avx2.c:59:2409 @[ crypto_pwhash/argon2/argon2-fill-block-avx2.c:233:13 ]
	vpmuludq	%ymm6, %ymm4, %ymm2
.Ltmp173:
	#DEBUG_VALUE: ml <- $ymm2
	.loc	6 59 2462                       # crypto_pwhash/argon2/argon2-fill-block-avx2.c:59:2462 @[ crypto_pwhash/argon2/argon2-fill-block-avx2.c:233:13 ]
	vpaddq	%ymm2, %ymm2, %ymm2
.Ltmp174:
	.loc	6 59 2536                       # crypto_pwhash/argon2/argon2-fill-block-avx2.c:59:2536 @[ crypto_pwhash/argon2/argon2-fill-block-avx2.c:233:13 ]
	vpaddq	%ymm4, %ymm6, %ymm6
	.loc	6 59 2504                       # crypto_pwhash/argon2/argon2-fill-block-avx2.c:59:2504 @[ crypto_pwhash/argon2/argon2-fill-block-avx2.c:233:13 ]
	vpaddq	%ymm2, %ymm6, %ymm2
	.loc	6 59 2654                       # crypto_pwhash/argon2/argon2-fill-block-avx2.c:59:2654 @[ crypto_pwhash/argon2/argon2-fill-block-avx2.c:233:13 ]
	vpshuflw	$57, %ymm2, %ymm6               # ymm6 = ymm2[1,2,3,0,4,5,6,7,9,10,11,8,12,13,14,15]
	vpshuflw	$57, %ymm7, %ymm7               # ymm7 = ymm7[1,2,3,0,4,5,6,7,9,10,11,8,12,13,14,15]
	vpxor	%ymm7, %ymm6, %ymm6
	vpshufhw	$57, %ymm6, %ymm7               # ymm7 = ymm6[0,1,2,3,5,6,7,4,8,9,10,11,13,14,15,12]
	.loc	6 59 2821                       # crypto_pwhash/argon2/argon2-fill-block-avx2.c:59:2821 @[ crypto_pwhash/argon2/argon2-fill-block-avx2.c:233:13 ]
	vpmuludq	%ymm7, %ymm8, %ymm10
.Ltmp175:
	#DEBUG_VALUE: ml <- $ymm10
	.loc	6 59 2874                       # crypto_pwhash/argon2/argon2-fill-block-avx2.c:59:2874 @[ crypto_pwhash/argon2/argon2-fill-block-avx2.c:233:13 ]
	vpaddq	%ymm10, %ymm10, %ymm10
.Ltmp176:
	.loc	6 59 2948                       # crypto_pwhash/argon2/argon2-fill-block-avx2.c:59:2948 @[ crypto_pwhash/argon2/argon2-fill-block-avx2.c:233:13 ]
	vpaddq	%ymm7, %ymm8, %ymm8
	.loc	6 59 2916                       # crypto_pwhash/argon2/argon2-fill-block-avx2.c:59:2916 @[ crypto_pwhash/argon2/argon2-fill-block-avx2.c:233:13 ]
	vpaddq	%ymm10, %ymm8, %ymm8
	.loc	6 59 3002                       # crypto_pwhash/argon2/argon2-fill-block-avx2.c:59:3002 @[ crypto_pwhash/argon2/argon2-fill-block-avx2.c:233:13 ]
	vpxor	%ymm4, %ymm8, %ymm4
	.loc	6 59 3066                       # crypto_pwhash/argon2/argon2-fill-block-avx2.c:59:3066 @[ crypto_pwhash/argon2/argon2-fill-block-avx2.c:233:13 ]
	vpsrlq	$63, %ymm4, %ymm10
	vpaddq	%ymm4, %ymm4, %ymm4
	vpor	%ymm4, %ymm10, %ymm4
.Ltmp177:
	#DEBUG_VALUE: tmp1 <- undef
	#DEBUG_VALUE: tmp2 <- undef
	.loc	6 59 3496                       # crypto_pwhash/argon2/argon2-fill-block-avx2.c:59:3496 @[ crypto_pwhash/argon2/argon2-fill-block-avx2.c:233:13 ]
	vpalignr	$8, %ymm4, %ymm5, %ymm10        # ymm10 = ymm4[8,9,10,11,12,13,14,15],ymm5[0,1,2,3,4,5,6,7],ymm4[24,25,26,27,28,29,30,31],ymm5[16,17,18,19,20,21,22,23]
	.loc	6 59 3627                       # crypto_pwhash/argon2/argon2-fill-block-avx2.c:59:3627 @[ crypto_pwhash/argon2/argon2-fill-block-avx2.c:233:13 ]
	vpalignr	$8, %ymm5, %ymm4, %ymm4         # ymm4 = ymm5[8,9,10,11,12,13,14,15],ymm4[0,1,2,3,4,5,6,7],ymm5[24,25,26,27,28,29,30,31],ymm4[16,17,18,19,20,21,22,23]
.Ltmp178:
	#DEBUG_VALUE: tmp1 <- $ymm0
	.loc	6 59 4085                       # crypto_pwhash/argon2/argon2-fill-block-avx2.c:59:4085 @[ crypto_pwhash/argon2/argon2-fill-block-avx2.c:233:13 ]
	vpalignr	$8, %ymm7, %ymm3, %ymm3         # ymm3 = ymm7[8,9,10,11,12,13,14,15],ymm3[0,1,2,3,4,5,6,7],ymm7[24,25,26,27,28,29,30,31],ymm3[16,17,18,19,20,21,22,23]
	.loc	6 59 4216                       # crypto_pwhash/argon2/argon2-fill-block-avx2.c:59:4216 @[ crypto_pwhash/argon2/argon2-fill-block-avx2.c:233:13 ]
	vpalignr	$8, %ymm9, %ymm6, %ymm5         # ymm5 = ymm9[8,9,10,11,12,13,14,15],ymm6[0,1,2,3,4,5,6,7],ymm9[24,25,26,27,28,29,30,31],ymm6[16,17,18,19,20,21,22,23]
.Ltmp179:
	.loc	6 59 4351                       # crypto_pwhash/argon2/argon2-fill-block-avx2.c:59:4351 @[ crypto_pwhash/argon2/argon2-fill-block-avx2.c:233:13 ]
	vpmuludq	%ymm1, %ymm4, %ymm6
.Ltmp180:
	#DEBUG_VALUE: ml <- $ymm6
	.loc	6 59 4404                       # crypto_pwhash/argon2/argon2-fill-block-avx2.c:59:4404 @[ crypto_pwhash/argon2/argon2-fill-block-avx2.c:233:13 ]
	vpaddq	%ymm6, %ymm6, %ymm6
.Ltmp181:
	#DEBUG_VALUE: ml <- undef
	.loc	6 59 4478                       # crypto_pwhash/argon2/argon2-fill-block-avx2.c:59:4478 @[ crypto_pwhash/argon2/argon2-fill-block-avx2.c:233:13 ]
	vpaddq	%ymm1, %ymm4, %ymm1
	.loc	6 59 4446                       # crypto_pwhash/argon2/argon2-fill-block-avx2.c:59:4446 @[ crypto_pwhash/argon2/argon2-fill-block-avx2.c:233:13 ]
	vpaddq	%ymm6, %ymm1, %ymm1
	.loc	6 59 4606                       # crypto_pwhash/argon2/argon2-fill-block-avx2.c:59:4606 @[ crypto_pwhash/argon2/argon2-fill-block-avx2.c:233:13 ]
	vpshufd	$177, %ymm1, %ymm6              # ymm6 = ymm1[1,0,3,2,5,4,7,6]
	vpshufd	$177, %ymm3, %ymm3              # ymm3 = ymm3[1,0,3,2,5,4,7,6]
	vpxor	%ymm3, %ymm6, %ymm3
	.loc	6 59 4725                       # crypto_pwhash/argon2/argon2-fill-block-avx2.c:59:4725 @[ crypto_pwhash/argon2/argon2-fill-block-avx2.c:233:13 ]
	vpmuludq	%ymm3, %ymm8, %ymm6
.Ltmp182:
	#DEBUG_VALUE: ml <- $ymm6
	.loc	6 59 4778                       # crypto_pwhash/argon2/argon2-fill-block-avx2.c:59:4778 @[ crypto_pwhash/argon2/argon2-fill-block-avx2.c:233:13 ]
	vpaddq	%ymm6, %ymm6, %ymm6
.Ltmp183:
	.loc	6 59 4852                       # crypto_pwhash/argon2/argon2-fill-block-avx2.c:59:4852 @[ crypto_pwhash/argon2/argon2-fill-block-avx2.c:233:13 ]
	vpaddq	%ymm3, %ymm8, %ymm7
	.loc	6 59 4820                       # crypto_pwhash/argon2/argon2-fill-block-avx2.c:59:4820 @[ crypto_pwhash/argon2/argon2-fill-block-avx2.c:233:13 ]
	vpaddq	%ymm6, %ymm7, %ymm6
	.loc	6 59 4970                       # crypto_pwhash/argon2/argon2-fill-block-avx2.c:59:4970 @[ crypto_pwhash/argon2/argon2-fill-block-avx2.c:233:13 ]
	vpshufb	%ymm11, %ymm6, %ymm7
	vpshufb	%ymm11, %ymm4, %ymm4
	vpxor	%ymm4, %ymm7, %ymm4
	.loc	6 59 5137                       # crypto_pwhash/argon2/argon2-fill-block-avx2.c:59:5137 @[ crypto_pwhash/argon2/argon2-fill-block-avx2.c:233:13 ]
	vpmuludq	%ymm2, %ymm10, %ymm7
.Ltmp184:
	#DEBUG_VALUE: ml <- $ymm7
	.loc	6 59 5190                       # crypto_pwhash/argon2/argon2-fill-block-avx2.c:59:5190 @[ crypto_pwhash/argon2/argon2-fill-block-avx2.c:233:13 ]
	vpaddq	%ymm7, %ymm7, %ymm7
.Ltmp185:
	.loc	6 59 5264                       # crypto_pwhash/argon2/argon2-fill-block-avx2.c:59:5264 @[ crypto_pwhash/argon2/argon2-fill-block-avx2.c:233:13 ]
	vpaddq	%ymm2, %ymm10, %ymm2
	.loc	6 59 5232                       # crypto_pwhash/argon2/argon2-fill-block-avx2.c:59:5232 @[ crypto_pwhash/argon2/argon2-fill-block-avx2.c:233:13 ]
	vpaddq	%ymm7, %ymm2, %ymm2
	.loc	6 59 5392                       # crypto_pwhash/argon2/argon2-fill-block-avx2.c:59:5392 @[ crypto_pwhash/argon2/argon2-fill-block-avx2.c:233:13 ]
	vpshufd	$177, %ymm2, %ymm7              # ymm7 = ymm2[1,0,3,2,5,4,7,6]
	vpshufd	$177, %ymm5, %ymm5              # ymm5 = ymm5[1,0,3,2,5,4,7,6]
	vpxor	%ymm5, %ymm7, %ymm5
	.loc	6 59 5511                       # crypto_pwhash/argon2/argon2-fill-block-avx2.c:59:5511 @[ crypto_pwhash/argon2/argon2-fill-block-avx2.c:233:13 ]
	vpmuludq	%ymm0, %ymm5, %ymm7
.Ltmp186:
	#DEBUG_VALUE: ml <- $ymm7
	.loc	6 59 5564                       # crypto_pwhash/argon2/argon2-fill-block-avx2.c:59:5564 @[ crypto_pwhash/argon2/argon2-fill-block-avx2.c:233:13 ]
	vpaddq	%ymm7, %ymm7, %ymm7
.Ltmp187:
	.loc	6 59 5638                       # crypto_pwhash/argon2/argon2-fill-block-avx2.c:59:5638 @[ crypto_pwhash/argon2/argon2-fill-block-avx2.c:233:13 ]
	vpaddq	%ymm5, %ymm0, %ymm0
.Ltmp188:
	.loc	6 59 5606                       # crypto_pwhash/argon2/argon2-fill-block-avx2.c:59:5606 @[ crypto_pwhash/argon2/argon2-fill-block-avx2.c:233:13 ]
	vpaddq	%ymm7, %ymm0, %ymm7
	.loc	6 59 5756                       # crypto_pwhash/argon2/argon2-fill-block-avx2.c:59:5756 @[ crypto_pwhash/argon2/argon2-fill-block-avx2.c:233:13 ]
	vpshufb	%ymm11, %ymm7, %ymm0
	vpshufb	%ymm11, %ymm10, %ymm8
	vpxor	%ymm0, %ymm8, %ymm8
.Ltmp189:
	.loc	6 59 5957                       # crypto_pwhash/argon2/argon2-fill-block-avx2.c:59:5957 @[ crypto_pwhash/argon2/argon2-fill-block-avx2.c:233:13 ]
	vpmuludq	%ymm1, %ymm4, %ymm0
.Ltmp190:
	#DEBUG_VALUE: ml <- $ymm0
	.loc	6 59 6010                       # crypto_pwhash/argon2/argon2-fill-block-avx2.c:59:6010 @[ crypto_pwhash/argon2/argon2-fill-block-avx2.c:233:13 ]
	vpaddq	%ymm0, %ymm0, %ymm0
.Ltmp191:
	#DEBUG_VALUE: ml <- undef
	.loc	6 59 6084                       # crypto_pwhash/argon2/argon2-fill-block-avx2.c:59:6084 @[ crypto_pwhash/argon2/argon2-fill-block-avx2.c:233:13 ]
	vpaddq	%ymm4, %ymm1, %ymm1
	.loc	6 59 6052                       # crypto_pwhash/argon2/argon2-fill-block-avx2.c:59:6052 @[ crypto_pwhash/argon2/argon2-fill-block-avx2.c:233:13 ]
	vpaddq	%ymm0, %ymm1, %ymm0
	.loc	6 59 6050                       # crypto_pwhash/argon2/argon2-fill-block-avx2.c:59:6050 @[ crypto_pwhash/argon2/argon2-fill-block-avx2.c:233:13 ]
	vmovdqa	%ymm0, 224(%rsp,%rcx)
	.loc	6 59 6202                       # crypto_pwhash/argon2/argon2-fill-block-avx2.c:59:6202 @[ crypto_pwhash/argon2/argon2-fill-block-avx2.c:233:13 ]
	vpshuflw	$57, %ymm0, %ymm0               # ymm0 = ymm0[1,2,3,0,4,5,6,7,9,10,11,8,12,13,14,15]
	vpshuflw	$57, %ymm3, %ymm1               # ymm1 = ymm3[1,2,3,0,4,5,6,7,9,10,11,8,12,13,14,15]
	vpxor	%ymm1, %ymm0, %ymm0
	vpshufhw	$57, %ymm0, %ymm1               # ymm1 = ymm0[0,1,2,3,5,6,7,4,8,9,10,11,13,14,15,12]
	.loc	6 59 6369                       # crypto_pwhash/argon2/argon2-fill-block-avx2.c:59:6369 @[ crypto_pwhash/argon2/argon2-fill-block-avx2.c:233:13 ]
	vpmuludq	%ymm6, %ymm1, %ymm3
.Ltmp192:
	#DEBUG_VALUE: ml <- $ymm3
	.loc	6 59 6422                       # crypto_pwhash/argon2/argon2-fill-block-avx2.c:59:6422 @[ crypto_pwhash/argon2/argon2-fill-block-avx2.c:233:13 ]
	vpaddq	%ymm3, %ymm3, %ymm3
.Ltmp193:
	.loc	6 59 6496                       # crypto_pwhash/argon2/argon2-fill-block-avx2.c:59:6496 @[ crypto_pwhash/argon2/argon2-fill-block-avx2.c:233:13 ]
	vpaddq	%ymm1, %ymm6, %ymm6
	.loc	6 59 6464                       # crypto_pwhash/argon2/argon2-fill-block-avx2.c:59:6464 @[ crypto_pwhash/argon2/argon2-fill-block-avx2.c:233:13 ]
	vpaddq	%ymm3, %ymm6, %ymm3
	.loc	6 59 6550                       # crypto_pwhash/argon2/argon2-fill-block-avx2.c:59:6550 @[ crypto_pwhash/argon2/argon2-fill-block-avx2.c:233:13 ]
	vpxor	%ymm4, %ymm3, %ymm4
	.loc	6 59 6614                       # crypto_pwhash/argon2/argon2-fill-block-avx2.c:59:6614 @[ crypto_pwhash/argon2/argon2-fill-block-avx2.c:233:13 ]
	vpsrlq	$63, %ymm4, %ymm6
	vpaddq	%ymm4, %ymm4, %ymm4
	vpor	%ymm6, %ymm4, %ymm4
	.loc	6 59 6729                       # crypto_pwhash/argon2/argon2-fill-block-avx2.c:59:6729 @[ crypto_pwhash/argon2/argon2-fill-block-avx2.c:233:13 ]
	vpmuludq	%ymm2, %ymm8, %ymm6
.Ltmp194:
	#DEBUG_VALUE: ml <- $ymm6
	.loc	6 59 6782                       # crypto_pwhash/argon2/argon2-fill-block-avx2.c:59:6782 @[ crypto_pwhash/argon2/argon2-fill-block-avx2.c:233:13 ]
	vpaddq	%ymm6, %ymm6, %ymm6
.Ltmp195:
	.loc	6 59 6856                       # crypto_pwhash/argon2/argon2-fill-block-avx2.c:59:6856 @[ crypto_pwhash/argon2/argon2-fill-block-avx2.c:233:13 ]
	vpaddq	%ymm2, %ymm8, %ymm2
	.loc	6 59 6824                       # crypto_pwhash/argon2/argon2-fill-block-avx2.c:59:6824 @[ crypto_pwhash/argon2/argon2-fill-block-avx2.c:233:13 ]
	vpaddq	%ymm6, %ymm2, %ymm2
	.loc	6 59 6822                       # crypto_pwhash/argon2/argon2-fill-block-avx2.c:59:6822 @[ crypto_pwhash/argon2/argon2-fill-block-avx2.c:233:13 ]
	vmovdqa	%ymm2, 352(%rsp,%rcx)
	.loc	6 59 6974                       # crypto_pwhash/argon2/argon2-fill-block-avx2.c:59:6974 @[ crypto_pwhash/argon2/argon2-fill-block-avx2.c:233:13 ]
	vpshuflw	$57, %ymm2, %ymm2               # ymm2 = ymm2[1,2,3,0,4,5,6,7,9,10,11,8,12,13,14,15]
	vpshuflw	$57, %ymm5, %ymm5               # ymm5 = ymm5[1,2,3,0,4,5,6,7,9,10,11,8,12,13,14,15]
	vpxor	%ymm5, %ymm2, %ymm2
	vpshufhw	$57, %ymm2, %ymm5               # ymm5 = ymm2[0,1,2,3,5,6,7,4,8,9,10,11,13,14,15,12]
	.loc	6 59 7141                       # crypto_pwhash/argon2/argon2-fill-block-avx2.c:59:7141 @[ crypto_pwhash/argon2/argon2-fill-block-avx2.c:233:13 ]
	vpmuludq	%ymm7, %ymm5, %ymm6
.Ltmp196:
	#DEBUG_VALUE: ml <- $ymm6
	.loc	6 59 7194                       # crypto_pwhash/argon2/argon2-fill-block-avx2.c:59:7194 @[ crypto_pwhash/argon2/argon2-fill-block-avx2.c:233:13 ]
	vpaddq	%ymm6, %ymm6, %ymm6
.Ltmp197:
	.loc	6 59 7268                       # crypto_pwhash/argon2/argon2-fill-block-avx2.c:59:7268 @[ crypto_pwhash/argon2/argon2-fill-block-avx2.c:233:13 ]
	vpaddq	%ymm5, %ymm7, %ymm7
	.loc	6 59 7236                       # crypto_pwhash/argon2/argon2-fill-block-avx2.c:59:7236 @[ crypto_pwhash/argon2/argon2-fill-block-avx2.c:233:13 ]
	vpaddq	%ymm6, %ymm7, %ymm6
	.loc	6 59 7322                       # crypto_pwhash/argon2/argon2-fill-block-avx2.c:59:7322 @[ crypto_pwhash/argon2/argon2-fill-block-avx2.c:233:13 ]
	vpxor	%ymm6, %ymm8, %ymm7
	.loc	6 59 7386                       # crypto_pwhash/argon2/argon2-fill-block-avx2.c:59:7386 @[ crypto_pwhash/argon2/argon2-fill-block-avx2.c:233:13 ]
	vpsrlq	$63, %ymm7, %ymm8
	vpaddq	%ymm7, %ymm7, %ymm7
	vpor	%ymm7, %ymm8, %ymm7
.Ltmp198:
	#DEBUG_VALUE: tmp1 <- undef
	#DEBUG_VALUE: tmp2 <- undef
	.loc	6 59 7816                       # crypto_pwhash/argon2/argon2-fill-block-avx2.c:59:7816 @[ crypto_pwhash/argon2/argon2-fill-block-avx2.c:233:13 ]
	vpalignr	$8, %ymm7, %ymm4, %ymm8         # ymm8 = ymm7[8,9,10,11,12,13,14,15],ymm4[0,1,2,3,4,5,6,7],ymm7[24,25,26,27,28,29,30,31],ymm4[16,17,18,19,20,21,22,23]
	.loc	6 59 7804                       # crypto_pwhash/argon2/argon2-fill-block-avx2.c:59:7804 @[ crypto_pwhash/argon2/argon2-fill-block-avx2.c:233:13 ]
	vmovdqa	%ymm8, 480(%rsp,%rcx)
	.loc	6 59 7947                       # crypto_pwhash/argon2/argon2-fill-block-avx2.c:59:7947 @[ crypto_pwhash/argon2/argon2-fill-block-avx2.c:233:13 ]
	vpalignr	$8, %ymm4, %ymm7, %ymm4         # ymm4 = ymm4[8,9,10,11,12,13,14,15],ymm7[0,1,2,3,4,5,6,7],ymm4[24,25,26,27,28,29,30,31],ymm7[16,17,18,19,20,21,22,23]
	.loc	6 59 7935                       # crypto_pwhash/argon2/argon2-fill-block-avx2.c:59:7935 @[ crypto_pwhash/argon2/argon2-fill-block-avx2.c:233:13 ]
	vmovdqa	%ymm4, 608(%rsp,%rcx)
.Ltmp199:
	#DEBUG_VALUE: tmp1 <- $ymm3
	.loc	6 59 8088                       # crypto_pwhash/argon2/argon2-fill-block-avx2.c:59:8088 @[ crypto_pwhash/argon2/argon2-fill-block-avx2.c:233:13 ]
	vmovdqa	%ymm6, 736(%rsp,%rcx)
	.loc	6 59 8119                       # crypto_pwhash/argon2/argon2-fill-block-avx2.c:59:8119 @[ crypto_pwhash/argon2/argon2-fill-block-avx2.c:233:13 ]
	vmovdqa	%ymm3, 864(%rsp,%rcx)
	.loc	6 59 8405                       # crypto_pwhash/argon2/argon2-fill-block-avx2.c:59:8405 @[ crypto_pwhash/argon2/argon2-fill-block-avx2.c:233:13 ]
	vpalignr	$8, %ymm1, %ymm2, %ymm1         # ymm1 = ymm1[8,9,10,11,12,13,14,15],ymm2[0,1,2,3,4,5,6,7],ymm1[24,25,26,27,28,29,30,31],ymm2[16,17,18,19,20,21,22,23]
	.loc	6 59 8393                       # crypto_pwhash/argon2/argon2-fill-block-avx2.c:59:8393 @[ crypto_pwhash/argon2/argon2-fill-block-avx2.c:233:13 ]
	vmovdqa	%ymm1, 992(%rsp,%rcx)
	.loc	6 59 8536                       # crypto_pwhash/argon2/argon2-fill-block-avx2.c:59:8536 @[ crypto_pwhash/argon2/argon2-fill-block-avx2.c:233:13 ]
	vpalignr	$8, %ymm5, %ymm0, %ymm0         # ymm0 = ymm5[8,9,10,11,12,13,14,15],ymm0[0,1,2,3,4,5,6,7],ymm5[24,25,26,27,28,29,30,31],ymm0[16,17,18,19,20,21,22,23]
	.loc	6 59 8524                       # crypto_pwhash/argon2/argon2-fill-block-avx2.c:59:8524 @[ crypto_pwhash/argon2/argon2-fill-block-avx2.c:233:13 ]
	vmovdqa	%ymm0, 1120(%rsp,%rcx)
.Ltmp200:
	#DEBUG_VALUE: fill_block:i <- [DW_OP_consts 18446744073709551488, DW_OP_minus, DW_OP_consts 32, DW_OP_div, DW_OP_consts 1, DW_OP_plus, DW_OP_stack_value] $rcx
	.loc	6 58 19 is_stmt 1               # crypto_pwhash/argon2/argon2-fill-block-avx2.c:58:19 @[ crypto_pwhash/argon2/argon2-fill-block-avx2.c:233:13 ]
	addq	$32, %rcx
.Ltmp201:
	.loc	6 58 5 is_stmt 0                # crypto_pwhash/argon2/argon2-fill-block-avx2.c:58:5 @[ crypto_pwhash/argon2/argon2-fill-block-avx2.c:233:13 ]
	jne	.LBB0_40
.Ltmp202:
# %bb.41:                               # %.preheader.i.preheader
                                        #   in Loop: Header=BB0_15 Depth=1
	#DEBUG_VALUE: argon2_fill_segment_avx2:position <- [DW_OP_plus_uconst 32, DW_OP_deref_size 8, DW_OP_constu 8, DW_OP_shr, DW_OP_LLVM_convert 64 7, DW_OP_LLVM_convert 24 7, DW_OP_stack_value, DW_OP_LLVM_fragment 72 24] $rsp
	#DEBUG_VALUE: argon2_fill_segment_avx2:instance <- [DW_OP_plus_uconst 64] [$rsp+0]
	#DEBUG_VALUE: argon2_fill_segment_avx2:position <- [DW_OP_plus_uconst 56, DW_OP_deref, DW_OP_LLVM_fragment 32 32] $rsp
	#DEBUG_VALUE: argon2_fill_segment_avx2:position <- [DW_OP_plus_uconst 48, DW_OP_deref, DW_OP_LLVM_fragment 0 32] $rsp
	#DEBUG_VALUE: argon2_fill_segment_avx2:position <- [DW_OP_plus_uconst 32, DW_OP_deref, DW_OP_LLVM_fragment 64 8] $rsp
	#DEBUG_VALUE: argon2_fill_segment_avx2:position <- [DW_OP_LLVM_fragment 96 32] $r13
	#DEBUG_VALUE: argon2_fill_segment_avx2:ref_block <- $rsi
	#DEBUG_VALUE: argon2_fill_segment_avx2:i <- $r13
	#DEBUG_VALUE: argon2_fill_segment_avx2:curr_offset <- $r12d
	#DEBUG_VALUE: argon2_fill_segment_avx2:prev_offset <- $ebx
	#DEBUG_VALUE: fill_block:block_XY <- [DW_OP_plus_uconst 1120, DW_OP_deref] $rsp
	#DEBUG_VALUE: fill_block:state <- [DW_OP_plus_uconst 96, DW_OP_stack_value] $rsp
	#DEBUG_VALUE: fill_block:ref_block <- $rsi
	.loc	6 63 5 is_stmt 1                # crypto_pwhash/argon2/argon2-fill-block-avx2.c:63:5 @[ crypto_pwhash/argon2/argon2-fill-block-avx2.c:233:13 ]
	addq	%rax, %rdx
	movl	$32, %eax
.Ltmp203:
	.loc	6 0 5 is_stmt 0                 # :0:5
.Ltmp204:
	.p2align	4
.LBB0_42:                               # %.preheader.i
                                        #   Parent Loop BB0_15 Depth=1
                                        # =>  This Inner Loop Header: Depth=2
	#DEBUG_VALUE: argon2_fill_segment_avx2:position <- [DW_OP_plus_uconst 32, DW_OP_deref_size 8, DW_OP_constu 8, DW_OP_shr, DW_OP_LLVM_convert 64 7, DW_OP_LLVM_convert 24 7, DW_OP_stack_value, DW_OP_LLVM_fragment 72 24] $rsp
	#DEBUG_VALUE: argon2_fill_segment_avx2:instance <- [DW_OP_plus_uconst 64] [$rsp+0]
	#DEBUG_VALUE: argon2_fill_segment_avx2:position <- [DW_OP_plus_uconst 56, DW_OP_deref, DW_OP_LLVM_fragment 32 32] $rsp
	#DEBUG_VALUE: argon2_fill_segment_avx2:position <- [DW_OP_plus_uconst 48, DW_OP_deref, DW_OP_LLVM_fragment 0 32] $rsp
	#DEBUG_VALUE: argon2_fill_segment_avx2:position <- [DW_OP_plus_uconst 32, DW_OP_deref, DW_OP_LLVM_fragment 64 8] $rsp
	#DEBUG_VALUE: argon2_fill_segment_avx2:position <- [DW_OP_LLVM_fragment 96 32] $r13
	#DEBUG_VALUE: argon2_fill_segment_avx2:ref_block <- $rsi
	#DEBUG_VALUE: argon2_fill_segment_avx2:i <- $r13
	#DEBUG_VALUE: argon2_fill_segment_avx2:curr_offset <- $r12d
	#DEBUG_VALUE: argon2_fill_segment_avx2:prev_offset <- $ebx
	#DEBUG_VALUE: fill_block:block_XY <- [DW_OP_plus_uconst 1120, DW_OP_deref] $rsp
	#DEBUG_VALUE: fill_block:state <- [DW_OP_plus_uconst 96, DW_OP_stack_value] $rsp
	#DEBUG_VALUE: fill_block:ref_block <- $rsi
	#DEBUG_VALUE: fill_block:i <- [DW_OP_consts 32, DW_OP_minus, DW_OP_consts 64, DW_OP_div, DW_OP_consts 2, DW_OP_mul, DW_OP_stack_value] $rax
	.loc	6 64 47 is_stmt 1               # crypto_pwhash/argon2/argon2-fill-block-avx2.c:64:47 @[ crypto_pwhash/argon2/argon2-fill-block-avx2.c:233:13 ]
	vmovaps	1088(%rsp,%rax), %ymm0
	.loc	6 64 20 is_stmt 0               # crypto_pwhash/argon2/argon2-fill-block-avx2.c:64:20 @[ crypto_pwhash/argon2/argon2-fill-block-avx2.c:233:13 ]
	vxorps	64(%rsp,%rax), %ymm0, %ymm0
	.loc	6 64 18                         # crypto_pwhash/argon2/argon2-fill-block-avx2.c:64:18 @[ crypto_pwhash/argon2/argon2-fill-block-avx2.c:233:13 ]
	vmovaps	%ymm0, 64(%rsp,%rax)
	.loc	6 65 9 is_stmt 1                # crypto_pwhash/argon2/argon2-fill-block-avx2.c:65:9 @[ crypto_pwhash/argon2/argon2-fill-block-avx2.c:233:13 ]
	vmovups	%ymm0, -32(%rdx,%rax)
.Ltmp205:
	#DEBUG_VALUE: fill_block:i <- [DW_OP_consts 32, DW_OP_minus, DW_OP_consts 64, DW_OP_div, DW_OP_consts 2, DW_OP_mul, DW_OP_consts 1, DW_OP_plus, DW_OP_stack_value] $rax
	.loc	6 64 47                         # crypto_pwhash/argon2/argon2-fill-block-avx2.c:64:47 @[ crypto_pwhash/argon2/argon2-fill-block-avx2.c:233:13 ]
	vmovdqa	1120(%rsp,%rax), %ymm0
	.loc	6 64 20 is_stmt 0               # crypto_pwhash/argon2/argon2-fill-block-avx2.c:64:20 @[ crypto_pwhash/argon2/argon2-fill-block-avx2.c:233:13 ]
	vpxor	96(%rsp,%rax), %ymm0, %ymm0
	.loc	6 64 18                         # crypto_pwhash/argon2/argon2-fill-block-avx2.c:64:18 @[ crypto_pwhash/argon2/argon2-fill-block-avx2.c:233:13 ]
	vmovdqa	%ymm0, 96(%rsp,%rax)
	.loc	6 65 9 is_stmt 1                # crypto_pwhash/argon2/argon2-fill-block-avx2.c:65:9 @[ crypto_pwhash/argon2/argon2-fill-block-avx2.c:233:13 ]
	vmovdqu	%ymm0, (%rdx,%rax)
.Ltmp206:
	#DEBUG_VALUE: fill_block:i <- [DW_OP_consts 32, DW_OP_minus, DW_OP_consts 64, DW_OP_div, DW_OP_consts 2, DW_OP_mul, DW_OP_consts 2, DW_OP_plus, DW_OP_stack_value] $rax
	.loc	6 63 19                         # crypto_pwhash/argon2/argon2-fill-block-avx2.c:63:19 @[ crypto_pwhash/argon2/argon2-fill-block-avx2.c:233:13 ]
	addq	$64, %rax
.Ltmp207:
	cmpq	$1056, %rax                     # imm = 0x420
.Ltmp208:
	.loc	6 63 5 is_stmt 0                # crypto_pwhash/argon2/argon2-fill-block-avx2.c:63:5 @[ crypto_pwhash/argon2/argon2-fill-block-avx2.c:233:13 ]
	jne	.LBB0_42
	jmp	.LBB0_14
.Ltmp209:
.LBB0_43:                               # %.loopexit
	#DEBUG_VALUE: argon2_fill_segment_avx2:position <- [DW_OP_plus_uconst 32, DW_OP_deref_size 8, DW_OP_constu 8, DW_OP_shr, DW_OP_LLVM_convert 64 7, DW_OP_LLVM_convert 24 7, DW_OP_stack_value, DW_OP_LLVM_fragment 72 24] $rsp
	#DEBUG_VALUE: argon2_fill_segment_avx2:instance <- [DW_OP_LLVM_entry_value 1] $rdi
	#DEBUG_VALUE: argon2_fill_segment_avx2:position <- [DW_OP_plus_uconst 32, DW_OP_deref, DW_OP_LLVM_fragment 64 8] $rsp
	.loc	6 237 1 is_stmt 1               # crypto_pwhash/argon2/argon2-fill-block-avx2.c:237:1
	leaq	-40(%rbp), %rsp
.Ltmp210:
	.loc	6 237 1 epilogue_begin is_stmt 0 # crypto_pwhash/argon2/argon2-fill-block-avx2.c:237:1
	popq	%rbx
	popq	%r12
	popq	%r13
	popq	%r14
	popq	%r15
	popq	%rbp
	.cfi_def_cfa %rsp, 8
	vzeroupper
	retq
.Ltmp211:
.Lfunc_end0:
	.size	argon2_fill_segment_avx2, .Lfunc_end0-argon2_fill_segment_avx2
	.cfi_endproc
	.file	8 "/home/leizhenyuu/opt/Anonymous_Repo" "llvm-project/build/lib/clang/21/include/__stddef_size_t.h"
                                        # -- End function
	.section	.rodata.cst32,"aM",@progbits,32
	.p2align	5, 0x0                          # -- Begin function fill_block_with_xor
.LCPI1_0:
	.byte	3                               # 0x3
	.byte	4                               # 0x4
	.byte	5                               # 0x5
	.byte	6                               # 0x6
	.byte	7                               # 0x7
	.byte	0                               # 0x0
	.byte	1                               # 0x1
	.byte	2                               # 0x2
	.byte	11                              # 0xb
	.byte	12                              # 0xc
	.byte	13                              # 0xd
	.byte	14                              # 0xe
	.byte	15                              # 0xf
	.byte	8                               # 0x8
	.byte	9                               # 0x9
	.byte	10                              # 0xa
	.byte	3                               # 0x3
	.byte	4                               # 0x4
	.byte	5                               # 0x5
	.byte	6                               # 0x6
	.byte	7                               # 0x7
	.byte	0                               # 0x0
	.byte	1                               # 0x1
	.byte	2                               # 0x2
	.byte	11                              # 0xb
	.byte	12                              # 0xc
	.byte	13                              # 0xd
	.byte	14                              # 0xe
	.byte	15                              # 0xf
	.byte	8                               # 0x8
	.byte	9                               # 0x9
	.byte	10                              # 0xa
	.text
	.p2align	4
	.type	fill_block_with_xor,@function
fill_block_with_xor:                    # @fill_block_with_xor
.Lfunc_begin1:
	.loc	6 72 0 is_stmt 1                # crypto_pwhash/argon2/argon2-fill-block-avx2.c:72:0
	.cfi_startproc
# %bb.0:
	#DEBUG_VALUE: fill_block_with_xor:state <- $rdi
	#DEBUG_VALUE: fill_block_with_xor:ref_block <- $rsi
	#DEBUG_VALUE: fill_block_with_xor:next_block <- $rdx
	pushq	%rbp
	.cfi_def_cfa_offset 16
	.cfi_offset %rbp, -16
	movq	%rsp, %rbp
	.cfi_def_cfa_register %rbp
	andq	$-32, %rsp
	subq	$1056, %rsp                     # imm = 0x420
	movl	$32, %eax
.Ltmp212:
	#DEBUG_VALUE: fill_block_with_xor:i <- 0
	.loc	6 0 0 is_stmt 0                 # :0:0
.Ltmp213:
	.p2align	4
.LBB1_1:                                # =>This Inner Loop Header: Depth=1
	#DEBUG_VALUE: fill_block_with_xor:state <- $rdi
	#DEBUG_VALUE: fill_block_with_xor:ref_block <- $rsi
	#DEBUG_VALUE: fill_block_with_xor:next_block <- $rdx
	#DEBUG_VALUE: fill_block_with_xor:i <- [DW_OP_consts 32, DW_OP_minus, DW_OP_consts 64, DW_OP_div, DW_OP_consts 2, DW_OP_mul, DW_OP_stack_value] $rax
	.loc	6 78 23 prologue_end is_stmt 1  # crypto_pwhash/argon2/argon2-fill-block-avx2.c:78:23
	vmovups	-32(%rsi,%rax), %ymm0
	.loc	6 77 20                         # crypto_pwhash/argon2/argon2-fill-block-avx2.c:77:20
	vxorps	-32(%rdi,%rax), %ymm0, %ymm0
	.loc	6 77 18 is_stmt 0               # crypto_pwhash/argon2/argon2-fill-block-avx2.c:77:18
	vmovaps	%ymm0, -32(%rdi,%rax)
	.loc	6 79 23 is_stmt 1               # crypto_pwhash/argon2/argon2-fill-block-avx2.c:79:23
	vxorps	-32(%rdx,%rax), %ymm0, %ymm0
	.loc	6 79 21 is_stmt 0               # crypto_pwhash/argon2/argon2-fill-block-avx2.c:79:21
	vmovaps	%ymm0, -32(%rsp,%rax)
.Ltmp214:
	#DEBUG_VALUE: fill_block_with_xor:i <- [DW_OP_consts 32, DW_OP_minus, DW_OP_consts 64, DW_OP_div, DW_OP_consts 2, DW_OP_mul, DW_OP_consts 1, DW_OP_plus, DW_OP_stack_value] $rax
	.loc	6 78 23 is_stmt 1               # crypto_pwhash/argon2/argon2-fill-block-avx2.c:78:23
	vmovups	(%rsi,%rax), %ymm0
	.loc	6 77 20                         # crypto_pwhash/argon2/argon2-fill-block-avx2.c:77:20
	vxorps	(%rdi,%rax), %ymm0, %ymm0
	.loc	6 77 18 is_stmt 0               # crypto_pwhash/argon2/argon2-fill-block-avx2.c:77:18
	vmovaps	%ymm0, (%rdi,%rax)
	.loc	6 79 23 is_stmt 1               # crypto_pwhash/argon2/argon2-fill-block-avx2.c:79:23
	vxorps	(%rdx,%rax), %ymm0, %ymm0
	.loc	6 79 21 is_stmt 0               # crypto_pwhash/argon2/argon2-fill-block-avx2.c:79:21
	vmovaps	%ymm0, (%rsp,%rax)
.Ltmp215:
	#DEBUG_VALUE: fill_block_with_xor:i <- [DW_OP_consts 32, DW_OP_minus, DW_OP_consts 64, DW_OP_div, DW_OP_consts 2, DW_OP_mul, DW_OP_consts 2, DW_OP_plus, DW_OP_stack_value] $rax
	.loc	6 76 19 is_stmt 1               # crypto_pwhash/argon2/argon2-fill-block-avx2.c:76:19
	addq	$64, %rax
.Ltmp216:
	cmpq	$1056, %rax                     # imm = 0x420
.Ltmp217:
	.loc	6 76 5 is_stmt 0                # crypto_pwhash/argon2/argon2-fill-block-avx2.c:76:5
	jne	.LBB1_1
.Ltmp218:
# %bb.2:                                # %.preheader921.preheader
	#DEBUG_VALUE: fill_block_with_xor:state <- $rdi
	#DEBUG_VALUE: fill_block_with_xor:ref_block <- $rsi
	#DEBUG_VALUE: fill_block_with_xor:next_block <- $rdx
	.loc	6 0 5                           # crypto_pwhash/argon2/argon2-fill-block-avx2.c:0:5
	xorl	%eax, %eax
	vmovdqa	.LCPI1_0(%rip), %ymm0           # ymm0 = [3,4,5,6,7,0,1,2,11,12,13,14,15,8,9,10,3,4,5,6,7,0,1,2,11,12,13,14,15,8,9,10]
.Ltmp219:
	.p2align	4
.LBB1_3:                                # %.preheader921
                                        # =>This Inner Loop Header: Depth=1
	#DEBUG_VALUE: fill_block_with_xor:state <- $rdi
	#DEBUG_VALUE: fill_block_with_xor:ref_block <- $rsi
	#DEBUG_VALUE: fill_block_with_xor:next_block <- $rdx
	#DEBUG_VALUE: fill_block_with_xor:i <- [DW_OP_consts 256, DW_OP_div, DW_OP_stack_value] $rax
	.loc	6 84 48 is_stmt 1               # crypto_pwhash/argon2/argon2-fill-block-avx2.c:84:48
	vmovdqa	(%rdi,%rax), %ymm1
	.loc	6 84 66 is_stmt 0               # crypto_pwhash/argon2/argon2-fill-block-avx2.c:84:66
	vmovdqa	32(%rdi,%rax), %ymm2
	.loc	6 84 452                        # crypto_pwhash/argon2/argon2-fill-block-avx2.c:84:452
	vmovdqa	64(%rdi,%rax), %ymm3
	.loc	6 84 894                        # crypto_pwhash/argon2/argon2-fill-block-avx2.c:84:894
	vmovdqa	128(%rdi,%rax), %ymm4
	.loc	6 84 31                         # crypto_pwhash/argon2/argon2-fill-block-avx2.c:84:31
	vpmuludq	%ymm1, %ymm2, %ymm5
.Ltmp220:
	#DEBUG_VALUE: ml <- $ymm5
	.loc	6 84 90                         # crypto_pwhash/argon2/argon2-fill-block-avx2.c:84:90
	vpaddq	%ymm5, %ymm5, %ymm5
.Ltmp221:
	#DEBUG_VALUE: ml <- undef
	.loc	6 84 170                        # crypto_pwhash/argon2/argon2-fill-block-avx2.c:84:170
	vpaddq	%ymm1, %ymm2, %ymm1
	.loc	6 84 135                        # crypto_pwhash/argon2/argon2-fill-block-avx2.c:84:135
	vpaddq	%ymm5, %ymm1, %ymm1
	.loc	6 84 230                        # crypto_pwhash/argon2/argon2-fill-block-avx2.c:84:230
	vpxor	96(%rdi,%rax), %ymm1, %ymm5
	.loc	6 84 313                        # crypto_pwhash/argon2/argon2-fill-block-avx2.c:84:313
	vpshufd	$177, %ymm5, %ymm5              # ymm5 = ymm5[1,0,3,2,5,4,7,6]
	.loc	6 84 435                        # crypto_pwhash/argon2/argon2-fill-block-avx2.c:84:435
	vpmuludq	%ymm3, %ymm5, %ymm6
.Ltmp222:
	#DEBUG_VALUE: ml <- $ymm6
	.loc	6 84 494                        # crypto_pwhash/argon2/argon2-fill-block-avx2.c:84:494
	vpaddq	%ymm6, %ymm6, %ymm6
.Ltmp223:
	.loc	6 84 574                        # crypto_pwhash/argon2/argon2-fill-block-avx2.c:84:574
	vpaddq	%ymm5, %ymm3, %ymm3
	.loc	6 84 539                        # crypto_pwhash/argon2/argon2-fill-block-avx2.c:84:539
	vpaddq	%ymm6, %ymm3, %ymm3
	.loc	6 84 634                        # crypto_pwhash/argon2/argon2-fill-block-avx2.c:84:634
	vpxor	%ymm2, %ymm3, %ymm2
	.loc	6 84 707                        # crypto_pwhash/argon2/argon2-fill-block-avx2.c:84:707
	vpshufb	%ymm0, %ymm2, %ymm2
	.loc	6 84 912                        # crypto_pwhash/argon2/argon2-fill-block-avx2.c:84:912
	vmovdqa	160(%rdi,%rax), %ymm6
	.loc	6 84 877                        # crypto_pwhash/argon2/argon2-fill-block-avx2.c:84:877
	vpmuludq	%ymm4, %ymm6, %ymm7
.Ltmp224:
	#DEBUG_VALUE: ml <- $ymm7
	.loc	6 84 936                        # crypto_pwhash/argon2/argon2-fill-block-avx2.c:84:936
	vpaddq	%ymm7, %ymm7, %ymm7
.Ltmp225:
	.loc	6 84 1016                       # crypto_pwhash/argon2/argon2-fill-block-avx2.c:84:1016
	vpaddq	%ymm4, %ymm6, %ymm4
	.loc	6 84 981                        # crypto_pwhash/argon2/argon2-fill-block-avx2.c:84:981
	vpaddq	%ymm7, %ymm4, %ymm4
	.loc	6 84 1076                       # crypto_pwhash/argon2/argon2-fill-block-avx2.c:84:1076
	vpxor	224(%rdi,%rax), %ymm4, %ymm7
	.loc	6 84 1159                       # crypto_pwhash/argon2/argon2-fill-block-avx2.c:84:1159
	vpshufd	$177, %ymm7, %ymm7              # ymm7 = ymm7[1,0,3,2,5,4,7,6]
	.loc	6 84 1298                       # crypto_pwhash/argon2/argon2-fill-block-avx2.c:84:1298
	vmovdqa	192(%rdi,%rax), %ymm8
	.loc	6 84 1281                       # crypto_pwhash/argon2/argon2-fill-block-avx2.c:84:1281
	vpmuludq	%ymm7, %ymm8, %ymm9
.Ltmp226:
	#DEBUG_VALUE: ml <- $ymm9
	.loc	6 84 1340                       # crypto_pwhash/argon2/argon2-fill-block-avx2.c:84:1340
	vpaddq	%ymm9, %ymm9, %ymm9
.Ltmp227:
	.loc	6 84 1420                       # crypto_pwhash/argon2/argon2-fill-block-avx2.c:84:1420
	vpaddq	%ymm7, %ymm8, %ymm8
	.loc	6 84 1385                       # crypto_pwhash/argon2/argon2-fill-block-avx2.c:84:1385
	vpaddq	%ymm9, %ymm8, %ymm8
	.loc	6 84 1480                       # crypto_pwhash/argon2/argon2-fill-block-avx2.c:84:1480
	vpxor	%ymm6, %ymm8, %ymm6
	.loc	6 84 1553                       # crypto_pwhash/argon2/argon2-fill-block-avx2.c:84:1553
	vpshufb	%ymm0, %ymm6, %ymm6
.Ltmp228:
	.loc	6 84 1757                       # crypto_pwhash/argon2/argon2-fill-block-avx2.c:84:1757
	vpmuludq	%ymm1, %ymm2, %ymm9
.Ltmp229:
	#DEBUG_VALUE: ml <- $ymm9
	.loc	6 84 1816                       # crypto_pwhash/argon2/argon2-fill-block-avx2.c:84:1816
	vpaddq	%ymm9, %ymm9, %ymm9
.Ltmp230:
	#DEBUG_VALUE: ml <- undef
	.loc	6 84 1896                       # crypto_pwhash/argon2/argon2-fill-block-avx2.c:84:1896
	vpaddq	%ymm2, %ymm1, %ymm1
	.loc	6 84 1861                       # crypto_pwhash/argon2/argon2-fill-block-avx2.c:84:1861
	vpaddq	%ymm1, %ymm9, %ymm1
	.loc	6 84 2029                       # crypto_pwhash/argon2/argon2-fill-block-avx2.c:84:2029
	vpshuflw	$57, %ymm1, %ymm9               # ymm9 = ymm1[1,2,3,0,4,5,6,7,9,10,11,8,12,13,14,15]
	vpshufhw	$57, %ymm9, %ymm9               # ymm9 = ymm9[0,1,2,3,5,6,7,4,8,9,10,11,13,14,15,12]
	vpshuflw	$57, %ymm5, %ymm5               # ymm5 = ymm5[1,2,3,0,4,5,6,7,9,10,11,8,12,13,14,15]
	vpshufhw	$57, %ymm5, %ymm5               # ymm5 = ymm5[0,1,2,3,5,6,7,4,8,9,10,11,13,14,15,12]
	vpxor	%ymm5, %ymm9, %ymm5
	.loc	6 84 2199                       # crypto_pwhash/argon2/argon2-fill-block-avx2.c:84:2199
	vpmuludq	%ymm3, %ymm5, %ymm9
.Ltmp231:
	#DEBUG_VALUE: ml <- $ymm9
	.loc	6 84 2258                       # crypto_pwhash/argon2/argon2-fill-block-avx2.c:84:2258
	vpaddq	%ymm9, %ymm9, %ymm9
.Ltmp232:
	.loc	6 84 2338                       # crypto_pwhash/argon2/argon2-fill-block-avx2.c:84:2338
	vpaddq	%ymm5, %ymm3, %ymm3
	.loc	6 84 2303                       # crypto_pwhash/argon2/argon2-fill-block-avx2.c:84:2303
	vpaddq	%ymm3, %ymm9, %ymm3
	.loc	6 84 2398                       # crypto_pwhash/argon2/argon2-fill-block-avx2.c:84:2398
	vpxor	%ymm2, %ymm3, %ymm2
	.loc	6 84 2471                       # crypto_pwhash/argon2/argon2-fill-block-avx2.c:84:2471
	vpsrlq	$63, %ymm2, %ymm9
	vpaddq	%ymm2, %ymm2, %ymm2
	vpor	%ymm2, %ymm9, %ymm9
	.loc	6 84 2595                       # crypto_pwhash/argon2/argon2-fill-block-avx2.c:84:2595
	vpmuludq	%ymm4, %ymm6, %ymm2
.Ltmp233:
	#DEBUG_VALUE: ml <- $ymm2
	.loc	6 84 2654                       # crypto_pwhash/argon2/argon2-fill-block-avx2.c:84:2654
	vpaddq	%ymm2, %ymm2, %ymm2
.Ltmp234:
	.loc	6 84 2734                       # crypto_pwhash/argon2/argon2-fill-block-avx2.c:84:2734
	vpaddq	%ymm6, %ymm4, %ymm4
	.loc	6 84 2699                       # crypto_pwhash/argon2/argon2-fill-block-avx2.c:84:2699
	vpaddq	%ymm2, %ymm4, %ymm2
	.loc	6 84 2867                       # crypto_pwhash/argon2/argon2-fill-block-avx2.c:84:2867
	vpshuflw	$57, %ymm2, %ymm4               # ymm4 = ymm2[1,2,3,0,4,5,6,7,9,10,11,8,12,13,14,15]
	vpshufhw	$57, %ymm4, %ymm4               # ymm4 = ymm4[0,1,2,3,5,6,7,4,8,9,10,11,13,14,15,12]
	vpshuflw	$57, %ymm7, %ymm7               # ymm7 = ymm7[1,2,3,0,4,5,6,7,9,10,11,8,12,13,14,15]
	vpshufhw	$57, %ymm7, %ymm7               # ymm7 = ymm7[0,1,2,3,5,6,7,4,8,9,10,11,13,14,15,12]
	vpxor	%ymm7, %ymm4, %ymm4
	.loc	6 84 3037                       # crypto_pwhash/argon2/argon2-fill-block-avx2.c:84:3037
	vpmuludq	%ymm4, %ymm8, %ymm7
.Ltmp235:
	#DEBUG_VALUE: ml <- $ymm7
	.loc	6 84 3096                       # crypto_pwhash/argon2/argon2-fill-block-avx2.c:84:3096
	vpaddq	%ymm7, %ymm7, %ymm7
.Ltmp236:
	.loc	6 84 3176                       # crypto_pwhash/argon2/argon2-fill-block-avx2.c:84:3176
	vpaddq	%ymm4, %ymm8, %ymm8
	.loc	6 84 3141                       # crypto_pwhash/argon2/argon2-fill-block-avx2.c:84:3141
	vpaddq	%ymm7, %ymm8, %ymm7
	.loc	6 84 3236                       # crypto_pwhash/argon2/argon2-fill-block-avx2.c:84:3236
	vpxor	%ymm6, %ymm7, %ymm6
	.loc	6 84 3309                       # crypto_pwhash/argon2/argon2-fill-block-avx2.c:84:3309
	vpsrlq	$63, %ymm6, %ymm8
	vpaddq	%ymm6, %ymm6, %ymm6
	vpor	%ymm6, %ymm8, %ymm6
.Ltmp237:
	.loc	6 84 3483                       # crypto_pwhash/argon2/argon2-fill-block-avx2.c:84:3483
	vpermq	$57, %ymm9, %ymm8               # ymm8 = ymm9[1,2,3,0]
	.loc	6 84 3629                       # crypto_pwhash/argon2/argon2-fill-block-avx2.c:84:3629
	vpermq	$78, %ymm3, %ymm3               # ymm3 = ymm3[2,3,0,1]
	.loc	6 84 3775                       # crypto_pwhash/argon2/argon2-fill-block-avx2.c:84:3775
	vpermq	$147, %ymm5, %ymm5              # ymm5 = ymm5[3,0,1,2]
	.loc	6 84 3921                       # crypto_pwhash/argon2/argon2-fill-block-avx2.c:84:3921
	vpermq	$57, %ymm6, %ymm6               # ymm6 = ymm6[1,2,3,0]
	.loc	6 84 4067                       # crypto_pwhash/argon2/argon2-fill-block-avx2.c:84:4067
	vpermq	$78, %ymm7, %ymm7               # ymm7 = ymm7[2,3,0,1]
	.loc	6 84 4213                       # crypto_pwhash/argon2/argon2-fill-block-avx2.c:84:4213
	vpermq	$147, %ymm4, %ymm4              # ymm4 = ymm4[3,0,1,2]
.Ltmp238:
	.loc	6 84 4369                       # crypto_pwhash/argon2/argon2-fill-block-avx2.c:84:4369
	vpmuludq	%ymm1, %ymm8, %ymm9
.Ltmp239:
	#DEBUG_VALUE: ml <- $ymm9
	.loc	6 84 4428                       # crypto_pwhash/argon2/argon2-fill-block-avx2.c:84:4428
	vpaddq	%ymm9, %ymm9, %ymm9
.Ltmp240:
	#DEBUG_VALUE: ml <- undef
	.loc	6 84 4508                       # crypto_pwhash/argon2/argon2-fill-block-avx2.c:84:4508
	vpaddq	%ymm1, %ymm8, %ymm1
	.loc	6 84 4473                       # crypto_pwhash/argon2/argon2-fill-block-avx2.c:84:4473
	vpaddq	%ymm1, %ymm9, %ymm9
	.loc	6 84 4651                       # crypto_pwhash/argon2/argon2-fill-block-avx2.c:84:4651
	vpshufd	$177, %ymm9, %ymm1              # ymm1 = ymm9[1,0,3,2,5,4,7,6]
	vpshufd	$177, %ymm5, %ymm5              # ymm5 = ymm5[1,0,3,2,5,4,7,6]
	vpxor	%ymm5, %ymm1, %ymm5
	.loc	6 84 4773                       # crypto_pwhash/argon2/argon2-fill-block-avx2.c:84:4773
	vpmuludq	%ymm3, %ymm5, %ymm1
.Ltmp241:
	#DEBUG_VALUE: ml <- $ymm1
	.loc	6 84 4832                       # crypto_pwhash/argon2/argon2-fill-block-avx2.c:84:4832
	vpaddq	%ymm1, %ymm1, %ymm1
.Ltmp242:
	.loc	6 84 4912                       # crypto_pwhash/argon2/argon2-fill-block-avx2.c:84:4912
	vpaddq	%ymm5, %ymm3, %ymm3
	.loc	6 84 4877                       # crypto_pwhash/argon2/argon2-fill-block-avx2.c:84:4877
	vpaddq	%ymm1, %ymm3, %ymm3
	.loc	6 84 4972                       # crypto_pwhash/argon2/argon2-fill-block-avx2.c:84:4972
	vpxor	%ymm3, %ymm8, %ymm1
	.loc	6 84 5045                       # crypto_pwhash/argon2/argon2-fill-block-avx2.c:84:5045
	vpshufb	%ymm0, %ymm1, %ymm8
	.loc	6 84 5215                       # crypto_pwhash/argon2/argon2-fill-block-avx2.c:84:5215
	vpmuludq	%ymm2, %ymm6, %ymm1
.Ltmp243:
	#DEBUG_VALUE: ml <- $ymm1
	.loc	6 84 5274                       # crypto_pwhash/argon2/argon2-fill-block-avx2.c:84:5274
	vpaddq	%ymm1, %ymm1, %ymm1
.Ltmp244:
	.loc	6 84 5354                       # crypto_pwhash/argon2/argon2-fill-block-avx2.c:84:5354
	vpaddq	%ymm2, %ymm6, %ymm2
	.loc	6 84 5319                       # crypto_pwhash/argon2/argon2-fill-block-avx2.c:84:5319
	vpaddq	%ymm1, %ymm2, %ymm10
	.loc	6 84 5497                       # crypto_pwhash/argon2/argon2-fill-block-avx2.c:84:5497
	vpshufd	$177, %ymm10, %ymm1             # ymm1 = ymm10[1,0,3,2,5,4,7,6]
	vpshufd	$177, %ymm4, %ymm2              # ymm2 = ymm4[1,0,3,2,5,4,7,6]
	vpxor	%ymm2, %ymm1, %ymm4
	.loc	6 84 5619                       # crypto_pwhash/argon2/argon2-fill-block-avx2.c:84:5619
	vpmuludq	%ymm7, %ymm4, %ymm1
.Ltmp245:
	#DEBUG_VALUE: ml <- $ymm1
	.loc	6 84 5678                       # crypto_pwhash/argon2/argon2-fill-block-avx2.c:84:5678
	vpaddq	%ymm1, %ymm1, %ymm1
.Ltmp246:
	.loc	6 84 5758                       # crypto_pwhash/argon2/argon2-fill-block-avx2.c:84:5758
	vpaddq	%ymm4, %ymm7, %ymm2
	.loc	6 84 5723                       # crypto_pwhash/argon2/argon2-fill-block-avx2.c:84:5723
	vpaddq	%ymm1, %ymm2, %ymm1
	.loc	6 84 5818                       # crypto_pwhash/argon2/argon2-fill-block-avx2.c:84:5818
	vpxor	%ymm6, %ymm1, %ymm2
	.loc	6 84 5891                       # crypto_pwhash/argon2/argon2-fill-block-avx2.c:84:5891
	vpshufb	%ymm0, %ymm2, %ymm2
.Ltmp247:
	.loc	6 84 6095                       # crypto_pwhash/argon2/argon2-fill-block-avx2.c:84:6095
	vpmuludq	%ymm9, %ymm8, %ymm6
.Ltmp248:
	#DEBUG_VALUE: ml <- $ymm6
	.loc	6 84 6154                       # crypto_pwhash/argon2/argon2-fill-block-avx2.c:84:6154
	vpaddq	%ymm6, %ymm6, %ymm6
.Ltmp249:
	#DEBUG_VALUE: ml <- undef
	.loc	6 84 6234                       # crypto_pwhash/argon2/argon2-fill-block-avx2.c:84:6234
	vpaddq	%ymm8, %ymm9, %ymm7
	.loc	6 84 6199                       # crypto_pwhash/argon2/argon2-fill-block-avx2.c:84:6199
	vpaddq	%ymm6, %ymm7, %ymm6
	.loc	6 84 6197                       # crypto_pwhash/argon2/argon2-fill-block-avx2.c:84:6197
	vmovdqa	%ymm6, (%rdi,%rax)
	.loc	6 84 6367                       # crypto_pwhash/argon2/argon2-fill-block-avx2.c:84:6367
	vpshuflw	$57, %ymm6, %ymm6               # ymm6 = ymm6[1,2,3,0,4,5,6,7,9,10,11,8,12,13,14,15]
	vpshufhw	$57, %ymm6, %ymm6               # ymm6 = ymm6[0,1,2,3,5,6,7,4,8,9,10,11,13,14,15,12]
	vpshuflw	$57, %ymm5, %ymm5               # ymm5 = ymm5[1,2,3,0,4,5,6,7,9,10,11,8,12,13,14,15]
	vpshufhw	$57, %ymm5, %ymm5               # ymm5 = ymm5[0,1,2,3,5,6,7,4,8,9,10,11,13,14,15,12]
	vpxor	%ymm5, %ymm6, %ymm5
	.loc	6 84 6537                       # crypto_pwhash/argon2/argon2-fill-block-avx2.c:84:6537
	vpmuludq	%ymm3, %ymm5, %ymm6
.Ltmp250:
	#DEBUG_VALUE: ml <- $ymm6
	.loc	6 84 6596                       # crypto_pwhash/argon2/argon2-fill-block-avx2.c:84:6596
	vpaddq	%ymm6, %ymm6, %ymm6
.Ltmp251:
	.loc	6 84 6676                       # crypto_pwhash/argon2/argon2-fill-block-avx2.c:84:6676
	vpaddq	%ymm5, %ymm3, %ymm3
	.loc	6 84 6641                       # crypto_pwhash/argon2/argon2-fill-block-avx2.c:84:6641
	vpaddq	%ymm6, %ymm3, %ymm3
	.loc	6 84 6736                       # crypto_pwhash/argon2/argon2-fill-block-avx2.c:84:6736
	vpxor	%ymm3, %ymm8, %ymm6
	.loc	6 84 6809                       # crypto_pwhash/argon2/argon2-fill-block-avx2.c:84:6809
	vpsrlq	$63, %ymm6, %ymm7
	vpaddq	%ymm6, %ymm6, %ymm6
	vpor	%ymm7, %ymm6, %ymm6
	.loc	6 84 6933                       # crypto_pwhash/argon2/argon2-fill-block-avx2.c:84:6933
	vpmuludq	%ymm2, %ymm10, %ymm7
.Ltmp252:
	#DEBUG_VALUE: ml <- $ymm7
	.loc	6 84 6992                       # crypto_pwhash/argon2/argon2-fill-block-avx2.c:84:6992
	vpaddq	%ymm7, %ymm7, %ymm7
.Ltmp253:
	.loc	6 84 7072                       # crypto_pwhash/argon2/argon2-fill-block-avx2.c:84:7072
	vpaddq	%ymm2, %ymm10, %ymm8
	.loc	6 84 7037                       # crypto_pwhash/argon2/argon2-fill-block-avx2.c:84:7037
	vpaddq	%ymm7, %ymm8, %ymm7
	.loc	6 84 7035                       # crypto_pwhash/argon2/argon2-fill-block-avx2.c:84:7035
	vmovdqa	%ymm7, 128(%rdi,%rax)
	.loc	6 84 7205                       # crypto_pwhash/argon2/argon2-fill-block-avx2.c:84:7205
	vpshuflw	$57, %ymm7, %ymm7               # ymm7 = ymm7[1,2,3,0,4,5,6,7,9,10,11,8,12,13,14,15]
	vpshufhw	$57, %ymm7, %ymm7               # ymm7 = ymm7[0,1,2,3,5,6,7,4,8,9,10,11,13,14,15,12]
	vpshuflw	$57, %ymm4, %ymm4               # ymm4 = ymm4[1,2,3,0,4,5,6,7,9,10,11,8,12,13,14,15]
	vpshufhw	$57, %ymm4, %ymm4               # ymm4 = ymm4[0,1,2,3,5,6,7,4,8,9,10,11,13,14,15,12]
	vpxor	%ymm4, %ymm7, %ymm4
	.loc	6 84 7375                       # crypto_pwhash/argon2/argon2-fill-block-avx2.c:84:7375
	vpmuludq	%ymm1, %ymm4, %ymm7
.Ltmp254:
	#DEBUG_VALUE: ml <- $ymm7
	.loc	6 84 7434                       # crypto_pwhash/argon2/argon2-fill-block-avx2.c:84:7434
	vpaddq	%ymm7, %ymm7, %ymm7
.Ltmp255:
	.loc	6 84 7514                       # crypto_pwhash/argon2/argon2-fill-block-avx2.c:84:7514
	vpaddq	%ymm4, %ymm1, %ymm1
	.loc	6 84 7479                       # crypto_pwhash/argon2/argon2-fill-block-avx2.c:84:7479
	vpaddq	%ymm7, %ymm1, %ymm1
	.loc	6 84 7574                       # crypto_pwhash/argon2/argon2-fill-block-avx2.c:84:7574
	vpxor	%ymm2, %ymm1, %ymm2
	.loc	6 84 7647                       # crypto_pwhash/argon2/argon2-fill-block-avx2.c:84:7647
	vpsrlq	$63, %ymm2, %ymm7
	vpaddq	%ymm2, %ymm2, %ymm2
	vpor	%ymm7, %ymm2, %ymm2
.Ltmp256:
	.loc	6 84 7821                       # crypto_pwhash/argon2/argon2-fill-block-avx2.c:84:7821
	vpermq	$147, %ymm6, %ymm6              # ymm6 = ymm6[3,0,1,2]
	.loc	6 84 7809                       # crypto_pwhash/argon2/argon2-fill-block-avx2.c:84:7809
	vmovdqa	%ymm6, 32(%rdi,%rax)
	.loc	6 84 7967                       # crypto_pwhash/argon2/argon2-fill-block-avx2.c:84:7967
	vpermq	$78, %ymm3, %ymm3               # ymm3 = ymm3[2,3,0,1]
	.loc	6 84 7955                       # crypto_pwhash/argon2/argon2-fill-block-avx2.c:84:7955
	vmovdqa	%ymm3, 64(%rdi,%rax)
	.loc	6 84 8113                       # crypto_pwhash/argon2/argon2-fill-block-avx2.c:84:8113
	vpermq	$57, %ymm5, %ymm3               # ymm3 = ymm5[1,2,3,0]
	.loc	6 84 8101                       # crypto_pwhash/argon2/argon2-fill-block-avx2.c:84:8101
	vmovdqa	%ymm3, 96(%rdi,%rax)
	.loc	6 84 8259                       # crypto_pwhash/argon2/argon2-fill-block-avx2.c:84:8259
	vpermq	$147, %ymm2, %ymm2              # ymm2 = ymm2[3,0,1,2]
	.loc	6 84 8247                       # crypto_pwhash/argon2/argon2-fill-block-avx2.c:84:8247
	vmovdqa	%ymm2, 160(%rdi,%rax)
	.loc	6 84 8405                       # crypto_pwhash/argon2/argon2-fill-block-avx2.c:84:8405
	vpermq	$78, %ymm1, %ymm1               # ymm1 = ymm1[2,3,0,1]
	.loc	6 84 8393                       # crypto_pwhash/argon2/argon2-fill-block-avx2.c:84:8393
	vmovdqa	%ymm1, 192(%rdi,%rax)
	.loc	6 84 8551                       # crypto_pwhash/argon2/argon2-fill-block-avx2.c:84:8551
	vpermq	$57, %ymm4, %ymm1               # ymm1 = ymm4[1,2,3,0]
	.loc	6 84 8539                       # crypto_pwhash/argon2/argon2-fill-block-avx2.c:84:8539
	vmovdqa	%ymm1, 224(%rdi,%rax)
.Ltmp257:
	#DEBUG_VALUE: fill_block_with_xor:i <- [DW_OP_consts 256, DW_OP_div, DW_OP_consts 1, DW_OP_plus, DW_OP_stack_value] $rax
	.loc	6 83 19 is_stmt 1               # crypto_pwhash/argon2/argon2-fill-block-avx2.c:83:19
	addq	$256, %rax                      # imm = 0x100
.Ltmp258:
	cmpq	$1024, %rax                     # imm = 0x400
.Ltmp259:
	.loc	6 83 5 is_stmt 0                # crypto_pwhash/argon2/argon2-fill-block-avx2.c:83:5
	jne	.LBB1_3
.Ltmp260:
# %bb.4:                                # %.preheader920.preheader
	#DEBUG_VALUE: fill_block_with_xor:state <- $rdi
	#DEBUG_VALUE: fill_block_with_xor:ref_block <- $rsi
	#DEBUG_VALUE: fill_block_with_xor:next_block <- $rdx
	.loc	6 0 5                           # crypto_pwhash/argon2/argon2-fill-block-avx2.c:0:5
	movq	$-128, %rax
.Ltmp261:
	.p2align	4
.LBB1_5:                                # %.preheader920
                                        # =>This Inner Loop Header: Depth=1
	#DEBUG_VALUE: fill_block_with_xor:state <- $rdi
	#DEBUG_VALUE: fill_block_with_xor:ref_block <- $rsi
	#DEBUG_VALUE: fill_block_with_xor:next_block <- $rdx
	#DEBUG_VALUE: fill_block_with_xor:i <- [DW_OP_consts 18446744073709551488, DW_OP_minus, DW_OP_consts 32, DW_OP_div, DW_OP_stack_value] $rax
	.loc	6 89 48 is_stmt 1               # crypto_pwhash/argon2/argon2-fill-block-avx2.c:89:48
	vmovdqa	128(%rdi,%rax), %ymm1
	.loc	6 89 834 is_stmt 0              # crypto_pwhash/argon2/argon2-fill-block-avx2.c:89:834
	vmovdqa	256(%rdi,%rax), %ymm2
	.loc	6 89 63                         # crypto_pwhash/argon2/argon2-fill-block-avx2.c:89:63
	vmovdqa	384(%rdi,%rax), %ymm3
	.loc	6 89 31                         # crypto_pwhash/argon2/argon2-fill-block-avx2.c:89:31
	vpmuludq	%ymm1, %ymm3, %ymm4
.Ltmp262:
	#DEBUG_VALUE: ml <- $ymm4
	.loc	6 89 84                         # crypto_pwhash/argon2/argon2-fill-block-avx2.c:89:84
	vpaddq	%ymm4, %ymm4, %ymm4
.Ltmp263:
	#DEBUG_VALUE: ml <- undef
	.loc	6 89 158                        # crypto_pwhash/argon2/argon2-fill-block-avx2.c:89:158
	vpaddq	%ymm1, %ymm3, %ymm1
	.loc	6 89 126                        # crypto_pwhash/argon2/argon2-fill-block-avx2.c:89:126
	vpaddq	%ymm4, %ymm1, %ymm1
	.loc	6 89 212                        # crypto_pwhash/argon2/argon2-fill-block-avx2.c:89:212
	vpxor	896(%rdi,%rax), %ymm1, %ymm4
	.loc	6 89 849                        # crypto_pwhash/argon2/argon2-fill-block-avx2.c:89:849
	vmovdqa	512(%rdi,%rax), %ymm5
	.loc	6 89 286                        # crypto_pwhash/argon2/argon2-fill-block-avx2.c:89:286
	vpshufd	$177, %ymm4, %ymm4              # ymm4 = ymm4[1,0,3,2,5,4,7,6]
	.loc	6 89 422                        # crypto_pwhash/argon2/argon2-fill-block-avx2.c:89:422
	vmovdqa	640(%rdi,%rax), %ymm6
	.loc	6 89 405                        # crypto_pwhash/argon2/argon2-fill-block-avx2.c:89:405
	vpmuludq	%ymm6, %ymm4, %ymm7
.Ltmp264:
	#DEBUG_VALUE: ml <- $ymm7
	.loc	6 89 458                        # crypto_pwhash/argon2/argon2-fill-block-avx2.c:89:458
	vpaddq	%ymm7, %ymm7, %ymm7
.Ltmp265:
	.loc	6 89 532                        # crypto_pwhash/argon2/argon2-fill-block-avx2.c:89:532
	vpaddq	%ymm4, %ymm6, %ymm6
	.loc	6 89 500                        # crypto_pwhash/argon2/argon2-fill-block-avx2.c:89:500
	vpaddq	%ymm7, %ymm6, %ymm6
	.loc	6 89 586                        # crypto_pwhash/argon2/argon2-fill-block-avx2.c:89:586
	vpxor	%ymm3, %ymm6, %ymm3
	.loc	6 89 650                        # crypto_pwhash/argon2/argon2-fill-block-avx2.c:89:650
	vpshufb	%ymm0, %ymm3, %ymm3
	.loc	6 89 817                        # crypto_pwhash/argon2/argon2-fill-block-avx2.c:89:817
	vpmuludq	%ymm2, %ymm5, %ymm7
.Ltmp266:
	#DEBUG_VALUE: ml <- $ymm7
	.loc	6 89 870                        # crypto_pwhash/argon2/argon2-fill-block-avx2.c:89:870
	vpaddq	%ymm7, %ymm7, %ymm7
.Ltmp267:
	.loc	6 89 944                        # crypto_pwhash/argon2/argon2-fill-block-avx2.c:89:944
	vpaddq	%ymm2, %ymm5, %ymm2
	.loc	6 89 912                        # crypto_pwhash/argon2/argon2-fill-block-avx2.c:89:912
	vpaddq	%ymm7, %ymm2, %ymm7
	.loc	6 89 998                        # crypto_pwhash/argon2/argon2-fill-block-avx2.c:89:998
	vpxor	1024(%rdi,%rax), %ymm7, %ymm2
	.loc	6 89 1072                       # crypto_pwhash/argon2/argon2-fill-block-avx2.c:89:1072
	vpshufd	$177, %ymm2, %ymm8              # ymm8 = ymm2[1,0,3,2,5,4,7,6]
	.loc	6 89 1208                       # crypto_pwhash/argon2/argon2-fill-block-avx2.c:89:1208
	vmovdqa	768(%rdi,%rax), %ymm2
	.loc	6 89 1191                       # crypto_pwhash/argon2/argon2-fill-block-avx2.c:89:1191
	vpmuludq	%ymm2, %ymm8, %ymm9
.Ltmp268:
	#DEBUG_VALUE: ml <- $ymm9
	.loc	6 89 1244                       # crypto_pwhash/argon2/argon2-fill-block-avx2.c:89:1244
	vpaddq	%ymm9, %ymm9, %ymm9
.Ltmp269:
	.loc	6 89 1318                       # crypto_pwhash/argon2/argon2-fill-block-avx2.c:89:1318
	vpaddq	%ymm2, %ymm8, %ymm2
	.loc	6 89 1286                       # crypto_pwhash/argon2/argon2-fill-block-avx2.c:89:1286
	vpaddq	%ymm2, %ymm9, %ymm9
	.loc	6 89 1372                       # crypto_pwhash/argon2/argon2-fill-block-avx2.c:89:1372
	vpxor	%ymm5, %ymm9, %ymm2
	.loc	6 89 1436                       # crypto_pwhash/argon2/argon2-fill-block-avx2.c:89:1436
	vpshufb	%ymm0, %ymm2, %ymm5
.Ltmp270:
	.loc	6 89 1637                       # crypto_pwhash/argon2/argon2-fill-block-avx2.c:89:1637
	vpmuludq	%ymm1, %ymm3, %ymm2
.Ltmp271:
	#DEBUG_VALUE: ml <- $ymm2
	.loc	6 89 1690                       # crypto_pwhash/argon2/argon2-fill-block-avx2.c:89:1690
	vpaddq	%ymm2, %ymm2, %ymm2
.Ltmp272:
	#DEBUG_VALUE: ml <- undef
	.loc	6 89 1764                       # crypto_pwhash/argon2/argon2-fill-block-avx2.c:89:1764
	vpaddq	%ymm3, %ymm1, %ymm1
	.loc	6 89 1732                       # crypto_pwhash/argon2/argon2-fill-block-avx2.c:89:1732
	vpaddq	%ymm2, %ymm1, %ymm2
	.loc	6 89 1882                       # crypto_pwhash/argon2/argon2-fill-block-avx2.c:89:1882
	vpshuflw	$57, %ymm2, %ymm1               # ymm1 = ymm2[1,2,3,0,4,5,6,7,9,10,11,8,12,13,14,15]
	vpshuflw	$57, %ymm4, %ymm4               # ymm4 = ymm4[1,2,3,0,4,5,6,7,9,10,11,8,12,13,14,15]
	vpxor	%ymm4, %ymm1, %ymm4
	vpshufhw	$57, %ymm4, %ymm10              # ymm10 = ymm4[0,1,2,3,5,6,7,4,8,9,10,11,13,14,15,12]
	.loc	6 89 2049                       # crypto_pwhash/argon2/argon2-fill-block-avx2.c:89:2049
	vpmuludq	%ymm6, %ymm10, %ymm1
.Ltmp273:
	#DEBUG_VALUE: ml <- $ymm1
	.loc	6 89 2102                       # crypto_pwhash/argon2/argon2-fill-block-avx2.c:89:2102
	vpaddq	%ymm1, %ymm1, %ymm1
.Ltmp274:
	.loc	6 89 2176                       # crypto_pwhash/argon2/argon2-fill-block-avx2.c:89:2176
	vpaddq	%ymm6, %ymm10, %ymm6
	.loc	6 89 2144                       # crypto_pwhash/argon2/argon2-fill-block-avx2.c:89:2144
	vpaddq	%ymm1, %ymm6, %ymm1
	.loc	6 89 2230                       # crypto_pwhash/argon2/argon2-fill-block-avx2.c:89:2230
	vpxor	%ymm3, %ymm1, %ymm3
	.loc	6 89 2294                       # crypto_pwhash/argon2/argon2-fill-block-avx2.c:89:2294
	vpsrlq	$63, %ymm3, %ymm6
	vpaddq	%ymm3, %ymm3, %ymm3
	vpor	%ymm6, %ymm3, %ymm6
	.loc	6 89 2409                       # crypto_pwhash/argon2/argon2-fill-block-avx2.c:89:2409
	vpmuludq	%ymm7, %ymm5, %ymm3
.Ltmp275:
	#DEBUG_VALUE: ml <- $ymm3
	.loc	6 89 2462                       # crypto_pwhash/argon2/argon2-fill-block-avx2.c:89:2462
	vpaddq	%ymm3, %ymm3, %ymm3
.Ltmp276:
	.loc	6 89 2536                       # crypto_pwhash/argon2/argon2-fill-block-avx2.c:89:2536
	vpaddq	%ymm5, %ymm7, %ymm7
	.loc	6 89 2504                       # crypto_pwhash/argon2/argon2-fill-block-avx2.c:89:2504
	vpaddq	%ymm3, %ymm7, %ymm3
	.loc	6 89 2654                       # crypto_pwhash/argon2/argon2-fill-block-avx2.c:89:2654
	vpshuflw	$57, %ymm3, %ymm7               # ymm7 = ymm3[1,2,3,0,4,5,6,7,9,10,11,8,12,13,14,15]
	vpshuflw	$57, %ymm8, %ymm8               # ymm8 = ymm8[1,2,3,0,4,5,6,7,9,10,11,8,12,13,14,15]
	vpxor	%ymm7, %ymm8, %ymm7
	vpshufhw	$57, %ymm7, %ymm8               # ymm8 = ymm7[0,1,2,3,5,6,7,4,8,9,10,11,13,14,15,12]
	.loc	6 89 2821                       # crypto_pwhash/argon2/argon2-fill-block-avx2.c:89:2821
	vpmuludq	%ymm9, %ymm8, %ymm11
.Ltmp277:
	#DEBUG_VALUE: ml <- $ymm11
	.loc	6 89 2874                       # crypto_pwhash/argon2/argon2-fill-block-avx2.c:89:2874
	vpaddq	%ymm11, %ymm11, %ymm11
.Ltmp278:
	.loc	6 89 2948                       # crypto_pwhash/argon2/argon2-fill-block-avx2.c:89:2948
	vpaddq	%ymm8, %ymm9, %ymm9
	.loc	6 89 2916                       # crypto_pwhash/argon2/argon2-fill-block-avx2.c:89:2916
	vpaddq	%ymm11, %ymm9, %ymm9
	.loc	6 89 3002                       # crypto_pwhash/argon2/argon2-fill-block-avx2.c:89:3002
	vpxor	%ymm5, %ymm9, %ymm5
	.loc	6 89 3066                       # crypto_pwhash/argon2/argon2-fill-block-avx2.c:89:3066
	vpsrlq	$63, %ymm5, %ymm11
	vpaddq	%ymm5, %ymm5, %ymm5
	vpor	%ymm5, %ymm11, %ymm5
.Ltmp279:
	#DEBUG_VALUE: tmp1 <- undef
	#DEBUG_VALUE: tmp2 <- undef
	.loc	6 89 3496                       # crypto_pwhash/argon2/argon2-fill-block-avx2.c:89:3496
	vpalignr	$8, %ymm5, %ymm6, %ymm11        # ymm11 = ymm5[8,9,10,11,12,13,14,15],ymm6[0,1,2,3,4,5,6,7],ymm5[24,25,26,27,28,29,30,31],ymm6[16,17,18,19,20,21,22,23]
	.loc	6 89 3627                       # crypto_pwhash/argon2/argon2-fill-block-avx2.c:89:3627
	vpalignr	$8, %ymm6, %ymm5, %ymm5         # ymm5 = ymm6[8,9,10,11,12,13,14,15],ymm5[0,1,2,3,4,5,6,7],ymm6[24,25,26,27,28,29,30,31],ymm5[16,17,18,19,20,21,22,23]
.Ltmp280:
	#DEBUG_VALUE: tmp1 <- $ymm1
	.loc	6 89 4085                       # crypto_pwhash/argon2/argon2-fill-block-avx2.c:89:4085
	vpalignr	$8, %ymm8, %ymm4, %ymm4         # ymm4 = ymm8[8,9,10,11,12,13,14,15],ymm4[0,1,2,3,4,5,6,7],ymm8[24,25,26,27,28,29,30,31],ymm4[16,17,18,19,20,21,22,23]
	.loc	6 89 4216                       # crypto_pwhash/argon2/argon2-fill-block-avx2.c:89:4216
	vpalignr	$8, %ymm10, %ymm7, %ymm6        # ymm6 = ymm10[8,9,10,11,12,13,14,15],ymm7[0,1,2,3,4,5,6,7],ymm10[24,25,26,27,28,29,30,31],ymm7[16,17,18,19,20,21,22,23]
.Ltmp281:
	.loc	6 89 4351                       # crypto_pwhash/argon2/argon2-fill-block-avx2.c:89:4351
	vpmuludq	%ymm2, %ymm5, %ymm7
.Ltmp282:
	#DEBUG_VALUE: ml <- $ymm7
	.loc	6 89 4404                       # crypto_pwhash/argon2/argon2-fill-block-avx2.c:89:4404
	vpaddq	%ymm7, %ymm7, %ymm7
.Ltmp283:
	#DEBUG_VALUE: ml <- undef
	.loc	6 89 4478                       # crypto_pwhash/argon2/argon2-fill-block-avx2.c:89:4478
	vpaddq	%ymm2, %ymm5, %ymm2
	.loc	6 89 4446                       # crypto_pwhash/argon2/argon2-fill-block-avx2.c:89:4446
	vpaddq	%ymm7, %ymm2, %ymm2
	.loc	6 89 4606                       # crypto_pwhash/argon2/argon2-fill-block-avx2.c:89:4606
	vpshufd	$177, %ymm2, %ymm7              # ymm7 = ymm2[1,0,3,2,5,4,7,6]
	vpshufd	$177, %ymm4, %ymm4              # ymm4 = ymm4[1,0,3,2,5,4,7,6]
	vpxor	%ymm4, %ymm7, %ymm4
	.loc	6 89 4725                       # crypto_pwhash/argon2/argon2-fill-block-avx2.c:89:4725
	vpmuludq	%ymm4, %ymm9, %ymm7
.Ltmp284:
	#DEBUG_VALUE: ml <- $ymm7
	.loc	6 89 4778                       # crypto_pwhash/argon2/argon2-fill-block-avx2.c:89:4778
	vpaddq	%ymm7, %ymm7, %ymm7
.Ltmp285:
	.loc	6 89 4852                       # crypto_pwhash/argon2/argon2-fill-block-avx2.c:89:4852
	vpaddq	%ymm4, %ymm9, %ymm8
	.loc	6 89 4820                       # crypto_pwhash/argon2/argon2-fill-block-avx2.c:89:4820
	vpaddq	%ymm7, %ymm8, %ymm7
	.loc	6 89 4970                       # crypto_pwhash/argon2/argon2-fill-block-avx2.c:89:4970
	vpshufb	%ymm0, %ymm7, %ymm8
	vpshufb	%ymm0, %ymm5, %ymm5
	vpxor	%ymm5, %ymm8, %ymm5
	.loc	6 89 5137                       # crypto_pwhash/argon2/argon2-fill-block-avx2.c:89:5137
	vpmuludq	%ymm3, %ymm11, %ymm8
.Ltmp286:
	#DEBUG_VALUE: ml <- $ymm8
	.loc	6 89 5190                       # crypto_pwhash/argon2/argon2-fill-block-avx2.c:89:5190
	vpaddq	%ymm8, %ymm8, %ymm8
.Ltmp287:
	.loc	6 89 5264                       # crypto_pwhash/argon2/argon2-fill-block-avx2.c:89:5264
	vpaddq	%ymm3, %ymm11, %ymm3
	.loc	6 89 5232                       # crypto_pwhash/argon2/argon2-fill-block-avx2.c:89:5232
	vpaddq	%ymm3, %ymm8, %ymm3
	.loc	6 89 5392                       # crypto_pwhash/argon2/argon2-fill-block-avx2.c:89:5392
	vpshufd	$177, %ymm3, %ymm8              # ymm8 = ymm3[1,0,3,2,5,4,7,6]
	vpshufd	$177, %ymm6, %ymm6              # ymm6 = ymm6[1,0,3,2,5,4,7,6]
	vpxor	%ymm6, %ymm8, %ymm6
	.loc	6 89 5511                       # crypto_pwhash/argon2/argon2-fill-block-avx2.c:89:5511
	vpmuludq	%ymm1, %ymm6, %ymm8
.Ltmp288:
	#DEBUG_VALUE: ml <- $ymm8
	.loc	6 89 5564                       # crypto_pwhash/argon2/argon2-fill-block-avx2.c:89:5564
	vpaddq	%ymm8, %ymm8, %ymm8
.Ltmp289:
	.loc	6 89 5638                       # crypto_pwhash/argon2/argon2-fill-block-avx2.c:89:5638
	vpaddq	%ymm6, %ymm1, %ymm1
.Ltmp290:
	.loc	6 89 5606                       # crypto_pwhash/argon2/argon2-fill-block-avx2.c:89:5606
	vpaddq	%ymm1, %ymm8, %ymm8
	.loc	6 89 5756                       # crypto_pwhash/argon2/argon2-fill-block-avx2.c:89:5756
	vpshufb	%ymm0, %ymm8, %ymm1
	vpshufb	%ymm0, %ymm11, %ymm9
	vpxor	%ymm1, %ymm9, %ymm9
.Ltmp291:
	.loc	6 89 5957                       # crypto_pwhash/argon2/argon2-fill-block-avx2.c:89:5957
	vpmuludq	%ymm2, %ymm5, %ymm1
.Ltmp292:
	#DEBUG_VALUE: ml <- $ymm1
	.loc	6 89 6010                       # crypto_pwhash/argon2/argon2-fill-block-avx2.c:89:6010
	vpaddq	%ymm1, %ymm1, %ymm1
.Ltmp293:
	#DEBUG_VALUE: ml <- undef
	.loc	6 89 6084                       # crypto_pwhash/argon2/argon2-fill-block-avx2.c:89:6084
	vpaddq	%ymm5, %ymm2, %ymm2
	.loc	6 89 6052                       # crypto_pwhash/argon2/argon2-fill-block-avx2.c:89:6052
	vpaddq	%ymm1, %ymm2, %ymm1
	.loc	6 89 6050                       # crypto_pwhash/argon2/argon2-fill-block-avx2.c:89:6050
	vmovdqa	%ymm1, 128(%rdi,%rax)
	.loc	6 89 6202                       # crypto_pwhash/argon2/argon2-fill-block-avx2.c:89:6202
	vpshuflw	$57, %ymm1, %ymm1               # ymm1 = ymm1[1,2,3,0,4,5,6,7,9,10,11,8,12,13,14,15]
	vpshuflw	$57, %ymm4, %ymm2               # ymm2 = ymm4[1,2,3,0,4,5,6,7,9,10,11,8,12,13,14,15]
	vpxor	%ymm2, %ymm1, %ymm1
	vpshufhw	$57, %ymm1, %ymm2               # ymm2 = ymm1[0,1,2,3,5,6,7,4,8,9,10,11,13,14,15,12]
	.loc	6 89 6369                       # crypto_pwhash/argon2/argon2-fill-block-avx2.c:89:6369
	vpmuludq	%ymm7, %ymm2, %ymm4
.Ltmp294:
	#DEBUG_VALUE: ml <- $ymm4
	.loc	6 89 6422                       # crypto_pwhash/argon2/argon2-fill-block-avx2.c:89:6422
	vpaddq	%ymm4, %ymm4, %ymm4
.Ltmp295:
	.loc	6 89 6496                       # crypto_pwhash/argon2/argon2-fill-block-avx2.c:89:6496
	vpaddq	%ymm2, %ymm7, %ymm7
	.loc	6 89 6464                       # crypto_pwhash/argon2/argon2-fill-block-avx2.c:89:6464
	vpaddq	%ymm4, %ymm7, %ymm4
	.loc	6 89 6550                       # crypto_pwhash/argon2/argon2-fill-block-avx2.c:89:6550
	vpxor	%ymm5, %ymm4, %ymm5
	.loc	6 89 6614                       # crypto_pwhash/argon2/argon2-fill-block-avx2.c:89:6614
	vpsrlq	$63, %ymm5, %ymm7
	vpaddq	%ymm5, %ymm5, %ymm5
	vpor	%ymm7, %ymm5, %ymm5
	.loc	6 89 6729                       # crypto_pwhash/argon2/argon2-fill-block-avx2.c:89:6729
	vpmuludq	%ymm3, %ymm9, %ymm7
.Ltmp296:
	#DEBUG_VALUE: ml <- $ymm7
	.loc	6 89 6782                       # crypto_pwhash/argon2/argon2-fill-block-avx2.c:89:6782
	vpaddq	%ymm7, %ymm7, %ymm7
.Ltmp297:
	.loc	6 89 6856                       # crypto_pwhash/argon2/argon2-fill-block-avx2.c:89:6856
	vpaddq	%ymm3, %ymm9, %ymm3
	.loc	6 89 6824                       # crypto_pwhash/argon2/argon2-fill-block-avx2.c:89:6824
	vpaddq	%ymm7, %ymm3, %ymm3
	.loc	6 89 6822                       # crypto_pwhash/argon2/argon2-fill-block-avx2.c:89:6822
	vmovdqa	%ymm3, 256(%rdi,%rax)
	.loc	6 89 6974                       # crypto_pwhash/argon2/argon2-fill-block-avx2.c:89:6974
	vpshuflw	$57, %ymm3, %ymm3               # ymm3 = ymm3[1,2,3,0,4,5,6,7,9,10,11,8,12,13,14,15]
	vpshuflw	$57, %ymm6, %ymm6               # ymm6 = ymm6[1,2,3,0,4,5,6,7,9,10,11,8,12,13,14,15]
	vpxor	%ymm6, %ymm3, %ymm3
	vpshufhw	$57, %ymm3, %ymm6               # ymm6 = ymm3[0,1,2,3,5,6,7,4,8,9,10,11,13,14,15,12]
	.loc	6 89 7141                       # crypto_pwhash/argon2/argon2-fill-block-avx2.c:89:7141
	vpmuludq	%ymm6, %ymm8, %ymm7
.Ltmp298:
	#DEBUG_VALUE: ml <- $ymm7
	.loc	6 89 7194                       # crypto_pwhash/argon2/argon2-fill-block-avx2.c:89:7194
	vpaddq	%ymm7, %ymm7, %ymm7
.Ltmp299:
	.loc	6 89 7268                       # crypto_pwhash/argon2/argon2-fill-block-avx2.c:89:7268
	vpaddq	%ymm6, %ymm8, %ymm8
	.loc	6 89 7236                       # crypto_pwhash/argon2/argon2-fill-block-avx2.c:89:7236
	vpaddq	%ymm7, %ymm8, %ymm7
	.loc	6 89 7322                       # crypto_pwhash/argon2/argon2-fill-block-avx2.c:89:7322
	vpxor	%ymm7, %ymm9, %ymm8
	.loc	6 89 7386                       # crypto_pwhash/argon2/argon2-fill-block-avx2.c:89:7386
	vpsrlq	$63, %ymm8, %ymm9
	vpaddq	%ymm8, %ymm8, %ymm8
	vpor	%ymm9, %ymm8, %ymm8
.Ltmp300:
	#DEBUG_VALUE: tmp1 <- undef
	#DEBUG_VALUE: tmp2 <- undef
	.loc	6 89 7816                       # crypto_pwhash/argon2/argon2-fill-block-avx2.c:89:7816
	vpalignr	$8, %ymm8, %ymm5, %ymm9         # ymm9 = ymm8[8,9,10,11,12,13,14,15],ymm5[0,1,2,3,4,5,6,7],ymm8[24,25,26,27,28,29,30,31],ymm5[16,17,18,19,20,21,22,23]
	.loc	6 89 7804                       # crypto_pwhash/argon2/argon2-fill-block-avx2.c:89:7804
	vmovdqa	%ymm9, 384(%rdi,%rax)
	.loc	6 89 7947                       # crypto_pwhash/argon2/argon2-fill-block-avx2.c:89:7947
	vpalignr	$8, %ymm5, %ymm8, %ymm5         # ymm5 = ymm5[8,9,10,11,12,13,14,15],ymm8[0,1,2,3,4,5,6,7],ymm5[24,25,26,27,28,29,30,31],ymm8[16,17,18,19,20,21,22,23]
	.loc	6 89 7935                       # crypto_pwhash/argon2/argon2-fill-block-avx2.c:89:7935
	vmovdqa	%ymm5, 512(%rdi,%rax)
.Ltmp301:
	#DEBUG_VALUE: tmp1 <- $ymm4
	.loc	6 89 8088                       # crypto_pwhash/argon2/argon2-fill-block-avx2.c:89:8088
	vmovdqa	%ymm7, 640(%rdi,%rax)
	.loc	6 89 8119                       # crypto_pwhash/argon2/argon2-fill-block-avx2.c:89:8119
	vmovdqa	%ymm4, 768(%rdi,%rax)
	.loc	6 89 8405                       # crypto_pwhash/argon2/argon2-fill-block-avx2.c:89:8405
	vpalignr	$8, %ymm2, %ymm3, %ymm2         # ymm2 = ymm2[8,9,10,11,12,13,14,15],ymm3[0,1,2,3,4,5,6,7],ymm2[24,25,26,27,28,29,30,31],ymm3[16,17,18,19,20,21,22,23]
	.loc	6 89 8393                       # crypto_pwhash/argon2/argon2-fill-block-avx2.c:89:8393
	vmovdqa	%ymm2, 896(%rdi,%rax)
	.loc	6 89 8536                       # crypto_pwhash/argon2/argon2-fill-block-avx2.c:89:8536
	vpalignr	$8, %ymm6, %ymm1, %ymm1         # ymm1 = ymm6[8,9,10,11,12,13,14,15],ymm1[0,1,2,3,4,5,6,7],ymm6[24,25,26,27,28,29,30,31],ymm1[16,17,18,19,20,21,22,23]
	.loc	6 89 8524                       # crypto_pwhash/argon2/argon2-fill-block-avx2.c:89:8524
	vmovdqa	%ymm1, 1024(%rdi,%rax)
.Ltmp302:
	#DEBUG_VALUE: fill_block_with_xor:i <- [DW_OP_consts 18446744073709551488, DW_OP_minus, DW_OP_consts 32, DW_OP_div, DW_OP_consts 1, DW_OP_plus, DW_OP_stack_value] $rax
	.loc	6 88 19 is_stmt 1               # crypto_pwhash/argon2/argon2-fill-block-avx2.c:88:19
	addq	$32, %rax
.Ltmp303:
	.loc	6 88 5 is_stmt 0                # crypto_pwhash/argon2/argon2-fill-block-avx2.c:88:5
	jne	.LBB1_5
.Ltmp304:
# %bb.6:                                # %.preheader.preheader
	#DEBUG_VALUE: fill_block_with_xor:state <- $rdi
	#DEBUG_VALUE: fill_block_with_xor:ref_block <- $rsi
	#DEBUG_VALUE: fill_block_with_xor:next_block <- $rdx
	#DEBUG_VALUE: tmp1 <- $ymm4
	.loc	6 0 5                           # crypto_pwhash/argon2/argon2-fill-block-avx2.c:0:5
	movl	$32, %eax
.Ltmp305:
	.p2align	4
.LBB1_7:                                # %.preheader
                                        # =>This Inner Loop Header: Depth=1
	#DEBUG_VALUE: fill_block_with_xor:state <- $rdi
	#DEBUG_VALUE: fill_block_with_xor:ref_block <- $rsi
	#DEBUG_VALUE: fill_block_with_xor:next_block <- $rdx
	#DEBUG_VALUE: fill_block_with_xor:i <- [DW_OP_consts 32, DW_OP_minus, DW_OP_consts 64, DW_OP_div, DW_OP_consts 2, DW_OP_mul, DW_OP_stack_value] $rax
	.loc	6 94 47 is_stmt 1               # crypto_pwhash/argon2/argon2-fill-block-avx2.c:94:47
	vmovaps	-32(%rsp,%rax), %ymm0
	.loc	6 94 20 is_stmt 0               # crypto_pwhash/argon2/argon2-fill-block-avx2.c:94:20
	vxorps	-32(%rdi,%rax), %ymm0, %ymm0
	.loc	6 94 18                         # crypto_pwhash/argon2/argon2-fill-block-avx2.c:94:18
	vmovaps	%ymm0, -32(%rdi,%rax)
	.loc	6 95 9 is_stmt 1                # crypto_pwhash/argon2/argon2-fill-block-avx2.c:95:9
	vmovups	%ymm0, -32(%rdx,%rax)
.Ltmp306:
	#DEBUG_VALUE: fill_block_with_xor:i <- [DW_OP_consts 32, DW_OP_minus, DW_OP_consts 64, DW_OP_div, DW_OP_consts 2, DW_OP_mul, DW_OP_consts 1, DW_OP_plus, DW_OP_stack_value] $rax
	.loc	6 94 47                         # crypto_pwhash/argon2/argon2-fill-block-avx2.c:94:47
	vmovdqa	(%rsp,%rax), %ymm0
	.loc	6 94 20 is_stmt 0               # crypto_pwhash/argon2/argon2-fill-block-avx2.c:94:20
	vpxor	(%rdi,%rax), %ymm0, %ymm0
	.loc	6 94 18                         # crypto_pwhash/argon2/argon2-fill-block-avx2.c:94:18
	vmovdqa	%ymm0, (%rdi,%rax)
	.loc	6 95 9 is_stmt 1                # crypto_pwhash/argon2/argon2-fill-block-avx2.c:95:9
	vmovdqu	%ymm0, (%rdx,%rax)
.Ltmp307:
	#DEBUG_VALUE: fill_block_with_xor:i <- [DW_OP_consts 32, DW_OP_minus, DW_OP_consts 64, DW_OP_div, DW_OP_consts 2, DW_OP_mul, DW_OP_consts 2, DW_OP_plus, DW_OP_stack_value] $rax
	.loc	6 93 19                         # crypto_pwhash/argon2/argon2-fill-block-avx2.c:93:19
	addq	$64, %rax
.Ltmp308:
	cmpq	$1056, %rax                     # imm = 0x420
.Ltmp309:
	.loc	6 93 5 is_stmt 0                # crypto_pwhash/argon2/argon2-fill-block-avx2.c:93:5
	jne	.LBB1_7
.Ltmp310:
# %bb.8:
	#DEBUG_VALUE: fill_block_with_xor:state <- $rdi
	#DEBUG_VALUE: fill_block_with_xor:ref_block <- $rsi
	#DEBUG_VALUE: fill_block_with_xor:next_block <- $rdx
	.loc	6 97 1 is_stmt 1                # crypto_pwhash/argon2/argon2-fill-block-avx2.c:97:1
	movq	%rbp, %rsp
	.loc	6 97 1 epilogue_begin is_stmt 0 # crypto_pwhash/argon2/argon2-fill-block-avx2.c:97:1
	popq	%rbp
	.cfi_def_cfa %rsp, 8
	vzeroupper
	retq
.Ltmp311:
.Lfunc_end1:
	.size	fill_block_with_xor, .Lfunc_end1-fill_block_with_xor
	.cfi_endproc
                                        # -- End function
	.section	".note.GNU-stack","",@progbits
	.addrsig