	.file	"argon2-fill-block-ssse3.c"
	.file	0 "/home/leizhenyuu/opt/Anonymous_Repo/libsodium_o2_attr_inline/src/libsodium" "argon2-fill-block-ssse3.c" md5 0x188ca92b2ccbb0b1ed1e8ec476933905
	.file	1 "crypto_pwhash/argon2" "argon2.h"
	.file	2 "crypto_pwhash/argon2" "argon2-core.h"
	.file	3 "/usr/include/x86_64-linux-gnu/bits" "types.h"
	.file	4 "/usr/include/x86_64-linux-gnu/bits" "stdint-uintn.h"
	.file	5 "/home/leizhenyuu/opt/Anonymous_Repo" "llvm-project/build/lib/clang/21/include/emmintrin.h"
	.file	6 "/home/leizhenyuu/opt/Anonymous_Repo" "llvm-project/build/lib/clang/21/include/xmmintrin.h"
	.section	.rodata.cst16,"aM",@progbits,16
	.p2align	4, 0x0                          # -- Begin function argon2_fill_segment_ssse3
.LCPI0_0:
	.byte	3                               # 0x3
	.byte	4                               # 0x4
	.byte	5                               # 0x5
	.byte	6                               # 0x6
	.byte	7                               # 0x7
	.byte	0                               # 0x0
	.byte	1                               # 0x1
	.byte	2                               # 0x2
	.byte	11                              # 0xb
	.byte	12                              # 0xc
	.byte	13                              # 0xd
	.byte	14                              # 0xe
	.byte	15                              # 0xf
	.byte	8                               # 0x8
	.byte	9                               # 0x9
	.byte	10                              # 0xa
	.text
	.hidden	argon2_fill_segment_ssse3
	.globl	argon2_fill_segment_ssse3
	.p2align	4
	.type	argon2_fill_segment_ssse3,@function
argon2_fill_segment_ssse3:              # @argon2_fill_segment_ssse3
.Lfunc_begin0:
	.file	7 "crypto_pwhash/argon2" "argon2-fill-block-ssse3.c"
	.loc	7 146 0                         # crypto_pwhash/argon2/argon2-fill-block-ssse3.c:146:0
	.cfi_startproc
# %bb.0:
	#DEBUG_VALUE: argon2_fill_segment_ssse3:position <- [DW_OP_constu 8, DW_OP_shr, DW_OP_LLVM_convert 64 7, DW_OP_LLVM_convert 24 7, DW_OP_stack_value, DW_OP_LLVM_fragment 72 24] $rdx
	#DEBUG_VALUE: argon2_fill_segment_ssse3:instance <- $rdi
	pushq	%rbp
	.cfi_def_cfa_offset 16
	pushq	%r15
	.cfi_def_cfa_offset 24
	pushq	%r14
	.cfi_def_cfa_offset 32
	pushq	%r13
	.cfi_def_cfa_offset 40
	pushq	%r12
	.cfi_def_cfa_offset 48
	pushq	%rbx
	.cfi_def_cfa_offset 56
	subq	$5192, %rsp                     # imm = 0x1448
	.cfi_def_cfa_offset 5248
	.cfi_offset %rbx, -56
	.cfi_offset %r12, -48
	.cfi_offset %r13, -40
	.cfi_offset %r14, -32
	.cfi_offset %r15, -24
	.cfi_offset %rbp, -16
	movq	%rdx, 8(%rsp)                   # 8-byte Spill
.Ltmp0:
	#DEBUG_VALUE: argon2_fill_segment_ssse3:position <- [DW_OP_plus_uconst 8, DW_OP_deref_size 8, DW_OP_constu 8, DW_OP_shr, DW_OP_LLVM_convert 64 7, DW_OP_LLVM_convert 24 7, DW_OP_stack_value, DW_OP_LLVM_fragment 72 24] $rsp
	#DEBUG_VALUE: argon2_fill_segment_ssse3:position <- [DW_OP_LLVM_fragment 32 32] undef
	#DEBUG_VALUE: argon2_fill_segment_ssse3:position <- [DW_OP_LLVM_fragment 0 32] $esi
	#DEBUG_VALUE: argon2_fill_segment_ssse3:position <- [DW_OP_plus_uconst 8, DW_OP_deref, DW_OP_LLVM_fragment 64 8] $rsp
	#DEBUG_VALUE: argon2_fill_segment_ssse3:position <- [DW_OP_plus_uconst 8, DW_OP_deref_size 8, DW_OP_constu 32, DW_OP_shr, DW_OP_LLVM_convert 64 7, DW_OP_LLVM_convert 32 7, DW_OP_stack_value, DW_OP_LLVM_fragment 96 32] $rsp
	#DEBUG_VALUE: argon2_fill_segment_ssse3:ref_block <- 0
	#DEBUG_VALUE: argon2_fill_segment_ssse3:curr_block <- 0
	#DEBUG_VALUE: argon2_fill_segment_ssse3:data_independent_addressing <- 1
	#DEBUG_VALUE: argon2_fill_segment_ssse3:pseudo_rands <- 0
	.loc	7 157 18 prologue_end           # crypto_pwhash/argon2/argon2-fill-block-ssse3.c:157:18
	testq	%rdi, %rdi
	je	.LBB0_44
.Ltmp1:
# %bb.1:
	#DEBUG_VALUE: argon2_fill_segment_ssse3:position <- [DW_OP_plus_uconst 8, DW_OP_deref_size 8, DW_OP_constu 8, DW_OP_shr, DW_OP_LLVM_convert 64 7, DW_OP_LLVM_convert 24 7, DW_OP_stack_value, DW_OP_LLVM_fragment 72 24] $rsp
	#DEBUG_VALUE: argon2_fill_segment_ssse3:instance <- $rdi
	#DEBUG_VALUE: argon2_fill_segment_ssse3:position <- [DW_OP_LLVM_fragment 0 32] $esi
	#DEBUG_VALUE: argon2_fill_segment_ssse3:position <- [DW_OP_plus_uconst 8, DW_OP_deref, DW_OP_LLVM_fragment 64 8] $rsp
	#DEBUG_VALUE: argon2_fill_segment_ssse3:position <- [DW_OP_plus_uconst 8, DW_OP_deref_size 8, DW_OP_constu 32, DW_OP_shr, DW_OP_LLVM_convert 64 7, DW_OP_LLVM_convert 32 7, DW_OP_stack_value, DW_OP_LLVM_fragment 96 32] $rsp
	#DEBUG_VALUE: argon2_fill_segment_ssse3:ref_block <- 0
	#DEBUG_VALUE: argon2_fill_segment_ssse3:curr_block <- 0
	#DEBUG_VALUE: argon2_fill_segment_ssse3:data_independent_addressing <- 1
	#DEBUG_VALUE: argon2_fill_segment_ssse3:pseudo_rands <- 0
	.loc	7 0 18 is_stmt 0                # crypto_pwhash/argon2/argon2-fill-block-ssse3.c:0:18
	movq	%rdi, %r15
	movq	%rsi, %r12
	shrq	$32, %r12
.Ltmp2:
	#DEBUG_VALUE: argon2_fill_segment_ssse3:position <- [DW_OP_LLVM_fragment 32 32] $r12d
	.loc	7 161 19 is_stmt 1              # crypto_pwhash/argon2/argon2-fill-block-ssse3.c:161:19
	movl	44(%rdi), %ebx
	cmpq	$2, %rbx
	movq	%rsi, 24(%rsp)                  # 8-byte Spill
.Ltmp3:
	#DEBUG_VALUE: argon2_fill_segment_ssse3:position <- [DW_OP_plus_uconst 24, DW_OP_deref, DW_OP_LLVM_fragment 0 32] $rsp
	.loc	7 0 19 is_stmt 0                # crypto_pwhash/argon2/argon2-fill-block-ssse3.c:0:19
	movq	%r12, 32(%rsp)                  # 8-byte Spill
	.loc	7 161 37                        # crypto_pwhash/argon2/argon2-fill-block-ssse3.c:161:37
	jne	.LBB0_4
.Ltmp4:
# %bb.2:
	#DEBUG_VALUE: argon2_fill_segment_ssse3:position <- [DW_OP_plus_uconst 8, DW_OP_deref_size 8, DW_OP_constu 8, DW_OP_shr, DW_OP_LLVM_convert 64 7, DW_OP_LLVM_convert 24 7, DW_OP_stack_value, DW_OP_LLVM_fragment 72 24] $rsp
	#DEBUG_VALUE: argon2_fill_segment_ssse3:instance <- $r15
	#DEBUG_VALUE: argon2_fill_segment_ssse3:position <- [DW_OP_plus_uconst 32, DW_OP_deref, DW_OP_LLVM_fragment 32 32] $rsp
	#DEBUG_VALUE: argon2_fill_segment_ssse3:position <- [DW_OP_plus_uconst 24, DW_OP_deref, DW_OP_LLVM_fragment 0 32] $rsp
	#DEBUG_VALUE: argon2_fill_segment_ssse3:position <- [DW_OP_plus_uconst 8, DW_OP_deref, DW_OP_LLVM_fragment 64 8] $rsp
	#DEBUG_VALUE: argon2_fill_segment_ssse3:position <- [DW_OP_plus_uconst 8, DW_OP_deref_size 8, DW_OP_constu 32, DW_OP_shr, DW_OP_LLVM_convert 64 7, DW_OP_LLVM_convert 32 7, DW_OP_stack_value, DW_OP_LLVM_fragment 96 32] $rsp
	#DEBUG_VALUE: argon2_fill_segment_ssse3:ref_block <- 0
	#DEBUG_VALUE: argon2_fill_segment_ssse3:curr_block <- 0
	#DEBUG_VALUE: argon2_fill_segment_ssse3:data_independent_addressing <- 1
	#DEBUG_VALUE: argon2_fill_segment_ssse3:pseudo_rands <- 0
	.loc	7 162 24 is_stmt 1              # crypto_pwhash/argon2/argon2-fill-block-ssse3.c:162:24
	testl	%esi, %esi
	setne	%al
	cmpb	$2, 8(%rsp)                     # 1-byte Folded Reload
	setae	%cl
	.loc	7 162 29 is_stmt 0              # crypto_pwhash/argon2/argon2-fill-block-ssse3.c:162:29
	orb	%al, %cl
.Ltmp5:
	#DEBUG_VALUE: argon2_fill_segment_ssse3:data_independent_addressing <- undef
	.loc	7 166 30 is_stmt 1              # crypto_pwhash/argon2/argon2-fill-block-ssse3.c:166:30
	movq	8(%r15), %rax
.Ltmp6:
	#DEBUG_VALUE: argon2_fill_segment_ssse3:pseudo_rands <- $rax
	.loc	7 0 30 is_stmt 0                # crypto_pwhash/argon2/argon2-fill-block-ssse3.c:0:30
	movq	%rax, 40(%rsp)                  # 8-byte Spill
.Ltmp7:
	#DEBUG_VALUE: argon2_fill_segment_ssse3:pseudo_rands <- [DW_OP_plus_uconst 40, DW_OP_deref] $rsp
	.loc	7 168 9 is_stmt 1               # crypto_pwhash/argon2/argon2-fill-block-ssse3.c:168:9
	cmpb	$1, %cl
	jne	.LBB0_5
.Ltmp8:
# %bb.3:                                # %._crit_edge
	#DEBUG_VALUE: argon2_fill_segment_ssse3:position <- [DW_OP_plus_uconst 8, DW_OP_deref_size 8, DW_OP_constu 8, DW_OP_shr, DW_OP_LLVM_convert 64 7, DW_OP_LLVM_convert 24 7, DW_OP_stack_value, DW_OP_LLVM_fragment 72 24] $rsp
	#DEBUG_VALUE: argon2_fill_segment_ssse3:instance <- $r15
	#DEBUG_VALUE: argon2_fill_segment_ssse3:position <- [DW_OP_plus_uconst 32, DW_OP_deref, DW_OP_LLVM_fragment 32 32] $rsp
	#DEBUG_VALUE: argon2_fill_segment_ssse3:position <- [DW_OP_plus_uconst 24, DW_OP_deref, DW_OP_LLVM_fragment 0 32] $rsp
	#DEBUG_VALUE: argon2_fill_segment_ssse3:position <- [DW_OP_plus_uconst 8, DW_OP_deref, DW_OP_LLVM_fragment 64 8] $rsp
	#DEBUG_VALUE: argon2_fill_segment_ssse3:position <- [DW_OP_plus_uconst 8, DW_OP_deref_size 8, DW_OP_constu 32, DW_OP_shr, DW_OP_LLVM_convert 64 7, DW_OP_LLVM_convert 32 7, DW_OP_stack_value, DW_OP_LLVM_fragment 96 32] $rsp
	#DEBUG_VALUE: argon2_fill_segment_ssse3:ref_block <- 0
	#DEBUG_VALUE: argon2_fill_segment_ssse3:curr_block <- 0
	#DEBUG_VALUE: argon2_fill_segment_ssse3:pseudo_rands <- [DW_OP_plus_uconst 40, DW_OP_deref] $rsp
	.loc	7 180 46                        # crypto_pwhash/argon2/argon2-fill-block-ssse3.c:180:46
	movl	28(%r15), %r14d
	movb	$1, %al
	movl	%eax, 20(%rsp)                  # 4-byte Spill
	jmp	.LBB0_12
.Ltmp9:
.LBB0_4:                                # %.thread
	#DEBUG_VALUE: argon2_fill_segment_ssse3:position <- [DW_OP_plus_uconst 8, DW_OP_deref_size 8, DW_OP_constu 8, DW_OP_shr, DW_OP_LLVM_convert 64 7, DW_OP_LLVM_convert 24 7, DW_OP_stack_value, DW_OP_LLVM_fragment 72 24] $rsp
	#DEBUG_VALUE: argon2_fill_segment_ssse3:instance <- $r15
	#DEBUG_VALUE: argon2_fill_segment_ssse3:position <- [DW_OP_plus_uconst 32, DW_OP_deref, DW_OP_LLVM_fragment 32 32] $rsp
	#DEBUG_VALUE: argon2_fill_segment_ssse3:position <- [DW_OP_plus_uconst 24, DW_OP_deref, DW_OP_LLVM_fragment 0 32] $rsp
	#DEBUG_VALUE: argon2_fill_segment_ssse3:position <- [DW_OP_plus_uconst 8, DW_OP_deref, DW_OP_LLVM_fragment 64 8] $rsp
	#DEBUG_VALUE: argon2_fill_segment_ssse3:position <- [DW_OP_plus_uconst 8, DW_OP_deref_size 8, DW_OP_constu 32, DW_OP_shr, DW_OP_LLVM_convert 64 7, DW_OP_LLVM_convert 32 7, DW_OP_stack_value, DW_OP_LLVM_fragment 96 32] $rsp
	#DEBUG_VALUE: argon2_fill_segment_ssse3:ref_block <- 0
	#DEBUG_VALUE: argon2_fill_segment_ssse3:curr_block <- 0
	#DEBUG_VALUE: argon2_fill_segment_ssse3:data_independent_addressing <- 1
	#DEBUG_VALUE: argon2_fill_segment_ssse3:pseudo_rands <- 0
	#DEBUG_VALUE: argon2_fill_segment_ssse3:data_independent_addressing <- undef
	.loc	7 166 30                        # crypto_pwhash/argon2/argon2-fill-block-ssse3.c:166:30
	movq	8(%r15), %rax
.Ltmp10:
	#DEBUG_VALUE: argon2_fill_segment_ssse3:pseudo_rands <- $rax
	.loc	7 0 30 is_stmt 0                # crypto_pwhash/argon2/argon2-fill-block-ssse3.c:0:30
	movq	%rax, 40(%rsp)                  # 8-byte Spill
.Ltmp11:
	#DEBUG_VALUE: argon2_fill_segment_ssse3:pseudo_rands <- [DW_OP_plus_uconst 40, DW_OP_deref] $rsp
.LBB0_5:
	#DEBUG_VALUE: argon2_fill_segment_ssse3:position <- [DW_OP_plus_uconst 8, DW_OP_deref_size 8, DW_OP_constu 8, DW_OP_shr, DW_OP_LLVM_convert 64 7, DW_OP_LLVM_convert 24 7, DW_OP_stack_value, DW_OP_LLVM_fragment 72 24] $rsp
	#DEBUG_VALUE: argon2_fill_segment_ssse3:instance <- $r15
	#DEBUG_VALUE: argon2_fill_segment_ssse3:position <- [DW_OP_plus_uconst 32, DW_OP_deref, DW_OP_LLVM_fragment 32 32] $rsp
	#DEBUG_VALUE: argon2_fill_segment_ssse3:position <- [DW_OP_plus_uconst 24, DW_OP_deref, DW_OP_LLVM_fragment 0 32] $rsp
	#DEBUG_VALUE: argon2_fill_segment_ssse3:position <- [DW_OP_plus_uconst 8, DW_OP_deref, DW_OP_LLVM_fragment 64 8] $rsp
	#DEBUG_VALUE: argon2_fill_segment_ssse3:position <- [DW_OP_plus_uconst 8, DW_OP_deref_size 8, DW_OP_constu 32, DW_OP_shr, DW_OP_LLVM_convert 64 7, DW_OP_LLVM_convert 32 7, DW_OP_stack_value, DW_OP_LLVM_fragment 96 32] $rsp
	#DEBUG_VALUE: argon2_fill_segment_ssse3:ref_block <- 0
	#DEBUG_VALUE: argon2_fill_segment_ssse3:curr_block <- 0
	#DEBUG_VALUE: argon2_fill_segment_ssse3:pseudo_rands <- $rax
	#DEBUG_VALUE: zero2_block <- [DW_OP_plus_uconst 2112, DW_OP_deref] $rsp
	#DEBUG_VALUE: generate_addresses:instance <- $r15
	#DEBUG_VALUE: generate_addresses:position <- undef
	#DEBUG_VALUE: generate_addresses:pseudo_rands <- [DW_OP_plus_uconst 40, DW_OP_deref] $rsp
	#DEBUG_VALUE: init_block_value:b <- [DW_OP_plus_uconst 1088, DW_OP_stack_value] $rsp
	#DEBUG_VALUE: init_block_value:in <- 0
	#DEBUG_VALUE: memset:__dest <- [DW_OP_plus_uconst 1088, DW_OP_stack_value] $rsp
	#DEBUG_VALUE: memset:__ch <- 0
	#DEBUG_VALUE: memset:__len <- 1024
	leaq	1088(%rsp), %rdi
	xorl	%r14d, %r14d
.Ltmp12:
	.file	8 "/usr/include/x86_64-linux-gnu/bits" "string_fortified.h"
	.loc	8 59 10 is_stmt 1               # /usr/include/x86_64-linux-gnu/bits/string_fortified.h:59:10 @[ crypto_pwhash/argon2/argon2-core.h:69:5 @[ crypto_pwhash/argon2/argon2-fill-block-ssse3.c:107:5 @[ crypto_pwhash/argon2/argon2-fill-block-ssse3.c:169:9 ] ] ]
	movl	$1024, %edx                     # imm = 0x400
	xorl	%esi, %esi
	callq	memset@PLT
.Ltmp13:
	#DEBUG_VALUE: init_block_value:b <- [DW_OP_plus_uconst 64, DW_OP_stack_value] $rsp
	#DEBUG_VALUE: init_block_value:in <- 0
	#DEBUG_VALUE: memset:__dest <- [DW_OP_plus_uconst 64, DW_OP_stack_value] $rsp
	#DEBUG_VALUE: memset:__ch <- 0
	#DEBUG_VALUE: memset:__len <- 1024
	.loc	8 59 10 is_stmt 0               # /usr/include/x86_64-linux-gnu/bits/string_fortified.h:59:10 @[ crypto_pwhash/argon2/argon2-core.h:69:5 @[ crypto_pwhash/argon2/argon2-fill-block-ssse3.c:108:5 @[ crypto_pwhash/argon2/argon2-fill-block-ssse3.c:169:9 ] ] ]
	leaq	120(%rsp), %rdi
	movl	$968, %edx                      # imm = 0x3C8
	xorl	%esi, %esi
	callq	memset@PLT
.Ltmp14:
	.loc	8 0 10                          # /usr/include/x86_64-linux-gnu/bits/string_fortified.h:0:10
	movq	24(%rsp), %rsi                  # 8-byte Reload
.Ltmp15:
	.loc	7 111 28 is_stmt 1              # crypto_pwhash/argon2/argon2-fill-block-ssse3.c:111:28 @[ crypto_pwhash/argon2/argon2-fill-block-ssse3.c:169:9 ]
	movl	%esi, %eax
	.loc	7 111 26 is_stmt 0              # crypto_pwhash/argon2/argon2-fill-block-ssse3.c:111:26 @[ crypto_pwhash/argon2/argon2-fill-block-ssse3.c:169:9 ]
	movq	%rax, 64(%rsp)
	.loc	7 112 26 is_stmt 1              # crypto_pwhash/argon2/argon2-fill-block-ssse3.c:112:26 @[ crypto_pwhash/argon2/argon2-fill-block-ssse3.c:169:9 ]
	movq	%r12, 72(%rsp)
	.loc	7 113 28                        # crypto_pwhash/argon2/argon2-fill-block-ssse3.c:113:28 @[ crypto_pwhash/argon2/argon2-fill-block-ssse3.c:169:9 ]
	movzbl	8(%rsp), %eax                   # 1-byte Folded Reload
	.loc	7 113 26 is_stmt 0              # crypto_pwhash/argon2/argon2-fill-block-ssse3.c:113:26 @[ crypto_pwhash/argon2/argon2-fill-block-ssse3.c:169:9 ]
	movq	%rax, 80(%rsp)
	.loc	7 114 38 is_stmt 1              # crypto_pwhash/argon2/argon2-fill-block-ssse3.c:114:38 @[ crypto_pwhash/argon2/argon2-fill-block-ssse3.c:169:9 ]
	movl	24(%r15), %eax
	.loc	7 114 26 is_stmt 0              # crypto_pwhash/argon2/argon2-fill-block-ssse3.c:114:26 @[ crypto_pwhash/argon2/argon2-fill-block-ssse3.c:169:9 ]
	movq	%rax, 88(%rsp)
	.loc	7 115 38 is_stmt 1              # crypto_pwhash/argon2/argon2-fill-block-ssse3.c:115:38 @[ crypto_pwhash/argon2/argon2-fill-block-ssse3.c:169:9 ]
	movl	16(%r15), %eax
	.loc	7 115 26 is_stmt 0              # crypto_pwhash/argon2/argon2-fill-block-ssse3.c:115:26 @[ crypto_pwhash/argon2/argon2-fill-block-ssse3.c:169:9 ]
	movq	%rax, 96(%rsp)
	.loc	7 116 26 is_stmt 1              # crypto_pwhash/argon2/argon2-fill-block-ssse3.c:116:26 @[ crypto_pwhash/argon2/argon2-fill-block-ssse3.c:169:9 ]
	movq	%rbx, 104(%rsp)
.Ltmp16:
	#DEBUG_VALUE: generate_addresses:i <- 0
	.loc	7 118 23                        # crypto_pwhash/argon2/argon2-fill-block-ssse3.c:118:23 @[ crypto_pwhash/argon2/argon2-fill-block-ssse3.c:169:9 ]
	cmpl	$0, 28(%r15)
.Ltmp17:
	.loc	7 118 9 is_stmt 0               # crypto_pwhash/argon2/argon2-fill-block-ssse3.c:118:9 @[ crypto_pwhash/argon2/argon2-fill-block-ssse3.c:169:9 ]
	je	.LBB0_11
.Ltmp18:
# %bb.6:                                # %.lr.ph.i
	#DEBUG_VALUE: argon2_fill_segment_ssse3:position <- [DW_OP_plus_uconst 8, DW_OP_deref_size 8, DW_OP_constu 8, DW_OP_shr, DW_OP_LLVM_convert 64 7, DW_OP_LLVM_convert 24 7, DW_OP_stack_value, DW_OP_LLVM_fragment 72 24] $rsp
	#DEBUG_VALUE: argon2_fill_segment_ssse3:instance <- $r15
	#DEBUG_VALUE: argon2_fill_segment_ssse3:position <- [DW_OP_plus_uconst 32, DW_OP_deref, DW_OP_LLVM_fragment 32 32] $rsp
	#DEBUG_VALUE: argon2_fill_segment_ssse3:position <- [DW_OP_plus_uconst 24, DW_OP_deref, DW_OP_LLVM_fragment 0 32] $rsp
	#DEBUG_VALUE: argon2_fill_segment_ssse3:position <- [DW_OP_plus_uconst 8, DW_OP_deref, DW_OP_LLVM_fragment 64 8] $rsp
	#DEBUG_VALUE: argon2_fill_segment_ssse3:position <- [DW_OP_plus_uconst 8, DW_OP_deref_size 8, DW_OP_constu 32, DW_OP_shr, DW_OP_LLVM_convert 64 7, DW_OP_LLVM_convert 32 7, DW_OP_stack_value, DW_OP_LLVM_fragment 96 32] $rsp
	#DEBUG_VALUE: argon2_fill_segment_ssse3:ref_block <- 0
	#DEBUG_VALUE: argon2_fill_segment_ssse3:curr_block <- 0
	#DEBUG_VALUE: zero2_block <- [DW_OP_plus_uconst 2112, DW_OP_deref] $rsp
	#DEBUG_VALUE: generate_addresses:instance <- $r15
	#DEBUG_VALUE: generate_addresses:pseudo_rands <- [DW_OP_plus_uconst 40, DW_OP_deref] $rsp
	#DEBUG_VALUE: init_block_value:b <- [DW_OP_plus_uconst 1088, DW_OP_stack_value] $rsp
	#DEBUG_VALUE: init_block_value:in <- 0
	#DEBUG_VALUE: memset:__dest <- [DW_OP_plus_uconst 1088, DW_OP_stack_value] $rsp
	#DEBUG_VALUE: memset:__ch <- 0
	#DEBUG_VALUE: memset:__len <- 1024
	#DEBUG_VALUE: init_block_value:b <- [DW_OP_plus_uconst 64, DW_OP_stack_value] $rsp
	#DEBUG_VALUE: init_block_value:in <- 0
	#DEBUG_VALUE: memset:__dest <- [DW_OP_plus_uconst 64, DW_OP_stack_value] $rsp
	#DEBUG_VALUE: memset:__ch <- 0
	#DEBUG_VALUE: memset:__len <- 1024
	#DEBUG_VALUE: generate_addresses:i <- 0
	.loc	7 0 9                           # crypto_pwhash/argon2/argon2-fill-block-ssse3.c:0:9
	xorl	%r12d, %r12d
	xorl	%r13d, %r13d
	jmp	.LBB0_8
.Ltmp19:
	.p2align	4
.LBB0_7:                                #   in Loop: Header=BB0_8 Depth=1
	#DEBUG_VALUE: argon2_fill_segment_ssse3:position <- [DW_OP_plus_uconst 8, DW_OP_deref_size 8, DW_OP_constu 8, DW_OP_shr, DW_OP_LLVM_convert 64 7, DW_OP_LLVM_convert 24 7, DW_OP_stack_value, DW_OP_LLVM_fragment 72 24] $rsp
	#DEBUG_VALUE: argon2_fill_segment_ssse3:instance <- $r15
	#DEBUG_VALUE: argon2_fill_segment_ssse3:position <- [DW_OP_plus_uconst 32, DW_OP_deref, DW_OP_LLVM_fragment 32 32] $rsp
	#DEBUG_VALUE: argon2_fill_segment_ssse3:position <- [DW_OP_plus_uconst 24, DW_OP_deref, DW_OP_LLVM_fragment 0 32] $rsp
	#DEBUG_VALUE: argon2_fill_segment_ssse3:position <- [DW_OP_plus_uconst 8, DW_OP_deref, DW_OP_LLVM_fragment 64 8] $rsp
	#DEBUG_VALUE: argon2_fill_segment_ssse3:position <- [DW_OP_plus_uconst 8, DW_OP_deref_size 8, DW_OP_constu 32, DW_OP_shr, DW_OP_LLVM_convert 64 7, DW_OP_LLVM_convert 32 7, DW_OP_stack_value, DW_OP_LLVM_fragment 96 32] $rsp
	#DEBUG_VALUE: argon2_fill_segment_ssse3:ref_block <- 0
	#DEBUG_VALUE: argon2_fill_segment_ssse3:curr_block <- 0
	#DEBUG_VALUE: generate_addresses:instance <- $r15
	#DEBUG_VALUE: generate_addresses:pseudo_rands <- [DW_OP_plus_uconst 40, DW_OP_deref] $rsp
	#DEBUG_VALUE: generate_addresses:i <- $r12
	.loc	7 138 31 is_stmt 1              # crypto_pwhash/argon2/argon2-fill-block-ssse3.c:138:31 @[ crypto_pwhash/argon2/argon2-fill-block-ssse3.c:169:9 ]
	movq	1088(%rsp,%r14,8), %rax
	movq	40(%rsp), %rcx                  # 8-byte Reload
	.loc	7 138 29 is_stmt 0              # crypto_pwhash/argon2/argon2-fill-block-ssse3.c:138:29 @[ crypto_pwhash/argon2/argon2-fill-block-ssse3.c:169:9 ]
	movq	%rax, (%rcx,%r12,8)
.Ltmp20:
	.loc	7 118 51 is_stmt 1              # crypto_pwhash/argon2/argon2-fill-block-ssse3.c:118:51 @[ crypto_pwhash/argon2/argon2-fill-block-ssse3.c:169:9 ]
	incq	%r12
.Ltmp21:
	#DEBUG_VALUE: generate_addresses:i <- $r12
	.loc	7 118 35 is_stmt 0              # crypto_pwhash/argon2/argon2-fill-block-ssse3.c:118:35 @[ crypto_pwhash/argon2/argon2-fill-block-ssse3.c:169:9 ]
	movl	28(%r15), %r14d
	.loc	7 118 23                        # crypto_pwhash/argon2/argon2-fill-block-ssse3.c:118:23 @[ crypto_pwhash/argon2/argon2-fill-block-ssse3.c:169:9 ]
	cmpq	%r14, %r12
.Ltmp22:
	.loc	7 118 9                         # crypto_pwhash/argon2/argon2-fill-block-ssse3.c:118:9 @[ crypto_pwhash/argon2/argon2-fill-block-ssse3.c:169:9 ]
	jae	.LBB0_10
.Ltmp23:
.LBB0_8:                                # =>This Inner Loop Header: Depth=1
	#DEBUG_VALUE: argon2_fill_segment_ssse3:position <- [DW_OP_plus_uconst 8, DW_OP_deref_size 8, DW_OP_constu 8, DW_OP_shr, DW_OP_LLVM_convert 64 7, DW_OP_LLVM_convert 24 7, DW_OP_stack_value, DW_OP_LLVM_fragment 72 24] $rsp
	#DEBUG_VALUE: argon2_fill_segment_ssse3:instance <- $r15
	#DEBUG_VALUE: argon2_fill_segment_ssse3:position <- [DW_OP_plus_uconst 32, DW_OP_deref, DW_OP_LLVM_fragment 32 32] $rsp
	#DEBUG_VALUE: argon2_fill_segment_ssse3:position <- [DW_OP_plus_uconst 24, DW_OP_deref, DW_OP_LLVM_fragment 0 32] $rsp
	#DEBUG_VALUE: argon2_fill_segment_ssse3:position <- [DW_OP_plus_uconst 8, DW_OP_deref, DW_OP_LLVM_fragment 64 8] $rsp
	#DEBUG_VALUE: argon2_fill_segment_ssse3:position <- [DW_OP_plus_uconst 8, DW_OP_deref_size 8, DW_OP_constu 32, DW_OP_shr, DW_OP_LLVM_convert 64 7, DW_OP_LLVM_convert 32 7, DW_OP_stack_value, DW_OP_LLVM_fragment 96 32] $rsp
	#DEBUG_VALUE: argon2_fill_segment_ssse3:ref_block <- 0
	#DEBUG_VALUE: argon2_fill_segment_ssse3:curr_block <- 0
	#DEBUG_VALUE: generate_addresses:instance <- $r15
	#DEBUG_VALUE: generate_addresses:pseudo_rands <- [DW_OP_plus_uconst 40, DW_OP_deref] $rsp
	#DEBUG_VALUE: generate_addresses:i <- $r12
	.loc	7 119 47 is_stmt 1              # crypto_pwhash/argon2/argon2-fill-block-ssse3.c:119:47 @[ crypto_pwhash/argon2/argon2-fill-block-ssse3.c:169:9 ]
	movq	%r12, %r14
	andq	$127, %r14
	jne	.LBB0_7
.Ltmp24:
# %bb.9:                                #   in Loop: Header=BB0_8 Depth=1
	#DEBUG_VALUE: argon2_fill_segment_ssse3:position <- [DW_OP_plus_uconst 8, DW_OP_deref_size 8, DW_OP_constu 8, DW_OP_shr, DW_OP_LLVM_convert 64 7, DW_OP_LLVM_convert 24 7, DW_OP_stack_value, DW_OP_LLVM_fragment 72 24] $rsp
	#DEBUG_VALUE: argon2_fill_segment_ssse3:instance <- $r15
	#DEBUG_VALUE: argon2_fill_segment_ssse3:position <- [DW_OP_plus_uconst 32, DW_OP_deref, DW_OP_LLVM_fragment 32 32] $rsp
	#DEBUG_VALUE: argon2_fill_segment_ssse3:position <- [DW_OP_plus_uconst 24, DW_OP_deref, DW_OP_LLVM_fragment 0 32] $rsp
	#DEBUG_VALUE: argon2_fill_segment_ssse3:position <- [DW_OP_plus_uconst 8, DW_OP_deref, DW_OP_LLVM_fragment 64 8] $rsp
	#DEBUG_VALUE: argon2_fill_segment_ssse3:position <- [DW_OP_plus_uconst 8, DW_OP_deref_size 8, DW_OP_constu 32, DW_OP_shr, DW_OP_LLVM_convert 64 7, DW_OP_LLVM_convert 32 7, DW_OP_stack_value, DW_OP_LLVM_fragment 96 32] $rsp
	#DEBUG_VALUE: argon2_fill_segment_ssse3:ref_block <- 0
	#DEBUG_VALUE: argon2_fill_segment_ssse3:curr_block <- 0
	#DEBUG_VALUE: generate_addresses:instance <- $r15
	#DEBUG_VALUE: generate_addresses:pseudo_rands <- [DW_OP_plus_uconst 40, DW_OP_deref] $rsp
	#DEBUG_VALUE: generate_addresses:i <- $r12
	#DEBUG_VALUE: memset:__dest <- [DW_OP_plus_uconst 3136, DW_OP_stack_value] $rsp
	#DEBUG_VALUE: memset:__ch <- 0
	#DEBUG_VALUE: memset:__len <- 1024
	.loc	8 59 10                         # /usr/include/x86_64-linux-gnu/bits/string_fortified.h:59:10 @[ crypto_pwhash/argon2/argon2-fill-block-ssse3.c:124:17 @[ crypto_pwhash/argon2/argon2-fill-block-ssse3.c:169:9 ] ]
	movl	$1024, %edx                     # imm = 0x400
	leaq	3136(%rsp), %rdi
	xorl	%esi, %esi
	callq	memset@PLT
.Ltmp25:
	#DEBUG_VALUE: memset:__dest <- [DW_OP_plus_uconst 2112, DW_OP_stack_value] $rsp
	#DEBUG_VALUE: memset:__ch <- 0
	#DEBUG_VALUE: memset:__len <- 1024
	.loc	8 59 10 is_stmt 0               # /usr/include/x86_64-linux-gnu/bits/string_fortified.h:59:10 @[ crypto_pwhash/argon2/argon2-fill-block-ssse3.c:125:17 @[ crypto_pwhash/argon2/argon2-fill-block-ssse3.c:169:9 ] ]
	movl	$1024, %edx                     # imm = 0x400
	leaq	2112(%rsp), %rdi
	xorl	%esi, %esi
	callq	memset@PLT
.Ltmp26:
	#DEBUG_VALUE: zero2_block <- [DW_OP_plus_uconst 2112, DW_OP_deref] $rsp
	#DEBUG_VALUE: init_block_value:b <- [DW_OP_plus_uconst 1088, DW_OP_stack_value] $rsp
	#DEBUG_VALUE: init_block_value:in <- 0
	#DEBUG_VALUE: memset:__dest <- [DW_OP_plus_uconst 1088, DW_OP_stack_value] $rsp
	#DEBUG_VALUE: memset:__ch <- 0
	#DEBUG_VALUE: memset:__len <- 1024
	.loc	8 59 10                         # /usr/include/x86_64-linux-gnu/bits/string_fortified.h:59:10 @[ crypto_pwhash/argon2/argon2-core.h:69:5 @[ crypto_pwhash/argon2/argon2-fill-block-ssse3.c:126:17 @[ crypto_pwhash/argon2/argon2-fill-block-ssse3.c:169:9 ] ] ]
	movl	$1024, %edx                     # imm = 0x400
	movq	%r15, %rbp
.Ltmp27:
	#DEBUG_VALUE: generate_addresses:instance <- $rbp
	#DEBUG_VALUE: argon2_fill_segment_ssse3:instance <- $rbp
	.loc	8 0 10                          # /usr/include/x86_64-linux-gnu/bits/string_fortified.h:0:10
	leaq	1088(%rsp), %r15
	.loc	8 59 10                         # /usr/include/x86_64-linux-gnu/bits/string_fortified.h:59:10 @[ crypto_pwhash/argon2/argon2-core.h:69:5 @[ crypto_pwhash/argon2/argon2-fill-block-ssse3.c:126:17 @[ crypto_pwhash/argon2/argon2-fill-block-ssse3.c:169:9 ] ] ]
	movq	%r15, %rdi
	xorl	%esi, %esi
	callq	memset@PLT
.Ltmp28:
	#DEBUG_VALUE: init_block_value:b <- [DW_OP_plus_uconst 4168, DW_OP_stack_value] $rsp
	#DEBUG_VALUE: init_block_value:in <- 0
	#DEBUG_VALUE: memset:__dest <- [DW_OP_plus_uconst 4168, DW_OP_stack_value] $rsp
	#DEBUG_VALUE: memset:__ch <- 0
	#DEBUG_VALUE: memset:__len <- 1024
	.loc	8 59 10                         # /usr/include/x86_64-linux-gnu/bits/string_fortified.h:59:10 @[ crypto_pwhash/argon2/argon2-core.h:69:5 @[ crypto_pwhash/argon2/argon2-fill-block-ssse3.c:127:17 @[ crypto_pwhash/argon2/argon2-fill-block-ssse3.c:169:9 ] ] ]
	movl	$1024, %edx                     # imm = 0x400
	leaq	4168(%rsp), %rbx
	movq	%rbx, %rdi
	xorl	%esi, %esi
	callq	memset@PLT
.Ltmp29:
	.loc	7 129 33 is_stmt 1              # crypto_pwhash/argon2/argon2-fill-block-ssse3.c:129:33 @[ crypto_pwhash/argon2/argon2-fill-block-ssse3.c:169:9 ]
	incq	%r13
	movq	%r13, 112(%rsp)
	.loc	7 131 17                        # crypto_pwhash/argon2/argon2-fill-block-ssse3.c:131:17 @[ crypto_pwhash/argon2/argon2-fill-block-ssse3.c:169:9 ]
	leaq	3136(%rsp), %rdi
	leaq	64(%rsp), %rsi
	movq	%rbx, %rdx
	callq	fill_block_with_xor
.Ltmp30:
	.loc	7 134 17                        # crypto_pwhash/argon2/argon2-fill-block-ssse3.c:134:17 @[ crypto_pwhash/argon2/argon2-fill-block-ssse3.c:169:9 ]
	leaq	2112(%rsp), %rdi
	movq	%rbx, %rsi
	movq	%r15, %rdx
	movq	%rbp, %r15
.Ltmp31:
	#DEBUG_VALUE: generate_addresses:instance <- $r15
	#DEBUG_VALUE: argon2_fill_segment_ssse3:instance <- $r15
	callq	fill_block_with_xor
.Ltmp32:
	.loc	7 0 17 is_stmt 0                # crypto_pwhash/argon2/argon2-fill-block-ssse3.c:0:17
	movq	24(%rsp), %rsi                  # 8-byte Reload
	jmp	.LBB0_7
.Ltmp33:
.LBB0_10:
	#DEBUG_VALUE: argon2_fill_segment_ssse3:position <- [DW_OP_plus_uconst 8, DW_OP_deref_size 8, DW_OP_constu 8, DW_OP_shr, DW_OP_LLVM_convert 64 7, DW_OP_LLVM_convert 24 7, DW_OP_stack_value, DW_OP_LLVM_fragment 72 24] $rsp
	#DEBUG_VALUE: argon2_fill_segment_ssse3:instance <- $r15
	#DEBUG_VALUE: argon2_fill_segment_ssse3:position <- [DW_OP_plus_uconst 32, DW_OP_deref, DW_OP_LLVM_fragment 32 32] $rsp
	#DEBUG_VALUE: argon2_fill_segment_ssse3:position <- [DW_OP_plus_uconst 24, DW_OP_deref, DW_OP_LLVM_fragment 0 32] $rsp
	#DEBUG_VALUE: argon2_fill_segment_ssse3:position <- [DW_OP_plus_uconst 8, DW_OP_deref, DW_OP_LLVM_fragment 64 8] $rsp
	#DEBUG_VALUE: argon2_fill_segment_ssse3:position <- [DW_OP_plus_uconst 8, DW_OP_deref_size 8, DW_OP_constu 32, DW_OP_shr, DW_OP_LLVM_convert 64 7, DW_OP_LLVM_convert 32 7, DW_OP_stack_value, DW_OP_LLVM_fragment 96 32] $rsp
	#DEBUG_VALUE: argon2_fill_segment_ssse3:ref_block <- 0
	#DEBUG_VALUE: argon2_fill_segment_ssse3:curr_block <- 0
	#DEBUG_VALUE: generate_addresses:instance <- $r15
	#DEBUG_VALUE: generate_addresses:pseudo_rands <- [DW_OP_plus_uconst 40, DW_OP_deref] $rsp
	#DEBUG_VALUE: generate_addresses:i <- $r12
	movq	32(%rsp), %r12                  # 8-byte Reload
.Ltmp34:
.LBB0_11:                               # %generate_addresses.exit
	#DEBUG_VALUE: argon2_fill_segment_ssse3:position <- [DW_OP_plus_uconst 8, DW_OP_deref_size 8, DW_OP_constu 8, DW_OP_shr, DW_OP_LLVM_convert 64 7, DW_OP_LLVM_convert 24 7, DW_OP_stack_value, DW_OP_LLVM_fragment 72 24] $rsp
	#DEBUG_VALUE: argon2_fill_segment_ssse3:instance <- $r15
	#DEBUG_VALUE: argon2_fill_segment_ssse3:position <- [DW_OP_plus_uconst 32, DW_OP_deref, DW_OP_LLVM_fragment 32 32] $rsp
	#DEBUG_VALUE: argon2_fill_segment_ssse3:position <- [DW_OP_plus_uconst 24, DW_OP_deref, DW_OP_LLVM_fragment 0 32] $rsp
	#DEBUG_VALUE: argon2_fill_segment_ssse3:position <- [DW_OP_plus_uconst 8, DW_OP_deref, DW_OP_LLVM_fragment 64 8] $rsp
	#DEBUG_VALUE: argon2_fill_segment_ssse3:position <- [DW_OP_plus_uconst 8, DW_OP_deref_size 8, DW_OP_constu 32, DW_OP_shr, DW_OP_LLVM_convert 64 7, DW_OP_LLVM_convert 32 7, DW_OP_stack_value, DW_OP_LLVM_fragment 96 32] $rsp
	#DEBUG_VALUE: argon2_fill_segment_ssse3:ref_block <- 0
	#DEBUG_VALUE: argon2_fill_segment_ssse3:curr_block <- 0
	#DEBUG_VALUE: generate_addresses:instance <- $r15
	#DEBUG_VALUE: generate_addresses:pseudo_rands <- [DW_OP_plus_uconst 40, DW_OP_deref] $rsp
	#DEBUG_VALUE: init_block_value:b <- [DW_OP_plus_uconst 1088, DW_OP_stack_value] $rsp
	#DEBUG_VALUE: init_block_value:in <- 0
	#DEBUG_VALUE: memset:__dest <- [DW_OP_plus_uconst 1088, DW_OP_stack_value] $rsp
	#DEBUG_VALUE: memset:__ch <- 0
	#DEBUG_VALUE: memset:__len <- 1024
	#DEBUG_VALUE: init_block_value:b <- [DW_OP_plus_uconst 64, DW_OP_stack_value] $rsp
	#DEBUG_VALUE: init_block_value:in <- 0
	#DEBUG_VALUE: memset:__dest <- [DW_OP_plus_uconst 64, DW_OP_stack_value] $rsp
	#DEBUG_VALUE: memset:__ch <- 0
	#DEBUG_VALUE: memset:__len <- 1024
	movl	$0, 20(%rsp)                    # 4-byte Folded Spill
.Ltmp35:
.LBB0_12:
	#DEBUG_VALUE: argon2_fill_segment_ssse3:position <- [DW_OP_plus_uconst 8, DW_OP_deref_size 8, DW_OP_constu 8, DW_OP_shr, DW_OP_LLVM_convert 64 7, DW_OP_LLVM_convert 24 7, DW_OP_stack_value, DW_OP_LLVM_fragment 72 24] $rsp
	#DEBUG_VALUE: argon2_fill_segment_ssse3:instance <- $r15
	#DEBUG_VALUE: argon2_fill_segment_ssse3:position <- [DW_OP_plus_uconst 32, DW_OP_deref, DW_OP_LLVM_fragment 32 32] $rsp
	#DEBUG_VALUE: argon2_fill_segment_ssse3:position <- [DW_OP_plus_uconst 24, DW_OP_deref, DW_OP_LLVM_fragment 0 32] $rsp
	#DEBUG_VALUE: argon2_fill_segment_ssse3:position <- [DW_OP_plus_uconst 8, DW_OP_deref, DW_OP_LLVM_fragment 64 8] $rsp
	#DEBUG_VALUE: argon2_fill_segment_ssse3:position <- [DW_OP_plus_uconst 8, DW_OP_deref_size 8, DW_OP_constu 32, DW_OP_shr, DW_OP_LLVM_convert 64 7, DW_OP_LLVM_convert 32 7, DW_OP_stack_value, DW_OP_LLVM_fragment 96 32] $rsp
	#DEBUG_VALUE: argon2_fill_segment_ssse3:ref_block <- 0
	#DEBUG_VALUE: argon2_fill_segment_ssse3:curr_block <- 0
	#DEBUG_VALUE: argon2_fill_segment_ssse3:starting_index <- 0
	.loc	7 174 12 is_stmt 1              # crypto_pwhash/argon2/argon2-fill-block-ssse3.c:174:12
	testl	%esi, %esi
	sete	%al
	movq	8(%rsp), %rsi                   # 8-byte Reload
	testb	%sil, %sil
	sete	%cl
	.loc	7 174 30 is_stmt 0              # crypto_pwhash/argon2/argon2-fill-block-ssse3.c:174:30
	andb	%al, %cl
	movb	%cl, 7(%rsp)                    # 1-byte Spill
	movzbl	%cl, %eax
.Ltmp36:
	.loc	7 179 45 is_stmt 1              # crypto_pwhash/argon2/argon2-fill-block-ssse3.c:179:45
	movl	32(%r15), %ecx
	.loc	7 179 33 is_stmt 0              # crypto_pwhash/argon2/argon2-fill-block-ssse3.c:179:33
	movl	%ecx, %edx
	imull	%r12d, %edx
	.loc	7 180 19 is_stmt 1              # crypto_pwhash/argon2/argon2-fill-block-ssse3.c:180:19
	movzbl	%sil, %edi
	.loc	7 180 34 is_stmt 0              # crypto_pwhash/argon2/argon2-fill-block-ssse3.c:180:34
	movl	%r14d, %esi
	movq	%rdi, 56(%rsp)                  # 8-byte Spill
	imull	%edi, %esi
.Ltmp37:
	#DEBUG_VALUE: argon2_fill_segment_ssse3:starting_index <- undef
	#DEBUG_VALUE: memcpy:__dest <- [DW_OP_plus_uconst 64, DW_OP_stack_value] $rsp
	#DEBUG_VALUE: memcpy:__len <- 1024
	#DEBUG_VALUE: argon2_fill_segment_ssse3:i <- undef
	.loc	7 179 57 is_stmt 1              # crypto_pwhash/argon2/argon2-fill-block-ssse3.c:179:57
	leal	(%rdx,%rax,2), %r12d
.Ltmp38:
	.loc	7 174 30                        # crypto_pwhash/argon2/argon2-fill-block-ssse3.c:174:30
	movl	%eax, %ebx
	addl	%eax, %ebx
.Ltmp39:
	#DEBUG_VALUE: argon2_fill_segment_ssse3:i <- $ebx
	#DEBUG_VALUE: argon2_fill_segment_ssse3:starting_index <- $ebx
	.loc	7 180 61                        # crypto_pwhash/argon2/argon2-fill-block-ssse3.c:180:61
	addl	%esi, %r12d
.Ltmp40:
	#DEBUG_VALUE: argon2_fill_segment_ssse3:curr_offset <- $r12d
	.loc	7 182 26                        # crypto_pwhash/argon2/argon2-fill-block-ssse3.c:182:26
	xorl	%ebp, %ebp
	movl	%r12d, %eax
	xorl	%edx, %edx
	divl	%ecx
	.loc	7 182 11 is_stmt 0              # crypto_pwhash/argon2/argon2-fill-block-ssse3.c:182:11
	decl	%ecx
	negl	%edx
	sbbl	%ebp, %ebp
	orl	%ecx, %ebp
	.loc	7 0 0                           # crypto_pwhash/argon2/argon2-fill-block-ssse3.c:0
	addl	%r12d, %ebp
.Ltmp41:
	#DEBUG_VALUE: argon2_fill_segment_ssse3:prev_offset <- $ebp
	.loc	7 190 31 is_stmt 1              # crypto_pwhash/argon2/argon2-fill-block-ssse3.c:190:31
	movq	(%r15), %rax
	.loc	7 190 46 is_stmt 0              # crypto_pwhash/argon2/argon2-fill-block-ssse3.c:190:46
	movq	%rbp, %rsi
	shlq	$10, %rsi
	addq	8(%rax), %rsi
.Ltmp42:
	#DEBUG_VALUE: memcpy:__src <- $rsi
	.loc	7 0 46                          # crypto_pwhash/argon2/argon2-fill-block-ssse3.c:0:46
	leaq	64(%rsp), %rdi
.Ltmp43:
	.loc	8 29 10 is_stmt 1               # /usr/include/x86_64-linux-gnu/bits/string_fortified.h:29:10 @[ crypto_pwhash/argon2/argon2-fill-block-ssse3.c:190:5 ]
	movl	$1024, %edx                     # imm = 0x400
	callq	memcpy@PLT
.Ltmp44:
	.loc	8 0 10 is_stmt 0                # /usr/include/x86_64-linux-gnu/bits/string_fortified.h:0:10
	movq	24(%rsp), %r9                   # 8-byte Reload
.Ltmp45:
	.loc	7 193 32 is_stmt 1              # crypto_pwhash/argon2/argon2-fill-block-ssse3.c:193:32
	cmpl	%r14d, %ebx
.Ltmp46:
	.loc	7 193 5 is_stmt 0               # crypto_pwhash/argon2/argon2-fill-block-ssse3.c:193:5
	jae	.LBB0_44
.Ltmp47:
# %bb.13:                               # %.lr.ph
	#DEBUG_VALUE: argon2_fill_segment_ssse3:position <- [DW_OP_plus_uconst 8, DW_OP_deref_size 8, DW_OP_constu 8, DW_OP_shr, DW_OP_LLVM_convert 64 7, DW_OP_LLVM_convert 24 7, DW_OP_stack_value, DW_OP_LLVM_fragment 72 24] $rsp
	#DEBUG_VALUE: argon2_fill_segment_ssse3:instance <- $r15
	#DEBUG_VALUE: argon2_fill_segment_ssse3:position <- [DW_OP_plus_uconst 32, DW_OP_deref, DW_OP_LLVM_fragment 32 32] $rsp
	#DEBUG_VALUE: argon2_fill_segment_ssse3:position <- [DW_OP_plus_uconst 24, DW_OP_deref, DW_OP_LLVM_fragment 0 32] $rsp
	#DEBUG_VALUE: argon2_fill_segment_ssse3:position <- [DW_OP_plus_uconst 8, DW_OP_deref, DW_OP_LLVM_fragment 64 8] $rsp
	#DEBUG_VALUE: argon2_fill_segment_ssse3:position <- [DW_OP_plus_uconst 8, DW_OP_deref_size 8, DW_OP_constu 32, DW_OP_shr, DW_OP_LLVM_convert 64 7, DW_OP_LLVM_convert 32 7, DW_OP_stack_value, DW_OP_LLVM_fragment 96 32] $rsp
	#DEBUG_VALUE: argon2_fill_segment_ssse3:ref_block <- 0
	#DEBUG_VALUE: argon2_fill_segment_ssse3:curr_block <- 0
	#DEBUG_VALUE: argon2_fill_segment_ssse3:starting_index <- $ebx
	#DEBUG_VALUE: argon2_fill_segment_ssse3:i <- $ebx
	#DEBUG_VALUE: argon2_fill_segment_ssse3:curr_offset <- $r12d
	#DEBUG_VALUE: argon2_fill_segment_ssse3:prev_offset <- $ebp
	.loc	7 0 5                           # crypto_pwhash/argon2/argon2-fill-block-ssse3.c:0:5
	movq	56(%rsp), %rax                  # 8-byte Reload
	incl	%eax
	movl	%eax, 52(%rsp)                  # 4-byte Spill
	.loc	7 193 5                         # crypto_pwhash/argon2/argon2-fill-block-ssse3.c:193:5
	movl	%ebx, %r13d
.Ltmp48:
	#DEBUG_VALUE: argon2_fill_segment_ssse3:i <- $r13d
	#DEBUG_VALUE: argon2_fill_segment_ssse3:starting_index <- $r13d
	.loc	7 0 5                           # crypto_pwhash/argon2/argon2-fill-block-ssse3.c:0:5
	movdqa	.LCPI0_0(%rip), %xmm12          # xmm12 = [3,4,5,6,7,0,1,2,11,12,13,14,15,8,9,10]
	jmp	.LBB0_16
.Ltmp49:
	.p2align	4
.LBB0_14:                               #   in Loop: Header=BB0_16 Depth=1
	#DEBUG_VALUE: argon2_fill_segment_ssse3:position <- [DW_OP_plus_uconst 8, DW_OP_deref_size 8, DW_OP_constu 8, DW_OP_shr, DW_OP_LLVM_convert 64 7, DW_OP_LLVM_convert 24 7, DW_OP_stack_value, DW_OP_LLVM_fragment 72 24] $rsp
	#DEBUG_VALUE: argon2_fill_segment_ssse3:instance <- $r15
	#DEBUG_VALUE: argon2_fill_segment_ssse3:position <- [DW_OP_plus_uconst 32, DW_OP_deref, DW_OP_LLVM_fragment 32 32] $rsp
	#DEBUG_VALUE: argon2_fill_segment_ssse3:position <- [DW_OP_plus_uconst 24, DW_OP_deref, DW_OP_LLVM_fragment 0 32] $rsp
	#DEBUG_VALUE: argon2_fill_segment_ssse3:position <- [DW_OP_plus_uconst 8, DW_OP_deref, DW_OP_LLVM_fragment 64 8] $rsp
	#DEBUG_VALUE: argon2_fill_segment_ssse3:position <- [DW_OP_LLVM_fragment 96 32] $r13
	#DEBUG_VALUE: argon2_fill_segment_ssse3:ref_block <- $rsi
	#DEBUG_VALUE: argon2_fill_segment_ssse3:i <- $r13
	#DEBUG_VALUE: argon2_fill_segment_ssse3:curr_offset <- $r12d
	#DEBUG_VALUE: argon2_fill_segment_ssse3:prev_offset <- $ebx
	addq	%rax, %rdx
.Ltmp50:
	#DEBUG_VALUE: argon2_fill_segment_ssse3:curr_block <- $rdx
	.loc	7 231 13 is_stmt 1              # crypto_pwhash/argon2/argon2-fill-block-ssse3.c:231:13
	leaq	64(%rsp), %rdi
	callq	fill_block_with_xor
.Ltmp51:
	.loc	7 0 13 is_stmt 0                # crypto_pwhash/argon2/argon2-fill-block-ssse3.c:0:13
	movdqa	.LCPI0_0(%rip), %xmm12          # xmm12 = [3,4,5,6,7,0,1,2,11,12,13,14,15,8,9,10]
	movq	24(%rsp), %r9                   # 8-byte Reload
.Ltmp52:
.LBB0_15:                               #   in Loop: Header=BB0_16 Depth=1
	#DEBUG_VALUE: argon2_fill_segment_ssse3:position <- [DW_OP_plus_uconst 8, DW_OP_deref_size 8, DW_OP_constu 8, DW_OP_shr, DW_OP_LLVM_convert 64 7, DW_OP_LLVM_convert 24 7, DW_OP_stack_value, DW_OP_LLVM_fragment 72 24] $rsp
	#DEBUG_VALUE: argon2_fill_segment_ssse3:instance <- $r15
	#DEBUG_VALUE: argon2_fill_segment_ssse3:position <- [DW_OP_plus_uconst 32, DW_OP_deref, DW_OP_LLVM_fragment 32 32] $rsp
	#DEBUG_VALUE: argon2_fill_segment_ssse3:position <- [DW_OP_plus_uconst 24, DW_OP_deref, DW_OP_LLVM_fragment 0 32] $rsp
	#DEBUG_VALUE: argon2_fill_segment_ssse3:position <- [DW_OP_plus_uconst 8, DW_OP_deref, DW_OP_LLVM_fragment 64 8] $rsp
	#DEBUG_VALUE: argon2_fill_segment_ssse3:position <- [DW_OP_LLVM_fragment 96 32] $r13
	#DEBUG_VALUE: argon2_fill_segment_ssse3:i <- $r13
	#DEBUG_VALUE: argon2_fill_segment_ssse3:curr_offset <- $r12d
	#DEBUG_VALUE: argon2_fill_segment_ssse3:prev_offset <- $ebx
	.loc	7 194 10 is_stmt 1              # crypto_pwhash/argon2/argon2-fill-block-ssse3.c:194:10
	incq	%r13
.Ltmp53:
	#DEBUG_VALUE: argon2_fill_segment_ssse3:i <- $r13
	.loc	7 194 15 is_stmt 0              # crypto_pwhash/argon2/argon2-fill-block-ssse3.c:194:15
	incl	%r12d
.Ltmp54:
	#DEBUG_VALUE: argon2_fill_segment_ssse3:curr_offset <- $r12d
	.loc	7 194 30                        # crypto_pwhash/argon2/argon2-fill-block-ssse3.c:194:30
	incl	%ebx
.Ltmp55:
	#DEBUG_VALUE: argon2_fill_segment_ssse3:prev_offset <- $ebx
	.loc	7 193 44 is_stmt 1              # crypto_pwhash/argon2/argon2-fill-block-ssse3.c:193:44
	movl	28(%r15), %r14d
	movl	%ebx, %ebp
.Ltmp56:
	#DEBUG_VALUE: argon2_fill_segment_ssse3:prev_offset <- $ebp
	.loc	7 193 32 is_stmt 0              # crypto_pwhash/argon2/argon2-fill-block-ssse3.c:193:32
	cmpq	%r14, %r13
.Ltmp57:
	.loc	7 193 5                         # crypto_pwhash/argon2/argon2-fill-block-ssse3.c:193:5
	jae	.LBB0_44
.Ltmp58:
.LBB0_16:                               # =>This Loop Header: Depth=1
                                        #     Child Loop BB0_37 Depth 2
                                        #     Child Loop BB0_39 Depth 2
                                        #     Child Loop BB0_41 Depth 2
                                        #     Child Loop BB0_43 Depth 2
	#DEBUG_VALUE: argon2_fill_segment_ssse3:position <- [DW_OP_plus_uconst 8, DW_OP_deref_size 8, DW_OP_constu 8, DW_OP_shr, DW_OP_LLVM_convert 64 7, DW_OP_LLVM_convert 24 7, DW_OP_stack_value, DW_OP_LLVM_fragment 72 24] $rsp
	#DEBUG_VALUE: argon2_fill_segment_ssse3:instance <- $r15
	#DEBUG_VALUE: argon2_fill_segment_ssse3:position <- [DW_OP_plus_uconst 32, DW_OP_deref, DW_OP_LLVM_fragment 32 32] $rsp
	#DEBUG_VALUE: argon2_fill_segment_ssse3:position <- [DW_OP_plus_uconst 24, DW_OP_deref, DW_OP_LLVM_fragment 0 32] $rsp
	#DEBUG_VALUE: argon2_fill_segment_ssse3:position <- [DW_OP_plus_uconst 8, DW_OP_deref, DW_OP_LLVM_fragment 64 8] $rsp
	#DEBUG_VALUE: argon2_fill_segment_ssse3:curr_offset <- $r12d
	#DEBUG_VALUE: argon2_fill_segment_ssse3:prev_offset <- $ebp
	#DEBUG_VALUE: argon2_fill_segment_ssse3:i <- $r13
	#DEBUG_VALUE: argon2_fill_segment_ssse3:curr_offset <- $r12d
	#DEBUG_VALUE: argon2_fill_segment_ssse3:prev_offset <- $ebp
	.loc	7 196 37 is_stmt 1              # crypto_pwhash/argon2/argon2-fill-block-ssse3.c:196:37
	movl	32(%r15), %edi
	.loc	7 196 25 is_stmt 0              # crypto_pwhash/argon2/argon2-fill-block-ssse3.c:196:25
	movl	%r12d, %eax
	xorl	%edx, %edx
	divl	%edi
	leal	-1(%r12), %ebx
	.loc	7 196 49                        # crypto_pwhash/argon2/argon2-fill-block-ssse3.c:196:49
	cmpl	$1, %edx
	cmovnel	%ebp, %ebx
.Ltmp59:
	#DEBUG_VALUE: argon2_fill_segment_ssse3:prev_offset <- $ebx
	.loc	7 202 13 is_stmt 1              # crypto_pwhash/argon2/argon2-fill-block-ssse3.c:202:13
	cmpb	$0, 20(%rsp)                    # 1-byte Folded Reload
	je	.LBB0_18
.Ltmp60:
# %bb.17:                               #   in Loop: Header=BB0_16 Depth=1
	#DEBUG_VALUE: argon2_fill_segment_ssse3:position <- [DW_OP_plus_uconst 8, DW_OP_deref_size 8, DW_OP_constu 8, DW_OP_shr, DW_OP_LLVM_convert 64 7, DW_OP_LLVM_convert 24 7, DW_OP_stack_value, DW_OP_LLVM_fragment 72 24] $rsp
	#DEBUG_VALUE: argon2_fill_segment_ssse3:instance <- $r15
	#DEBUG_VALUE: argon2_fill_segment_ssse3:position <- [DW_OP_plus_uconst 32, DW_OP_deref, DW_OP_LLVM_fragment 32 32] $rsp
	#DEBUG_VALUE: argon2_fill_segment_ssse3:position <- [DW_OP_plus_uconst 24, DW_OP_deref, DW_OP_LLVM_fragment 0 32] $rsp
	#DEBUG_VALUE: argon2_fill_segment_ssse3:position <- [DW_OP_plus_uconst 8, DW_OP_deref, DW_OP_LLVM_fragment 64 8] $rsp
	#DEBUG_VALUE: argon2_fill_segment_ssse3:i <- $r13
	#DEBUG_VALUE: argon2_fill_segment_ssse3:curr_offset <- $r12d
	#DEBUG_VALUE: argon2_fill_segment_ssse3:prev_offset <- $ebx
	.loc	7 208 37                        # crypto_pwhash/argon2/argon2-fill-block-ssse3.c:208:37
	movq	(%r15), %rcx
	.loc	7 208 27 is_stmt 0              # crypto_pwhash/argon2/argon2-fill-block-ssse3.c:208:27
	movl	%ebx, %eax
	shlq	$10, %rax
	addq	8(%rcx), %rax
.Ltmp61:
	#DEBUG_VALUE: argon2_fill_segment_ssse3:pseudo_rand <- undef
	.loc	7 0 27                          # crypto_pwhash/argon2/argon2-fill-block-ssse3.c:0:27
	jmp	.LBB0_19
.Ltmp62:
	.p2align	4
.LBB0_18:                               #   in Loop: Header=BB0_16 Depth=1
	#DEBUG_VALUE: argon2_fill_segment_ssse3:position <- [DW_OP_plus_uconst 8, DW_OP_deref_size 8, DW_OP_constu 8, DW_OP_shr, DW_OP_LLVM_convert 64 7, DW_OP_LLVM_convert 24 7, DW_OP_stack_value, DW_OP_LLVM_fragment 72 24] $rsp
	#DEBUG_VALUE: argon2_fill_segment_ssse3:instance <- $r15
	#DEBUG_VALUE: argon2_fill_segment_ssse3:position <- [DW_OP_plus_uconst 32, DW_OP_deref, DW_OP_LLVM_fragment 32 32] $rsp
	#DEBUG_VALUE: argon2_fill_segment_ssse3:position <- [DW_OP_plus_uconst 24, DW_OP_deref, DW_OP_LLVM_fragment 0 32] $rsp
	#DEBUG_VALUE: argon2_fill_segment_ssse3:position <- [DW_OP_plus_uconst 8, DW_OP_deref, DW_OP_LLVM_fragment 64 8] $rsp
	#DEBUG_VALUE: argon2_fill_segment_ssse3:i <- $r13
	#DEBUG_VALUE: argon2_fill_segment_ssse3:curr_offset <- $r12d
	#DEBUG_VALUE: argon2_fill_segment_ssse3:prev_offset <- $ebx
	movq	40(%rsp), %rax                  # 8-byte Reload
.Ltmp63:
	.loc	7 205 27 is_stmt 1              # crypto_pwhash/argon2/argon2-fill-block-ssse3.c:205:27
	leaq	(%rax,%r13,8), %rax
.Ltmp64:
	#DEBUG_VALUE: argon2_fill_segment_ssse3:pseudo_rand <- undef
.LBB0_19:                               #   in Loop: Header=BB0_16 Depth=1
	#DEBUG_VALUE: argon2_fill_segment_ssse3:position <- [DW_OP_plus_uconst 8, DW_OP_deref_size 8, DW_OP_constu 8, DW_OP_shr, DW_OP_LLVM_convert 64 7, DW_OP_LLVM_convert 24 7, DW_OP_stack_value, DW_OP_LLVM_fragment 72 24] $rsp
	#DEBUG_VALUE: argon2_fill_segment_ssse3:instance <- $r15
	#DEBUG_VALUE: argon2_fill_segment_ssse3:position <- [DW_OP_plus_uconst 32, DW_OP_deref, DW_OP_LLVM_fragment 32 32] $rsp
	#DEBUG_VALUE: argon2_fill_segment_ssse3:position <- [DW_OP_plus_uconst 24, DW_OP_deref, DW_OP_LLVM_fragment 0 32] $rsp
	#DEBUG_VALUE: argon2_fill_segment_ssse3:position <- [DW_OP_plus_uconst 8, DW_OP_deref, DW_OP_LLVM_fragment 64 8] $rsp
	#DEBUG_VALUE: argon2_fill_segment_ssse3:i <- $r13
	#DEBUG_VALUE: argon2_fill_segment_ssse3:curr_offset <- $r12d
	#DEBUG_VALUE: argon2_fill_segment_ssse3:prev_offset <- $ebx
	.loc	7 0 27 is_stmt 0                # crypto_pwhash/argon2/argon2-fill-block-ssse3.c:0:27
	movq	32(%rsp), %r8                   # 8-byte Reload
	movq	(%rax), %rsi
.Ltmp65:
	#DEBUG_VALUE: argon2_fill_segment_ssse3:pseudo_rand <- $rsi
	.loc	7 212 34 is_stmt 1              # crypto_pwhash/argon2/argon2-fill-block-ssse3.c:212:34
	movq	%rsi, %rax
	shrq	$32, %rax
                                        # kill: def $eax killed $eax killed $rax
	.loc	7 212 42 is_stmt 0              # crypto_pwhash/argon2/argon2-fill-block-ssse3.c:212:42
	xorl	%edx, %edx
	divl	36(%r15)
	movl	%edx, %ecx
.Ltmp66:
	#DEBUG_VALUE: argon2_fill_segment_ssse3:ref_lane <- $edx
	.loc	7 214 34 is_stmt 1              # crypto_pwhash/argon2/argon2-fill-block-ssse3.c:214:34
	cmpb	$0, 7(%rsp)                     # 1-byte Folded Reload
	cmovneq	%r8, %rcx
.Ltmp67:
	#DEBUG_VALUE: argon2_fill_segment_ssse3:ref_lane <- $rcx
	.loc	7 174 12                        # crypto_pwhash/argon2/argon2-fill-block-ssse3.c:174:12
	testl	%r9d, %r9d
.Ltmp68:
	#DEBUG_VALUE: argon2_fill_segment_ssse3:position <- [DW_OP_LLVM_fragment 96 32] $r13
	#DEBUG_VALUE: index_alpha:instance <- $r15
	#DEBUG_VALUE: index_alpha:position <- undef
	#DEBUG_VALUE: index_alpha:pseudo_rand <- [DW_OP_LLVM_convert 64 7, DW_OP_LLVM_convert 32 7, DW_OP_stack_value] $rsi
	#DEBUG_VALUE: index_alpha:same_lane <- undef
	.loc	2 157 24                        # crypto_pwhash/argon2/argon2-core.h:157:24 @[ crypto_pwhash/argon2/argon2-fill-block-ssse3.c:223:21 ]
	je	.LBB0_22
.Ltmp69:
# %bb.20:                               #   in Loop: Header=BB0_16 Depth=1
	#DEBUG_VALUE: argon2_fill_segment_ssse3:position <- [DW_OP_plus_uconst 8, DW_OP_deref_size 8, DW_OP_constu 8, DW_OP_shr, DW_OP_LLVM_convert 64 7, DW_OP_LLVM_convert 24 7, DW_OP_stack_value, DW_OP_LLVM_fragment 72 24] $rsp
	#DEBUG_VALUE: argon2_fill_segment_ssse3:instance <- $r15
	#DEBUG_VALUE: argon2_fill_segment_ssse3:position <- [DW_OP_plus_uconst 32, DW_OP_deref, DW_OP_LLVM_fragment 32 32] $rsp
	#DEBUG_VALUE: argon2_fill_segment_ssse3:position <- [DW_OP_plus_uconst 24, DW_OP_deref, DW_OP_LLVM_fragment 0 32] $rsp
	#DEBUG_VALUE: argon2_fill_segment_ssse3:position <- [DW_OP_plus_uconst 8, DW_OP_deref, DW_OP_LLVM_fragment 64 8] $rsp
	#DEBUG_VALUE: argon2_fill_segment_ssse3:position <- [DW_OP_LLVM_fragment 96 32] $r13
	#DEBUG_VALUE: argon2_fill_segment_ssse3:i <- $r13
	#DEBUG_VALUE: argon2_fill_segment_ssse3:curr_offset <- $r12d
	#DEBUG_VALUE: argon2_fill_segment_ssse3:prev_offset <- $ebx
	#DEBUG_VALUE: argon2_fill_segment_ssse3:pseudo_rand <- $rsi
	#DEBUG_VALUE: argon2_fill_segment_ssse3:ref_lane <- $rcx
	#DEBUG_VALUE: index_alpha:instance <- $r15
	#DEBUG_VALUE: index_alpha:pseudo_rand <- [DW_OP_LLVM_convert 64 7, DW_OP_LLVM_convert 32 7, DW_OP_stack_value] $rsi
	.loc	7 224 42                        # crypto_pwhash/argon2/argon2-fill-block-ssse3.c:224:42
	cmpl	%r8d, %ecx
.Ltmp70:
	.loc	2 177 13                        # crypto_pwhash/argon2/argon2-core.h:177:13 @[ crypto_pwhash/argon2/argon2-fill-block-ssse3.c:223:21 ]
	jne	.LBB0_25
.Ltmp71:
# %bb.21:                               #   in Loop: Header=BB0_16 Depth=1
	#DEBUG_VALUE: argon2_fill_segment_ssse3:position <- [DW_OP_plus_uconst 8, DW_OP_deref_size 8, DW_OP_constu 8, DW_OP_shr, DW_OP_LLVM_convert 64 7, DW_OP_LLVM_convert 24 7, DW_OP_stack_value, DW_OP_LLVM_fragment 72 24] $rsp
	#DEBUG_VALUE: argon2_fill_segment_ssse3:instance <- $r15
	#DEBUG_VALUE: argon2_fill_segment_ssse3:position <- [DW_OP_plus_uconst 32, DW_OP_deref, DW_OP_LLVM_fragment 32 32] $rsp
	#DEBUG_VALUE: argon2_fill_segment_ssse3:position <- [DW_OP_plus_uconst 24, DW_OP_deref, DW_OP_LLVM_fragment 0 32] $rsp
	#DEBUG_VALUE: argon2_fill_segment_ssse3:position <- [DW_OP_plus_uconst 8, DW_OP_deref, DW_OP_LLVM_fragment 64 8] $rsp
	#DEBUG_VALUE: argon2_fill_segment_ssse3:position <- [DW_OP_LLVM_fragment 96 32] $r13
	#DEBUG_VALUE: argon2_fill_segment_ssse3:i <- $r13
	#DEBUG_VALUE: argon2_fill_segment_ssse3:curr_offset <- $r12d
	#DEBUG_VALUE: argon2_fill_segment_ssse3:prev_offset <- $ebx
	#DEBUG_VALUE: argon2_fill_segment_ssse3:pseudo_rand <- $rsi
	#DEBUG_VALUE: argon2_fill_segment_ssse3:ref_lane <- $rcx
	#DEBUG_VALUE: index_alpha:instance <- $r15
	#DEBUG_VALUE: index_alpha:pseudo_rand <- [DW_OP_LLVM_convert 64 7, DW_OP_LLVM_convert 32 7, DW_OP_stack_value] $rsi
	.loc	2 179 60                        # crypto_pwhash/argon2/argon2-core.h:179:60 @[ crypto_pwhash/argon2/argon2-fill-block-ssse3.c:223:21 ]
	movl	%r14d, %eax
	notl	%eax
	addl	%r13d, %eax
.Ltmp72:
	#DEBUG_VALUE: index_alpha:reference_area_size <- [DW_OP_LLVM_arg 0, DW_OP_LLVM_arg 0, DW_OP_plus, DW_OP_stack_value] undef
	.loc	2 181 9                         # crypto_pwhash/argon2/argon2-core.h:181:9 @[ crypto_pwhash/argon2/argon2-fill-block-ssse3.c:223:21 ]
	jmp	.LBB0_26
.Ltmp73:
	.loc	2 0 9 is_stmt 0                 # :0:9
.Ltmp74:
	.p2align	4
.LBB0_22:                               #   in Loop: Header=BB0_16 Depth=1
	#DEBUG_VALUE: argon2_fill_segment_ssse3:position <- [DW_OP_plus_uconst 8, DW_OP_deref_size 8, DW_OP_constu 8, DW_OP_shr, DW_OP_LLVM_convert 64 7, DW_OP_LLVM_convert 24 7, DW_OP_stack_value, DW_OP_LLVM_fragment 72 24] $rsp
	#DEBUG_VALUE: argon2_fill_segment_ssse3:instance <- $r15
	#DEBUG_VALUE: argon2_fill_segment_ssse3:position <- [DW_OP_plus_uconst 32, DW_OP_deref, DW_OP_LLVM_fragment 32 32] $rsp
	#DEBUG_VALUE: argon2_fill_segment_ssse3:position <- [DW_OP_plus_uconst 24, DW_OP_deref, DW_OP_LLVM_fragment 0 32] $rsp
	#DEBUG_VALUE: argon2_fill_segment_ssse3:position <- [DW_OP_plus_uconst 8, DW_OP_deref, DW_OP_LLVM_fragment 64 8] $rsp
	#DEBUG_VALUE: argon2_fill_segment_ssse3:position <- [DW_OP_LLVM_fragment 96 32] $r13
	#DEBUG_VALUE: argon2_fill_segment_ssse3:i <- $r13
	#DEBUG_VALUE: argon2_fill_segment_ssse3:curr_offset <- $r12d
	#DEBUG_VALUE: argon2_fill_segment_ssse3:prev_offset <- $ebx
	#DEBUG_VALUE: argon2_fill_segment_ssse3:pseudo_rand <- $rsi
	#DEBUG_VALUE: argon2_fill_segment_ssse3:ref_lane <- $rcx
	#DEBUG_VALUE: index_alpha:instance <- $r15
	#DEBUG_VALUE: index_alpha:pseudo_rand <- [DW_OP_LLVM_convert 64 7, DW_OP_LLVM_convert 32 7, DW_OP_stack_value] $rsi
	cmpb	$0, 8(%rsp)                     # 1-byte Folded Reload
.Ltmp75:
	.loc	2 159 29 is_stmt 1              # crypto_pwhash/argon2/argon2-core.h:159:29 @[ crypto_pwhash/argon2/argon2-fill-block-ssse3.c:223:21 ]
	je	.LBB0_29
.Ltmp76:
# %bb.23:                               #   in Loop: Header=BB0_16 Depth=1
	#DEBUG_VALUE: argon2_fill_segment_ssse3:position <- [DW_OP_plus_uconst 8, DW_OP_deref_size 8, DW_OP_constu 8, DW_OP_shr, DW_OP_LLVM_convert 64 7, DW_OP_LLVM_convert 24 7, DW_OP_stack_value, DW_OP_LLVM_fragment 72 24] $rsp
	#DEBUG_VALUE: argon2_fill_segment_ssse3:instance <- $r15
	#DEBUG_VALUE: argon2_fill_segment_ssse3:position <- [DW_OP_plus_uconst 32, DW_OP_deref, DW_OP_LLVM_fragment 32 32] $rsp
	#DEBUG_VALUE: argon2_fill_segment_ssse3:position <- [DW_OP_plus_uconst 24, DW_OP_deref, DW_OP_LLVM_fragment 0 32] $rsp
	#DEBUG_VALUE: argon2_fill_segment_ssse3:position <- [DW_OP_plus_uconst 8, DW_OP_deref, DW_OP_LLVM_fragment 64 8] $rsp
	#DEBUG_VALUE: argon2_fill_segment_ssse3:position <- [DW_OP_LLVM_fragment 96 32] $r13
	#DEBUG_VALUE: argon2_fill_segment_ssse3:i <- $r13
	#DEBUG_VALUE: argon2_fill_segment_ssse3:curr_offset <- $r12d
	#DEBUG_VALUE: argon2_fill_segment_ssse3:prev_offset <- $ebx
	#DEBUG_VALUE: argon2_fill_segment_ssse3:pseudo_rand <- $rsi
	#DEBUG_VALUE: argon2_fill_segment_ssse3:ref_lane <- $rcx
	#DEBUG_VALUE: index_alpha:instance <- $r15
	#DEBUG_VALUE: index_alpha:pseudo_rand <- [DW_OP_LLVM_convert 64 7, DW_OP_LLVM_convert 32 7, DW_OP_stack_value] $rsi
	.loc	2 0 0 is_stmt 0                 # crypto_pwhash/argon2/argon2-core.h:0 @[ crypto_pwhash/argon2/argon2-fill-block-ssse3.c:223:21 ]
	imull	56(%rsp), %r14d                 # 4-byte Folded Reload
.Ltmp77:
	.loc	7 224 42 is_stmt 1              # crypto_pwhash/argon2/argon2-fill-block-ssse3.c:224:42
	cmpl	%r8d, %ecx
.Ltmp78:
	.loc	2 164 17                        # crypto_pwhash/argon2/argon2-core.h:164:17 @[ crypto_pwhash/argon2/argon2-fill-block-ssse3.c:223:21 ]
	jne	.LBB0_30
.Ltmp79:
# %bb.24:                               #   in Loop: Header=BB0_16 Depth=1
	#DEBUG_VALUE: argon2_fill_segment_ssse3:position <- [DW_OP_plus_uconst 8, DW_OP_deref_size 8, DW_OP_constu 8, DW_OP_shr, DW_OP_LLVM_convert 64 7, DW_OP_LLVM_convert 24 7, DW_OP_stack_value, DW_OP_LLVM_fragment 72 24] $rsp
	#DEBUG_VALUE: argon2_fill_segment_ssse3:instance <- $r15
	#DEBUG_VALUE: argon2_fill_segment_ssse3:position <- [DW_OP_plus_uconst 32, DW_OP_deref, DW_OP_LLVM_fragment 32 32] $rsp
	#DEBUG_VALUE: argon2_fill_segment_ssse3:position <- [DW_OP_plus_uconst 24, DW_OP_deref, DW_OP_LLVM_fragment 0 32] $rsp
	#DEBUG_VALUE: argon2_fill_segment_ssse3:position <- [DW_OP_plus_uconst 8, DW_OP_deref, DW_OP_LLVM_fragment 64 8] $rsp
	#DEBUG_VALUE: argon2_fill_segment_ssse3:position <- [DW_OP_LLVM_fragment 96 32] $r13
	#DEBUG_VALUE: argon2_fill_segment_ssse3:i <- $r13
	#DEBUG_VALUE: argon2_fill_segment_ssse3:curr_offset <- $r12d
	#DEBUG_VALUE: argon2_fill_segment_ssse3:prev_offset <- $ebx
	#DEBUG_VALUE: argon2_fill_segment_ssse3:pseudo_rand <- $rsi
	#DEBUG_VALUE: argon2_fill_segment_ssse3:ref_lane <- $rcx
	#DEBUG_VALUE: index_alpha:instance <- $r15
	#DEBUG_VALUE: index_alpha:pseudo_rand <- [DW_OP_LLVM_convert 64 7, DW_OP_LLVM_convert 32 7, DW_OP_stack_value] $rsi
	.loc	2 168 37                        # crypto_pwhash/argon2/argon2-core.h:168:37 @[ crypto_pwhash/argon2/argon2-fill-block-ssse3.c:223:21 ]
	leal	(%r14,%r13), %edx
	decl	%edx
.Ltmp80:
	#DEBUG_VALUE: index_alpha:reference_area_size <- $edx
	.loc	2 0 37 is_stmt 0                # crypto_pwhash/argon2/argon2-core.h:0:37
	jmp	.LBB0_31
.Ltmp81:
	.p2align	4
.LBB0_25:                               #   in Loop: Header=BB0_16 Depth=1
	#DEBUG_VALUE: argon2_fill_segment_ssse3:position <- [DW_OP_plus_uconst 8, DW_OP_deref_size 8, DW_OP_constu 8, DW_OP_shr, DW_OP_LLVM_convert 64 7, DW_OP_LLVM_convert 24 7, DW_OP_stack_value, DW_OP_LLVM_fragment 72 24] $rsp
	#DEBUG_VALUE: argon2_fill_segment_ssse3:instance <- $r15
	#DEBUG_VALUE: argon2_fill_segment_ssse3:position <- [DW_OP_plus_uconst 32, DW_OP_deref, DW_OP_LLVM_fragment 32 32] $rsp
	#DEBUG_VALUE: argon2_fill_segment_ssse3:position <- [DW_OP_plus_uconst 24, DW_OP_deref, DW_OP_LLVM_fragment 0 32] $rsp
	#DEBUG_VALUE: argon2_fill_segment_ssse3:position <- [DW_OP_plus_uconst 8, DW_OP_deref, DW_OP_LLVM_fragment 64 8] $rsp
	#DEBUG_VALUE: argon2_fill_segment_ssse3:position <- [DW_OP_LLVM_fragment 96 32] $r13
	#DEBUG_VALUE: argon2_fill_segment_ssse3:i <- $r13
	#DEBUG_VALUE: argon2_fill_segment_ssse3:curr_offset <- $r12d
	#DEBUG_VALUE: argon2_fill_segment_ssse3:prev_offset <- $ebx
	#DEBUG_VALUE: argon2_fill_segment_ssse3:pseudo_rand <- $rsi
	#DEBUG_VALUE: argon2_fill_segment_ssse3:ref_lane <- $rcx
	#DEBUG_VALUE: index_alpha:instance <- $r15
	#DEBUG_VALUE: index_alpha:pseudo_rand <- [DW_OP_LLVM_convert 64 7, DW_OP_LLVM_convert 32 7, DW_OP_stack_value] $rsi
	.loc	2 184 36 is_stmt 1              # crypto_pwhash/argon2/argon2-core.h:184:36 @[ crypto_pwhash/argon2/argon2-fill-block-ssse3.c:223:21 ]
	cmpq	$1, %r13
	movl	$0, %eax
	sbbl	%eax, %eax
	.loc	2 182 57                        # crypto_pwhash/argon2/argon2-core.h:182:57 @[ crypto_pwhash/argon2/argon2-fill-block-ssse3.c:223:21 ]
	subl	%r14d, %eax
.Ltmp82:
	#DEBUG_VALUE: index_alpha:reference_area_size <- [DW_OP_LLVM_arg 0, DW_OP_LLVM_arg 0, DW_OP_plus, DW_OP_stack_value] undef
.LBB0_26:                               #   in Loop: Header=BB0_16 Depth=1
	#DEBUG_VALUE: argon2_fill_segment_ssse3:position <- [DW_OP_plus_uconst 8, DW_OP_deref_size 8, DW_OP_constu 8, DW_OP_shr, DW_OP_LLVM_convert 64 7, DW_OP_LLVM_convert 24 7, DW_OP_stack_value, DW_OP_LLVM_fragment 72 24] $rsp
	#DEBUG_VALUE: argon2_fill_segment_ssse3:instance <- $r15
	#DEBUG_VALUE: argon2_fill_segment_ssse3:position <- [DW_OP_plus_uconst 32, DW_OP_deref, DW_OP_LLVM_fragment 32 32] $rsp
	#DEBUG_VALUE: argon2_fill_segment_ssse3:position <- [DW_OP_plus_uconst 24, DW_OP_deref, DW_OP_LLVM_fragment 0 32] $rsp
	#DEBUG_VALUE: argon2_fill_segment_ssse3:position <- [DW_OP_plus_uconst 8, DW_OP_deref, DW_OP_LLVM_fragment 64 8] $rsp
	#DEBUG_VALUE: argon2_fill_segment_ssse3:position <- [DW_OP_LLVM_fragment 96 32] $r13
	#DEBUG_VALUE: argon2_fill_segment_ssse3:i <- $r13
	#DEBUG_VALUE: argon2_fill_segment_ssse3:curr_offset <- $r12d
	#DEBUG_VALUE: argon2_fill_segment_ssse3:prev_offset <- $ebx
	#DEBUG_VALUE: argon2_fill_segment_ssse3:pseudo_rand <- $rsi
	#DEBUG_VALUE: argon2_fill_segment_ssse3:ref_lane <- $rcx
	#DEBUG_VALUE: index_alpha:instance <- $r15
	#DEBUG_VALUE: index_alpha:pseudo_rand <- [DW_OP_LLVM_convert 64 7, DW_OP_LLVM_convert 32 7, DW_OP_stack_value] $rsi
	.loc	2 0 0 is_stmt 0                 # crypto_pwhash/argon2/argon2-core.h:0 @[ crypto_pwhash/argon2/argon2-fill-block-ssse3.c:223:21 ]
	leal	(%rdi,%rax), %edx
.Ltmp83:
	#DEBUG_VALUE: index_alpha:reference_area_size <- $edx
	#DEBUG_VALUE: index_alpha:relative_position <- [DW_OP_LLVM_arg 0, DW_OP_constu 1, DW_OP_minus, DW_OP_LLVM_convert 32 7, DW_OP_LLVM_convert 64 7, DW_OP_LLVM_arg 1, DW_OP_LLVM_convert 64 7, DW_OP_LLVM_convert 32 7, DW_OP_LLVM_convert 32 7, DW_OP_LLVM_convert 64 7, DW_OP_LLVM_arg 3, DW_OP_LLVM_convert 64 7, DW_OP_LLVM_convert 32 7, DW_OP_LLVM_convert 32 7, DW_OP_LLVM_convert 64 7, DW_OP_mul, DW_OP_constu 32, DW_OP_shr, DW_OP_LLVM_arg 2, DW_OP_LLVM_convert 32 7, DW_OP_LLVM_convert 64 7, DW_OP_mul, DW_OP_constu 32, DW_OP_shr, DW_OP_minus, DW_OP_stack_value] $edx, $rsi, $edx, $rsi
	cmpb	$3, 8(%rsp)                     # 1-byte Folded Reload
.Ltmp84:
	#DEBUG_VALUE: index_alpha:start_position <- 0
	.loc	2 199 26 is_stmt 1              # crypto_pwhash/argon2/argon2-core.h:199:26 @[ crypto_pwhash/argon2/argon2-fill-block-ssse3.c:223:21 ]
	je	.LBB0_31
.Ltmp85:
# %bb.28:                               #   in Loop: Header=BB0_16 Depth=1
	#DEBUG_VALUE: argon2_fill_segment_ssse3:position <- [DW_OP_plus_uconst 8, DW_OP_deref_size 8, DW_OP_constu 8, DW_OP_shr, DW_OP_LLVM_convert 64 7, DW_OP_LLVM_convert 24 7, DW_OP_stack_value, DW_OP_LLVM_fragment 72 24] $rsp
	#DEBUG_VALUE: argon2_fill_segment_ssse3:instance <- $r15
	#DEBUG_VALUE: argon2_fill_segment_ssse3:position <- [DW_OP_plus_uconst 32, DW_OP_deref, DW_OP_LLVM_fragment 32 32] $rsp
	#DEBUG_VALUE: argon2_fill_segment_ssse3:position <- [DW_OP_plus_uconst 24, DW_OP_deref, DW_OP_LLVM_fragment 0 32] $rsp
	#DEBUG_VALUE: argon2_fill_segment_ssse3:position <- [DW_OP_plus_uconst 8, DW_OP_deref, DW_OP_LLVM_fragment 64 8] $rsp
	#DEBUG_VALUE: argon2_fill_segment_ssse3:position <- [DW_OP_LLVM_fragment 96 32] $r13
	#DEBUG_VALUE: argon2_fill_segment_ssse3:i <- $r13
	#DEBUG_VALUE: argon2_fill_segment_ssse3:curr_offset <- $r12d
	#DEBUG_VALUE: argon2_fill_segment_ssse3:prev_offset <- $ebx
	#DEBUG_VALUE: argon2_fill_segment_ssse3:pseudo_rand <- $rsi
	#DEBUG_VALUE: argon2_fill_segment_ssse3:ref_lane <- $rcx
	#DEBUG_VALUE: index_alpha:instance <- $r15
	#DEBUG_VALUE: index_alpha:pseudo_rand <- [DW_OP_LLVM_convert 64 7, DW_OP_LLVM_convert 32 7, DW_OP_stack_value] $rsi
	#DEBUG_VALUE: index_alpha:reference_area_size <- $edx
	#DEBUG_VALUE: index_alpha:relative_position <- [DW_OP_LLVM_arg 0, DW_OP_constu 1, DW_OP_minus, DW_OP_LLVM_convert 32 7, DW_OP_LLVM_convert 64 7, DW_OP_LLVM_arg 1, DW_OP_LLVM_convert 64 7, DW_OP_LLVM_convert 32 7, DW_OP_LLVM_convert 32 7, DW_OP_LLVM_convert 64 7, DW_OP_LLVM_arg 3, DW_OP_LLVM_convert 64 7, DW_OP_LLVM_convert 32 7, DW_OP_LLVM_convert 32 7, DW_OP_LLVM_convert 64 7, DW_OP_mul, DW_OP_constu 32, DW_OP_shr, DW_OP_LLVM_arg 2, DW_OP_LLVM_convert 32 7, DW_OP_LLVM_convert 64 7, DW_OP_mul, DW_OP_constu 32, DW_OP_shr, DW_OP_minus, DW_OP_stack_value] $edx, $rsi, $edx, $rsi
	#DEBUG_VALUE: index_alpha:start_position <- 0
	.loc	2 201 54                        # crypto_pwhash/argon2/argon2-core.h:201:54 @[ crypto_pwhash/argon2/argon2-fill-block-ssse3.c:223:21 ]
	imull	52(%rsp), %r14d                 # 4-byte Folded Reload
	jmp	.LBB0_32
.Ltmp86:
.LBB0_29:                               #   in Loop: Header=BB0_16 Depth=1
	#DEBUG_VALUE: argon2_fill_segment_ssse3:position <- [DW_OP_plus_uconst 8, DW_OP_deref_size 8, DW_OP_constu 8, DW_OP_shr, DW_OP_LLVM_convert 64 7, DW_OP_LLVM_convert 24 7, DW_OP_stack_value, DW_OP_LLVM_fragment 72 24] $rsp
	#DEBUG_VALUE: argon2_fill_segment_ssse3:instance <- $r15
	#DEBUG_VALUE: argon2_fill_segment_ssse3:position <- [DW_OP_plus_uconst 32, DW_OP_deref, DW_OP_LLVM_fragment 32 32] $rsp
	#DEBUG_VALUE: argon2_fill_segment_ssse3:position <- [DW_OP_plus_uconst 24, DW_OP_deref, DW_OP_LLVM_fragment 0 32] $rsp
	#DEBUG_VALUE: argon2_fill_segment_ssse3:position <- [DW_OP_plus_uconst 8, DW_OP_deref, DW_OP_LLVM_fragment 64 8] $rsp
	#DEBUG_VALUE: argon2_fill_segment_ssse3:position <- [DW_OP_LLVM_fragment 96 32] $r13
	#DEBUG_VALUE: argon2_fill_segment_ssse3:i <- $r13
	#DEBUG_VALUE: argon2_fill_segment_ssse3:curr_offset <- $r12d
	#DEBUG_VALUE: argon2_fill_segment_ssse3:prev_offset <- $ebx
	#DEBUG_VALUE: argon2_fill_segment_ssse3:pseudo_rand <- $rsi
	#DEBUG_VALUE: argon2_fill_segment_ssse3:ref_lane <- $rcx
	#DEBUG_VALUE: index_alpha:instance <- $r15
	#DEBUG_VALUE: index_alpha:pseudo_rand <- [DW_OP_LLVM_convert 64 7, DW_OP_LLVM_convert 32 7, DW_OP_stack_value] $rsi
	.loc	2 162 33                        # crypto_pwhash/argon2/argon2-core.h:162:33 @[ crypto_pwhash/argon2/argon2-fill-block-ssse3.c:223:21 ]
	leal	-1(%r13), %edx
.Ltmp87:
	#DEBUG_VALUE: index_alpha:reference_area_size <- $edx
	.loc	2 0 33 is_stmt 0                # crypto_pwhash/argon2/argon2-core.h:0:33
	jmp	.LBB0_31
.Ltmp88:
.LBB0_30:                               #   in Loop: Header=BB0_16 Depth=1
	#DEBUG_VALUE: argon2_fill_segment_ssse3:position <- [DW_OP_plus_uconst 8, DW_OP_deref_size 8, DW_OP_constu 8, DW_OP_shr, DW_OP_LLVM_convert 64 7, DW_OP_LLVM_convert 24 7, DW_OP_stack_value, DW_OP_LLVM_fragment 72 24] $rsp
	#DEBUG_VALUE: argon2_fill_segment_ssse3:instance <- $r15
	#DEBUG_VALUE: argon2_fill_segment_ssse3:position <- [DW_OP_plus_uconst 32, DW_OP_deref, DW_OP_LLVM_fragment 32 32] $rsp
	#DEBUG_VALUE: argon2_fill_segment_ssse3:position <- [DW_OP_plus_uconst 24, DW_OP_deref, DW_OP_LLVM_fragment 0 32] $rsp
	#DEBUG_VALUE: argon2_fill_segment_ssse3:position <- [DW_OP_plus_uconst 8, DW_OP_deref, DW_OP_LLVM_fragment 64 8] $rsp
	#DEBUG_VALUE: argon2_fill_segment_ssse3:position <- [DW_OP_LLVM_fragment 96 32] $r13
	#DEBUG_VALUE: argon2_fill_segment_ssse3:i <- $r13
	#DEBUG_VALUE: argon2_fill_segment_ssse3:curr_offset <- $r12d
	#DEBUG_VALUE: argon2_fill_segment_ssse3:prev_offset <- $ebx
	#DEBUG_VALUE: argon2_fill_segment_ssse3:pseudo_rand <- $rsi
	#DEBUG_VALUE: argon2_fill_segment_ssse3:ref_lane <- $rcx
	#DEBUG_VALUE: index_alpha:instance <- $r15
	#DEBUG_VALUE: index_alpha:pseudo_rand <- [DW_OP_LLVM_convert 64 7, DW_OP_LLVM_convert 32 7, DW_OP_stack_value] $rsi
	.loc	2 171 64 is_stmt 1              # crypto_pwhash/argon2/argon2-core.h:171:64 @[ crypto_pwhash/argon2/argon2-fill-block-ssse3.c:223:21 ]
	cmpq	$1, %r13
	sbbl	$0, %r14d
.Ltmp89:
	#DEBUG_VALUE: index_alpha:reference_area_size <- $r14d
	.loc	2 0 64 is_stmt 0                # crypto_pwhash/argon2/argon2-core.h:0:64
	movl	%r14d, %edx
.Ltmp90:
	.p2align	4
.LBB0_31:                               # %index_alpha.exit
                                        #   in Loop: Header=BB0_16 Depth=1
	#DEBUG_VALUE: argon2_fill_segment_ssse3:position <- [DW_OP_plus_uconst 8, DW_OP_deref_size 8, DW_OP_constu 8, DW_OP_shr, DW_OP_LLVM_convert 64 7, DW_OP_LLVM_convert 24 7, DW_OP_stack_value, DW_OP_LLVM_fragment 72 24] $rsp
	#DEBUG_VALUE: argon2_fill_segment_ssse3:instance <- $r15
	#DEBUG_VALUE: argon2_fill_segment_ssse3:position <- [DW_OP_plus_uconst 32, DW_OP_deref, DW_OP_LLVM_fragment 32 32] $rsp
	#DEBUG_VALUE: argon2_fill_segment_ssse3:position <- [DW_OP_plus_uconst 24, DW_OP_deref, DW_OP_LLVM_fragment 0 32] $rsp
	#DEBUG_VALUE: argon2_fill_segment_ssse3:position <- [DW_OP_plus_uconst 8, DW_OP_deref, DW_OP_LLVM_fragment 64 8] $rsp
	#DEBUG_VALUE: argon2_fill_segment_ssse3:position <- [DW_OP_LLVM_fragment 96 32] $r13
	#DEBUG_VALUE: argon2_fill_segment_ssse3:i <- $r13
	#DEBUG_VALUE: argon2_fill_segment_ssse3:curr_offset <- $r12d
	#DEBUG_VALUE: argon2_fill_segment_ssse3:prev_offset <- $ebx
	#DEBUG_VALUE: argon2_fill_segment_ssse3:pseudo_rand <- $rsi
	#DEBUG_VALUE: argon2_fill_segment_ssse3:ref_lane <- $rcx
	#DEBUG_VALUE: index_alpha:instance <- $r15
	#DEBUG_VALUE: index_alpha:pseudo_rand <- [DW_OP_LLVM_convert 64 7, DW_OP_LLVM_convert 32 7, DW_OP_stack_value] $rsi
	#DEBUG_VALUE: index_alpha:reference_area_size <- $edx
	xorl	%r14d, %r14d
.Ltmp91:
.LBB0_32:                               # %index_alpha.exit
                                        #   in Loop: Header=BB0_16 Depth=1
	#DEBUG_VALUE: argon2_fill_segment_ssse3:position <- [DW_OP_plus_uconst 8, DW_OP_deref_size 8, DW_OP_constu 8, DW_OP_shr, DW_OP_LLVM_convert 64 7, DW_OP_LLVM_convert 24 7, DW_OP_stack_value, DW_OP_LLVM_fragment 72 24] $rsp
	#DEBUG_VALUE: argon2_fill_segment_ssse3:instance <- $r15
	#DEBUG_VALUE: argon2_fill_segment_ssse3:position <- [DW_OP_plus_uconst 32, DW_OP_deref, DW_OP_LLVM_fragment 32 32] $rsp
	#DEBUG_VALUE: argon2_fill_segment_ssse3:position <- [DW_OP_plus_uconst 24, DW_OP_deref, DW_OP_LLVM_fragment 0 32] $rsp
	#DEBUG_VALUE: argon2_fill_segment_ssse3:position <- [DW_OP_plus_uconst 8, DW_OP_deref, DW_OP_LLVM_fragment 64 8] $rsp
	#DEBUG_VALUE: argon2_fill_segment_ssse3:position <- [DW_OP_LLVM_fragment 96 32] $r13
	#DEBUG_VALUE: argon2_fill_segment_ssse3:i <- $r13
	#DEBUG_VALUE: argon2_fill_segment_ssse3:curr_offset <- $r12d
	#DEBUG_VALUE: argon2_fill_segment_ssse3:prev_offset <- $ebx
	#DEBUG_VALUE: argon2_fill_segment_ssse3:pseudo_rand <- $rsi
	#DEBUG_VALUE: argon2_fill_segment_ssse3:ref_lane <- $rcx
	#DEBUG_VALUE: index_alpha:instance <- $r15
	#DEBUG_VALUE: index_alpha:pseudo_rand <- [DW_OP_LLVM_convert 64 7, DW_OP_LLVM_convert 32 7, DW_OP_stack_value] $rsi
	#DEBUG_VALUE: index_alpha:reference_area_size <- $edx
	.loc	2 192 45 is_stmt 1              # crypto_pwhash/argon2/argon2-core.h:192:45 @[ crypto_pwhash/argon2/argon2-fill-block-ssse3.c:223:21 ]
	leal	-1(%rdx), %eax
.Ltmp92:
	#DEBUG_VALUE: index_alpha:relative_position <- [DW_OP_LLVM_arg 0, DW_OP_LLVM_convert 32 7, DW_OP_LLVM_convert 64 7, DW_OP_LLVM_arg 1, DW_OP_LLVM_convert 64 7, DW_OP_LLVM_convert 32 7, DW_OP_LLVM_convert 32 7, DW_OP_LLVM_convert 64 7, DW_OP_LLVM_arg 3, DW_OP_LLVM_convert 64 7, DW_OP_LLVM_convert 32 7, DW_OP_LLVM_convert 32 7, DW_OP_LLVM_convert 64 7, DW_OP_mul, DW_OP_constu 32, DW_OP_shr, DW_OP_LLVM_arg 2, DW_OP_LLVM_convert 32 7, DW_OP_LLVM_convert 64 7, DW_OP_mul, DW_OP_constu 32, DW_OP_shr, DW_OP_minus, DW_OP_stack_value] $eax, $rsi, $edx, $rsi
	#DEBUG_VALUE: index_alpha:relative_position <- [DW_OP_LLVM_arg 0, DW_OP_LLVM_arg 1, DW_OP_LLVM_convert 64 7, DW_OP_LLVM_convert 32 7, DW_OP_LLVM_convert 32 7, DW_OP_LLVM_convert 64 7, DW_OP_LLVM_arg 3, DW_OP_LLVM_convert 64 7, DW_OP_LLVM_convert 32 7, DW_OP_LLVM_convert 32 7, DW_OP_LLVM_convert 64 7, DW_OP_mul, DW_OP_constu 32, DW_OP_shr, DW_OP_LLVM_arg 2, DW_OP_LLVM_convert 32 7, DW_OP_LLVM_convert 64 7, DW_OP_mul, DW_OP_constu 32, DW_OP_shr, DW_OP_minus, DW_OP_stack_value] $eax, $rsi, $edx, $rsi
	.loc	2 192 49 is_stmt 0              # crypto_pwhash/argon2/argon2-core.h:192:49 @[ crypto_pwhash/argon2/argon2-fill-block-ssse3.c:223:21 ]
	addq	%r14, %rax
.Ltmp93:
	.loc	2 190 25 is_stmt 1              # crypto_pwhash/argon2/argon2-core.h:190:25 @[ crypto_pwhash/argon2/argon2-fill-block-ssse3.c:223:21 ]
	movl	%esi, %esi
.Ltmp94:
	#DEBUG_VALUE: index_alpha:relative_position <- [DW_OP_LLVM_arg 0, DW_OP_LLVM_arg 1, DW_OP_LLVM_arg 3, DW_OP_mul, DW_OP_constu 32, DW_OP_shr, DW_OP_LLVM_arg 2, DW_OP_LLVM_convert 32 7, DW_OP_LLVM_convert 64 7, DW_OP_mul, DW_OP_constu 32, DW_OP_shr, DW_OP_minus, DW_OP_stack_value] undef, undef, undef, undef
	.loc	2 191 43                        # crypto_pwhash/argon2/argon2-core.h:191:43 @[ crypto_pwhash/argon2/argon2-fill-block-ssse3.c:223:21 ]
	imulq	%rsi, %rsi
.Ltmp95:
	#DEBUG_VALUE: index_alpha:relative_position <- [DW_OP_LLVM_arg 0, DW_OP_LLVM_arg 1, DW_OP_constu 32, DW_OP_shr, DW_OP_LLVM_arg 2, DW_OP_LLVM_convert 32 7, DW_OP_LLVM_convert 64 7, DW_OP_mul, DW_OP_constu 32, DW_OP_shr, DW_OP_minus, DW_OP_stack_value] undef, undef, undef
	.loc	2 191 63 is_stmt 0              # crypto_pwhash/argon2/argon2-core.h:191:63 @[ crypto_pwhash/argon2/argon2-fill-block-ssse3.c:223:21 ]
	shrq	$32, %rsi
.Ltmp96:
	#DEBUG_VALUE: index_alpha:relative_position <- [DW_OP_LLVM_arg 0, DW_OP_LLVM_arg 1, DW_OP_LLVM_arg 2, DW_OP_LLVM_convert 32 7, DW_OP_LLVM_convert 64 7, DW_OP_mul, DW_OP_constu 32, DW_OP_shr, DW_OP_minus, DW_OP_stack_value] undef, undef, undef
	.loc	2 193 26 is_stmt 1              # crypto_pwhash/argon2/argon2-core.h:193:26 @[ crypto_pwhash/argon2/argon2-fill-block-ssse3.c:223:21 ]
	movl	%edx, %edx
.Ltmp97:
	#DEBUG_VALUE: index_alpha:relative_position <- [DW_OP_LLVM_arg 0, DW_OP_LLVM_arg 1, DW_OP_LLVM_arg 2, DW_OP_mul, DW_OP_constu 32, DW_OP_shr, DW_OP_minus, DW_OP_stack_value] undef, undef, undef
	.loc	2 193 46 is_stmt 0              # crypto_pwhash/argon2/argon2-core.h:193:46 @[ crypto_pwhash/argon2/argon2-fill-block-ssse3.c:223:21 ]
	imulq	%rsi, %rdx
.Ltmp98:
	#DEBUG_VALUE: index_alpha:relative_position <- [DW_OP_LLVM_arg 0, DW_OP_LLVM_arg 1, DW_OP_constu 32, DW_OP_shr, DW_OP_minus, DW_OP_stack_value] undef, undef
	.loc	2 193 66                        # crypto_pwhash/argon2/argon2-core.h:193:66 @[ crypto_pwhash/argon2/argon2-fill-block-ssse3.c:223:21 ]
	shrq	$32, %rdx
.Ltmp99:
	#DEBUG_VALUE: index_alpha:relative_position <- undef
	#DEBUG_VALUE: index_alpha:start_position <- $r14
	.loc	2 205 41 is_stmt 1              # crypto_pwhash/argon2/argon2-core.h:205:41 @[ crypto_pwhash/argon2/argon2-fill-block-ssse3.c:223:21 ]
	subq	%rdx, %rax
	.loc	2 205 62 is_stmt 0              # crypto_pwhash/argon2/argon2-core.h:205:62 @[ crypto_pwhash/argon2/argon2-fill-block-ssse3.c:223:21 ]
	movq	%rax, %rdx
	shrq	$32, %rdx
	je	.LBB0_34
.Ltmp100:
# %bb.33:                               #   in Loop: Header=BB0_16 Depth=1
	#DEBUG_VALUE: argon2_fill_segment_ssse3:position <- [DW_OP_plus_uconst 8, DW_OP_deref_size 8, DW_OP_constu 8, DW_OP_shr, DW_OP_LLVM_convert 64 7, DW_OP_LLVM_convert 24 7, DW_OP_stack_value, DW_OP_LLVM_fragment 72 24] $rsp
	#DEBUG_VALUE: argon2_fill_segment_ssse3:instance <- $r15
	#DEBUG_VALUE: argon2_fill_segment_ssse3:position <- [DW_OP_plus_uconst 32, DW_OP_deref, DW_OP_LLVM_fragment 32 32] $rsp
	#DEBUG_VALUE: argon2_fill_segment_ssse3:position <- [DW_OP_plus_uconst 24, DW_OP_deref, DW_OP_LLVM_fragment 0 32] $rsp
	#DEBUG_VALUE: argon2_fill_segment_ssse3:position <- [DW_OP_plus_uconst 8, DW_OP_deref, DW_OP_LLVM_fragment 64 8] $rsp
	#DEBUG_VALUE: argon2_fill_segment_ssse3:position <- [DW_OP_LLVM_fragment 96 32] $r13
	#DEBUG_VALUE: argon2_fill_segment_ssse3:i <- $r13
	#DEBUG_VALUE: argon2_fill_segment_ssse3:curr_offset <- $r12d
	#DEBUG_VALUE: argon2_fill_segment_ssse3:prev_offset <- $ebx
	#DEBUG_VALUE: argon2_fill_segment_ssse3:ref_lane <- $rcx
	#DEBUG_VALUE: index_alpha:instance <- $r15
	#DEBUG_VALUE: index_alpha:start_position <- $r14
	xorl	%edx, %edx
	divq	%rdi
	movq	%rdx, %rsi
	jmp	.LBB0_35
.Ltmp101:
	.loc	2 0 62                          # :0:62
.Ltmp102:
	.p2align	4
.LBB0_34:                               #   in Loop: Header=BB0_16 Depth=1
	#DEBUG_VALUE: argon2_fill_segment_ssse3:position <- [DW_OP_plus_uconst 8, DW_OP_deref_size 8, DW_OP_constu 8, DW_OP_shr, DW_OP_LLVM_convert 64 7, DW_OP_LLVM_convert 24 7, DW_OP_stack_value, DW_OP_LLVM_fragment 72 24] $rsp
	#DEBUG_VALUE: argon2_fill_segment_ssse3:instance <- $r15
	#DEBUG_VALUE: argon2_fill_segment_ssse3:position <- [DW_OP_plus_uconst 32, DW_OP_deref, DW_OP_LLVM_fragment 32 32] $rsp
	#DEBUG_VALUE: argon2_fill_segment_ssse3:position <- [DW_OP_plus_uconst 24, DW_OP_deref, DW_OP_LLVM_fragment 0 32] $rsp
	#DEBUG_VALUE: argon2_fill_segment_ssse3:position <- [DW_OP_plus_uconst 8, DW_OP_deref, DW_OP_LLVM_fragment 64 8] $rsp
	#DEBUG_VALUE: argon2_fill_segment_ssse3:position <- [DW_OP_LLVM_fragment 96 32] $r13
	#DEBUG_VALUE: argon2_fill_segment_ssse3:i <- $r13
	#DEBUG_VALUE: argon2_fill_segment_ssse3:curr_offset <- $r12d
	#DEBUG_VALUE: argon2_fill_segment_ssse3:prev_offset <- $ebx
	#DEBUG_VALUE: argon2_fill_segment_ssse3:ref_lane <- $rcx
	#DEBUG_VALUE: index_alpha:instance <- $r15
	#DEBUG_VALUE: index_alpha:start_position <- $r14
                                        # kill: def $eax killed $eax killed $rax
	.loc	2 205 62                        # crypto_pwhash/argon2/argon2-core.h:205:62 @[ crypto_pwhash/argon2/argon2-fill-block-ssse3.c:223:21 ]
	xorl	%edx, %edx
	divl	%edi
	movl	%edx, %esi
.Ltmp103:
.LBB0_35:                               #   in Loop: Header=BB0_16 Depth=1
	#DEBUG_VALUE: argon2_fill_segment_ssse3:position <- [DW_OP_plus_uconst 8, DW_OP_deref_size 8, DW_OP_constu 8, DW_OP_shr, DW_OP_LLVM_convert 64 7, DW_OP_LLVM_convert 24 7, DW_OP_stack_value, DW_OP_LLVM_fragment 72 24] $rsp
	#DEBUG_VALUE: argon2_fill_segment_ssse3:instance <- $r15
	#DEBUG_VALUE: argon2_fill_segment_ssse3:position <- [DW_OP_plus_uconst 32, DW_OP_deref, DW_OP_LLVM_fragment 32 32] $rsp
	#DEBUG_VALUE: argon2_fill_segment_ssse3:position <- [DW_OP_plus_uconst 24, DW_OP_deref, DW_OP_LLVM_fragment 0 32] $rsp
	#DEBUG_VALUE: argon2_fill_segment_ssse3:position <- [DW_OP_plus_uconst 8, DW_OP_deref, DW_OP_LLVM_fragment 64 8] $rsp
	#DEBUG_VALUE: argon2_fill_segment_ssse3:position <- [DW_OP_LLVM_fragment 96 32] $r13
	#DEBUG_VALUE: argon2_fill_segment_ssse3:i <- $r13
	#DEBUG_VALUE: argon2_fill_segment_ssse3:curr_offset <- $r12d
	#DEBUG_VALUE: argon2_fill_segment_ssse3:prev_offset <- $ebx
	#DEBUG_VALUE: argon2_fill_segment_ssse3:ref_lane <- $rcx
	#DEBUG_VALUE: index_alpha:instance <- $r15
	#DEBUG_VALUE: index_alpha:start_position <- $r14
	.loc	7 0 0                           # crypto_pwhash/argon2/argon2-fill-block-ssse3.c:0
	movl	%r12d, %eax
	#DEBUG_VALUE: index_alpha:absolute_position <- $rsi
.Ltmp104:
	#DEBUG_VALUE: argon2_fill_segment_ssse3:ref_index <- $rsi
	.loc	7 227 31 is_stmt 1              # crypto_pwhash/argon2/argon2-fill-block-ssse3.c:227:31
	movq	(%r15), %rdx
	.loc	7 227 39 is_stmt 0              # crypto_pwhash/argon2/argon2-fill-block-ssse3.c:227:39
	movq	8(%rdx), %rdx
	.loc	7 228 43 is_stmt 1              # crypto_pwhash/argon2/argon2-fill-block-ssse3.c:228:43
	imulq	%rdi, %rcx
.Ltmp105:
	.loc	7 227 46                        # crypto_pwhash/argon2/argon2-fill-block-ssse3.c:227:46
	shlq	$10, %rcx
	addq	%rdx, %rcx
	.loc	7 228 54                        # crypto_pwhash/argon2/argon2-fill-block-ssse3.c:228:54
	shlq	$10, %rsi
.Ltmp106:
	addq	%rcx, %rsi
.Ltmp107:
	#DEBUG_VALUE: argon2_fill_segment_ssse3:ref_block <- $rsi
	#DEBUG_VALUE: argon2_fill_segment_ssse3:curr_block <- undef
	.loc	7 0 0 is_stmt 0                 # crypto_pwhash/argon2/argon2-fill-block-ssse3.c:0
	shlq	$10, %rax
.Ltmp108:
	#DEBUG_VALUE: fill_block:block_XY <- [DW_OP_plus_uconst 1088, DW_OP_deref] $rsp
	#DEBUG_VALUE: fill_block:state <- [DW_OP_plus_uconst 64, DW_OP_stack_value] $rsp
	#DEBUG_VALUE: fill_block:ref_block <- $rsi
	#DEBUG_VALUE: fill_block:next_block <- undef
	.loc	7 174 12 is_stmt 1              # crypto_pwhash/argon2/argon2-fill-block-ssse3.c:174:12
	testl	%r9d, %r9d
.Ltmp109:
	.loc	7 230 27                        # crypto_pwhash/argon2/argon2-fill-block-ssse3.c:230:27
	jne	.LBB0_14
.Ltmp110:
# %bb.36:                               #   in Loop: Header=BB0_16 Depth=1
	#DEBUG_VALUE: argon2_fill_segment_ssse3:position <- [DW_OP_plus_uconst 8, DW_OP_deref_size 8, DW_OP_constu 8, DW_OP_shr, DW_OP_LLVM_convert 64 7, DW_OP_LLVM_convert 24 7, DW_OP_stack_value, DW_OP_LLVM_fragment 72 24] $rsp
	#DEBUG_VALUE: argon2_fill_segment_ssse3:instance <- $r15
	#DEBUG_VALUE: argon2_fill_segment_ssse3:position <- [DW_OP_plus_uconst 32, DW_OP_deref, DW_OP_LLVM_fragment 32 32] $rsp
	#DEBUG_VALUE: argon2_fill_segment_ssse3:position <- [DW_OP_plus_uconst 24, DW_OP_deref, DW_OP_LLVM_fragment 0 32] $rsp
	#DEBUG_VALUE: argon2_fill_segment_ssse3:position <- [DW_OP_plus_uconst 8, DW_OP_deref, DW_OP_LLVM_fragment 64 8] $rsp
	#DEBUG_VALUE: argon2_fill_segment_ssse3:position <- [DW_OP_LLVM_fragment 96 32] $r13
	#DEBUG_VALUE: argon2_fill_segment_ssse3:ref_block <- $rsi
	#DEBUG_VALUE: argon2_fill_segment_ssse3:i <- $r13
	#DEBUG_VALUE: argon2_fill_segment_ssse3:curr_offset <- $r12d
	#DEBUG_VALUE: argon2_fill_segment_ssse3:prev_offset <- $ebx
	#DEBUG_VALUE: index_alpha:instance <- $r15
	#DEBUG_VALUE: index_alpha:start_position <- $r14
	#DEBUG_VALUE: fill_block:block_XY <- [DW_OP_plus_uconst 1088, DW_OP_deref] $rsp
	#DEBUG_VALUE: fill_block:state <- [DW_OP_plus_uconst 64, DW_OP_stack_value] $rsp
	#DEBUG_VALUE: fill_block:ref_block <- $rsi
	.loc	7 0 27 is_stmt 0                # crypto_pwhash/argon2/argon2-fill-block-ssse3.c:0:27
	movl	$16, %ecx
	#DEBUG_VALUE: fill_block:i <- 0
	xorl	%edi, %edi
.Ltmp111:
	.p2align	4
.LBB0_37:                               #   Parent Loop BB0_16 Depth=1
                                        # =>  This Inner Loop Header: Depth=2
	#DEBUG_VALUE: argon2_fill_segment_ssse3:position <- [DW_OP_plus_uconst 8, DW_OP_deref_size 8, DW_OP_constu 8, DW_OP_shr, DW_OP_LLVM_convert 64 7, DW_OP_LLVM_convert 24 7, DW_OP_stack_value, DW_OP_LLVM_fragment 72 24] $rsp
	#DEBUG_VALUE: argon2_fill_segment_ssse3:instance <- $r15
	#DEBUG_VALUE: argon2_fill_segment_ssse3:position <- [DW_OP_plus_uconst 32, DW_OP_deref, DW_OP_LLVM_fragment 32 32] $rsp
	#DEBUG_VALUE: argon2_fill_segment_ssse3:position <- [DW_OP_plus_uconst 24, DW_OP_deref, DW_OP_LLVM_fragment 0 32] $rsp
	#DEBUG_VALUE: argon2_fill_segment_ssse3:position <- [DW_OP_plus_uconst 8, DW_OP_deref, DW_OP_LLVM_fragment 64 8] $rsp
	#DEBUG_VALUE: argon2_fill_segment_ssse3:position <- [DW_OP_LLVM_fragment 96 32] $r13
	#DEBUG_VALUE: argon2_fill_segment_ssse3:ref_block <- $rsi
	#DEBUG_VALUE: argon2_fill_segment_ssse3:i <- $r13
	#DEBUG_VALUE: argon2_fill_segment_ssse3:curr_offset <- $r12d
	#DEBUG_VALUE: argon2_fill_segment_ssse3:prev_offset <- $ebx
	#DEBUG_VALUE: fill_block:block_XY <- [DW_OP_plus_uconst 1088, DW_OP_deref] $rsp
	#DEBUG_VALUE: fill_block:state <- [DW_OP_plus_uconst 64, DW_OP_stack_value] $rsp
	#DEBUG_VALUE: fill_block:ref_block <- $rsi
	#DEBUG_VALUE: fill_block:i <- $rdi
	.loc	7 47 72 is_stmt 1               # crypto_pwhash/argon2/argon2-fill-block-ssse3.c:47:72 @[ crypto_pwhash/argon2/argon2-fill-block-ssse3.c:234:13 ]
	movq	%rdi, %r8
	shlq	$4, %r8
	.loc	7 47 23 is_stmt 0               # crypto_pwhash/argon2/argon2-fill-block-ssse3.c:47:23 @[ crypto_pwhash/argon2/argon2-fill-block-ssse3.c:234:13 ]
	movups	(%rsi,%r8), %xmm0
	.loc	7 46 34 is_stmt 1               # crypto_pwhash/argon2/argon2-fill-block-ssse3.c:46:34 @[ crypto_pwhash/argon2/argon2-fill-block-ssse3.c:234:13 ]
	xorps	48(%rsp,%rcx), %xmm0
	.loc	7 46 32 is_stmt 0               # crypto_pwhash/argon2/argon2-fill-block-ssse3.c:46:32 @[ crypto_pwhash/argon2/argon2-fill-block-ssse3.c:234:13 ]
	movaps	%xmm0, 48(%rsp,%rcx)
	.loc	7 46 21                         # crypto_pwhash/argon2/argon2-fill-block-ssse3.c:46:21 @[ crypto_pwhash/argon2/argon2-fill-block-ssse3.c:234:13 ]
	movaps	%xmm0, 1072(%rsp,%rcx)
.Ltmp112:
	#DEBUG_VALUE: fill_block:i <- undef
	.loc	7 47 23 is_stmt 1               # crypto_pwhash/argon2/argon2-fill-block-ssse3.c:47:23 @[ crypto_pwhash/argon2/argon2-fill-block-ssse3.c:234:13 ]
	movdqu	16(%rsi,%r8), %xmm0
	.loc	7 46 34                         # crypto_pwhash/argon2/argon2-fill-block-ssse3.c:46:34 @[ crypto_pwhash/argon2/argon2-fill-block-ssse3.c:234:13 ]
	pxor	64(%rsp,%rcx), %xmm0
	.loc	7 46 32 is_stmt 0               # crypto_pwhash/argon2/argon2-fill-block-ssse3.c:46:32 @[ crypto_pwhash/argon2/argon2-fill-block-ssse3.c:234:13 ]
	movdqa	%xmm0, 64(%rsp,%rcx)
	.loc	7 46 21                         # crypto_pwhash/argon2/argon2-fill-block-ssse3.c:46:21 @[ crypto_pwhash/argon2/argon2-fill-block-ssse3.c:234:13 ]
	movdqa	%xmm0, 1088(%rsp,%rcx)
.Ltmp113:
	.loc	7 45 46 is_stmt 1               # crypto_pwhash/argon2/argon2-fill-block-ssse3.c:45:46 @[ crypto_pwhash/argon2/argon2-fill-block-ssse3.c:234:13 ]
	addq	$2, %rdi
.Ltmp114:
	#DEBUG_VALUE: fill_block:i <- $rdi
	.loc	7 45 19 is_stmt 0               # crypto_pwhash/argon2/argon2-fill-block-ssse3.c:45:19 @[ crypto_pwhash/argon2/argon2-fill-block-ssse3.c:234:13 ]
	addq	$32, %rcx
	cmpq	$1040, %rcx                     # imm = 0x410
.Ltmp115:
	.loc	7 45 5                          # crypto_pwhash/argon2/argon2-fill-block-ssse3.c:45:5 @[ crypto_pwhash/argon2/argon2-fill-block-ssse3.c:234:13 ]
	jne	.LBB0_37
.Ltmp116:
# %bb.38:                               # %.preheader731.i.preheader
                                        #   in Loop: Header=BB0_16 Depth=1
	#DEBUG_VALUE: argon2_fill_segment_ssse3:position <- [DW_OP_plus_uconst 8, DW_OP_deref_size 8, DW_OP_constu 8, DW_OP_shr, DW_OP_LLVM_convert 64 7, DW_OP_LLVM_convert 24 7, DW_OP_stack_value, DW_OP_LLVM_fragment 72 24] $rsp
	#DEBUG_VALUE: argon2_fill_segment_ssse3:instance <- $r15
	#DEBUG_VALUE: argon2_fill_segment_ssse3:position <- [DW_OP_plus_uconst 32, DW_OP_deref, DW_OP_LLVM_fragment 32 32] $rsp
	#DEBUG_VALUE: argon2_fill_segment_ssse3:position <- [DW_OP_plus_uconst 24, DW_OP_deref, DW_OP_LLVM_fragment 0 32] $rsp
	#DEBUG_VALUE: argon2_fill_segment_ssse3:position <- [DW_OP_plus_uconst 8, DW_OP_deref, DW_OP_LLVM_fragment 64 8] $rsp
	#DEBUG_VALUE: argon2_fill_segment_ssse3:position <- [DW_OP_LLVM_fragment 96 32] $r13
	#DEBUG_VALUE: argon2_fill_segment_ssse3:ref_block <- $rsi
	#DEBUG_VALUE: argon2_fill_segment_ssse3:i <- $r13
	#DEBUG_VALUE: argon2_fill_segment_ssse3:curr_offset <- $r12d
	#DEBUG_VALUE: argon2_fill_segment_ssse3:prev_offset <- $ebx
	#DEBUG_VALUE: fill_block:block_XY <- [DW_OP_plus_uconst 1088, DW_OP_deref] $rsp
	#DEBUG_VALUE: fill_block:state <- [DW_OP_plus_uconst 64, DW_OP_stack_value] $rsp
	#DEBUG_VALUE: fill_block:ref_block <- $rsi
	#DEBUG_VALUE: fill_block:i <- $rdi
	.loc	7 0 5                           # crypto_pwhash/argon2/argon2-fill-block-ssse3.c:0:5
	xorl	%ecx, %ecx
.Ltmp117:
	.p2align	4
.LBB0_39:                               # %.preheader731.i
                                        #   Parent Loop BB0_16 Depth=1
                                        # =>  This Inner Loop Header: Depth=2
	#DEBUG_VALUE: argon2_fill_segment_ssse3:position <- [DW_OP_plus_uconst 8, DW_OP_deref_size 8, DW_OP_constu 8, DW_OP_shr, DW_OP_LLVM_convert 64 7, DW_OP_LLVM_convert 24 7, DW_OP_stack_value, DW_OP_LLVM_fragment 72 24] $rsp
	#DEBUG_VALUE: argon2_fill_segment_ssse3:instance <- $r15
	#DEBUG_VALUE: argon2_fill_segment_ssse3:position <- [DW_OP_plus_uconst 32, DW_OP_deref, DW_OP_LLVM_fragment 32 32] $rsp
	#DEBUG_VALUE: argon2_fill_segment_ssse3:position <- [DW_OP_plus_uconst 24, DW_OP_deref, DW_OP_LLVM_fragment 0 32] $rsp
	#DEBUG_VALUE: argon2_fill_segment_ssse3:position <- [DW_OP_plus_uconst 8, DW_OP_deref, DW_OP_LLVM_fragment 64 8] $rsp
	#DEBUG_VALUE: argon2_fill_segment_ssse3:position <- [DW_OP_LLVM_fragment 96 32] $r13
	#DEBUG_VALUE: argon2_fill_segment_ssse3:ref_block <- $rsi
	#DEBUG_VALUE: argon2_fill_segment_ssse3:i <- $r13
	#DEBUG_VALUE: argon2_fill_segment_ssse3:curr_offset <- $r12d
	#DEBUG_VALUE: argon2_fill_segment_ssse3:prev_offset <- $ebx
	#DEBUG_VALUE: fill_block:block_XY <- [DW_OP_plus_uconst 1088, DW_OP_deref] $rsp
	#DEBUG_VALUE: fill_block:state <- [DW_OP_plus_uconst 64, DW_OP_stack_value] $rsp
	#DEBUG_VALUE: fill_block:ref_block <- $rsi
	#DEBUG_VALUE: fill_block:i <- [DW_OP_consts 128, DW_OP_div, DW_OP_stack_value] $rcx
	.loc	7 51 46 is_stmt 1               # crypto_pwhash/argon2/argon2-fill-block-ssse3.c:51:46 @[ crypto_pwhash/argon2/argon2-fill-block-ssse3.c:234:13 ]
	movdqa	64(%rsp,%rcx), %xmm1
	.loc	7 51 110 is_stmt 0              # crypto_pwhash/argon2/argon2-fill-block-ssse3.c:51:110 @[ crypto_pwhash/argon2/argon2-fill-block-ssse3.c:234:13 ]
	movdqa	80(%rsp,%rcx), %xmm4
	.loc	7 51 64                         # crypto_pwhash/argon2/argon2-fill-block-ssse3.c:51:64 @[ crypto_pwhash/argon2/argon2-fill-block-ssse3.c:234:13 ]
	movdqa	96(%rsp,%rcx), %xmm0
.Ltmp118:
	#DEBUG_VALUE: fBlaMka:y <- $xmm0
	.loc	7 51 128                        # crypto_pwhash/argon2/argon2-fill-block-ssse3.c:51:128 @[ crypto_pwhash/argon2/argon2-fill-block-ssse3.c:234:13 ]
	movdqa	112(%rsp,%rcx), %xmm2
.Ltmp119:
	#DEBUG_VALUE: fBlaMka:y <- $xmm2
	#DEBUG_VALUE: fBlaMka:x <- $xmm1
	.file	9 "crypto_pwhash/argon2" "blamka-round-ssse3.h"
	.loc	9 31 23 is_stmt 1               # crypto_pwhash/argon2/blamka-round-ssse3.h:31:23 @[ crypto_pwhash/argon2/argon2-fill-block-ssse3.c:51:38 @[ crypto_pwhash/argon2/argon2-fill-block-ssse3.c:234:13 ] ]
	movdqa	%xmm0, %xmm3
	pmuludq	%xmm1, %xmm3
.Ltmp120:
	#DEBUG_VALUE: fBlaMka:z <- $xmm3
	.loc	9 32 26                         # crypto_pwhash/argon2/blamka-round-ssse3.h:32:26 @[ crypto_pwhash/argon2/argon2-fill-block-ssse3.c:51:38 @[ crypto_pwhash/argon2/argon2-fill-block-ssse3.c:234:13 ] ]
	paddq	%xmm0, %xmm1
.Ltmp121:
	.loc	9 32 47 is_stmt 0               # crypto_pwhash/argon2/blamka-round-ssse3.h:32:47 @[ crypto_pwhash/argon2/argon2-fill-block-ssse3.c:51:38 @[ crypto_pwhash/argon2/argon2-fill-block-ssse3.c:234:13 ] ]
	paddq	%xmm3, %xmm3
.Ltmp122:
	.loc	9 32 12                         # crypto_pwhash/argon2/blamka-round-ssse3.h:32:12 @[ crypto_pwhash/argon2/argon2-fill-block-ssse3.c:51:38 @[ crypto_pwhash/argon2/argon2-fill-block-ssse3.c:234:13 ] ]
	paddq	%xmm1, %xmm3
.Ltmp123:
	#DEBUG_VALUE: fBlaMka:x <- $xmm4
	.loc	9 31 23 is_stmt 1               # crypto_pwhash/argon2/blamka-round-ssse3.h:31:23 @[ crypto_pwhash/argon2/argon2-fill-block-ssse3.c:51:102 @[ crypto_pwhash/argon2/argon2-fill-block-ssse3.c:234:13 ] ]
	movdqa	%xmm2, %xmm6
	pmuludq	%xmm4, %xmm6
.Ltmp124:
	#DEBUG_VALUE: fBlaMka:z <- $xmm6
	.loc	9 32 26                         # crypto_pwhash/argon2/blamka-round-ssse3.h:32:26 @[ crypto_pwhash/argon2/argon2-fill-block-ssse3.c:51:102 @[ crypto_pwhash/argon2/argon2-fill-block-ssse3.c:234:13 ] ]
	paddq	%xmm2, %xmm4
.Ltmp125:
	.loc	9 32 47 is_stmt 0               # crypto_pwhash/argon2/blamka-round-ssse3.h:32:47 @[ crypto_pwhash/argon2/argon2-fill-block-ssse3.c:51:102 @[ crypto_pwhash/argon2/argon2-fill-block-ssse3.c:234:13 ] ]
	paddq	%xmm6, %xmm6
.Ltmp126:
	.loc	9 32 12                         # crypto_pwhash/argon2/blamka-round-ssse3.h:32:12 @[ crypto_pwhash/argon2/argon2-fill-block-ssse3.c:51:102 @[ crypto_pwhash/argon2/argon2-fill-block-ssse3.c:234:13 ] ]
	paddq	%xmm4, %xmm6
	movdqa	160(%rsp,%rcx), %xmm1
.Ltmp127:
	.loc	7 51 166 is_stmt 1              # crypto_pwhash/argon2/argon2-fill-block-ssse3.c:51:166 @[ crypto_pwhash/argon2/argon2-fill-block-ssse3.c:234:13 ]
	pxor	%xmm3, %xmm1
	movdqa	176(%rsp,%rcx), %xmm4
	.loc	7 51 236 is_stmt 0              # crypto_pwhash/argon2/argon2-fill-block-ssse3.c:51:236 @[ crypto_pwhash/argon2/argon2-fill-block-ssse3.c:234:13 ]
	pxor	%xmm6, %xmm4
	.loc	7 51 333                        # crypto_pwhash/argon2/argon2-fill-block-ssse3.c:51:333 @[ crypto_pwhash/argon2/argon2-fill-block-ssse3.c:234:13 ]
	pshufd	$177, %xmm1, %xmm8              # xmm8 = xmm1[1,0,3,2]
	.loc	7 51 992                        # crypto_pwhash/argon2/argon2-fill-block-ssse3.c:51:992 @[ crypto_pwhash/argon2/argon2-fill-block-ssse3.c:234:13 ]
	pshufd	$177, %xmm4, %xmm7              # xmm7 = xmm4[1,0,3,2]
	.loc	7 51 1632                       # crypto_pwhash/argon2/argon2-fill-block-ssse3.c:51:1632 @[ crypto_pwhash/argon2/argon2-fill-block-ssse3.c:234:13 ]
	movdqa	128(%rsp,%rcx), %xmm4
.Ltmp128:
	#DEBUG_VALUE: fBlaMka:x <- $xmm4
	#DEBUG_VALUE: fBlaMka:y <- $xmm8
	.loc	9 31 23 is_stmt 1               # crypto_pwhash/argon2/blamka-round-ssse3.h:31:23 @[ crypto_pwhash/argon2/argon2-fill-block-ssse3.c:51:1624 @[ crypto_pwhash/argon2/argon2-fill-block-ssse3.c:234:13 ] ]
	movdqa	%xmm8, %xmm1
	pmuludq	%xmm4, %xmm1
.Ltmp129:
	#DEBUG_VALUE: fBlaMka:z <- $xmm1
	.loc	9 32 26                         # crypto_pwhash/argon2/blamka-round-ssse3.h:32:26 @[ crypto_pwhash/argon2/argon2-fill-block-ssse3.c:51:1624 @[ crypto_pwhash/argon2/argon2-fill-block-ssse3.c:234:13 ] ]
	paddq	%xmm8, %xmm4
.Ltmp130:
	.loc	9 32 47 is_stmt 0               # crypto_pwhash/argon2/blamka-round-ssse3.h:32:47 @[ crypto_pwhash/argon2/argon2-fill-block-ssse3.c:51:1624 @[ crypto_pwhash/argon2/argon2-fill-block-ssse3.c:234:13 ] ]
	paddq	%xmm1, %xmm1
.Ltmp131:
	.loc	9 32 12                         # crypto_pwhash/argon2/blamka-round-ssse3.h:32:12 @[ crypto_pwhash/argon2/argon2-fill-block-ssse3.c:51:1624 @[ crypto_pwhash/argon2/argon2-fill-block-ssse3.c:234:13 ] ]
	paddq	%xmm4, %xmm1
.Ltmp132:
	.loc	7 51 1696 is_stmt 1             # crypto_pwhash/argon2/argon2-fill-block-ssse3.c:51:1696 @[ crypto_pwhash/argon2/argon2-fill-block-ssse3.c:234:13 ]
	movdqa	144(%rsp,%rcx), %xmm4
.Ltmp133:
	#DEBUG_VALUE: fBlaMka:x <- $xmm4
	#DEBUG_VALUE: fBlaMka:y <- $xmm7
	.loc	9 31 23                         # crypto_pwhash/argon2/blamka-round-ssse3.h:31:23 @[ crypto_pwhash/argon2/argon2-fill-block-ssse3.c:51:1688 @[ crypto_pwhash/argon2/argon2-fill-block-ssse3.c:234:13 ] ]
	movdqa	%xmm7, %xmm9
	pmuludq	%xmm4, %xmm9
.Ltmp134:
	#DEBUG_VALUE: fBlaMka:z <- $xmm9
	.loc	9 32 26                         # crypto_pwhash/argon2/blamka-round-ssse3.h:32:26 @[ crypto_pwhash/argon2/argon2-fill-block-ssse3.c:51:1688 @[ crypto_pwhash/argon2/argon2-fill-block-ssse3.c:234:13 ] ]
	paddq	%xmm7, %xmm4
.Ltmp135:
	.loc	9 32 47 is_stmt 0               # crypto_pwhash/argon2/blamka-round-ssse3.h:32:47 @[ crypto_pwhash/argon2/argon2-fill-block-ssse3.c:51:1688 @[ crypto_pwhash/argon2/argon2-fill-block-ssse3.c:234:13 ] ]
	paddq	%xmm9, %xmm9
.Ltmp136:
	.loc	9 32 12                         # crypto_pwhash/argon2/blamka-round-ssse3.h:32:12 @[ crypto_pwhash/argon2/argon2-fill-block-ssse3.c:51:1688 @[ crypto_pwhash/argon2/argon2-fill-block-ssse3.c:234:13 ] ]
	paddq	%xmm4, %xmm9
.Ltmp137:
	.loc	7 51 1752 is_stmt 1             # crypto_pwhash/argon2/argon2-fill-block-ssse3.c:51:1752 @[ crypto_pwhash/argon2/argon2-fill-block-ssse3.c:234:13 ]
	pxor	%xmm1, %xmm0
.Ltmp138:
	.loc	7 51 1822 is_stmt 0             # crypto_pwhash/argon2/argon2-fill-block-ssse3.c:51:1822 @[ crypto_pwhash/argon2/argon2-fill-block-ssse3.c:234:13 ]
	pxor	%xmm9, %xmm2
.Ltmp139:
	.loc	7 51 2053                       # crypto_pwhash/argon2/argon2-fill-block-ssse3.c:51:2053 @[ crypto_pwhash/argon2/argon2-fill-block-ssse3.c:234:13 ]
	pshufb	%xmm12, %xmm0
	.loc	7 51 2712                       # crypto_pwhash/argon2/argon2-fill-block-ssse3.c:51:2712 @[ crypto_pwhash/argon2/argon2-fill-block-ssse3.c:234:13 ]
	pshufb	%xmm12, %xmm2
.Ltmp140:
	#DEBUG_VALUE: fBlaMka:x <- $xmm3
	#DEBUG_VALUE: fBlaMka:y <- $xmm0
	.loc	9 31 23 is_stmt 1               # crypto_pwhash/argon2/blamka-round-ssse3.h:31:23 @[ crypto_pwhash/argon2/argon2-fill-block-ssse3.c:51:3238 @[ crypto_pwhash/argon2/argon2-fill-block-ssse3.c:234:13 ] ]
	movdqa	%xmm0, %xmm4
	pmuludq	%xmm3, %xmm4
.Ltmp141:
	#DEBUG_VALUE: fBlaMka:z <- $xmm4
	.loc	9 32 26                         # crypto_pwhash/argon2/blamka-round-ssse3.h:32:26 @[ crypto_pwhash/argon2/argon2-fill-block-ssse3.c:51:3238 @[ crypto_pwhash/argon2/argon2-fill-block-ssse3.c:234:13 ] ]
	paddq	%xmm0, %xmm3
.Ltmp142:
	.loc	9 32 47 is_stmt 0               # crypto_pwhash/argon2/blamka-round-ssse3.h:32:47 @[ crypto_pwhash/argon2/argon2-fill-block-ssse3.c:51:3238 @[ crypto_pwhash/argon2/argon2-fill-block-ssse3.c:234:13 ] ]
	paddq	%xmm4, %xmm4
.Ltmp143:
	.loc	9 32 12                         # crypto_pwhash/argon2/blamka-round-ssse3.h:32:12 @[ crypto_pwhash/argon2/argon2-fill-block-ssse3.c:51:3238 @[ crypto_pwhash/argon2/argon2-fill-block-ssse3.c:234:13 ] ]
	paddq	%xmm3, %xmm4
.Ltmp144:
	#DEBUG_VALUE: fBlaMka:x <- $xmm6
	#DEBUG_VALUE: fBlaMka:y <- $xmm2
	.loc	9 31 23 is_stmt 1               # crypto_pwhash/argon2/blamka-round-ssse3.h:31:23 @[ crypto_pwhash/argon2/argon2-fill-block-ssse3.c:51:3302 @[ crypto_pwhash/argon2/argon2-fill-block-ssse3.c:234:13 ] ]
	movdqa	%xmm2, %xmm5
	pmuludq	%xmm6, %xmm5
.Ltmp145:
	#DEBUG_VALUE: fBlaMka:z <- $xmm5
	.loc	9 32 26                         # crypto_pwhash/argon2/blamka-round-ssse3.h:32:26 @[ crypto_pwhash/argon2/argon2-fill-block-ssse3.c:51:3302 @[ crypto_pwhash/argon2/argon2-fill-block-ssse3.c:234:13 ] ]
	paddq	%xmm2, %xmm6
.Ltmp146:
	.loc	9 32 47 is_stmt 0               # crypto_pwhash/argon2/blamka-round-ssse3.h:32:47 @[ crypto_pwhash/argon2/argon2-fill-block-ssse3.c:51:3302 @[ crypto_pwhash/argon2/argon2-fill-block-ssse3.c:234:13 ] ]
	paddq	%xmm5, %xmm5
.Ltmp147:
	.loc	9 32 12                         # crypto_pwhash/argon2/blamka-round-ssse3.h:32:12 @[ crypto_pwhash/argon2/argon2-fill-block-ssse3.c:51:3302 @[ crypto_pwhash/argon2/argon2-fill-block-ssse3.c:234:13 ] ]
	paddq	%xmm6, %xmm5
.Ltmp148:
	.loc	7 51 3794 is_stmt 1             # crypto_pwhash/argon2/argon2-fill-block-ssse3.c:51:3794 @[ crypto_pwhash/argon2/argon2-fill-block-ssse3.c:234:13 ]
	pshuflw	$57, %xmm4, %xmm3               # xmm3 = xmm4[1,2,3,0,4,5,6,7]
	pshuflw	$57, %xmm8, %xmm6               # xmm6 = xmm8[1,2,3,0,4,5,6,7]
	pxor	%xmm3, %xmm6
	pshufhw	$57, %xmm6, %xmm10              # xmm10 = xmm6[0,1,2,3,5,6,7,4]
.Ltmp149:
	#DEBUG_VALUE: fBlaMka:y <- $xmm10
	.loc	7 51 4453 is_stmt 0             # crypto_pwhash/argon2/argon2-fill-block-ssse3.c:51:4453 @[ crypto_pwhash/argon2/argon2-fill-block-ssse3.c:234:13 ]
	pshuflw	$57, %xmm5, %xmm3               # xmm3 = xmm5[1,2,3,0,4,5,6,7]
	pshuflw	$57, %xmm7, %xmm7               # xmm7 = xmm7[1,2,3,0,4,5,6,7]
.Ltmp150:
	pxor	%xmm3, %xmm7
	pshufhw	$57, %xmm7, %xmm11              # xmm11 = xmm7[0,1,2,3,5,6,7,4]
.Ltmp151:
	#DEBUG_VALUE: fBlaMka:y <- $xmm11
	#DEBUG_VALUE: fBlaMka:x <- $xmm1
	.loc	9 31 23 is_stmt 1               # crypto_pwhash/argon2/blamka-round-ssse3.h:31:23 @[ crypto_pwhash/argon2/argon2-fill-block-ssse3.c:51:4824 @[ crypto_pwhash/argon2/argon2-fill-block-ssse3.c:234:13 ] ]
	movdqa	%xmm10, %xmm3
	pmuludq	%xmm1, %xmm3
.Ltmp152:
	#DEBUG_VALUE: fBlaMka:z <- $xmm3
	.loc	9 32 26                         # crypto_pwhash/argon2/blamka-round-ssse3.h:32:26 @[ crypto_pwhash/argon2/argon2-fill-block-ssse3.c:51:4824 @[ crypto_pwhash/argon2/argon2-fill-block-ssse3.c:234:13 ] ]
	paddq	%xmm10, %xmm1
.Ltmp153:
	.loc	9 32 47 is_stmt 0               # crypto_pwhash/argon2/blamka-round-ssse3.h:32:47 @[ crypto_pwhash/argon2/argon2-fill-block-ssse3.c:51:4824 @[ crypto_pwhash/argon2/argon2-fill-block-ssse3.c:234:13 ] ]
	paddq	%xmm3, %xmm3
.Ltmp154:
	.loc	9 32 12                         # crypto_pwhash/argon2/blamka-round-ssse3.h:32:12 @[ crypto_pwhash/argon2/argon2-fill-block-ssse3.c:51:4824 @[ crypto_pwhash/argon2/argon2-fill-block-ssse3.c:234:13 ] ]
	paddq	%xmm1, %xmm3
.Ltmp155:
	#DEBUG_VALUE: fBlaMka:x <- $xmm9
	.loc	9 31 23 is_stmt 1               # crypto_pwhash/argon2/blamka-round-ssse3.h:31:23 @[ crypto_pwhash/argon2/argon2-fill-block-ssse3.c:51:4888 @[ crypto_pwhash/argon2/argon2-fill-block-ssse3.c:234:13 ] ]
	movdqa	%xmm11, %xmm8
.Ltmp156:
	pmuludq	%xmm9, %xmm8
.Ltmp157:
	#DEBUG_VALUE: fBlaMka:z <- $xmm8
	.loc	9 32 26                         # crypto_pwhash/argon2/blamka-round-ssse3.h:32:26 @[ crypto_pwhash/argon2/argon2-fill-block-ssse3.c:51:4888 @[ crypto_pwhash/argon2/argon2-fill-block-ssse3.c:234:13 ] ]
	paddq	%xmm11, %xmm9
.Ltmp158:
	.loc	9 32 47 is_stmt 0               # crypto_pwhash/argon2/blamka-round-ssse3.h:32:47 @[ crypto_pwhash/argon2/argon2-fill-block-ssse3.c:51:4888 @[ crypto_pwhash/argon2/argon2-fill-block-ssse3.c:234:13 ] ]
	paddq	%xmm8, %xmm8
.Ltmp159:
	.loc	9 32 12                         # crypto_pwhash/argon2/blamka-round-ssse3.h:32:12 @[ crypto_pwhash/argon2/argon2-fill-block-ssse3.c:51:4888 @[ crypto_pwhash/argon2/argon2-fill-block-ssse3.c:234:13 ] ]
	paddq	%xmm9, %xmm8
.Ltmp160:
	.loc	7 51 4952 is_stmt 1             # crypto_pwhash/argon2/argon2-fill-block-ssse3.c:51:4952 @[ crypto_pwhash/argon2/argon2-fill-block-ssse3.c:234:13 ]
	pxor	%xmm3, %xmm0
.Ltmp161:
	.loc	7 51 5022 is_stmt 0             # crypto_pwhash/argon2/argon2-fill-block-ssse3.c:51:5022 @[ crypto_pwhash/argon2/argon2-fill-block-ssse3.c:234:13 ]
	pxor	%xmm8, %xmm2
.Ltmp162:
	.loc	7 51 5507                       # crypto_pwhash/argon2/argon2-fill-block-ssse3.c:51:5507 @[ crypto_pwhash/argon2/argon2-fill-block-ssse3.c:234:13 ]
	movdqa	%xmm0, %xmm1
	psrlq	$63, %xmm1
	paddq	%xmm0, %xmm0
	por	%xmm1, %xmm0
	.loc	7 51 6166                       # crypto_pwhash/argon2/argon2-fill-block-ssse3.c:51:6166 @[ crypto_pwhash/argon2/argon2-fill-block-ssse3.c:234:13 ]
	movdqa	%xmm2, %xmm1
	psrlq	$63, %xmm1
	paddq	%xmm2, %xmm2
	por	%xmm1, %xmm2
.Ltmp163:
	.loc	7 51 6442                       # crypto_pwhash/argon2/argon2-fill-block-ssse3.c:51:6442 @[ crypto_pwhash/argon2/argon2-fill-block-ssse3.c:234:13 ]
	movdqa	%xmm2, %xmm1
	palignr	$8, %xmm0, %xmm1                # xmm1 = xmm0[8,9,10,11,12,13,14,15],xmm1[0,1,2,3,4,5,6,7]
.Ltmp164:
	#DEBUG_VALUE: t0 <- $xmm1
	.loc	7 51 6574                       # crypto_pwhash/argon2/argon2-fill-block-ssse3.c:51:6574 @[ crypto_pwhash/argon2/argon2-fill-block-ssse3.c:234:13 ]
	palignr	$8, %xmm2, %xmm0                # xmm0 = xmm2[8,9,10,11,12,13,14,15],xmm0[0,1,2,3,4,5,6,7]
.Ltmp165:
	#DEBUG_VALUE: t1 <- $xmm0
	#DEBUG_VALUE: t0 <- $xmm3
	.loc	7 51 6827                       # crypto_pwhash/argon2/argon2-fill-block-ssse3.c:51:6827 @[ crypto_pwhash/argon2/argon2-fill-block-ssse3.c:234:13 ]
	palignr	$8, %xmm10, %xmm7               # xmm7 = xmm10[8,9,10,11,12,13,14,15],xmm7[0,1,2,3,4,5,6,7]
.Ltmp166:
	#DEBUG_VALUE: t0 <- $xmm7
	.loc	7 51 6951                       # crypto_pwhash/argon2/argon2-fill-block-ssse3.c:51:6951 @[ crypto_pwhash/argon2/argon2-fill-block-ssse3.c:234:13 ]
	palignr	$8, %xmm11, %xmm6               # xmm6 = xmm11[8,9,10,11,12,13,14,15],xmm6[0,1,2,3,4,5,6,7]
.Ltmp167:
	#DEBUG_VALUE: t1 <- $xmm6
	#DEBUG_VALUE: fBlaMka:x <- $xmm4
	#DEBUG_VALUE: fBlaMka:y <- $xmm1
	.loc	9 31 23 is_stmt 1               # crypto_pwhash/argon2/blamka-round-ssse3.h:31:23 @[ crypto_pwhash/argon2/argon2-fill-block-ssse3.c:51:7153 @[ crypto_pwhash/argon2/argon2-fill-block-ssse3.c:234:13 ] ]
	movdqa	%xmm1, %xmm10
.Ltmp168:
	pmuludq	%xmm4, %xmm10
.Ltmp169:
	#DEBUG_VALUE: fBlaMka:z <- $xmm10
	.loc	9 32 26                         # crypto_pwhash/argon2/blamka-round-ssse3.h:32:26 @[ crypto_pwhash/argon2/argon2-fill-block-ssse3.c:51:7153 @[ crypto_pwhash/argon2/argon2-fill-block-ssse3.c:234:13 ] ]
	paddq	%xmm1, %xmm4
.Ltmp170:
	.loc	9 32 47 is_stmt 0               # crypto_pwhash/argon2/blamka-round-ssse3.h:32:47 @[ crypto_pwhash/argon2/argon2-fill-block-ssse3.c:51:7153 @[ crypto_pwhash/argon2/argon2-fill-block-ssse3.c:234:13 ] ]
	paddq	%xmm10, %xmm10
.Ltmp171:
	.loc	9 32 12                         # crypto_pwhash/argon2/blamka-round-ssse3.h:32:12 @[ crypto_pwhash/argon2/argon2-fill-block-ssse3.c:51:7153 @[ crypto_pwhash/argon2/argon2-fill-block-ssse3.c:234:13 ] ]
	paddq	%xmm4, %xmm10
.Ltmp172:
	#DEBUG_VALUE: fBlaMka:x <- $xmm5
	#DEBUG_VALUE: fBlaMka:y <- $xmm0
	.loc	9 31 23 is_stmt 1               # crypto_pwhash/argon2/blamka-round-ssse3.h:31:23 @[ crypto_pwhash/argon2/argon2-fill-block-ssse3.c:51:7217 @[ crypto_pwhash/argon2/argon2-fill-block-ssse3.c:234:13 ] ]
	movdqa	%xmm0, %xmm9
	pmuludq	%xmm5, %xmm9
.Ltmp173:
	#DEBUG_VALUE: fBlaMka:z <- $xmm9
	.loc	9 32 26                         # crypto_pwhash/argon2/blamka-round-ssse3.h:32:26 @[ crypto_pwhash/argon2/argon2-fill-block-ssse3.c:51:7217 @[ crypto_pwhash/argon2/argon2-fill-block-ssse3.c:234:13 ] ]
	paddq	%xmm0, %xmm5
.Ltmp174:
	.loc	9 32 47 is_stmt 0               # crypto_pwhash/argon2/blamka-round-ssse3.h:32:47 @[ crypto_pwhash/argon2/argon2-fill-block-ssse3.c:51:7217 @[ crypto_pwhash/argon2/argon2-fill-block-ssse3.c:234:13 ] ]
	paddq	%xmm9, %xmm9
.Ltmp175:
	.loc	9 32 12                         # crypto_pwhash/argon2/blamka-round-ssse3.h:32:12 @[ crypto_pwhash/argon2/argon2-fill-block-ssse3.c:51:7217 @[ crypto_pwhash/argon2/argon2-fill-block-ssse3.c:234:13 ] ]
	paddq	%xmm5, %xmm9
.Ltmp176:
	.loc	7 51 7448 is_stmt 1             # crypto_pwhash/argon2/argon2-fill-block-ssse3.c:51:7448 @[ crypto_pwhash/argon2/argon2-fill-block-ssse3.c:234:13 ]
	pshufd	$177, %xmm10, %xmm2             # xmm2 = xmm10[1,0,3,2]
	pshufd	$177, %xmm6, %xmm6              # xmm6 = xmm6[1,0,3,2]
.Ltmp177:
	pxor	%xmm2, %xmm6
.Ltmp178:
	#DEBUG_VALUE: fBlaMka:y <- $xmm6
	.loc	7 51 8107 is_stmt 0             # crypto_pwhash/argon2/argon2-fill-block-ssse3.c:51:8107 @[ crypto_pwhash/argon2/argon2-fill-block-ssse3.c:234:13 ]
	pshufd	$177, %xmm9, %xmm2              # xmm2 = xmm9[1,0,3,2]
	pshufd	$177, %xmm7, %xmm5              # xmm5 = xmm7[1,0,3,2]
	pxor	%xmm2, %xmm5
.Ltmp179:
	#DEBUG_VALUE: fBlaMka:y <- $xmm5
	#DEBUG_VALUE: fBlaMka:x <- $xmm8
	.loc	9 31 23 is_stmt 1               # crypto_pwhash/argon2/blamka-round-ssse3.h:31:23 @[ crypto_pwhash/argon2/argon2-fill-block-ssse3.c:51:8739 @[ crypto_pwhash/argon2/argon2-fill-block-ssse3.c:234:13 ] ]
	movdqa	%xmm6, %xmm2
	pmuludq	%xmm8, %xmm2
.Ltmp180:
	#DEBUG_VALUE: fBlaMka:z <- $xmm2
	.loc	9 32 26                         # crypto_pwhash/argon2/blamka-round-ssse3.h:32:26 @[ crypto_pwhash/argon2/argon2-fill-block-ssse3.c:51:8739 @[ crypto_pwhash/argon2/argon2-fill-block-ssse3.c:234:13 ] ]
	paddq	%xmm6, %xmm8
.Ltmp181:
	.loc	9 32 47 is_stmt 0               # crypto_pwhash/argon2/blamka-round-ssse3.h:32:47 @[ crypto_pwhash/argon2/argon2-fill-block-ssse3.c:51:8739 @[ crypto_pwhash/argon2/argon2-fill-block-ssse3.c:234:13 ] ]
	paddq	%xmm2, %xmm2
.Ltmp182:
	.loc	9 32 12                         # crypto_pwhash/argon2/blamka-round-ssse3.h:32:12 @[ crypto_pwhash/argon2/argon2-fill-block-ssse3.c:51:8739 @[ crypto_pwhash/argon2/argon2-fill-block-ssse3.c:234:13 ] ]
	paddq	%xmm8, %xmm2
.Ltmp183:
	#DEBUG_VALUE: fBlaMka:x <- $xmm3
	.loc	9 31 23 is_stmt 1               # crypto_pwhash/argon2/blamka-round-ssse3.h:31:23 @[ crypto_pwhash/argon2/argon2-fill-block-ssse3.c:51:8803 @[ crypto_pwhash/argon2/argon2-fill-block-ssse3.c:234:13 ] ]
	movdqa	%xmm5, %xmm4
	pmuludq	%xmm3, %xmm4
.Ltmp184:
	#DEBUG_VALUE: fBlaMka:z <- $xmm4
	.loc	9 32 26                         # crypto_pwhash/argon2/blamka-round-ssse3.h:32:26 @[ crypto_pwhash/argon2/argon2-fill-block-ssse3.c:51:8803 @[ crypto_pwhash/argon2/argon2-fill-block-ssse3.c:234:13 ] ]
	paddq	%xmm5, %xmm3
.Ltmp185:
	.loc	9 32 47 is_stmt 0               # crypto_pwhash/argon2/blamka-round-ssse3.h:32:47 @[ crypto_pwhash/argon2/argon2-fill-block-ssse3.c:51:8803 @[ crypto_pwhash/argon2/argon2-fill-block-ssse3.c:234:13 ] ]
	paddq	%xmm4, %xmm4
.Ltmp186:
	.loc	9 32 12                         # crypto_pwhash/argon2/blamka-round-ssse3.h:32:12 @[ crypto_pwhash/argon2/argon2-fill-block-ssse3.c:51:8803 @[ crypto_pwhash/argon2/argon2-fill-block-ssse3.c:234:13 ] ]
	paddq	%xmm3, %xmm4
.Ltmp187:
	.loc	7 51 9168 is_stmt 1             # crypto_pwhash/argon2/argon2-fill-block-ssse3.c:51:9168 @[ crypto_pwhash/argon2/argon2-fill-block-ssse3.c:234:13 ]
	movdqa	%xmm2, %xmm3
	pshufb	%xmm12, %xmm3
	pshufb	%xmm12, %xmm1
.Ltmp188:
	pxor	%xmm3, %xmm1
.Ltmp189:
	#DEBUG_VALUE: fBlaMka:y <- $xmm1
	.loc	7 51 9827 is_stmt 0             # crypto_pwhash/argon2/argon2-fill-block-ssse3.c:51:9827 @[ crypto_pwhash/argon2/argon2-fill-block-ssse3.c:234:13 ]
	movdqa	%xmm4, %xmm3
	pshufb	%xmm12, %xmm3
	pshufb	%xmm12, %xmm0
.Ltmp190:
	pxor	%xmm3, %xmm0
.Ltmp191:
	#DEBUG_VALUE: fBlaMka:y <- $xmm0
	#DEBUG_VALUE: fBlaMka:x <- $xmm10
	.loc	9 31 23 is_stmt 1               # crypto_pwhash/argon2/blamka-round-ssse3.h:31:23 @[ crypto_pwhash/argon2/argon2-fill-block-ssse3.c:51:10353 @[ crypto_pwhash/argon2/argon2-fill-block-ssse3.c:234:13 ] ]
	movdqa	%xmm1, %xmm3
	pmuludq	%xmm10, %xmm3
.Ltmp192:
	#DEBUG_VALUE: fBlaMka:z <- $xmm3
	.loc	9 32 26                         # crypto_pwhash/argon2/blamka-round-ssse3.h:32:26 @[ crypto_pwhash/argon2/argon2-fill-block-ssse3.c:51:10353 @[ crypto_pwhash/argon2/argon2-fill-block-ssse3.c:234:13 ] ]
	paddq	%xmm1, %xmm10
.Ltmp193:
	.loc	9 32 47 is_stmt 0               # crypto_pwhash/argon2/blamka-round-ssse3.h:32:47 @[ crypto_pwhash/argon2/argon2-fill-block-ssse3.c:51:10353 @[ crypto_pwhash/argon2/argon2-fill-block-ssse3.c:234:13 ] ]
	paddq	%xmm3, %xmm3
.Ltmp194:
	.loc	9 32 12                         # crypto_pwhash/argon2/blamka-round-ssse3.h:32:12 @[ crypto_pwhash/argon2/argon2-fill-block-ssse3.c:51:10353 @[ crypto_pwhash/argon2/argon2-fill-block-ssse3.c:234:13 ] ]
	paddq	%xmm10, %xmm3
.Ltmp195:
	.loc	7 51 10351 is_stmt 1            # crypto_pwhash/argon2/argon2-fill-block-ssse3.c:51:10351 @[ crypto_pwhash/argon2/argon2-fill-block-ssse3.c:234:13 ]
	movdqa	%xmm3, 64(%rsp,%rcx)
.Ltmp196:
	#DEBUG_VALUE: fBlaMka:x <- $xmm9
	.loc	9 31 23                         # crypto_pwhash/argon2/blamka-round-ssse3.h:31:23 @[ crypto_pwhash/argon2/argon2-fill-block-ssse3.c:51:10417 @[ crypto_pwhash/argon2/argon2-fill-block-ssse3.c:234:13 ] ]
	movdqa	%xmm0, %xmm7
.Ltmp197:
	pmuludq	%xmm9, %xmm7
.Ltmp198:
	#DEBUG_VALUE: fBlaMka:z <- $xmm7
	.loc	9 32 26                         # crypto_pwhash/argon2/blamka-round-ssse3.h:32:26 @[ crypto_pwhash/argon2/argon2-fill-block-ssse3.c:51:10417 @[ crypto_pwhash/argon2/argon2-fill-block-ssse3.c:234:13 ] ]
	paddq	%xmm0, %xmm9
.Ltmp199:
	.loc	9 32 47 is_stmt 0               # crypto_pwhash/argon2/blamka-round-ssse3.h:32:47 @[ crypto_pwhash/argon2/argon2-fill-block-ssse3.c:51:10417 @[ crypto_pwhash/argon2/argon2-fill-block-ssse3.c:234:13 ] ]
	paddq	%xmm7, %xmm7
.Ltmp200:
	.loc	9 32 12                         # crypto_pwhash/argon2/blamka-round-ssse3.h:32:12 @[ crypto_pwhash/argon2/argon2-fill-block-ssse3.c:51:10417 @[ crypto_pwhash/argon2/argon2-fill-block-ssse3.c:234:13 ] ]
	paddq	%xmm9, %xmm7
.Ltmp201:
	.loc	7 51 10415 is_stmt 1            # crypto_pwhash/argon2/argon2-fill-block-ssse3.c:51:10415 @[ crypto_pwhash/argon2/argon2-fill-block-ssse3.c:234:13 ]
	movdqa	%xmm7, 80(%rsp,%rcx)
	.loc	7 51 10909 is_stmt 0            # crypto_pwhash/argon2/argon2-fill-block-ssse3.c:51:10909 @[ crypto_pwhash/argon2/argon2-fill-block-ssse3.c:234:13 ]
	pshuflw	$57, %xmm3, %xmm8               # xmm8 = xmm3[1,2,3,0,4,5,6,7]
	pshuflw	$57, %xmm6, %xmm3               # xmm3 = xmm6[1,2,3,0,4,5,6,7]
	pxor	%xmm8, %xmm3
	pshufhw	$57, %xmm3, %xmm6               # xmm6 = xmm3[0,1,2,3,5,6,7,4]
.Ltmp202:
	#DEBUG_VALUE: fBlaMka:y <- $xmm6
	.loc	7 51 11568                      # crypto_pwhash/argon2/argon2-fill-block-ssse3.c:51:11568 @[ crypto_pwhash/argon2/argon2-fill-block-ssse3.c:234:13 ]
	pshuflw	$57, %xmm7, %xmm7               # xmm7 = xmm7[1,2,3,0,4,5,6,7]
	pshuflw	$57, %xmm5, %xmm5               # xmm5 = xmm5[1,2,3,0,4,5,6,7]
.Ltmp203:
	pxor	%xmm7, %xmm5
	pshufhw	$57, %xmm5, %xmm7               # xmm7 = xmm5[0,1,2,3,5,6,7,4]
.Ltmp204:
	#DEBUG_VALUE: fBlaMka:y <- $xmm7
	#DEBUG_VALUE: fBlaMka:x <- $xmm2
	.loc	9 31 23 is_stmt 1               # crypto_pwhash/argon2/blamka-round-ssse3.h:31:23 @[ crypto_pwhash/argon2/argon2-fill-block-ssse3.c:51:11939 @[ crypto_pwhash/argon2/argon2-fill-block-ssse3.c:234:13 ] ]
	movdqa	%xmm6, %xmm8
	pmuludq	%xmm2, %xmm8
.Ltmp205:
	#DEBUG_VALUE: fBlaMka:z <- $xmm8
	.loc	9 32 26                         # crypto_pwhash/argon2/blamka-round-ssse3.h:32:26 @[ crypto_pwhash/argon2/argon2-fill-block-ssse3.c:51:11939 @[ crypto_pwhash/argon2/argon2-fill-block-ssse3.c:234:13 ] ]
	paddq	%xmm6, %xmm2
.Ltmp206:
	.loc	9 32 47 is_stmt 0               # crypto_pwhash/argon2/blamka-round-ssse3.h:32:47 @[ crypto_pwhash/argon2/argon2-fill-block-ssse3.c:51:11939 @[ crypto_pwhash/argon2/argon2-fill-block-ssse3.c:234:13 ] ]
	paddq	%xmm8, %xmm8
.Ltmp207:
	.loc	9 32 12                         # crypto_pwhash/argon2/blamka-round-ssse3.h:32:12 @[ crypto_pwhash/argon2/argon2-fill-block-ssse3.c:51:11939 @[ crypto_pwhash/argon2/argon2-fill-block-ssse3.c:234:13 ] ]
	paddq	%xmm2, %xmm8
.Ltmp208:
	#DEBUG_VALUE: fBlaMka:x <- $xmm4
	.loc	9 31 23 is_stmt 1               # crypto_pwhash/argon2/blamka-round-ssse3.h:31:23 @[ crypto_pwhash/argon2/argon2-fill-block-ssse3.c:51:12003 @[ crypto_pwhash/argon2/argon2-fill-block-ssse3.c:234:13 ] ]
	movdqa	%xmm7, %xmm2
	pmuludq	%xmm4, %xmm2
.Ltmp209:
	#DEBUG_VALUE: fBlaMka:z <- $xmm2
	.loc	9 32 26                         # crypto_pwhash/argon2/blamka-round-ssse3.h:32:26 @[ crypto_pwhash/argon2/argon2-fill-block-ssse3.c:51:12003 @[ crypto_pwhash/argon2/argon2-fill-block-ssse3.c:234:13 ] ]
	paddq	%xmm7, %xmm4
.Ltmp210:
	.loc	9 32 47 is_stmt 0               # crypto_pwhash/argon2/blamka-round-ssse3.h:32:47 @[ crypto_pwhash/argon2/argon2-fill-block-ssse3.c:51:12003 @[ crypto_pwhash/argon2/argon2-fill-block-ssse3.c:234:13 ] ]
	paddq	%xmm2, %xmm2
.Ltmp211:
	.loc	9 32 12                         # crypto_pwhash/argon2/blamka-round-ssse3.h:32:12 @[ crypto_pwhash/argon2/argon2-fill-block-ssse3.c:51:12003 @[ crypto_pwhash/argon2/argon2-fill-block-ssse3.c:234:13 ] ]
	paddq	%xmm4, %xmm2
.Ltmp212:
	.loc	7 51 12067 is_stmt 1            # crypto_pwhash/argon2/argon2-fill-block-ssse3.c:51:12067 @[ crypto_pwhash/argon2/argon2-fill-block-ssse3.c:234:13 ]
	pxor	%xmm8, %xmm1
.Ltmp213:
	.loc	7 51 12137 is_stmt 0            # crypto_pwhash/argon2/argon2-fill-block-ssse3.c:51:12137 @[ crypto_pwhash/argon2/argon2-fill-block-ssse3.c:234:13 ]
	pxor	%xmm2, %xmm0
.Ltmp214:
	.loc	7 51 12622                      # crypto_pwhash/argon2/argon2-fill-block-ssse3.c:51:12622 @[ crypto_pwhash/argon2/argon2-fill-block-ssse3.c:234:13 ]
	movdqa	%xmm1, %xmm4
	psrlq	$63, %xmm4
	paddq	%xmm1, %xmm1
	por	%xmm4, %xmm1
	.loc	7 51 13281                      # crypto_pwhash/argon2/argon2-fill-block-ssse3.c:51:13281 @[ crypto_pwhash/argon2/argon2-fill-block-ssse3.c:234:13 ]
	movdqa	%xmm0, %xmm4
	psrlq	$63, %xmm4
	paddq	%xmm0, %xmm0
	por	%xmm4, %xmm0
.Ltmp215:
	.loc	7 51 13557                      # crypto_pwhash/argon2/argon2-fill-block-ssse3.c:51:13557 @[ crypto_pwhash/argon2/argon2-fill-block-ssse3.c:234:13 ]
	movdqa	%xmm1, %xmm4
	palignr	$8, %xmm0, %xmm4                # xmm4 = xmm0[8,9,10,11,12,13,14,15],xmm4[0,1,2,3,4,5,6,7]
.Ltmp216:
	#DEBUG_VALUE: t0 <- undef
	.loc	7 51 13689                      # crypto_pwhash/argon2/argon2-fill-block-ssse3.c:51:13689 @[ crypto_pwhash/argon2/argon2-fill-block-ssse3.c:234:13 ]
	palignr	$8, %xmm1, %xmm0                # xmm0 = xmm1[8,9,10,11,12,13,14,15],xmm0[0,1,2,3,4,5,6,7]
.Ltmp217:
	#DEBUG_VALUE: t1 <- undef
	.loc	7 51 13815                      # crypto_pwhash/argon2/argon2-fill-block-ssse3.c:51:13815 @[ crypto_pwhash/argon2/argon2-fill-block-ssse3.c:234:13 ]
	movdqa	%xmm4, 96(%rsp,%rcx)
	.loc	7 51 13838                      # crypto_pwhash/argon2/argon2-fill-block-ssse3.c:51:13838 @[ crypto_pwhash/argon2/argon2-fill-block-ssse3.c:234:13 ]
	movdqa	%xmm0, 112(%rsp,%rcx)
.Ltmp218:
	#DEBUG_VALUE: t0 <- $xmm8
	.loc	7 51 13884                      # crypto_pwhash/argon2/argon2-fill-block-ssse3.c:51:13884 @[ crypto_pwhash/argon2/argon2-fill-block-ssse3.c:234:13 ]
	movdqa	%xmm2, 128(%rsp,%rcx)
	.loc	7 51 13921                      # crypto_pwhash/argon2/argon2-fill-block-ssse3.c:51:13921 @[ crypto_pwhash/argon2/argon2-fill-block-ssse3.c:234:13 ]
	movdqa	%xmm8, 144(%rsp,%rcx)
	.loc	7 51 13942                      # crypto_pwhash/argon2/argon2-fill-block-ssse3.c:51:13942 @[ crypto_pwhash/argon2/argon2-fill-block-ssse3.c:234:13 ]
	palignr	$8, %xmm7, %xmm3                # xmm3 = xmm7[8,9,10,11,12,13,14,15],xmm3[0,1,2,3,4,5,6,7]
.Ltmp219:
	#DEBUG_VALUE: t0 <- $xmm3
	.loc	7 51 14066                      # crypto_pwhash/argon2/argon2-fill-block-ssse3.c:51:14066 @[ crypto_pwhash/argon2/argon2-fill-block-ssse3.c:234:13 ]
	palignr	$8, %xmm6, %xmm5                # xmm5 = xmm6[8,9,10,11,12,13,14,15],xmm5[0,1,2,3,4,5,6,7]
.Ltmp220:
	#DEBUG_VALUE: t1 <- $xmm5
	.loc	7 51 14192                      # crypto_pwhash/argon2/argon2-fill-block-ssse3.c:51:14192 @[ crypto_pwhash/argon2/argon2-fill-block-ssse3.c:234:13 ]
	movdqa	%xmm5, 160(%rsp,%rcx)
	.loc	7 51 14215                      # crypto_pwhash/argon2/argon2-fill-block-ssse3.c:51:14215 @[ crypto_pwhash/argon2/argon2-fill-block-ssse3.c:234:13 ]
	movdqa	%xmm3, 176(%rsp,%rcx)
.Ltmp221:
	#DEBUG_VALUE: fill_block:i <- [DW_OP_consts 128, DW_OP_div, DW_OP_consts 1, DW_OP_plus, DW_OP_stack_value] $rcx
	.loc	7 50 19 is_stmt 1               # crypto_pwhash/argon2/argon2-fill-block-ssse3.c:50:19 @[ crypto_pwhash/argon2/argon2-fill-block-ssse3.c:234:13 ]
	subq	$-128, %rcx
.Ltmp222:
	cmpq	$1024, %rcx                     # imm = 0x400
.Ltmp223:
	.loc	7 50 5 is_stmt 0                # crypto_pwhash/argon2/argon2-fill-block-ssse3.c:50:5 @[ crypto_pwhash/argon2/argon2-fill-block-ssse3.c:234:13 ]
	jne	.LBB0_39
.Ltmp224:
# %bb.40:                               # %.preheader730.i.preheader
                                        #   in Loop: Header=BB0_16 Depth=1
	#DEBUG_VALUE: argon2_fill_segment_ssse3:position <- [DW_OP_plus_uconst 8, DW_OP_deref_size 8, DW_OP_constu 8, DW_OP_shr, DW_OP_LLVM_convert 64 7, DW_OP_LLVM_convert 24 7, DW_OP_stack_value, DW_OP_LLVM_fragment 72 24] $rsp
	#DEBUG_VALUE: argon2_fill_segment_ssse3:instance <- $r15
	#DEBUG_VALUE: argon2_fill_segment_ssse3:position <- [DW_OP_plus_uconst 32, DW_OP_deref, DW_OP_LLVM_fragment 32 32] $rsp
	#DEBUG_VALUE: argon2_fill_segment_ssse3:position <- [DW_OP_plus_uconst 24, DW_OP_deref, DW_OP_LLVM_fragment 0 32] $rsp
	#DEBUG_VALUE: argon2_fill_segment_ssse3:position <- [DW_OP_plus_uconst 8, DW_OP_deref, DW_OP_LLVM_fragment 64 8] $rsp
	#DEBUG_VALUE: argon2_fill_segment_ssse3:position <- [DW_OP_LLVM_fragment 96 32] $r13
	#DEBUG_VALUE: argon2_fill_segment_ssse3:ref_block <- $rsi
	#DEBUG_VALUE: argon2_fill_segment_ssse3:i <- $r13
	#DEBUG_VALUE: argon2_fill_segment_ssse3:curr_offset <- $r12d
	#DEBUG_VALUE: argon2_fill_segment_ssse3:prev_offset <- $ebx
	#DEBUG_VALUE: fill_block:block_XY <- [DW_OP_plus_uconst 1088, DW_OP_deref] $rsp
	#DEBUG_VALUE: fill_block:state <- [DW_OP_plus_uconst 64, DW_OP_stack_value] $rsp
	#DEBUG_VALUE: fill_block:ref_block <- $rsi
	#DEBUG_VALUE: fBlaMka:y <- $xmm11
	#DEBUG_VALUE: fBlaMka:y <- $xmm6
	#DEBUG_VALUE: fBlaMka:y <- $xmm7
	#DEBUG_VALUE: t0 <- $xmm3
	#DEBUG_VALUE: t1 <- $xmm5
	.loc	7 0 5                           # crypto_pwhash/argon2/argon2-fill-block-ssse3.c:0:5
	movq	$-128, %rcx
.Ltmp225:
	.p2align	4
.LBB0_41:                               # %.preheader730.i
                                        #   Parent Loop BB0_16 Depth=1
                                        # =>  This Inner Loop Header: Depth=2
	#DEBUG_VALUE: argon2_fill_segment_ssse3:position <- [DW_OP_plus_uconst 8, DW_OP_deref_size 8, DW_OP_constu 8, DW_OP_shr, DW_OP_LLVM_convert 64 7, DW_OP_LLVM_convert 24 7, DW_OP_stack_value, DW_OP_LLVM_fragment 72 24] $rsp
	#DEBUG_VALUE: argon2_fill_segment_ssse3:instance <- $r15
	#DEBUG_VALUE: argon2_fill_segment_ssse3:position <- [DW_OP_plus_uconst 32, DW_OP_deref, DW_OP_LLVM_fragment 32 32] $rsp
	#DEBUG_VALUE: argon2_fill_segment_ssse3:position <- [DW_OP_plus_uconst 24, DW_OP_deref, DW_OP_LLVM_fragment 0 32] $rsp
	#DEBUG_VALUE: argon2_fill_segment_ssse3:position <- [DW_OP_plus_uconst 8, DW_OP_deref, DW_OP_LLVM_fragment 64 8] $rsp
	#DEBUG_VALUE: argon2_fill_segment_ssse3:position <- [DW_OP_LLVM_fragment 96 32] $r13
	#DEBUG_VALUE: argon2_fill_segment_ssse3:ref_block <- $rsi
	#DEBUG_VALUE: argon2_fill_segment_ssse3:i <- $r13
	#DEBUG_VALUE: argon2_fill_segment_ssse3:curr_offset <- $r12d
	#DEBUG_VALUE: argon2_fill_segment_ssse3:prev_offset <- $ebx
	#DEBUG_VALUE: fill_block:block_XY <- [DW_OP_plus_uconst 1088, DW_OP_deref] $rsp
	#DEBUG_VALUE: fill_block:state <- [DW_OP_plus_uconst 64, DW_OP_stack_value] $rsp
	#DEBUG_VALUE: fill_block:ref_block <- $rsi
	#DEBUG_VALUE: fill_block:i <- [DW_OP_consts 18446744073709551488, DW_OP_minus, DW_OP_consts 16, DW_OP_div, DW_OP_stack_value] $rcx
	.loc	7 57 46 is_stmt 1               # crypto_pwhash/argon2/argon2-fill-block-ssse3.c:57:46 @[ crypto_pwhash/argon2/argon2-fill-block-ssse3.c:234:13 ]
	movdqa	192(%rsp,%rcx), %xmm1
	.loc	7 57 110 is_stmt 0              # crypto_pwhash/argon2/argon2-fill-block-ssse3.c:57:110 @[ crypto_pwhash/argon2/argon2-fill-block-ssse3.c:234:13 ]
	movdqa	320(%rsp,%rcx), %xmm4
	.loc	7 57 64                         # crypto_pwhash/argon2/argon2-fill-block-ssse3.c:57:64 @[ crypto_pwhash/argon2/argon2-fill-block-ssse3.c:234:13 ]
	movdqa	448(%rsp,%rcx), %xmm0
.Ltmp226:
	#DEBUG_VALUE: fBlaMka:y <- $xmm0
	.loc	7 57 128                        # crypto_pwhash/argon2/argon2-fill-block-ssse3.c:57:128 @[ crypto_pwhash/argon2/argon2-fill-block-ssse3.c:234:13 ]
	movdqa	576(%rsp,%rcx), %xmm2
.Ltmp227:
	#DEBUG_VALUE: fBlaMka:y <- $xmm2
	#DEBUG_VALUE: fBlaMka:x <- $xmm1
	.loc	9 31 23 is_stmt 1               # crypto_pwhash/argon2/blamka-round-ssse3.h:31:23 @[ crypto_pwhash/argon2/argon2-fill-block-ssse3.c:57:38 @[ crypto_pwhash/argon2/argon2-fill-block-ssse3.c:234:13 ] ]
	movdqa	%xmm0, %xmm3
	pmuludq	%xmm1, %xmm3
.Ltmp228:
	#DEBUG_VALUE: fBlaMka:z <- $xmm3
	.loc	9 32 26                         # crypto_pwhash/argon2/blamka-round-ssse3.h:32:26 @[ crypto_pwhash/argon2/argon2-fill-block-ssse3.c:57:38 @[ crypto_pwhash/argon2/argon2-fill-block-ssse3.c:234:13 ] ]
	paddq	%xmm0, %xmm1
.Ltmp229:
	.loc	9 32 47 is_stmt 0               # crypto_pwhash/argon2/blamka-round-ssse3.h:32:47 @[ crypto_pwhash/argon2/argon2-fill-block-ssse3.c:57:38 @[ crypto_pwhash/argon2/argon2-fill-block-ssse3.c:234:13 ] ]
	paddq	%xmm3, %xmm3
.Ltmp230:
	.loc	9 32 12                         # crypto_pwhash/argon2/blamka-round-ssse3.h:32:12 @[ crypto_pwhash/argon2/argon2-fill-block-ssse3.c:57:38 @[ crypto_pwhash/argon2/argon2-fill-block-ssse3.c:234:13 ] ]
	paddq	%xmm1, %xmm3
.Ltmp231:
	#DEBUG_VALUE: fBlaMka:x <- $xmm4
	.loc	9 31 23 is_stmt 1               # crypto_pwhash/argon2/blamka-round-ssse3.h:31:23 @[ crypto_pwhash/argon2/argon2-fill-block-ssse3.c:57:102 @[ crypto_pwhash/argon2/argon2-fill-block-ssse3.c:234:13 ] ]
	movdqa	%xmm2, %xmm6
	pmuludq	%xmm4, %xmm6
.Ltmp232:
	#DEBUG_VALUE: fBlaMka:z <- $xmm6
	.loc	9 32 26                         # crypto_pwhash/argon2/blamka-round-ssse3.h:32:26 @[ crypto_pwhash/argon2/argon2-fill-block-ssse3.c:57:102 @[ crypto_pwhash/argon2/argon2-fill-block-ssse3.c:234:13 ] ]
	paddq	%xmm2, %xmm4
.Ltmp233:
	.loc	9 32 47 is_stmt 0               # crypto_pwhash/argon2/blamka-round-ssse3.h:32:47 @[ crypto_pwhash/argon2/argon2-fill-block-ssse3.c:57:102 @[ crypto_pwhash/argon2/argon2-fill-block-ssse3.c:234:13 ] ]
	paddq	%xmm6, %xmm6
.Ltmp234:
	.loc	9 32 12                         # crypto_pwhash/argon2/blamka-round-ssse3.h:32:12 @[ crypto_pwhash/argon2/argon2-fill-block-ssse3.c:57:102 @[ crypto_pwhash/argon2/argon2-fill-block-ssse3.c:234:13 ] ]
	paddq	%xmm4, %xmm6
	movdqa	960(%rsp,%rcx), %xmm1
.Ltmp235:
	.loc	7 57 166 is_stmt 1              # crypto_pwhash/argon2/argon2-fill-block-ssse3.c:57:166 @[ crypto_pwhash/argon2/argon2-fill-block-ssse3.c:234:13 ]
	pxor	%xmm3, %xmm1
	movdqa	1088(%rsp,%rcx), %xmm4
	.loc	7 57 236 is_stmt 0              # crypto_pwhash/argon2/argon2-fill-block-ssse3.c:57:236 @[ crypto_pwhash/argon2/argon2-fill-block-ssse3.c:234:13 ]
	pxor	%xmm6, %xmm4
	.loc	7 57 333                        # crypto_pwhash/argon2/argon2-fill-block-ssse3.c:57:333 @[ crypto_pwhash/argon2/argon2-fill-block-ssse3.c:234:13 ]
	pshufd	$177, %xmm1, %xmm8              # xmm8 = xmm1[1,0,3,2]
	.loc	7 57 992                        # crypto_pwhash/argon2/argon2-fill-block-ssse3.c:57:992 @[ crypto_pwhash/argon2/argon2-fill-block-ssse3.c:234:13 ]
	pshufd	$177, %xmm4, %xmm7              # xmm7 = xmm4[1,0,3,2]
	.loc	7 57 1632                       # crypto_pwhash/argon2/argon2-fill-block-ssse3.c:57:1632 @[ crypto_pwhash/argon2/argon2-fill-block-ssse3.c:234:13 ]
	movdqa	704(%rsp,%rcx), %xmm4
.Ltmp236:
	#DEBUG_VALUE: fBlaMka:x <- $xmm4
	#DEBUG_VALUE: fBlaMka:y <- $xmm8
	.loc	9 31 23 is_stmt 1               # crypto_pwhash/argon2/blamka-round-ssse3.h:31:23 @[ crypto_pwhash/argon2/argon2-fill-block-ssse3.c:57:1624 @[ crypto_pwhash/argon2/argon2-fill-block-ssse3.c:234:13 ] ]
	movdqa	%xmm8, %xmm1
	pmuludq	%xmm4, %xmm1
.Ltmp237:
	#DEBUG_VALUE: fBlaMka:z <- $xmm1
	.loc	9 32 26                         # crypto_pwhash/argon2/blamka-round-ssse3.h:32:26 @[ crypto_pwhash/argon2/argon2-fill-block-ssse3.c:57:1624 @[ crypto_pwhash/argon2/argon2-fill-block-ssse3.c:234:13 ] ]
	paddq	%xmm8, %xmm4
.Ltmp238:
	.loc	9 32 47 is_stmt 0               # crypto_pwhash/argon2/blamka-round-ssse3.h:32:47 @[ crypto_pwhash/argon2/argon2-fill-block-ssse3.c:57:1624 @[ crypto_pwhash/argon2/argon2-fill-block-ssse3.c:234:13 ] ]
	paddq	%xmm1, %xmm1
.Ltmp239:
	.loc	9 32 12                         # crypto_pwhash/argon2/blamka-round-ssse3.h:32:12 @[ crypto_pwhash/argon2/argon2-fill-block-ssse3.c:57:1624 @[ crypto_pwhash/argon2/argon2-fill-block-ssse3.c:234:13 ] ]
	paddq	%xmm4, %xmm1
.Ltmp240:
	.loc	7 57 1696 is_stmt 1             # crypto_pwhash/argon2/argon2-fill-block-ssse3.c:57:1696 @[ crypto_pwhash/argon2/argon2-fill-block-ssse3.c:234:13 ]
	movdqa	832(%rsp,%rcx), %xmm4
.Ltmp241:
	#DEBUG_VALUE: fBlaMka:x <- $xmm4
	#DEBUG_VALUE: fBlaMka:y <- $xmm7
	.loc	9 31 23                         # crypto_pwhash/argon2/blamka-round-ssse3.h:31:23 @[ crypto_pwhash/argon2/argon2-fill-block-ssse3.c:57:1688 @[ crypto_pwhash/argon2/argon2-fill-block-ssse3.c:234:13 ] ]
	movdqa	%xmm7, %xmm9
	pmuludq	%xmm4, %xmm9
.Ltmp242:
	#DEBUG_VALUE: fBlaMka:z <- $xmm9
	.loc	9 32 26                         # crypto_pwhash/argon2/blamka-round-ssse3.h:32:26 @[ crypto_pwhash/argon2/argon2-fill-block-ssse3.c:57:1688 @[ crypto_pwhash/argon2/argon2-fill-block-ssse3.c:234:13 ] ]
	paddq	%xmm7, %xmm4
.Ltmp243:
	.loc	9 32 47 is_stmt 0               # crypto_pwhash/argon2/blamka-round-ssse3.h:32:47 @[ crypto_pwhash/argon2/argon2-fill-block-ssse3.c:57:1688 @[ crypto_pwhash/argon2/argon2-fill-block-ssse3.c:234:13 ] ]
	paddq	%xmm9, %xmm9
.Ltmp244:
	.loc	9 32 12                         # crypto_pwhash/argon2/blamka-round-ssse3.h:32:12 @[ crypto_pwhash/argon2/argon2-fill-block-ssse3.c:57:1688 @[ crypto_pwhash/argon2/argon2-fill-block-ssse3.c:234:13 ] ]
	paddq	%xmm4, %xmm9
.Ltmp245:
	.loc	7 57 1752 is_stmt 1             # crypto_pwhash/argon2/argon2-fill-block-ssse3.c:57:1752 @[ crypto_pwhash/argon2/argon2-fill-block-ssse3.c:234:13 ]
	pxor	%xmm1, %xmm0
.Ltmp246:
	.loc	7 57 1822 is_stmt 0             # crypto_pwhash/argon2/argon2-fill-block-ssse3.c:57:1822 @[ crypto_pwhash/argon2/argon2-fill-block-ssse3.c:234:13 ]
	pxor	%xmm9, %xmm2
.Ltmp247:
	.loc	7 57 2053                       # crypto_pwhash/argon2/argon2-fill-block-ssse3.c:57:2053 @[ crypto_pwhash/argon2/argon2-fill-block-ssse3.c:234:13 ]
	pshufb	%xmm12, %xmm0
	.loc	7 57 2712                       # crypto_pwhash/argon2/argon2-fill-block-ssse3.c:57:2712 @[ crypto_pwhash/argon2/argon2-fill-block-ssse3.c:234:13 ]
	pshufb	%xmm12, %xmm2
.Ltmp248:
	#DEBUG_VALUE: fBlaMka:x <- $xmm3
	#DEBUG_VALUE: fBlaMka:y <- $xmm0
	.loc	9 31 23 is_stmt 1               # crypto_pwhash/argon2/blamka-round-ssse3.h:31:23 @[ crypto_pwhash/argon2/argon2-fill-block-ssse3.c:57:3238 @[ crypto_pwhash/argon2/argon2-fill-block-ssse3.c:234:13 ] ]
	movdqa	%xmm0, %xmm4
	pmuludq	%xmm3, %xmm4
.Ltmp249:
	#DEBUG_VALUE: fBlaMka:z <- $xmm4
	.loc	9 32 26                         # crypto_pwhash/argon2/blamka-round-ssse3.h:32:26 @[ crypto_pwhash/argon2/argon2-fill-block-ssse3.c:57:3238 @[ crypto_pwhash/argon2/argon2-fill-block-ssse3.c:234:13 ] ]
	paddq	%xmm0, %xmm3
.Ltmp250:
	.loc	9 32 47 is_stmt 0               # crypto_pwhash/argon2/blamka-round-ssse3.h:32:47 @[ crypto_pwhash/argon2/argon2-fill-block-ssse3.c:57:3238 @[ crypto_pwhash/argon2/argon2-fill-block-ssse3.c:234:13 ] ]
	paddq	%xmm4, %xmm4
.Ltmp251:
	.loc	9 32 12                         # crypto_pwhash/argon2/blamka-round-ssse3.h:32:12 @[ crypto_pwhash/argon2/argon2-fill-block-ssse3.c:57:3238 @[ crypto_pwhash/argon2/argon2-fill-block-ssse3.c:234:13 ] ]
	paddq	%xmm3, %xmm4
.Ltmp252:
	#DEBUG_VALUE: fBlaMka:x <- $xmm6
	#DEBUG_VALUE: fBlaMka:y <- $xmm2
	.loc	9 31 23 is_stmt 1               # crypto_pwhash/argon2/blamka-round-ssse3.h:31:23 @[ crypto_pwhash/argon2/argon2-fill-block-ssse3.c:57:3302 @[ crypto_pwhash/argon2/argon2-fill-block-ssse3.c:234:13 ] ]
	movdqa	%xmm2, %xmm5
	pmuludq	%xmm6, %xmm5
.Ltmp253:
	#DEBUG_VALUE: fBlaMka:z <- $xmm5
	.loc	9 32 26                         # crypto_pwhash/argon2/blamka-round-ssse3.h:32:26 @[ crypto_pwhash/argon2/argon2-fill-block-ssse3.c:57:3302 @[ crypto_pwhash/argon2/argon2-fill-block-ssse3.c:234:13 ] ]
	paddq	%xmm2, %xmm6
.Ltmp254:
	.loc	9 32 47 is_stmt 0               # crypto_pwhash/argon2/blamka-round-ssse3.h:32:47 @[ crypto_pwhash/argon2/argon2-fill-block-ssse3.c:57:3302 @[ crypto_pwhash/argon2/argon2-fill-block-ssse3.c:234:13 ] ]
	paddq	%xmm5, %xmm5
.Ltmp255:
	.loc	9 32 12                         # crypto_pwhash/argon2/blamka-round-ssse3.h:32:12 @[ crypto_pwhash/argon2/argon2-fill-block-ssse3.c:57:3302 @[ crypto_pwhash/argon2/argon2-fill-block-ssse3.c:234:13 ] ]
	paddq	%xmm6, %xmm5
.Ltmp256:
	.loc	7 57 3794 is_stmt 1             # crypto_pwhash/argon2/argon2-fill-block-ssse3.c:57:3794 @[ crypto_pwhash/argon2/argon2-fill-block-ssse3.c:234:13 ]
	pshuflw	$57, %xmm4, %xmm3               # xmm3 = xmm4[1,2,3,0,4,5,6,7]
	pshuflw	$57, %xmm8, %xmm6               # xmm6 = xmm8[1,2,3,0,4,5,6,7]
	pxor	%xmm3, %xmm6
	pshufhw	$57, %xmm6, %xmm10              # xmm10 = xmm6[0,1,2,3,5,6,7,4]
.Ltmp257:
	#DEBUG_VALUE: fBlaMka:y <- $xmm10
	.loc	7 57 4453 is_stmt 0             # crypto_pwhash/argon2/argon2-fill-block-ssse3.c:57:4453 @[ crypto_pwhash/argon2/argon2-fill-block-ssse3.c:234:13 ]
	pshuflw	$57, %xmm5, %xmm3               # xmm3 = xmm5[1,2,3,0,4,5,6,7]
	pshuflw	$57, %xmm7, %xmm7               # xmm7 = xmm7[1,2,3,0,4,5,6,7]
.Ltmp258:
	pxor	%xmm3, %xmm7
	pshufhw	$57, %xmm7, %xmm11              # xmm11 = xmm7[0,1,2,3,5,6,7,4]
.Ltmp259:
	#DEBUG_VALUE: fBlaMka:y <- $xmm11
	#DEBUG_VALUE: fBlaMka:x <- $xmm1
	.loc	9 31 23 is_stmt 1               # crypto_pwhash/argon2/blamka-round-ssse3.h:31:23 @[ crypto_pwhash/argon2/argon2-fill-block-ssse3.c:57:4824 @[ crypto_pwhash/argon2/argon2-fill-block-ssse3.c:234:13 ] ]
	movdqa	%xmm10, %xmm3
	pmuludq	%xmm1, %xmm3
.Ltmp260:
	#DEBUG_VALUE: fBlaMka:z <- $xmm3
	.loc	9 32 26                         # crypto_pwhash/argon2/blamka-round-ssse3.h:32:26 @[ crypto_pwhash/argon2/argon2-fill-block-ssse3.c:57:4824 @[ crypto_pwhash/argon2/argon2-fill-block-ssse3.c:234:13 ] ]
	paddq	%xmm10, %xmm1
.Ltmp261:
	.loc	9 32 47 is_stmt 0               # crypto_pwhash/argon2/blamka-round-ssse3.h:32:47 @[ crypto_pwhash/argon2/argon2-fill-block-ssse3.c:57:4824 @[ crypto_pwhash/argon2/argon2-fill-block-ssse3.c:234:13 ] ]
	paddq	%xmm3, %xmm3
.Ltmp262:
	.loc	9 32 12                         # crypto_pwhash/argon2/blamka-round-ssse3.h:32:12 @[ crypto_pwhash/argon2/argon2-fill-block-ssse3.c:57:4824 @[ crypto_pwhash/argon2/argon2-fill-block-ssse3.c:234:13 ] ]
	paddq	%xmm1, %xmm3
.Ltmp263:
	#DEBUG_VALUE: fBlaMka:x <- $xmm9
	.loc	9 31 23 is_stmt 1               # crypto_pwhash/argon2/blamka-round-ssse3.h:31:23 @[ crypto_pwhash/argon2/argon2-fill-block-ssse3.c:57:4888 @[ crypto_pwhash/argon2/argon2-fill-block-ssse3.c:234:13 ] ]
	movdqa	%xmm11, %xmm8
.Ltmp264:
	pmuludq	%xmm9, %xmm8
.Ltmp265:
	#DEBUG_VALUE: fBlaMka:z <- $xmm8
	.loc	9 32 26                         # crypto_pwhash/argon2/blamka-round-ssse3.h:32:26 @[ crypto_pwhash/argon2/argon2-fill-block-ssse3.c:57:4888 @[ crypto_pwhash/argon2/argon2-fill-block-ssse3.c:234:13 ] ]
	paddq	%xmm11, %xmm9
.Ltmp266:
	.loc	9 32 47 is_stmt 0               # crypto_pwhash/argon2/blamka-round-ssse3.h:32:47 @[ crypto_pwhash/argon2/argon2-fill-block-ssse3.c:57:4888 @[ crypto_pwhash/argon2/argon2-fill-block-ssse3.c:234:13 ] ]
	paddq	%xmm8, %xmm8
.Ltmp267:
	.loc	9 32 12                         # crypto_pwhash/argon2/blamka-round-ssse3.h:32:12 @[ crypto_pwhash/argon2/argon2-fill-block-ssse3.c:57:4888 @[ crypto_pwhash/argon2/argon2-fill-block-ssse3.c:234:13 ] ]
	paddq	%xmm9, %xmm8
.Ltmp268:
	.loc	7 57 4952 is_stmt 1             # crypto_pwhash/argon2/argon2-fill-block-ssse3.c:57:4952 @[ crypto_pwhash/argon2/argon2-fill-block-ssse3.c:234:13 ]
	pxor	%xmm3, %xmm0
.Ltmp269:
	.loc	7 57 5022 is_stmt 0             # crypto_pwhash/argon2/argon2-fill-block-ssse3.c:57:5022 @[ crypto_pwhash/argon2/argon2-fill-block-ssse3.c:234:13 ]
	pxor	%xmm8, %xmm2
.Ltmp270:
	.loc	7 57 5507                       # crypto_pwhash/argon2/argon2-fill-block-ssse3.c:57:5507 @[ crypto_pwhash/argon2/argon2-fill-block-ssse3.c:234:13 ]
	movdqa	%xmm0, %xmm1
	psrlq	$63, %xmm1
	paddq	%xmm0, %xmm0
	por	%xmm1, %xmm0
	.loc	7 57 6166                       # crypto_pwhash/argon2/argon2-fill-block-ssse3.c:57:6166 @[ crypto_pwhash/argon2/argon2-fill-block-ssse3.c:234:13 ]
	movdqa	%xmm2, %xmm1
	psrlq	$63, %xmm1
	paddq	%xmm2, %xmm2
	por	%xmm1, %xmm2
.Ltmp271:
	.loc	7 57 6442                       # crypto_pwhash/argon2/argon2-fill-block-ssse3.c:57:6442 @[ crypto_pwhash/argon2/argon2-fill-block-ssse3.c:234:13 ]
	movdqa	%xmm2, %xmm1
	palignr	$8, %xmm0, %xmm1                # xmm1 = xmm0[8,9,10,11,12,13,14,15],xmm1[0,1,2,3,4,5,6,7]
.Ltmp272:
	#DEBUG_VALUE: t0 <- $xmm1
	.loc	7 57 6574                       # crypto_pwhash/argon2/argon2-fill-block-ssse3.c:57:6574 @[ crypto_pwhash/argon2/argon2-fill-block-ssse3.c:234:13 ]
	palignr	$8, %xmm2, %xmm0                # xmm0 = xmm2[8,9,10,11,12,13,14,15],xmm0[0,1,2,3,4,5,6,7]
.Ltmp273:
	#DEBUG_VALUE: t1 <- $xmm0
	#DEBUG_VALUE: t0 <- $xmm3
	.loc	7 57 6827                       # crypto_pwhash/argon2/argon2-fill-block-ssse3.c:57:6827 @[ crypto_pwhash/argon2/argon2-fill-block-ssse3.c:234:13 ]
	palignr	$8, %xmm10, %xmm7               # xmm7 = xmm10[8,9,10,11,12,13,14,15],xmm7[0,1,2,3,4,5,6,7]
.Ltmp274:
	#DEBUG_VALUE: t0 <- $xmm7
	.loc	7 57 6951                       # crypto_pwhash/argon2/argon2-fill-block-ssse3.c:57:6951 @[ crypto_pwhash/argon2/argon2-fill-block-ssse3.c:234:13 ]
	palignr	$8, %xmm11, %xmm6               # xmm6 = xmm11[8,9,10,11,12,13,14,15],xmm6[0,1,2,3,4,5,6,7]
.Ltmp275:
	#DEBUG_VALUE: t1 <- $xmm6
	#DEBUG_VALUE: fBlaMka:x <- $xmm4
	#DEBUG_VALUE: fBlaMka:y <- $xmm1
	.loc	9 31 23 is_stmt 1               # crypto_pwhash/argon2/blamka-round-ssse3.h:31:23 @[ crypto_pwhash/argon2/argon2-fill-block-ssse3.c:57:7153 @[ crypto_pwhash/argon2/argon2-fill-block-ssse3.c:234:13 ] ]
	movdqa	%xmm1, %xmm10
.Ltmp276:
	pmuludq	%xmm4, %xmm10
.Ltmp277:
	#DEBUG_VALUE: fBlaMka:z <- $xmm10
	.loc	9 32 26                         # crypto_pwhash/argon2/blamka-round-ssse3.h:32:26 @[ crypto_pwhash/argon2/argon2-fill-block-ssse3.c:57:7153 @[ crypto_pwhash/argon2/argon2-fill-block-ssse3.c:234:13 ] ]
	paddq	%xmm1, %xmm4
.Ltmp278:
	.loc	9 32 47 is_stmt 0               # crypto_pwhash/argon2/blamka-round-ssse3.h:32:47 @[ crypto_pwhash/argon2/argon2-fill-block-ssse3.c:57:7153 @[ crypto_pwhash/argon2/argon2-fill-block-ssse3.c:234:13 ] ]
	paddq	%xmm10, %xmm10
.Ltmp279:
	.loc	9 32 12                         # crypto_pwhash/argon2/blamka-round-ssse3.h:32:12 @[ crypto_pwhash/argon2/argon2-fill-block-ssse3.c:57:7153 @[ crypto_pwhash/argon2/argon2-fill-block-ssse3.c:234:13 ] ]
	paddq	%xmm4, %xmm10
.Ltmp280:
	#DEBUG_VALUE: fBlaMka:x <- $xmm5
	#DEBUG_VALUE: fBlaMka:y <- $xmm0
	.loc	9 31 23 is_stmt 1               # crypto_pwhash/argon2/blamka-round-ssse3.h:31:23 @[ crypto_pwhash/argon2/argon2-fill-block-ssse3.c:57:7217 @[ crypto_pwhash/argon2/argon2-fill-block-ssse3.c:234:13 ] ]
	movdqa	%xmm0, %xmm9
	pmuludq	%xmm5, %xmm9
.Ltmp281:
	#DEBUG_VALUE: fBlaMka:z <- $xmm9
	.loc	9 32 26                         # crypto_pwhash/argon2/blamka-round-ssse3.h:32:26 @[ crypto_pwhash/argon2/argon2-fill-block-ssse3.c:57:7217 @[ crypto_pwhash/argon2/argon2-fill-block-ssse3.c:234:13 ] ]
	paddq	%xmm0, %xmm5
.Ltmp282:
	.loc	9 32 47 is_stmt 0               # crypto_pwhash/argon2/blamka-round-ssse3.h:32:47 @[ crypto_pwhash/argon2/argon2-fill-block-ssse3.c:57:7217 @[ crypto_pwhash/argon2/argon2-fill-block-ssse3.c:234:13 ] ]
	paddq	%xmm9, %xmm9
.Ltmp283:
	.loc	9 32 12                         # crypto_pwhash/argon2/blamka-round-ssse3.h:32:12 @[ crypto_pwhash/argon2/argon2-fill-block-ssse3.c:57:7217 @[ crypto_pwhash/argon2/argon2-fill-block-ssse3.c:234:13 ] ]
	paddq	%xmm5, %xmm9
.Ltmp284:
	.loc	7 57 7448 is_stmt 1             # crypto_pwhash/argon2/argon2-fill-block-ssse3.c:57:7448 @[ crypto_pwhash/argon2/argon2-fill-block-ssse3.c:234:13 ]
	pshufd	$177, %xmm10, %xmm2             # xmm2 = xmm10[1,0,3,2]
	pshufd	$177, %xmm6, %xmm6              # xmm6 = xmm6[1,0,3,2]
.Ltmp285:
	pxor	%xmm2, %xmm6
.Ltmp286:
	#DEBUG_VALUE: fBlaMka:y <- $xmm6
	.loc	7 57 8107 is_stmt 0             # crypto_pwhash/argon2/argon2-fill-block-ssse3.c:57:8107 @[ crypto_pwhash/argon2/argon2-fill-block-ssse3.c:234:13 ]
	pshufd	$177, %xmm9, %xmm2              # xmm2 = xmm9[1,0,3,2]
	pshufd	$177, %xmm7, %xmm5              # xmm5 = xmm7[1,0,3,2]
	pxor	%xmm2, %xmm5
.Ltmp287:
	#DEBUG_VALUE: fBlaMka:y <- $xmm5
	#DEBUG_VALUE: fBlaMka:x <- $xmm8
	.loc	9 31 23 is_stmt 1               # crypto_pwhash/argon2/blamka-round-ssse3.h:31:23 @[ crypto_pwhash/argon2/argon2-fill-block-ssse3.c:57:8739 @[ crypto_pwhash/argon2/argon2-fill-block-ssse3.c:234:13 ] ]
	movdqa	%xmm6, %xmm2
	pmuludq	%xmm8, %xmm2
.Ltmp288:
	#DEBUG_VALUE: fBlaMka:z <- $xmm2
	.loc	9 32 26                         # crypto_pwhash/argon2/blamka-round-ssse3.h:32:26 @[ crypto_pwhash/argon2/argon2-fill-block-ssse3.c:57:8739 @[ crypto_pwhash/argon2/argon2-fill-block-ssse3.c:234:13 ] ]
	paddq	%xmm6, %xmm8
.Ltmp289:
	.loc	9 32 47 is_stmt 0               # crypto_pwhash/argon2/blamka-round-ssse3.h:32:47 @[ crypto_pwhash/argon2/argon2-fill-block-ssse3.c:57:8739 @[ crypto_pwhash/argon2/argon2-fill-block-ssse3.c:234:13 ] ]
	paddq	%xmm2, %xmm2
.Ltmp290:
	.loc	9 32 12                         # crypto_pwhash/argon2/blamka-round-ssse3.h:32:12 @[ crypto_pwhash/argon2/argon2-fill-block-ssse3.c:57:8739 @[ crypto_pwhash/argon2/argon2-fill-block-ssse3.c:234:13 ] ]
	paddq	%xmm8, %xmm2
.Ltmp291:
	#DEBUG_VALUE: fBlaMka:x <- $xmm3
	.loc	9 31 23 is_stmt 1               # crypto_pwhash/argon2/blamka-round-ssse3.h:31:23 @[ crypto_pwhash/argon2/argon2-fill-block-ssse3.c:57:8803 @[ crypto_pwhash/argon2/argon2-fill-block-ssse3.c:234:13 ] ]
	movdqa	%xmm5, %xmm4
	pmuludq	%xmm3, %xmm4
.Ltmp292:
	#DEBUG_VALUE: fBlaMka:z <- $xmm4
	.loc	9 32 26                         # crypto_pwhash/argon2/blamka-round-ssse3.h:32:26 @[ crypto_pwhash/argon2/argon2-fill-block-ssse3.c:57:8803 @[ crypto_pwhash/argon2/argon2-fill-block-ssse3.c:234:13 ] ]
	paddq	%xmm5, %xmm3
.Ltmp293:
	.loc	9 32 47 is_stmt 0               # crypto_pwhash/argon2/blamka-round-ssse3.h:32:47 @[ crypto_pwhash/argon2/argon2-fill-block-ssse3.c:57:8803 @[ crypto_pwhash/argon2/argon2-fill-block-ssse3.c:234:13 ] ]
	paddq	%xmm4, %xmm4
.Ltmp294:
	.loc	9 32 12                         # crypto_pwhash/argon2/blamka-round-ssse3.h:32:12 @[ crypto_pwhash/argon2/argon2-fill-block-ssse3.c:57:8803 @[ crypto_pwhash/argon2/argon2-fill-block-ssse3.c:234:13 ] ]
	paddq	%xmm3, %xmm4
.Ltmp295:
	.loc	7 57 9168 is_stmt 1             # crypto_pwhash/argon2/argon2-fill-block-ssse3.c:57:9168 @[ crypto_pwhash/argon2/argon2-fill-block-ssse3.c:234:13 ]
	movdqa	%xmm2, %xmm3
	pshufb	%xmm12, %xmm3
	pshufb	%xmm12, %xmm1
.Ltmp296:
	pxor	%xmm3, %xmm1
.Ltmp297:
	#DEBUG_VALUE: fBlaMka:y <- $xmm1
	.loc	7 57 9827 is_stmt 0             # crypto_pwhash/argon2/argon2-fill-block-ssse3.c:57:9827 @[ crypto_pwhash/argon2/argon2-fill-block-ssse3.c:234:13 ]
	movdqa	%xmm4, %xmm3
	pshufb	%xmm12, %xmm3
	pshufb	%xmm12, %xmm0
.Ltmp298:
	pxor	%xmm3, %xmm0
.Ltmp299:
	#DEBUG_VALUE: fBlaMka:y <- $xmm0
	#DEBUG_VALUE: fBlaMka:x <- $xmm10
	.loc	9 31 23 is_stmt 1               # crypto_pwhash/argon2/blamka-round-ssse3.h:31:23 @[ crypto_pwhash/argon2/argon2-fill-block-ssse3.c:57:10353 @[ crypto_pwhash/argon2/argon2-fill-block-ssse3.c:234:13 ] ]
	movdqa	%xmm1, %xmm3
	pmuludq	%xmm10, %xmm3
.Ltmp300:
	#DEBUG_VALUE: fBlaMka:z <- $xmm3
	.loc	9 32 26                         # crypto_pwhash/argon2/blamka-round-ssse3.h:32:26 @[ crypto_pwhash/argon2/argon2-fill-block-ssse3.c:57:10353 @[ crypto_pwhash/argon2/argon2-fill-block-ssse3.c:234:13 ] ]
	paddq	%xmm1, %xmm10
.Ltmp301:
	.loc	9 32 47 is_stmt 0               # crypto_pwhash/argon2/blamka-round-ssse3.h:32:47 @[ crypto_pwhash/argon2/argon2-fill-block-ssse3.c:57:10353 @[ crypto_pwhash/argon2/argon2-fill-block-ssse3.c:234:13 ] ]
	paddq	%xmm3, %xmm3
.Ltmp302:
	.loc	9 32 12                         # crypto_pwhash/argon2/blamka-round-ssse3.h:32:12 @[ crypto_pwhash/argon2/argon2-fill-block-ssse3.c:57:10353 @[ crypto_pwhash/argon2/argon2-fill-block-ssse3.c:234:13 ] ]
	paddq	%xmm10, %xmm3
.Ltmp303:
	.loc	7 57 10351 is_stmt 1            # crypto_pwhash/argon2/argon2-fill-block-ssse3.c:57:10351 @[ crypto_pwhash/argon2/argon2-fill-block-ssse3.c:234:13 ]
	movdqa	%xmm3, 192(%rsp,%rcx)
.Ltmp304:
	#DEBUG_VALUE: fBlaMka:x <- $xmm9
	.loc	9 31 23                         # crypto_pwhash/argon2/blamka-round-ssse3.h:31:23 @[ crypto_pwhash/argon2/argon2-fill-block-ssse3.c:57:10417 @[ crypto_pwhash/argon2/argon2-fill-block-ssse3.c:234:13 ] ]
	movdqa	%xmm0, %xmm7
.Ltmp305:
	pmuludq	%xmm9, %xmm7
.Ltmp306:
	#DEBUG_VALUE: fBlaMka:z <- $xmm7
	.loc	9 32 26                         # crypto_pwhash/argon2/blamka-round-ssse3.h:32:26 @[ crypto_pwhash/argon2/argon2-fill-block-ssse3.c:57:10417 @[ crypto_pwhash/argon2/argon2-fill-block-ssse3.c:234:13 ] ]
	paddq	%xmm0, %xmm9
.Ltmp307:
	.loc	9 32 47 is_stmt 0               # crypto_pwhash/argon2/blamka-round-ssse3.h:32:47 @[ crypto_pwhash/argon2/argon2-fill-block-ssse3.c:57:10417 @[ crypto_pwhash/argon2/argon2-fill-block-ssse3.c:234:13 ] ]
	paddq	%xmm7, %xmm7
.Ltmp308:
	.loc	9 32 12                         # crypto_pwhash/argon2/blamka-round-ssse3.h:32:12 @[ crypto_pwhash/argon2/argon2-fill-block-ssse3.c:57:10417 @[ crypto_pwhash/argon2/argon2-fill-block-ssse3.c:234:13 ] ]
	paddq	%xmm9, %xmm7
.Ltmp309:
	.loc	7 57 10415 is_stmt 1            # crypto_pwhash/argon2/argon2-fill-block-ssse3.c:57:10415 @[ crypto_pwhash/argon2/argon2-fill-block-ssse3.c:234:13 ]
	movdqa	%xmm7, 320(%rsp,%rcx)
	.loc	7 57 10909 is_stmt 0            # crypto_pwhash/argon2/argon2-fill-block-ssse3.c:57:10909 @[ crypto_pwhash/argon2/argon2-fill-block-ssse3.c:234:13 ]
	pshuflw	$57, %xmm3, %xmm8               # xmm8 = xmm3[1,2,3,0,4,5,6,7]
	pshuflw	$57, %xmm6, %xmm3               # xmm3 = xmm6[1,2,3,0,4,5,6,7]
	pxor	%xmm8, %xmm3
	pshufhw	$57, %xmm3, %xmm6               # xmm6 = xmm3[0,1,2,3,5,6,7,4]
.Ltmp310:
	#DEBUG_VALUE: fBlaMka:y <- $xmm6
	.loc	7 57 11568                      # crypto_pwhash/argon2/argon2-fill-block-ssse3.c:57:11568 @[ crypto_pwhash/argon2/argon2-fill-block-ssse3.c:234:13 ]
	pshuflw	$57, %xmm7, %xmm7               # xmm7 = xmm7[1,2,3,0,4,5,6,7]
	pshuflw	$57, %xmm5, %xmm5               # xmm5 = xmm5[1,2,3,0,4,5,6,7]
.Ltmp311:
	pxor	%xmm7, %xmm5
	pshufhw	$57, %xmm5, %xmm7               # xmm7 = xmm5[0,1,2,3,5,6,7,4]
.Ltmp312:
	#DEBUG_VALUE: fBlaMka:y <- $xmm7
	#DEBUG_VALUE: fBlaMka:x <- $xmm2
	.loc	9 31 23 is_stmt 1               # crypto_pwhash/argon2/blamka-round-ssse3.h:31:23 @[ crypto_pwhash/argon2/argon2-fill-block-ssse3.c:57:11939 @[ crypto_pwhash/argon2/argon2-fill-block-ssse3.c:234:13 ] ]
	movdqa	%xmm6, %xmm8
	pmuludq	%xmm2, %xmm8
.Ltmp313:
	#DEBUG_VALUE: fBlaMka:z <- $xmm8
	.loc	9 32 26                         # crypto_pwhash/argon2/blamka-round-ssse3.h:32:26 @[ crypto_pwhash/argon2/argon2-fill-block-ssse3.c:57:11939 @[ crypto_pwhash/argon2/argon2-fill-block-ssse3.c:234:13 ] ]
	paddq	%xmm6, %xmm2
.Ltmp314:
	.loc	9 32 47 is_stmt 0               # crypto_pwhash/argon2/blamka-round-ssse3.h:32:47 @[ crypto_pwhash/argon2/argon2-fill-block-ssse3.c:57:11939 @[ crypto_pwhash/argon2/argon2-fill-block-ssse3.c:234:13 ] ]
	paddq	%xmm8, %xmm8
.Ltmp315:
	.loc	9 32 12                         # crypto_pwhash/argon2/blamka-round-ssse3.h:32:12 @[ crypto_pwhash/argon2/argon2-fill-block-ssse3.c:57:11939 @[ crypto_pwhash/argon2/argon2-fill-block-ssse3.c:234:13 ] ]
	paddq	%xmm2, %xmm8
.Ltmp316:
	#DEBUG_VALUE: fBlaMka:x <- $xmm4
	.loc	9 31 23 is_stmt 1               # crypto_pwhash/argon2/blamka-round-ssse3.h:31:23 @[ crypto_pwhash/argon2/argon2-fill-block-ssse3.c:57:12003 @[ crypto_pwhash/argon2/argon2-fill-block-ssse3.c:234:13 ] ]
	movdqa	%xmm7, %xmm2
	pmuludq	%xmm4, %xmm2
.Ltmp317:
	#DEBUG_VALUE: fBlaMka:z <- $xmm2
	.loc	9 32 26                         # crypto_pwhash/argon2/blamka-round-ssse3.h:32:26 @[ crypto_pwhash/argon2/argon2-fill-block-ssse3.c:57:12003 @[ crypto_pwhash/argon2/argon2-fill-block-ssse3.c:234:13 ] ]
	paddq	%xmm7, %xmm4
.Ltmp318:
	.loc	9 32 47 is_stmt 0               # crypto_pwhash/argon2/blamka-round-ssse3.h:32:47 @[ crypto_pwhash/argon2/argon2-fill-block-ssse3.c:57:12003 @[ crypto_pwhash/argon2/argon2-fill-block-ssse3.c:234:13 ] ]
	paddq	%xmm2, %xmm2
.Ltmp319:
	.loc	9 32 12                         # crypto_pwhash/argon2/blamka-round-ssse3.h:32:12 @[ crypto_pwhash/argon2/argon2-fill-block-ssse3.c:57:12003 @[ crypto_pwhash/argon2/argon2-fill-block-ssse3.c:234:13 ] ]
	paddq	%xmm4, %xmm2
.Ltmp320:
	.loc	7 57 12067 is_stmt 1            # crypto_pwhash/argon2/argon2-fill-block-ssse3.c:57:12067 @[ crypto_pwhash/argon2/argon2-fill-block-ssse3.c:234:13 ]
	pxor	%xmm8, %xmm1
.Ltmp321:
	.loc	7 57 12137 is_stmt 0            # crypto_pwhash/argon2/argon2-fill-block-ssse3.c:57:12137 @[ crypto_pwhash/argon2/argon2-fill-block-ssse3.c:234:13 ]
	pxor	%xmm2, %xmm0
.Ltmp322:
	.loc	7 57 12622                      # crypto_pwhash/argon2/argon2-fill-block-ssse3.c:57:12622 @[ crypto_pwhash/argon2/argon2-fill-block-ssse3.c:234:13 ]
	movdqa	%xmm1, %xmm4
	psrlq	$63, %xmm4
	paddq	%xmm1, %xmm1
	por	%xmm4, %xmm1
	.loc	7 57 13281                      # crypto_pwhash/argon2/argon2-fill-block-ssse3.c:57:13281 @[ crypto_pwhash/argon2/argon2-fill-block-ssse3.c:234:13 ]
	movdqa	%xmm0, %xmm4
	psrlq	$63, %xmm4
	paddq	%xmm0, %xmm0
	por	%xmm4, %xmm0
.Ltmp323:
	.loc	7 57 13557                      # crypto_pwhash/argon2/argon2-fill-block-ssse3.c:57:13557 @[ crypto_pwhash/argon2/argon2-fill-block-ssse3.c:234:13 ]
	movdqa	%xmm1, %xmm4
	palignr	$8, %xmm0, %xmm4                # xmm4 = xmm0[8,9,10,11,12,13,14,15],xmm4[0,1,2,3,4,5,6,7]
.Ltmp324:
	#DEBUG_VALUE: t0 <- undef
	.loc	7 57 13689                      # crypto_pwhash/argon2/argon2-fill-block-ssse3.c:57:13689 @[ crypto_pwhash/argon2/argon2-fill-block-ssse3.c:234:13 ]
	palignr	$8, %xmm1, %xmm0                # xmm0 = xmm1[8,9,10,11,12,13,14,15],xmm0[0,1,2,3,4,5,6,7]
.Ltmp325:
	#DEBUG_VALUE: t1 <- undef
	.loc	7 57 13815                      # crypto_pwhash/argon2/argon2-fill-block-ssse3.c:57:13815 @[ crypto_pwhash/argon2/argon2-fill-block-ssse3.c:234:13 ]
	movdqa	%xmm4, 448(%rsp,%rcx)
	.loc	7 57 13838                      # crypto_pwhash/argon2/argon2-fill-block-ssse3.c:57:13838 @[ crypto_pwhash/argon2/argon2-fill-block-ssse3.c:234:13 ]
	movdqa	%xmm0, 576(%rsp,%rcx)
.Ltmp326:
	#DEBUG_VALUE: t0 <- $xmm8
	.loc	7 57 13884                      # crypto_pwhash/argon2/argon2-fill-block-ssse3.c:57:13884 @[ crypto_pwhash/argon2/argon2-fill-block-ssse3.c:234:13 ]
	movdqa	%xmm2, 704(%rsp,%rcx)
	.loc	7 57 13921                      # crypto_pwhash/argon2/argon2-fill-block-ssse3.c:57:13921 @[ crypto_pwhash/argon2/argon2-fill-block-ssse3.c:234:13 ]
	movdqa	%xmm8, 832(%rsp,%rcx)
	.loc	7 57 13942                      # crypto_pwhash/argon2/argon2-fill-block-ssse3.c:57:13942 @[ crypto_pwhash/argon2/argon2-fill-block-ssse3.c:234:13 ]
	palignr	$8, %xmm7, %xmm3                # xmm3 = xmm7[8,9,10,11,12,13,14,15],xmm3[0,1,2,3,4,5,6,7]
.Ltmp327:
	#DEBUG_VALUE: t0 <- $xmm3
	.loc	7 57 14066                      # crypto_pwhash/argon2/argon2-fill-block-ssse3.c:57:14066 @[ crypto_pwhash/argon2/argon2-fill-block-ssse3.c:234:13 ]
	palignr	$8, %xmm6, %xmm5                # xmm5 = xmm6[8,9,10,11,12,13,14,15],xmm5[0,1,2,3,4,5,6,7]
.Ltmp328:
	#DEBUG_VALUE: t1 <- $xmm5
	.loc	7 57 14192                      # crypto_pwhash/argon2/argon2-fill-block-ssse3.c:57:14192 @[ crypto_pwhash/argon2/argon2-fill-block-ssse3.c:234:13 ]
	movdqa	%xmm5, 960(%rsp,%rcx)
	.loc	7 57 14215                      # crypto_pwhash/argon2/argon2-fill-block-ssse3.c:57:14215 @[ crypto_pwhash/argon2/argon2-fill-block-ssse3.c:234:13 ]
	movdqa	%xmm3, 1088(%rsp,%rcx)
.Ltmp329:
	#DEBUG_VALUE: fill_block:i <- [DW_OP_consts 18446744073709551488, DW_OP_minus, DW_OP_consts 16, DW_OP_div, DW_OP_consts 1, DW_OP_plus, DW_OP_stack_value] $rcx
	.loc	7 56 19 is_stmt 1               # crypto_pwhash/argon2/argon2-fill-block-ssse3.c:56:19 @[ crypto_pwhash/argon2/argon2-fill-block-ssse3.c:234:13 ]
	addq	$16, %rcx
.Ltmp330:
	.loc	7 56 5 is_stmt 0                # crypto_pwhash/argon2/argon2-fill-block-ssse3.c:56:5 @[ crypto_pwhash/argon2/argon2-fill-block-ssse3.c:234:13 ]
	jne	.LBB0_41
.Ltmp331:
# %bb.42:                               # %.preheader.i.preheader
                                        #   in Loop: Header=BB0_16 Depth=1
	#DEBUG_VALUE: argon2_fill_segment_ssse3:position <- [DW_OP_plus_uconst 8, DW_OP_deref_size 8, DW_OP_constu 8, DW_OP_shr, DW_OP_LLVM_convert 64 7, DW_OP_LLVM_convert 24 7, DW_OP_stack_value, DW_OP_LLVM_fragment 72 24] $rsp
	#DEBUG_VALUE: argon2_fill_segment_ssse3:instance <- $r15
	#DEBUG_VALUE: argon2_fill_segment_ssse3:position <- [DW_OP_plus_uconst 32, DW_OP_deref, DW_OP_LLVM_fragment 32 32] $rsp
	#DEBUG_VALUE: argon2_fill_segment_ssse3:position <- [DW_OP_plus_uconst 24, DW_OP_deref, DW_OP_LLVM_fragment 0 32] $rsp
	#DEBUG_VALUE: argon2_fill_segment_ssse3:position <- [DW_OP_plus_uconst 8, DW_OP_deref, DW_OP_LLVM_fragment 64 8] $rsp
	#DEBUG_VALUE: argon2_fill_segment_ssse3:position <- [DW_OP_LLVM_fragment 96 32] $r13
	#DEBUG_VALUE: argon2_fill_segment_ssse3:ref_block <- $rsi
	#DEBUG_VALUE: argon2_fill_segment_ssse3:i <- $r13
	#DEBUG_VALUE: argon2_fill_segment_ssse3:curr_offset <- $r12d
	#DEBUG_VALUE: argon2_fill_segment_ssse3:prev_offset <- $ebx
	#DEBUG_VALUE: fill_block:block_XY <- [DW_OP_plus_uconst 1088, DW_OP_deref] $rsp
	#DEBUG_VALUE: fill_block:state <- [DW_OP_plus_uconst 64, DW_OP_stack_value] $rsp
	#DEBUG_VALUE: fill_block:ref_block <- $rsi
	.loc	7 62 5 is_stmt 1                # crypto_pwhash/argon2/argon2-fill-block-ssse3.c:62:5 @[ crypto_pwhash/argon2/argon2-fill-block-ssse3.c:234:13 ]
	addq	%rax, %rdx
	movl	$16, %eax
.Ltmp332:
	.loc	7 0 5 is_stmt 0                 # :0:5
.Ltmp333:
	.p2align	4
.LBB0_43:                               # %.preheader.i
                                        #   Parent Loop BB0_16 Depth=1
                                        # =>  This Inner Loop Header: Depth=2
	#DEBUG_VALUE: argon2_fill_segment_ssse3:position <- [DW_OP_plus_uconst 8, DW_OP_deref_size 8, DW_OP_constu 8, DW_OP_shr, DW_OP_LLVM_convert 64 7, DW_OP_LLVM_convert 24 7, DW_OP_stack_value, DW_OP_LLVM_fragment 72 24] $rsp
	#DEBUG_VALUE: argon2_fill_segment_ssse3:instance <- $r15
	#DEBUG_VALUE: argon2_fill_segment_ssse3:position <- [DW_OP_plus_uconst 32, DW_OP_deref, DW_OP_LLVM_fragment 32 32] $rsp
	#DEBUG_VALUE: argon2_fill_segment_ssse3:position <- [DW_OP_plus_uconst 24, DW_OP_deref, DW_OP_LLVM_fragment 0 32] $rsp
	#DEBUG_VALUE: argon2_fill_segment_ssse3:position <- [DW_OP_plus_uconst 8, DW_OP_deref, DW_OP_LLVM_fragment 64 8] $rsp
	#DEBUG_VALUE: argon2_fill_segment_ssse3:position <- [DW_OP_LLVM_fragment 96 32] $r13
	#DEBUG_VALUE: argon2_fill_segment_ssse3:ref_block <- $rsi
	#DEBUG_VALUE: argon2_fill_segment_ssse3:i <- $r13
	#DEBUG_VALUE: argon2_fill_segment_ssse3:curr_offset <- $r12d
	#DEBUG_VALUE: argon2_fill_segment_ssse3:prev_offset <- $ebx
	#DEBUG_VALUE: fill_block:block_XY <- [DW_OP_plus_uconst 1088, DW_OP_deref] $rsp
	#DEBUG_VALUE: fill_block:state <- [DW_OP_plus_uconst 64, DW_OP_stack_value] $rsp
	#DEBUG_VALUE: fill_block:ref_block <- $rsi
	#DEBUG_VALUE: fill_block:i <- [DW_OP_consts 16, DW_OP_minus, DW_OP_consts 32, DW_OP_div, DW_OP_consts 2, DW_OP_mul, DW_OP_stack_value] $rax
	.loc	7 63 44 is_stmt 1               # crypto_pwhash/argon2/argon2-fill-block-ssse3.c:63:44 @[ crypto_pwhash/argon2/argon2-fill-block-ssse3.c:234:13 ]
	movaps	1072(%rsp,%rax), %xmm0
	.loc	7 63 20 is_stmt 0               # crypto_pwhash/argon2/argon2-fill-block-ssse3.c:63:20 @[ crypto_pwhash/argon2/argon2-fill-block-ssse3.c:234:13 ]
	xorps	48(%rsp,%rax), %xmm0
	.loc	7 63 18                         # crypto_pwhash/argon2/argon2-fill-block-ssse3.c:63:18 @[ crypto_pwhash/argon2/argon2-fill-block-ssse3.c:234:13 ]
	movaps	%xmm0, 48(%rsp,%rax)
	.loc	7 64 9 is_stmt 1                # crypto_pwhash/argon2/argon2-fill-block-ssse3.c:64:9 @[ crypto_pwhash/argon2/argon2-fill-block-ssse3.c:234:13 ]
	movups	%xmm0, -16(%rdx,%rax)
.Ltmp334:
	#DEBUG_VALUE: fill_block:i <- [DW_OP_consts 16, DW_OP_minus, DW_OP_consts 32, DW_OP_div, DW_OP_consts 2, DW_OP_mul, DW_OP_consts 1, DW_OP_plus, DW_OP_stack_value] $rax
	.loc	7 63 44                         # crypto_pwhash/argon2/argon2-fill-block-ssse3.c:63:44 @[ crypto_pwhash/argon2/argon2-fill-block-ssse3.c:234:13 ]
	movdqa	1088(%rsp,%rax), %xmm0
	.loc	7 63 20 is_stmt 0               # crypto_pwhash/argon2/argon2-fill-block-ssse3.c:63:20 @[ crypto_pwhash/argon2/argon2-fill-block-ssse3.c:234:13 ]
	pxor	64(%rsp,%rax), %xmm0
	.loc	7 63 18                         # crypto_pwhash/argon2/argon2-fill-block-ssse3.c:63:18 @[ crypto_pwhash/argon2/argon2-fill-block-ssse3.c:234:13 ]
	movdqa	%xmm0, 64(%rsp,%rax)
	.loc	7 64 9 is_stmt 1                # crypto_pwhash/argon2/argon2-fill-block-ssse3.c:64:9 @[ crypto_pwhash/argon2/argon2-fill-block-ssse3.c:234:13 ]
	movdqu	%xmm0, (%rdx,%rax)
.Ltmp335:
	#DEBUG_VALUE: fill_block:i <- [DW_OP_consts 16, DW_OP_minus, DW_OP_consts 32, DW_OP_div, DW_OP_consts 2, DW_OP_mul, DW_OP_consts 2, DW_OP_plus, DW_OP_stack_value] $rax
	.loc	7 62 19                         # crypto_pwhash/argon2/argon2-fill-block-ssse3.c:62:19 @[ crypto_pwhash/argon2/argon2-fill-block-ssse3.c:234:13 ]
	addq	$32, %rax
.Ltmp336:
	cmpq	$1040, %rax                     # imm = 0x410
.Ltmp337:
	.loc	7 62 5 is_stmt 0                # crypto_pwhash/argon2/argon2-fill-block-ssse3.c:62:5 @[ crypto_pwhash/argon2/argon2-fill-block-ssse3.c:234:13 ]
	jne	.LBB0_43
	jmp	.LBB0_15
.Ltmp338:
.LBB0_44:                               # %.loopexit
	#DEBUG_VALUE: argon2_fill_segment_ssse3:position <- [DW_OP_plus_uconst 8, DW_OP_deref_size 8, DW_OP_constu 8, DW_OP_shr, DW_OP_LLVM_convert 64 7, DW_OP_LLVM_convert 24 7, DW_OP_stack_value, DW_OP_LLVM_fragment 72 24] $rsp
	#DEBUG_VALUE: argon2_fill_segment_ssse3:instance <- [DW_OP_LLVM_entry_value 1] $rdi
	#DEBUG_VALUE: argon2_fill_segment_ssse3:position <- [DW_OP_plus_uconst 8, DW_OP_deref, DW_OP_LLVM_fragment 64 8] $rsp
	.loc	7 238 1 epilogue_begin is_stmt 1 # crypto_pwhash/argon2/argon2-fill-block-ssse3.c:238:1
	addq	$5192, %rsp                     # imm = 0x1448
	.cfi_def_cfa_offset 56
	popq	%rbx
	.cfi_def_cfa_offset 48
	popq	%r12
	.cfi_def_cfa_offset 40
	popq	%r13
	.cfi_def_cfa_offset 32
	popq	%r14
	.cfi_def_cfa_offset 24
	popq	%r15
	.cfi_def_cfa_offset 16
	popq	%rbp
	.cfi_def_cfa_offset 8
	retq
.Ltmp339:
.Lfunc_end0:
	.size	argon2_fill_segment_ssse3, .Lfunc_end0-argon2_fill_segment_ssse3
	.cfi_endproc
	.file	10 "/home/leizhenyuu/opt/Anonymous_Repo" "llvm-project/build/lib/clang/21/include/__stddef_size_t.h"
                                        # -- End function
	.section	.rodata.cst16,"aM",@progbits,16
	.p2align	4, 0x0                          # -- Begin function fill_block_with_xor
.LCPI1_0:
	.byte	3                               # 0x3
	.byte	4                               # 0x4
	.byte	5                               # 0x5
	.byte	6                               # 0x6
	.byte	7                               # 0x7
	.byte	0                               # 0x0
	.byte	1                               # 0x1
	.byte	2                               # 0x2
	.byte	11                              # 0xb
	.byte	12                              # 0xc
	.byte	13                              # 0xd
	.byte	14                              # 0xe
	.byte	15                              # 0xf
	.byte	8                               # 0x8
	.byte	9                               # 0x9
	.byte	10                              # 0xa
	.text
	.p2align	4
	.type	fill_block_with_xor,@function
fill_block_with_xor:                    # @fill_block_with_xor
.Lfunc_begin1:
	.loc	7 71 0                          # crypto_pwhash/argon2/argon2-fill-block-ssse3.c:71:0
	.cfi_startproc
# %bb.0:
	#DEBUG_VALUE: fill_block_with_xor:state <- $rdi
	#DEBUG_VALUE: fill_block_with_xor:ref_block <- $rsi
	#DEBUG_VALUE: fill_block_with_xor:next_block <- $rdx
	subq	$904, %rsp                      # imm = 0x388
	.cfi_def_cfa_offset 912
	movl	$16, %eax
.Ltmp340:
	#DEBUG_VALUE: fill_block_with_xor:i <- 0
	.loc	7 0 0 is_stmt 0                 # :0:0
.Ltmp341:
	.p2align	4
.LBB1_1:                                # =>This Inner Loop Header: Depth=1
	#DEBUG_VALUE: fill_block_with_xor:state <- $rdi
	#DEBUG_VALUE: fill_block_with_xor:ref_block <- $rsi
	#DEBUG_VALUE: fill_block_with_xor:next_block <- $rdx
	#DEBUG_VALUE: fill_block_with_xor:i <- [DW_OP_consts 16, DW_OP_minus, DW_OP_consts 32, DW_OP_div, DW_OP_consts 2, DW_OP_mul, DW_OP_stack_value] $rax
	.loc	7 77 23 prologue_end is_stmt 1  # crypto_pwhash/argon2/argon2-fill-block-ssse3.c:77:23
	movups	-16(%rsi,%rax), %xmm0
	.loc	7 76 20                         # crypto_pwhash/argon2/argon2-fill-block-ssse3.c:76:20
	xorps	-16(%rdi,%rax), %xmm0
	.loc	7 76 18 is_stmt 0               # crypto_pwhash/argon2/argon2-fill-block-ssse3.c:76:18
	movaps	%xmm0, -16(%rdi,%rax)
	.loc	7 79 23 is_stmt 1               # crypto_pwhash/argon2/argon2-fill-block-ssse3.c:79:23
	movups	-16(%rdx,%rax), %xmm1
	.loc	7 78 23                         # crypto_pwhash/argon2/argon2-fill-block-ssse3.c:78:23
	xorps	%xmm0, %xmm1
	.loc	7 78 21 is_stmt 0               # crypto_pwhash/argon2/argon2-fill-block-ssse3.c:78:21
	movaps	%xmm1, -144(%rsp,%rax)
.Ltmp342:
	#DEBUG_VALUE: fill_block_with_xor:i <- [DW_OP_consts 16, DW_OP_minus, DW_OP_consts 32, DW_OP_div, DW_OP_consts 2, DW_OP_mul, DW_OP_consts 1, DW_OP_plus, DW_OP_stack_value] $rax
	.loc	7 77 23 is_stmt 1               # crypto_pwhash/argon2/argon2-fill-block-ssse3.c:77:23
	movdqu	(%rsi,%rax), %xmm0
	.loc	7 76 20                         # crypto_pwhash/argon2/argon2-fill-block-ssse3.c:76:20
	pxor	(%rdi,%rax), %xmm0
	.loc	7 76 18 is_stmt 0               # crypto_pwhash/argon2/argon2-fill-block-ssse3.c:76:18
	movdqa	%xmm0, (%rdi,%rax)
	.loc	7 79 23 is_stmt 1               # crypto_pwhash/argon2/argon2-fill-block-ssse3.c:79:23
	movdqu	(%rdx,%rax), %xmm1
	.loc	7 78 23                         # crypto_pwhash/argon2/argon2-fill-block-ssse3.c:78:23
	pxor	%xmm0, %xmm1
	.loc	7 78 21 is_stmt 0               # crypto_pwhash/argon2/argon2-fill-block-ssse3.c:78:21
	movdqa	%xmm1, -128(%rsp,%rax)
.Ltmp343:
	#DEBUG_VALUE: fill_block_with_xor:i <- [DW_OP_consts 16, DW_OP_minus, DW_OP_consts 32, DW_OP_div, DW_OP_consts 2, DW_OP_mul, DW_OP_consts 2, DW_OP_plus, DW_OP_stack_value] $rax
	.loc	7 75 19 is_stmt 1               # crypto_pwhash/argon2/argon2-fill-block-ssse3.c:75:19
	addq	$32, %rax
.Ltmp344:
	cmpq	$1040, %rax                     # imm = 0x410
.Ltmp345:
	.loc	7 75 5 is_stmt 0                # crypto_pwhash/argon2/argon2-fill-block-ssse3.c:75:5
	jne	.LBB1_1
.Ltmp346:
# %bb.2:                                # %.preheader735.preheader
	#DEBUG_VALUE: fill_block_with_xor:state <- $rdi
	#DEBUG_VALUE: fill_block_with_xor:ref_block <- $rsi
	#DEBUG_VALUE: fill_block_with_xor:next_block <- $rdx
	.loc	7 0 5                           # crypto_pwhash/argon2/argon2-fill-block-ssse3.c:0:5
	xorl	%eax, %eax
	movdqa	.LCPI1_0(%rip), %xmm0           # xmm0 = [3,4,5,6,7,0,1,2,11,12,13,14,15,8,9,10]
.Ltmp347:
	.p2align	4
.LBB1_3:                                # %.preheader735
                                        # =>This Inner Loop Header: Depth=1
	#DEBUG_VALUE: fill_block_with_xor:state <- $rdi
	#DEBUG_VALUE: fill_block_with_xor:ref_block <- $rsi
	#DEBUG_VALUE: fill_block_with_xor:next_block <- $rdx
	#DEBUG_VALUE: fill_block_with_xor:i <- [DW_OP_consts 128, DW_OP_div, DW_OP_stack_value] $rax
	.loc	7 83 46 is_stmt 1               # crypto_pwhash/argon2/argon2-fill-block-ssse3.c:83:46
	movdqa	(%rdi,%rax), %xmm2
	.loc	7 83 110 is_stmt 0              # crypto_pwhash/argon2/argon2-fill-block-ssse3.c:83:110
	movdqa	16(%rdi,%rax), %xmm5
	.loc	7 83 64                         # crypto_pwhash/argon2/argon2-fill-block-ssse3.c:83:64
	movdqa	32(%rdi,%rax), %xmm1
.Ltmp348:
	#DEBUG_VALUE: fBlaMka:y <- $xmm1
	.loc	7 83 128                        # crypto_pwhash/argon2/argon2-fill-block-ssse3.c:83:128
	movdqa	48(%rdi,%rax), %xmm3
.Ltmp349:
	#DEBUG_VALUE: fBlaMka:y <- $xmm3
	#DEBUG_VALUE: fBlaMka:x <- $xmm2
	.loc	9 31 23 is_stmt 1               # crypto_pwhash/argon2/blamka-round-ssse3.h:31:23 @[ crypto_pwhash/argon2/argon2-fill-block-ssse3.c:83:38 ]
	movdqa	%xmm1, %xmm4
	pmuludq	%xmm2, %xmm4
.Ltmp350:
	#DEBUG_VALUE: fBlaMka:z <- $xmm4
	.loc	9 32 26                         # crypto_pwhash/argon2/blamka-round-ssse3.h:32:26 @[ crypto_pwhash/argon2/argon2-fill-block-ssse3.c:83:38 ]
	paddq	%xmm1, %xmm2
.Ltmp351:
	.loc	9 32 47 is_stmt 0               # crypto_pwhash/argon2/blamka-round-ssse3.h:32:47 @[ crypto_pwhash/argon2/argon2-fill-block-ssse3.c:83:38 ]
	paddq	%xmm4, %xmm4
.Ltmp352:
	.loc	9 32 12                         # crypto_pwhash/argon2/blamka-round-ssse3.h:32:12 @[ crypto_pwhash/argon2/argon2-fill-block-ssse3.c:83:38 ]
	paddq	%xmm2, %xmm4
.Ltmp353:
	#DEBUG_VALUE: fBlaMka:x <- $xmm5
	.loc	9 31 23 is_stmt 1               # crypto_pwhash/argon2/blamka-round-ssse3.h:31:23 @[ crypto_pwhash/argon2/argon2-fill-block-ssse3.c:83:102 ]
	movdqa	%xmm3, %xmm7
	pmuludq	%xmm5, %xmm7
.Ltmp354:
	#DEBUG_VALUE: fBlaMka:z <- $xmm7
	.loc	9 32 26                         # crypto_pwhash/argon2/blamka-round-ssse3.h:32:26 @[ crypto_pwhash/argon2/argon2-fill-block-ssse3.c:83:102 ]
	paddq	%xmm3, %xmm5
.Ltmp355:
	.loc	9 32 47 is_stmt 0               # crypto_pwhash/argon2/blamka-round-ssse3.h:32:47 @[ crypto_pwhash/argon2/argon2-fill-block-ssse3.c:83:102 ]
	paddq	%xmm7, %xmm7
.Ltmp356:
	.loc	9 32 12                         # crypto_pwhash/argon2/blamka-round-ssse3.h:32:12 @[ crypto_pwhash/argon2/argon2-fill-block-ssse3.c:83:102 ]
	paddq	%xmm5, %xmm7
	movdqa	96(%rdi,%rax), %xmm2
.Ltmp357:
	.loc	7 83 166 is_stmt 1              # crypto_pwhash/argon2/argon2-fill-block-ssse3.c:83:166
	pxor	%xmm4, %xmm2
	movdqa	112(%rdi,%rax), %xmm5
	.loc	7 83 236 is_stmt 0              # crypto_pwhash/argon2/argon2-fill-block-ssse3.c:83:236
	pxor	%xmm7, %xmm5
	.loc	7 83 333                        # crypto_pwhash/argon2/argon2-fill-block-ssse3.c:83:333
	pshufd	$177, %xmm2, %xmm9              # xmm9 = xmm2[1,0,3,2]
	.loc	7 83 992                        # crypto_pwhash/argon2/argon2-fill-block-ssse3.c:83:992
	pshufd	$177, %xmm5, %xmm8              # xmm8 = xmm5[1,0,3,2]
	.loc	7 83 1632                       # crypto_pwhash/argon2/argon2-fill-block-ssse3.c:83:1632
	movdqa	64(%rdi,%rax), %xmm5
.Ltmp358:
	#DEBUG_VALUE: fBlaMka:x <- $xmm5
	#DEBUG_VALUE: fBlaMka:y <- $xmm9
	.loc	9 31 23 is_stmt 1               # crypto_pwhash/argon2/blamka-round-ssse3.h:31:23 @[ crypto_pwhash/argon2/argon2-fill-block-ssse3.c:83:1624 ]
	movdqa	%xmm5, %xmm2
	pmuludq	%xmm9, %xmm2
.Ltmp359:
	#DEBUG_VALUE: fBlaMka:z <- $xmm2
	.loc	9 32 26                         # crypto_pwhash/argon2/blamka-round-ssse3.h:32:26 @[ crypto_pwhash/argon2/argon2-fill-block-ssse3.c:83:1624 ]
	paddq	%xmm9, %xmm5
.Ltmp360:
	.loc	9 32 47 is_stmt 0               # crypto_pwhash/argon2/blamka-round-ssse3.h:32:47 @[ crypto_pwhash/argon2/argon2-fill-block-ssse3.c:83:1624 ]
	paddq	%xmm2, %xmm2
.Ltmp361:
	.loc	9 32 12                         # crypto_pwhash/argon2/blamka-round-ssse3.h:32:12 @[ crypto_pwhash/argon2/argon2-fill-block-ssse3.c:83:1624 ]
	paddq	%xmm5, %xmm2
.Ltmp362:
	.loc	7 83 1696 is_stmt 1             # crypto_pwhash/argon2/argon2-fill-block-ssse3.c:83:1696
	movdqa	80(%rdi,%rax), %xmm5
.Ltmp363:
	#DEBUG_VALUE: fBlaMka:x <- $xmm5
	#DEBUG_VALUE: fBlaMka:y <- $xmm8
	.loc	9 31 23                         # crypto_pwhash/argon2/blamka-round-ssse3.h:31:23 @[ crypto_pwhash/argon2/argon2-fill-block-ssse3.c:83:1688 ]
	movdqa	%xmm8, %xmm10
	pmuludq	%xmm5, %xmm10
.Ltmp364:
	#DEBUG_VALUE: fBlaMka:z <- $xmm10
	.loc	9 32 26                         # crypto_pwhash/argon2/blamka-round-ssse3.h:32:26 @[ crypto_pwhash/argon2/argon2-fill-block-ssse3.c:83:1688 ]
	paddq	%xmm8, %xmm5
.Ltmp365:
	.loc	9 32 47 is_stmt 0               # crypto_pwhash/argon2/blamka-round-ssse3.h:32:47 @[ crypto_pwhash/argon2/argon2-fill-block-ssse3.c:83:1688 ]
	paddq	%xmm10, %xmm10
.Ltmp366:
	.loc	9 32 12                         # crypto_pwhash/argon2/blamka-round-ssse3.h:32:12 @[ crypto_pwhash/argon2/argon2-fill-block-ssse3.c:83:1688 ]
	paddq	%xmm5, %xmm10
.Ltmp367:
	.loc	7 83 1752 is_stmt 1             # crypto_pwhash/argon2/argon2-fill-block-ssse3.c:83:1752
	pxor	%xmm2, %xmm1
.Ltmp368:
	.loc	7 83 1822 is_stmt 0             # crypto_pwhash/argon2/argon2-fill-block-ssse3.c:83:1822
	pxor	%xmm10, %xmm3
.Ltmp369:
	.loc	7 83 2053                       # crypto_pwhash/argon2/argon2-fill-block-ssse3.c:83:2053
	pshufb	%xmm0, %xmm1
	.loc	7 83 2712                       # crypto_pwhash/argon2/argon2-fill-block-ssse3.c:83:2712
	pshufb	%xmm0, %xmm3
.Ltmp370:
	#DEBUG_VALUE: fBlaMka:x <- $xmm4
	#DEBUG_VALUE: fBlaMka:y <- $xmm1
	.loc	9 31 23 is_stmt 1               # crypto_pwhash/argon2/blamka-round-ssse3.h:31:23 @[ crypto_pwhash/argon2/argon2-fill-block-ssse3.c:83:3238 ]
	movdqa	%xmm1, %xmm5
	pmuludq	%xmm4, %xmm5
.Ltmp371:
	#DEBUG_VALUE: fBlaMka:z <- $xmm5
	.loc	9 32 26                         # crypto_pwhash/argon2/blamka-round-ssse3.h:32:26 @[ crypto_pwhash/argon2/argon2-fill-block-ssse3.c:83:3238 ]
	paddq	%xmm1, %xmm4
.Ltmp372:
	.loc	9 32 47 is_stmt 0               # crypto_pwhash/argon2/blamka-round-ssse3.h:32:47 @[ crypto_pwhash/argon2/argon2-fill-block-ssse3.c:83:3238 ]
	paddq	%xmm5, %xmm5
.Ltmp373:
	.loc	9 32 12                         # crypto_pwhash/argon2/blamka-round-ssse3.h:32:12 @[ crypto_pwhash/argon2/argon2-fill-block-ssse3.c:83:3238 ]
	paddq	%xmm4, %xmm5
.Ltmp374:
	#DEBUG_VALUE: fBlaMka:x <- $xmm7
	#DEBUG_VALUE: fBlaMka:y <- $xmm3
	.loc	9 31 23 is_stmt 1               # crypto_pwhash/argon2/blamka-round-ssse3.h:31:23 @[ crypto_pwhash/argon2/argon2-fill-block-ssse3.c:83:3302 ]
	movdqa	%xmm3, %xmm6
	pmuludq	%xmm7, %xmm6
.Ltmp375:
	#DEBUG_VALUE: fBlaMka:z <- $xmm6
	.loc	9 32 26                         # crypto_pwhash/argon2/blamka-round-ssse3.h:32:26 @[ crypto_pwhash/argon2/argon2-fill-block-ssse3.c:83:3302 ]
	paddq	%xmm3, %xmm7
.Ltmp376:
	.loc	9 32 47 is_stmt 0               # crypto_pwhash/argon2/blamka-round-ssse3.h:32:47 @[ crypto_pwhash/argon2/argon2-fill-block-ssse3.c:83:3302 ]
	paddq	%xmm6, %xmm6
.Ltmp377:
	.loc	9 32 12                         # crypto_pwhash/argon2/blamka-round-ssse3.h:32:12 @[ crypto_pwhash/argon2/argon2-fill-block-ssse3.c:83:3302 ]
	paddq	%xmm7, %xmm6
.Ltmp378:
	.loc	7 83 3794 is_stmt 1             # crypto_pwhash/argon2/argon2-fill-block-ssse3.c:83:3794
	pshuflw	$57, %xmm5, %xmm4               # xmm4 = xmm5[1,2,3,0,4,5,6,7]
	pshuflw	$57, %xmm9, %xmm7               # xmm7 = xmm9[1,2,3,0,4,5,6,7]
	pxor	%xmm4, %xmm7
	pshufhw	$57, %xmm7, %xmm11              # xmm11 = xmm7[0,1,2,3,5,6,7,4]
.Ltmp379:
	#DEBUG_VALUE: fBlaMka:y <- $xmm11
	.loc	7 83 4453 is_stmt 0             # crypto_pwhash/argon2/argon2-fill-block-ssse3.c:83:4453
	pshuflw	$57, %xmm6, %xmm4               # xmm4 = xmm6[1,2,3,0,4,5,6,7]
	pshuflw	$57, %xmm8, %xmm8               # xmm8 = xmm8[1,2,3,0,4,5,6,7]
.Ltmp380:
	pxor	%xmm4, %xmm8
	pshufhw	$57, %xmm8, %xmm12              # xmm12 = xmm8[0,1,2,3,5,6,7,4]
.Ltmp381:
	#DEBUG_VALUE: fBlaMka:y <- $xmm12
	#DEBUG_VALUE: fBlaMka:x <- $xmm2
	.loc	9 31 23 is_stmt 1               # crypto_pwhash/argon2/blamka-round-ssse3.h:31:23 @[ crypto_pwhash/argon2/argon2-fill-block-ssse3.c:83:4824 ]
	movdqa	%xmm11, %xmm4
	pmuludq	%xmm2, %xmm4
.Ltmp382:
	#DEBUG_VALUE: fBlaMka:z <- $xmm4
	.loc	9 32 26                         # crypto_pwhash/argon2/blamka-round-ssse3.h:32:26 @[ crypto_pwhash/argon2/argon2-fill-block-ssse3.c:83:4824 ]
	paddq	%xmm11, %xmm2
.Ltmp383:
	.loc	9 32 47 is_stmt 0               # crypto_pwhash/argon2/blamka-round-ssse3.h:32:47 @[ crypto_pwhash/argon2/argon2-fill-block-ssse3.c:83:4824 ]
	paddq	%xmm4, %xmm4
.Ltmp384:
	.loc	9 32 12                         # crypto_pwhash/argon2/blamka-round-ssse3.h:32:12 @[ crypto_pwhash/argon2/argon2-fill-block-ssse3.c:83:4824 ]
	paddq	%xmm2, %xmm4
.Ltmp385:
	#DEBUG_VALUE: fBlaMka:x <- $xmm10
	.loc	9 31 23 is_stmt 1               # crypto_pwhash/argon2/blamka-round-ssse3.h:31:23 @[ crypto_pwhash/argon2/argon2-fill-block-ssse3.c:83:4888 ]
	movdqa	%xmm12, %xmm9
.Ltmp386:
	pmuludq	%xmm10, %xmm9
.Ltmp387:
	#DEBUG_VALUE: fBlaMka:z <- $xmm9
	.loc	9 32 26                         # crypto_pwhash/argon2/blamka-round-ssse3.h:32:26 @[ crypto_pwhash/argon2/argon2-fill-block-ssse3.c:83:4888 ]
	paddq	%xmm12, %xmm10
.Ltmp388:
	.loc	9 32 47 is_stmt 0               # crypto_pwhash/argon2/blamka-round-ssse3.h:32:47 @[ crypto_pwhash/argon2/argon2-fill-block-ssse3.c:83:4888 ]
	paddq	%xmm9, %xmm9
.Ltmp389:
	.loc	9 32 12                         # crypto_pwhash/argon2/blamka-round-ssse3.h:32:12 @[ crypto_pwhash/argon2/argon2-fill-block-ssse3.c:83:4888 ]
	paddq	%xmm10, %xmm9
.Ltmp390:
	.loc	7 83 4952 is_stmt 1             # crypto_pwhash/argon2/argon2-fill-block-ssse3.c:83:4952
	pxor	%xmm4, %xmm1
.Ltmp391:
	.loc	7 83 5022 is_stmt 0             # crypto_pwhash/argon2/argon2-fill-block-ssse3.c:83:5022
	pxor	%xmm9, %xmm3
.Ltmp392:
	.loc	7 83 5507                       # crypto_pwhash/argon2/argon2-fill-block-ssse3.c:83:5507
	movdqa	%xmm1, %xmm2
	psrlq	$63, %xmm2
	paddq	%xmm1, %xmm1
	por	%xmm2, %xmm1
	.loc	7 83 6166                       # crypto_pwhash/argon2/argon2-fill-block-ssse3.c:83:6166
	movdqa	%xmm3, %xmm2
	psrlq	$63, %xmm2
	paddq	%xmm3, %xmm3
	por	%xmm2, %xmm3
.Ltmp393:
	.loc	7 83 6442                       # crypto_pwhash/argon2/argon2-fill-block-ssse3.c:83:6442
	movdqa	%xmm3, %xmm2
	palignr	$8, %xmm1, %xmm2                # xmm2 = xmm1[8,9,10,11,12,13,14,15],xmm2[0,1,2,3,4,5,6,7]
.Ltmp394:
	#DEBUG_VALUE: t0 <- $xmm2
	.loc	7 83 6574                       # crypto_pwhash/argon2/argon2-fill-block-ssse3.c:83:6574
	palignr	$8, %xmm3, %xmm1                # xmm1 = xmm3[8,9,10,11,12,13,14,15],xmm1[0,1,2,3,4,5,6,7]
.Ltmp395:
	#DEBUG_VALUE: t1 <- $xmm1
	#DEBUG_VALUE: t0 <- $xmm4
	.loc	7 83 6827                       # crypto_pwhash/argon2/argon2-fill-block-ssse3.c:83:6827
	palignr	$8, %xmm11, %xmm8               # xmm8 = xmm11[8,9,10,11,12,13,14,15],xmm8[0,1,2,3,4,5,6,7]
.Ltmp396:
	#DEBUG_VALUE: t0 <- $xmm8
	.loc	7 83 6951                       # crypto_pwhash/argon2/argon2-fill-block-ssse3.c:83:6951
	palignr	$8, %xmm12, %xmm7               # xmm7 = xmm12[8,9,10,11,12,13,14,15],xmm7[0,1,2,3,4,5,6,7]
.Ltmp397:
	#DEBUG_VALUE: t1 <- $xmm7
	#DEBUG_VALUE: fBlaMka:x <- $xmm5
	#DEBUG_VALUE: fBlaMka:y <- $xmm2
	.loc	9 31 23 is_stmt 1               # crypto_pwhash/argon2/blamka-round-ssse3.h:31:23 @[ crypto_pwhash/argon2/argon2-fill-block-ssse3.c:83:7153 ]
	movdqa	%xmm2, %xmm11
.Ltmp398:
	pmuludq	%xmm5, %xmm11
.Ltmp399:
	#DEBUG_VALUE: fBlaMka:z <- $xmm11
	.loc	9 32 26                         # crypto_pwhash/argon2/blamka-round-ssse3.h:32:26 @[ crypto_pwhash/argon2/argon2-fill-block-ssse3.c:83:7153 ]
	paddq	%xmm2, %xmm5
.Ltmp400:
	.loc	9 32 47 is_stmt 0               # crypto_pwhash/argon2/blamka-round-ssse3.h:32:47 @[ crypto_pwhash/argon2/argon2-fill-block-ssse3.c:83:7153 ]
	paddq	%xmm11, %xmm11
.Ltmp401:
	.loc	9 32 12                         # crypto_pwhash/argon2/blamka-round-ssse3.h:32:12 @[ crypto_pwhash/argon2/argon2-fill-block-ssse3.c:83:7153 ]
	paddq	%xmm5, %xmm11
.Ltmp402:
	#DEBUG_VALUE: fBlaMka:x <- $xmm6
	#DEBUG_VALUE: fBlaMka:y <- $xmm1
	.loc	9 31 23 is_stmt 1               # crypto_pwhash/argon2/blamka-round-ssse3.h:31:23 @[ crypto_pwhash/argon2/argon2-fill-block-ssse3.c:83:7217 ]
	movdqa	%xmm1, %xmm10
	pmuludq	%xmm6, %xmm10
.Ltmp403:
	#DEBUG_VALUE: fBlaMka:z <- $xmm10
	.loc	9 32 26                         # crypto_pwhash/argon2/blamka-round-ssse3.h:32:26 @[ crypto_pwhash/argon2/argon2-fill-block-ssse3.c:83:7217 ]
	paddq	%xmm1, %xmm6
.Ltmp404:
	.loc	9 32 47 is_stmt 0               # crypto_pwhash/argon2/blamka-round-ssse3.h:32:47 @[ crypto_pwhash/argon2/argon2-fill-block-ssse3.c:83:7217 ]
	paddq	%xmm10, %xmm10
.Ltmp405:
	.loc	9 32 12                         # crypto_pwhash/argon2/blamka-round-ssse3.h:32:12 @[ crypto_pwhash/argon2/argon2-fill-block-ssse3.c:83:7217 ]
	paddq	%xmm6, %xmm10
.Ltmp406:
	.loc	7 83 7448 is_stmt 1             # crypto_pwhash/argon2/argon2-fill-block-ssse3.c:83:7448
	pshufd	$177, %xmm11, %xmm3             # xmm3 = xmm11[1,0,3,2]
	pshufd	$177, %xmm7, %xmm7              # xmm7 = xmm7[1,0,3,2]
.Ltmp407:
	pxor	%xmm3, %xmm7
.Ltmp408:
	#DEBUG_VALUE: fBlaMka:y <- $xmm7
	.loc	7 83 8107 is_stmt 0             # crypto_pwhash/argon2/argon2-fill-block-ssse3.c:83:8107
	pshufd	$177, %xmm10, %xmm3             # xmm3 = xmm10[1,0,3,2]
	pshufd	$177, %xmm8, %xmm6              # xmm6 = xmm8[1,0,3,2]
	pxor	%xmm3, %xmm6
.Ltmp409:
	#DEBUG_VALUE: fBlaMka:y <- $xmm6
	#DEBUG_VALUE: fBlaMka:x <- $xmm9
	.loc	9 31 23 is_stmt 1               # crypto_pwhash/argon2/blamka-round-ssse3.h:31:23 @[ crypto_pwhash/argon2/argon2-fill-block-ssse3.c:83:8739 ]
	movdqa	%xmm7, %xmm3
	pmuludq	%xmm9, %xmm3
.Ltmp410:
	#DEBUG_VALUE: fBlaMka:z <- $xmm3
	.loc	9 32 26                         # crypto_pwhash/argon2/blamka-round-ssse3.h:32:26 @[ crypto_pwhash/argon2/argon2-fill-block-ssse3.c:83:8739 ]
	paddq	%xmm7, %xmm9
.Ltmp411:
	.loc	9 32 47 is_stmt 0               # crypto_pwhash/argon2/blamka-round-ssse3.h:32:47 @[ crypto_pwhash/argon2/argon2-fill-block-ssse3.c:83:8739 ]
	paddq	%xmm3, %xmm3
.Ltmp412:
	.loc	9 32 12                         # crypto_pwhash/argon2/blamka-round-ssse3.h:32:12 @[ crypto_pwhash/argon2/argon2-fill-block-ssse3.c:83:8739 ]
	paddq	%xmm9, %xmm3
.Ltmp413:
	#DEBUG_VALUE: fBlaMka:x <- $xmm4
	.loc	9 31 23 is_stmt 1               # crypto_pwhash/argon2/blamka-round-ssse3.h:31:23 @[ crypto_pwhash/argon2/argon2-fill-block-ssse3.c:83:8803 ]
	movdqa	%xmm6, %xmm5
	pmuludq	%xmm4, %xmm5
.Ltmp414:
	#DEBUG_VALUE: fBlaMka:z <- $xmm5
	.loc	9 32 26                         # crypto_pwhash/argon2/blamka-round-ssse3.h:32:26 @[ crypto_pwhash/argon2/argon2-fill-block-ssse3.c:83:8803 ]
	paddq	%xmm6, %xmm4
.Ltmp415:
	.loc	9 32 47 is_stmt 0               # crypto_pwhash/argon2/blamka-round-ssse3.h:32:47 @[ crypto_pwhash/argon2/argon2-fill-block-ssse3.c:83:8803 ]
	paddq	%xmm5, %xmm5
.Ltmp416:
	.loc	9 32 12                         # crypto_pwhash/argon2/blamka-round-ssse3.h:32:12 @[ crypto_pwhash/argon2/argon2-fill-block-ssse3.c:83:8803 ]
	paddq	%xmm4, %xmm5
.Ltmp417:
	.loc	7 83 9168 is_stmt 1             # crypto_pwhash/argon2/argon2-fill-block-ssse3.c:83:9168
	movdqa	%xmm3, %xmm4
	pshufb	%xmm0, %xmm4
	pshufb	%xmm0, %xmm2
.Ltmp418:
	pxor	%xmm4, %xmm2
.Ltmp419:
	#DEBUG_VALUE: fBlaMka:y <- $xmm2
	.loc	7 83 9827 is_stmt 0             # crypto_pwhash/argon2/argon2-fill-block-ssse3.c:83:9827
	movdqa	%xmm5, %xmm4
	pshufb	%xmm0, %xmm4
	pshufb	%xmm0, %xmm1
.Ltmp420:
	pxor	%xmm4, %xmm1
.Ltmp421:
	#DEBUG_VALUE: fBlaMka:y <- $xmm1
	#DEBUG_VALUE: fBlaMka:x <- $xmm11
	.loc	9 31 23 is_stmt 1               # crypto_pwhash/argon2/blamka-round-ssse3.h:31:23 @[ crypto_pwhash/argon2/argon2-fill-block-ssse3.c:83:10353 ]
	movdqa	%xmm2, %xmm4
	pmuludq	%xmm11, %xmm4
.Ltmp422:
	#DEBUG_VALUE: fBlaMka:z <- $xmm4
	.loc	9 32 26                         # crypto_pwhash/argon2/blamka-round-ssse3.h:32:26 @[ crypto_pwhash/argon2/argon2-fill-block-ssse3.c:83:10353 ]
	paddq	%xmm2, %xmm11
.Ltmp423:
	.loc	9 32 47 is_stmt 0               # crypto_pwhash/argon2/blamka-round-ssse3.h:32:47 @[ crypto_pwhash/argon2/argon2-fill-block-ssse3.c:83:10353 ]
	paddq	%xmm4, %xmm4
.Ltmp424:
	.loc	9 32 12                         # crypto_pwhash/argon2/blamka-round-ssse3.h:32:12 @[ crypto_pwhash/argon2/argon2-fill-block-ssse3.c:83:10353 ]
	paddq	%xmm11, %xmm4
.Ltmp425:
	.loc	7 83 10351 is_stmt 1            # crypto_pwhash/argon2/argon2-fill-block-ssse3.c:83:10351
	movdqa	%xmm4, (%rdi,%rax)
.Ltmp426:
	#DEBUG_VALUE: fBlaMka:x <- $xmm10
	.loc	9 31 23                         # crypto_pwhash/argon2/blamka-round-ssse3.h:31:23 @[ crypto_pwhash/argon2/argon2-fill-block-ssse3.c:83:10417 ]
	movdqa	%xmm1, %xmm8
.Ltmp427:
	pmuludq	%xmm10, %xmm8
.Ltmp428:
	#DEBUG_VALUE: fBlaMka:z <- $xmm8
	.loc	9 32 26                         # crypto_pwhash/argon2/blamka-round-ssse3.h:32:26 @[ crypto_pwhash/argon2/argon2-fill-block-ssse3.c:83:10417 ]
	paddq	%xmm1, %xmm10
.Ltmp429:
	.loc	9 32 47 is_stmt 0               # crypto_pwhash/argon2/blamka-round-ssse3.h:32:47 @[ crypto_pwhash/argon2/argon2-fill-block-ssse3.c:83:10417 ]
	paddq	%xmm8, %xmm8
.Ltmp430:
	.loc	9 32 12                         # crypto_pwhash/argon2/blamka-round-ssse3.h:32:12 @[ crypto_pwhash/argon2/argon2-fill-block-ssse3.c:83:10417 ]
	paddq	%xmm10, %xmm8
.Ltmp431:
	.loc	7 83 10415 is_stmt 1            # crypto_pwhash/argon2/argon2-fill-block-ssse3.c:83:10415
	movdqa	%xmm8, 16(%rdi,%rax)
	.loc	7 83 10909 is_stmt 0            # crypto_pwhash/argon2/argon2-fill-block-ssse3.c:83:10909
	pshuflw	$57, %xmm4, %xmm9               # xmm9 = xmm4[1,2,3,0,4,5,6,7]
	pshuflw	$57, %xmm7, %xmm4               # xmm4 = xmm7[1,2,3,0,4,5,6,7]
	pxor	%xmm9, %xmm4
	pshufhw	$57, %xmm4, %xmm7               # xmm7 = xmm4[0,1,2,3,5,6,7,4]
.Ltmp432:
	#DEBUG_VALUE: fBlaMka:y <- $xmm7
	.loc	7 83 11568                      # crypto_pwhash/argon2/argon2-fill-block-ssse3.c:83:11568
	pshuflw	$57, %xmm8, %xmm8               # xmm8 = xmm8[1,2,3,0,4,5,6,7]
	pshuflw	$57, %xmm6, %xmm6               # xmm6 = xmm6[1,2,3,0,4,5,6,7]
.Ltmp433:
	pxor	%xmm8, %xmm6
	pshufhw	$57, %xmm6, %xmm8               # xmm8 = xmm6[0,1,2,3,5,6,7,4]
.Ltmp434:
	#DEBUG_VALUE: fBlaMka:y <- $xmm8
	#DEBUG_VALUE: fBlaMka:x <- $xmm3
	.loc	9 31 23 is_stmt 1               # crypto_pwhash/argon2/blamka-round-ssse3.h:31:23 @[ crypto_pwhash/argon2/argon2-fill-block-ssse3.c:83:11939 ]
	movdqa	%xmm7, %xmm9
	pmuludq	%xmm3, %xmm9
.Ltmp435:
	#DEBUG_VALUE: fBlaMka:z <- $xmm9
	.loc	9 32 26                         # crypto_pwhash/argon2/blamka-round-ssse3.h:32:26 @[ crypto_pwhash/argon2/argon2-fill-block-ssse3.c:83:11939 ]
	paddq	%xmm7, %xmm3
.Ltmp436:
	.loc	9 32 47 is_stmt 0               # crypto_pwhash/argon2/blamka-round-ssse3.h:32:47 @[ crypto_pwhash/argon2/argon2-fill-block-ssse3.c:83:11939 ]
	paddq	%xmm9, %xmm9
.Ltmp437:
	.loc	9 32 12                         # crypto_pwhash/argon2/blamka-round-ssse3.h:32:12 @[ crypto_pwhash/argon2/argon2-fill-block-ssse3.c:83:11939 ]
	paddq	%xmm3, %xmm9
.Ltmp438:
	#DEBUG_VALUE: fBlaMka:x <- $xmm5
	.loc	9 31 23 is_stmt 1               # crypto_pwhash/argon2/blamka-round-ssse3.h:31:23 @[ crypto_pwhash/argon2/argon2-fill-block-ssse3.c:83:12003 ]
	movdqa	%xmm8, %xmm3
	pmuludq	%xmm5, %xmm3
.Ltmp439:
	#DEBUG_VALUE: fBlaMka:z <- $xmm3
	.loc	9 32 26                         # crypto_pwhash/argon2/blamka-round-ssse3.h:32:26 @[ crypto_pwhash/argon2/argon2-fill-block-ssse3.c:83:12003 ]
	paddq	%xmm8, %xmm5
.Ltmp440:
	.loc	9 32 47 is_stmt 0               # crypto_pwhash/argon2/blamka-round-ssse3.h:32:47 @[ crypto_pwhash/argon2/argon2-fill-block-ssse3.c:83:12003 ]
	paddq	%xmm3, %xmm3
.Ltmp441:
	.loc	9 32 12                         # crypto_pwhash/argon2/blamka-round-ssse3.h:32:12 @[ crypto_pwhash/argon2/argon2-fill-block-ssse3.c:83:12003 ]
	paddq	%xmm5, %xmm3
.Ltmp442:
	.loc	7 83 12067 is_stmt 1            # crypto_pwhash/argon2/argon2-fill-block-ssse3.c:83:12067
	pxor	%xmm9, %xmm2
.Ltmp443:
	.loc	7 83 12137 is_stmt 0            # crypto_pwhash/argon2/argon2-fill-block-ssse3.c:83:12137
	pxor	%xmm3, %xmm1
.Ltmp444:
	.loc	7 83 12622                      # crypto_pwhash/argon2/argon2-fill-block-ssse3.c:83:12622
	movdqa	%xmm2, %xmm5
	psrlq	$63, %xmm5
	paddq	%xmm2, %xmm2
	por	%xmm5, %xmm2
	.loc	7 83 13281                      # crypto_pwhash/argon2/argon2-fill-block-ssse3.c:83:13281
	movdqa	%xmm1, %xmm5
	psrlq	$63, %xmm5
	paddq	%xmm1, %xmm1
	por	%xmm5, %xmm1
.Ltmp445:
	.loc	7 83 13557                      # crypto_pwhash/argon2/argon2-fill-block-ssse3.c:83:13557
	movdqa	%xmm2, %xmm5
	palignr	$8, %xmm1, %xmm5                # xmm5 = xmm1[8,9,10,11,12,13,14,15],xmm5[0,1,2,3,4,5,6,7]
.Ltmp446:
	#DEBUG_VALUE: t0 <- undef
	.loc	7 83 13689                      # crypto_pwhash/argon2/argon2-fill-block-ssse3.c:83:13689
	palignr	$8, %xmm2, %xmm1                # xmm1 = xmm2[8,9,10,11,12,13,14,15],xmm1[0,1,2,3,4,5,6,7]
.Ltmp447:
	#DEBUG_VALUE: t1 <- undef
	.loc	7 83 13815                      # crypto_pwhash/argon2/argon2-fill-block-ssse3.c:83:13815
	movdqa	%xmm5, 32(%rdi,%rax)
	.loc	7 83 13838                      # crypto_pwhash/argon2/argon2-fill-block-ssse3.c:83:13838
	movdqa	%xmm1, 48(%rdi,%rax)
.Ltmp448:
	#DEBUG_VALUE: t0 <- $xmm9
	.loc	7 83 13884                      # crypto_pwhash/argon2/argon2-fill-block-ssse3.c:83:13884
	movdqa	%xmm3, 64(%rdi,%rax)
	.loc	7 83 13921                      # crypto_pwhash/argon2/argon2-fill-block-ssse3.c:83:13921
	movdqa	%xmm9, 80(%rdi,%rax)
	.loc	7 83 13942                      # crypto_pwhash/argon2/argon2-fill-block-ssse3.c:83:13942
	palignr	$8, %xmm8, %xmm4                # xmm4 = xmm8[8,9,10,11,12,13,14,15],xmm4[0,1,2,3,4,5,6,7]
.Ltmp449:
	#DEBUG_VALUE: t0 <- $xmm4
	.loc	7 83 14066                      # crypto_pwhash/argon2/argon2-fill-block-ssse3.c:83:14066
	palignr	$8, %xmm7, %xmm6                # xmm6 = xmm7[8,9,10,11,12,13,14,15],xmm6[0,1,2,3,4,5,6,7]
.Ltmp450:
	#DEBUG_VALUE: t1 <- $xmm6
	.loc	7 83 14192                      # crypto_pwhash/argon2/argon2-fill-block-ssse3.c:83:14192
	movdqa	%xmm6, 96(%rdi,%rax)
	.loc	7 83 14215                      # crypto_pwhash/argon2/argon2-fill-block-ssse3.c:83:14215
	movdqa	%xmm4, 112(%rdi,%rax)
.Ltmp451:
	#DEBUG_VALUE: fill_block_with_xor:i <- [DW_OP_consts 128, DW_OP_div, DW_OP_consts 1, DW_OP_plus, DW_OP_stack_value] $rax
	.loc	7 82 19 is_stmt 1               # crypto_pwhash/argon2/argon2-fill-block-ssse3.c:82:19
	subq	$-128, %rax
.Ltmp452:
	cmpq	$1024, %rax                     # imm = 0x400
.Ltmp453:
	.loc	7 82 5 is_stmt 0                # crypto_pwhash/argon2/argon2-fill-block-ssse3.c:82:5
	jne	.LBB1_3
.Ltmp454:
# %bb.4:                                # %.preheader734.preheader
	#DEBUG_VALUE: fill_block_with_xor:state <- $rdi
	#DEBUG_VALUE: fill_block_with_xor:ref_block <- $rsi
	#DEBUG_VALUE: fill_block_with_xor:next_block <- $rdx
	#DEBUG_VALUE: fBlaMka:y <- $xmm12
	#DEBUG_VALUE: fBlaMka:y <- $xmm7
	#DEBUG_VALUE: fBlaMka:y <- $xmm8
	#DEBUG_VALUE: t0 <- $xmm4
	#DEBUG_VALUE: t1 <- $xmm6
	.loc	7 0 5                           # crypto_pwhash/argon2/argon2-fill-block-ssse3.c:0:5
	movq	$-128, %rax
.Ltmp455:
	.p2align	4
.LBB1_5:                                # %.preheader734
                                        # =>This Inner Loop Header: Depth=1
	#DEBUG_VALUE: fill_block_with_xor:state <- $rdi
	#DEBUG_VALUE: fill_block_with_xor:ref_block <- $rsi
	#DEBUG_VALUE: fill_block_with_xor:next_block <- $rdx
	#DEBUG_VALUE: fill_block_with_xor:i <- [DW_OP_consts 18446744073709551488, DW_OP_minus, DW_OP_consts 16, DW_OP_div, DW_OP_stack_value] $rax
	.loc	7 89 46 is_stmt 1               # crypto_pwhash/argon2/argon2-fill-block-ssse3.c:89:46
	movdqa	128(%rdi,%rax), %xmm2
	.loc	7 89 110 is_stmt 0              # crypto_pwhash/argon2/argon2-fill-block-ssse3.c:89:110
	movdqa	256(%rdi,%rax), %xmm5
	.loc	7 89 64                         # crypto_pwhash/argon2/argon2-fill-block-ssse3.c:89:64
	movdqa	384(%rdi,%rax), %xmm1
.Ltmp456:
	#DEBUG_VALUE: fBlaMka:y <- $xmm1
	.loc	7 89 128                        # crypto_pwhash/argon2/argon2-fill-block-ssse3.c:89:128
	movdqa	512(%rdi,%rax), %xmm3
.Ltmp457:
	#DEBUG_VALUE: fBlaMka:y <- $xmm3
	#DEBUG_VALUE: fBlaMka:x <- $xmm2
	.loc	9 31 23 is_stmt 1               # crypto_pwhash/argon2/blamka-round-ssse3.h:31:23 @[ crypto_pwhash/argon2/argon2-fill-block-ssse3.c:89:38 ]
	movdqa	%xmm1, %xmm4
	pmuludq	%xmm2, %xmm4
.Ltmp458:
	#DEBUG_VALUE: fBlaMka:z <- $xmm4
	.loc	9 32 26                         # crypto_pwhash/argon2/blamka-round-ssse3.h:32:26 @[ crypto_pwhash/argon2/argon2-fill-block-ssse3.c:89:38 ]
	paddq	%xmm1, %xmm2
.Ltmp459:
	.loc	9 32 47 is_stmt 0               # crypto_pwhash/argon2/blamka-round-ssse3.h:32:47 @[ crypto_pwhash/argon2/argon2-fill-block-ssse3.c:89:38 ]
	paddq	%xmm4, %xmm4
.Ltmp460:
	.loc	9 32 12                         # crypto_pwhash/argon2/blamka-round-ssse3.h:32:12 @[ crypto_pwhash/argon2/argon2-fill-block-ssse3.c:89:38 ]
	paddq	%xmm2, %xmm4
.Ltmp461:
	#DEBUG_VALUE: fBlaMka:x <- $xmm5
	.loc	9 31 23 is_stmt 1               # crypto_pwhash/argon2/blamka-round-ssse3.h:31:23 @[ crypto_pwhash/argon2/argon2-fill-block-ssse3.c:89:102 ]
	movdqa	%xmm3, %xmm7
	pmuludq	%xmm5, %xmm7
.Ltmp462:
	#DEBUG_VALUE: fBlaMka:z <- $xmm7
	.loc	9 32 26                         # crypto_pwhash/argon2/blamka-round-ssse3.h:32:26 @[ crypto_pwhash/argon2/argon2-fill-block-ssse3.c:89:102 ]
	paddq	%xmm3, %xmm5
.Ltmp463:
	.loc	9 32 47 is_stmt 0               # crypto_pwhash/argon2/blamka-round-ssse3.h:32:47 @[ crypto_pwhash/argon2/argon2-fill-block-ssse3.c:89:102 ]
	paddq	%xmm7, %xmm7
.Ltmp464:
	.loc	9 32 12                         # crypto_pwhash/argon2/blamka-round-ssse3.h:32:12 @[ crypto_pwhash/argon2/argon2-fill-block-ssse3.c:89:102 ]
	paddq	%xmm5, %xmm7
	movdqa	896(%rdi,%rax), %xmm2
.Ltmp465:
	.loc	7 89 166 is_stmt 1              # crypto_pwhash/argon2/argon2-fill-block-ssse3.c:89:166
	pxor	%xmm4, %xmm2
	movdqa	1024(%rdi,%rax), %xmm5
	.loc	7 89 236 is_stmt 0              # crypto_pwhash/argon2/argon2-fill-block-ssse3.c:89:236
	pxor	%xmm7, %xmm5
	.loc	7 89 333                        # crypto_pwhash/argon2/argon2-fill-block-ssse3.c:89:333
	pshufd	$177, %xmm2, %xmm9              # xmm9 = xmm2[1,0,3,2]
	.loc	7 89 992                        # crypto_pwhash/argon2/argon2-fill-block-ssse3.c:89:992
	pshufd	$177, %xmm5, %xmm8              # xmm8 = xmm5[1,0,3,2]
	.loc	7 89 1632                       # crypto_pwhash/argon2/argon2-fill-block-ssse3.c:89:1632
	movdqa	640(%rdi,%rax), %xmm5
.Ltmp466:
	#DEBUG_VALUE: fBlaMka:x <- $xmm5
	#DEBUG_VALUE: fBlaMka:y <- $xmm9
	.loc	9 31 23 is_stmt 1               # crypto_pwhash/argon2/blamka-round-ssse3.h:31:23 @[ crypto_pwhash/argon2/argon2-fill-block-ssse3.c:89:1624 ]
	movdqa	%xmm5, %xmm2
	pmuludq	%xmm9, %xmm2
.Ltmp467:
	#DEBUG_VALUE: fBlaMka:z <- $xmm2
	.loc	9 32 26                         # crypto_pwhash/argon2/blamka-round-ssse3.h:32:26 @[ crypto_pwhash/argon2/argon2-fill-block-ssse3.c:89:1624 ]
	paddq	%xmm9, %xmm5
.Ltmp468:
	.loc	9 32 47 is_stmt 0               # crypto_pwhash/argon2/blamka-round-ssse3.h:32:47 @[ crypto_pwhash/argon2/argon2-fill-block-ssse3.c:89:1624 ]
	paddq	%xmm2, %xmm2
.Ltmp469:
	.loc	9 32 12                         # crypto_pwhash/argon2/blamka-round-ssse3.h:32:12 @[ crypto_pwhash/argon2/argon2-fill-block-ssse3.c:89:1624 ]
	paddq	%xmm5, %xmm2
.Ltmp470:
	.loc	7 89 1696 is_stmt 1             # crypto_pwhash/argon2/argon2-fill-block-ssse3.c:89:1696
	movdqa	768(%rdi,%rax), %xmm5
.Ltmp471:
	#DEBUG_VALUE: fBlaMka:x <- $xmm5
	#DEBUG_VALUE: fBlaMka:y <- $xmm8
	.loc	9 31 23                         # crypto_pwhash/argon2/blamka-round-ssse3.h:31:23 @[ crypto_pwhash/argon2/argon2-fill-block-ssse3.c:89:1688 ]
	movdqa	%xmm8, %xmm10
	pmuludq	%xmm5, %xmm10
.Ltmp472:
	#DEBUG_VALUE: fBlaMka:z <- $xmm10
	.loc	9 32 26                         # crypto_pwhash/argon2/blamka-round-ssse3.h:32:26 @[ crypto_pwhash/argon2/argon2-fill-block-ssse3.c:89:1688 ]
	paddq	%xmm8, %xmm5
.Ltmp473:
	.loc	9 32 47 is_stmt 0               # crypto_pwhash/argon2/blamka-round-ssse3.h:32:47 @[ crypto_pwhash/argon2/argon2-fill-block-ssse3.c:89:1688 ]
	paddq	%xmm10, %xmm10
.Ltmp474:
	.loc	9 32 12                         # crypto_pwhash/argon2/blamka-round-ssse3.h:32:12 @[ crypto_pwhash/argon2/argon2-fill-block-ssse3.c:89:1688 ]
	paddq	%xmm5, %xmm10
.Ltmp475:
	.loc	7 89 1752 is_stmt 1             # crypto_pwhash/argon2/argon2-fill-block-ssse3.c:89:1752
	pxor	%xmm2, %xmm1
.Ltmp476:
	.loc	7 89 1822 is_stmt 0             # crypto_pwhash/argon2/argon2-fill-block-ssse3.c:89:1822
	pxor	%xmm10, %xmm3
.Ltmp477:
	.loc	7 89 2053                       # crypto_pwhash/argon2/argon2-fill-block-ssse3.c:89:2053
	pshufb	%xmm0, %xmm1
	.loc	7 89 2712                       # crypto_pwhash/argon2/argon2-fill-block-ssse3.c:89:2712
	pshufb	%xmm0, %xmm3
.Ltmp478:
	#DEBUG_VALUE: fBlaMka:x <- $xmm4
	#DEBUG_VALUE: fBlaMka:y <- $xmm1
	.loc	9 31 23 is_stmt 1               # crypto_pwhash/argon2/blamka-round-ssse3.h:31:23 @[ crypto_pwhash/argon2/argon2-fill-block-ssse3.c:89:3238 ]
	movdqa	%xmm1, %xmm5
	pmuludq	%xmm4, %xmm5
.Ltmp479:
	#DEBUG_VALUE: fBlaMka:z <- $xmm5
	.loc	9 32 26                         # crypto_pwhash/argon2/blamka-round-ssse3.h:32:26 @[ crypto_pwhash/argon2/argon2-fill-block-ssse3.c:89:3238 ]
	paddq	%xmm1, %xmm4
.Ltmp480:
	.loc	9 32 47 is_stmt 0               # crypto_pwhash/argon2/blamka-round-ssse3.h:32:47 @[ crypto_pwhash/argon2/argon2-fill-block-ssse3.c:89:3238 ]
	paddq	%xmm5, %xmm5
.Ltmp481:
	.loc	9 32 12                         # crypto_pwhash/argon2/blamka-round-ssse3.h:32:12 @[ crypto_pwhash/argon2/argon2-fill-block-ssse3.c:89:3238 ]
	paddq	%xmm4, %xmm5
.Ltmp482:
	#DEBUG_VALUE: fBlaMka:x <- $xmm7
	#DEBUG_VALUE: fBlaMka:y <- $xmm3
	.loc	9 31 23 is_stmt 1               # crypto_pwhash/argon2/blamka-round-ssse3.h:31:23 @[ crypto_pwhash/argon2/argon2-fill-block-ssse3.c:89:3302 ]
	movdqa	%xmm3, %xmm6
	pmuludq	%xmm7, %xmm6
.Ltmp483:
	#DEBUG_VALUE: fBlaMka:z <- $xmm6
	.loc	9 32 26                         # crypto_pwhash/argon2/blamka-round-ssse3.h:32:26 @[ crypto_pwhash/argon2/argon2-fill-block-ssse3.c:89:3302 ]
	paddq	%xmm3, %xmm7
.Ltmp484:
	.loc	9 32 47 is_stmt 0               # crypto_pwhash/argon2/blamka-round-ssse3.h:32:47 @[ crypto_pwhash/argon2/argon2-fill-block-ssse3.c:89:3302 ]
	paddq	%xmm6, %xmm6
.Ltmp485:
	.loc	9 32 12                         # crypto_pwhash/argon2/blamka-round-ssse3.h:32:12 @[ crypto_pwhash/argon2/argon2-fill-block-ssse3.c:89:3302 ]
	paddq	%xmm7, %xmm6
.Ltmp486:
	.loc	7 89 3794 is_stmt 1             # crypto_pwhash/argon2/argon2-fill-block-ssse3.c:89:3794
	pshuflw	$57, %xmm5, %xmm4               # xmm4 = xmm5[1,2,3,0,4,5,6,7]
	pshuflw	$57, %xmm9, %xmm7               # xmm7 = xmm9[1,2,3,0,4,5,6,7]
	pxor	%xmm4, %xmm7
	pshufhw	$57, %xmm7, %xmm11              # xmm11 = xmm7[0,1,2,3,5,6,7,4]
.Ltmp487:
	#DEBUG_VALUE: fBlaMka:y <- $xmm11
	.loc	7 89 4453 is_stmt 0             # crypto_pwhash/argon2/argon2-fill-block-ssse3.c:89:4453
	pshuflw	$57, %xmm6, %xmm4               # xmm4 = xmm6[1,2,3,0,4,5,6,7]
	pshuflw	$57, %xmm8, %xmm8               # xmm8 = xmm8[1,2,3,0,4,5,6,7]
.Ltmp488:
	pxor	%xmm4, %xmm8
	pshufhw	$57, %xmm8, %xmm12              # xmm12 = xmm8[0,1,2,3,5,6,7,4]
.Ltmp489:
	#DEBUG_VALUE: fBlaMka:y <- $xmm12
	#DEBUG_VALUE: fBlaMka:x <- $xmm2
	.loc	9 31 23 is_stmt 1               # crypto_pwhash/argon2/blamka-round-ssse3.h:31:23 @[ crypto_pwhash/argon2/argon2-fill-block-ssse3.c:89:4824 ]
	movdqa	%xmm11, %xmm4
	pmuludq	%xmm2, %xmm4
.Ltmp490:
	#DEBUG_VALUE: fBlaMka:z <- $xmm4
	.loc	9 32 26                         # crypto_pwhash/argon2/blamka-round-ssse3.h:32:26 @[ crypto_pwhash/argon2/argon2-fill-block-ssse3.c:89:4824 ]
	paddq	%xmm11, %xmm2
.Ltmp491:
	.loc	9 32 47 is_stmt 0               # crypto_pwhash/argon2/blamka-round-ssse3.h:32:47 @[ crypto_pwhash/argon2/argon2-fill-block-ssse3.c:89:4824 ]
	paddq	%xmm4, %xmm4
.Ltmp492:
	.loc	9 32 12                         # crypto_pwhash/argon2/blamka-round-ssse3.h:32:12 @[ crypto_pwhash/argon2/argon2-fill-block-ssse3.c:89:4824 ]
	paddq	%xmm2, %xmm4
.Ltmp493:
	#DEBUG_VALUE: fBlaMka:x <- $xmm10
	.loc	9 31 23 is_stmt 1               # crypto_pwhash/argon2/blamka-round-ssse3.h:31:23 @[ crypto_pwhash/argon2/argon2-fill-block-ssse3.c:89:4888 ]
	movdqa	%xmm12, %xmm9
.Ltmp494:
	pmuludq	%xmm10, %xmm9
.Ltmp495:
	#DEBUG_VALUE: fBlaMka:z <- $xmm9
	.loc	9 32 26                         # crypto_pwhash/argon2/blamka-round-ssse3.h:32:26 @[ crypto_pwhash/argon2/argon2-fill-block-ssse3.c:89:4888 ]
	paddq	%xmm12, %xmm10
.Ltmp496:
	.loc	9 32 47 is_stmt 0               # crypto_pwhash/argon2/blamka-round-ssse3.h:32:47 @[ crypto_pwhash/argon2/argon2-fill-block-ssse3.c:89:4888 ]
	paddq	%xmm9, %xmm9
.Ltmp497:
	.loc	9 32 12                         # crypto_pwhash/argon2/blamka-round-ssse3.h:32:12 @[ crypto_pwhash/argon2/argon2-fill-block-ssse3.c:89:4888 ]
	paddq	%xmm10, %xmm9
.Ltmp498:
	.loc	7 89 4952 is_stmt 1             # crypto_pwhash/argon2/argon2-fill-block-ssse3.c:89:4952
	pxor	%xmm4, %xmm1
.Ltmp499:
	.loc	7 89 5022 is_stmt 0             # crypto_pwhash/argon2/argon2-fill-block-ssse3.c:89:5022
	pxor	%xmm9, %xmm3
.Ltmp500:
	.loc	7 89 5507                       # crypto_pwhash/argon2/argon2-fill-block-ssse3.c:89:5507
	movdqa	%xmm1, %xmm2
	psrlq	$63, %xmm2
	paddq	%xmm1, %xmm1
	por	%xmm2, %xmm1
	.loc	7 89 6166                       # crypto_pwhash/argon2/argon2-fill-block-ssse3.c:89:6166
	movdqa	%xmm3, %xmm2
	psrlq	$63, %xmm2
	paddq	%xmm3, %xmm3
	por	%xmm2, %xmm3
.Ltmp501:
	.loc	7 89 6442                       # crypto_pwhash/argon2/argon2-fill-block-ssse3.c:89:6442
	movdqa	%xmm3, %xmm2
	palignr	$8, %xmm1, %xmm2                # xmm2 = xmm1[8,9,10,11,12,13,14,15],xmm2[0,1,2,3,4,5,6,7]
.Ltmp502:
	#DEBUG_VALUE: t0 <- $xmm2
	.loc	7 89 6574                       # crypto_pwhash/argon2/argon2-fill-block-ssse3.c:89:6574
	palignr	$8, %xmm3, %xmm1                # xmm1 = xmm3[8,9,10,11,12,13,14,15],xmm1[0,1,2,3,4,5,6,7]
.Ltmp503:
	#DEBUG_VALUE: t1 <- $xmm1
	#DEBUG_VALUE: t0 <- $xmm4
	.loc	7 89 6827                       # crypto_pwhash/argon2/argon2-fill-block-ssse3.c:89:6827
	palignr	$8, %xmm11, %xmm8               # xmm8 = xmm11[8,9,10,11,12,13,14,15],xmm8[0,1,2,3,4,5,6,7]
.Ltmp504:
	#DEBUG_VALUE: t0 <- $xmm8
	.loc	7 89 6951                       # crypto_pwhash/argon2/argon2-fill-block-ssse3.c:89:6951
	palignr	$8, %xmm12, %xmm7               # xmm7 = xmm12[8,9,10,11,12,13,14,15],xmm7[0,1,2,3,4,5,6,7]
.Ltmp505:
	#DEBUG_VALUE: t1 <- $xmm7
	#DEBUG_VALUE: fBlaMka:x <- $xmm5
	#DEBUG_VALUE: fBlaMka:y <- $xmm2
	.loc	9 31 23 is_stmt 1               # crypto_pwhash/argon2/blamka-round-ssse3.h:31:23 @[ crypto_pwhash/argon2/argon2-fill-block-ssse3.c:89:7153 ]
	movdqa	%xmm2, %xmm11
.Ltmp506:
	pmuludq	%xmm5, %xmm11
.Ltmp507:
	#DEBUG_VALUE: fBlaMka:z <- $xmm11
	.loc	9 32 26                         # crypto_pwhash/argon2/blamka-round-ssse3.h:32:26 @[ crypto_pwhash/argon2/argon2-fill-block-ssse3.c:89:7153 ]
	paddq	%xmm2, %xmm5
.Ltmp508:
	.loc	9 32 47 is_stmt 0               # crypto_pwhash/argon2/blamka-round-ssse3.h:32:47 @[ crypto_pwhash/argon2/argon2-fill-block-ssse3.c:89:7153 ]
	paddq	%xmm11, %xmm11
.Ltmp509:
	.loc	9 32 12                         # crypto_pwhash/argon2/blamka-round-ssse3.h:32:12 @[ crypto_pwhash/argon2/argon2-fill-block-ssse3.c:89:7153 ]
	paddq	%xmm5, %xmm11
.Ltmp510:
	#DEBUG_VALUE: fBlaMka:x <- $xmm6
	#DEBUG_VALUE: fBlaMka:y <- $xmm1
	.loc	9 31 23 is_stmt 1               # crypto_pwhash/argon2/blamka-round-ssse3.h:31:23 @[ crypto_pwhash/argon2/argon2-fill-block-ssse3.c:89:7217 ]
	movdqa	%xmm1, %xmm10
	pmuludq	%xmm6, %xmm10
.Ltmp511:
	#DEBUG_VALUE: fBlaMka:z <- $xmm10
	.loc	9 32 26                         # crypto_pwhash/argon2/blamka-round-ssse3.h:32:26 @[ crypto_pwhash/argon2/argon2-fill-block-ssse3.c:89:7217 ]
	paddq	%xmm1, %xmm6
.Ltmp512:
	.loc	9 32 47 is_stmt 0               # crypto_pwhash/argon2/blamka-round-ssse3.h:32:47 @[ crypto_pwhash/argon2/argon2-fill-block-ssse3.c:89:7217 ]
	paddq	%xmm10, %xmm10
.Ltmp513:
	.loc	9 32 12                         # crypto_pwhash/argon2/blamka-round-ssse3.h:32:12 @[ crypto_pwhash/argon2/argon2-fill-block-ssse3.c:89:7217 ]
	paddq	%xmm6, %xmm10
.Ltmp514:
	.loc	7 89 7448 is_stmt 1             # crypto_pwhash/argon2/argon2-fill-block-ssse3.c:89:7448
	pshufd	$177, %xmm11, %xmm3             # xmm3 = xmm11[1,0,3,2]
	pshufd	$177, %xmm7, %xmm7              # xmm7 = xmm7[1,0,3,2]
.Ltmp515:
	pxor	%xmm3, %xmm7
.Ltmp516:
	#DEBUG_VALUE: fBlaMka:y <- $xmm7
	.loc	7 89 8107 is_stmt 0             # crypto_pwhash/argon2/argon2-fill-block-ssse3.c:89:8107
	pshufd	$177, %xmm10, %xmm3             # xmm3 = xmm10[1,0,3,2]
	pshufd	$177, %xmm8, %xmm6              # xmm6 = xmm8[1,0,3,2]
	pxor	%xmm3, %xmm6
.Ltmp517:
	#DEBUG_VALUE: fBlaMka:y <- $xmm6
	#DEBUG_VALUE: fBlaMka:x <- $xmm9
	.loc	9 31 23 is_stmt 1               # crypto_pwhash/argon2/blamka-round-ssse3.h:31:23 @[ crypto_pwhash/argon2/argon2-fill-block-ssse3.c:89:8739 ]
	movdqa	%xmm7, %xmm3
	pmuludq	%xmm9, %xmm3
.Ltmp518:
	#DEBUG_VALUE: fBlaMka:z <- $xmm3
	.loc	9 32 26                         # crypto_pwhash/argon2/blamka-round-ssse3.h:32:26 @[ crypto_pwhash/argon2/argon2-fill-block-ssse3.c:89:8739 ]
	paddq	%xmm7, %xmm9
.Ltmp519:
	.loc	9 32 47 is_stmt 0               # crypto_pwhash/argon2/blamka-round-ssse3.h:32:47 @[ crypto_pwhash/argon2/argon2-fill-block-ssse3.c:89:8739 ]
	paddq	%xmm3, %xmm3
.Ltmp520:
	.loc	9 32 12                         # crypto_pwhash/argon2/blamka-round-ssse3.h:32:12 @[ crypto_pwhash/argon2/argon2-fill-block-ssse3.c:89:8739 ]
	paddq	%xmm9, %xmm3
.Ltmp521:
	#DEBUG_VALUE: fBlaMka:x <- $xmm4
	.loc	9 31 23 is_stmt 1               # crypto_pwhash/argon2/blamka-round-ssse3.h:31:23 @[ crypto_pwhash/argon2/argon2-fill-block-ssse3.c:89:8803 ]
	movdqa	%xmm6, %xmm5
	pmuludq	%xmm4, %xmm5
.Ltmp522:
	#DEBUG_VALUE: fBlaMka:z <- $xmm5
	.loc	9 32 26                         # crypto_pwhash/argon2/blamka-round-ssse3.h:32:26 @[ crypto_pwhash/argon2/argon2-fill-block-ssse3.c:89:8803 ]
	paddq	%xmm6, %xmm4
.Ltmp523:
	.loc	9 32 47 is_stmt 0               # crypto_pwhash/argon2/blamka-round-ssse3.h:32:47 @[ crypto_pwhash/argon2/argon2-fill-block-ssse3.c:89:8803 ]
	paddq	%xmm5, %xmm5
.Ltmp524:
	.loc	9 32 12                         # crypto_pwhash/argon2/blamka-round-ssse3.h:32:12 @[ crypto_pwhash/argon2/argon2-fill-block-ssse3.c:89:8803 ]
	paddq	%xmm4, %xmm5
.Ltmp525:
	.loc	7 89 9168 is_stmt 1             # crypto_pwhash/argon2/argon2-fill-block-ssse3.c:89:9168
	movdqa	%xmm3, %xmm4
	pshufb	%xmm0, %xmm4
	pshufb	%xmm0, %xmm2
.Ltmp526:
	pxor	%xmm4, %xmm2
.Ltmp527:
	#DEBUG_VALUE: fBlaMka:y <- $xmm2
	.loc	7 89 9827 is_stmt 0             # crypto_pwhash/argon2/argon2-fill-block-ssse3.c:89:9827
	movdqa	%xmm5, %xmm4
	pshufb	%xmm0, %xmm4
	pshufb	%xmm0, %xmm1
.Ltmp528:
	pxor	%xmm4, %xmm1
.Ltmp529:
	#DEBUG_VALUE: fBlaMka:y <- $xmm1
	#DEBUG_VALUE: fBlaMka:x <- $xmm11
	.loc	9 31 23 is_stmt 1               # crypto_pwhash/argon2/blamka-round-ssse3.h:31:23 @[ crypto_pwhash/argon2/argon2-fill-block-ssse3.c:89:10353 ]
	movdqa	%xmm2, %xmm4
	pmuludq	%xmm11, %xmm4
.Ltmp530:
	#DEBUG_VALUE: fBlaMka:z <- $xmm4
	.loc	9 32 26                         # crypto_pwhash/argon2/blamka-round-ssse3.h:32:26 @[ crypto_pwhash/argon2/argon2-fill-block-ssse3.c:89:10353 ]
	paddq	%xmm2, %xmm11
.Ltmp531:
	.loc	9 32 47 is_stmt 0               # crypto_pwhash/argon2/blamka-round-ssse3.h:32:47 @[ crypto_pwhash/argon2/argon2-fill-block-ssse3.c:89:10353 ]
	paddq	%xmm4, %xmm4
.Ltmp532:
	.loc	9 32 12                         # crypto_pwhash/argon2/blamka-round-ssse3.h:32:12 @[ crypto_pwhash/argon2/argon2-fill-block-ssse3.c:89:10353 ]
	paddq	%xmm11, %xmm4
.Ltmp533:
	.loc	7 89 10351 is_stmt 1            # crypto_pwhash/argon2/argon2-fill-block-ssse3.c:89:10351
	movdqa	%xmm4, 128(%rdi,%rax)
.Ltmp534:
	#DEBUG_VALUE: fBlaMka:x <- $xmm10
	.loc	9 31 23                         # crypto_pwhash/argon2/blamka-round-ssse3.h:31:23 @[ crypto_pwhash/argon2/argon2-fill-block-ssse3.c:89:10417 ]
	movdqa	%xmm1, %xmm8
.Ltmp535:
	pmuludq	%xmm10, %xmm8
.Ltmp536:
	#DEBUG_VALUE: fBlaMka:z <- $xmm8
	.loc	9 32 26                         # crypto_pwhash/argon2/blamka-round-ssse3.h:32:26 @[ crypto_pwhash/argon2/argon2-fill-block-ssse3.c:89:10417 ]
	paddq	%xmm1, %xmm10
.Ltmp537:
	.loc	9 32 47 is_stmt 0               # crypto_pwhash/argon2/blamka-round-ssse3.h:32:47 @[ crypto_pwhash/argon2/argon2-fill-block-ssse3.c:89:10417 ]
	paddq	%xmm8, %xmm8
.Ltmp538:
	.loc	9 32 12                         # crypto_pwhash/argon2/blamka-round-ssse3.h:32:12 @[ crypto_pwhash/argon2/argon2-fill-block-ssse3.c:89:10417 ]
	paddq	%xmm10, %xmm8
.Ltmp539:
	.loc	7 89 10415 is_stmt 1            # crypto_pwhash/argon2/argon2-fill-block-ssse3.c:89:10415
	movdqa	%xmm8, 256(%rdi,%rax)
	.loc	7 89 10909 is_stmt 0            # crypto_pwhash/argon2/argon2-fill-block-ssse3.c:89:10909
	pshuflw	$57, %xmm4, %xmm9               # xmm9 = xmm4[1,2,3,0,4,5,6,7]
	pshuflw	$57, %xmm7, %xmm4               # xmm4 = xmm7[1,2,3,0,4,5,6,7]
	pxor	%xmm9, %xmm4
	pshufhw	$57, %xmm4, %xmm7               # xmm7 = xmm4[0,1,2,3,5,6,7,4]
.Ltmp540:
	#DEBUG_VALUE: fBlaMka:y <- $xmm7
	.loc	7 89 11568                      # crypto_pwhash/argon2/argon2-fill-block-ssse3.c:89:11568
	pshuflw	$57, %xmm8, %xmm8               # xmm8 = xmm8[1,2,3,0,4,5,6,7]
	pshuflw	$57, %xmm6, %xmm6               # xmm6 = xmm6[1,2,3,0,4,5,6,7]
.Ltmp541:
	pxor	%xmm8, %xmm6
	pshufhw	$57, %xmm6, %xmm8               # xmm8 = xmm6[0,1,2,3,5,6,7,4]
.Ltmp542:
	#DEBUG_VALUE: fBlaMka:y <- $xmm8
	#DEBUG_VALUE: fBlaMka:x <- $xmm3
	.loc	9 31 23 is_stmt 1               # crypto_pwhash/argon2/blamka-round-ssse3.h:31:23 @[ crypto_pwhash/argon2/argon2-fill-block-ssse3.c:89:11939 ]
	movdqa	%xmm7, %xmm9
	pmuludq	%xmm3, %xmm9
.Ltmp543:
	#DEBUG_VALUE: fBlaMka:z <- $xmm9
	.loc	9 32 26                         # crypto_pwhash/argon2/blamka-round-ssse3.h:32:26 @[ crypto_pwhash/argon2/argon2-fill-block-ssse3.c:89:11939 ]
	paddq	%xmm7, %xmm3
.Ltmp544:
	.loc	9 32 47 is_stmt 0               # crypto_pwhash/argon2/blamka-round-ssse3.h:32:47 @[ crypto_pwhash/argon2/argon2-fill-block-ssse3.c:89:11939 ]
	paddq	%xmm9, %xmm9
.Ltmp545:
	.loc	9 32 12                         # crypto_pwhash/argon2/blamka-round-ssse3.h:32:12 @[ crypto_pwhash/argon2/argon2-fill-block-ssse3.c:89:11939 ]
	paddq	%xmm3, %xmm9
.Ltmp546:
	#DEBUG_VALUE: fBlaMka:x <- $xmm5
	.loc	9 31 23 is_stmt 1               # crypto_pwhash/argon2/blamka-round-ssse3.h:31:23 @[ crypto_pwhash/argon2/argon2-fill-block-ssse3.c:89:12003 ]
	movdqa	%xmm8, %xmm3
	pmuludq	%xmm5, %xmm3
.Ltmp547:
	#DEBUG_VALUE: fBlaMka:z <- $xmm3
	.loc	9 32 26                         # crypto_pwhash/argon2/blamka-round-ssse3.h:32:26 @[ crypto_pwhash/argon2/argon2-fill-block-ssse3.c:89:12003 ]
	paddq	%xmm8, %xmm5
.Ltmp548:
	.loc	9 32 47 is_stmt 0               # crypto_pwhash/argon2/blamka-round-ssse3.h:32:47 @[ crypto_pwhash/argon2/argon2-fill-block-ssse3.c:89:12003 ]
	paddq	%xmm3, %xmm3
.Ltmp549:
	.loc	9 32 12                         # crypto_pwhash/argon2/blamka-round-ssse3.h:32:12 @[ crypto_pwhash/argon2/argon2-fill-block-ssse3.c:89:12003 ]
	paddq	%xmm5, %xmm3
.Ltmp550:
	.loc	7 89 12067 is_stmt 1            # crypto_pwhash/argon2/argon2-fill-block-ssse3.c:89:12067
	pxor	%xmm9, %xmm2
.Ltmp551:
	.loc	7 89 12137 is_stmt 0            # crypto_pwhash/argon2/argon2-fill-block-ssse3.c:89:12137
	pxor	%xmm3, %xmm1
.Ltmp552:
	.loc	7 89 12622                      # crypto_pwhash/argon2/argon2-fill-block-ssse3.c:89:12622
	movdqa	%xmm2, %xmm5
	psrlq	$63, %xmm5
	paddq	%xmm2, %xmm2
	por	%xmm5, %xmm2
	.loc	7 89 13281                      # crypto_pwhash/argon2/argon2-fill-block-ssse3.c:89:13281
	movdqa	%xmm1, %xmm5
	psrlq	$63, %xmm5
	paddq	%xmm1, %xmm1
	por	%xmm5, %xmm1
.Ltmp553:
	.loc	7 89 13557                      # crypto_pwhash/argon2/argon2-fill-block-ssse3.c:89:13557
	movdqa	%xmm2, %xmm5
	palignr	$8, %xmm1, %xmm5                # xmm5 = xmm1[8,9,10,11,12,13,14,15],xmm5[0,1,2,3,4,5,6,7]
.Ltmp554:
	#DEBUG_VALUE: t0 <- undef
	.loc	7 89 13689                      # crypto_pwhash/argon2/argon2-fill-block-ssse3.c:89:13689
	palignr	$8, %xmm2, %xmm1                # xmm1 = xmm2[8,9,10,11,12,13,14,15],xmm1[0,1,2,3,4,5,6,7]
.Ltmp555:
	#DEBUG_VALUE: t1 <- undef
	.loc	7 89 13815                      # crypto_pwhash/argon2/argon2-fill-block-ssse3.c:89:13815
	movdqa	%xmm5, 384(%rdi,%rax)
	.loc	7 89 13838                      # crypto_pwhash/argon2/argon2-fill-block-ssse3.c:89:13838
	movdqa	%xmm1, 512(%rdi,%rax)
.Ltmp556:
	#DEBUG_VALUE: t0 <- $xmm9
	.loc	7 89 13884                      # crypto_pwhash/argon2/argon2-fill-block-ssse3.c:89:13884
	movdqa	%xmm3, 640(%rdi,%rax)
	.loc	7 89 13921                      # crypto_pwhash/argon2/argon2-fill-block-ssse3.c:89:13921
	movdqa	%xmm9, 768(%rdi,%rax)
	.loc	7 89 13942                      # crypto_pwhash/argon2/argon2-fill-block-ssse3.c:89:13942
	palignr	$8, %xmm8, %xmm4                # xmm4 = xmm8[8,9,10,11,12,13,14,15],xmm4[0,1,2,3,4,5,6,7]
.Ltmp557:
	#DEBUG_VALUE: t0 <- $xmm4
	.loc	7 89 14066                      # crypto_pwhash/argon2/argon2-fill-block-ssse3.c:89:14066
	palignr	$8, %xmm7, %xmm6                # xmm6 = xmm7[8,9,10,11,12,13,14,15],xmm6[0,1,2,3,4,5,6,7]
.Ltmp558:
	#DEBUG_VALUE: t1 <- $xmm6
	.loc	7 89 14192                      # crypto_pwhash/argon2/argon2-fill-block-ssse3.c:89:14192
	movdqa	%xmm6, 896(%rdi,%rax)
	.loc	7 89 14215                      # crypto_pwhash/argon2/argon2-fill-block-ssse3.c:89:14215
	movdqa	%xmm4, 1024(%rdi,%rax)
.Ltmp559:
	#DEBUG_VALUE: fill_block_with_xor:i <- [DW_OP_consts 18446744073709551488, DW_OP_minus, DW_OP_consts 16, DW_OP_div, DW_OP_consts 1, DW_OP_plus, DW_OP_stack_value] $rax
	.loc	7 88 19 is_stmt 1               # crypto_pwhash/argon2/argon2-fill-block-ssse3.c:88:19
	addq	$16, %rax
.Ltmp560:
	.loc	7 88 5 is_stmt 0                # crypto_pwhash/argon2/argon2-fill-block-ssse3.c:88:5
	jne	.LBB1_5
.Ltmp561:
# %bb.6:                                # %.preheader.preheader
	#DEBUG_VALUE: fill_block_with_xor:state <- $rdi
	#DEBUG_VALUE: fill_block_with_xor:ref_block <- $rsi
	#DEBUG_VALUE: fill_block_with_xor:next_block <- $rdx
	#DEBUG_VALUE: fBlaMka:y <- $xmm12
	#DEBUG_VALUE: fBlaMka:y <- $xmm7
	#DEBUG_VALUE: fBlaMka:y <- $xmm8
	#DEBUG_VALUE: t0 <- $xmm4
	#DEBUG_VALUE: t1 <- $xmm6
	.loc	7 0 5                           # crypto_pwhash/argon2/argon2-fill-block-ssse3.c:0:5
	movl	$16, %eax
.Ltmp562:
	.p2align	4
.LBB1_7:                                # %.preheader
                                        # =>This Inner Loop Header: Depth=1
	#DEBUG_VALUE: fill_block_with_xor:state <- $rdi
	#DEBUG_VALUE: fill_block_with_xor:ref_block <- $rsi
	#DEBUG_VALUE: fill_block_with_xor:next_block <- $rdx
	#DEBUG_VALUE: fill_block_with_xor:i <- [DW_OP_consts 16, DW_OP_minus, DW_OP_consts 32, DW_OP_div, DW_OP_consts 2, DW_OP_mul, DW_OP_stack_value] $rax
	.loc	7 95 44 is_stmt 1               # crypto_pwhash/argon2/argon2-fill-block-ssse3.c:95:44
	movaps	-144(%rsp,%rax), %xmm0
	.loc	7 95 20 is_stmt 0               # crypto_pwhash/argon2/argon2-fill-block-ssse3.c:95:20
	xorps	-16(%rdi,%rax), %xmm0
	.loc	7 95 18                         # crypto_pwhash/argon2/argon2-fill-block-ssse3.c:95:18
	movaps	%xmm0, -16(%rdi,%rax)
	.loc	7 96 9 is_stmt 1                # crypto_pwhash/argon2/argon2-fill-block-ssse3.c:96:9
	movups	%xmm0, -16(%rdx,%rax)
.Ltmp563:
	#DEBUG_VALUE: fill_block_with_xor:i <- [DW_OP_consts 16, DW_OP_minus, DW_OP_consts 32, DW_OP_div, DW_OP_consts 2, DW_OP_mul, DW_OP_consts 1, DW_OP_plus, DW_OP_stack_value] $rax
	.loc	7 95 44                         # crypto_pwhash/argon2/argon2-fill-block-ssse3.c:95:44
	movdqa	-128(%rsp,%rax), %xmm0
	.loc	7 95 20 is_stmt 0               # crypto_pwhash/argon2/argon2-fill-block-ssse3.c:95:20
	pxor	(%rdi,%rax), %xmm0
	.loc	7 95 18                         # crypto_pwhash/argon2/argon2-fill-block-ssse3.c:95:18
	movdqa	%xmm0, (%rdi,%rax)
	.loc	7 96 9 is_stmt 1                # crypto_pwhash/argon2/argon2-fill-block-ssse3.c:96:9
	movdqu	%xmm0, (%rdx,%rax)
.Ltmp564:
	#DEBUG_VALUE: fill_block_with_xor:i <- [DW_OP_consts 16, DW_OP_minus, DW_OP_consts 32, DW_OP_div, DW_OP_consts 2, DW_OP_mul, DW_OP_consts 2, DW_OP_plus, DW_OP_stack_value] $rax
	.loc	7 94 19                         # crypto_pwhash/argon2/argon2-fill-block-ssse3.c:94:19
	addq	$32, %rax
.Ltmp565:
	cmpq	$1040, %rax                     # imm = 0x410
.Ltmp566:
	.loc	7 94 5 is_stmt 0                # crypto_pwhash/argon2/argon2-fill-block-ssse3.c:94:5
	jne	.LBB1_7
.Ltmp567:
# %bb.8:
	#DEBUG_VALUE: fill_block_with_xor:state <- $rdi
	#DEBUG_VALUE: fill_block_with_xor:ref_block <- $rsi
	#DEBUG_VALUE: fill_block_with_xor:next_block <- $rdx
	.loc	7 98 1 epilogue_begin is_stmt 1 # crypto_pwhash/argon2/argon2-fill-block-ssse3.c:98:1
	addq	$904, %rsp                      # imm = 0x388
	.cfi_def_cfa_offset 8
	retq
.Ltmp568:
.Lfunc_end1:
	.size	fill_block_with_xor, .Lfunc_end1-fill_block_with_xor
	.cfi_endproc
                                        # -- End function
	.section	".note.GNU-stack","",@progbits
	.addrsig