	.file	"auth_hmacsha256.c"
	.file	0 "/home/leizhenyuu/opt/Anonymous_Repo/libsodium_o2_attr_inline/src/libsodium" "auth_hmacsha256.c" md5 0x17cbce7884cdcc4d80f248fea5f28e70
	.text
	.globl	crypto_auth_hmacsha256_bytes    # -- Begin function crypto_auth_hmacsha256_bytes
	.p2align	4
	.type	crypto_auth_hmacsha256_bytes,@function
crypto_auth_hmacsha256_bytes:           # @crypto_auth_hmacsha256_bytes
.Lfunc_begin0:
	.cfi_startproc
# %bb.0:
	.file	1 "crypto_auth/hmacsha256" "auth_hmacsha256.c"
	.loc	1 15 5 prologue_end             # crypto_auth/hmacsha256/auth_hmacsha256.c:15:5
	movl	$32, %eax
	retq
.Ltmp0:
.Lfunc_end0:
	.size	crypto_auth_hmacsha256_bytes, .Lfunc_end0-crypto_auth_hmacsha256_bytes
	.cfi_endproc
                                        # -- End function
	.globl	crypto_auth_hmacsha256_keybytes # -- Begin function crypto_auth_hmacsha256_keybytes
	.p2align	4
	.type	crypto_auth_hmacsha256_keybytes,@function
crypto_auth_hmacsha256_keybytes:        # @crypto_auth_hmacsha256_keybytes
.Lfunc_begin1:
	.cfi_startproc
# %bb.0:
	.loc	1 21 5 prologue_end             # crypto_auth/hmacsha256/auth_hmacsha256.c:21:5
	movl	$32, %eax
	retq
.Ltmp1:
.Lfunc_end1:
	.size	crypto_auth_hmacsha256_keybytes, .Lfunc_end1-crypto_auth_hmacsha256_keybytes
	.cfi_endproc
                                        # -- End function
	.globl	crypto_auth_hmacsha256_statebytes # -- Begin function crypto_auth_hmacsha256_statebytes
	.p2align	4
	.type	crypto_auth_hmacsha256_statebytes,@function
crypto_auth_hmacsha256_statebytes:      # @crypto_auth_hmacsha256_statebytes
.Lfunc_begin2:
	.cfi_startproc
# %bb.0:
	.loc	1 27 5 prologue_end             # crypto_auth/hmacsha256/auth_hmacsha256.c:27:5
	movl	$208, %eax
	retq
.Ltmp2:
.Lfunc_end2:
	.size	crypto_auth_hmacsha256_statebytes, .Lfunc_end2-crypto_auth_hmacsha256_statebytes
	.cfi_endproc
                                        # -- End function
	.globl	crypto_auth_hmacsha256_keygen   # -- Begin function crypto_auth_hmacsha256_keygen
	.p2align	4
	.type	crypto_auth_hmacsha256_keygen,@function
crypto_auth_hmacsha256_keygen:          # @crypto_auth_hmacsha256_keygen
.Lfunc_begin3:
	.cfi_startproc
# %bb.0:
	#DEBUG_VALUE: crypto_auth_hmacsha256_keygen:k <- $rdi
	.loc	1 33 5 prologue_end             # crypto_auth/hmacsha256/auth_hmacsha256.c:33:5
	movl	$32, %esi
.Ltmp3:
	jmp	randombytes_buf@PLT             # TAILCALL
.Ltmp4:
.Lfunc_end3:
	.size	crypto_auth_hmacsha256_keygen, .Lfunc_end3-crypto_auth_hmacsha256_keygen
	.cfi_endproc
	.file	2 "./include/sodium" "randombytes.h"
	.file	3 "/home/leizhenyuu/opt/Anonymous_Repo" "llvm-project/build/lib/clang/21/include/__stddef_size_t.h"
                                        # -- End function
	.section	.rodata.cst16,"aM",@progbits,16
	.p2align	4, 0x0                          # -- Begin function crypto_auth_hmacsha256_init
.LCPI4_0:
	.zero	16,54
.LCPI4_1:
	.zero	16,92
	.text
	.globl	crypto_auth_hmacsha256_init
	.p2align	4
	.type	crypto_auth_hmacsha256_init,@function
crypto_auth_hmacsha256_init:            # @crypto_auth_hmacsha256_init
.Lfunc_begin4:
	.loc	1 39 0                          # crypto_auth/hmacsha256/auth_hmacsha256.c:39:0
	.cfi_startproc
# %bb.0:
	#DEBUG_VALUE: crypto_auth_hmacsha256_init:state <- $rdi
	#DEBUG_VALUE: crypto_auth_hmacsha256_init:key <- $rsi
	#DEBUG_VALUE: crypto_auth_hmacsha256_init:keylen <- $rdx
	pushq	%r15
	.cfi_def_cfa_offset 16
	pushq	%r14
	.cfi_def_cfa_offset 24
	pushq	%rbx
	.cfi_def_cfa_offset 32
	subq	$112, %rsp
	.cfi_def_cfa_offset 144
	.cfi_offset %rbx, -32
	.cfi_offset %r14, -24
	.cfi_offset %r15, -16
	movq	%rdx, %r15
	movq	%rsi, %r14
	movq	%rdi, %rbx
	movq	%fs:40, %rax
	movq	%rax, 104(%rsp)
.Ltmp5:
	.loc	1 44 16 prologue_end            # crypto_auth/hmacsha256/auth_hmacsha256.c:44:16
	cmpq	$65, %rdx
	jb	.LBB4_2
.Ltmp6:
# %bb.1:
	#DEBUG_VALUE: crypto_auth_hmacsha256_init:state <- $rbx
	#DEBUG_VALUE: crypto_auth_hmacsha256_init:key <- $r14
	#DEBUG_VALUE: crypto_auth_hmacsha256_init:keylen <- $r15
	.loc	1 45 9                          # crypto_auth/hmacsha256/auth_hmacsha256.c:45:9
	movq	%rbx, %rdi
	callq	crypto_hash_sha256_init@PLT
.Ltmp7:
	.loc	1 46 9                          # crypto_auth/hmacsha256/auth_hmacsha256.c:46:9
	movq	%rbx, %rdi
	movq	%r14, %rsi
	movq	%r15, %rdx
	callq	crypto_hash_sha256_update@PLT
.Ltmp8:
	.loc	1 0 9 is_stmt 0                 # crypto_auth/hmacsha256/auth_hmacsha256.c:0:9
	movq	%rsp, %r14
.Ltmp9:
	#DEBUG_VALUE: crypto_auth_hmacsha256_init:key <- [DW_OP_LLVM_entry_value 1] $rsi
	.loc	1 47 9 is_stmt 1                # crypto_auth/hmacsha256/auth_hmacsha256.c:47:9
	movq	%rbx, %rdi
	movq	%r14, %rsi
	callq	crypto_hash_sha256_final@PLT
.Ltmp10:
	.loc	1 0 9 is_stmt 0                 # crypto_auth/hmacsha256/auth_hmacsha256.c:0:9
	movl	$32, %r15d
.Ltmp11:
	#DEBUG_VALUE: crypto_auth_hmacsha256_init:keylen <- [DW_OP_LLVM_entry_value 1] $rdx
	#DEBUG_VALUE: crypto_auth_hmacsha256_init:key <- $rsp
	#DEBUG_VALUE: crypto_auth_hmacsha256_init:keylen <- 32
.LBB4_2:
	#DEBUG_VALUE: crypto_auth_hmacsha256_init:state <- $rbx
	#DEBUG_VALUE: crypto_auth_hmacsha256_init:key <- $r14
	#DEBUG_VALUE: crypto_auth_hmacsha256_init:keylen <- $r15
	#DEBUG_VALUE: crypto_auth_hmacsha256_init:key <- $r14
	.loc	1 51 5 is_stmt 1                # crypto_auth/hmacsha256/auth_hmacsha256.c:51:5
	movq	%rbx, %rdi
	callq	crypto_hash_sha256_init@PLT
.Ltmp12:
	#DEBUG_VALUE: memset:__dest <- [DW_OP_plus_uconst 32, DW_OP_stack_value] $rsp
	#DEBUG_VALUE: memset:__ch <- 54
	#DEBUG_VALUE: memset:__len <- 64
	.file	4 "/usr/include/x86_64-linux-gnu/bits" "string_fortified.h"
	.loc	4 59 10                         # /usr/include/x86_64-linux-gnu/bits/string_fortified.h:59:10 @[ crypto_auth/hmacsha256/auth_hmacsha256.c:52:5 ]
	movaps	.LCPI4_0(%rip), %xmm0           # xmm0 = [54,54,54,54,54,54,54,54,54,54,54,54,54,54,54,54]
	movaps	%xmm0, 32(%rsp)
	movaps	%xmm0, 48(%rsp)
	movaps	%xmm0, 64(%rsp)
	movaps	%xmm0, 80(%rsp)
.Ltmp13:
	#DEBUG_VALUE: crypto_auth_hmacsha256_init:i <- 0
	.loc	1 53 19                         # crypto_auth/hmacsha256/auth_hmacsha256.c:53:19
	testq	%r15, %r15
.Ltmp14:
	.loc	1 53 5 is_stmt 0                # crypto_auth/hmacsha256/auth_hmacsha256.c:53:5
	je	.LBB4_20
.Ltmp15:
# %bb.3:                                # %iter.check
	#DEBUG_VALUE: crypto_auth_hmacsha256_init:state <- $rbx
	#DEBUG_VALUE: crypto_auth_hmacsha256_init:key <- $r14
	#DEBUG_VALUE: crypto_auth_hmacsha256_init:keylen <- $r15
	#DEBUG_VALUE: crypto_auth_hmacsha256_init:i <- 0
	cmpq	$4, %r15
	jae	.LBB4_6
.Ltmp16:
# %bb.4:
	#DEBUG_VALUE: crypto_auth_hmacsha256_init:state <- $rbx
	#DEBUG_VALUE: crypto_auth_hmacsha256_init:key <- $r14
	#DEBUG_VALUE: crypto_auth_hmacsha256_init:keylen <- $r15
	#DEBUG_VALUE: crypto_auth_hmacsha256_init:i <- 0
	.loc	1 0 5                           # crypto_auth/hmacsha256/auth_hmacsha256.c:0:5
	xorl	%eax, %eax
	jmp	.LBB4_5
.Ltmp17:
.LBB4_6:                                # %vector.main.loop.iter.check
	#DEBUG_VALUE: crypto_auth_hmacsha256_init:state <- $rbx
	#DEBUG_VALUE: crypto_auth_hmacsha256_init:key <- $r14
	#DEBUG_VALUE: crypto_auth_hmacsha256_init:keylen <- $r15
	#DEBUG_VALUE: crypto_auth_hmacsha256_init:i <- 0
	.loc	1 53 5                          # crypto_auth/hmacsha256/auth_hmacsha256.c:53:5
	cmpq	$16, %r15
	jae	.LBB4_8
.Ltmp18:
# %bb.7:
	#DEBUG_VALUE: crypto_auth_hmacsha256_init:state <- $rbx
	#DEBUG_VALUE: crypto_auth_hmacsha256_init:key <- $r14
	#DEBUG_VALUE: crypto_auth_hmacsha256_init:keylen <- $r15
	#DEBUG_VALUE: crypto_auth_hmacsha256_init:i <- 0
	.loc	1 0 5                           # crypto_auth/hmacsha256/auth_hmacsha256.c:0:5
	xorl	%eax, %eax
	.loc	1 53 5                          # crypto_auth/hmacsha256/auth_hmacsha256.c:53:5
	jmp	.LBB4_17
.Ltmp19:
.LBB4_8:                                # %vector.ph
	#DEBUG_VALUE: crypto_auth_hmacsha256_init:state <- $rbx
	#DEBUG_VALUE: crypto_auth_hmacsha256_init:key <- $r14
	#DEBUG_VALUE: crypto_auth_hmacsha256_init:keylen <- $r15
	#DEBUG_VALUE: crypto_auth_hmacsha256_init:i <- 0
	movl	%r15d, %eax
	andl	$112, %eax
.Ltmp20:
	.loc	1 54 19 is_stmt 1               # crypto_auth/hmacsha256/auth_hmacsha256.c:54:19
	movq	(%r14), %rcx
	movq	8(%r14), %rdx
	.loc	1 54 16 is_stmt 0               # crypto_auth/hmacsha256/auth_hmacsha256.c:54:16
	xorq	%rcx, 32(%rsp)
	xorq	%rdx, 40(%rsp)
.Ltmp21:
	.loc	1 53 30 is_stmt 1               # crypto_auth/hmacsha256/auth_hmacsha256.c:53:30
	cmpq	$16, %rax
	je	.LBB4_15
.Ltmp22:
# %bb.9:                                # %vector.body.1
	#DEBUG_VALUE: crypto_auth_hmacsha256_init:state <- $rbx
	#DEBUG_VALUE: crypto_auth_hmacsha256_init:key <- $r14
	#DEBUG_VALUE: crypto_auth_hmacsha256_init:keylen <- $r15
	#DEBUG_VALUE: crypto_auth_hmacsha256_init:i <- 0
	.loc	1 54 19                         # crypto_auth/hmacsha256/auth_hmacsha256.c:54:19
	movq	16(%r14), %rcx
	movq	24(%r14), %rdx
	.loc	1 54 16 is_stmt 0               # crypto_auth/hmacsha256/auth_hmacsha256.c:54:16
	xorq	%rcx, 48(%rsp)
	xorq	%rdx, 56(%rsp)
.Ltmp23:
	.loc	1 53 30 is_stmt 1               # crypto_auth/hmacsha256/auth_hmacsha256.c:53:30
	cmpl	$32, %eax
	je	.LBB4_15
.Ltmp24:
# %bb.10:                               # %vector.body.2
	#DEBUG_VALUE: crypto_auth_hmacsha256_init:state <- $rbx
	#DEBUG_VALUE: crypto_auth_hmacsha256_init:key <- $r14
	#DEBUG_VALUE: crypto_auth_hmacsha256_init:keylen <- $r15
	#DEBUG_VALUE: crypto_auth_hmacsha256_init:i <- 0
	.loc	1 54 19                         # crypto_auth/hmacsha256/auth_hmacsha256.c:54:19
	movq	32(%r14), %rcx
	movq	40(%r14), %rdx
	.loc	1 54 16 is_stmt 0               # crypto_auth/hmacsha256/auth_hmacsha256.c:54:16
	xorq	%rcx, 64(%rsp)
	xorq	%rdx, 72(%rsp)
.Ltmp25:
	.loc	1 53 30 is_stmt 1               # crypto_auth/hmacsha256/auth_hmacsha256.c:53:30
	cmpl	$48, %eax
	je	.LBB4_15
.Ltmp26:
# %bb.11:                               # %vector.body.3
	#DEBUG_VALUE: crypto_auth_hmacsha256_init:state <- $rbx
	#DEBUG_VALUE: crypto_auth_hmacsha256_init:key <- $r14
	#DEBUG_VALUE: crypto_auth_hmacsha256_init:keylen <- $r15
	#DEBUG_VALUE: crypto_auth_hmacsha256_init:i <- 0
	.loc	1 54 19                         # crypto_auth/hmacsha256/auth_hmacsha256.c:54:19
	movq	48(%r14), %rcx
	movq	56(%r14), %rdx
	.loc	1 54 16 is_stmt 0               # crypto_auth/hmacsha256/auth_hmacsha256.c:54:16
	xorq	%rcx, 80(%rsp)
	xorq	%rdx, 88(%rsp)
.Ltmp27:
	.loc	1 53 30 is_stmt 1               # crypto_auth/hmacsha256/auth_hmacsha256.c:53:30
	cmpl	$64, %eax
	je	.LBB4_15
.Ltmp28:
# %bb.12:                               # %vector.body.4
	#DEBUG_VALUE: crypto_auth_hmacsha256_init:state <- $rbx
	#DEBUG_VALUE: crypto_auth_hmacsha256_init:key <- $r14
	#DEBUG_VALUE: crypto_auth_hmacsha256_init:keylen <- $r15
	#DEBUG_VALUE: crypto_auth_hmacsha256_init:i <- 0
	.loc	1 54 19                         # crypto_auth/hmacsha256/auth_hmacsha256.c:54:19
	movq	64(%r14), %rcx
	movq	72(%r14), %rdx
	.loc	1 54 16 is_stmt 0               # crypto_auth/hmacsha256/auth_hmacsha256.c:54:16
	xorq	%rcx, 96(%rsp)
	xorq	%rdx, 104(%rsp)
.Ltmp29:
	.loc	1 53 30 is_stmt 1               # crypto_auth/hmacsha256/auth_hmacsha256.c:53:30
	cmpl	$80, %eax
	je	.LBB4_15
.Ltmp30:
# %bb.13:                               # %vector.body.5
	#DEBUG_VALUE: crypto_auth_hmacsha256_init:state <- $rbx
	#DEBUG_VALUE: crypto_auth_hmacsha256_init:key <- $r14
	#DEBUG_VALUE: crypto_auth_hmacsha256_init:keylen <- $r15
	#DEBUG_VALUE: crypto_auth_hmacsha256_init:i <- 0
	.loc	1 54 19                         # crypto_auth/hmacsha256/auth_hmacsha256.c:54:19
	movq	80(%r14), %rcx
	movq	88(%r14), %rdx
	.loc	1 54 16 is_stmt 0               # crypto_auth/hmacsha256/auth_hmacsha256.c:54:16
	xorq	%rcx, 112(%rsp)
	xorq	%rdx, 120(%rsp)
.Ltmp31:
	.loc	1 53 30 is_stmt 1               # crypto_auth/hmacsha256/auth_hmacsha256.c:53:30
	cmpl	$96, %eax
	je	.LBB4_15
.Ltmp32:
# %bb.14:                               # %vector.body.6
	#DEBUG_VALUE: crypto_auth_hmacsha256_init:state <- $rbx
	#DEBUG_VALUE: crypto_auth_hmacsha256_init:key <- $r14
	#DEBUG_VALUE: crypto_auth_hmacsha256_init:keylen <- $r15
	#DEBUG_VALUE: crypto_auth_hmacsha256_init:i <- 0
	.loc	1 54 19                         # crypto_auth/hmacsha256/auth_hmacsha256.c:54:19
	movq	96(%r14), %rcx
	movq	104(%r14), %rdx
	.loc	1 54 16 is_stmt 0               # crypto_auth/hmacsha256/auth_hmacsha256.c:54:16
	xorq	%rcx, 128(%rsp)
	xorq	%rdx, 136(%rsp)
.Ltmp33:
.LBB4_15:                               # %middle.block
	#DEBUG_VALUE: crypto_auth_hmacsha256_init:state <- $rbx
	#DEBUG_VALUE: crypto_auth_hmacsha256_init:key <- $r14
	#DEBUG_VALUE: crypto_auth_hmacsha256_init:keylen <- $r15
	#DEBUG_VALUE: crypto_auth_hmacsha256_init:i <- 0
	.loc	1 53 5 is_stmt 1                # crypto_auth/hmacsha256/auth_hmacsha256.c:53:5
	cmpq	%rax, %r15
	je	.LBB4_20
.Ltmp34:
# %bb.16:                               # %vec.epilog.iter.check
	#DEBUG_VALUE: crypto_auth_hmacsha256_init:state <- $rbx
	#DEBUG_VALUE: crypto_auth_hmacsha256_init:key <- $r14
	#DEBUG_VALUE: crypto_auth_hmacsha256_init:keylen <- $r15
	#DEBUG_VALUE: crypto_auth_hmacsha256_init:i <- 0
	testb	$12, %r15b
	je	.LBB4_5
.Ltmp35:
.LBB4_17:                               # %vec.epilog.ph
	#DEBUG_VALUE: crypto_auth_hmacsha256_init:state <- $rbx
	#DEBUG_VALUE: crypto_auth_hmacsha256_init:key <- $r14
	#DEBUG_VALUE: crypto_auth_hmacsha256_init:keylen <- $r15
	#DEBUG_VALUE: crypto_auth_hmacsha256_init:i <- 0
	.loc	1 0 5 is_stmt 0                 # crypto_auth/hmacsha256/auth_hmacsha256.c:0:5
	movq	%rax, %rcx
	.loc	1 53 5                          # crypto_auth/hmacsha256/auth_hmacsha256.c:53:5
	movl	%r15d, %eax
	andl	$124, %eax
.Ltmp36:
	.loc	1 0 5                           # :0:5
.Ltmp37:
	.p2align	4
.LBB4_18:                               # %vec.epilog.vector.body
                                        # =>This Inner Loop Header: Depth=1
	#DEBUG_VALUE: crypto_auth_hmacsha256_init:state <- $rbx
	#DEBUG_VALUE: crypto_auth_hmacsha256_init:key <- $r14
	#DEBUG_VALUE: crypto_auth_hmacsha256_init:keylen <- $r15
	#DEBUG_VALUE: crypto_auth_hmacsha256_init:i <- 0
	.loc	1 54 19 is_stmt 1               # crypto_auth/hmacsha256/auth_hmacsha256.c:54:19
	movl	(%r14,%rcx), %edx
	.loc	1 54 16 is_stmt 0               # crypto_auth/hmacsha256/auth_hmacsha256.c:54:16
	xorl	%edx, 32(%rsp,%rcx)
.Ltmp38:
	.loc	1 53 30 is_stmt 1               # crypto_auth/hmacsha256/auth_hmacsha256.c:53:30
	addq	$4, %rcx
	cmpq	%rcx, %rax
	jne	.LBB4_18
	jmp	.LBB4_19
.Ltmp39:
.LBB4_5:                                # %.lr.ph
	#DEBUG_VALUE: crypto_auth_hmacsha256_init:state <- $rbx
	#DEBUG_VALUE: crypto_auth_hmacsha256_init:key <- $r14
	#DEBUG_VALUE: crypto_auth_hmacsha256_init:keylen <- $r15
	#DEBUG_VALUE: crypto_auth_hmacsha256_init:i <- $rax
	.loc	1 54 19                         # crypto_auth/hmacsha256/auth_hmacsha256.c:54:19
	movzbl	(%r14,%rax), %ecx
	.loc	1 54 16 is_stmt 0               # crypto_auth/hmacsha256/auth_hmacsha256.c:54:16
	xorb	%cl, 32(%rsp,%rax)
.Ltmp40:
	.loc	1 53 30 is_stmt 1               # crypto_auth/hmacsha256/auth_hmacsha256.c:53:30
	incq	%rax
.Ltmp41:
	#DEBUG_VALUE: crypto_auth_hmacsha256_init:i <- $rax
.LBB4_19:                               # %.lr.ph
	#DEBUG_VALUE: crypto_auth_hmacsha256_init:state <- $rbx
	#DEBUG_VALUE: crypto_auth_hmacsha256_init:key <- $r14
	#DEBUG_VALUE: crypto_auth_hmacsha256_init:keylen <- $r15
	.loc	1 53 0 is_stmt 0                # crypto_auth/hmacsha256/auth_hmacsha256.c:53
	cmpq	%rax, %r15
	.loc	1 53 5                          # crypto_auth/hmacsha256/auth_hmacsha256.c:53:5
	jne	.LBB4_5
.Ltmp42:
.LBB4_20:                               # %._crit_edge
	#DEBUG_VALUE: crypto_auth_hmacsha256_init:state <- $rbx
	#DEBUG_VALUE: crypto_auth_hmacsha256_init:key <- $r14
	#DEBUG_VALUE: crypto_auth_hmacsha256_init:keylen <- $r15
	.loc	1 0 5                           # crypto_auth/hmacsha256/auth_hmacsha256.c:0:5
	leaq	32(%rsp), %rsi
	.loc	1 56 5 is_stmt 1                # crypto_auth/hmacsha256/auth_hmacsha256.c:56:5
	movl	$64, %edx
	movq	%rbx, %rdi
	callq	crypto_hash_sha256_update@PLT
.Ltmp43:
	.loc	1 58 37                         # crypto_auth/hmacsha256/auth_hmacsha256.c:58:37
	addq	$104, %rbx
.Ltmp44:
	#DEBUG_VALUE: crypto_auth_hmacsha256_init:state <- [DW_OP_LLVM_entry_value 1] $rdi
	.loc	1 58 5 is_stmt 0                # crypto_auth/hmacsha256/auth_hmacsha256.c:58:5
	movq	%rbx, %rdi
	callq	crypto_hash_sha256_init@PLT
.Ltmp45:
	.loc	4 59 10 is_stmt 1               # /usr/include/x86_64-linux-gnu/bits/string_fortified.h:59:10 @[ crypto_auth/hmacsha256/auth_hmacsha256.c:59:5 ]
	movaps	.LCPI4_1(%rip), %xmm0           # xmm0 = [92,92,92,92,92,92,92,92,92,92,92,92,92,92,92,92]
	movaps	%xmm0, 32(%rsp)
	movaps	%xmm0, 48(%rsp)
	movaps	%xmm0, 64(%rsp)
	movaps	%xmm0, 80(%rsp)
.Ltmp46:
	#DEBUG_VALUE: crypto_auth_hmacsha256_init:i <- 0
	.loc	1 53 19                         # crypto_auth/hmacsha256/auth_hmacsha256.c:53:19
	testq	%r15, %r15
.Ltmp47:
	#DEBUG_VALUE: memset:__dest <- [DW_OP_plus_uconst 32, DW_OP_stack_value] $rsp
	#DEBUG_VALUE: memset:__ch <- 92
	#DEBUG_VALUE: memset:__len <- 64
	.loc	1 60 5                          # crypto_auth/hmacsha256/auth_hmacsha256.c:60:5
	je	.LBB4_38
.Ltmp48:
# %bb.21:                               # %iter.check45
	#DEBUG_VALUE: crypto_auth_hmacsha256_init:state <- [DW_OP_LLVM_entry_value 1] $rdi
	#DEBUG_VALUE: crypto_auth_hmacsha256_init:key <- $r14
	#DEBUG_VALUE: crypto_auth_hmacsha256_init:keylen <- $r15
	#DEBUG_VALUE: crypto_auth_hmacsha256_init:i <- 0
	cmpq	$4, %r15
	jae	.LBB4_24
.Ltmp49:
# %bb.22:
	#DEBUG_VALUE: crypto_auth_hmacsha256_init:state <- [DW_OP_LLVM_entry_value 1] $rdi
	#DEBUG_VALUE: crypto_auth_hmacsha256_init:key <- $r14
	#DEBUG_VALUE: crypto_auth_hmacsha256_init:keylen <- $r15
	#DEBUG_VALUE: crypto_auth_hmacsha256_init:i <- 0
	.loc	1 0 5 is_stmt 0                 # crypto_auth/hmacsha256/auth_hmacsha256.c:0:5
	xorl	%eax, %eax
	jmp	.LBB4_23
.Ltmp50:
.LBB4_24:                               # %vector.main.loop.iter.check47
	#DEBUG_VALUE: crypto_auth_hmacsha256_init:state <- [DW_OP_LLVM_entry_value 1] $rdi
	#DEBUG_VALUE: crypto_auth_hmacsha256_init:key <- $r14
	#DEBUG_VALUE: crypto_auth_hmacsha256_init:keylen <- $r15
	#DEBUG_VALUE: crypto_auth_hmacsha256_init:i <- 0
	.loc	1 60 5                          # crypto_auth/hmacsha256/auth_hmacsha256.c:60:5
	cmpq	$16, %r15
	jae	.LBB4_26
.Ltmp51:
# %bb.25:
	#DEBUG_VALUE: crypto_auth_hmacsha256_init:state <- [DW_OP_LLVM_entry_value 1] $rdi
	#DEBUG_VALUE: crypto_auth_hmacsha256_init:key <- $r14
	#DEBUG_VALUE: crypto_auth_hmacsha256_init:keylen <- $r15
	#DEBUG_VALUE: crypto_auth_hmacsha256_init:i <- 0
	.loc	1 0 5                           # crypto_auth/hmacsha256/auth_hmacsha256.c:0:5
	xorl	%eax, %eax
	.loc	1 60 5                          # crypto_auth/hmacsha256/auth_hmacsha256.c:60:5
	jmp	.LBB4_35
.Ltmp52:
.LBB4_26:                               # %vector.ph48
	#DEBUG_VALUE: crypto_auth_hmacsha256_init:state <- [DW_OP_LLVM_entry_value 1] $rdi
	#DEBUG_VALUE: crypto_auth_hmacsha256_init:key <- $r14
	#DEBUG_VALUE: crypto_auth_hmacsha256_init:keylen <- $r15
	#DEBUG_VALUE: crypto_auth_hmacsha256_init:i <- 0
	movl	%r15d, %eax
	andl	$112, %eax
.Ltmp53:
	.loc	1 61 19 is_stmt 1               # crypto_auth/hmacsha256/auth_hmacsha256.c:61:19
	movq	(%r14), %rcx
	movq	8(%r14), %rdx
	.loc	1 61 16 is_stmt 0               # crypto_auth/hmacsha256/auth_hmacsha256.c:61:16
	xorq	%rcx, 32(%rsp)
	xorq	%rdx, 40(%rsp)
.Ltmp54:
	.loc	1 60 30 is_stmt 1               # crypto_auth/hmacsha256/auth_hmacsha256.c:60:30
	cmpq	$16, %rax
	je	.LBB4_33
.Ltmp55:
# %bb.27:                               # %vector.body51.1
	#DEBUG_VALUE: crypto_auth_hmacsha256_init:state <- [DW_OP_LLVM_entry_value 1] $rdi
	#DEBUG_VALUE: crypto_auth_hmacsha256_init:key <- $r14
	#DEBUG_VALUE: crypto_auth_hmacsha256_init:keylen <- $r15
	#DEBUG_VALUE: crypto_auth_hmacsha256_init:i <- 0
	.loc	1 61 19                         # crypto_auth/hmacsha256/auth_hmacsha256.c:61:19
	movq	16(%r14), %rcx
	movq	24(%r14), %rdx
	.loc	1 61 16 is_stmt 0               # crypto_auth/hmacsha256/auth_hmacsha256.c:61:16
	xorq	%rcx, 48(%rsp)
	xorq	%rdx, 56(%rsp)
.Ltmp56:
	.loc	1 60 30 is_stmt 1               # crypto_auth/hmacsha256/auth_hmacsha256.c:60:30
	cmpl	$32, %eax
	je	.LBB4_33
.Ltmp57:
# %bb.28:                               # %vector.body51.2
	#DEBUG_VALUE: crypto_auth_hmacsha256_init:state <- [DW_OP_LLVM_entry_value 1] $rdi
	#DEBUG_VALUE: crypto_auth_hmacsha256_init:key <- $r14
	#DEBUG_VALUE: crypto_auth_hmacsha256_init:keylen <- $r15
	#DEBUG_VALUE: crypto_auth_hmacsha256_init:i <- 0
	.loc	1 61 19                         # crypto_auth/hmacsha256/auth_hmacsha256.c:61:19
	movq	32(%r14), %rcx
	movq	40(%r14), %rdx
	.loc	1 61 16 is_stmt 0               # crypto_auth/hmacsha256/auth_hmacsha256.c:61:16
	xorq	%rcx, 64(%rsp)
	xorq	%rdx, 72(%rsp)
.Ltmp58:
	.loc	1 60 30 is_stmt 1               # crypto_auth/hmacsha256/auth_hmacsha256.c:60:30
	cmpl	$48, %eax
	je	.LBB4_33
.Ltmp59:
# %bb.29:                               # %vector.body51.3
	#DEBUG_VALUE: crypto_auth_hmacsha256_init:state <- [DW_OP_LLVM_entry_value 1] $rdi
	#DEBUG_VALUE: crypto_auth_hmacsha256_init:key <- $r14
	#DEBUG_VALUE: crypto_auth_hmacsha256_init:keylen <- $r15
	#DEBUG_VALUE: crypto_auth_hmacsha256_init:i <- 0
	.loc	1 61 19                         # crypto_auth/hmacsha256/auth_hmacsha256.c:61:19
	movq	48(%r14), %rcx
	movq	56(%r14), %rdx
	.loc	1 61 16 is_stmt 0               # crypto_auth/hmacsha256/auth_hmacsha256.c:61:16
	xorq	%rcx, 80(%rsp)
	xorq	%rdx, 88(%rsp)
.Ltmp60:
	.loc	1 60 30 is_stmt 1               # crypto_auth/hmacsha256/auth_hmacsha256.c:60:30
	cmpl	$64, %eax
	je	.LBB4_33
.Ltmp61:
# %bb.30:                               # %vector.body51.4
	#DEBUG_VALUE: crypto_auth_hmacsha256_init:state <- [DW_OP_LLVM_entry_value 1] $rdi
	#DEBUG_VALUE: crypto_auth_hmacsha256_init:key <- $r14
	#DEBUG_VALUE: crypto_auth_hmacsha256_init:keylen <- $r15
	#DEBUG_VALUE: crypto_auth_hmacsha256_init:i <- 0
	.loc	1 61 19                         # crypto_auth/hmacsha256/auth_hmacsha256.c:61:19
	movq	64(%r14), %rcx
	movq	72(%r14), %rdx
	.loc	1 61 16 is_stmt 0               # crypto_auth/hmacsha256/auth_hmacsha256.c:61:16
	xorq	%rcx, 96(%rsp)
	xorq	%rdx, 104(%rsp)
.Ltmp62:
	.loc	1 60 30 is_stmt 1               # crypto_auth/hmacsha256/auth_hmacsha256.c:60:30
	cmpl	$80, %eax
	je	.LBB4_33
.Ltmp63:
# %bb.31:                               # %vector.body51.5
	#DEBUG_VALUE: crypto_auth_hmacsha256_init:state <- [DW_OP_LLVM_entry_value 1] $rdi
	#DEBUG_VALUE: crypto_auth_hmacsha256_init:key <- $r14
	#DEBUG_VALUE: crypto_auth_hmacsha256_init:keylen <- $r15
	#DEBUG_VALUE: crypto_auth_hmacsha256_init:i <- 0
	.loc	1 61 19                         # crypto_auth/hmacsha256/auth_hmacsha256.c:61:19
	movq	80(%r14), %rcx
	movq	88(%r14), %rdx
	.loc	1 61 16 is_stmt 0               # crypto_auth/hmacsha256/auth_hmacsha256.c:61:16
	xorq	%rcx, 112(%rsp)
	xorq	%rdx, 120(%rsp)
.Ltmp64:
	.loc	1 60 30 is_stmt 1               # crypto_auth/hmacsha256/auth_hmacsha256.c:60:30
	cmpl	$96, %eax
	je	.LBB4_33
.Ltmp65:
# %bb.32:                               # %vector.body51.6
	#DEBUG_VALUE: crypto_auth_hmacsha256_init:state <- [DW_OP_LLVM_entry_value 1] $rdi
	#DEBUG_VALUE: crypto_auth_hmacsha256_init:key <- $r14
	#DEBUG_VALUE: crypto_auth_hmacsha256_init:keylen <- $r15
	#DEBUG_VALUE: crypto_auth_hmacsha256_init:i <- 0
	.loc	1 61 19                         # crypto_auth/hmacsha256/auth_hmacsha256.c:61:19
	movq	96(%r14), %rcx
	movq	104(%r14), %rdx
	.loc	1 61 16 is_stmt 0               # crypto_auth/hmacsha256/auth_hmacsha256.c:61:16
	xorq	%rcx, 128(%rsp)
	xorq	%rdx, 136(%rsp)
.Ltmp66:
.LBB4_33:                               # %middle.block58
	#DEBUG_VALUE: crypto_auth_hmacsha256_init:state <- [DW_OP_LLVM_entry_value 1] $rdi
	#DEBUG_VALUE: crypto_auth_hmacsha256_init:key <- $r14
	#DEBUG_VALUE: crypto_auth_hmacsha256_init:keylen <- $r15
	#DEBUG_VALUE: crypto_auth_hmacsha256_init:i <- 0
	.loc	1 60 5 is_stmt 1                # crypto_auth/hmacsha256/auth_hmacsha256.c:60:5
	cmpq	%rax, %r15
	je	.LBB4_38
.Ltmp67:
# %bb.34:                               # %vec.epilog.iter.check63
	#DEBUG_VALUE: crypto_auth_hmacsha256_init:state <- [DW_OP_LLVM_entry_value 1] $rdi
	#DEBUG_VALUE: crypto_auth_hmacsha256_init:key <- $r14
	#DEBUG_VALUE: crypto_auth_hmacsha256_init:keylen <- $r15
	#DEBUG_VALUE: crypto_auth_hmacsha256_init:i <- 0
	testb	$12, %r15b
	je	.LBB4_23
.Ltmp68:
.LBB4_35:                               # %vec.epilog.ph62
	#DEBUG_VALUE: crypto_auth_hmacsha256_init:state <- [DW_OP_LLVM_entry_value 1] $rdi
	#DEBUG_VALUE: crypto_auth_hmacsha256_init:key <- $r14
	#DEBUG_VALUE: crypto_auth_hmacsha256_init:keylen <- $r15
	#DEBUG_VALUE: crypto_auth_hmacsha256_init:i <- 0
	.loc	1 0 5 is_stmt 0                 # crypto_auth/hmacsha256/auth_hmacsha256.c:0:5
	movq	%rax, %rcx
	.loc	1 60 5                          # crypto_auth/hmacsha256/auth_hmacsha256.c:60:5
	movl	%r15d, %eax
	andl	$124, %eax
.Ltmp69:
	.loc	1 0 5                           # :0:5
.Ltmp70:
	.p2align	4
.LBB4_36:                               # %vec.epilog.vector.body68
                                        # =>This Inner Loop Header: Depth=1
	#DEBUG_VALUE: crypto_auth_hmacsha256_init:state <- [DW_OP_LLVM_entry_value 1] $rdi
	#DEBUG_VALUE: crypto_auth_hmacsha256_init:key <- $r14
	#DEBUG_VALUE: crypto_auth_hmacsha256_init:keylen <- $r15
	#DEBUG_VALUE: crypto_auth_hmacsha256_init:i <- 0
	.loc	1 61 19 is_stmt 1               # crypto_auth/hmacsha256/auth_hmacsha256.c:61:19
	movl	(%r14,%rcx), %edx
	.loc	1 61 16 is_stmt 0               # crypto_auth/hmacsha256/auth_hmacsha256.c:61:16
	xorl	%edx, 32(%rsp,%rcx)
.Ltmp71:
	.loc	1 60 30 is_stmt 1               # crypto_auth/hmacsha256/auth_hmacsha256.c:60:30
	addq	$4, %rcx
	cmpq	%rcx, %rax
	jne	.LBB4_36
	jmp	.LBB4_37
.Ltmp72:
.LBB4_23:                               # %.lr.ph28
	#DEBUG_VALUE: crypto_auth_hmacsha256_init:state <- [DW_OP_LLVM_entry_value 1] $rdi
	#DEBUG_VALUE: crypto_auth_hmacsha256_init:key <- $r14
	#DEBUG_VALUE: crypto_auth_hmacsha256_init:keylen <- $r15
	#DEBUG_VALUE: crypto_auth_hmacsha256_init:i <- $rax
	.loc	1 61 19                         # crypto_auth/hmacsha256/auth_hmacsha256.c:61:19
	movzbl	(%r14,%rax), %ecx
	.loc	1 61 16 is_stmt 0               # crypto_auth/hmacsha256/auth_hmacsha256.c:61:16
	xorb	%cl, 32(%rsp,%rax)
.Ltmp73:
	.loc	1 60 30 is_stmt 1               # crypto_auth/hmacsha256/auth_hmacsha256.c:60:30
	incq	%rax
.Ltmp74:
	#DEBUG_VALUE: crypto_auth_hmacsha256_init:i <- $rax
.LBB4_37:                               # %.lr.ph28
	#DEBUG_VALUE: crypto_auth_hmacsha256_init:state <- [DW_OP_LLVM_entry_value 1] $rdi
	#DEBUG_VALUE: crypto_auth_hmacsha256_init:key <- $r14
	#DEBUG_VALUE: crypto_auth_hmacsha256_init:keylen <- $r15
	.loc	1 60 0 is_stmt 0                # crypto_auth/hmacsha256/auth_hmacsha256.c:60
	cmpq	%rax, %r15
	.loc	1 60 5                          # crypto_auth/hmacsha256/auth_hmacsha256.c:60:5
	jne	.LBB4_23
.Ltmp75:
.LBB4_38:                               # %._crit_edge29
	#DEBUG_VALUE: crypto_auth_hmacsha256_init:state <- [DW_OP_LLVM_entry_value 1] $rdi
	#DEBUG_VALUE: crypto_auth_hmacsha256_init:key <- $r14
	#DEBUG_VALUE: crypto_auth_hmacsha256_init:keylen <- $r15
	.loc	1 0 5                           # crypto_auth/hmacsha256/auth_hmacsha256.c:0:5
	leaq	32(%rsp), %r14
.Ltmp76:
	.loc	1 63 5 is_stmt 1                # crypto_auth/hmacsha256/auth_hmacsha256.c:63:5
	movl	$64, %edx
	movq	%rbx, %rdi
	movq	%r14, %rsi
	callq	crypto_hash_sha256_update@PLT
.Ltmp77:
	.loc	1 65 5                          # crypto_auth/hmacsha256/auth_hmacsha256.c:65:5
	movl	$64, %esi
	movq	%r14, %rdi
	callq	sodium_memzero@PLT
.Ltmp78:
	.loc	1 0 5 is_stmt 0                 # crypto_auth/hmacsha256/auth_hmacsha256.c:0:5
	movq	%rsp, %rdi
	.loc	1 66 5 is_stmt 1                # crypto_auth/hmacsha256/auth_hmacsha256.c:66:5
	movl	$32, %esi
	callq	sodium_memzero@PLT
.Ltmp79:
	.loc	1 68 5                          # crypto_auth/hmacsha256/auth_hmacsha256.c:68:5
	movq	%fs:40, %rax
	cmpq	104(%rsp), %rax
	jne	.LBB4_40
.Ltmp80:
# %bb.39:                               # %SP_return
	#DEBUG_VALUE: crypto_auth_hmacsha256_init:state <- [DW_OP_LLVM_entry_value 1] $rdi
	#DEBUG_VALUE: crypto_auth_hmacsha256_init:keylen <- $r15
	xorl	%eax, %eax
	.loc	1 68 5 epilogue_begin is_stmt 0 # crypto_auth/hmacsha256/auth_hmacsha256.c:68:5
	addq	$112, %rsp
	.cfi_def_cfa_offset 32
	popq	%rbx
	.cfi_def_cfa_offset 24
	popq	%r14
	.cfi_def_cfa_offset 16
	popq	%r15
.Ltmp81:
	.cfi_def_cfa_offset 8
	retq
.Ltmp82:
.LBB4_40:                               # %CallStackCheckFailBlk
	.cfi_def_cfa_offset 144
	#DEBUG_VALUE: crypto_auth_hmacsha256_init:state <- [DW_OP_LLVM_entry_value 1] $rdi
	#DEBUG_VALUE: crypto_auth_hmacsha256_init:keylen <- $r15
	.loc	1 0 0                           # crypto_auth/hmacsha256/auth_hmacsha256.c:0
	callq	__stack_chk_fail@PLT
.Ltmp83:
.Lfunc_end4:
	.size	crypto_auth_hmacsha256_init, .Lfunc_end4-crypto_auth_hmacsha256_init
	.cfi_endproc
	.file	5 "./include/sodium" "crypto_hash_sha256.h"
	.file	6 "/usr/include/x86_64-linux-gnu/bits" "types.h"
	.file	7 "/usr/include/x86_64-linux-gnu/bits" "stdint-uintn.h"
	.file	8 "./include/sodium" "utils.h"
                                        # -- End function
	.globl	crypto_auth_hmacsha256_update   # -- Begin function crypto_auth_hmacsha256_update
	.p2align	4
	.type	crypto_auth_hmacsha256_update,@function
crypto_auth_hmacsha256_update:          # @crypto_auth_hmacsha256_update
.Lfunc_begin5:
	.loc	1 74 0 is_stmt 1                # crypto_auth/hmacsha256/auth_hmacsha256.c:74:0
	.cfi_startproc
# %bb.0:
	#DEBUG_VALUE: crypto_auth_hmacsha256_update:state <- $rdi
	#DEBUG_VALUE: crypto_auth_hmacsha256_update:in <- $rsi
	#DEBUG_VALUE: crypto_auth_hmacsha256_update:inlen <- $rdx
	pushq	%rax
	.cfi_def_cfa_offset 16
.Ltmp84:
	.loc	1 75 5 prologue_end             # crypto_auth/hmacsha256/auth_hmacsha256.c:75:5
	callq	crypto_hash_sha256_update@PLT
.Ltmp85:
	#DEBUG_VALUE: crypto_auth_hmacsha256_update:inlen <- [DW_OP_LLVM_entry_value 1] $rdx
	#DEBUG_VALUE: crypto_auth_hmacsha256_update:in <- [DW_OP_LLVM_entry_value 1] $rsi
	#DEBUG_VALUE: crypto_auth_hmacsha256_update:state <- [DW_OP_LLVM_entry_value 1] $rdi
	.loc	1 77 5                          # crypto_auth/hmacsha256/auth_hmacsha256.c:77:5
	xorl	%eax, %eax
	.loc	1 77 5 epilogue_begin is_stmt 0 # crypto_auth/hmacsha256/auth_hmacsha256.c:77:5
	popq	%rcx
	.cfi_def_cfa_offset 8
	retq
.Ltmp86:
.Lfunc_end5:
	.size	crypto_auth_hmacsha256_update, .Lfunc_end5-crypto_auth_hmacsha256_update
	.cfi_endproc
                                        # -- End function
	.globl	crypto_auth_hmacsha256_final    # -- Begin function crypto_auth_hmacsha256_final
	.p2align	4
	.type	crypto_auth_hmacsha256_final,@function
crypto_auth_hmacsha256_final:           # @crypto_auth_hmacsha256_final
.Lfunc_begin6:
	.loc	1 83 0 is_stmt 1                # crypto_auth/hmacsha256/auth_hmacsha256.c:83:0
	.cfi_startproc
# %bb.0:
	#DEBUG_VALUE: crypto_auth_hmacsha256_final:state <- $rdi
	#DEBUG_VALUE: crypto_auth_hmacsha256_final:out <- $rsi
	pushq	%r15
	.cfi_def_cfa_offset 16
	pushq	%r14
	.cfi_def_cfa_offset 24
	pushq	%rbx
	.cfi_def_cfa_offset 32
	subq	$48, %rsp
	.cfi_def_cfa_offset 80
	.cfi_offset %rbx, -32
	.cfi_offset %r14, -24
	.cfi_offset %r15, -16
	movq	%rsi, %rbx
	movq	%rdi, %r14
	movq	%fs:40, %rax
	movq	%rax, 40(%rsp)
	movq	%rsp, %r15
.Ltmp87:
	.loc	1 86 5 prologue_end             # crypto_auth/hmacsha256/auth_hmacsha256.c:86:5
	movq	%r15, %rsi
.Ltmp88:
	#DEBUG_VALUE: crypto_auth_hmacsha256_final:out <- $rbx
	callq	crypto_hash_sha256_final@PLT
.Ltmp89:
	#DEBUG_VALUE: crypto_auth_hmacsha256_final:state <- $r14
	.loc	1 87 39                         # crypto_auth/hmacsha256/auth_hmacsha256.c:87:39
	addq	$104, %r14
.Ltmp90:
	#DEBUG_VALUE: crypto_auth_hmacsha256_final:state <- [DW_OP_LLVM_entry_value 1] $rdi
	.loc	1 87 5 is_stmt 0                # crypto_auth/hmacsha256/auth_hmacsha256.c:87:5
	movl	$32, %edx
	movq	%r14, %rdi
	movq	%r15, %rsi
	callq	crypto_hash_sha256_update@PLT
.Ltmp91:
	.loc	1 88 5 is_stmt 1                # crypto_auth/hmacsha256/auth_hmacsha256.c:88:5
	movq	%r14, %rdi
	movq	%rbx, %rsi
	callq	crypto_hash_sha256_final@PLT
.Ltmp92:
	.loc	1 90 5                          # crypto_auth/hmacsha256/auth_hmacsha256.c:90:5
	movl	$32, %esi
	movq	%r15, %rdi
	callq	sodium_memzero@PLT
.Ltmp93:
	.loc	1 92 5                          # crypto_auth/hmacsha256/auth_hmacsha256.c:92:5
	movq	%fs:40, %rax
	cmpq	40(%rsp), %rax
	jne	.LBB6_2
.Ltmp94:
# %bb.1:                                # %SP_return
	#DEBUG_VALUE: crypto_auth_hmacsha256_final:state <- [DW_OP_LLVM_entry_value 1] $rdi
	#DEBUG_VALUE: crypto_auth_hmacsha256_final:out <- $rbx
	xorl	%eax, %eax
	.loc	1 92 5 epilogue_begin is_stmt 0 # crypto_auth/hmacsha256/auth_hmacsha256.c:92:5
	addq	$48, %rsp
	.cfi_def_cfa_offset 32
	popq	%rbx
.Ltmp95:
	#DEBUG_VALUE: crypto_auth_hmacsha256_final:out <- [DW_OP_LLVM_entry_value 1] $rsi
	.cfi_def_cfa_offset 24
	popq	%r14
	.cfi_def_cfa_offset 16
	popq	%r15
	.cfi_def_cfa_offset 8
	retq
.Ltmp96:
.LBB6_2:                                # %CallStackCheckFailBlk
	.cfi_def_cfa_offset 80
	#DEBUG_VALUE: crypto_auth_hmacsha256_final:state <- [DW_OP_LLVM_entry_value 1] $rdi
	#DEBUG_VALUE: crypto_auth_hmacsha256_final:out <- $rbx
	.loc	1 0 0                           # crypto_auth/hmacsha256/auth_hmacsha256.c:0
	callq	__stack_chk_fail@PLT
.Ltmp97:
.Lfunc_end6:
	.size	crypto_auth_hmacsha256_final, .Lfunc_end6-crypto_auth_hmacsha256_final
	.cfi_endproc
                                        # -- End function
	.globl	crypto_auth_hmacsha256          # -- Begin function crypto_auth_hmacsha256
	.p2align	4
	.type	crypto_auth_hmacsha256,@function
crypto_auth_hmacsha256:                 # @crypto_auth_hmacsha256
.Lfunc_begin7:
	.loc	1 98 0 is_stmt 1                # crypto_auth/hmacsha256/auth_hmacsha256.c:98:0
	.cfi_startproc
# %bb.0:
	#DEBUG_VALUE: crypto_auth_hmacsha256:out <- $rdi
	#DEBUG_VALUE: crypto_auth_hmacsha256:in <- $rsi
	#DEBUG_VALUE: crypto_auth_hmacsha256:inlen <- $rdx
	#DEBUG_VALUE: crypto_auth_hmacsha256:k <- $rcx
	pushq	%r15
	.cfi_def_cfa_offset 16
	pushq	%r14
	.cfi_def_cfa_offset 24
	pushq	%r12
	.cfi_def_cfa_offset 32
	pushq	%rbx
	.cfi_def_cfa_offset 40
	subq	$248, %rsp
	.cfi_def_cfa_offset 288
	.cfi_offset %rbx, -40
	.cfi_offset %r12, -32
	.cfi_offset %r14, -24
	.cfi_offset %r15, -16
	movq	%rdx, %r14
	movq	%rsi, %r15
	movq	%rdi, %rbx
	movq	%fs:40, %rax
	movq	%rax, 240(%rsp)
	movq	%rsp, %r12
.Ltmp98:
	.loc	1 101 5 prologue_end            # crypto_auth/hmacsha256/auth_hmacsha256.c:101:5
	movl	$32, %edx
.Ltmp99:
	#DEBUG_VALUE: crypto_auth_hmacsha256:inlen <- $r14
	movq	%r12, %rdi
.Ltmp100:
	#DEBUG_VALUE: crypto_auth_hmacsha256:out <- $rbx
	movq	%rcx, %rsi
.Ltmp101:
	#DEBUG_VALUE: crypto_auth_hmacsha256:in <- $r15
	callq	crypto_auth_hmacsha256_init
.Ltmp102:
	#DEBUG_VALUE: crypto_auth_hmacsha256:k <- [DW_OP_LLVM_entry_value 1] $rcx
	#DEBUG_VALUE: crypto_auth_hmacsha256_update:state <- $rsp
	#DEBUG_VALUE: crypto_auth_hmacsha256_update:in <- $r15
	#DEBUG_VALUE: crypto_auth_hmacsha256_update:inlen <- $r14
	.loc	1 75 5                          # crypto_auth/hmacsha256/auth_hmacsha256.c:75:5 @[ crypto_auth/hmacsha256/auth_hmacsha256.c:102:5 ]
	movq	%r12, %rdi
	movq	%r15, %rsi
	movq	%r14, %rdx
	callq	crypto_hash_sha256_update@PLT
.Ltmp103:
	#DEBUG_VALUE: crypto_auth_hmacsha256_final:ihash <- [DW_OP_plus_uconst 208, DW_OP_deref] $rsp
	#DEBUG_VALUE: crypto_auth_hmacsha256_final:state <- $rsp
	#DEBUG_VALUE: crypto_auth_hmacsha256_final:out <- $rbx
	.loc	1 0 5 is_stmt 0                 # crypto_auth/hmacsha256/auth_hmacsha256.c:0:5
	leaq	208(%rsp), %r14
.Ltmp104:
	#DEBUG_VALUE: crypto_auth_hmacsha256:inlen <- [DW_OP_LLVM_entry_value 1] $rdx
	.loc	1 86 5 is_stmt 1                # crypto_auth/hmacsha256/auth_hmacsha256.c:86:5 @[ crypto_auth/hmacsha256/auth_hmacsha256.c:103:5 ]
	movq	%r12, %rdi
	movq	%r14, %rsi
	callq	crypto_hash_sha256_final@PLT
.Ltmp105:
	.loc	1 87 39                         # crypto_auth/hmacsha256/auth_hmacsha256.c:87:39 @[ crypto_auth/hmacsha256/auth_hmacsha256.c:103:5 ]
	leaq	104(%rsp), %r15
.Ltmp106:
	#DEBUG_VALUE: crypto_auth_hmacsha256:in <- [DW_OP_LLVM_entry_value 1] $rsi
	.loc	1 87 5 is_stmt 0                # crypto_auth/hmacsha256/auth_hmacsha256.c:87:5 @[ crypto_auth/hmacsha256/auth_hmacsha256.c:103:5 ]
	movl	$32, %edx
	movq	%r15, %rdi
	movq	%r14, %rsi
	callq	crypto_hash_sha256_update@PLT
.Ltmp107:
	.loc	1 88 5 is_stmt 1                # crypto_auth/hmacsha256/auth_hmacsha256.c:88:5 @[ crypto_auth/hmacsha256/auth_hmacsha256.c:103:5 ]
	movq	%r15, %rdi
	movq	%rbx, %rsi
	callq	crypto_hash_sha256_final@PLT
.Ltmp108:
	.loc	1 90 5                          # crypto_auth/hmacsha256/auth_hmacsha256.c:90:5 @[ crypto_auth/hmacsha256/auth_hmacsha256.c:103:5 ]
	movl	$32, %esi
	movq	%r14, %rdi
	callq	sodium_memzero@PLT
.Ltmp109:
	.loc	1 105 5                         # crypto_auth/hmacsha256/auth_hmacsha256.c:105:5
	movq	%fs:40, %rax
	cmpq	240(%rsp), %rax
	jne	.LBB7_2
.Ltmp110:
# %bb.1:                                # %SP_return
	#DEBUG_VALUE: crypto_auth_hmacsha256:out <- $rbx
	#DEBUG_VALUE: crypto_auth_hmacsha256:in <- [DW_OP_LLVM_entry_value 1] $rsi
	#DEBUG_VALUE: crypto_auth_hmacsha256:inlen <- [DW_OP_LLVM_entry_value 1] $rdx
	#DEBUG_VALUE: crypto_auth_hmacsha256:k <- [DW_OP_LLVM_entry_value 1] $rcx
	xorl	%eax, %eax
	.loc	1 105 5 epilogue_begin is_stmt 0 # crypto_auth/hmacsha256/auth_hmacsha256.c:105:5
	addq	$248, %rsp
	.cfi_def_cfa_offset 40
	popq	%rbx
.Ltmp111:
	#DEBUG_VALUE: crypto_auth_hmacsha256:out <- [DW_OP_LLVM_entry_value 1] $rdi
	.cfi_def_cfa_offset 32
	popq	%r12
	.cfi_def_cfa_offset 24
	popq	%r14
	.cfi_def_cfa_offset 16
	popq	%r15
	.cfi_def_cfa_offset 8
	retq
.Ltmp112:
.LBB7_2:                                # %CallStackCheckFailBlk
	.cfi_def_cfa_offset 288
	#DEBUG_VALUE: crypto_auth_hmacsha256:out <- $rbx
	#DEBUG_VALUE: crypto_auth_hmacsha256:in <- [DW_OP_LLVM_entry_value 1] $rsi
	#DEBUG_VALUE: crypto_auth_hmacsha256:inlen <- [DW_OP_LLVM_entry_value 1] $rdx
	#DEBUG_VALUE: crypto_auth_hmacsha256:k <- [DW_OP_LLVM_entry_value 1] $rcx
	#DEBUG_VALUE: crypto_auth_hmacsha256_update:state <- $r12
	#DEBUG_VALUE: crypto_auth_hmacsha256_final:ihash <- [DW_OP_plus_uconst 208, DW_OP_deref] $r12
	#DEBUG_VALUE: crypto_auth_hmacsha256_final:state <- $r12
	#DEBUG_VALUE: crypto_auth_hmacsha256_final:out <- $rbx
	.loc	1 0 0                           # crypto_auth/hmacsha256/auth_hmacsha256.c:0
	callq	__stack_chk_fail@PLT
.Ltmp113:
.Lfunc_end7:
	.size	crypto_auth_hmacsha256, .Lfunc_end7-crypto_auth_hmacsha256
	.cfi_endproc
	.file	9 "./include/sodium" "crypto_auth_hmacsha256.h"
                                        # -- End function
	.globl	crypto_auth_hmacsha256_verify   # -- Begin function crypto_auth_hmacsha256_verify
	.p2align	4
	.type	crypto_auth_hmacsha256_verify,@function
crypto_auth_hmacsha256_verify:          # @crypto_auth_hmacsha256_verify
.Lfunc_begin8:
	.loc	1 111 0 is_stmt 1               # crypto_auth/hmacsha256/auth_hmacsha256.c:111:0
	.cfi_startproc
# %bb.0:
	#DEBUG_VALUE: crypto_auth_hmacsha256_verify:h <- $rdi
	#DEBUG_VALUE: crypto_auth_hmacsha256_verify:in <- $rsi
	#DEBUG_VALUE: crypto_auth_hmacsha256_verify:inlen <- $rdx
	#DEBUG_VALUE: crypto_auth_hmacsha256_verify:k <- $rcx
	pushq	%rbp
	.cfi_def_cfa_offset 16
	pushq	%r15
	.cfi_def_cfa_offset 24
	pushq	%r14
	.cfi_def_cfa_offset 32
	pushq	%r12
	.cfi_def_cfa_offset 40
	pushq	%rbx
	.cfi_def_cfa_offset 48
	subq	$288, %rsp                      # imm = 0x120
	.cfi_def_cfa_offset 336
	.cfi_offset %rbx, -48
	.cfi_offset %r12, -40
	.cfi_offset %r14, -32
	.cfi_offset %r15, -24
	.cfi_offset %rbp, -16
	movq	%rdx, %r14
	movq	%rsi, %r15
	movq	%rdi, %rbx
	movq	%fs:40, %rax
	movq	%rax, 280(%rsp)
.Ltmp114:
	#DEBUG_VALUE: crypto_auth_hmacsha256:state <- [DW_OP_plus_uconst 32, DW_OP_deref] $rsp
	#DEBUG_VALUE: crypto_auth_hmacsha256:out <- $rsp
	#DEBUG_VALUE: crypto_auth_hmacsha256:in <- $r15
	#DEBUG_VALUE: crypto_auth_hmacsha256:inlen <- $r14
	#DEBUG_VALUE: crypto_auth_hmacsha256:k <- $rcx
	leaq	32(%rsp), %r12
.Ltmp115:
	.loc	1 101 5 prologue_end            # crypto_auth/hmacsha256/auth_hmacsha256.c:101:5 @[ crypto_auth/hmacsha256/auth_hmacsha256.c:114:5 ]
	movl	$32, %edx
.Ltmp116:
	#DEBUG_VALUE: crypto_auth_hmacsha256_verify:inlen <- $r14
	movq	%r12, %rdi
.Ltmp117:
	#DEBUG_VALUE: crypto_auth_hmacsha256_verify:h <- $rbx
	movq	%rcx, %rsi
.Ltmp118:
	#DEBUG_VALUE: crypto_auth_hmacsha256_verify:in <- $r15
	callq	crypto_auth_hmacsha256_init
.Ltmp119:
	#DEBUG_VALUE: crypto_auth_hmacsha256_verify:k <- [DW_OP_LLVM_entry_value 1] $rcx
	#DEBUG_VALUE: crypto_auth_hmacsha256_update:state <- [DW_OP_plus_uconst 32, DW_OP_stack_value] $rsp
	#DEBUG_VALUE: crypto_auth_hmacsha256_update:in <- $r15
	#DEBUG_VALUE: crypto_auth_hmacsha256_update:inlen <- $r14
	.loc	1 75 5                          # crypto_auth/hmacsha256/auth_hmacsha256.c:75:5 @[ crypto_auth/hmacsha256/auth_hmacsha256.c:102:5 @[ crypto_auth/hmacsha256/auth_hmacsha256.c:114:5 ] ]
	movq	%r12, %rdi
	movq	%r15, %rsi
	movq	%r14, %rdx
	callq	crypto_hash_sha256_update@PLT
.Ltmp120:
	#DEBUG_VALUE: crypto_auth_hmacsha256_final:ihash <- [DW_OP_plus_uconst 240, DW_OP_deref] $rsp
	#DEBUG_VALUE: crypto_auth_hmacsha256_final:state <- [DW_OP_plus_uconst 32, DW_OP_stack_value] $rsp
	#DEBUG_VALUE: crypto_auth_hmacsha256_final:out <- $rsp
	.loc	1 0 5 is_stmt 0                 # crypto_auth/hmacsha256/auth_hmacsha256.c:0:5
	leaq	240(%rsp), %r14
.Ltmp121:
	#DEBUG_VALUE: crypto_auth_hmacsha256_verify:inlen <- [DW_OP_LLVM_entry_value 1] $rdx
	.loc	1 86 5 is_stmt 1                # crypto_auth/hmacsha256/auth_hmacsha256.c:86:5 @[ crypto_auth/hmacsha256/auth_hmacsha256.c:103:5 @[ crypto_auth/hmacsha256/auth_hmacsha256.c:114:5 ] ]
	movq	%r12, %rdi
	movq	%r14, %rsi
	callq	crypto_hash_sha256_final@PLT
.Ltmp122:
	.loc	1 87 39                         # crypto_auth/hmacsha256/auth_hmacsha256.c:87:39 @[ crypto_auth/hmacsha256/auth_hmacsha256.c:103:5 @[ crypto_auth/hmacsha256/auth_hmacsha256.c:114:5 ] ]
	leaq	136(%rsp), %r15
.Ltmp123:
	#DEBUG_VALUE: crypto_auth_hmacsha256_verify:in <- [DW_OP_LLVM_entry_value 1] $rsi
	.loc	1 87 5 is_stmt 0                # crypto_auth/hmacsha256/auth_hmacsha256.c:87:5 @[ crypto_auth/hmacsha256/auth_hmacsha256.c:103:5 @[ crypto_auth/hmacsha256/auth_hmacsha256.c:114:5 ] ]
	movl	$32, %edx
	movq	%r15, %rdi
	movq	%r14, %rsi
	callq	crypto_hash_sha256_update@PLT
.Ltmp124:
	.loc	1 0 5                           # crypto_auth/hmacsha256/auth_hmacsha256.c:0:5
	movq	%rsp, %r12
	.loc	1 88 5 is_stmt 1                # crypto_auth/hmacsha256/auth_hmacsha256.c:88:5 @[ crypto_auth/hmacsha256/auth_hmacsha256.c:103:5 @[ crypto_auth/hmacsha256/auth_hmacsha256.c:114:5 ] ]
	movq	%r15, %rdi
	movq	%r12, %rsi
	callq	crypto_hash_sha256_final@PLT
.Ltmp125:
	.loc	1 90 5                          # crypto_auth/hmacsha256/auth_hmacsha256.c:90:5 @[ crypto_auth/hmacsha256/auth_hmacsha256.c:103:5 @[ crypto_auth/hmacsha256/auth_hmacsha256.c:114:5 ] ]
	movl	$32, %esi
	movq	%r14, %rdi
	callq	sodium_memzero@PLT
.Ltmp126:
	.loc	1 116 12                        # crypto_auth/hmacsha256/auth_hmacsha256.c:116:12
	movq	%rbx, %rdi
	movq	%r12, %rsi
	callq	crypto_verify_32@PLT
.Ltmp127:
	.loc	1 116 48 is_stmt 0              # crypto_auth/hmacsha256/auth_hmacsha256.c:116:48
	cmpq	%r12, %rbx
	movl	$-1, %ebp
	.loc	1 116 41                        # crypto_auth/hmacsha256/auth_hmacsha256.c:116:41
	cmovnel	%eax, %ebp
	.loc	1 117 12 is_stmt 1              # crypto_auth/hmacsha256/auth_hmacsha256.c:117:12
	movl	$32, %edx
	movq	%r12, %rdi
	movq	%rbx, %rsi
	callq	sodium_memcmp@PLT
.Ltmp128:
	.loc	1 116 5                         # crypto_auth/hmacsha256/auth_hmacsha256.c:116:5
	movq	%fs:40, %rcx
	cmpq	280(%rsp), %rcx
	jne	.LBB8_2
.Ltmp129:
# %bb.1:                                # %SP_return
	#DEBUG_VALUE: crypto_auth_hmacsha256_verify:h <- $rbx
	#DEBUG_VALUE: crypto_auth_hmacsha256_verify:in <- [DW_OP_LLVM_entry_value 1] $rsi
	#DEBUG_VALUE: crypto_auth_hmacsha256_verify:inlen <- [DW_OP_LLVM_entry_value 1] $rdx
	#DEBUG_VALUE: crypto_auth_hmacsha256_verify:k <- [DW_OP_LLVM_entry_value 1] $rcx
	.loc	1 116 0 is_stmt 0               # crypto_auth/hmacsha256/auth_hmacsha256.c:116
	orl	%eax, %ebp
	.loc	1 116 5                         # crypto_auth/hmacsha256/auth_hmacsha256.c:116:5
	movl	%ebp, %eax
	.loc	1 116 5 epilogue_begin          # crypto_auth/hmacsha256/auth_hmacsha256.c:116:5
	addq	$288, %rsp                      # imm = 0x120
	.cfi_def_cfa_offset 48
	popq	%rbx
.Ltmp130:
	#DEBUG_VALUE: crypto_auth_hmacsha256_verify:h <- [DW_OP_LLVM_entry_value 1] $rdi
	.cfi_def_cfa_offset 40
	popq	%r12
	.cfi_def_cfa_offset 32
	popq	%r14
	.cfi_def_cfa_offset 24
	popq	%r15
	.cfi_def_cfa_offset 16
	popq	%rbp
	.cfi_def_cfa_offset 8
	retq
.Ltmp131:
.LBB8_2:                                # %CallStackCheckFailBlk
	.cfi_def_cfa_offset 336
	#DEBUG_VALUE: crypto_auth_hmacsha256_verify:h <- $rbx
	#DEBUG_VALUE: crypto_auth_hmacsha256_verify:in <- [DW_OP_LLVM_entry_value 1] $rsi
	#DEBUG_VALUE: crypto_auth_hmacsha256_verify:inlen <- [DW_OP_LLVM_entry_value 1] $rdx
	#DEBUG_VALUE: crypto_auth_hmacsha256_verify:k <- [DW_OP_LLVM_entry_value 1] $rcx
	#DEBUG_VALUE: crypto_auth_hmacsha256:state <- [DW_OP_plus_uconst 32, DW_OP_deref] $r12
	#DEBUG_VALUE: crypto_auth_hmacsha256:out <- $r12
	#DEBUG_VALUE: crypto_auth_hmacsha256_update:state <- [DW_OP_plus_uconst 32, DW_OP_stack_value] $r12
	#DEBUG_VALUE: crypto_auth_hmacsha256_final:ihash <- [DW_OP_plus_uconst 240, DW_OP_deref] $r12
	#DEBUG_VALUE: crypto_auth_hmacsha256_final:state <- [DW_OP_plus_uconst 32, DW_OP_stack_value] $r12
	#DEBUG_VALUE: crypto_auth_hmacsha256_final:out <- $r12
	.loc	1 0 0                           # crypto_auth/hmacsha256/auth_hmacsha256.c:0
	callq	__stack_chk_fail@PLT
.Ltmp132:
.Lfunc_end8:
	.size	crypto_auth_hmacsha256_verify, .Lfunc_end8-crypto_auth_hmacsha256_verify
	.cfi_endproc
	.file	10 "./include/sodium" "crypto_verify_32.h"
                                        # -- End function
	.section	".note.GNU-stack","",@progbits
	.addrsig
	.addrsig_sym __stack_chk_fail