	.file	"auth_hmacsha512256.c"
	.file	0 "/home/leizhenyuu/opt/Anonymous_Repo/libsodium_o2_attr_inline/src/libsodium" "auth_hmacsha512256.c" md5 0xe317f126168199248ce9e6c2f8b65723
	.file	1 "/usr/include/x86_64-linux-gnu/bits" "types.h"
	.file	2 "/usr/include/x86_64-linux-gnu/bits" "stdint-uintn.h"
	.file	3 "./include/sodium" "crypto_hash_sha512.h"
	.file	4 "./include/sodium" "crypto_auth_hmacsha512.h"
	.text
	.globl	crypto_auth_hmacsha512256_bytes # -- Begin function crypto_auth_hmacsha512256_bytes
	.p2align	4
	.type	crypto_auth_hmacsha512256_bytes,@function
crypto_auth_hmacsha512256_bytes:        # @crypto_auth_hmacsha512256_bytes
.Lfunc_begin0:
	.cfi_startproc
# %bb.0:
	.file	5 "crypto_auth/hmacsha512256" "auth_hmacsha512256.c"
	.loc	5 16 5 prologue_end             # crypto_auth/hmacsha512256/auth_hmacsha512256.c:16:5
	movl	$32, %eax
	retq
.Ltmp0:
.Lfunc_end0:
	.size	crypto_auth_hmacsha512256_bytes, .Lfunc_end0-crypto_auth_hmacsha512256_bytes
	.cfi_endproc
                                        # -- End function
	.globl	crypto_auth_hmacsha512256_keybytes # -- Begin function crypto_auth_hmacsha512256_keybytes
	.p2align	4
	.type	crypto_auth_hmacsha512256_keybytes,@function
crypto_auth_hmacsha512256_keybytes:     # @crypto_auth_hmacsha512256_keybytes
.Lfunc_begin1:
	.cfi_startproc
# %bb.0:
	.loc	5 22 5 prologue_end             # crypto_auth/hmacsha512256/auth_hmacsha512256.c:22:5
	movl	$32, %eax
	retq
.Ltmp1:
.Lfunc_end1:
	.size	crypto_auth_hmacsha512256_keybytes, .Lfunc_end1-crypto_auth_hmacsha512256_keybytes
	.cfi_endproc
                                        # -- End function
	.globl	crypto_auth_hmacsha512256_statebytes # -- Begin function crypto_auth_hmacsha512256_statebytes
	.p2align	4
	.type	crypto_auth_hmacsha512256_statebytes,@function
crypto_auth_hmacsha512256_statebytes:   # @crypto_auth_hmacsha512256_statebytes
.Lfunc_begin2:
	.cfi_startproc
# %bb.0:
	.loc	5 28 5 prologue_end             # crypto_auth/hmacsha512256/auth_hmacsha512256.c:28:5
	movl	$416, %eax                      # imm = 0x1A0
	retq
.Ltmp2:
.Lfunc_end2:
	.size	crypto_auth_hmacsha512256_statebytes, .Lfunc_end2-crypto_auth_hmacsha512256_statebytes
	.cfi_endproc
                                        # -- End function
	.globl	crypto_auth_hmacsha512256_keygen # -- Begin function crypto_auth_hmacsha512256_keygen
	.p2align	4
	.type	crypto_auth_hmacsha512256_keygen,@function
crypto_auth_hmacsha512256_keygen:       # @crypto_auth_hmacsha512256_keygen
.Lfunc_begin3:
	.cfi_startproc
# %bb.0:
	#DEBUG_VALUE: crypto_auth_hmacsha512256_keygen:k <- $rdi
	.loc	5 35 5 prologue_end             # crypto_auth/hmacsha512256/auth_hmacsha512256.c:35:5
	movl	$32, %esi
.Ltmp3:
	jmp	randombytes_buf@PLT             # TAILCALL
.Ltmp4:
.Lfunc_end3:
	.size	crypto_auth_hmacsha512256_keygen, .Lfunc_end3-crypto_auth_hmacsha512256_keygen
	.cfi_endproc
	.file	6 "./include/sodium" "randombytes.h"
	.file	7 "/home/leizhenyuu/opt/Anonymous_Repo" "llvm-project/build/lib/clang/21/include/__stddef_size_t.h"
                                        # -- End function
	.globl	crypto_auth_hmacsha512256_init  # -- Begin function crypto_auth_hmacsha512256_init
	.p2align	4
	.type	crypto_auth_hmacsha512256_init,@function
crypto_auth_hmacsha512256_init:         # @crypto_auth_hmacsha512256_init
.Lfunc_begin4:
	.cfi_startproc
# %bb.0:
	#DEBUG_VALUE: crypto_auth_hmacsha512256_init:state <- $rdi
	#DEBUG_VALUE: crypto_auth_hmacsha512256_init:key <- $rsi
	#DEBUG_VALUE: crypto_auth_hmacsha512256_init:keylen <- $rdx
	.loc	5 42 12 prologue_end            # crypto_auth/hmacsha512256/auth_hmacsha512256.c:42:12
	jmp	crypto_auth_hmacsha512_init@PLT # TAILCALL
.Ltmp5:
.Lfunc_end4:
	.size	crypto_auth_hmacsha512256_init, .Lfunc_end4-crypto_auth_hmacsha512256_init
	.cfi_endproc
                                        # -- End function
	.globl	crypto_auth_hmacsha512256_update # -- Begin function crypto_auth_hmacsha512256_update
	.p2align	4
	.type	crypto_auth_hmacsha512256_update,@function
crypto_auth_hmacsha512256_update:       # @crypto_auth_hmacsha512256_update
.Lfunc_begin5:
	.cfi_startproc
# %bb.0:
	#DEBUG_VALUE: crypto_auth_hmacsha512256_update:state <- $rdi
	#DEBUG_VALUE: crypto_auth_hmacsha512256_update:in <- $rsi
	#DEBUG_VALUE: crypto_auth_hmacsha512256_update:inlen <- $rdx
	.loc	5 51 12 prologue_end            # crypto_auth/hmacsha512256/auth_hmacsha512256.c:51:12
	jmp	crypto_auth_hmacsha512_update@PLT # TAILCALL
.Ltmp6:
.Lfunc_end5:
	.size	crypto_auth_hmacsha512256_update, .Lfunc_end5-crypto_auth_hmacsha512256_update
	.cfi_endproc
                                        # -- End function
	.globl	crypto_auth_hmacsha512256_final # -- Begin function crypto_auth_hmacsha512256_final
	.p2align	4
	.type	crypto_auth_hmacsha512256_final,@function
crypto_auth_hmacsha512256_final:        # @crypto_auth_hmacsha512256_final
.Lfunc_begin6:
	.loc	5 58 0                          # crypto_auth/hmacsha512256/auth_hmacsha512256.c:58:0
	.cfi_startproc
# %bb.0:
	#DEBUG_VALUE: crypto_auth_hmacsha512256_final:state <- $rdi
	#DEBUG_VALUE: crypto_auth_hmacsha512256_final:out <- $rsi
	pushq	%rbx
	.cfi_def_cfa_offset 16
	subq	$80, %rsp
	.cfi_def_cfa_offset 96
	.cfi_offset %rbx, -16
	movq	%rsi, %rbx
	movq	%fs:40, %rax
	movq	%rax, 72(%rsp)
	movq	%rsp, %rsi
.Ltmp7:
	#DEBUG_VALUE: crypto_auth_hmacsha512256_final:out <- $rbx
	.loc	5 61 5 prologue_end             # crypto_auth/hmacsha512256/auth_hmacsha512256.c:61:5
	callq	crypto_auth_hmacsha512_final@PLT
.Ltmp8:
	#DEBUG_VALUE: crypto_auth_hmacsha512256_final:state <- [DW_OP_LLVM_entry_value 1] $rdi
	#DEBUG_VALUE: memcpy:__dest <- $rbx
	#DEBUG_VALUE: memcpy:__src <- $rsp
	#DEBUG_VALUE: memcpy:__len <- 32
	.file	8 "/usr/include/x86_64-linux-gnu/bits" "string_fortified.h"
	.loc	8 29 10                         # /usr/include/x86_64-linux-gnu/bits/string_fortified.h:29:10 @[ crypto_auth/hmacsha512256/auth_hmacsha512256.c:62:5 ]
	movaps	(%rsp), %xmm0
	movaps	16(%rsp), %xmm1
	movups	%xmm0, (%rbx)
	movups	%xmm1, 16(%rbx)
.Ltmp9:
	.loc	5 64 5                          # crypto_auth/hmacsha512256/auth_hmacsha512256.c:64:5
	movq	%fs:40, %rax
	cmpq	72(%rsp), %rax
	jne	.LBB6_2
.Ltmp10:
# %bb.1:                                # %SP_return
	#DEBUG_VALUE: crypto_auth_hmacsha512256_final:state <- [DW_OP_LLVM_entry_value 1] $rdi
	#DEBUG_VALUE: crypto_auth_hmacsha512256_final:out <- $rbx
	xorl	%eax, %eax
	.loc	5 64 5 epilogue_begin is_stmt 0 # crypto_auth/hmacsha512256/auth_hmacsha512256.c:64:5
	addq	$80, %rsp
	.cfi_def_cfa_offset 16
	popq	%rbx
.Ltmp11:
	#DEBUG_VALUE: crypto_auth_hmacsha512256_final:out <- [DW_OP_LLVM_entry_value 1] $rsi
	.cfi_def_cfa_offset 8
	retq
.Ltmp12:
.LBB6_2:                                # %CallStackCheckFailBlk
	.cfi_def_cfa_offset 96
	#DEBUG_VALUE: crypto_auth_hmacsha512256_final:state <- [DW_OP_LLVM_entry_value 1] $rdi
	#DEBUG_VALUE: crypto_auth_hmacsha512256_final:out <- $rbx
	#DEBUG_VALUE: memcpy:__dest <- $rbx
	#DEBUG_VALUE: memcpy:__src <- $rsp
	#DEBUG_VALUE: memcpy:__len <- 32
	.loc	5 0 0                           # crypto_auth/hmacsha512256/auth_hmacsha512256.c:0
	callq	__stack_chk_fail@PLT
.Ltmp13:
.Lfunc_end6:
	.size	crypto_auth_hmacsha512256_final, .Lfunc_end6-crypto_auth_hmacsha512256_final
	.cfi_endproc
                                        # -- End function
	.globl	crypto_auth_hmacsha512256       # -- Begin function crypto_auth_hmacsha512256
	.p2align	4
	.type	crypto_auth_hmacsha512256,@function
crypto_auth_hmacsha512256:              # @crypto_auth_hmacsha512256
.Lfunc_begin7:
	.loc	5 70 0 is_stmt 1                # crypto_auth/hmacsha512256/auth_hmacsha512256.c:70:0
	.cfi_startproc
# %bb.0:
	#DEBUG_VALUE: crypto_auth_hmacsha512256:out <- $rdi
	#DEBUG_VALUE: crypto_auth_hmacsha512256:in <- $rsi
	#DEBUG_VALUE: crypto_auth_hmacsha512256:inlen <- $rdx
	#DEBUG_VALUE: crypto_auth_hmacsha512256:k <- $rcx
	pushq	%r15
	.cfi_def_cfa_offset 16
	pushq	%r14
	.cfi_def_cfa_offset 24
	pushq	%r12
	.cfi_def_cfa_offset 32
	pushq	%rbx
	.cfi_def_cfa_offset 40
	subq	$488, %rsp                      # imm = 0x1E8
	.cfi_def_cfa_offset 528
	.cfi_offset %rbx, -40
	.cfi_offset %r12, -32
	.cfi_offset %r14, -24
	.cfi_offset %r15, -16
	movq	%rdx, %rbx
	movq	%rsi, %r14
	movq	%rdi, %r15
	movq	%fs:40, %rax
	movq	%rax, 480(%rsp)
.Ltmp14:
	#DEBUG_VALUE: crypto_auth_hmacsha512256_init:state <- $rsp
	#DEBUG_VALUE: crypto_auth_hmacsha512256_init:key <- $rcx
	#DEBUG_VALUE: crypto_auth_hmacsha512256_init:keylen <- 32
	movq	%rsp, %r12
.Ltmp15:
	.loc	5 42 12 prologue_end            # crypto_auth/hmacsha512256/auth_hmacsha512256.c:42:12 @[ crypto_auth/hmacsha512256/auth_hmacsha512256.c:73:5 ]
	movl	$32, %edx
.Ltmp16:
	#DEBUG_VALUE: crypto_auth_hmacsha512256:inlen <- $rbx
	movq	%r12, %rdi
.Ltmp17:
	#DEBUG_VALUE: crypto_auth_hmacsha512256:out <- $r15
	movq	%rcx, %rsi
.Ltmp18:
	#DEBUG_VALUE: crypto_auth_hmacsha512256:in <- $r14
	callq	crypto_auth_hmacsha512_init@PLT
.Ltmp19:
	#DEBUG_VALUE: crypto_auth_hmacsha512256:k <- [DW_OP_LLVM_entry_value 1] $rcx
	#DEBUG_VALUE: crypto_auth_hmacsha512256_update:state <- $rsp
	#DEBUG_VALUE: crypto_auth_hmacsha512256_update:in <- $r14
	#DEBUG_VALUE: crypto_auth_hmacsha512256_update:inlen <- $rbx
	.loc	5 51 12                         # crypto_auth/hmacsha512256/auth_hmacsha512256.c:51:12 @[ crypto_auth/hmacsha512256/auth_hmacsha512256.c:75:5 ]
	movq	%r12, %rdi
	movq	%r14, %rsi
	movq	%rbx, %rdx
	callq	crypto_auth_hmacsha512_update@PLT
.Ltmp20:
	#DEBUG_VALUE: crypto_auth_hmacsha512256_final:out0 <- [DW_OP_plus_uconst 416, DW_OP_deref] $rsp
	#DEBUG_VALUE: crypto_auth_hmacsha512256_final:state <- $rsp
	#DEBUG_VALUE: crypto_auth_hmacsha512256_final:out <- $r15
	.loc	5 0 12 is_stmt 0                # crypto_auth/hmacsha512256/auth_hmacsha512256.c:0:12
	leaq	416(%rsp), %rsi
.Ltmp21:
	.loc	5 61 5 is_stmt 1                # crypto_auth/hmacsha512256/auth_hmacsha512256.c:61:5 @[ crypto_auth/hmacsha512256/auth_hmacsha512256.c:76:5 ]
	movq	%r12, %rdi
	callq	crypto_auth_hmacsha512_final@PLT
.Ltmp22:
	#DEBUG_VALUE: memcpy:__dest <- $r15
	#DEBUG_VALUE: memcpy:__src <- [DW_OP_plus_uconst 416, DW_OP_stack_value] $rsp
	#DEBUG_VALUE: memcpy:__len <- 32
	.loc	8 29 10                         # /usr/include/x86_64-linux-gnu/bits/string_fortified.h:29:10 @[ crypto_auth/hmacsha512256/auth_hmacsha512256.c:62:5 @[ crypto_auth/hmacsha512256/auth_hmacsha512256.c:76:5 ] ]
	movaps	416(%rsp), %xmm0
	movaps	432(%rsp), %xmm1
	movups	%xmm0, (%r15)
	movups	%xmm1, 16(%r15)
.Ltmp23:
	.loc	5 78 5                          # crypto_auth/hmacsha512256/auth_hmacsha512256.c:78:5
	movq	%fs:40, %rax
	cmpq	480(%rsp), %rax
	jne	.LBB7_2
.Ltmp24:
# %bb.1:                                # %SP_return
	#DEBUG_VALUE: crypto_auth_hmacsha512256:out <- $r15
	#DEBUG_VALUE: crypto_auth_hmacsha512256:in <- $r14
	#DEBUG_VALUE: crypto_auth_hmacsha512256:inlen <- $rbx
	#DEBUG_VALUE: crypto_auth_hmacsha512256:k <- [DW_OP_LLVM_entry_value 1] $rcx
	xorl	%eax, %eax
	.loc	5 78 5 epilogue_begin is_stmt 0 # crypto_auth/hmacsha512256/auth_hmacsha512256.c:78:5
	addq	$488, %rsp                      # imm = 0x1E8
	.cfi_def_cfa_offset 40
	popq	%rbx
.Ltmp25:
	#DEBUG_VALUE: crypto_auth_hmacsha512256:inlen <- [DW_OP_LLVM_entry_value 1] $rdx
	.cfi_def_cfa_offset 32
	popq	%r12
	.cfi_def_cfa_offset 24
	popq	%r14
.Ltmp26:
	#DEBUG_VALUE: crypto_auth_hmacsha512256:in <- [DW_OP_LLVM_entry_value 1] $rsi
	.cfi_def_cfa_offset 16
	popq	%r15
.Ltmp27:
	#DEBUG_VALUE: crypto_auth_hmacsha512256:out <- [DW_OP_LLVM_entry_value 1] $rdi
	.cfi_def_cfa_offset 8
	retq
.Ltmp28:
.LBB7_2:                                # %CallStackCheckFailBlk
	.cfi_def_cfa_offset 528
	#DEBUG_VALUE: crypto_auth_hmacsha512256:out <- $r15
	#DEBUG_VALUE: crypto_auth_hmacsha512256:in <- $r14
	#DEBUG_VALUE: crypto_auth_hmacsha512256:inlen <- $rbx
	#DEBUG_VALUE: crypto_auth_hmacsha512256:k <- [DW_OP_LLVM_entry_value 1] $rcx
	#DEBUG_VALUE: crypto_auth_hmacsha512256_init:state <- $r12
	#DEBUG_VALUE: crypto_auth_hmacsha512256_init:keylen <- 32
	#DEBUG_VALUE: crypto_auth_hmacsha512256_update:state <- $r12
	#DEBUG_VALUE: crypto_auth_hmacsha512256_update:in <- $r14
	#DEBUG_VALUE: crypto_auth_hmacsha512256_update:inlen <- $rbx
	#DEBUG_VALUE: crypto_auth_hmacsha512256_final:out0 <- [DW_OP_plus_uconst 416, DW_OP_deref] $r12
	#DEBUG_VALUE: crypto_auth_hmacsha512256_final:state <- $r12
	#DEBUG_VALUE: crypto_auth_hmacsha512256_final:out <- $r15
	#DEBUG_VALUE: memcpy:__dest <- $r15
	#DEBUG_VALUE: memcpy:__src <- [DW_OP_plus_uconst 416, DW_OP_stack_value] $r12
	#DEBUG_VALUE: memcpy:__len <- 32
	.loc	5 0 0                           # crypto_auth/hmacsha512256/auth_hmacsha512256.c:0
	callq	__stack_chk_fail@PLT
.Ltmp29:
.Lfunc_end7:
	.size	crypto_auth_hmacsha512256, .Lfunc_end7-crypto_auth_hmacsha512256
	.cfi_endproc
	.file	9 "./include/sodium" "crypto_auth_hmacsha512256.h"
                                        # -- End function
	.globl	crypto_auth_hmacsha512256_verify # -- Begin function crypto_auth_hmacsha512256_verify
	.p2align	4
	.type	crypto_auth_hmacsha512256_verify,@function
crypto_auth_hmacsha512256_verify:       # @crypto_auth_hmacsha512256_verify
.Lfunc_begin8:
	.loc	5 86 0 is_stmt 1                # crypto_auth/hmacsha512256/auth_hmacsha512256.c:86:0
	.cfi_startproc
# %bb.0:
	#DEBUG_VALUE: crypto_auth_hmacsha512256_verify:h <- $rdi
	#DEBUG_VALUE: crypto_auth_hmacsha512256_verify:in <- $rsi
	#DEBUG_VALUE: crypto_auth_hmacsha512256_verify:inlen <- $rdx
	#DEBUG_VALUE: crypto_auth_hmacsha512256_verify:k <- $rcx
	pushq	%rbp
	.cfi_def_cfa_offset 16
	pushq	%r15
	.cfi_def_cfa_offset 24
	pushq	%r14
	.cfi_def_cfa_offset 32
	pushq	%r12
	.cfi_def_cfa_offset 40
	pushq	%rbx
	.cfi_def_cfa_offset 48
	subq	$528, %rsp                      # imm = 0x210
	.cfi_def_cfa_offset 576
	.cfi_offset %rbx, -48
	.cfi_offset %r12, -40
	.cfi_offset %r14, -32
	.cfi_offset %r15, -24
	.cfi_offset %rbp, -16
	movq	%rdx, %r14
	movq	%rsi, %r15
	movq	%rdi, %rbx
	movq	%fs:40, %rax
	movq	%rax, 520(%rsp)
.Ltmp30:
	#DEBUG_VALUE: crypto_auth_hmacsha512256:state <- [DW_OP_plus_uconst 32, DW_OP_deref] $rsp
	#DEBUG_VALUE: crypto_auth_hmacsha512256:out <- $rsp
	#DEBUG_VALUE: crypto_auth_hmacsha512256:in <- $r15
	#DEBUG_VALUE: crypto_auth_hmacsha512256:inlen <- $r14
	#DEBUG_VALUE: crypto_auth_hmacsha512256:k <- $rcx
	#DEBUG_VALUE: crypto_auth_hmacsha512256_init:state <- [DW_OP_plus_uconst 32, DW_OP_stack_value] $rsp
	#DEBUG_VALUE: crypto_auth_hmacsha512256_init:key <- $rcx
	#DEBUG_VALUE: crypto_auth_hmacsha512256_init:keylen <- 32
	leaq	32(%rsp), %r12
.Ltmp31:
	.loc	5 42 12 prologue_end            # crypto_auth/hmacsha512256/auth_hmacsha512256.c:42:12 @[ crypto_auth/hmacsha512256/auth_hmacsha512256.c:73:5 @[ crypto_auth/hmacsha512256/auth_hmacsha512256.c:89:5 ] ]
	movl	$32, %edx
.Ltmp32:
	#DEBUG_VALUE: crypto_auth_hmacsha512256_verify:inlen <- $r14
	movq	%r12, %rdi
.Ltmp33:
	#DEBUG_VALUE: crypto_auth_hmacsha512256_verify:h <- $rbx
	movq	%rcx, %rsi
.Ltmp34:
	#DEBUG_VALUE: crypto_auth_hmacsha512256_verify:in <- $r15
	callq	crypto_auth_hmacsha512_init@PLT
.Ltmp35:
	#DEBUG_VALUE: crypto_auth_hmacsha512256_verify:k <- [DW_OP_LLVM_entry_value 1] $rcx
	#DEBUG_VALUE: crypto_auth_hmacsha512256_update:state <- [DW_OP_plus_uconst 32, DW_OP_stack_value] $rsp
	#DEBUG_VALUE: crypto_auth_hmacsha512256_update:in <- $r15
	#DEBUG_VALUE: crypto_auth_hmacsha512256_update:inlen <- $r14
	.loc	5 51 12                         # crypto_auth/hmacsha512256/auth_hmacsha512256.c:51:12 @[ crypto_auth/hmacsha512256/auth_hmacsha512256.c:75:5 @[ crypto_auth/hmacsha512256/auth_hmacsha512256.c:89:5 ] ]
	movq	%r12, %rdi
	movq	%r15, %rsi
	movq	%r14, %rdx
	callq	crypto_auth_hmacsha512_update@PLT
.Ltmp36:
	#DEBUG_VALUE: crypto_auth_hmacsha512256_final:out0 <- [DW_OP_plus_uconst 448, DW_OP_deref] $rsp
	#DEBUG_VALUE: crypto_auth_hmacsha512256_final:state <- [DW_OP_plus_uconst 32, DW_OP_stack_value] $rsp
	#DEBUG_VALUE: crypto_auth_hmacsha512256_final:out <- $rsp
	.loc	5 0 12 is_stmt 0                # crypto_auth/hmacsha512256/auth_hmacsha512256.c:0:12
	leaq	448(%rsp), %rsi
.Ltmp37:
	.loc	5 61 5 is_stmt 1                # crypto_auth/hmacsha512256/auth_hmacsha512256.c:61:5 @[ crypto_auth/hmacsha512256/auth_hmacsha512256.c:76:5 @[ crypto_auth/hmacsha512256/auth_hmacsha512256.c:89:5 ] ]
	movq	%r12, %rdi
	callq	crypto_auth_hmacsha512_final@PLT
.Ltmp38:
	#DEBUG_VALUE: memcpy:__dest <- $rsp
	#DEBUG_VALUE: memcpy:__src <- [DW_OP_plus_uconst 448, DW_OP_stack_value] $rsp
	#DEBUG_VALUE: memcpy:__len <- 32
	.loc	8 29 10                         # /usr/include/x86_64-linux-gnu/bits/string_fortified.h:29:10 @[ crypto_auth/hmacsha512256/auth_hmacsha512256.c:62:5 @[ crypto_auth/hmacsha512256/auth_hmacsha512256.c:76:5 @[ crypto_auth/hmacsha512256/auth_hmacsha512256.c:89:5 ] ] ]
	movaps	448(%rsp), %xmm0
	movaps	464(%rsp), %xmm1
	movaps	%xmm0, (%rsp)
	movaps	%xmm1, 16(%rsp)
	movq	%rsp, %r14
.Ltmp39:
	#DEBUG_VALUE: crypto_auth_hmacsha512256_verify:inlen <- [DW_OP_LLVM_entry_value 1] $rdx
	.loc	5 91 12                         # crypto_auth/hmacsha512256/auth_hmacsha512256.c:91:12
	movq	%rbx, %rdi
	movq	%r14, %rsi
	callq	crypto_verify_32@PLT
.Ltmp40:
	.loc	5 91 48 is_stmt 0               # crypto_auth/hmacsha512256/auth_hmacsha512256.c:91:48
	cmpq	%r14, %rbx
	movl	$-1, %ebp
	.loc	5 91 41                         # crypto_auth/hmacsha512256/auth_hmacsha512256.c:91:41
	cmovnel	%eax, %ebp
	.loc	5 92 12 is_stmt 1               # crypto_auth/hmacsha512256/auth_hmacsha512256.c:92:12
	movl	$32, %edx
	movq	%r14, %rdi
	movq	%rbx, %rsi
	callq	sodium_memcmp@PLT
.Ltmp41:
	.loc	5 91 5                          # crypto_auth/hmacsha512256/auth_hmacsha512256.c:91:5
	movq	%fs:40, %rcx
	cmpq	520(%rsp), %rcx
	jne	.LBB8_2
.Ltmp42:
# %bb.1:                                # %SP_return
	#DEBUG_VALUE: crypto_auth_hmacsha512256_verify:h <- $rbx
	#DEBUG_VALUE: crypto_auth_hmacsha512256_verify:in <- $r15
	#DEBUG_VALUE: crypto_auth_hmacsha512256_verify:inlen <- [DW_OP_LLVM_entry_value 1] $rdx
	#DEBUG_VALUE: crypto_auth_hmacsha512256_verify:k <- [DW_OP_LLVM_entry_value 1] $rcx
	.loc	5 91 0 is_stmt 0                # crypto_auth/hmacsha512256/auth_hmacsha512256.c:91
	orl	%eax, %ebp
	.loc	5 91 5                          # crypto_auth/hmacsha512256/auth_hmacsha512256.c:91:5
	movl	%ebp, %eax
	.loc	5 91 5 epilogue_begin           # crypto_auth/hmacsha512256/auth_hmacsha512256.c:91:5
	addq	$528, %rsp                      # imm = 0x210
	.cfi_def_cfa_offset 48
	popq	%rbx
.Ltmp43:
	#DEBUG_VALUE: crypto_auth_hmacsha512256_verify:h <- [DW_OP_LLVM_entry_value 1] $rdi
	.cfi_def_cfa_offset 40
	popq	%r12
	.cfi_def_cfa_offset 32
	popq	%r14
	.cfi_def_cfa_offset 24
	popq	%r15
.Ltmp44:
	#DEBUG_VALUE: crypto_auth_hmacsha512256_verify:in <- [DW_OP_LLVM_entry_value 1] $rsi
	.cfi_def_cfa_offset 16
	popq	%rbp
	.cfi_def_cfa_offset 8
	retq
.Ltmp45:
.LBB8_2:                                # %CallStackCheckFailBlk
	.cfi_def_cfa_offset 576
	#DEBUG_VALUE: crypto_auth_hmacsha512256_verify:h <- $rbx
	#DEBUG_VALUE: crypto_auth_hmacsha512256_verify:in <- $r15
	#DEBUG_VALUE: crypto_auth_hmacsha512256_verify:inlen <- [DW_OP_LLVM_entry_value 1] $rdx
	#DEBUG_VALUE: crypto_auth_hmacsha512256_verify:k <- [DW_OP_LLVM_entry_value 1] $rcx
	#DEBUG_VALUE: crypto_auth_hmacsha512256:state <- [DW_OP_plus_uconst 32, DW_OP_deref] $r14
	#DEBUG_VALUE: crypto_auth_hmacsha512256:out <- $r14
	#DEBUG_VALUE: crypto_auth_hmacsha512256:in <- $r15
	#DEBUG_VALUE: crypto_auth_hmacsha512256_init:state <- [DW_OP_plus_uconst 32, DW_OP_stack_value] $r14
	#DEBUG_VALUE: crypto_auth_hmacsha512256_init:keylen <- 32
	#DEBUG_VALUE: crypto_auth_hmacsha512256_update:state <- [DW_OP_plus_uconst 32, DW_OP_stack_value] $r14
	#DEBUG_VALUE: crypto_auth_hmacsha512256_update:in <- $r15
	#DEBUG_VALUE: crypto_auth_hmacsha512256_final:out0 <- [DW_OP_plus_uconst 448, DW_OP_deref] $r14
	#DEBUG_VALUE: crypto_auth_hmacsha512256_final:state <- [DW_OP_plus_uconst 32, DW_OP_stack_value] $r14
	#DEBUG_VALUE: crypto_auth_hmacsha512256_final:out <- $r14
	#DEBUG_VALUE: memcpy:__dest <- $r14
	#DEBUG_VALUE: memcpy:__src <- [DW_OP_plus_uconst 448, DW_OP_stack_value] $r14
	#DEBUG_VALUE: memcpy:__len <- 32
	.loc	5 0 0                           # crypto_auth/hmacsha512256/auth_hmacsha512256.c:0
	callq	__stack_chk_fail@PLT
.Ltmp46:
.Lfunc_end8:
	.size	crypto_auth_hmacsha512256_verify, .Lfunc_end8-crypto_auth_hmacsha512256_verify
	.cfi_endproc
	.file	10 "./include/sodium" "crypto_verify_32.h"
	.file	11 "./include/sodium" "utils.h"
                                        # -- End function
	.section	".note.GNU-stack","",@progbits
	.addrsig
	.addrsig_sym __stack_chk_fail