	.file	"auth_hmacsha512.c"
	.file	0 "/home/leizhenyuu/opt/Anonymous_Repo/libsodium_o2_attr_inline/src/libsodium" "auth_hmacsha512.c" md5 0xda0cb887a6862c12d7a2cb5f8555dfdd
	.text
	.globl	crypto_auth_hmacsha512_bytes    # -- Begin function crypto_auth_hmacsha512_bytes
	.p2align	4
	.type	crypto_auth_hmacsha512_bytes,@function
crypto_auth_hmacsha512_bytes:           # @crypto_auth_hmacsha512_bytes
.Lfunc_begin0:
	.cfi_startproc
# %bb.0:
	.file	1 "crypto_auth/hmacsha512" "auth_hmacsha512.c"
	.loc	1 15 5 prologue_end             # crypto_auth/hmacsha512/auth_hmacsha512.c:15:5
	movl	$64, %eax
	retq
.Ltmp0:
.Lfunc_end0:
	.size	crypto_auth_hmacsha512_bytes, .Lfunc_end0-crypto_auth_hmacsha512_bytes
	.cfi_endproc
                                        # -- End function
	.globl	crypto_auth_hmacsha512_keybytes # -- Begin function crypto_auth_hmacsha512_keybytes
	.p2align	4
	.type	crypto_auth_hmacsha512_keybytes,@function
crypto_auth_hmacsha512_keybytes:        # @crypto_auth_hmacsha512_keybytes
.Lfunc_begin1:
	.cfi_startproc
# %bb.0:
	.loc	1 21 5 prologue_end             # crypto_auth/hmacsha512/auth_hmacsha512.c:21:5
	movl	$32, %eax
	retq
.Ltmp1:
.Lfunc_end1:
	.size	crypto_auth_hmacsha512_keybytes, .Lfunc_end1-crypto_auth_hmacsha512_keybytes
	.cfi_endproc
                                        # -- End function
	.globl	crypto_auth_hmacsha512_statebytes # -- Begin function crypto_auth_hmacsha512_statebytes
	.p2align	4
	.type	crypto_auth_hmacsha512_statebytes,@function
crypto_auth_hmacsha512_statebytes:      # @crypto_auth_hmacsha512_statebytes
.Lfunc_begin2:
	.cfi_startproc
# %bb.0:
	.loc	1 27 5 prologue_end             # crypto_auth/hmacsha512/auth_hmacsha512.c:27:5
	movl	$416, %eax                      # imm = 0x1A0
	retq
.Ltmp2:
.Lfunc_end2:
	.size	crypto_auth_hmacsha512_statebytes, .Lfunc_end2-crypto_auth_hmacsha512_statebytes
	.cfi_endproc
                                        # -- End function
	.globl	crypto_auth_hmacsha512_keygen   # -- Begin function crypto_auth_hmacsha512_keygen
	.p2align	4
	.type	crypto_auth_hmacsha512_keygen,@function
crypto_auth_hmacsha512_keygen:          # @crypto_auth_hmacsha512_keygen
.Lfunc_begin3:
	.cfi_startproc
# %bb.0:
	#DEBUG_VALUE: crypto_auth_hmacsha512_keygen:k <- $rdi
	.loc	1 33 5 prologue_end             # crypto_auth/hmacsha512/auth_hmacsha512.c:33:5
	movl	$32, %esi
.Ltmp3:
	jmp	randombytes_buf@PLT             # TAILCALL
.Ltmp4:
.Lfunc_end3:
	.size	crypto_auth_hmacsha512_keygen, .Lfunc_end3-crypto_auth_hmacsha512_keygen
	.cfi_endproc
	.file	2 "./include/sodium" "randombytes.h"
	.file	3 "/home/leizhenyuu/opt/Anonymous_Repo" "llvm-project/build/lib/clang/21/include/__stddef_size_t.h"
                                        # -- End function
	.section	.rodata.cst16,"aM",@progbits,16
	.p2align	4, 0x0                          # -- Begin function crypto_auth_hmacsha512_init
.LCPI4_0:
	.zero	16,54
.LCPI4_1:
	.zero	16,92
	.text
	.globl	crypto_auth_hmacsha512_init
	.p2align	4
	.type	crypto_auth_hmacsha512_init,@function
crypto_auth_hmacsha512_init:            # @crypto_auth_hmacsha512_init
.Lfunc_begin4:
	.loc	1 39 0                          # crypto_auth/hmacsha512/auth_hmacsha512.c:39:0
	.cfi_startproc
# %bb.0:
	#DEBUG_VALUE: crypto_auth_hmacsha512_init:state <- $rdi
	#DEBUG_VALUE: crypto_auth_hmacsha512_init:key <- $rsi
	#DEBUG_VALUE: crypto_auth_hmacsha512_init:keylen <- $rdx
	pushq	%r15
	.cfi_def_cfa_offset 16
	pushq	%r14
	.cfi_def_cfa_offset 24
	pushq	%rbx
	.cfi_def_cfa_offset 32
	subq	$208, %rsp
	.cfi_def_cfa_offset 240
	.cfi_offset %rbx, -32
	.cfi_offset %r14, -24
	.cfi_offset %r15, -16
	movq	%rdx, %r15
	movq	%rsi, %r14
	movq	%rdi, %rbx
	movq	%fs:40, %rax
	movq	%rax, 200(%rsp)
.Ltmp5:
	.loc	1 44 16 prologue_end            # crypto_auth/hmacsha512/auth_hmacsha512.c:44:16
	cmpq	$129, %rdx
	jb	.LBB4_2
.Ltmp6:
# %bb.1:
	#DEBUG_VALUE: crypto_auth_hmacsha512_init:state <- $rbx
	#DEBUG_VALUE: crypto_auth_hmacsha512_init:key <- $r14
	#DEBUG_VALUE: crypto_auth_hmacsha512_init:keylen <- $r15
	.loc	1 45 9                          # crypto_auth/hmacsha512/auth_hmacsha512.c:45:9
	movq	%rbx, %rdi
	callq	crypto_hash_sha512_init@PLT
.Ltmp7:
	.loc	1 46 9                          # crypto_auth/hmacsha512/auth_hmacsha512.c:46:9
	movq	%rbx, %rdi
	movq	%r14, %rsi
	movq	%r15, %rdx
	callq	crypto_hash_sha512_update@PLT
.Ltmp8:
	.loc	1 0 9 is_stmt 0                 # crypto_auth/hmacsha512/auth_hmacsha512.c:0:9
	movq	%rsp, %r14
.Ltmp9:
	#DEBUG_VALUE: crypto_auth_hmacsha512_init:key <- [DW_OP_LLVM_entry_value 1] $rsi
	.loc	1 47 9 is_stmt 1                # crypto_auth/hmacsha512/auth_hmacsha512.c:47:9
	movq	%rbx, %rdi
	movq	%r14, %rsi
	callq	crypto_hash_sha512_final@PLT
.Ltmp10:
	.loc	1 0 9 is_stmt 0                 # crypto_auth/hmacsha512/auth_hmacsha512.c:0:9
	movl	$64, %r15d
.Ltmp11:
	#DEBUG_VALUE: crypto_auth_hmacsha512_init:keylen <- [DW_OP_LLVM_entry_value 1] $rdx
	#DEBUG_VALUE: crypto_auth_hmacsha512_init:key <- $rsp
	#DEBUG_VALUE: crypto_auth_hmacsha512_init:keylen <- 64
.LBB4_2:
	#DEBUG_VALUE: crypto_auth_hmacsha512_init:state <- $rbx
	#DEBUG_VALUE: crypto_auth_hmacsha512_init:key <- $r14
	#DEBUG_VALUE: crypto_auth_hmacsha512_init:keylen <- $r15
	#DEBUG_VALUE: crypto_auth_hmacsha512_init:key <- $r14
	.loc	1 51 5 is_stmt 1                # crypto_auth/hmacsha512/auth_hmacsha512.c:51:5
	movq	%rbx, %rdi
	callq	crypto_hash_sha512_init@PLT
.Ltmp12:
	#DEBUG_VALUE: memset:__dest <- [DW_OP_plus_uconst 64, DW_OP_stack_value] $rsp
	#DEBUG_VALUE: memset:__ch <- 54
	#DEBUG_VALUE: memset:__len <- 128
	.file	4 "/usr/include/x86_64-linux-gnu/bits" "string_fortified.h"
	.loc	4 59 10                         # /usr/include/x86_64-linux-gnu/bits/string_fortified.h:59:10 @[ crypto_auth/hmacsha512/auth_hmacsha512.c:52:5 ]
	movaps	.LCPI4_0(%rip), %xmm0           # xmm0 = [54,54,54,54,54,54,54,54,54,54,54,54,54,54,54,54]
	movaps	%xmm0, 64(%rsp)
	movaps	%xmm0, 80(%rsp)
	movaps	%xmm0, 96(%rsp)
	movaps	%xmm0, 112(%rsp)
	movaps	%xmm0, 128(%rsp)
	movaps	%xmm0, 144(%rsp)
	movaps	%xmm0, 160(%rsp)
	movaps	%xmm0, 176(%rsp)
.Ltmp13:
	#DEBUG_VALUE: crypto_auth_hmacsha512_init:i <- 0
	.loc	1 53 19                         # crypto_auth/hmacsha512/auth_hmacsha512.c:53:19
	testq	%r15, %r15
.Ltmp14:
	.loc	1 53 5 is_stmt 0                # crypto_auth/hmacsha512/auth_hmacsha512.c:53:5
	je	.LBB4_20
.Ltmp15:
# %bb.3:                                # %iter.check
	#DEBUG_VALUE: crypto_auth_hmacsha512_init:state <- $rbx
	#DEBUG_VALUE: crypto_auth_hmacsha512_init:key <- $r14
	#DEBUG_VALUE: crypto_auth_hmacsha512_init:keylen <- $r15
	#DEBUG_VALUE: crypto_auth_hmacsha512_init:i <- 0
	cmpq	$4, %r15
	jae	.LBB4_6
.Ltmp16:
# %bb.4:
	#DEBUG_VALUE: crypto_auth_hmacsha512_init:state <- $rbx
	#DEBUG_VALUE: crypto_auth_hmacsha512_init:key <- $r14
	#DEBUG_VALUE: crypto_auth_hmacsha512_init:keylen <- $r15
	#DEBUG_VALUE: crypto_auth_hmacsha512_init:i <- 0
	.loc	1 0 5                           # crypto_auth/hmacsha512/auth_hmacsha512.c:0:5
	xorl	%eax, %eax
	jmp	.LBB4_5
.Ltmp17:
.LBB4_6:                                # %vector.main.loop.iter.check
	#DEBUG_VALUE: crypto_auth_hmacsha512_init:state <- $rbx
	#DEBUG_VALUE: crypto_auth_hmacsha512_init:key <- $r14
	#DEBUG_VALUE: crypto_auth_hmacsha512_init:keylen <- $r15
	#DEBUG_VALUE: crypto_auth_hmacsha512_init:i <- 0
	.loc	1 53 5                          # crypto_auth/hmacsha512/auth_hmacsha512.c:53:5
	cmpq	$32, %r15
	jae	.LBB4_8
.Ltmp18:
# %bb.7:
	#DEBUG_VALUE: crypto_auth_hmacsha512_init:state <- $rbx
	#DEBUG_VALUE: crypto_auth_hmacsha512_init:key <- $r14
	#DEBUG_VALUE: crypto_auth_hmacsha512_init:keylen <- $r15
	#DEBUG_VALUE: crypto_auth_hmacsha512_init:i <- 0
	.loc	1 0 5                           # crypto_auth/hmacsha512/auth_hmacsha512.c:0:5
	xorl	%eax, %eax
	.loc	1 53 5                          # crypto_auth/hmacsha512/auth_hmacsha512.c:53:5
	jmp	.LBB4_17
.Ltmp19:
.LBB4_8:                                # %vector.ph
	#DEBUG_VALUE: crypto_auth_hmacsha512_init:state <- $rbx
	#DEBUG_VALUE: crypto_auth_hmacsha512_init:key <- $r14
	#DEBUG_VALUE: crypto_auth_hmacsha512_init:keylen <- $r15
	#DEBUG_VALUE: crypto_auth_hmacsha512_init:i <- 0
	movl	%r15d, %eax
.Ltmp20:
	.loc	1 54 19 is_stmt 1               # crypto_auth/hmacsha512/auth_hmacsha512.c:54:19
	movups	(%r14), %xmm0
	movups	16(%r14), %xmm1
	.loc	1 54 16 is_stmt 0               # crypto_auth/hmacsha512/auth_hmacsha512.c:54:16
	xorps	64(%rsp), %xmm0
	xorps	80(%rsp), %xmm1
.Ltmp21:
	.loc	1 53 5 is_stmt 1                # crypto_auth/hmacsha512/auth_hmacsha512.c:53:5
	andl	$224, %eax
.Ltmp22:
	.loc	1 54 16                         # crypto_auth/hmacsha512/auth_hmacsha512.c:54:16
	movaps	%xmm0, 64(%rsp)
	movaps	%xmm1, 80(%rsp)
.Ltmp23:
	.loc	1 53 30                         # crypto_auth/hmacsha512/auth_hmacsha512.c:53:30
	cmpq	$32, %rax
	je	.LBB4_15
.Ltmp24:
# %bb.9:                                # %vector.body.1
	#DEBUG_VALUE: crypto_auth_hmacsha512_init:state <- $rbx
	#DEBUG_VALUE: crypto_auth_hmacsha512_init:key <- $r14
	#DEBUG_VALUE: crypto_auth_hmacsha512_init:keylen <- $r15
	#DEBUG_VALUE: crypto_auth_hmacsha512_init:i <- 0
	.loc	1 54 19                         # crypto_auth/hmacsha512/auth_hmacsha512.c:54:19
	movups	32(%r14), %xmm0
	movups	48(%r14), %xmm1
	.loc	1 54 16 is_stmt 0               # crypto_auth/hmacsha512/auth_hmacsha512.c:54:16
	xorps	96(%rsp), %xmm0
	xorps	112(%rsp), %xmm1
	movaps	%xmm0, 96(%rsp)
	movaps	%xmm1, 112(%rsp)
.Ltmp25:
	.loc	1 53 30 is_stmt 1               # crypto_auth/hmacsha512/auth_hmacsha512.c:53:30
	cmpl	$64, %eax
	je	.LBB4_15
.Ltmp26:
# %bb.10:                               # %vector.body.2
	#DEBUG_VALUE: crypto_auth_hmacsha512_init:state <- $rbx
	#DEBUG_VALUE: crypto_auth_hmacsha512_init:key <- $r14
	#DEBUG_VALUE: crypto_auth_hmacsha512_init:keylen <- $r15
	#DEBUG_VALUE: crypto_auth_hmacsha512_init:i <- 0
	.loc	1 54 19                         # crypto_auth/hmacsha512/auth_hmacsha512.c:54:19
	movups	64(%r14), %xmm0
	movups	80(%r14), %xmm1
	.loc	1 54 16 is_stmt 0               # crypto_auth/hmacsha512/auth_hmacsha512.c:54:16
	xorps	128(%rsp), %xmm0
	xorps	144(%rsp), %xmm1
	movaps	%xmm0, 128(%rsp)
	movaps	%xmm1, 144(%rsp)
.Ltmp27:
	.loc	1 53 30 is_stmt 1               # crypto_auth/hmacsha512/auth_hmacsha512.c:53:30
	cmpl	$96, %eax
	je	.LBB4_15
.Ltmp28:
# %bb.11:                               # %vector.body.3
	#DEBUG_VALUE: crypto_auth_hmacsha512_init:state <- $rbx
	#DEBUG_VALUE: crypto_auth_hmacsha512_init:key <- $r14
	#DEBUG_VALUE: crypto_auth_hmacsha512_init:keylen <- $r15
	#DEBUG_VALUE: crypto_auth_hmacsha512_init:i <- 0
	.loc	1 54 19                         # crypto_auth/hmacsha512/auth_hmacsha512.c:54:19
	movups	96(%r14), %xmm0
	movups	112(%r14), %xmm1
	.loc	1 54 16 is_stmt 0               # crypto_auth/hmacsha512/auth_hmacsha512.c:54:16
	xorps	160(%rsp), %xmm0
	xorps	176(%rsp), %xmm1
	movaps	%xmm0, 160(%rsp)
	movaps	%xmm1, 176(%rsp)
.Ltmp29:
	.loc	1 53 30 is_stmt 1               # crypto_auth/hmacsha512/auth_hmacsha512.c:53:30
	cmpl	$128, %eax
	je	.LBB4_15
.Ltmp30:
# %bb.12:                               # %vector.body.4
	#DEBUG_VALUE: crypto_auth_hmacsha512_init:state <- $rbx
	#DEBUG_VALUE: crypto_auth_hmacsha512_init:key <- $r14
	#DEBUG_VALUE: crypto_auth_hmacsha512_init:keylen <- $r15
	#DEBUG_VALUE: crypto_auth_hmacsha512_init:i <- 0
	.loc	1 54 19                         # crypto_auth/hmacsha512/auth_hmacsha512.c:54:19
	movups	128(%r14), %xmm0
	movups	144(%r14), %xmm1
	.loc	1 54 16 is_stmt 0               # crypto_auth/hmacsha512/auth_hmacsha512.c:54:16
	xorps	192(%rsp), %xmm0
	xorps	208(%rsp), %xmm1
	movaps	%xmm0, 192(%rsp)
	movaps	%xmm1, 208(%rsp)
.Ltmp31:
	.loc	1 53 30 is_stmt 1               # crypto_auth/hmacsha512/auth_hmacsha512.c:53:30
	cmpl	$160, %eax
	je	.LBB4_15
.Ltmp32:
# %bb.13:                               # %vector.body.5
	#DEBUG_VALUE: crypto_auth_hmacsha512_init:state <- $rbx
	#DEBUG_VALUE: crypto_auth_hmacsha512_init:key <- $r14
	#DEBUG_VALUE: crypto_auth_hmacsha512_init:keylen <- $r15
	#DEBUG_VALUE: crypto_auth_hmacsha512_init:i <- 0
	.loc	1 54 19                         # crypto_auth/hmacsha512/auth_hmacsha512.c:54:19
	movups	160(%r14), %xmm0
	movups	176(%r14), %xmm1
	.loc	1 54 16 is_stmt 0               # crypto_auth/hmacsha512/auth_hmacsha512.c:54:16
	xorps	224(%rsp), %xmm0
	xorps	240(%rsp), %xmm1
	movaps	%xmm0, 224(%rsp)
	movaps	%xmm1, 240(%rsp)
.Ltmp33:
	.loc	1 53 30 is_stmt 1               # crypto_auth/hmacsha512/auth_hmacsha512.c:53:30
	cmpl	$192, %eax
	je	.LBB4_15
.Ltmp34:
# %bb.14:                               # %vector.body.6
	#DEBUG_VALUE: crypto_auth_hmacsha512_init:state <- $rbx
	#DEBUG_VALUE: crypto_auth_hmacsha512_init:key <- $r14
	#DEBUG_VALUE: crypto_auth_hmacsha512_init:keylen <- $r15
	#DEBUG_VALUE: crypto_auth_hmacsha512_init:i <- 0
	.loc	1 54 19                         # crypto_auth/hmacsha512/auth_hmacsha512.c:54:19
	movups	192(%r14), %xmm0
	movups	208(%r14), %xmm1
	.loc	1 54 16 is_stmt 0               # crypto_auth/hmacsha512/auth_hmacsha512.c:54:16
	xorps	256(%rsp), %xmm0
	xorps	272(%rsp), %xmm1
	movaps	%xmm0, 256(%rsp)
	movaps	%xmm1, 272(%rsp)
.Ltmp35:
.LBB4_15:                               # %middle.block
	#DEBUG_VALUE: crypto_auth_hmacsha512_init:state <- $rbx
	#DEBUG_VALUE: crypto_auth_hmacsha512_init:key <- $r14
	#DEBUG_VALUE: crypto_auth_hmacsha512_init:keylen <- $r15
	#DEBUG_VALUE: crypto_auth_hmacsha512_init:i <- 0
	.loc	1 53 5 is_stmt 1                # crypto_auth/hmacsha512/auth_hmacsha512.c:53:5
	cmpq	%rax, %r15
	je	.LBB4_20
.Ltmp36:
# %bb.16:                               # %vec.epilog.iter.check
	#DEBUG_VALUE: crypto_auth_hmacsha512_init:state <- $rbx
	#DEBUG_VALUE: crypto_auth_hmacsha512_init:key <- $r14
	#DEBUG_VALUE: crypto_auth_hmacsha512_init:keylen <- $r15
	#DEBUG_VALUE: crypto_auth_hmacsha512_init:i <- 0
	testb	$28, %r15b
	je	.LBB4_5
.Ltmp37:
.LBB4_17:                               # %vec.epilog.ph
	#DEBUG_VALUE: crypto_auth_hmacsha512_init:state <- $rbx
	#DEBUG_VALUE: crypto_auth_hmacsha512_init:key <- $r14
	#DEBUG_VALUE: crypto_auth_hmacsha512_init:keylen <- $r15
	#DEBUG_VALUE: crypto_auth_hmacsha512_init:i <- 0
	.loc	1 0 5 is_stmt 0                 # crypto_auth/hmacsha512/auth_hmacsha512.c:0:5
	movq	%rax, %rcx
	.loc	1 53 5                          # crypto_auth/hmacsha512/auth_hmacsha512.c:53:5
	movl	%r15d, %eax
	andl	$252, %eax
.Ltmp38:
	.loc	1 0 5                           # :0:5
.Ltmp39:
	.p2align	4
.LBB4_18:                               # %vec.epilog.vector.body
                                        # =>This Inner Loop Header: Depth=1
	#DEBUG_VALUE: crypto_auth_hmacsha512_init:state <- $rbx
	#DEBUG_VALUE: crypto_auth_hmacsha512_init:key <- $r14
	#DEBUG_VALUE: crypto_auth_hmacsha512_init:keylen <- $r15
	#DEBUG_VALUE: crypto_auth_hmacsha512_init:i <- 0
	.loc	1 54 19 is_stmt 1               # crypto_auth/hmacsha512/auth_hmacsha512.c:54:19
	movl	(%r14,%rcx), %edx
	.loc	1 54 16 is_stmt 0               # crypto_auth/hmacsha512/auth_hmacsha512.c:54:16
	xorl	%edx, 64(%rsp,%rcx)
.Ltmp40:
	.loc	1 53 30 is_stmt 1               # crypto_auth/hmacsha512/auth_hmacsha512.c:53:30
	addq	$4, %rcx
	cmpq	%rcx, %rax
	jne	.LBB4_18
	jmp	.LBB4_19
.Ltmp41:
.LBB4_5:                                # %.lr.ph
	#DEBUG_VALUE: crypto_auth_hmacsha512_init:state <- $rbx
	#DEBUG_VALUE: crypto_auth_hmacsha512_init:key <- $r14
	#DEBUG_VALUE: crypto_auth_hmacsha512_init:keylen <- $r15
	#DEBUG_VALUE: crypto_auth_hmacsha512_init:i <- $rax
	.loc	1 54 19                         # crypto_auth/hmacsha512/auth_hmacsha512.c:54:19
	movzbl	(%r14,%rax), %ecx
	.loc	1 54 16 is_stmt 0               # crypto_auth/hmacsha512/auth_hmacsha512.c:54:16
	xorb	%cl, 64(%rsp,%rax)
.Ltmp42:
	.loc	1 53 30 is_stmt 1               # crypto_auth/hmacsha512/auth_hmacsha512.c:53:30
	incq	%rax
.Ltmp43:
	#DEBUG_VALUE: crypto_auth_hmacsha512_init:i <- $rax
.LBB4_19:                               # %.lr.ph
	#DEBUG_VALUE: crypto_auth_hmacsha512_init:state <- $rbx
	#DEBUG_VALUE: crypto_auth_hmacsha512_init:key <- $r14
	#DEBUG_VALUE: crypto_auth_hmacsha512_init:keylen <- $r15
	.loc	1 53 0 is_stmt 0                # crypto_auth/hmacsha512/auth_hmacsha512.c:53
	cmpq	%rax, %r15
	.loc	1 53 5                          # crypto_auth/hmacsha512/auth_hmacsha512.c:53:5
	jne	.LBB4_5
.Ltmp44:
.LBB4_20:                               # %._crit_edge
	#DEBUG_VALUE: crypto_auth_hmacsha512_init:state <- $rbx
	#DEBUG_VALUE: crypto_auth_hmacsha512_init:key <- $r14
	#DEBUG_VALUE: crypto_auth_hmacsha512_init:keylen <- $r15
	.loc	1 0 5                           # crypto_auth/hmacsha512/auth_hmacsha512.c:0:5
	leaq	64(%rsp), %rsi
	.loc	1 56 5 is_stmt 1                # crypto_auth/hmacsha512/auth_hmacsha512.c:56:5
	movl	$128, %edx
	movq	%rbx, %rdi
	callq	crypto_hash_sha512_update@PLT
.Ltmp45:
	.loc	1 58 37                         # crypto_auth/hmacsha512/auth_hmacsha512.c:58:37
	addq	$208, %rbx
.Ltmp46:
	#DEBUG_VALUE: crypto_auth_hmacsha512_init:state <- [DW_OP_LLVM_entry_value 1] $rdi
	.loc	1 58 5 is_stmt 0                # crypto_auth/hmacsha512/auth_hmacsha512.c:58:5
	movq	%rbx, %rdi
	callq	crypto_hash_sha512_init@PLT
.Ltmp47:
	.loc	4 59 10 is_stmt 1               # /usr/include/x86_64-linux-gnu/bits/string_fortified.h:59:10 @[ crypto_auth/hmacsha512/auth_hmacsha512.c:59:5 ]
	movaps	.LCPI4_1(%rip), %xmm0           # xmm0 = [92,92,92,92,92,92,92,92,92,92,92,92,92,92,92,92]
	movaps	%xmm0, 64(%rsp)
	movaps	%xmm0, 80(%rsp)
	movaps	%xmm0, 96(%rsp)
	movaps	%xmm0, 112(%rsp)
	movaps	%xmm0, 128(%rsp)
	movaps	%xmm0, 144(%rsp)
	movaps	%xmm0, 160(%rsp)
	movaps	%xmm0, 176(%rsp)
.Ltmp48:
	#DEBUG_VALUE: crypto_auth_hmacsha512_init:i <- 0
	.loc	1 53 19                         # crypto_auth/hmacsha512/auth_hmacsha512.c:53:19
	testq	%r15, %r15
.Ltmp49:
	#DEBUG_VALUE: memset:__dest <- [DW_OP_plus_uconst 64, DW_OP_stack_value] $rsp
	#DEBUG_VALUE: memset:__ch <- 92
	#DEBUG_VALUE: memset:__len <- 128
	.loc	1 60 5                          # crypto_auth/hmacsha512/auth_hmacsha512.c:60:5
	je	.LBB4_38
.Ltmp50:
# %bb.21:                               # %iter.check45
	#DEBUG_VALUE: crypto_auth_hmacsha512_init:state <- [DW_OP_LLVM_entry_value 1] $rdi
	#DEBUG_VALUE: crypto_auth_hmacsha512_init:key <- $r14
	#DEBUG_VALUE: crypto_auth_hmacsha512_init:keylen <- $r15
	#DEBUG_VALUE: crypto_auth_hmacsha512_init:i <- 0
	cmpq	$4, %r15
	jae	.LBB4_24
.Ltmp51:
# %bb.22:
	#DEBUG_VALUE: crypto_auth_hmacsha512_init:state <- [DW_OP_LLVM_entry_value 1] $rdi
	#DEBUG_VALUE: crypto_auth_hmacsha512_init:key <- $r14
	#DEBUG_VALUE: crypto_auth_hmacsha512_init:keylen <- $r15
	#DEBUG_VALUE: crypto_auth_hmacsha512_init:i <- 0
	.loc	1 0 5 is_stmt 0                 # crypto_auth/hmacsha512/auth_hmacsha512.c:0:5
	xorl	%eax, %eax
	jmp	.LBB4_23
.Ltmp52:
.LBB4_24:                               # %vector.main.loop.iter.check47
	#DEBUG_VALUE: crypto_auth_hmacsha512_init:state <- [DW_OP_LLVM_entry_value 1] $rdi
	#DEBUG_VALUE: crypto_auth_hmacsha512_init:key <- $r14
	#DEBUG_VALUE: crypto_auth_hmacsha512_init:keylen <- $r15
	#DEBUG_VALUE: crypto_auth_hmacsha512_init:i <- 0
	.loc	1 60 5                          # crypto_auth/hmacsha512/auth_hmacsha512.c:60:5
	cmpq	$32, %r15
	jae	.LBB4_26
.Ltmp53:
# %bb.25:
	#DEBUG_VALUE: crypto_auth_hmacsha512_init:state <- [DW_OP_LLVM_entry_value 1] $rdi
	#DEBUG_VALUE: crypto_auth_hmacsha512_init:key <- $r14
	#DEBUG_VALUE: crypto_auth_hmacsha512_init:keylen <- $r15
	#DEBUG_VALUE: crypto_auth_hmacsha512_init:i <- 0
	.loc	1 0 5                           # crypto_auth/hmacsha512/auth_hmacsha512.c:0:5
	xorl	%eax, %eax
	.loc	1 60 5                          # crypto_auth/hmacsha512/auth_hmacsha512.c:60:5
	jmp	.LBB4_35
.Ltmp54:
.LBB4_26:                               # %vector.ph48
	#DEBUG_VALUE: crypto_auth_hmacsha512_init:state <- [DW_OP_LLVM_entry_value 1] $rdi
	#DEBUG_VALUE: crypto_auth_hmacsha512_init:key <- $r14
	#DEBUG_VALUE: crypto_auth_hmacsha512_init:keylen <- $r15
	#DEBUG_VALUE: crypto_auth_hmacsha512_init:i <- 0
	movl	%r15d, %eax
.Ltmp55:
	.loc	1 61 19 is_stmt 1               # crypto_auth/hmacsha512/auth_hmacsha512.c:61:19
	movups	(%r14), %xmm0
	movups	16(%r14), %xmm1
	.loc	1 61 16 is_stmt 0               # crypto_auth/hmacsha512/auth_hmacsha512.c:61:16
	xorps	64(%rsp), %xmm0
	xorps	80(%rsp), %xmm1
.Ltmp56:
	.loc	1 60 5 is_stmt 1                # crypto_auth/hmacsha512/auth_hmacsha512.c:60:5
	andl	$224, %eax
.Ltmp57:
	.loc	1 61 16                         # crypto_auth/hmacsha512/auth_hmacsha512.c:61:16
	movaps	%xmm0, 64(%rsp)
	movaps	%xmm1, 80(%rsp)
.Ltmp58:
	.loc	1 60 30                         # crypto_auth/hmacsha512/auth_hmacsha512.c:60:30
	cmpq	$32, %rax
	je	.LBB4_33
.Ltmp59:
# %bb.27:                               # %vector.body51.1
	#DEBUG_VALUE: crypto_auth_hmacsha512_init:state <- [DW_OP_LLVM_entry_value 1] $rdi
	#DEBUG_VALUE: crypto_auth_hmacsha512_init:key <- $r14
	#DEBUG_VALUE: crypto_auth_hmacsha512_init:keylen <- $r15
	#DEBUG_VALUE: crypto_auth_hmacsha512_init:i <- 0
	.loc	1 61 19                         # crypto_auth/hmacsha512/auth_hmacsha512.c:61:19
	movups	32(%r14), %xmm0
	movups	48(%r14), %xmm1
	.loc	1 61 16 is_stmt 0               # crypto_auth/hmacsha512/auth_hmacsha512.c:61:16
	xorps	96(%rsp), %xmm0
	xorps	112(%rsp), %xmm1
	movaps	%xmm0, 96(%rsp)
	movaps	%xmm1, 112(%rsp)
.Ltmp60:
	.loc	1 60 30 is_stmt 1               # crypto_auth/hmacsha512/auth_hmacsha512.c:60:30
	cmpl	$64, %eax
	je	.LBB4_33
.Ltmp61:
# %bb.28:                               # %vector.body51.2
	#DEBUG_VALUE: crypto_auth_hmacsha512_init:state <- [DW_OP_LLVM_entry_value 1] $rdi
	#DEBUG_VALUE: crypto_auth_hmacsha512_init:key <- $r14
	#DEBUG_VALUE: crypto_auth_hmacsha512_init:keylen <- $r15
	#DEBUG_VALUE: crypto_auth_hmacsha512_init:i <- 0
	.loc	1 61 19                         # crypto_auth/hmacsha512/auth_hmacsha512.c:61:19
	movups	64(%r14), %xmm0
	movups	80(%r14), %xmm1
	.loc	1 61 16 is_stmt 0               # crypto_auth/hmacsha512/auth_hmacsha512.c:61:16
	xorps	128(%rsp), %xmm0
	xorps	144(%rsp), %xmm1
	movaps	%xmm0, 128(%rsp)
	movaps	%xmm1, 144(%rsp)
.Ltmp62:
	.loc	1 60 30 is_stmt 1               # crypto_auth/hmacsha512/auth_hmacsha512.c:60:30
	cmpl	$96, %eax
	je	.LBB4_33
.Ltmp63:
# %bb.29:                               # %vector.body51.3
	#DEBUG_VALUE: crypto_auth_hmacsha512_init:state <- [DW_OP_LLVM_entry_value 1] $rdi
	#DEBUG_VALUE: crypto_auth_hmacsha512_init:key <- $r14
	#DEBUG_VALUE: crypto_auth_hmacsha512_init:keylen <- $r15
	#DEBUG_VALUE: crypto_auth_hmacsha512_init:i <- 0
	.loc	1 61 19                         # crypto_auth/hmacsha512/auth_hmacsha512.c:61:19
	movups	96(%r14), %xmm0
	movups	112(%r14), %xmm1
	.loc	1 61 16 is_stmt 0               # crypto_auth/hmacsha512/auth_hmacsha512.c:61:16
	xorps	160(%rsp), %xmm0
	xorps	176(%rsp), %xmm1
	movaps	%xmm0, 160(%rsp)
	movaps	%xmm1, 176(%rsp)
.Ltmp64:
	.loc	1 60 30 is_stmt 1               # crypto_auth/hmacsha512/auth_hmacsha512.c:60:30
	cmpl	$128, %eax
	je	.LBB4_33
.Ltmp65:
# %bb.30:                               # %vector.body51.4
	#DEBUG_VALUE: crypto_auth_hmacsha512_init:state <- [DW_OP_LLVM_entry_value 1] $rdi
	#DEBUG_VALUE: crypto_auth_hmacsha512_init:key <- $r14
	#DEBUG_VALUE: crypto_auth_hmacsha512_init:keylen <- $r15
	#DEBUG_VALUE: crypto_auth_hmacsha512_init:i <- 0
	.loc	1 61 19                         # crypto_auth/hmacsha512/auth_hmacsha512.c:61:19
	movups	128(%r14), %xmm0
	movups	144(%r14), %xmm1
	.loc	1 61 16 is_stmt 0               # crypto_auth/hmacsha512/auth_hmacsha512.c:61:16
	xorps	192(%rsp), %xmm0
	xorps	208(%rsp), %xmm1
	movaps	%xmm0, 192(%rsp)
	movaps	%xmm1, 208(%rsp)
.Ltmp66:
	.loc	1 60 30 is_stmt 1               # crypto_auth/hmacsha512/auth_hmacsha512.c:60:30
	cmpl	$160, %eax
	je	.LBB4_33
.Ltmp67:
# %bb.31:                               # %vector.body51.5
	#DEBUG_VALUE: crypto_auth_hmacsha512_init:state <- [DW_OP_LLVM_entry_value 1] $rdi
	#DEBUG_VALUE: crypto_auth_hmacsha512_init:key <- $r14
	#DEBUG_VALUE: crypto_auth_hmacsha512_init:keylen <- $r15
	#DEBUG_VALUE: crypto_auth_hmacsha512_init:i <- 0
	.loc	1 61 19                         # crypto_auth/hmacsha512/auth_hmacsha512.c:61:19
	movups	160(%r14), %xmm0
	movups	176(%r14), %xmm1
	.loc	1 61 16 is_stmt 0               # crypto_auth/hmacsha512/auth_hmacsha512.c:61:16
	xorps	224(%rsp), %xmm0
	xorps	240(%rsp), %xmm1
	movaps	%xmm0, 224(%rsp)
	movaps	%xmm1, 240(%rsp)
.Ltmp68:
	.loc	1 60 30 is_stmt 1               # crypto_auth/hmacsha512/auth_hmacsha512.c:60:30
	cmpl	$192, %eax
	je	.LBB4_33
.Ltmp69:
# %bb.32:                               # %vector.body51.6
	#DEBUG_VALUE: crypto_auth_hmacsha512_init:state <- [DW_OP_LLVM_entry_value 1] $rdi
	#DEBUG_VALUE: crypto_auth_hmacsha512_init:key <- $r14
	#DEBUG_VALUE: crypto_auth_hmacsha512_init:keylen <- $r15
	#DEBUG_VALUE: crypto_auth_hmacsha512_init:i <- 0
	.loc	1 61 19                         # crypto_auth/hmacsha512/auth_hmacsha512.c:61:19
	movups	192(%r14), %xmm0
	movups	208(%r14), %xmm1
	.loc	1 61 16 is_stmt 0               # crypto_auth/hmacsha512/auth_hmacsha512.c:61:16
	xorps	256(%rsp), %xmm0
	xorps	272(%rsp), %xmm1
	movaps	%xmm0, 256(%rsp)
	movaps	%xmm1, 272(%rsp)
.Ltmp70:
.LBB4_33:                               # %middle.block58
	#DEBUG_VALUE: crypto_auth_hmacsha512_init:state <- [DW_OP_LLVM_entry_value 1] $rdi
	#DEBUG_VALUE: crypto_auth_hmacsha512_init:key <- $r14
	#DEBUG_VALUE: crypto_auth_hmacsha512_init:keylen <- $r15
	#DEBUG_VALUE: crypto_auth_hmacsha512_init:i <- 0
	.loc	1 60 5 is_stmt 1                # crypto_auth/hmacsha512/auth_hmacsha512.c:60:5
	cmpq	%rax, %r15
	je	.LBB4_38
.Ltmp71:
# %bb.34:                               # %vec.epilog.iter.check63
	#DEBUG_VALUE: crypto_auth_hmacsha512_init:state <- [DW_OP_LLVM_entry_value 1] $rdi
	#DEBUG_VALUE: crypto_auth_hmacsha512_init:key <- $r14
	#DEBUG_VALUE: crypto_auth_hmacsha512_init:keylen <- $r15
	#DEBUG_VALUE: crypto_auth_hmacsha512_init:i <- 0
	testb	$28, %r15b
	je	.LBB4_23
.Ltmp72:
.LBB4_35:                               # %vec.epilog.ph62
	#DEBUG_VALUE: crypto_auth_hmacsha512_init:state <- [DW_OP_LLVM_entry_value 1] $rdi
	#DEBUG_VALUE: crypto_auth_hmacsha512_init:key <- $r14
	#DEBUG_VALUE: crypto_auth_hmacsha512_init:keylen <- $r15
	#DEBUG_VALUE: crypto_auth_hmacsha512_init:i <- 0
	.loc	1 0 5 is_stmt 0                 # crypto_auth/hmacsha512/auth_hmacsha512.c:0:5
	movq	%rax, %rcx
	.loc	1 60 5                          # crypto_auth/hmacsha512/auth_hmacsha512.c:60:5
	movl	%r15d, %eax
	andl	$252, %eax
.Ltmp73:
	.loc	1 0 5                           # :0:5
.Ltmp74:
	.p2align	4
.LBB4_36:                               # %vec.epilog.vector.body68
                                        # =>This Inner Loop Header: Depth=1
	#DEBUG_VALUE: crypto_auth_hmacsha512_init:state <- [DW_OP_LLVM_entry_value 1] $rdi
	#DEBUG_VALUE: crypto_auth_hmacsha512_init:key <- $r14
	#DEBUG_VALUE: crypto_auth_hmacsha512_init:keylen <- $r15
	#DEBUG_VALUE: crypto_auth_hmacsha512_init:i <- 0
	.loc	1 61 19 is_stmt 1               # crypto_auth/hmacsha512/auth_hmacsha512.c:61:19
	movl	(%r14,%rcx), %edx
	.loc	1 61 16 is_stmt 0               # crypto_auth/hmacsha512/auth_hmacsha512.c:61:16
	xorl	%edx, 64(%rsp,%rcx)
.Ltmp75:
	.loc	1 60 30 is_stmt 1               # crypto_auth/hmacsha512/auth_hmacsha512.c:60:30
	addq	$4, %rcx
	cmpq	%rcx, %rax
	jne	.LBB4_36
	jmp	.LBB4_37
.Ltmp76:
.LBB4_23:                               # %.lr.ph28
	#DEBUG_VALUE: crypto_auth_hmacsha512_init:state <- [DW_OP_LLVM_entry_value 1] $rdi
	#DEBUG_VALUE: crypto_auth_hmacsha512_init:key <- $r14
	#DEBUG_VALUE: crypto_auth_hmacsha512_init:keylen <- $r15
	#DEBUG_VALUE: crypto_auth_hmacsha512_init:i <- $rax
	.loc	1 61 19                         # crypto_auth/hmacsha512/auth_hmacsha512.c:61:19
	movzbl	(%r14,%rax), %ecx
	.loc	1 61 16 is_stmt 0               # crypto_auth/hmacsha512/auth_hmacsha512.c:61:16
	xorb	%cl, 64(%rsp,%rax)
.Ltmp77:
	.loc	1 60 30 is_stmt 1               # crypto_auth/hmacsha512/auth_hmacsha512.c:60:30
	incq	%rax
.Ltmp78:
	#DEBUG_VALUE: crypto_auth_hmacsha512_init:i <- $rax
.LBB4_37:                               # %.lr.ph28
	#DEBUG_VALUE: crypto_auth_hmacsha512_init:state <- [DW_OP_LLVM_entry_value 1] $rdi
	#DEBUG_VALUE: crypto_auth_hmacsha512_init:key <- $r14
	#DEBUG_VALUE: crypto_auth_hmacsha512_init:keylen <- $r15
	.loc	1 60 0 is_stmt 0                # crypto_auth/hmacsha512/auth_hmacsha512.c:60
	cmpq	%rax, %r15
	.loc	1 60 5                          # crypto_auth/hmacsha512/auth_hmacsha512.c:60:5
	jne	.LBB4_23
.Ltmp79:
.LBB4_38:                               # %._crit_edge29
	#DEBUG_VALUE: crypto_auth_hmacsha512_init:state <- [DW_OP_LLVM_entry_value 1] $rdi
	#DEBUG_VALUE: crypto_auth_hmacsha512_init:key <- $r14
	#DEBUG_VALUE: crypto_auth_hmacsha512_init:keylen <- $r15
	.loc	1 0 5                           # crypto_auth/hmacsha512/auth_hmacsha512.c:0:5
	leaq	64(%rsp), %r14
.Ltmp80:
	.loc	1 63 5 is_stmt 1                # crypto_auth/hmacsha512/auth_hmacsha512.c:63:5
	movl	$128, %edx
	movq	%rbx, %rdi
	movq	%r14, %rsi
	callq	crypto_hash_sha512_update@PLT
.Ltmp81:
	.loc	1 65 5                          # crypto_auth/hmacsha512/auth_hmacsha512.c:65:5
	movl	$128, %esi
	movq	%r14, %rdi
	callq	sodium_memzero@PLT
.Ltmp82:
	.loc	1 0 5 is_stmt 0                 # crypto_auth/hmacsha512/auth_hmacsha512.c:0:5
	movq	%rsp, %rdi
	.loc	1 66 5 is_stmt 1                # crypto_auth/hmacsha512/auth_hmacsha512.c:66:5
	movl	$64, %esi
	callq	sodium_memzero@PLT
.Ltmp83:
	.loc	1 68 5                          # crypto_auth/hmacsha512/auth_hmacsha512.c:68:5
	movq	%fs:40, %rax
	cmpq	200(%rsp), %rax
	jne	.LBB4_40
.Ltmp84:
# %bb.39:                               # %SP_return
	#DEBUG_VALUE: crypto_auth_hmacsha512_init:state <- [DW_OP_LLVM_entry_value 1] $rdi
	#DEBUG_VALUE: crypto_auth_hmacsha512_init:keylen <- $r15
	xorl	%eax, %eax
	.loc	1 68 5 epilogue_begin is_stmt 0 # crypto_auth/hmacsha512/auth_hmacsha512.c:68:5
	addq	$208, %rsp
	.cfi_def_cfa_offset 32
	popq	%rbx
	.cfi_def_cfa_offset 24
	popq	%r14
	.cfi_def_cfa_offset 16
	popq	%r15
.Ltmp85:
	.cfi_def_cfa_offset 8
	retq
.Ltmp86:
.LBB4_40:                               # %CallStackCheckFailBlk
	.cfi_def_cfa_offset 240
	#DEBUG_VALUE: crypto_auth_hmacsha512_init:state <- [DW_OP_LLVM_entry_value 1] $rdi
	#DEBUG_VALUE: crypto_auth_hmacsha512_init:keylen <- $r15
	.loc	1 0 0                           # crypto_auth/hmacsha512/auth_hmacsha512.c:0
	callq	__stack_chk_fail@PLT
.Ltmp87:
.Lfunc_end4:
	.size	crypto_auth_hmacsha512_init, .Lfunc_end4-crypto_auth_hmacsha512_init
	.cfi_endproc
	.file	5 "./include/sodium" "crypto_hash_sha512.h"
	.file	6 "/usr/include/x86_64-linux-gnu/bits" "types.h"
	.file	7 "/usr/include/x86_64-linux-gnu/bits" "stdint-uintn.h"
	.file	8 "./include/sodium" "utils.h"
                                        # -- End function
	.globl	crypto_auth_hmacsha512_update   # -- Begin function crypto_auth_hmacsha512_update
	.p2align	4
	.type	crypto_auth_hmacsha512_update,@function
crypto_auth_hmacsha512_update:          # @crypto_auth_hmacsha512_update
.Lfunc_begin5:
	.loc	1 74 0 is_stmt 1                # crypto_auth/hmacsha512/auth_hmacsha512.c:74:0
	.cfi_startproc
# %bb.0:
	#DEBUG_VALUE: crypto_auth_hmacsha512_update:state <- $rdi
	#DEBUG_VALUE: crypto_auth_hmacsha512_update:in <- $rsi
	#DEBUG_VALUE: crypto_auth_hmacsha512_update:inlen <- $rdx
	pushq	%rax
	.cfi_def_cfa_offset 16
.Ltmp88:
	.loc	1 75 5 prologue_end             # crypto_auth/hmacsha512/auth_hmacsha512.c:75:5
	callq	crypto_hash_sha512_update@PLT
.Ltmp89:
	#DEBUG_VALUE: crypto_auth_hmacsha512_update:inlen <- [DW_OP_LLVM_entry_value 1] $rdx
	#DEBUG_VALUE: crypto_auth_hmacsha512_update:in <- [DW_OP_LLVM_entry_value 1] $rsi
	#DEBUG_VALUE: crypto_auth_hmacsha512_update:state <- [DW_OP_LLVM_entry_value 1] $rdi
	.loc	1 77 5                          # crypto_auth/hmacsha512/auth_hmacsha512.c:77:5
	xorl	%eax, %eax
	.loc	1 77 5 epilogue_begin is_stmt 0 # crypto_auth/hmacsha512/auth_hmacsha512.c:77:5
	popq	%rcx
	.cfi_def_cfa_offset 8
	retq
.Ltmp90:
.Lfunc_end5:
	.size	crypto_auth_hmacsha512_update, .Lfunc_end5-crypto_auth_hmacsha512_update
	.cfi_endproc
                                        # -- End function
	.globl	crypto_auth_hmacsha512_final    # -- Begin function crypto_auth_hmacsha512_final
	.p2align	4
	.type	crypto_auth_hmacsha512_final,@function
crypto_auth_hmacsha512_final:           # @crypto_auth_hmacsha512_final
.Lfunc_begin6:
	.loc	1 83 0 is_stmt 1                # crypto_auth/hmacsha512/auth_hmacsha512.c:83:0
	.cfi_startproc
# %bb.0:
	#DEBUG_VALUE: crypto_auth_hmacsha512_final:state <- $rdi
	#DEBUG_VALUE: crypto_auth_hmacsha512_final:out <- $rsi
	pushq	%r15
	.cfi_def_cfa_offset 16
	pushq	%r14
	.cfi_def_cfa_offset 24
	pushq	%rbx
	.cfi_def_cfa_offset 32
	subq	$80, %rsp
	.cfi_def_cfa_offset 112
	.cfi_offset %rbx, -32
	.cfi_offset %r14, -24
	.cfi_offset %r15, -16
	movq	%rsi, %rbx
	movq	%rdi, %r14
	movq	%fs:40, %rax
	movq	%rax, 72(%rsp)
	movq	%rsp, %r15
.Ltmp91:
	.loc	1 86 5 prologue_end             # crypto_auth/hmacsha512/auth_hmacsha512.c:86:5
	movq	%r15, %rsi
.Ltmp92:
	#DEBUG_VALUE: crypto_auth_hmacsha512_final:out <- $rbx
	callq	crypto_hash_sha512_final@PLT
.Ltmp93:
	#DEBUG_VALUE: crypto_auth_hmacsha512_final:state <- $r14
	.loc	1 87 39                         # crypto_auth/hmacsha512/auth_hmacsha512.c:87:39
	addq	$208, %r14
.Ltmp94:
	#DEBUG_VALUE: crypto_auth_hmacsha512_final:state <- [DW_OP_LLVM_entry_value 1] $rdi
	.loc	1 87 5 is_stmt 0                # crypto_auth/hmacsha512/auth_hmacsha512.c:87:5
	movl	$64, %edx
	movq	%r14, %rdi
	movq	%r15, %rsi
	callq	crypto_hash_sha512_update@PLT
.Ltmp95:
	.loc	1 88 5 is_stmt 1                # crypto_auth/hmacsha512/auth_hmacsha512.c:88:5
	movq	%r14, %rdi
	movq	%rbx, %rsi
	callq	crypto_hash_sha512_final@PLT
.Ltmp96:
	.loc	1 90 5                          # crypto_auth/hmacsha512/auth_hmacsha512.c:90:5
	movl	$64, %esi
	movq	%r15, %rdi
	callq	sodium_memzero@PLT
.Ltmp97:
	.loc	1 92 5                          # crypto_auth/hmacsha512/auth_hmacsha512.c:92:5
	movq	%fs:40, %rax
	cmpq	72(%rsp), %rax
	jne	.LBB6_2
.Ltmp98:
# %bb.1:                                # %SP_return
	#DEBUG_VALUE: crypto_auth_hmacsha512_final:state <- [DW_OP_LLVM_entry_value 1] $rdi
	#DEBUG_VALUE: crypto_auth_hmacsha512_final:out <- $rbx
	xorl	%eax, %eax
	.loc	1 92 5 epilogue_begin is_stmt 0 # crypto_auth/hmacsha512/auth_hmacsha512.c:92:5
	addq	$80, %rsp
	.cfi_def_cfa_offset 32
	popq	%rbx
.Ltmp99:
	#DEBUG_VALUE: crypto_auth_hmacsha512_final:out <- [DW_OP_LLVM_entry_value 1] $rsi
	.cfi_def_cfa_offset 24
	popq	%r14
	.cfi_def_cfa_offset 16
	popq	%r15
	.cfi_def_cfa_offset 8
	retq
.Ltmp100:
.LBB6_2:                                # %CallStackCheckFailBlk
	.cfi_def_cfa_offset 112
	#DEBUG_VALUE: crypto_auth_hmacsha512_final:state <- [DW_OP_LLVM_entry_value 1] $rdi
	#DEBUG_VALUE: crypto_auth_hmacsha512_final:out <- $rbx
	.loc	1 0 0                           # crypto_auth/hmacsha512/auth_hmacsha512.c:0
	callq	__stack_chk_fail@PLT
.Ltmp101:
.Lfunc_end6:
	.size	crypto_auth_hmacsha512_final, .Lfunc_end6-crypto_auth_hmacsha512_final
	.cfi_endproc
                                        # -- End function
	.globl	crypto_auth_hmacsha512          # -- Begin function crypto_auth_hmacsha512
	.p2align	4
	.type	crypto_auth_hmacsha512,@function
crypto_auth_hmacsha512:                 # @crypto_auth_hmacsha512
.Lfunc_begin7:
	.loc	1 98 0 is_stmt 1                # crypto_auth/hmacsha512/auth_hmacsha512.c:98:0
	.cfi_startproc
# %bb.0:
	#DEBUG_VALUE: crypto_auth_hmacsha512:out <- $rdi
	#DEBUG_VALUE: crypto_auth_hmacsha512:in <- $rsi
	#DEBUG_VALUE: crypto_auth_hmacsha512:inlen <- $rdx
	#DEBUG_VALUE: crypto_auth_hmacsha512:k <- $rcx
	pushq	%r15
	.cfi_def_cfa_offset 16
	pushq	%r14
	.cfi_def_cfa_offset 24
	pushq	%r12
	.cfi_def_cfa_offset 32
	pushq	%rbx
	.cfi_def_cfa_offset 40
	subq	$488, %rsp                      # imm = 0x1E8
	.cfi_def_cfa_offset 528
	.cfi_offset %rbx, -40
	.cfi_offset %r12, -32
	.cfi_offset %r14, -24
	.cfi_offset %r15, -16
	movq	%rdx, %r14
	movq	%rsi, %r15
	movq	%rdi, %rbx
	movq	%fs:40, %rax
	movq	%rax, 480(%rsp)
	movq	%rsp, %r12
.Ltmp102:
	.loc	1 101 5 prologue_end            # crypto_auth/hmacsha512/auth_hmacsha512.c:101:5
	movl	$32, %edx
.Ltmp103:
	#DEBUG_VALUE: crypto_auth_hmacsha512:inlen <- $r14
	movq	%r12, %rdi
.Ltmp104:
	#DEBUG_VALUE: crypto_auth_hmacsha512:out <- $rbx
	movq	%rcx, %rsi
.Ltmp105:
	#DEBUG_VALUE: crypto_auth_hmacsha512:in <- $r15
	callq	crypto_auth_hmacsha512_init
.Ltmp106:
	#DEBUG_VALUE: crypto_auth_hmacsha512:k <- [DW_OP_LLVM_entry_value 1] $rcx
	#DEBUG_VALUE: crypto_auth_hmacsha512_update:state <- $rsp
	#DEBUG_VALUE: crypto_auth_hmacsha512_update:in <- $r15
	#DEBUG_VALUE: crypto_auth_hmacsha512_update:inlen <- $r14
	.loc	1 75 5                          # crypto_auth/hmacsha512/auth_hmacsha512.c:75:5 @[ crypto_auth/hmacsha512/auth_hmacsha512.c:102:5 ]
	movq	%r12, %rdi
	movq	%r15, %rsi
	movq	%r14, %rdx
	callq	crypto_hash_sha512_update@PLT
.Ltmp107:
	#DEBUG_VALUE: crypto_auth_hmacsha512_final:ihash <- [DW_OP_plus_uconst 416, DW_OP_deref] $rsp
	#DEBUG_VALUE: crypto_auth_hmacsha512_final:state <- $rsp
	#DEBUG_VALUE: crypto_auth_hmacsha512_final:out <- $rbx
	.loc	1 0 5 is_stmt 0                 # crypto_auth/hmacsha512/auth_hmacsha512.c:0:5
	leaq	416(%rsp), %r14
.Ltmp108:
	#DEBUG_VALUE: crypto_auth_hmacsha512:inlen <- [DW_OP_LLVM_entry_value 1] $rdx
	.loc	1 86 5 is_stmt 1                # crypto_auth/hmacsha512/auth_hmacsha512.c:86:5 @[ crypto_auth/hmacsha512/auth_hmacsha512.c:103:5 ]
	movq	%r12, %rdi
	movq	%r14, %rsi
	callq	crypto_hash_sha512_final@PLT
.Ltmp109:
	.loc	1 87 39                         # crypto_auth/hmacsha512/auth_hmacsha512.c:87:39 @[ crypto_auth/hmacsha512/auth_hmacsha512.c:103:5 ]
	leaq	208(%rsp), %r15
.Ltmp110:
	#DEBUG_VALUE: crypto_auth_hmacsha512:in <- [DW_OP_LLVM_entry_value 1] $rsi
	.loc	1 87 5 is_stmt 0                # crypto_auth/hmacsha512/auth_hmacsha512.c:87:5 @[ crypto_auth/hmacsha512/auth_hmacsha512.c:103:5 ]
	movl	$64, %edx
	movq	%r15, %rdi
	movq	%r14, %rsi
	callq	crypto_hash_sha512_update@PLT
.Ltmp111:
	.loc	1 88 5 is_stmt 1                # crypto_auth/hmacsha512/auth_hmacsha512.c:88:5 @[ crypto_auth/hmacsha512/auth_hmacsha512.c:103:5 ]
	movq	%r15, %rdi
	movq	%rbx, %rsi
	callq	crypto_hash_sha512_final@PLT
.Ltmp112:
	.loc	1 90 5                          # crypto_auth/hmacsha512/auth_hmacsha512.c:90:5 @[ crypto_auth/hmacsha512/auth_hmacsha512.c:103:5 ]
	movl	$64, %esi
	movq	%r14, %rdi
	callq	sodium_memzero@PLT
.Ltmp113:
	.loc	1 105 5                         # crypto_auth/hmacsha512/auth_hmacsha512.c:105:5
	movq	%fs:40, %rax
	cmpq	480(%rsp), %rax
	jne	.LBB7_2
.Ltmp114:
# %bb.1:                                # %SP_return
	#DEBUG_VALUE: crypto_auth_hmacsha512:out <- $rbx
	#DEBUG_VALUE: crypto_auth_hmacsha512:in <- [DW_OP_LLVM_entry_value 1] $rsi
	#DEBUG_VALUE: crypto_auth_hmacsha512:inlen <- [DW_OP_LLVM_entry_value 1] $rdx
	#DEBUG_VALUE: crypto_auth_hmacsha512:k <- [DW_OP_LLVM_entry_value 1] $rcx
	xorl	%eax, %eax
	.loc	1 105 5 epilogue_begin is_stmt 0 # crypto_auth/hmacsha512/auth_hmacsha512.c:105:5
	addq	$488, %rsp                      # imm = 0x1E8
	.cfi_def_cfa_offset 40
	popq	%rbx
.Ltmp115:
	#DEBUG_VALUE: crypto_auth_hmacsha512:out <- [DW_OP_LLVM_entry_value 1] $rdi
	.cfi_def_cfa_offset 32
	popq	%r12
	.cfi_def_cfa_offset 24
	popq	%r14
	.cfi_def_cfa_offset 16
	popq	%r15
	.cfi_def_cfa_offset 8
	retq
.Ltmp116:
.LBB7_2:                                # %CallStackCheckFailBlk
	.cfi_def_cfa_offset 528
	#DEBUG_VALUE: crypto_auth_hmacsha512:out <- $rbx
	#DEBUG_VALUE: crypto_auth_hmacsha512:in <- [DW_OP_LLVM_entry_value 1] $rsi
	#DEBUG_VALUE: crypto_auth_hmacsha512:inlen <- [DW_OP_LLVM_entry_value 1] $rdx
	#DEBUG_VALUE: crypto_auth_hmacsha512:k <- [DW_OP_LLVM_entry_value 1] $rcx
	#DEBUG_VALUE: crypto_auth_hmacsha512_update:state <- $r12
	#DEBUG_VALUE: crypto_auth_hmacsha512_final:ihash <- [DW_OP_plus_uconst 416, DW_OP_deref] $r12
	#DEBUG_VALUE: crypto_auth_hmacsha512_final:state <- $r12
	#DEBUG_VALUE: crypto_auth_hmacsha512_final:out <- $rbx
	.loc	1 0 0                           # crypto_auth/hmacsha512/auth_hmacsha512.c:0
	callq	__stack_chk_fail@PLT
.Ltmp117:
.Lfunc_end7:
	.size	crypto_auth_hmacsha512, .Lfunc_end7-crypto_auth_hmacsha512
	.cfi_endproc
	.file	9 "./include/sodium" "crypto_auth_hmacsha512.h"
                                        # -- End function
	.globl	crypto_auth_hmacsha512_verify   # -- Begin function crypto_auth_hmacsha512_verify
	.p2align	4
	.type	crypto_auth_hmacsha512_verify,@function
crypto_auth_hmacsha512_verify:          # @crypto_auth_hmacsha512_verify
.Lfunc_begin8:
	.loc	1 111 0 is_stmt 1               # crypto_auth/hmacsha512/auth_hmacsha512.c:111:0
	.cfi_startproc
# %bb.0:
	#DEBUG_VALUE: crypto_auth_hmacsha512_verify:h <- $rdi
	#DEBUG_VALUE: crypto_auth_hmacsha512_verify:in <- $rsi
	#DEBUG_VALUE: crypto_auth_hmacsha512_verify:inlen <- $rdx
	#DEBUG_VALUE: crypto_auth_hmacsha512_verify:k <- $rcx
	pushq	%rbp
	.cfi_def_cfa_offset 16
	pushq	%r15
	.cfi_def_cfa_offset 24
	pushq	%r14
	.cfi_def_cfa_offset 32
	pushq	%r12
	.cfi_def_cfa_offset 40
	pushq	%rbx
	.cfi_def_cfa_offset 48
	subq	$560, %rsp                      # imm = 0x230
	.cfi_def_cfa_offset 608
	.cfi_offset %rbx, -48
	.cfi_offset %r12, -40
	.cfi_offset %r14, -32
	.cfi_offset %r15, -24
	.cfi_offset %rbp, -16
	movq	%rdx, %r14
	movq	%rsi, %r15
	movq	%rdi, %rbx
	movq	%fs:40, %rax
	movq	%rax, 552(%rsp)
.Ltmp118:
	#DEBUG_VALUE: crypto_auth_hmacsha512:state <- [DW_OP_plus_uconst 64, DW_OP_deref] $rsp
	#DEBUG_VALUE: crypto_auth_hmacsha512:out <- $rsp
	#DEBUG_VALUE: crypto_auth_hmacsha512:in <- $r15
	#DEBUG_VALUE: crypto_auth_hmacsha512:inlen <- $r14
	#DEBUG_VALUE: crypto_auth_hmacsha512:k <- $rcx
	leaq	64(%rsp), %r12
.Ltmp119:
	.loc	1 101 5 prologue_end            # crypto_auth/hmacsha512/auth_hmacsha512.c:101:5 @[ crypto_auth/hmacsha512/auth_hmacsha512.c:114:5 ]
	movl	$32, %edx
.Ltmp120:
	#DEBUG_VALUE: crypto_auth_hmacsha512_verify:inlen <- $r14
	movq	%r12, %rdi
.Ltmp121:
	#DEBUG_VALUE: crypto_auth_hmacsha512_verify:h <- $rbx
	movq	%rcx, %rsi
.Ltmp122:
	#DEBUG_VALUE: crypto_auth_hmacsha512_verify:in <- $r15
	callq	crypto_auth_hmacsha512_init
.Ltmp123:
	#DEBUG_VALUE: crypto_auth_hmacsha512_verify:k <- [DW_OP_LLVM_entry_value 1] $rcx
	#DEBUG_VALUE: crypto_auth_hmacsha512_update:state <- [DW_OP_plus_uconst 64, DW_OP_stack_value] $rsp
	#DEBUG_VALUE: crypto_auth_hmacsha512_update:in <- $r15
	#DEBUG_VALUE: crypto_auth_hmacsha512_update:inlen <- $r14
	.loc	1 75 5                          # crypto_auth/hmacsha512/auth_hmacsha512.c:75:5 @[ crypto_auth/hmacsha512/auth_hmacsha512.c:102:5 @[ crypto_auth/hmacsha512/auth_hmacsha512.c:114:5 ] ]
	movq	%r12, %rdi
	movq	%r15, %rsi
	movq	%r14, %rdx
	callq	crypto_hash_sha512_update@PLT
.Ltmp124:
	#DEBUG_VALUE: crypto_auth_hmacsha512_final:ihash <- [DW_OP_plus_uconst 480, DW_OP_deref] $rsp
	#DEBUG_VALUE: crypto_auth_hmacsha512_final:state <- [DW_OP_plus_uconst 64, DW_OP_stack_value] $rsp
	#DEBUG_VALUE: crypto_auth_hmacsha512_final:out <- $rsp
	.loc	1 0 5 is_stmt 0                 # crypto_auth/hmacsha512/auth_hmacsha512.c:0:5
	leaq	480(%rsp), %r14
.Ltmp125:
	#DEBUG_VALUE: crypto_auth_hmacsha512_verify:inlen <- [DW_OP_LLVM_entry_value 1] $rdx
	.loc	1 86 5 is_stmt 1                # crypto_auth/hmacsha512/auth_hmacsha512.c:86:5 @[ crypto_auth/hmacsha512/auth_hmacsha512.c:103:5 @[ crypto_auth/hmacsha512/auth_hmacsha512.c:114:5 ] ]
	movq	%r12, %rdi
	movq	%r14, %rsi
	callq	crypto_hash_sha512_final@PLT
.Ltmp126:
	.loc	1 87 39                         # crypto_auth/hmacsha512/auth_hmacsha512.c:87:39 @[ crypto_auth/hmacsha512/auth_hmacsha512.c:103:5 @[ crypto_auth/hmacsha512/auth_hmacsha512.c:114:5 ] ]
	leaq	272(%rsp), %r15
.Ltmp127:
	#DEBUG_VALUE: crypto_auth_hmacsha512_verify:in <- [DW_OP_LLVM_entry_value 1] $rsi
	.loc	1 87 5 is_stmt 0                # crypto_auth/hmacsha512/auth_hmacsha512.c:87:5 @[ crypto_auth/hmacsha512/auth_hmacsha512.c:103:5 @[ crypto_auth/hmacsha512/auth_hmacsha512.c:114:5 ] ]
	movl	$64, %edx
	movq	%r15, %rdi
	movq	%r14, %rsi
	callq	crypto_hash_sha512_update@PLT
.Ltmp128:
	.loc	1 0 5                           # crypto_auth/hmacsha512/auth_hmacsha512.c:0:5
	movq	%rsp, %r12
	.loc	1 88 5 is_stmt 1                # crypto_auth/hmacsha512/auth_hmacsha512.c:88:5 @[ crypto_auth/hmacsha512/auth_hmacsha512.c:103:5 @[ crypto_auth/hmacsha512/auth_hmacsha512.c:114:5 ] ]
	movq	%r15, %rdi
	movq	%r12, %rsi
	callq	crypto_hash_sha512_final@PLT
.Ltmp129:
	.loc	1 90 5                          # crypto_auth/hmacsha512/auth_hmacsha512.c:90:5 @[ crypto_auth/hmacsha512/auth_hmacsha512.c:103:5 @[ crypto_auth/hmacsha512/auth_hmacsha512.c:114:5 ] ]
	movl	$64, %esi
	movq	%r14, %rdi
	callq	sodium_memzero@PLT
.Ltmp130:
	.loc	1 116 12                        # crypto_auth/hmacsha512/auth_hmacsha512.c:116:12
	movq	%rbx, %rdi
	movq	%r12, %rsi
	callq	crypto_verify_64@PLT
.Ltmp131:
	.loc	1 116 48 is_stmt 0              # crypto_auth/hmacsha512/auth_hmacsha512.c:116:48
	cmpq	%r12, %rbx
	movl	$-1, %ebp
	.loc	1 116 41                        # crypto_auth/hmacsha512/auth_hmacsha512.c:116:41
	cmovnel	%eax, %ebp
	.loc	1 117 12 is_stmt 1              # crypto_auth/hmacsha512/auth_hmacsha512.c:117:12
	movl	$64, %edx
	movq	%r12, %rdi
	movq	%rbx, %rsi
	callq	sodium_memcmp@PLT
.Ltmp132:
	.loc	1 116 5                         # crypto_auth/hmacsha512/auth_hmacsha512.c:116:5
	movq	%fs:40, %rcx
	cmpq	552(%rsp), %rcx
	jne	.LBB8_2
.Ltmp133:
# %bb.1:                                # %SP_return
	#DEBUG_VALUE: crypto_auth_hmacsha512_verify:h <- $rbx
	#DEBUG_VALUE: crypto_auth_hmacsha512_verify:in <- [DW_OP_LLVM_entry_value 1] $rsi
	#DEBUG_VALUE: crypto_auth_hmacsha512_verify:inlen <- [DW_OP_LLVM_entry_value 1] $rdx
	#DEBUG_VALUE: crypto_auth_hmacsha512_verify:k <- [DW_OP_LLVM_entry_value 1] $rcx
	.loc	1 116 0 is_stmt 0               # crypto_auth/hmacsha512/auth_hmacsha512.c:116
	orl	%eax, %ebp
	.loc	1 116 5                         # crypto_auth/hmacsha512/auth_hmacsha512.c:116:5
	movl	%ebp, %eax
	.loc	1 116 5 epilogue_begin          # crypto_auth/hmacsha512/auth_hmacsha512.c:116:5
	addq	$560, %rsp                      # imm = 0x230
	.cfi_def_cfa_offset 48
	popq	%rbx
.Ltmp134:
	#DEBUG_VALUE: crypto_auth_hmacsha512_verify:h <- [DW_OP_LLVM_entry_value 1] $rdi
	.cfi_def_cfa_offset 40
	popq	%r12
	.cfi_def_cfa_offset 32
	popq	%r14
	.cfi_def_cfa_offset 24
	popq	%r15
	.cfi_def_cfa_offset 16
	popq	%rbp
	.cfi_def_cfa_offset 8
	retq
.Ltmp135:
.LBB8_2:                                # %CallStackCheckFailBlk
	.cfi_def_cfa_offset 608
	#DEBUG_VALUE: crypto_auth_hmacsha512_verify:h <- $rbx
	#DEBUG_VALUE: crypto_auth_hmacsha512_verify:in <- [DW_OP_LLVM_entry_value 1] $rsi
	#DEBUG_VALUE: crypto_auth_hmacsha512_verify:inlen <- [DW_OP_LLVM_entry_value 1] $rdx
	#DEBUG_VALUE: crypto_auth_hmacsha512_verify:k <- [DW_OP_LLVM_entry_value 1] $rcx
	#DEBUG_VALUE: crypto_auth_hmacsha512:state <- [DW_OP_plus_uconst 64, DW_OP_deref] $r12
	#DEBUG_VALUE: crypto_auth_hmacsha512:out <- $r12
	#DEBUG_VALUE: crypto_auth_hmacsha512_update:state <- [DW_OP_plus_uconst 64, DW_OP_stack_value] $r12
	#DEBUG_VALUE: crypto_auth_hmacsha512_final:ihash <- [DW_OP_plus_uconst 480, DW_OP_deref] $r12
	#DEBUG_VALUE: crypto_auth_hmacsha512_final:state <- [DW_OP_plus_uconst 64, DW_OP_stack_value] $r12
	#DEBUG_VALUE: crypto_auth_hmacsha512_final:out <- $r12
	.loc	1 0 0                           # crypto_auth/hmacsha512/auth_hmacsha512.c:0
	callq	__stack_chk_fail@PLT
.Ltmp136:
.Lfunc_end8:
	.size	crypto_auth_hmacsha512_verify, .Lfunc_end8-crypto_auth_hmacsha512_verify
	.cfi_endproc
	.file	10 "./include/sodium" "crypto_verify_64.h"
                                        # -- End function
	.section	".note.GNU-stack","",@progbits
	.addrsig
	.addrsig_sym __stack_chk_fail