	.file	"blake2b-compress-ref.c"
	.file	0 "/home/leizhenyuu/opt/Anonymous_Repo/libsodium_o2_attr_inline/src/libsodium" "blake2b-compress-ref.c" md5 0xc4626d5e8b0e8eeb70842b6cdee0a7ac
	.file	1 "/usr/include/x86_64-linux-gnu/bits" "types.h"
	.file	2 "/usr/include/x86_64-linux-gnu/bits" "stdint-uintn.h"
	.file	3 "crypto_generichash/blake2b/ref" "blake2b-compress-ref.c"
	.text
	.hidden	blake2b_compress_ref            # -- Begin function blake2b_compress_ref
	.globl	blake2b_compress_ref
	.p2align	4
	.type	blake2b_compress_ref,@function
blake2b_compress_ref:                   # @blake2b_compress_ref
.Lfunc_begin0:
	.loc	3 32 0                          # crypto_generichash/blake2b/ref/blake2b-compress-ref.c:32:0
	.cfi_startproc
# %bb.0:                                # %.preheader.preheader
	#DEBUG_VALUE: blake2b_compress_ref:S <- $rdi
	#DEBUG_VALUE: blake2b_compress_ref:block <- $rsi
	pushq	%rbp
	.cfi_def_cfa_offset 16
	pushq	%r15
	.cfi_def_cfa_offset 24
	pushq	%r14
	.cfi_def_cfa_offset 32
	pushq	%r13
	.cfi_def_cfa_offset 40
	pushq	%r12
	.cfi_def_cfa_offset 48
	pushq	%rbx
	.cfi_def_cfa_offset 56
	subq	$48, %rsp
	.cfi_def_cfa_offset 104
	.cfi_offset %rbx, -56
	.cfi_offset %r12, -48
	.cfi_offset %r13, -40
	.cfi_offset %r14, -32
	.cfi_offset %r15, -24
	.cfi_offset %rbp, -16
	movq	%rsi, %r10
	movq	%rdi, %rcx
.Ltmp0:
	#DEBUG_VALUE: blake2b_compress_ref:i <- 0
	.loc	3 38 14 prologue_end            # crypto_generichash/blake2b/ref/blake2b-compress-ref.c:38:14
	movq	(%rsi), %rax
.Ltmp1:
	#DEBUG_VALUE: blake2b_compress_ref:m <- [DW_OP_LLVM_fragment 0 64] $rax
	.loc	3 0 14 is_stmt 0                # crypto_generichash/blake2b/ref/blake2b-compress-ref.c:0:14
	movq	%rax, 16(%rsp)                  # 8-byte Spill
.Ltmp2:
	#DEBUG_VALUE: blake2b_compress_ref:m <- [DW_OP_plus_uconst 16, DW_OP_deref, DW_OP_LLVM_fragment 0 64] $rsp
	.loc	3 38 14                         # crypto_generichash/blake2b/ref/blake2b-compress-ref.c:38:14
	movq	8(%rsi), %r11
.Ltmp3:
	#DEBUG_VALUE: blake2b_compress_ref:m <- [DW_OP_LLVM_fragment 64 64] $r11
	.loc	3 0 14                          # crypto_generichash/blake2b/ref/blake2b-compress-ref.c:0:14
	movq	%r11, -24(%rsp)                 # 8-byte Spill
.Ltmp4:
	#DEBUG_VALUE: blake2b_compress_ref:m <- [DW_OP_constu 24, DW_OP_minus, DW_OP_deref, DW_OP_LLVM_fragment 64 64] $rsp
	.loc	3 38 14                         # crypto_generichash/blake2b/ref/blake2b-compress-ref.c:38:14
	movq	16(%rsi), %rdx
.Ltmp5:
	#DEBUG_VALUE: blake2b_compress_ref:m <- [DW_OP_LLVM_fragment 128 64] $rdx
	#DEBUG_VALUE: blake2b_compress_ref:m <- [DW_OP_LLVM_fragment 192 64] undef
	#DEBUG_VALUE: blake2b_compress_ref:m <- [DW_OP_LLVM_fragment 256 64] undef
	#DEBUG_VALUE: blake2b_compress_ref:m <- [DW_OP_LLVM_fragment 320 64] undef
	#DEBUG_VALUE: blake2b_compress_ref:m <- [DW_OP_LLVM_fragment 384 64] undef
	#DEBUG_VALUE: blake2b_compress_ref:m <- [DW_OP_LLVM_fragment 448 64] undef
	#DEBUG_VALUE: blake2b_compress_ref:m <- [DW_OP_LLVM_fragment 512 64] undef
	#DEBUG_VALUE: blake2b_compress_ref:m <- [DW_OP_LLVM_fragment 576 64] undef
	#DEBUG_VALUE: blake2b_compress_ref:m <- [DW_OP_LLVM_fragment 640 64] undef
	#DEBUG_VALUE: blake2b_compress_ref:m <- [DW_OP_LLVM_fragment 704 64] undef
	#DEBUG_VALUE: blake2b_compress_ref:m <- [DW_OP_LLVM_fragment 768 64] undef
	#DEBUG_VALUE: blake2b_compress_ref:m <- [DW_OP_LLVM_fragment 832 64] undef
	#DEBUG_VALUE: blake2b_compress_ref:m <- [DW_OP_LLVM_fragment 896 64] undef
	#DEBUG_VALUE: blake2b_compress_ref:m <- [DW_OP_LLVM_fragment 960 64] undef
	#DEBUG_VALUE: blake2b_compress_ref:i <- undef
	.loc	3 0 14                          # crypto_generichash/blake2b/ref/blake2b-compress-ref.c:0:14
	movq	%rdx, -80(%rsp)                 # 8-byte Spill
.Ltmp6:
	#DEBUG_VALUE: blake2b_compress_ref:m <- [DW_OP_constu 80, DW_OP_minus, DW_OP_deref, DW_OP_LLVM_fragment 128 64] $rsp
	.loc	3 41 14 is_stmt 1               # crypto_generichash/blake2b/ref/blake2b-compress-ref.c:41:14
	movq	(%rdi), %rdi
.Ltmp7:
	#DEBUG_VALUE: blake2b_compress_ref:S <- $rcx
	#DEBUG_VALUE: blake2b_compress_ref:v <- [DW_OP_LLVM_fragment 0 64] $rdi
	#DEBUG_VALUE: blake2b_compress_ref:v <- [DW_OP_LLVM_fragment 64 64] undef
	#DEBUG_VALUE: blake2b_compress_ref:v <- [DW_OP_LLVM_fragment 128 64] undef
	#DEBUG_VALUE: blake2b_compress_ref:v <- [DW_OP_LLVM_fragment 192 64] undef
	.loc	3 0 14 is_stmt 0                # crypto_generichash/blake2b/ref/blake2b-compress-ref.c:0:14
	movq	%rdi, 40(%rsp)                  # 8-byte Spill
.Ltmp8:
	#DEBUG_VALUE: blake2b_compress_ref:v <- [DW_OP_plus_uconst 40, DW_OP_deref, DW_OP_LLVM_fragment 0 64] $rsp
	.loc	3 41 14                         # crypto_generichash/blake2b/ref/blake2b-compress-ref.c:41:14
	movq	32(%rcx), %r8
.Ltmp9:
	#DEBUG_VALUE: blake2b_compress_ref:v <- [DW_OP_LLVM_fragment 256 64] $r8
	movq	40(%rcx), %r12
.Ltmp10:
	#DEBUG_VALUE: blake2b_compress_ref:v <- [DW_OP_LLVM_fragment 320 64] $r12
	#DEBUG_VALUE: blake2b_compress_ref:v <- [DW_OP_LLVM_fragment 384 64] undef
	#DEBUG_VALUE: blake2b_compress_ref:v <- [DW_OP_LLVM_fragment 448 64] undef
	#DEBUG_VALUE: blake2b_compress_ref:v <- [DW_OP_LLVM_fragment 512 64] 7640891576956012808
	#DEBUG_VALUE: blake2b_compress_ref:v <- [DW_OP_LLVM_fragment 576 64] -4942790177534073029
	#DEBUG_VALUE: blake2b_compress_ref:v <- [DW_OP_LLVM_fragment 640 64] 4354685564936845355
	#DEBUG_VALUE: blake2b_compress_ref:v <- [DW_OP_LLVM_fragment 704 64] -6534734903238641935
	#DEBUG_VALUE: blake2b_compress_ref:v <- [DW_OP_LLVM_fragment 768 64] undef
	#DEBUG_VALUE: blake2b_compress_ref:v <- [DW_OP_LLVM_fragment 832 64] undef
	#DEBUG_VALUE: blake2b_compress_ref:v <- [DW_OP_LLVM_fragment 896 64] undef
	#DEBUG_VALUE: blake2b_compress_ref:v <- [DW_OP_LLVM_fragment 960 64] undef
	.loc	3 73 28 is_stmt 1               # crypto_generichash/blake2b/ref/blake2b-compress-ref.c:73:28
	addq	%r8, %rax
	.loc	3 73 20 is_stmt 0               # crypto_generichash/blake2b/ref/blake2b-compress-ref.c:73:20
	addq	%rdi, %rax
.Ltmp11:
	#DEBUG_VALUE: blake2b_compress_ref:v <- [DW_OP_LLVM_fragment 256 64] undef
	.loc	3 73 164                        # crypto_generichash/blake2b/ref/blake2b-compress-ref.c:73:164
	leaq	(%r11,%rax), %r9
.Ltmp12:
	#DEBUG_VALUE: blake2b_compress_ref:v <- [DW_OP_LLVM_fragment 0 64] $rax
	.loc	3 73 84                         # crypto_generichash/blake2b/ref/blake2b-compress-ref.c:73:84
	xorq	64(%rcx), %rax
.Ltmp13:
	.loc	3 0 84                          # crypto_generichash/blake2b/ref/blake2b-compress-ref.c:0:84
	movabsq	$5840696475078001361, %rsi      # imm = 0x510E527FADE682D1
.Ltmp14:
	#DEBUG_VALUE: blake2b_compress_ref:block <- $r10
	.loc	3 73 84                         # crypto_generichash/blake2b/ref/blake2b-compress-ref.c:73:84
	xorq	%rax, %rsi
.Ltmp15:
	#DEBUG_VALUE: rotr64:x <- $rsi
	#DEBUG_VALUE: rotr64:b <- 32
	.file	4 "./include/sodium/private" "common.h"
	.loc	4 58 21 is_stmt 1               # ./include/sodium/private/common.h:58:21 @[ crypto_generichash/blake2b/ref/blake2b-compress-ref.c:73:70 ]
	rolq	$32, %rsi
.Ltmp16:
	#DEBUG_VALUE: blake2b_compress_ref:v <- [DW_OP_LLVM_fragment 768 64] $rsi
	.loc	4 0 21 is_stmt 0                # ./include/sodium/private/common.h:0:21
	movabsq	$7640891576956012808, %rax      # imm = 0x6A09E667F3BCC908
.Ltmp17:
	.loc	3 73 105 is_stmt 1              # crypto_generichash/blake2b/ref/blake2b-compress-ref.c:73:105
	addq	%rsi, %rax
.Ltmp18:
	#DEBUG_VALUE: blake2b_compress_ref:v <- [DW_OP_LLVM_fragment 512 64] $rax
	.loc	3 73 135 is_stmt 0              # crypto_generichash/blake2b/ref/blake2b-compress-ref.c:73:135
	xorq	%rax, %r8
.Ltmp19:
	#DEBUG_VALUE: rotr64:x <- $r8
	#DEBUG_VALUE: rotr64:b <- 24
	.loc	4 58 21 is_stmt 1               # ./include/sodium/private/common.h:58:21 @[ crypto_generichash/blake2b/ref/blake2b-compress-ref.c:73:122 ]
	rolq	$40, %r8
.Ltmp20:
	#DEBUG_VALUE: blake2b_compress_ref:v <- [DW_OP_LLVM_fragment 256 64] $r8
	.loc	3 73 156                        # crypto_generichash/blake2b/ref/blake2b-compress-ref.c:73:156
	addq	%r8, %r9
.Ltmp21:
	#DEBUG_VALUE: blake2b_compress_ref:v <- [DW_OP_LLVM_fragment 0 64] $r9
	.loc	3 73 220 is_stmt 0              # crypto_generichash/blake2b/ref/blake2b-compress-ref.c:73:220
	xorq	%r9, %rsi
.Ltmp22:
	#DEBUG_VALUE: rotr64:x <- $rsi
	#DEBUG_VALUE: rotr64:b <- 16
	.loc	4 58 21 is_stmt 1               # ./include/sodium/private/common.h:58:21 @[ crypto_generichash/blake2b/ref/blake2b-compress-ref.c:73:206 ]
	rolq	$48, %rsi
.Ltmp23:
	#DEBUG_VALUE: blake2b_compress_ref:v <- [DW_OP_LLVM_fragment 768 64] $rsi
	.loc	4 0 21 is_stmt 0                # ./include/sodium/private/common.h:0:21
	movq	%rsi, -104(%rsp)                # 8-byte Spill
.Ltmp24:
	#DEBUG_VALUE: blake2b_compress_ref:v <- [DW_OP_constu 104, DW_OP_minus, DW_OP_deref, DW_OP_LLVM_fragment 768 64] $rsp
	.loc	3 73 241 is_stmt 1              # crypto_generichash/blake2b/ref/blake2b-compress-ref.c:73:241
	addq	%rsi, %rax
.Ltmp25:
	#DEBUG_VALUE: blake2b_compress_ref:v <- [DW_OP_LLVM_fragment 512 64] $rax
	.loc	3 0 241 is_stmt 0               # crypto_generichash/blake2b/ref/blake2b-compress-ref.c:0:241
	movq	%rax, -120(%rsp)                # 8-byte Spill
.Ltmp26:
	#DEBUG_VALUE: blake2b_compress_ref:v <- [DW_OP_constu 120, DW_OP_minus, DW_OP_deref, DW_OP_LLVM_fragment 512 64] $rsp
	.loc	3 73 271                        # crypto_generichash/blake2b/ref/blake2b-compress-ref.c:73:271
	xorq	%rax, %r8
.Ltmp27:
	#DEBUG_VALUE: rotr64:x <- $r8
	#DEBUG_VALUE: rotr64:b <- 63
	.loc	4 58 21 is_stmt 1               # ./include/sodium/private/common.h:58:21 @[ crypto_generichash/blake2b/ref/blake2b-compress-ref.c:73:258 ]
	rolq	%r8
.Ltmp28:
	#DEBUG_VALUE: blake2b_compress_ref:v <- [DW_OP_LLVM_fragment 256 64] $r8
	.loc	3 73 318                        # crypto_generichash/blake2b/ref/blake2b-compress-ref.c:73:318
	leaq	(%rdx,%r12), %r11
	.loc	3 73 310 is_stmt 0              # crypto_generichash/blake2b/ref/blake2b-compress-ref.c:73:310
	addq	8(%rcx), %r11
.Ltmp29:
	#DEBUG_VALUE: blake2b_compress_ref:v <- [DW_OP_LLVM_fragment 64 64] $r11
	.loc	3 0 310                         # crypto_generichash/blake2b/ref/blake2b-compress-ref.c:0:310
	movq	72(%rcx), %rax
	.loc	3 73 374                        # crypto_generichash/blake2b/ref/blake2b-compress-ref.c:73:374
	xorq	%r11, %rax
	movabsq	$-7276294671716946913, %rdi     # imm = 0x9B05688C2B3E6C1F
	xorq	%rax, %rdi
.Ltmp30:
	#DEBUG_VALUE: rotr64:x <- $rdi
	#DEBUG_VALUE: rotr64:b <- 32
	.loc	4 58 21 is_stmt 1               # ./include/sodium/private/common.h:58:21 @[ crypto_generichash/blake2b/ref/blake2b-compress-ref.c:73:360 ]
	rolq	$32, %rdi
.Ltmp31:
	#DEBUG_VALUE: blake2b_compress_ref:v <- [DW_OP_LLVM_fragment 832 64] $rdi
	.loc	3 38 14                         # crypto_generichash/blake2b/ref/blake2b-compress-ref.c:38:14
	movq	24(%r10), %rdx
.Ltmp32:
	#DEBUG_VALUE: blake2b_compress_ref:m <- [DW_OP_LLVM_fragment 192 64] $rdx
	.loc	3 0 14 is_stmt 0                # crypto_generichash/blake2b/ref/blake2b-compress-ref.c:0:14
	movq	%rdx, -72(%rsp)                 # 8-byte Spill
	movabsq	$-4942790177534073029, %rax     # imm = 0xBB67AE8584CAA73B
.Ltmp33:
	.loc	3 73 395 is_stmt 1              # crypto_generichash/blake2b/ref/blake2b-compress-ref.c:73:395
	addq	%rdi, %rax
.Ltmp34:
	#DEBUG_VALUE: blake2b_compress_ref:v <- [DW_OP_LLVM_fragment 576 64] $rax
	.loc	3 73 425 is_stmt 0              # crypto_generichash/blake2b/ref/blake2b-compress-ref.c:73:425
	xorq	%rax, %r12
.Ltmp35:
	#DEBUG_VALUE: rotr64:x <- $r12
	#DEBUG_VALUE: rotr64:b <- 24
	.loc	4 58 21 is_stmt 1               # ./include/sodium/private/common.h:58:21 @[ crypto_generichash/blake2b/ref/blake2b-compress-ref.c:73:412 ]
	rolq	$40, %r12
.Ltmp36:
	#DEBUG_VALUE: blake2b_compress_ref:v <- [DW_OP_LLVM_fragment 320 64] $r12
	.loc	3 73 454                        # crypto_generichash/blake2b/ref/blake2b-compress-ref.c:73:454
	addq	%rdx, %r11
.Ltmp37:
	.loc	3 73 446 is_stmt 0              # crypto_generichash/blake2b/ref/blake2b-compress-ref.c:73:446
	addq	%r12, %r11
.Ltmp38:
	#DEBUG_VALUE: blake2b_compress_ref:v <- [DW_OP_LLVM_fragment 64 64] $r11
	.loc	3 73 510                        # crypto_generichash/blake2b/ref/blake2b-compress-ref.c:73:510
	xorq	%r11, %rdi
.Ltmp39:
	#DEBUG_VALUE: rotr64:x <- $rdi
	#DEBUG_VALUE: rotr64:b <- 16
	.loc	4 58 21 is_stmt 1               # ./include/sodium/private/common.h:58:21 @[ crypto_generichash/blake2b/ref/blake2b-compress-ref.c:73:496 ]
	rolq	$48, %rdi
.Ltmp40:
	#DEBUG_VALUE: blake2b_compress_ref:v <- [DW_OP_LLVM_fragment 832 64] $rdi
	.loc	3 73 531                        # crypto_generichash/blake2b/ref/blake2b-compress-ref.c:73:531
	addq	%rdi, %rax
.Ltmp41:
	#DEBUG_VALUE: blake2b_compress_ref:v <- [DW_OP_LLVM_fragment 576 64] $rax
	.loc	3 0 531 is_stmt 0               # crypto_generichash/blake2b/ref/blake2b-compress-ref.c:0:531
	movq	%rax, -128(%rsp)                # 8-byte Spill
.Ltmp42:
	#DEBUG_VALUE: blake2b_compress_ref:v <- [DW_OP_constu 128, DW_OP_minus, DW_OP_deref, DW_OP_LLVM_fragment 576 64] $rsp
	.loc	3 73 561                        # crypto_generichash/blake2b/ref/blake2b-compress-ref.c:73:561
	xorq	%rax, %r12
.Ltmp43:
	#DEBUG_VALUE: rotr64:x <- $r12
	#DEBUG_VALUE: rotr64:b <- 63
	.loc	4 58 21 is_stmt 1               # ./include/sodium/private/common.h:58:21 @[ crypto_generichash/blake2b/ref/blake2b-compress-ref.c:73:548 ]
	rolq	%r12
.Ltmp44:
	#DEBUG_VALUE: blake2b_compress_ref:v <- [DW_OP_LLVM_fragment 320 64] $r12
	.loc	3 38 14                         # crypto_generichash/blake2b/ref/blake2b-compress-ref.c:38:14
	movq	32(%r10), %rax
.Ltmp45:
	#DEBUG_VALUE: blake2b_compress_ref:m <- [DW_OP_LLVM_fragment 256 64] $rax
	.loc	3 0 14 is_stmt 0                # crypto_generichash/blake2b/ref/blake2b-compress-ref.c:0:14
	movq	%rax, -88(%rsp)                 # 8-byte Spill
.Ltmp46:
	.loc	3 41 14 is_stmt 1               # crypto_generichash/blake2b/ref/blake2b-compress-ref.c:41:14
	movq	48(%rcx), %rbx
.Ltmp47:
	#DEBUG_VALUE: blake2b_compress_ref:v <- [DW_OP_LLVM_fragment 384 64] $rbx
	.loc	3 73 608                        # crypto_generichash/blake2b/ref/blake2b-compress-ref.c:73:608
	leaq	(%rax,%rbx), %r13
	.loc	3 73 600 is_stmt 0              # crypto_generichash/blake2b/ref/blake2b-compress-ref.c:73:600
	addq	16(%rcx), %r13
.Ltmp48:
	#DEBUG_VALUE: blake2b_compress_ref:v <- [DW_OP_LLVM_fragment 128 64] $r13
	.loc	3 0 600                         # crypto_generichash/blake2b/ref/blake2b-compress-ref.c:0:600
	movq	80(%rcx), %r14
	.loc	3 73 664                        # crypto_generichash/blake2b/ref/blake2b-compress-ref.c:73:664
	xorq	%r13, %r14
.Ltmp49:
	#DEBUG_VALUE: rotr64:x <- undef
	#DEBUG_VALUE: rotr64:b <- 32
	#DEBUG_VALUE: blake2b_compress_ref:v <- [DW_OP_LLVM_fragment 896 64] undef
	#DEBUG_VALUE: blake2b_compress_ref:v <- [DW_OP_LLVM_fragment 640 64] undef
	#DEBUG_VALUE: rotr64:x <- undef
	#DEBUG_VALUE: rotr64:b <- 24
	#DEBUG_VALUE: blake2b_compress_ref:v <- [DW_OP_LLVM_fragment 384 64] undef
	#DEBUG_VALUE: blake2b_compress_ref:v <- [DW_OP_LLVM_fragment 128 64] undef
	#DEBUG_VALUE: rotr64:x <- undef
	#DEBUG_VALUE: rotr64:b <- 16
	#DEBUG_VALUE: blake2b_compress_ref:v <- [DW_OP_LLVM_fragment 896 64] undef
	#DEBUG_VALUE: blake2b_compress_ref:v <- [DW_OP_LLVM_fragment 640 64] undef
	#DEBUG_VALUE: rotr64:x <- undef
	#DEBUG_VALUE: rotr64:b <- 63
	#DEBUG_VALUE: blake2b_compress_ref:v <- [DW_OP_LLVM_fragment 384 64] undef
	.loc	3 38 14 is_stmt 1               # crypto_generichash/blake2b/ref/blake2b-compress-ref.c:38:14
	movq	48(%r10), %rdx
.Ltmp50:
	#DEBUG_VALUE: blake2b_compress_ref:m <- [DW_OP_LLVM_fragment 384 64] $rdx
	.loc	3 0 14 is_stmt 0                # crypto_generichash/blake2b/ref/blake2b-compress-ref.c:0:14
	movq	%rdx, -48(%rsp)                 # 8-byte Spill
.Ltmp51:
	.loc	3 41 14 is_stmt 1               # crypto_generichash/blake2b/ref/blake2b-compress-ref.c:41:14
	movq	56(%rcx), %r15
.Ltmp52:
	#DEBUG_VALUE: blake2b_compress_ref:v <- [DW_OP_LLVM_fragment 448 64] $r15
	.loc	3 0 14 is_stmt 0                # crypto_generichash/blake2b/ref/blake2b-compress-ref.c:0:14
	movq	%rcx, 32(%rsp)                  # 8-byte Spill
.Ltmp53:
	#DEBUG_VALUE: blake2b_compress_ref:S <- [DW_OP_plus_uconst 32] [$rsp+0]
	.loc	3 73 902 is_stmt 1              # crypto_generichash/blake2b/ref/blake2b-compress-ref.c:73:902
	addq	%r15, %rdx
.Ltmp54:
	.loc	3 73 894 is_stmt 0              # crypto_generichash/blake2b/ref/blake2b-compress-ref.c:73:894
	addq	24(%rcx), %rdx
.Ltmp55:
	#DEBUG_VALUE: blake2b_compress_ref:v <- [DW_OP_LLVM_fragment 192 64] $rdx
	.loc	3 0 894                         # crypto_generichash/blake2b/ref/blake2b-compress-ref.c:0:894
	movabsq	$2270897969802886507, %rsi      # imm = 0x1F83D9ABFB41BD6B
.Ltmp56:
	.loc	3 73 664                        # crypto_generichash/blake2b/ref/blake2b-compress-ref.c:73:664
	xorq	%r14, %rsi
.Ltmp57:
	#DEBUG_VALUE: rotr64:x <- $rsi
	.loc	3 0 664                         # crypto_generichash/blake2b/ref/blake2b-compress-ref.c:0:664
	movq	88(%rcx), %r14
.Ltmp58:
	.loc	3 73 958                        # crypto_generichash/blake2b/ref/blake2b-compress-ref.c:73:958
	xorq	%rdx, %r14
	movabsq	$6620516959819538809, %rbp      # imm = 0x5BE0CD19137E2179
	xorq	%r14, %rbp
.Ltmp59:
	#DEBUG_VALUE: rotr64:x <- $rbp
	#DEBUG_VALUE: rotr64:b <- 32
	.loc	4 58 21 is_stmt 1               # ./include/sodium/private/common.h:58:21 @[ crypto_generichash/blake2b/ref/blake2b-compress-ref.c:73:650 ]
	rolq	$32, %rsi
.Ltmp60:
	#DEBUG_VALUE: blake2b_compress_ref:v <- [DW_OP_LLVM_fragment 896 64] $rsi
	.loc	4 0 21 is_stmt 0                # ./include/sodium/private/common.h:0:21
	movabsq	$4354685564936845355, %r14      # imm = 0x3C6EF372FE94F82B
.Ltmp61:
	.loc	3 73 686 is_stmt 1              # crypto_generichash/blake2b/ref/blake2b-compress-ref.c:73:686
	addq	%rsi, %r14
.Ltmp62:
	#DEBUG_VALUE: blake2b_compress_ref:v <- [DW_OP_LLVM_fragment 640 64] $r14
	.loc	3 73 716 is_stmt 0              # crypto_generichash/blake2b/ref/blake2b-compress-ref.c:73:716
	xorq	%r14, %rbx
.Ltmp63:
	#DEBUG_VALUE: rotr64:x <- $rbx
	.loc	4 58 21 is_stmt 1               # ./include/sodium/private/common.h:58:21 @[ crypto_generichash/blake2b/ref/blake2b-compress-ref.c:73:703 ]
	rolq	$40, %rbx
.Ltmp64:
	#DEBUG_VALUE: blake2b_compress_ref:v <- [DW_OP_LLVM_fragment 384 64] $rbx
	.loc	3 38 14                         # crypto_generichash/blake2b/ref/blake2b-compress-ref.c:38:14
	movq	40(%r10), %rax
.Ltmp65:
	#DEBUG_VALUE: blake2b_compress_ref:m <- [DW_OP_LLVM_fragment 320 64] $rax
	.loc	3 0 14 is_stmt 0                # crypto_generichash/blake2b/ref/blake2b-compress-ref.c:0:14
	movq	%rax, -96(%rsp)                 # 8-byte Spill
.Ltmp66:
	.loc	3 73 746 is_stmt 1              # crypto_generichash/blake2b/ref/blake2b-compress-ref.c:73:746
	addq	%rax, %r13
	.loc	3 73 738 is_stmt 0              # crypto_generichash/blake2b/ref/blake2b-compress-ref.c:73:738
	addq	%rbx, %r13
.Ltmp67:
	#DEBUG_VALUE: blake2b_compress_ref:v <- [DW_OP_LLVM_fragment 128 64] $r13
	.loc	3 73 802                        # crypto_generichash/blake2b/ref/blake2b-compress-ref.c:73:802
	xorq	%r13, %rsi
.Ltmp68:
	#DEBUG_VALUE: rotr64:x <- $rsi
	.loc	4 58 21 is_stmt 1               # ./include/sodium/private/common.h:58:21 @[ crypto_generichash/blake2b/ref/blake2b-compress-ref.c:73:788 ]
	rolq	$48, %rsi
.Ltmp69:
	#DEBUG_VALUE: blake2b_compress_ref:v <- [DW_OP_LLVM_fragment 896 64] $rsi
	.loc	3 73 824                        # crypto_generichash/blake2b/ref/blake2b-compress-ref.c:73:824
	addq	%rsi, %r14
.Ltmp70:
	#DEBUG_VALUE: blake2b_compress_ref:v <- [DW_OP_LLVM_fragment 640 64] $r14
	.loc	3 73 854 is_stmt 0              # crypto_generichash/blake2b/ref/blake2b-compress-ref.c:73:854
	xorq	%r14, %rbx
.Ltmp71:
	#DEBUG_VALUE: rotr64:x <- $rbx
	.loc	3 0 854                         # crypto_generichash/blake2b/ref/blake2b-compress-ref.c:0:854
	movq	%r14, %rcx
.Ltmp72:
	.loc	4 58 21 is_stmt 1               # ./include/sodium/private/common.h:58:21 @[ crypto_generichash/blake2b/ref/blake2b-compress-ref.c:73:841 ]
	rolq	%rbx
.Ltmp73:
	#DEBUG_VALUE: blake2b_compress_ref:v <- [DW_OP_LLVM_fragment 384 64] $rbx
	.loc	4 58 21 is_stmt 0               # ./include/sodium/private/common.h:58:21 @[ crypto_generichash/blake2b/ref/blake2b-compress-ref.c:73:944 ]
	rolq	$32, %rbp
.Ltmp74:
	#DEBUG_VALUE: blake2b_compress_ref:v <- [DW_OP_LLVM_fragment 960 64] $rbp
	.loc	4 0 21                          # ./include/sodium/private/common.h:0:21
	movabsq	$-6534734903238641935, %r14     # imm = 0xA54FF53A5F1D36F1
.Ltmp75:
	.loc	3 73 980 is_stmt 1              # crypto_generichash/blake2b/ref/blake2b-compress-ref.c:73:980
	addq	%rbp, %r14
.Ltmp76:
	#DEBUG_VALUE: blake2b_compress_ref:v <- [DW_OP_LLVM_fragment 704 64] $r14
	.loc	3 73 1010 is_stmt 0             # crypto_generichash/blake2b/ref/blake2b-compress-ref.c:73:1010
	xorq	%r14, %r15
.Ltmp77:
	#DEBUG_VALUE: rotr64:x <- $r15
	#DEBUG_VALUE: rotr64:b <- 24
	.loc	4 58 21 is_stmt 1               # ./include/sodium/private/common.h:58:21 @[ crypto_generichash/blake2b/ref/blake2b-compress-ref.c:73:997 ]
	rolq	$40, %r15
.Ltmp78:
	#DEBUG_VALUE: blake2b_compress_ref:v <- [DW_OP_LLVM_fragment 448 64] $r15
	.loc	3 38 14                         # crypto_generichash/blake2b/ref/blake2b-compress-ref.c:38:14
	movq	56(%r10), %rax
.Ltmp79:
	#DEBUG_VALUE: blake2b_compress_ref:m <- [DW_OP_LLVM_fragment 448 64] $rax
	.loc	3 0 14 is_stmt 0                # crypto_generichash/blake2b/ref/blake2b-compress-ref.c:0:14
	movq	%rax, -16(%rsp)                 # 8-byte Spill
.Ltmp80:
	.loc	3 73 1040 is_stmt 1             # crypto_generichash/blake2b/ref/blake2b-compress-ref.c:73:1040
	addq	%rax, %rdx
.Ltmp81:
	.loc	3 73 1032 is_stmt 0             # crypto_generichash/blake2b/ref/blake2b-compress-ref.c:73:1032
	addq	%r15, %rdx
.Ltmp82:
	#DEBUG_VALUE: blake2b_compress_ref:v <- [DW_OP_LLVM_fragment 192 64] $rdx
	.loc	3 73 1096                       # crypto_generichash/blake2b/ref/blake2b-compress-ref.c:73:1096
	xorq	%rdx, %rbp
.Ltmp83:
	#DEBUG_VALUE: rotr64:x <- $rbp
	#DEBUG_VALUE: rotr64:b <- 16
	.loc	4 58 21 is_stmt 1               # ./include/sodium/private/common.h:58:21 @[ crypto_generichash/blake2b/ref/blake2b-compress-ref.c:73:1082 ]
	rolq	$48, %rbp
.Ltmp84:
	#DEBUG_VALUE: blake2b_compress_ref:v <- [DW_OP_LLVM_fragment 960 64] $rbp
	.loc	3 73 1118                       # crypto_generichash/blake2b/ref/blake2b-compress-ref.c:73:1118
	addq	%rbp, %r14
.Ltmp85:
	#DEBUG_VALUE: blake2b_compress_ref:v <- [DW_OP_LLVM_fragment 704 64] $r14
	.loc	3 73 1148 is_stmt 0             # crypto_generichash/blake2b/ref/blake2b-compress-ref.c:73:1148
	xorq	%r14, %r15
.Ltmp86:
	#DEBUG_VALUE: rotr64:x <- $r15
	#DEBUG_VALUE: rotr64:b <- 63
	.loc	4 58 21 is_stmt 1               # ./include/sodium/private/common.h:58:21 @[ crypto_generichash/blake2b/ref/blake2b-compress-ref.c:73:1135 ]
	rolq	%r15
.Ltmp87:
	#DEBUG_VALUE: blake2b_compress_ref:v <- [DW_OP_LLVM_fragment 448 64] $r15
	.loc	3 38 14                         # crypto_generichash/blake2b/ref/blake2b-compress-ref.c:38:14
	movq	64(%r10), %rax
.Ltmp88:
	#DEBUG_VALUE: blake2b_compress_ref:m <- [DW_OP_LLVM_fragment 512 64] $rax
	.loc	3 0 14 is_stmt 0                # crypto_generichash/blake2b/ref/blake2b-compress-ref.c:0:14
	movq	%rax, -64(%rsp)                 # 8-byte Spill
.Ltmp89:
	.loc	3 73 1196 is_stmt 1             # crypto_generichash/blake2b/ref/blake2b-compress-ref.c:73:1196
	addq	%rax, %r9
.Ltmp90:
	.loc	3 73 1188 is_stmt 0             # crypto_generichash/blake2b/ref/blake2b-compress-ref.c:73:1188
	addq	%r12, %r9
.Ltmp91:
	#DEBUG_VALUE: blake2b_compress_ref:v <- [DW_OP_LLVM_fragment 0 64] $r9
	.loc	3 73 1252                       # crypto_generichash/blake2b/ref/blake2b-compress-ref.c:73:1252
	xorq	%r9, %rbp
.Ltmp92:
	#DEBUG_VALUE: rotr64:x <- $rbp
	#DEBUG_VALUE: rotr64:b <- 32
	.loc	4 58 21 is_stmt 1               # ./include/sodium/private/common.h:58:21 @[ crypto_generichash/blake2b/ref/blake2b-compress-ref.c:73:1238 ]
	rolq	$32, %rbp
.Ltmp93:
	#DEBUG_VALUE: blake2b_compress_ref:v <- [DW_OP_LLVM_fragment 960 64] $rbp
	.loc	4 0 21 is_stmt 0                # ./include/sodium/private/common.h:0:21
	movq	%rcx, %rax
.Ltmp94:
	.loc	3 73 1274 is_stmt 1             # crypto_generichash/blake2b/ref/blake2b-compress-ref.c:73:1274
	addq	%rbp, %rax
.Ltmp95:
	#DEBUG_VALUE: blake2b_compress_ref:v <- [DW_OP_LLVM_fragment 640 64] $rax
	.loc	3 73 1304 is_stmt 0             # crypto_generichash/blake2b/ref/blake2b-compress-ref.c:73:1304
	xorq	%rax, %r12
.Ltmp96:
	#DEBUG_VALUE: rotr64:x <- $r12
	#DEBUG_VALUE: rotr64:b <- 24
	.loc	3 0 1304                        # crypto_generichash/blake2b/ref/blake2b-compress-ref.c:0:1304
	movq	%rax, %rcx
.Ltmp97:
	.loc	4 58 21 is_stmt 1               # ./include/sodium/private/common.h:58:21 @[ crypto_generichash/blake2b/ref/blake2b-compress-ref.c:73:1291 ]
	rolq	$40, %r12
.Ltmp98:
	#DEBUG_VALUE: blake2b_compress_ref:v <- [DW_OP_LLVM_fragment 320 64] $r12
	.loc	3 38 14                         # crypto_generichash/blake2b/ref/blake2b-compress-ref.c:38:14
	movq	72(%r10), %rax
.Ltmp99:
	#DEBUG_VALUE: blake2b_compress_ref:m <- [DW_OP_LLVM_fragment 576 64] $rax
	#DEBUG_VALUE: blake2b_compress_ref:v <- [DW_OP_LLVM_fragment 640 64] $rcx
	.loc	3 0 14 is_stmt 0                # crypto_generichash/blake2b/ref/blake2b-compress-ref.c:0:14
	movq	%rax, -56(%rsp)                 # 8-byte Spill
.Ltmp100:
	.loc	3 73 1334 is_stmt 1             # crypto_generichash/blake2b/ref/blake2b-compress-ref.c:73:1334
	addq	%rax, %r9
.Ltmp101:
	.loc	3 73 1326 is_stmt 0             # crypto_generichash/blake2b/ref/blake2b-compress-ref.c:73:1326
	addq	%r12, %r9
.Ltmp102:
	#DEBUG_VALUE: blake2b_compress_ref:v <- [DW_OP_LLVM_fragment 0 64] $r9
	.loc	3 73 1390                       # crypto_generichash/blake2b/ref/blake2b-compress-ref.c:73:1390
	xorq	%r9, %rbp
.Ltmp103:
	#DEBUG_VALUE: rotr64:x <- $rbp
	#DEBUG_VALUE: rotr64:b <- 16
	.loc	4 58 21 is_stmt 1               # ./include/sodium/private/common.h:58:21 @[ crypto_generichash/blake2b/ref/blake2b-compress-ref.c:73:1376 ]
	rolq	$48, %rbp
.Ltmp104:
	#DEBUG_VALUE: blake2b_compress_ref:v <- [DW_OP_LLVM_fragment 960 64] $rbp
	.loc	3 73 1412                       # crypto_generichash/blake2b/ref/blake2b-compress-ref.c:73:1412
	addq	%rbp, %rcx
.Ltmp105:
	#DEBUG_VALUE: blake2b_compress_ref:v <- [DW_OP_LLVM_fragment 640 64] $rcx
	.loc	3 0 1412 is_stmt 0              # crypto_generichash/blake2b/ref/blake2b-compress-ref.c:0:1412
	movq	%rcx, -112(%rsp)                # 8-byte Spill
.Ltmp106:
	#DEBUG_VALUE: blake2b_compress_ref:v <- [DW_OP_constu 112, DW_OP_minus, DW_OP_deref, DW_OP_LLVM_fragment 640 64] $rsp
	.loc	3 73 1442                       # crypto_generichash/blake2b/ref/blake2b-compress-ref.c:73:1442
	xorq	%rcx, %r12
.Ltmp107:
	#DEBUG_VALUE: rotr64:x <- $r12
	#DEBUG_VALUE: rotr64:b <- 63
	.loc	4 58 21 is_stmt 1               # ./include/sodium/private/common.h:58:21 @[ crypto_generichash/blake2b/ref/blake2b-compress-ref.c:73:1429 ]
	rolq	%r12
.Ltmp108:
	#DEBUG_VALUE: blake2b_compress_ref:v <- [DW_OP_LLVM_fragment 320 64] $r12
	.loc	3 38 14                         # crypto_generichash/blake2b/ref/blake2b-compress-ref.c:38:14
	movq	80(%r10), %rax
.Ltmp109:
	#DEBUG_VALUE: blake2b_compress_ref:m <- [DW_OP_LLVM_fragment 640 64] $rax
	.loc	3 0 14 is_stmt 0                # crypto_generichash/blake2b/ref/blake2b-compress-ref.c:0:14
	movq	%rax, (%rsp)                    # 8-byte Spill
.Ltmp110:
	.loc	3 73 1490 is_stmt 1             # crypto_generichash/blake2b/ref/blake2b-compress-ref.c:73:1490
	addq	%rax, %r11
.Ltmp111:
	.loc	3 73 1482 is_stmt 0             # crypto_generichash/blake2b/ref/blake2b-compress-ref.c:73:1482
	addq	%rbx, %r11
.Ltmp112:
	#DEBUG_VALUE: blake2b_compress_ref:v <- [DW_OP_LLVM_fragment 64 64] $r11
	.loc	3 0 1482                        # crypto_generichash/blake2b/ref/blake2b-compress-ref.c:0:1482
	movq	-104(%rsp), %rcx                # 8-byte Reload
	.loc	3 73 1546                       # crypto_generichash/blake2b/ref/blake2b-compress-ref.c:73:1546
	xorq	%r11, %rcx
.Ltmp113:
	#DEBUG_VALUE: rotr64:x <- $rcx
	#DEBUG_VALUE: rotr64:b <- 32
	.loc	4 58 21 is_stmt 1               # ./include/sodium/private/common.h:58:21 @[ crypto_generichash/blake2b/ref/blake2b-compress-ref.c:73:1532 ]
	rolq	$32, %rcx
.Ltmp114:
	#DEBUG_VALUE: blake2b_compress_ref:v <- [DW_OP_LLVM_fragment 768 64] $rcx
	.loc	3 73 1568                       # crypto_generichash/blake2b/ref/blake2b-compress-ref.c:73:1568
	addq	%rcx, %r14
.Ltmp115:
	#DEBUG_VALUE: blake2b_compress_ref:v <- [DW_OP_LLVM_fragment 704 64] $r14
	.loc	3 73 1598 is_stmt 0             # crypto_generichash/blake2b/ref/blake2b-compress-ref.c:73:1598
	xorq	%r14, %rbx
.Ltmp116:
	#DEBUG_VALUE: rotr64:x <- $rbx
	#DEBUG_VALUE: rotr64:b <- 24
	.loc	4 58 21 is_stmt 1               # ./include/sodium/private/common.h:58:21 @[ crypto_generichash/blake2b/ref/blake2b-compress-ref.c:73:1585 ]
	rolq	$40, %rbx
.Ltmp117:
	#DEBUG_VALUE: blake2b_compress_ref:v <- [DW_OP_LLVM_fragment 384 64] $rbx
	.loc	3 38 14                         # crypto_generichash/blake2b/ref/blake2b-compress-ref.c:38:14
	movq	88(%r10), %rax
.Ltmp118:
	#DEBUG_VALUE: blake2b_compress_ref:m <- [DW_OP_LLVM_fragment 704 64] $rax
	.loc	3 0 14 is_stmt 0                # crypto_generichash/blake2b/ref/blake2b-compress-ref.c:0:14
	movq	%rax, 8(%rsp)                   # 8-byte Spill
.Ltmp119:
	.loc	3 73 1628 is_stmt 1             # crypto_generichash/blake2b/ref/blake2b-compress-ref.c:73:1628
	addq	%rax, %r11
.Ltmp120:
	.loc	3 73 1620 is_stmt 0             # crypto_generichash/blake2b/ref/blake2b-compress-ref.c:73:1620
	addq	%rbx, %r11
.Ltmp121:
	#DEBUG_VALUE: blake2b_compress_ref:v <- [DW_OP_LLVM_fragment 64 64] $r11
	.loc	3 73 1684                       # crypto_generichash/blake2b/ref/blake2b-compress-ref.c:73:1684
	xorq	%r11, %rcx
.Ltmp122:
	#DEBUG_VALUE: rotr64:x <- $rcx
	#DEBUG_VALUE: rotr64:b <- 16
	.loc	4 58 21 is_stmt 1               # ./include/sodium/private/common.h:58:21 @[ crypto_generichash/blake2b/ref/blake2b-compress-ref.c:73:1670 ]
	rolq	$48, %rcx
.Ltmp123:
	#DEBUG_VALUE: blake2b_compress_ref:v <- [DW_OP_LLVM_fragment 768 64] $rcx
	.loc	3 73 1706                       # crypto_generichash/blake2b/ref/blake2b-compress-ref.c:73:1706
	addq	%rcx, %r14
.Ltmp124:
	#DEBUG_VALUE: blake2b_compress_ref:v <- [DW_OP_LLVM_fragment 704 64] $r14
	.loc	3 0 1706 is_stmt 0              # crypto_generichash/blake2b/ref/blake2b-compress-ref.c:0:1706
	movq	%r14, 24(%rsp)                  # 8-byte Spill
.Ltmp125:
	#DEBUG_VALUE: blake2b_compress_ref:v <- [DW_OP_plus_uconst 24, DW_OP_deref, DW_OP_LLVM_fragment 704 64] $rsp
	.loc	3 73 1736                       # crypto_generichash/blake2b/ref/blake2b-compress-ref.c:73:1736
	xorq	%r14, %rbx
.Ltmp126:
	#DEBUG_VALUE: rotr64:x <- $rbx
	#DEBUG_VALUE: rotr64:b <- 63
	.loc	4 58 21 is_stmt 1               # ./include/sodium/private/common.h:58:21 @[ crypto_generichash/blake2b/ref/blake2b-compress-ref.c:73:1723 ]
	rolq	%rbx
.Ltmp127:
	#DEBUG_VALUE: blake2b_compress_ref:v <- [DW_OP_LLVM_fragment 384 64] $rbx
	.loc	3 38 14                         # crypto_generichash/blake2b/ref/blake2b-compress-ref.c:38:14
	movq	96(%r10), %rax
.Ltmp128:
	#DEBUG_VALUE: blake2b_compress_ref:m <- [DW_OP_LLVM_fragment 768 64] $rax
	.loc	3 0 14 is_stmt 0                # crypto_generichash/blake2b/ref/blake2b-compress-ref.c:0:14
	movq	%rax, -104(%rsp)                # 8-byte Spill
.Ltmp129:
	.loc	3 73 1784 is_stmt 1             # crypto_generichash/blake2b/ref/blake2b-compress-ref.c:73:1784
	addq	%rax, %r13
.Ltmp130:
	.loc	3 73 1776 is_stmt 0             # crypto_generichash/blake2b/ref/blake2b-compress-ref.c:73:1776
	addq	%r15, %r13
.Ltmp131:
	#DEBUG_VALUE: blake2b_compress_ref:v <- [DW_OP_LLVM_fragment 128 64] $r13
	.loc	3 73 1840                       # crypto_generichash/blake2b/ref/blake2b-compress-ref.c:73:1840
	xorq	%r13, %rdi
.Ltmp132:
	#DEBUG_VALUE: rotr64:x <- $rdi
	#DEBUG_VALUE: rotr64:b <- 32
	.loc	4 58 21 is_stmt 1               # ./include/sodium/private/common.h:58:21 @[ crypto_generichash/blake2b/ref/blake2b-compress-ref.c:73:1826 ]
	rolq	$32, %rdi
.Ltmp133:
	#DEBUG_VALUE: blake2b_compress_ref:v <- [DW_OP_LLVM_fragment 832 64] $rdi
	.loc	4 0 21 is_stmt 0                # ./include/sodium/private/common.h:0:21
	movq	-120(%rsp), %rax                # 8-byte Reload
.Ltmp134:
	.loc	3 73 1861 is_stmt 1             # crypto_generichash/blake2b/ref/blake2b-compress-ref.c:73:1861
	addq	%rdi, %rax
.Ltmp135:
	#DEBUG_VALUE: blake2b_compress_ref:v <- [DW_OP_LLVM_fragment 512 64] $rax
	.loc	3 0 1861 is_stmt 0              # crypto_generichash/blake2b/ref/blake2b-compress-ref.c:0:1861
	movq	%rax, -120(%rsp)                # 8-byte Spill
.Ltmp136:
	#DEBUG_VALUE: blake2b_compress_ref:v <- [DW_OP_constu 120, DW_OP_minus, DW_OP_deref, DW_OP_LLVM_fragment 512 64] $rsp
	.loc	3 73 1891                       # crypto_generichash/blake2b/ref/blake2b-compress-ref.c:73:1891
	xorq	%rax, %r15
.Ltmp137:
	#DEBUG_VALUE: rotr64:x <- $r15
	#DEBUG_VALUE: rotr64:b <- 24
	.loc	4 58 21 is_stmt 1               # ./include/sodium/private/common.h:58:21 @[ crypto_generichash/blake2b/ref/blake2b-compress-ref.c:73:1878 ]
	rolq	$40, %r15
.Ltmp138:
	#DEBUG_VALUE: blake2b_compress_ref:v <- [DW_OP_LLVM_fragment 448 64] $r15
	.loc	3 38 14                         # crypto_generichash/blake2b/ref/blake2b-compress-ref.c:38:14
	movq	104(%r10), %rax
.Ltmp139:
	#DEBUG_VALUE: blake2b_compress_ref:m <- [DW_OP_LLVM_fragment 832 64] $rax
	.loc	3 0 14 is_stmt 0                # crypto_generichash/blake2b/ref/blake2b-compress-ref.c:0:14
	movq	%rax, -40(%rsp)                 # 8-byte Spill
	.loc	3 38 14                         # crypto_generichash/blake2b/ref/blake2b-compress-ref.c:38:14
	movq	112(%r10), %r14
.Ltmp140:
	#DEBUG_VALUE: blake2b_compress_ref:m <- [DW_OP_LLVM_fragment 896 64] $r14
	.loc	3 0 14                          # crypto_generichash/blake2b/ref/blake2b-compress-ref.c:0:14
	movq	%r14, -8(%rsp)                  # 8-byte Spill
	.loc	3 38 14                         # crypto_generichash/blake2b/ref/blake2b-compress-ref.c:38:14
	movq	120(%r10), %r14
.Ltmp141:
	#DEBUG_VALUE: blake2b_compress_ref:m <- [DW_OP_LLVM_fragment 960 64] $r14
	.loc	3 73 1920 is_stmt 1             # crypto_generichash/blake2b/ref/blake2b-compress-ref.c:73:1920
	addq	%rax, %r13
.Ltmp142:
	.loc	3 73 1912 is_stmt 0             # crypto_generichash/blake2b/ref/blake2b-compress-ref.c:73:1912
	addq	%r15, %r13
.Ltmp143:
	#DEBUG_VALUE: blake2b_compress_ref:v <- [DW_OP_LLVM_fragment 128 64] $r13
	.loc	3 73 1976                       # crypto_generichash/blake2b/ref/blake2b-compress-ref.c:73:1976
	xorq	%r13, %rdi
.Ltmp144:
	#DEBUG_VALUE: rotr64:x <- $rdi
	#DEBUG_VALUE: rotr64:b <- 16
	.loc	4 58 21 is_stmt 1               # ./include/sodium/private/common.h:58:21 @[ crypto_generichash/blake2b/ref/blake2b-compress-ref.c:73:1962 ]
	rolq	$48, %rdi
.Ltmp145:
	#DEBUG_VALUE: blake2b_compress_ref:v <- [DW_OP_LLVM_fragment 832 64] $rdi
	.loc	4 0 21 is_stmt 0                # ./include/sodium/private/common.h:0:21
	movq	-120(%rsp), %rax                # 8-byte Reload
.Ltmp146:
	.loc	3 73 1997 is_stmt 1             # crypto_generichash/blake2b/ref/blake2b-compress-ref.c:73:1997
	addq	%rdi, %rax
.Ltmp147:
	#DEBUG_VALUE: blake2b_compress_ref:v <- [DW_OP_LLVM_fragment 512 64] $rax
	.loc	3 0 1997 is_stmt 0              # crypto_generichash/blake2b/ref/blake2b-compress-ref.c:0:1997
	movq	%rax, -120(%rsp)                # 8-byte Spill
.Ltmp148:
	#DEBUG_VALUE: blake2b_compress_ref:v <- [DW_OP_constu 120, DW_OP_minus, DW_OP_deref, DW_OP_LLVM_fragment 512 64] $rsp
	.loc	3 73 2027                       # crypto_generichash/blake2b/ref/blake2b-compress-ref.c:73:2027
	xorq	%rax, %r15
.Ltmp149:
	#DEBUG_VALUE: rotr64:x <- $r15
	#DEBUG_VALUE: rotr64:b <- 63
	.loc	4 58 21 is_stmt 1               # ./include/sodium/private/common.h:58:21 @[ crypto_generichash/blake2b/ref/blake2b-compress-ref.c:73:2014 ]
	rolq	%r15
.Ltmp150:
	#DEBUG_VALUE: blake2b_compress_ref:v <- [DW_OP_LLVM_fragment 448 64] $r15
	.loc	4 0 21 is_stmt 0                # ./include/sodium/private/common.h:0:21
	movq	-8(%rsp), %r10                  # 8-byte Reload
.Ltmp151:
	.loc	3 73 2074 is_stmt 1             # crypto_generichash/blake2b/ref/blake2b-compress-ref.c:73:2074
	addq	%r10, %rdx
.Ltmp152:
	.loc	3 73 2066 is_stmt 0             # crypto_generichash/blake2b/ref/blake2b-compress-ref.c:73:2066
	addq	%r8, %rdx
.Ltmp153:
	#DEBUG_VALUE: blake2b_compress_ref:v <- [DW_OP_LLVM_fragment 192 64] $rdx
	.loc	3 73 2130                       # crypto_generichash/blake2b/ref/blake2b-compress-ref.c:73:2130
	xorq	%rdx, %rsi
.Ltmp154:
	#DEBUG_VALUE: rotr64:x <- $rsi
	#DEBUG_VALUE: rotr64:b <- 32
	.loc	4 58 21 is_stmt 1               # ./include/sodium/private/common.h:58:21 @[ crypto_generichash/blake2b/ref/blake2b-compress-ref.c:73:2116 ]
	rolq	$32, %rsi
.Ltmp155:
	#DEBUG_VALUE: blake2b_compress_ref:v <- [DW_OP_LLVM_fragment 896 64] $rsi
	.loc	4 0 21 is_stmt 0                # ./include/sodium/private/common.h:0:21
	movq	-128(%rsp), %rax                # 8-byte Reload
.Ltmp156:
	.loc	3 73 2151 is_stmt 1             # crypto_generichash/blake2b/ref/blake2b-compress-ref.c:73:2151
	addq	%rsi, %rax
.Ltmp157:
	#DEBUG_VALUE: blake2b_compress_ref:v <- [DW_OP_LLVM_fragment 576 64] $rax
	.loc	3 73 2181 is_stmt 0             # crypto_generichash/blake2b/ref/blake2b-compress-ref.c:73:2181
	xorq	%rax, %r8
.Ltmp158:
	#DEBUG_VALUE: rotr64:x <- $r8
	#DEBUG_VALUE: rotr64:b <- 24
	.loc	4 58 21 is_stmt 1               # ./include/sodium/private/common.h:58:21 @[ crypto_generichash/blake2b/ref/blake2b-compress-ref.c:73:2168 ]
	rolq	$40, %r8
.Ltmp159:
	#DEBUG_VALUE: blake2b_compress_ref:v <- [DW_OP_LLVM_fragment 256 64] $r8
	.loc	3 73 2210                       # crypto_generichash/blake2b/ref/blake2b-compress-ref.c:73:2210
	addq	%r14, %rdx
.Ltmp160:
	.loc	3 0 2210 is_stmt 0              # crypto_generichash/blake2b/ref/blake2b-compress-ref.c:0:2210
	movq	%r14, -32(%rsp)                 # 8-byte Spill
	.loc	3 73 2202                       # crypto_generichash/blake2b/ref/blake2b-compress-ref.c:73:2202
	addq	%r8, %rdx
.Ltmp161:
	#DEBUG_VALUE: blake2b_compress_ref:v <- [DW_OP_LLVM_fragment 192 64] $rdx
	.loc	3 73 2266                       # crypto_generichash/blake2b/ref/blake2b-compress-ref.c:73:2266
	xorq	%rdx, %rsi
.Ltmp162:
	#DEBUG_VALUE: rotr64:x <- $rsi
	#DEBUG_VALUE: rotr64:b <- 16
	.loc	4 58 21 is_stmt 1               # ./include/sodium/private/common.h:58:21 @[ crypto_generichash/blake2b/ref/blake2b-compress-ref.c:73:2252 ]
	rolq	$48, %rsi
.Ltmp163:
	#DEBUG_VALUE: blake2b_compress_ref:v <- [DW_OP_LLVM_fragment 896 64] $rsi
	.loc	3 73 2287                       # crypto_generichash/blake2b/ref/blake2b-compress-ref.c:73:2287
	addq	%rsi, %rax
.Ltmp164:
	#DEBUG_VALUE: blake2b_compress_ref:v <- [DW_OP_LLVM_fragment 576 64] $rax
	.loc	3 0 2287 is_stmt 0              # crypto_generichash/blake2b/ref/blake2b-compress-ref.c:0:2287
	movq	%rax, -128(%rsp)                # 8-byte Spill
.Ltmp165:
	#DEBUG_VALUE: blake2b_compress_ref:v <- [DW_OP_constu 128, DW_OP_minus, DW_OP_deref, DW_OP_LLVM_fragment 576 64] $rsp
	.loc	3 73 2317                       # crypto_generichash/blake2b/ref/blake2b-compress-ref.c:73:2317
	xorq	%rax, %r8
.Ltmp166:
	#DEBUG_VALUE: rotr64:x <- $r8
	#DEBUG_VALUE: rotr64:b <- 63
	.loc	4 58 21 is_stmt 1               # ./include/sodium/private/common.h:58:21 @[ crypto_generichash/blake2b/ref/blake2b-compress-ref.c:73:2304 ]
	rolq	%r8
.Ltmp167:
	#DEBUG_VALUE: blake2b_compress_ref:v <- [DW_OP_LLVM_fragment 256 64] $r8
	.loc	3 74 28                         # crypto_generichash/blake2b/ref/blake2b-compress-ref.c:74:28
	addq	%r10, %r9
.Ltmp168:
	.loc	3 74 20 is_stmt 0               # crypto_generichash/blake2b/ref/blake2b-compress-ref.c:74:20
	addq	%r8, %r9
.Ltmp169:
	#DEBUG_VALUE: blake2b_compress_ref:v <- [DW_OP_LLVM_fragment 0 64] $r9
	.loc	3 74 84                         # crypto_generichash/blake2b/ref/blake2b-compress-ref.c:74:84
	xorq	%r9, %rcx
.Ltmp170:
	#DEBUG_VALUE: rotr64:x <- $rcx
	#DEBUG_VALUE: rotr64:b <- 32
	.loc	4 58 21 is_stmt 1               # ./include/sodium/private/common.h:58:21 @[ crypto_generichash/blake2b/ref/blake2b-compress-ref.c:74:70 ]
	rolq	$32, %rcx
.Ltmp171:
	#DEBUG_VALUE: blake2b_compress_ref:v <- [DW_OP_LLVM_fragment 768 64] $rcx
	.loc	4 0 21 is_stmt 0                # ./include/sodium/private/common.h:0:21
	movq	-120(%rsp), %rax                # 8-byte Reload
.Ltmp172:
	.loc	3 74 105 is_stmt 1              # crypto_generichash/blake2b/ref/blake2b-compress-ref.c:74:105
	addq	%rcx, %rax
.Ltmp173:
	#DEBUG_VALUE: blake2b_compress_ref:v <- [DW_OP_LLVM_fragment 512 64] $rax
	.loc	3 74 135 is_stmt 0              # crypto_generichash/blake2b/ref/blake2b-compress-ref.c:74:135
	xorq	%rax, %r8
.Ltmp174:
	#DEBUG_VALUE: rotr64:x <- $r8
	#DEBUG_VALUE: rotr64:b <- 24
	.loc	4 58 21 is_stmt 1               # ./include/sodium/private/common.h:58:21 @[ crypto_generichash/blake2b/ref/blake2b-compress-ref.c:74:122 ]
	rolq	$40, %r8
.Ltmp175:
	#DEBUG_VALUE: blake2b_compress_ref:v <- [DW_OP_LLVM_fragment 256 64] $r8
	.loc	3 74 164                        # crypto_generichash/blake2b/ref/blake2b-compress-ref.c:74:164
	addq	(%rsp), %r9                     # 8-byte Folded Reload
.Ltmp176:
	.loc	3 74 156 is_stmt 0              # crypto_generichash/blake2b/ref/blake2b-compress-ref.c:74:156
	addq	%r8, %r9
.Ltmp177:
	#DEBUG_VALUE: blake2b_compress_ref:v <- [DW_OP_LLVM_fragment 0 64] $r9
	.loc	3 74 220                        # crypto_generichash/blake2b/ref/blake2b-compress-ref.c:74:220
	xorq	%r9, %rcx
.Ltmp178:
	#DEBUG_VALUE: rotr64:x <- $rcx
	#DEBUG_VALUE: rotr64:b <- 16
	.loc	4 58 21 is_stmt 1               # ./include/sodium/private/common.h:58:21 @[ crypto_generichash/blake2b/ref/blake2b-compress-ref.c:74:206 ]
	rolq	$48, %rcx
.Ltmp179:
	#DEBUG_VALUE: blake2b_compress_ref:v <- [DW_OP_LLVM_fragment 768 64] $rcx
	.loc	3 74 241                        # crypto_generichash/blake2b/ref/blake2b-compress-ref.c:74:241
	addq	%rcx, %rax
.Ltmp180:
	#DEBUG_VALUE: blake2b_compress_ref:v <- [DW_OP_LLVM_fragment 512 64] $rax
	.loc	3 0 241 is_stmt 0               # crypto_generichash/blake2b/ref/blake2b-compress-ref.c:0:241
	movq	%rax, -120(%rsp)                # 8-byte Spill
.Ltmp181:
	#DEBUG_VALUE: blake2b_compress_ref:v <- [DW_OP_constu 120, DW_OP_minus, DW_OP_deref, DW_OP_LLVM_fragment 512 64] $rsp
	.loc	3 74 271                        # crypto_generichash/blake2b/ref/blake2b-compress-ref.c:74:271
	xorq	%rax, %r8
.Ltmp182:
	#DEBUG_VALUE: rotr64:x <- $r8
	#DEBUG_VALUE: rotr64:b <- 63
	.loc	4 58 21 is_stmt 1               # ./include/sodium/private/common.h:58:21 @[ crypto_generichash/blake2b/ref/blake2b-compress-ref.c:74:258 ]
	rolq	%r8
.Ltmp183:
	#DEBUG_VALUE: blake2b_compress_ref:v <- [DW_OP_LLVM_fragment 256 64] $r8
	.loc	3 74 318                        # crypto_generichash/blake2b/ref/blake2b-compress-ref.c:74:318
	addq	-88(%rsp), %r11                 # 8-byte Folded Reload
.Ltmp184:
	.loc	3 74 310 is_stmt 0              # crypto_generichash/blake2b/ref/blake2b-compress-ref.c:74:310
	addq	%r12, %r11
.Ltmp185:
	#DEBUG_VALUE: blake2b_compress_ref:v <- [DW_OP_LLVM_fragment 64 64] $r11
	.loc	3 74 374                        # crypto_generichash/blake2b/ref/blake2b-compress-ref.c:74:374
	xorq	%r11, %rdi
.Ltmp186:
	#DEBUG_VALUE: rotr64:x <- $rdi
	#DEBUG_VALUE: rotr64:b <- 32
	.loc	4 58 21 is_stmt 1               # ./include/sodium/private/common.h:58:21 @[ crypto_generichash/blake2b/ref/blake2b-compress-ref.c:74:360 ]
	rolq	$32, %rdi
.Ltmp187:
	#DEBUG_VALUE: blake2b_compress_ref:v <- [DW_OP_LLVM_fragment 832 64] $rdi
	.loc	4 0 21 is_stmt 0                # ./include/sodium/private/common.h:0:21
	movq	-128(%rsp), %rax                # 8-byte Reload
.Ltmp188:
	.loc	3 74 395 is_stmt 1              # crypto_generichash/blake2b/ref/blake2b-compress-ref.c:74:395
	addq	%rdi, %rax
.Ltmp189:
	#DEBUG_VALUE: blake2b_compress_ref:v <- [DW_OP_LLVM_fragment 576 64] $rax
	.loc	3 74 425 is_stmt 0              # crypto_generichash/blake2b/ref/blake2b-compress-ref.c:74:425
	xorq	%rax, %r12
.Ltmp190:
	#DEBUG_VALUE: rotr64:x <- $r12
	#DEBUG_VALUE: rotr64:b <- 24
	.loc	4 58 21 is_stmt 1               # ./include/sodium/private/common.h:58:21 @[ crypto_generichash/blake2b/ref/blake2b-compress-ref.c:74:412 ]
	rolq	$40, %r12
.Ltmp191:
	#DEBUG_VALUE: blake2b_compress_ref:v <- [DW_OP_LLVM_fragment 320 64] $r12
	.loc	3 74 454                        # crypto_generichash/blake2b/ref/blake2b-compress-ref.c:74:454
	addq	-64(%rsp), %r11                 # 8-byte Folded Reload
.Ltmp192:
	.loc	3 74 446 is_stmt 0              # crypto_generichash/blake2b/ref/blake2b-compress-ref.c:74:446
	addq	%r12, %r11
.Ltmp193:
	#DEBUG_VALUE: blake2b_compress_ref:v <- [DW_OP_LLVM_fragment 64 64] $r11
	.loc	3 74 510                        # crypto_generichash/blake2b/ref/blake2b-compress-ref.c:74:510
	xorq	%r11, %rdi
.Ltmp194:
	#DEBUG_VALUE: rotr64:x <- $rdi
	#DEBUG_VALUE: rotr64:b <- 16
	.loc	4 58 21 is_stmt 1               # ./include/sodium/private/common.h:58:21 @[ crypto_generichash/blake2b/ref/blake2b-compress-ref.c:74:496 ]
	rolq	$48, %rdi
.Ltmp195:
	#DEBUG_VALUE: blake2b_compress_ref:v <- [DW_OP_LLVM_fragment 832 64] $rdi
	.loc	3 74 531                        # crypto_generichash/blake2b/ref/blake2b-compress-ref.c:74:531
	addq	%rdi, %rax
.Ltmp196:
	#DEBUG_VALUE: blake2b_compress_ref:v <- [DW_OP_LLVM_fragment 576 64] $rax
	.loc	3 0 531 is_stmt 0               # crypto_generichash/blake2b/ref/blake2b-compress-ref.c:0:531
	movq	%rax, -128(%rsp)                # 8-byte Spill
.Ltmp197:
	#DEBUG_VALUE: blake2b_compress_ref:v <- [DW_OP_constu 128, DW_OP_minus, DW_OP_deref, DW_OP_LLVM_fragment 576 64] $rsp
	.loc	3 74 561                        # crypto_generichash/blake2b/ref/blake2b-compress-ref.c:74:561
	xorq	%rax, %r12
.Ltmp198:
	#DEBUG_VALUE: rotr64:x <- $r12
	#DEBUG_VALUE: rotr64:b <- 63
	.loc	4 58 21 is_stmt 1               # ./include/sodium/private/common.h:58:21 @[ crypto_generichash/blake2b/ref/blake2b-compress-ref.c:74:548 ]
	rolq	%r12
.Ltmp199:
	#DEBUG_VALUE: blake2b_compress_ref:v <- [DW_OP_LLVM_fragment 320 64] $r12
	.loc	3 74 608                        # crypto_generichash/blake2b/ref/blake2b-compress-ref.c:74:608
	addq	-56(%rsp), %r13                 # 8-byte Folded Reload
.Ltmp200:
	.loc	3 74 600 is_stmt 0              # crypto_generichash/blake2b/ref/blake2b-compress-ref.c:74:600
	addq	%rbx, %r13
.Ltmp201:
	#DEBUG_VALUE: blake2b_compress_ref:v <- [DW_OP_LLVM_fragment 128 64] $r13
	.loc	3 74 664                        # crypto_generichash/blake2b/ref/blake2b-compress-ref.c:74:664
	xorq	%r13, %rsi
.Ltmp202:
	#DEBUG_VALUE: rotr64:x <- $rsi
	#DEBUG_VALUE: rotr64:b <- 32
	.loc	4 58 21 is_stmt 1               # ./include/sodium/private/common.h:58:21 @[ crypto_generichash/blake2b/ref/blake2b-compress-ref.c:74:650 ]
	rolq	$32, %rsi
.Ltmp203:
	#DEBUG_VALUE: blake2b_compress_ref:v <- [DW_OP_LLVM_fragment 896 64] $rsi
	.loc	4 0 21 is_stmt 0                # ./include/sodium/private/common.h:0:21
	movq	-112(%rsp), %rax                # 8-byte Reload
.Ltmp204:
	.loc	3 74 686 is_stmt 1              # crypto_generichash/blake2b/ref/blake2b-compress-ref.c:74:686
	addq	%rsi, %rax
.Ltmp205:
	#DEBUG_VALUE: blake2b_compress_ref:v <- [DW_OP_LLVM_fragment 640 64] $rax
	.loc	3 74 716 is_stmt 0              # crypto_generichash/blake2b/ref/blake2b-compress-ref.c:74:716
	xorq	%rax, %rbx
.Ltmp206:
	#DEBUG_VALUE: rotr64:x <- $rbx
	#DEBUG_VALUE: rotr64:b <- 24
	.loc	4 58 21 is_stmt 1               # ./include/sodium/private/common.h:58:21 @[ crypto_generichash/blake2b/ref/blake2b-compress-ref.c:74:703 ]
	rolq	$40, %rbx
.Ltmp207:
	#DEBUG_VALUE: blake2b_compress_ref:v <- [DW_OP_LLVM_fragment 384 64] $rbx
	.loc	3 74 746                        # crypto_generichash/blake2b/ref/blake2b-compress-ref.c:74:746
	addq	%r14, %r13
.Ltmp208:
	.loc	3 74 738 is_stmt 0              # crypto_generichash/blake2b/ref/blake2b-compress-ref.c:74:738
	addq	%rbx, %r13
.Ltmp209:
	#DEBUG_VALUE: blake2b_compress_ref:v <- [DW_OP_LLVM_fragment 128 64] $r13
	.loc	3 74 802                        # crypto_generichash/blake2b/ref/blake2b-compress-ref.c:74:802
	xorq	%r13, %rsi
.Ltmp210:
	#DEBUG_VALUE: rotr64:x <- $rsi
	#DEBUG_VALUE: rotr64:b <- 16
	.loc	4 58 21 is_stmt 1               # ./include/sodium/private/common.h:58:21 @[ crypto_generichash/blake2b/ref/blake2b-compress-ref.c:74:788 ]
	rolq	$48, %rsi
.Ltmp211:
	#DEBUG_VALUE: blake2b_compress_ref:v <- [DW_OP_LLVM_fragment 896 64] $rsi
	.loc	3 74 824                        # crypto_generichash/blake2b/ref/blake2b-compress-ref.c:74:824
	addq	%rsi, %rax
.Ltmp212:
	#DEBUG_VALUE: blake2b_compress_ref:v <- [DW_OP_LLVM_fragment 640 64] $rax
	.loc	3 74 854 is_stmt 0              # crypto_generichash/blake2b/ref/blake2b-compress-ref.c:74:854
	xorq	%rax, %rbx
.Ltmp213:
	#DEBUG_VALUE: rotr64:x <- $rbx
	#DEBUG_VALUE: rotr64:b <- 63
	.loc	4 58 21 is_stmt 1               # ./include/sodium/private/common.h:58:21 @[ crypto_generichash/blake2b/ref/blake2b-compress-ref.c:74:841 ]
	rolq	%rbx
.Ltmp214:
	#DEBUG_VALUE: blake2b_compress_ref:v <- [DW_OP_LLVM_fragment 384 64] $rbx
	.loc	3 74 902                        # crypto_generichash/blake2b/ref/blake2b-compress-ref.c:74:902
	addq	-40(%rsp), %rdx                 # 8-byte Folded Reload
.Ltmp215:
	.loc	3 74 894 is_stmt 0              # crypto_generichash/blake2b/ref/blake2b-compress-ref.c:74:894
	addq	%r15, %rdx
.Ltmp216:
	#DEBUG_VALUE: blake2b_compress_ref:v <- [DW_OP_LLVM_fragment 192 64] $rdx
	.loc	3 74 958                        # crypto_generichash/blake2b/ref/blake2b-compress-ref.c:74:958
	xorq	%rdx, %rbp
.Ltmp217:
	#DEBUG_VALUE: rotr64:x <- $rbp
	#DEBUG_VALUE: rotr64:b <- 32
	.loc	4 58 21 is_stmt 1               # ./include/sodium/private/common.h:58:21 @[ crypto_generichash/blake2b/ref/blake2b-compress-ref.c:74:944 ]
	rolq	$32, %rbp
.Ltmp218:
	#DEBUG_VALUE: blake2b_compress_ref:v <- [DW_OP_LLVM_fragment 960 64] $rbp
	.loc	4 0 21 is_stmt 0                # ./include/sodium/private/common.h:0:21
	movq	24(%rsp), %r14                  # 8-byte Reload
.Ltmp219:
	.loc	3 74 980 is_stmt 1              # crypto_generichash/blake2b/ref/blake2b-compress-ref.c:74:980
	addq	%rbp, %r14
.Ltmp220:
	#DEBUG_VALUE: blake2b_compress_ref:v <- [DW_OP_LLVM_fragment 704 64] $r14
	.loc	3 74 1010 is_stmt 0             # crypto_generichash/blake2b/ref/blake2b-compress-ref.c:74:1010
	xorq	%r14, %r15
.Ltmp221:
	#DEBUG_VALUE: rotr64:x <- $r15
	#DEBUG_VALUE: rotr64:b <- 24
	.loc	4 58 21 is_stmt 1               # ./include/sodium/private/common.h:58:21 @[ crypto_generichash/blake2b/ref/blake2b-compress-ref.c:74:997 ]
	rolq	$40, %r15
.Ltmp222:
	#DEBUG_VALUE: blake2b_compress_ref:v <- [DW_OP_LLVM_fragment 448 64] $r15
	.loc	3 74 1040                       # crypto_generichash/blake2b/ref/blake2b-compress-ref.c:74:1040
	addq	-48(%rsp), %rdx                 # 8-byte Folded Reload
.Ltmp223:
	.loc	3 74 1032 is_stmt 0             # crypto_generichash/blake2b/ref/blake2b-compress-ref.c:74:1032
	addq	%r15, %rdx
.Ltmp224:
	#DEBUG_VALUE: blake2b_compress_ref:v <- [DW_OP_LLVM_fragment 192 64] $rdx
	.loc	3 74 1096                       # crypto_generichash/blake2b/ref/blake2b-compress-ref.c:74:1096
	xorq	%rdx, %rbp
.Ltmp225:
	#DEBUG_VALUE: rotr64:x <- $rbp
	#DEBUG_VALUE: rotr64:b <- 16
	.loc	4 58 21 is_stmt 1               # ./include/sodium/private/common.h:58:21 @[ crypto_generichash/blake2b/ref/blake2b-compress-ref.c:74:1082 ]
	rolq	$48, %rbp
.Ltmp226:
	#DEBUG_VALUE: blake2b_compress_ref:v <- [DW_OP_LLVM_fragment 960 64] $rbp
	.loc	3 74 1118                       # crypto_generichash/blake2b/ref/blake2b-compress-ref.c:74:1118
	addq	%rbp, %r14
.Ltmp227:
	#DEBUG_VALUE: blake2b_compress_ref:v <- [DW_OP_LLVM_fragment 704 64] $r14
	.loc	3 74 1148 is_stmt 0             # crypto_generichash/blake2b/ref/blake2b-compress-ref.c:74:1148
	xorq	%r14, %r15
.Ltmp228:
	#DEBUG_VALUE: rotr64:x <- $r15
	#DEBUG_VALUE: rotr64:b <- 63
	.loc	4 58 21 is_stmt 1               # ./include/sodium/private/common.h:58:21 @[ crypto_generichash/blake2b/ref/blake2b-compress-ref.c:74:1135 ]
	rolq	%r15
.Ltmp229:
	#DEBUG_VALUE: blake2b_compress_ref:v <- [DW_OP_LLVM_fragment 448 64] $r15
	.loc	3 74 1196                       # crypto_generichash/blake2b/ref/blake2b-compress-ref.c:74:1196
	addq	-24(%rsp), %r9                  # 8-byte Folded Reload
.Ltmp230:
	.loc	3 74 1188 is_stmt 0             # crypto_generichash/blake2b/ref/blake2b-compress-ref.c:74:1188
	addq	%r12, %r9
.Ltmp231:
	#DEBUG_VALUE: blake2b_compress_ref:v <- [DW_OP_LLVM_fragment 0 64] $r9
	.loc	3 74 1252                       # crypto_generichash/blake2b/ref/blake2b-compress-ref.c:74:1252
	xorq	%r9, %rbp
.Ltmp232:
	#DEBUG_VALUE: rotr64:x <- $rbp
	#DEBUG_VALUE: rotr64:b <- 32
	.loc	4 58 21 is_stmt 1               # ./include/sodium/private/common.h:58:21 @[ crypto_generichash/blake2b/ref/blake2b-compress-ref.c:74:1238 ]
	rolq	$32, %rbp
.Ltmp233:
	#DEBUG_VALUE: blake2b_compress_ref:v <- [DW_OP_LLVM_fragment 960 64] $rbp
	.loc	3 74 1274                       # crypto_generichash/blake2b/ref/blake2b-compress-ref.c:74:1274
	addq	%rbp, %rax
.Ltmp234:
	#DEBUG_VALUE: blake2b_compress_ref:v <- [DW_OP_LLVM_fragment 640 64] $rax
	.loc	3 74 1304 is_stmt 0             # crypto_generichash/blake2b/ref/blake2b-compress-ref.c:74:1304
	xorq	%rax, %r12
.Ltmp235:
	#DEBUG_VALUE: rotr64:x <- $r12
	#DEBUG_VALUE: rotr64:b <- 24
	.loc	4 58 21 is_stmt 1               # ./include/sodium/private/common.h:58:21 @[ crypto_generichash/blake2b/ref/blake2b-compress-ref.c:74:1291 ]
	rolq	$40, %r12
.Ltmp236:
	#DEBUG_VALUE: blake2b_compress_ref:v <- [DW_OP_LLVM_fragment 320 64] $r12
	.loc	3 74 1334                       # crypto_generichash/blake2b/ref/blake2b-compress-ref.c:74:1334
	addq	-104(%rsp), %r9                 # 8-byte Folded Reload
.Ltmp237:
	.loc	3 74 1326 is_stmt 0             # crypto_generichash/blake2b/ref/blake2b-compress-ref.c:74:1326
	addq	%r12, %r9
.Ltmp238:
	#DEBUG_VALUE: blake2b_compress_ref:v <- [DW_OP_LLVM_fragment 0 64] $r9
	.loc	3 74 1390                       # crypto_generichash/blake2b/ref/blake2b-compress-ref.c:74:1390
	xorq	%r9, %rbp
.Ltmp239:
	#DEBUG_VALUE: rotr64:x <- $rbp
	#DEBUG_VALUE: rotr64:b <- 16
	.loc	4 58 21 is_stmt 1               # ./include/sodium/private/common.h:58:21 @[ crypto_generichash/blake2b/ref/blake2b-compress-ref.c:74:1376 ]
	rolq	$48, %rbp
.Ltmp240:
	#DEBUG_VALUE: blake2b_compress_ref:v <- [DW_OP_LLVM_fragment 960 64] $rbp
	.loc	3 74 1412                       # crypto_generichash/blake2b/ref/blake2b-compress-ref.c:74:1412
	addq	%rbp, %rax
.Ltmp241:
	#DEBUG_VALUE: blake2b_compress_ref:v <- [DW_OP_LLVM_fragment 640 64] $rax
	.loc	3 0 1412 is_stmt 0              # crypto_generichash/blake2b/ref/blake2b-compress-ref.c:0:1412
	movq	%rax, -112(%rsp)                # 8-byte Spill
.Ltmp242:
	#DEBUG_VALUE: blake2b_compress_ref:v <- [DW_OP_constu 112, DW_OP_minus, DW_OP_deref, DW_OP_LLVM_fragment 640 64] $rsp
	.loc	3 74 1442                       # crypto_generichash/blake2b/ref/blake2b-compress-ref.c:74:1442
	xorq	%rax, %r12
.Ltmp243:
	#DEBUG_VALUE: rotr64:x <- $r12
	#DEBUG_VALUE: rotr64:b <- 63
	.loc	4 58 21 is_stmt 1               # ./include/sodium/private/common.h:58:21 @[ crypto_generichash/blake2b/ref/blake2b-compress-ref.c:74:1429 ]
	rolq	%r12
.Ltmp244:
	#DEBUG_VALUE: blake2b_compress_ref:v <- [DW_OP_LLVM_fragment 320 64] $r12
	.loc	3 74 1490                       # crypto_generichash/blake2b/ref/blake2b-compress-ref.c:74:1490
	addq	16(%rsp), %r11                  # 8-byte Folded Reload
.Ltmp245:
	.loc	3 74 1482 is_stmt 0             # crypto_generichash/blake2b/ref/blake2b-compress-ref.c:74:1482
	addq	%rbx, %r11
.Ltmp246:
	#DEBUG_VALUE: blake2b_compress_ref:v <- [DW_OP_LLVM_fragment 64 64] $r11
	.loc	3 74 1546                       # crypto_generichash/blake2b/ref/blake2b-compress-ref.c:74:1546
	xorq	%r11, %rcx
.Ltmp247:
	#DEBUG_VALUE: rotr64:x <- $rcx
	#DEBUG_VALUE: rotr64:b <- 32
	.loc	4 58 21 is_stmt 1               # ./include/sodium/private/common.h:58:21 @[ crypto_generichash/blake2b/ref/blake2b-compress-ref.c:74:1532 ]
	rolq	$32, %rcx
.Ltmp248:
	#DEBUG_VALUE: blake2b_compress_ref:v <- [DW_OP_LLVM_fragment 768 64] $rcx
	.loc	3 74 1568                       # crypto_generichash/blake2b/ref/blake2b-compress-ref.c:74:1568
	addq	%rcx, %r14
.Ltmp249:
	#DEBUG_VALUE: blake2b_compress_ref:v <- [DW_OP_LLVM_fragment 704 64] $r14
	.loc	3 74 1598 is_stmt 0             # crypto_generichash/blake2b/ref/blake2b-compress-ref.c:74:1598
	xorq	%r14, %rbx
.Ltmp250:
	#DEBUG_VALUE: rotr64:x <- $rbx
	#DEBUG_VALUE: rotr64:b <- 24
	.loc	4 58 21 is_stmt 1               # ./include/sodium/private/common.h:58:21 @[ crypto_generichash/blake2b/ref/blake2b-compress-ref.c:74:1585 ]
	rolq	$40, %rbx
.Ltmp251:
	#DEBUG_VALUE: blake2b_compress_ref:v <- [DW_OP_LLVM_fragment 384 64] $rbx
	.loc	3 74 1628                       # crypto_generichash/blake2b/ref/blake2b-compress-ref.c:74:1628
	addq	-80(%rsp), %r11                 # 8-byte Folded Reload
.Ltmp252:
	.loc	3 74 1620 is_stmt 0             # crypto_generichash/blake2b/ref/blake2b-compress-ref.c:74:1620
	addq	%rbx, %r11
.Ltmp253:
	#DEBUG_VALUE: blake2b_compress_ref:v <- [DW_OP_LLVM_fragment 64 64] $r11
	.loc	3 74 1684                       # crypto_generichash/blake2b/ref/blake2b-compress-ref.c:74:1684
	xorq	%r11, %rcx
.Ltmp254:
	#DEBUG_VALUE: rotr64:x <- $rcx
	#DEBUG_VALUE: rotr64:b <- 16
	.loc	4 58 21 is_stmt 1               # ./include/sodium/private/common.h:58:21 @[ crypto_generichash/blake2b/ref/blake2b-compress-ref.c:74:1670 ]
	rolq	$48, %rcx
.Ltmp255:
	#DEBUG_VALUE: blake2b_compress_ref:v <- [DW_OP_LLVM_fragment 768 64] $rcx
	.loc	3 74 1706                       # crypto_generichash/blake2b/ref/blake2b-compress-ref.c:74:1706
	addq	%rcx, %r14
.Ltmp256:
	#DEBUG_VALUE: blake2b_compress_ref:v <- [DW_OP_LLVM_fragment 704 64] $r14
	.loc	3 74 1736 is_stmt 0             # crypto_generichash/blake2b/ref/blake2b-compress-ref.c:74:1736
	xorq	%r14, %rbx
.Ltmp257:
	#DEBUG_VALUE: rotr64:x <- $rbx
	#DEBUG_VALUE: rotr64:b <- 63
	.loc	4 58 21 is_stmt 1               # ./include/sodium/private/common.h:58:21 @[ crypto_generichash/blake2b/ref/blake2b-compress-ref.c:74:1723 ]
	rolq	%rbx
.Ltmp258:
	#DEBUG_VALUE: blake2b_compress_ref:v <- [DW_OP_LLVM_fragment 384 64] $rbx
	.loc	4 0 21 is_stmt 0                # ./include/sodium/private/common.h:0:21
	movq	8(%rsp), %r10                   # 8-byte Reload
.Ltmp259:
	.loc	3 74 1784 is_stmt 1             # crypto_generichash/blake2b/ref/blake2b-compress-ref.c:74:1784
	addq	%r10, %r13
.Ltmp260:
	.loc	3 74 1776 is_stmt 0             # crypto_generichash/blake2b/ref/blake2b-compress-ref.c:74:1776
	addq	%r15, %r13
.Ltmp261:
	#DEBUG_VALUE: blake2b_compress_ref:v <- [DW_OP_LLVM_fragment 128 64] $r13
	.loc	3 74 1840                       # crypto_generichash/blake2b/ref/blake2b-compress-ref.c:74:1840
	xorq	%r13, %rdi
.Ltmp262:
	#DEBUG_VALUE: rotr64:x <- $rdi
	#DEBUG_VALUE: rotr64:b <- 32
	.loc	4 58 21 is_stmt 1               # ./include/sodium/private/common.h:58:21 @[ crypto_generichash/blake2b/ref/blake2b-compress-ref.c:74:1826 ]
	rolq	$32, %rdi
.Ltmp263:
	#DEBUG_VALUE: blake2b_compress_ref:v <- [DW_OP_LLVM_fragment 832 64] $rdi
	.loc	4 0 21 is_stmt 0                # ./include/sodium/private/common.h:0:21
	movq	-120(%rsp), %rax                # 8-byte Reload
.Ltmp264:
	.loc	3 74 1861 is_stmt 1             # crypto_generichash/blake2b/ref/blake2b-compress-ref.c:74:1861
	addq	%rdi, %rax
.Ltmp265:
	#DEBUG_VALUE: blake2b_compress_ref:v <- [DW_OP_LLVM_fragment 512 64] $rax
	.loc	3 74 1891 is_stmt 0             # crypto_generichash/blake2b/ref/blake2b-compress-ref.c:74:1891
	xorq	%rax, %r15
.Ltmp266:
	#DEBUG_VALUE: rotr64:x <- $r15
	#DEBUG_VALUE: rotr64:b <- 24
	.loc	4 58 21 is_stmt 1               # ./include/sodium/private/common.h:58:21 @[ crypto_generichash/blake2b/ref/blake2b-compress-ref.c:74:1878 ]
	rolq	$40, %r15
.Ltmp267:
	#DEBUG_VALUE: blake2b_compress_ref:v <- [DW_OP_LLVM_fragment 448 64] $r15
	.loc	3 74 1920                       # crypto_generichash/blake2b/ref/blake2b-compress-ref.c:74:1920
	addq	-16(%rsp), %r13                 # 8-byte Folded Reload
.Ltmp268:
	.loc	3 74 1912 is_stmt 0             # crypto_generichash/blake2b/ref/blake2b-compress-ref.c:74:1912
	addq	%r15, %r13
.Ltmp269:
	#DEBUG_VALUE: blake2b_compress_ref:v <- [DW_OP_LLVM_fragment 128 64] $r13
	.loc	3 74 1976                       # crypto_generichash/blake2b/ref/blake2b-compress-ref.c:74:1976
	xorq	%r13, %rdi
.Ltmp270:
	#DEBUG_VALUE: rotr64:x <- $rdi
	#DEBUG_VALUE: rotr64:b <- 16
	.loc	4 58 21 is_stmt 1               # ./include/sodium/private/common.h:58:21 @[ crypto_generichash/blake2b/ref/blake2b-compress-ref.c:74:1962 ]
	rolq	$48, %rdi
.Ltmp271:
	#DEBUG_VALUE: blake2b_compress_ref:v <- [DW_OP_LLVM_fragment 832 64] $rdi
	.loc	3 74 1997                       # crypto_generichash/blake2b/ref/blake2b-compress-ref.c:74:1997
	addq	%rdi, %rax
.Ltmp272:
	#DEBUG_VALUE: blake2b_compress_ref:v <- [DW_OP_LLVM_fragment 512 64] $rax
	.loc	3 0 1997 is_stmt 0              # crypto_generichash/blake2b/ref/blake2b-compress-ref.c:0:1997
	movq	%rax, -120(%rsp)                # 8-byte Spill
.Ltmp273:
	#DEBUG_VALUE: blake2b_compress_ref:v <- [DW_OP_constu 120, DW_OP_minus, DW_OP_deref, DW_OP_LLVM_fragment 512 64] $rsp
	.loc	3 74 2027                       # crypto_generichash/blake2b/ref/blake2b-compress-ref.c:74:2027
	xorq	%rax, %r15
.Ltmp274:
	#DEBUG_VALUE: rotr64:x <- $r15
	#DEBUG_VALUE: rotr64:b <- 63
	.loc	4 58 21 is_stmt 1               # ./include/sodium/private/common.h:58:21 @[ crypto_generichash/blake2b/ref/blake2b-compress-ref.c:74:2014 ]
	rolq	%r15
.Ltmp275:
	#DEBUG_VALUE: blake2b_compress_ref:v <- [DW_OP_LLVM_fragment 448 64] $r15
	.loc	3 74 2074                       # crypto_generichash/blake2b/ref/blake2b-compress-ref.c:74:2074
	addq	-96(%rsp), %rdx                 # 8-byte Folded Reload
.Ltmp276:
	.loc	3 74 2066 is_stmt 0             # crypto_generichash/blake2b/ref/blake2b-compress-ref.c:74:2066
	addq	%r8, %rdx
.Ltmp277:
	#DEBUG_VALUE: blake2b_compress_ref:v <- [DW_OP_LLVM_fragment 192 64] $rdx
	.loc	3 74 2130                       # crypto_generichash/blake2b/ref/blake2b-compress-ref.c:74:2130
	xorq	%rdx, %rsi
.Ltmp278:
	#DEBUG_VALUE: rotr64:x <- $rsi
	#DEBUG_VALUE: rotr64:b <- 32
	.loc	4 58 21 is_stmt 1               # ./include/sodium/private/common.h:58:21 @[ crypto_generichash/blake2b/ref/blake2b-compress-ref.c:74:2116 ]
	rolq	$32, %rsi
.Ltmp279:
	#DEBUG_VALUE: blake2b_compress_ref:v <- [DW_OP_LLVM_fragment 896 64] $rsi
	.loc	4 0 21 is_stmt 0                # ./include/sodium/private/common.h:0:21
	movq	-128(%rsp), %rax                # 8-byte Reload
.Ltmp280:
	.loc	3 74 2151 is_stmt 1             # crypto_generichash/blake2b/ref/blake2b-compress-ref.c:74:2151
	addq	%rsi, %rax
.Ltmp281:
	#DEBUG_VALUE: blake2b_compress_ref:v <- [DW_OP_LLVM_fragment 576 64] $rax
	.loc	3 74 2181 is_stmt 0             # crypto_generichash/blake2b/ref/blake2b-compress-ref.c:74:2181
	xorq	%rax, %r8
.Ltmp282:
	#DEBUG_VALUE: rotr64:x <- $r8
	#DEBUG_VALUE: rotr64:b <- 24
	.loc	4 58 21 is_stmt 1               # ./include/sodium/private/common.h:58:21 @[ crypto_generichash/blake2b/ref/blake2b-compress-ref.c:74:2168 ]
	rolq	$40, %r8
.Ltmp283:
	#DEBUG_VALUE: blake2b_compress_ref:v <- [DW_OP_LLVM_fragment 256 64] $r8
	.loc	3 74 2210                       # crypto_generichash/blake2b/ref/blake2b-compress-ref.c:74:2210
	addq	-72(%rsp), %rdx                 # 8-byte Folded Reload
.Ltmp284:
	.loc	3 74 2202 is_stmt 0             # crypto_generichash/blake2b/ref/blake2b-compress-ref.c:74:2202
	addq	%r8, %rdx
.Ltmp285:
	#DEBUG_VALUE: blake2b_compress_ref:v <- [DW_OP_LLVM_fragment 192 64] $rdx
	.loc	3 74 2266                       # crypto_generichash/blake2b/ref/blake2b-compress-ref.c:74:2266
	xorq	%rdx, %rsi
.Ltmp286:
	#DEBUG_VALUE: rotr64:x <- $rsi
	#DEBUG_VALUE: rotr64:b <- 16
	.loc	4 58 21 is_stmt 1               # ./include/sodium/private/common.h:58:21 @[ crypto_generichash/blake2b/ref/blake2b-compress-ref.c:74:2252 ]
	rolq	$48, %rsi
.Ltmp287:
	#DEBUG_VALUE: blake2b_compress_ref:v <- [DW_OP_LLVM_fragment 896 64] $rsi
	.loc	3 74 2287                       # crypto_generichash/blake2b/ref/blake2b-compress-ref.c:74:2287
	addq	%rsi, %rax
.Ltmp288:
	#DEBUG_VALUE: blake2b_compress_ref:v <- [DW_OP_LLVM_fragment 576 64] $rax
	.loc	3 0 2287 is_stmt 0              # crypto_generichash/blake2b/ref/blake2b-compress-ref.c:0:2287
	movq	%rax, -128(%rsp)                # 8-byte Spill
.Ltmp289:
	#DEBUG_VALUE: blake2b_compress_ref:v <- [DW_OP_constu 128, DW_OP_minus, DW_OP_deref, DW_OP_LLVM_fragment 576 64] $rsp
	.loc	3 74 2317                       # crypto_generichash/blake2b/ref/blake2b-compress-ref.c:74:2317
	xorq	%rax, %r8
.Ltmp290:
	#DEBUG_VALUE: rotr64:x <- $r8
	#DEBUG_VALUE: rotr64:b <- 63
	.loc	4 58 21 is_stmt 1               # ./include/sodium/private/common.h:58:21 @[ crypto_generichash/blake2b/ref/blake2b-compress-ref.c:74:2304 ]
	rolq	%r8
.Ltmp291:
	#DEBUG_VALUE: blake2b_compress_ref:v <- [DW_OP_LLVM_fragment 256 64] $r8
	.loc	3 75 28                         # crypto_generichash/blake2b/ref/blake2b-compress-ref.c:75:28
	addq	%r10, %r9
.Ltmp292:
	.loc	3 75 20 is_stmt 0               # crypto_generichash/blake2b/ref/blake2b-compress-ref.c:75:20
	addq	%r8, %r9
.Ltmp293:
	#DEBUG_VALUE: blake2b_compress_ref:v <- [DW_OP_LLVM_fragment 0 64] $r9
	.loc	3 75 84                         # crypto_generichash/blake2b/ref/blake2b-compress-ref.c:75:84
	xorq	%r9, %rcx
.Ltmp294:
	#DEBUG_VALUE: rotr64:x <- $rcx
	#DEBUG_VALUE: rotr64:b <- 32
	.loc	4 58 21 is_stmt 1               # ./include/sodium/private/common.h:58:21 @[ crypto_generichash/blake2b/ref/blake2b-compress-ref.c:75:70 ]
	rolq	$32, %rcx
.Ltmp295:
	#DEBUG_VALUE: blake2b_compress_ref:v <- [DW_OP_LLVM_fragment 768 64] $rcx
	.loc	4 0 21 is_stmt 0                # ./include/sodium/private/common.h:0:21
	movq	-120(%rsp), %rax                # 8-byte Reload
.Ltmp296:
	.loc	3 75 105 is_stmt 1              # crypto_generichash/blake2b/ref/blake2b-compress-ref.c:75:105
	addq	%rcx, %rax
.Ltmp297:
	#DEBUG_VALUE: blake2b_compress_ref:v <- [DW_OP_LLVM_fragment 512 64] $rax
	.loc	3 75 135 is_stmt 0              # crypto_generichash/blake2b/ref/blake2b-compress-ref.c:75:135
	xorq	%rax, %r8
.Ltmp298:
	#DEBUG_VALUE: rotr64:x <- $r8
	#DEBUG_VALUE: rotr64:b <- 24
	.loc	4 58 21 is_stmt 1               # ./include/sodium/private/common.h:58:21 @[ crypto_generichash/blake2b/ref/blake2b-compress-ref.c:75:122 ]
	rolq	$40, %r8
.Ltmp299:
	#DEBUG_VALUE: blake2b_compress_ref:v <- [DW_OP_LLVM_fragment 256 64] $r8
	.loc	3 75 164                        # crypto_generichash/blake2b/ref/blake2b-compress-ref.c:75:164
	addq	-64(%rsp), %r9                  # 8-byte Folded Reload
.Ltmp300:
	.loc	3 75 156 is_stmt 0              # crypto_generichash/blake2b/ref/blake2b-compress-ref.c:75:156
	addq	%r8, %r9
.Ltmp301:
	#DEBUG_VALUE: blake2b_compress_ref:v <- [DW_OP_LLVM_fragment 0 64] $r9
	.loc	3 75 220                        # crypto_generichash/blake2b/ref/blake2b-compress-ref.c:75:220
	xorq	%r9, %rcx
.Ltmp302:
	#DEBUG_VALUE: rotr64:x <- $rcx
	#DEBUG_VALUE: rotr64:b <- 16
	.loc	4 58 21 is_stmt 1               # ./include/sodium/private/common.h:58:21 @[ crypto_generichash/blake2b/ref/blake2b-compress-ref.c:75:206 ]
	rolq	$48, %rcx
.Ltmp303:
	#DEBUG_VALUE: blake2b_compress_ref:v <- [DW_OP_LLVM_fragment 768 64] $rcx
	.loc	3 75 241                        # crypto_generichash/blake2b/ref/blake2b-compress-ref.c:75:241
	addq	%rcx, %rax
.Ltmp304:
	#DEBUG_VALUE: blake2b_compress_ref:v <- [DW_OP_LLVM_fragment 512 64] $rax
	.loc	3 0 241 is_stmt 0               # crypto_generichash/blake2b/ref/blake2b-compress-ref.c:0:241
	movq	%rax, -120(%rsp)                # 8-byte Spill
.Ltmp305:
	#DEBUG_VALUE: blake2b_compress_ref:v <- [DW_OP_constu 120, DW_OP_minus, DW_OP_deref, DW_OP_LLVM_fragment 512 64] $rsp
	.loc	3 75 271                        # crypto_generichash/blake2b/ref/blake2b-compress-ref.c:75:271
	xorq	%rax, %r8
.Ltmp306:
	#DEBUG_VALUE: rotr64:x <- $r8
	#DEBUG_VALUE: rotr64:b <- 63
	.loc	4 58 21 is_stmt 1               # ./include/sodium/private/common.h:58:21 @[ crypto_generichash/blake2b/ref/blake2b-compress-ref.c:75:258 ]
	rolq	%r8
.Ltmp307:
	#DEBUG_VALUE: blake2b_compress_ref:v <- [DW_OP_LLVM_fragment 256 64] $r8
	.loc	3 75 318                        # crypto_generichash/blake2b/ref/blake2b-compress-ref.c:75:318
	addq	-104(%rsp), %r11                # 8-byte Folded Reload
.Ltmp308:
	.loc	3 75 310 is_stmt 0              # crypto_generichash/blake2b/ref/blake2b-compress-ref.c:75:310
	addq	%r12, %r11
.Ltmp309:
	#DEBUG_VALUE: blake2b_compress_ref:v <- [DW_OP_LLVM_fragment 64 64] $r11
	.loc	3 75 374                        # crypto_generichash/blake2b/ref/blake2b-compress-ref.c:75:374
	xorq	%r11, %rdi
.Ltmp310:
	#DEBUG_VALUE: rotr64:x <- $rdi
	#DEBUG_VALUE: rotr64:b <- 32
	.loc	4 58 21 is_stmt 1               # ./include/sodium/private/common.h:58:21 @[ crypto_generichash/blake2b/ref/blake2b-compress-ref.c:75:360 ]
	rolq	$32, %rdi
.Ltmp311:
	#DEBUG_VALUE: blake2b_compress_ref:v <- [DW_OP_LLVM_fragment 832 64] $rdi
	.loc	4 0 21 is_stmt 0                # ./include/sodium/private/common.h:0:21
	movq	-128(%rsp), %r10                # 8-byte Reload
.Ltmp312:
	.loc	3 75 395 is_stmt 1              # crypto_generichash/blake2b/ref/blake2b-compress-ref.c:75:395
	addq	%rdi, %r10
.Ltmp313:
	#DEBUG_VALUE: blake2b_compress_ref:block <- [DW_OP_LLVM_entry_value 1] $rsi
	#DEBUG_VALUE: blake2b_compress_ref:v <- [DW_OP_LLVM_fragment 576 64] $r10
	.loc	3 75 425 is_stmt 0              # crypto_generichash/blake2b/ref/blake2b-compress-ref.c:75:425
	xorq	%r10, %r12
.Ltmp314:
	#DEBUG_VALUE: rotr64:x <- $r12
	#DEBUG_VALUE: rotr64:b <- 24
	.loc	4 58 21 is_stmt 1               # ./include/sodium/private/common.h:58:21 @[ crypto_generichash/blake2b/ref/blake2b-compress-ref.c:75:412 ]
	rolq	$40, %r12
.Ltmp315:
	#DEBUG_VALUE: blake2b_compress_ref:v <- [DW_OP_LLVM_fragment 320 64] $r12
	.loc	3 75 454                        # crypto_generichash/blake2b/ref/blake2b-compress-ref.c:75:454
	addq	16(%rsp), %r11                  # 8-byte Folded Reload
.Ltmp316:
	.loc	3 75 446 is_stmt 0              # crypto_generichash/blake2b/ref/blake2b-compress-ref.c:75:446
	addq	%r12, %r11
.Ltmp317:
	#DEBUG_VALUE: blake2b_compress_ref:v <- [DW_OP_LLVM_fragment 64 64] $r11
	.loc	3 75 510                        # crypto_generichash/blake2b/ref/blake2b-compress-ref.c:75:510
	xorq	%r11, %rdi
.Ltmp318:
	#DEBUG_VALUE: rotr64:x <- $rdi
	#DEBUG_VALUE: rotr64:b <- 16
	.loc	4 58 21 is_stmt 1               # ./include/sodium/private/common.h:58:21 @[ crypto_generichash/blake2b/ref/blake2b-compress-ref.c:75:496 ]
	rolq	$48, %rdi
.Ltmp319:
	#DEBUG_VALUE: blake2b_compress_ref:v <- [DW_OP_LLVM_fragment 832 64] $rdi
	.loc	3 75 531                        # crypto_generichash/blake2b/ref/blake2b-compress-ref.c:75:531
	addq	%rdi, %r10
.Ltmp320:
	#DEBUG_VALUE: blake2b_compress_ref:v <- [DW_OP_LLVM_fragment 576 64] $r10
	.loc	3 0 531 is_stmt 0               # crypto_generichash/blake2b/ref/blake2b-compress-ref.c:0:531
	movq	%r10, -128(%rsp)                # 8-byte Spill
.Ltmp321:
	#DEBUG_VALUE: blake2b_compress_ref:v <- [DW_OP_constu 128, DW_OP_minus, DW_OP_deref, DW_OP_LLVM_fragment 576 64] $rsp
	.loc	3 75 561                        # crypto_generichash/blake2b/ref/blake2b-compress-ref.c:75:561
	xorq	%r10, %r12
.Ltmp322:
	#DEBUG_VALUE: rotr64:x <- $r12
	#DEBUG_VALUE: rotr64:b <- 63
	.loc	4 58 21 is_stmt 1               # ./include/sodium/private/common.h:58:21 @[ crypto_generichash/blake2b/ref/blake2b-compress-ref.c:75:548 ]
	rolq	%r12
.Ltmp323:
	#DEBUG_VALUE: blake2b_compress_ref:v <- [DW_OP_LLVM_fragment 320 64] $r12
	.loc	3 75 608                        # crypto_generichash/blake2b/ref/blake2b-compress-ref.c:75:608
	addq	-96(%rsp), %r13                 # 8-byte Folded Reload
.Ltmp324:
	.loc	3 75 600 is_stmt 0              # crypto_generichash/blake2b/ref/blake2b-compress-ref.c:75:600
	addq	%rbx, %r13
.Ltmp325:
	#DEBUG_VALUE: blake2b_compress_ref:v <- [DW_OP_LLVM_fragment 128 64] $r13
	.loc	3 75 664                        # crypto_generichash/blake2b/ref/blake2b-compress-ref.c:75:664
	xorq	%r13, %rsi
.Ltmp326:
	#DEBUG_VALUE: rotr64:x <- $rsi
	#DEBUG_VALUE: rotr64:b <- 32
	.loc	4 58 21 is_stmt 1               # ./include/sodium/private/common.h:58:21 @[ crypto_generichash/blake2b/ref/blake2b-compress-ref.c:75:650 ]
	rolq	$32, %rsi
.Ltmp327:
	#DEBUG_VALUE: blake2b_compress_ref:v <- [DW_OP_LLVM_fragment 896 64] $rsi
	.loc	4 0 21 is_stmt 0                # ./include/sodium/private/common.h:0:21
	movq	-112(%rsp), %rax                # 8-byte Reload
.Ltmp328:
	.loc	3 75 686 is_stmt 1              # crypto_generichash/blake2b/ref/blake2b-compress-ref.c:75:686
	addq	%rsi, %rax
.Ltmp329:
	#DEBUG_VALUE: blake2b_compress_ref:v <- [DW_OP_LLVM_fragment 640 64] $rax
	.loc	3 75 716 is_stmt 0              # crypto_generichash/blake2b/ref/blake2b-compress-ref.c:75:716
	xorq	%rax, %rbx
.Ltmp330:
	#DEBUG_VALUE: rotr64:x <- $rbx
	#DEBUG_VALUE: rotr64:b <- 24
	.loc	4 58 21 is_stmt 1               # ./include/sodium/private/common.h:58:21 @[ crypto_generichash/blake2b/ref/blake2b-compress-ref.c:75:703 ]
	rolq	$40, %rbx
.Ltmp331:
	#DEBUG_VALUE: blake2b_compress_ref:v <- [DW_OP_LLVM_fragment 384 64] $rbx
	.loc	3 75 746                        # crypto_generichash/blake2b/ref/blake2b-compress-ref.c:75:746
	addq	-80(%rsp), %r13                 # 8-byte Folded Reload
.Ltmp332:
	.loc	3 75 738 is_stmt 0              # crypto_generichash/blake2b/ref/blake2b-compress-ref.c:75:738
	addq	%rbx, %r13
.Ltmp333:
	#DEBUG_VALUE: blake2b_compress_ref:v <- [DW_OP_LLVM_fragment 128 64] $r13
	.loc	3 75 802                        # crypto_generichash/blake2b/ref/blake2b-compress-ref.c:75:802
	xorq	%r13, %rsi
.Ltmp334:
	#DEBUG_VALUE: rotr64:x <- $rsi
	#DEBUG_VALUE: rotr64:b <- 16
	.loc	4 58 21 is_stmt 1               # ./include/sodium/private/common.h:58:21 @[ crypto_generichash/blake2b/ref/blake2b-compress-ref.c:75:788 ]
	rolq	$48, %rsi
.Ltmp335:
	#DEBUG_VALUE: blake2b_compress_ref:v <- [DW_OP_LLVM_fragment 896 64] $rsi
	.loc	3 75 824                        # crypto_generichash/blake2b/ref/blake2b-compress-ref.c:75:824
	addq	%rsi, %rax
.Ltmp336:
	#DEBUG_VALUE: blake2b_compress_ref:v <- [DW_OP_LLVM_fragment 640 64] $rax
	.loc	3 75 854 is_stmt 0              # crypto_generichash/blake2b/ref/blake2b-compress-ref.c:75:854
	xorq	%rax, %rbx
.Ltmp337:
	#DEBUG_VALUE: rotr64:x <- $rbx
	#DEBUG_VALUE: rotr64:b <- 63
	.loc	4 58 21 is_stmt 1               # ./include/sodium/private/common.h:58:21 @[ crypto_generichash/blake2b/ref/blake2b-compress-ref.c:75:841 ]
	rolq	%rbx
.Ltmp338:
	#DEBUG_VALUE: blake2b_compress_ref:v <- [DW_OP_LLVM_fragment 384 64] $rbx
	.loc	3 75 902                        # crypto_generichash/blake2b/ref/blake2b-compress-ref.c:75:902
	addq	-32(%rsp), %rdx                 # 8-byte Folded Reload
.Ltmp339:
	.loc	3 75 894 is_stmt 0              # crypto_generichash/blake2b/ref/blake2b-compress-ref.c:75:894
	addq	%r15, %rdx
.Ltmp340:
	#DEBUG_VALUE: blake2b_compress_ref:v <- [DW_OP_LLVM_fragment 192 64] $rdx
	.loc	3 75 958                        # crypto_generichash/blake2b/ref/blake2b-compress-ref.c:75:958
	xorq	%rdx, %rbp
.Ltmp341:
	#DEBUG_VALUE: rotr64:x <- $rbp
	#DEBUG_VALUE: rotr64:b <- 32
	.loc	4 58 21 is_stmt 1               # ./include/sodium/private/common.h:58:21 @[ crypto_generichash/blake2b/ref/blake2b-compress-ref.c:75:944 ]
	rolq	$32, %rbp
.Ltmp342:
	#DEBUG_VALUE: blake2b_compress_ref:v <- [DW_OP_LLVM_fragment 960 64] $rbp
	.loc	3 75 980                        # crypto_generichash/blake2b/ref/blake2b-compress-ref.c:75:980
	addq	%rbp, %r14
.Ltmp343:
	#DEBUG_VALUE: blake2b_compress_ref:v <- [DW_OP_LLVM_fragment 704 64] $r14
	.loc	3 75 1010 is_stmt 0             # crypto_generichash/blake2b/ref/blake2b-compress-ref.c:75:1010
	xorq	%r14, %r15
.Ltmp344:
	#DEBUG_VALUE: rotr64:x <- $r15
	#DEBUG_VALUE: rotr64:b <- 24
	.loc	4 58 21 is_stmt 1               # ./include/sodium/private/common.h:58:21 @[ crypto_generichash/blake2b/ref/blake2b-compress-ref.c:75:997 ]
	rolq	$40, %r15
.Ltmp345:
	#DEBUG_VALUE: blake2b_compress_ref:v <- [DW_OP_LLVM_fragment 448 64] $r15
	.loc	3 75 1040                       # crypto_generichash/blake2b/ref/blake2b-compress-ref.c:75:1040
	addq	-40(%rsp), %rdx                 # 8-byte Folded Reload
.Ltmp346:
	.loc	3 75 1032 is_stmt 0             # crypto_generichash/blake2b/ref/blake2b-compress-ref.c:75:1032
	addq	%r15, %rdx
.Ltmp347:
	#DEBUG_VALUE: blake2b_compress_ref:v <- [DW_OP_LLVM_fragment 192 64] $rdx
	.loc	3 75 1096                       # crypto_generichash/blake2b/ref/blake2b-compress-ref.c:75:1096
	xorq	%rdx, %rbp
.Ltmp348:
	#DEBUG_VALUE: rotr64:x <- $rbp
	#DEBUG_VALUE: rotr64:b <- 16
	.loc	4 58 21 is_stmt 1               # ./include/sodium/private/common.h:58:21 @[ crypto_generichash/blake2b/ref/blake2b-compress-ref.c:75:1082 ]
	rolq	$48, %rbp
.Ltmp349:
	#DEBUG_VALUE: blake2b_compress_ref:v <- [DW_OP_LLVM_fragment 960 64] $rbp
	.loc	3 75 1118                       # crypto_generichash/blake2b/ref/blake2b-compress-ref.c:75:1118
	addq	%rbp, %r14
.Ltmp350:
	#DEBUG_VALUE: blake2b_compress_ref:v <- [DW_OP_LLVM_fragment 704 64] $r14
	.loc	3 75 1148 is_stmt 0             # crypto_generichash/blake2b/ref/blake2b-compress-ref.c:75:1148
	xorq	%r14, %r15
.Ltmp351:
	#DEBUG_VALUE: rotr64:x <- $r15
	#DEBUG_VALUE: rotr64:b <- 63
	.loc	4 58 21 is_stmt 1               # ./include/sodium/private/common.h:58:21 @[ crypto_generichash/blake2b/ref/blake2b-compress-ref.c:75:1135 ]
	rolq	%r15
.Ltmp352:
	#DEBUG_VALUE: blake2b_compress_ref:v <- [DW_OP_LLVM_fragment 448 64] $r15
	.loc	3 75 1196                       # crypto_generichash/blake2b/ref/blake2b-compress-ref.c:75:1196
	addq	(%rsp), %r9                     # 8-byte Folded Reload
.Ltmp353:
	.loc	3 75 1188 is_stmt 0             # crypto_generichash/blake2b/ref/blake2b-compress-ref.c:75:1188
	addq	%r12, %r9
.Ltmp354:
	#DEBUG_VALUE: blake2b_compress_ref:v <- [DW_OP_LLVM_fragment 0 64] $r9
	.loc	3 75 1252                       # crypto_generichash/blake2b/ref/blake2b-compress-ref.c:75:1252
	xorq	%r9, %rbp
.Ltmp355:
	#DEBUG_VALUE: rotr64:x <- $rbp
	#DEBUG_VALUE: rotr64:b <- 32
	.loc	4 58 21 is_stmt 1               # ./include/sodium/private/common.h:58:21 @[ crypto_generichash/blake2b/ref/blake2b-compress-ref.c:75:1238 ]
	rolq	$32, %rbp
.Ltmp356:
	#DEBUG_VALUE: blake2b_compress_ref:v <- [DW_OP_LLVM_fragment 960 64] $rbp
	.loc	3 75 1274                       # crypto_generichash/blake2b/ref/blake2b-compress-ref.c:75:1274
	addq	%rbp, %rax
.Ltmp357:
	#DEBUG_VALUE: blake2b_compress_ref:v <- [DW_OP_LLVM_fragment 640 64] $rax
	.loc	3 75 1304 is_stmt 0             # crypto_generichash/blake2b/ref/blake2b-compress-ref.c:75:1304
	xorq	%rax, %r12
.Ltmp358:
	#DEBUG_VALUE: rotr64:x <- $r12
	#DEBUG_VALUE: rotr64:b <- 24
	.loc	4 58 21 is_stmt 1               # ./include/sodium/private/common.h:58:21 @[ crypto_generichash/blake2b/ref/blake2b-compress-ref.c:75:1291 ]
	rolq	$40, %r12
.Ltmp359:
	#DEBUG_VALUE: blake2b_compress_ref:v <- [DW_OP_LLVM_fragment 320 64] $r12
	.loc	3 75 1334                       # crypto_generichash/blake2b/ref/blake2b-compress-ref.c:75:1334
	addq	-8(%rsp), %r9                   # 8-byte Folded Reload
.Ltmp360:
	.loc	3 75 1326 is_stmt 0             # crypto_generichash/blake2b/ref/blake2b-compress-ref.c:75:1326
	addq	%r12, %r9
.Ltmp361:
	#DEBUG_VALUE: blake2b_compress_ref:v <- [DW_OP_LLVM_fragment 0 64] $r9
	.loc	3 75 1390                       # crypto_generichash/blake2b/ref/blake2b-compress-ref.c:75:1390
	xorq	%r9, %rbp
.Ltmp362:
	#DEBUG_VALUE: rotr64:x <- $rbp
	#DEBUG_VALUE: rotr64:b <- 16
	.loc	4 58 21 is_stmt 1               # ./include/sodium/private/common.h:58:21 @[ crypto_generichash/blake2b/ref/blake2b-compress-ref.c:75:1376 ]
	rolq	$48, %rbp
.Ltmp363:
	#DEBUG_VALUE: blake2b_compress_ref:v <- [DW_OP_LLVM_fragment 960 64] $rbp
	.loc	3 75 1412                       # crypto_generichash/blake2b/ref/blake2b-compress-ref.c:75:1412
	addq	%rbp, %rax
.Ltmp364:
	#DEBUG_VALUE: blake2b_compress_ref:v <- [DW_OP_LLVM_fragment 640 64] $rax
	.loc	3 0 1412 is_stmt 0              # crypto_generichash/blake2b/ref/blake2b-compress-ref.c:0:1412
	movq	%rax, -112(%rsp)                # 8-byte Spill
.Ltmp365:
	#DEBUG_VALUE: blake2b_compress_ref:v <- [DW_OP_constu 112, DW_OP_minus, DW_OP_deref, DW_OP_LLVM_fragment 640 64] $rsp
	.loc	3 75 1442                       # crypto_generichash/blake2b/ref/blake2b-compress-ref.c:75:1442
	xorq	%rax, %r12
.Ltmp366:
	#DEBUG_VALUE: rotr64:x <- $r12
	#DEBUG_VALUE: rotr64:b <- 63
	.loc	4 58 21 is_stmt 1               # ./include/sodium/private/common.h:58:21 @[ crypto_generichash/blake2b/ref/blake2b-compress-ref.c:75:1429 ]
	rolq	%r12
.Ltmp367:
	#DEBUG_VALUE: blake2b_compress_ref:v <- [DW_OP_LLVM_fragment 320 64] $r12
	.loc	3 75 1490                       # crypto_generichash/blake2b/ref/blake2b-compress-ref.c:75:1490
	addq	-72(%rsp), %r11                 # 8-byte Folded Reload
.Ltmp368:
	.loc	3 75 1482 is_stmt 0             # crypto_generichash/blake2b/ref/blake2b-compress-ref.c:75:1482
	addq	%rbx, %r11
.Ltmp369:
	#DEBUG_VALUE: blake2b_compress_ref:v <- [DW_OP_LLVM_fragment 64 64] $r11
	.loc	3 75 1546                       # crypto_generichash/blake2b/ref/blake2b-compress-ref.c:75:1546
	xorq	%r11, %rcx
.Ltmp370:
	#DEBUG_VALUE: rotr64:x <- $rcx
	#DEBUG_VALUE: rotr64:b <- 32
	.loc	4 58 21 is_stmt 1               # ./include/sodium/private/common.h:58:21 @[ crypto_generichash/blake2b/ref/blake2b-compress-ref.c:75:1532 ]
	rolq	$32, %rcx
.Ltmp371:
	#DEBUG_VALUE: blake2b_compress_ref:v <- [DW_OP_LLVM_fragment 768 64] $rcx
	.loc	3 75 1568                       # crypto_generichash/blake2b/ref/blake2b-compress-ref.c:75:1568
	addq	%rcx, %r14
.Ltmp372:
	#DEBUG_VALUE: blake2b_compress_ref:v <- [DW_OP_LLVM_fragment 704 64] $r14
	.loc	3 75 1598 is_stmt 0             # crypto_generichash/blake2b/ref/blake2b-compress-ref.c:75:1598
	xorq	%r14, %rbx
.Ltmp373:
	#DEBUG_VALUE: rotr64:x <- $rbx
	#DEBUG_VALUE: rotr64:b <- 24
	.loc	4 58 21 is_stmt 1               # ./include/sodium/private/common.h:58:21 @[ crypto_generichash/blake2b/ref/blake2b-compress-ref.c:75:1585 ]
	rolq	$40, %rbx
.Ltmp374:
	#DEBUG_VALUE: blake2b_compress_ref:v <- [DW_OP_LLVM_fragment 384 64] $rbx
	.loc	3 75 1628                       # crypto_generichash/blake2b/ref/blake2b-compress-ref.c:75:1628
	addq	-48(%rsp), %r11                 # 8-byte Folded Reload
.Ltmp375:
	.loc	3 75 1620 is_stmt 0             # crypto_generichash/blake2b/ref/blake2b-compress-ref.c:75:1620
	addq	%rbx, %r11
.Ltmp376:
	#DEBUG_VALUE: blake2b_compress_ref:v <- [DW_OP_LLVM_fragment 64 64] $r11
	.loc	3 75 1684                       # crypto_generichash/blake2b/ref/blake2b-compress-ref.c:75:1684
	xorq	%r11, %rcx
.Ltmp377:
	#DEBUG_VALUE: rotr64:x <- $rcx
	#DEBUG_VALUE: rotr64:b <- 16
	.loc	4 58 21 is_stmt 1               # ./include/sodium/private/common.h:58:21 @[ crypto_generichash/blake2b/ref/blake2b-compress-ref.c:75:1670 ]
	rolq	$48, %rcx
.Ltmp378:
	#DEBUG_VALUE: blake2b_compress_ref:v <- [DW_OP_LLVM_fragment 768 64] $rcx
	.loc	3 75 1706                       # crypto_generichash/blake2b/ref/blake2b-compress-ref.c:75:1706
	addq	%rcx, %r14
.Ltmp379:
	#DEBUG_VALUE: blake2b_compress_ref:v <- [DW_OP_LLVM_fragment 704 64] $r14
	.loc	3 0 1706 is_stmt 0              # crypto_generichash/blake2b/ref/blake2b-compress-ref.c:0:1706
	movq	%r14, 24(%rsp)                  # 8-byte Spill
.Ltmp380:
	#DEBUG_VALUE: blake2b_compress_ref:v <- [DW_OP_plus_uconst 24, DW_OP_deref, DW_OP_LLVM_fragment 704 64] $rsp
	.loc	3 75 1736                       # crypto_generichash/blake2b/ref/blake2b-compress-ref.c:75:1736
	xorq	%r14, %rbx
.Ltmp381:
	#DEBUG_VALUE: rotr64:x <- $rbx
	#DEBUG_VALUE: rotr64:b <- 63
	.loc	4 58 21 is_stmt 1               # ./include/sodium/private/common.h:58:21 @[ crypto_generichash/blake2b/ref/blake2b-compress-ref.c:75:1723 ]
	rolq	%rbx
.Ltmp382:
	#DEBUG_VALUE: blake2b_compress_ref:v <- [DW_OP_LLVM_fragment 384 64] $rbx
	.loc	4 0 21 is_stmt 0                # ./include/sodium/private/common.h:0:21
	movq	-16(%rsp), %r10                 # 8-byte Reload
.Ltmp383:
	.loc	3 75 1784 is_stmt 1             # crypto_generichash/blake2b/ref/blake2b-compress-ref.c:75:1784
	addq	%r10, %r13
.Ltmp384:
	.loc	3 75 1776 is_stmt 0             # crypto_generichash/blake2b/ref/blake2b-compress-ref.c:75:1776
	addq	%r15, %r13
.Ltmp385:
	#DEBUG_VALUE: blake2b_compress_ref:v <- [DW_OP_LLVM_fragment 128 64] $r13
	.loc	3 75 1840                       # crypto_generichash/blake2b/ref/blake2b-compress-ref.c:75:1840
	xorq	%r13, %rdi
.Ltmp386:
	#DEBUG_VALUE: rotr64:x <- $rdi
	#DEBUG_VALUE: rotr64:b <- 32
	.loc	4 58 21 is_stmt 1               # ./include/sodium/private/common.h:58:21 @[ crypto_generichash/blake2b/ref/blake2b-compress-ref.c:75:1826 ]
	rolq	$32, %rdi
.Ltmp387:
	#DEBUG_VALUE: blake2b_compress_ref:v <- [DW_OP_LLVM_fragment 832 64] $rdi
	.loc	4 0 21 is_stmt 0                # ./include/sodium/private/common.h:0:21
	movq	-120(%rsp), %rax                # 8-byte Reload
.Ltmp388:
	.loc	3 75 1861 is_stmt 1             # crypto_generichash/blake2b/ref/blake2b-compress-ref.c:75:1861
	addq	%rdi, %rax
.Ltmp389:
	#DEBUG_VALUE: blake2b_compress_ref:v <- [DW_OP_LLVM_fragment 512 64] $rax
	.loc	3 75 1891 is_stmt 0             # crypto_generichash/blake2b/ref/blake2b-compress-ref.c:75:1891
	xorq	%rax, %r15
.Ltmp390:
	#DEBUG_VALUE: rotr64:x <- $r15
	#DEBUG_VALUE: rotr64:b <- 24
	.loc	4 58 21 is_stmt 1               # ./include/sodium/private/common.h:58:21 @[ crypto_generichash/blake2b/ref/blake2b-compress-ref.c:75:1878 ]
	rolq	$40, %r15
.Ltmp391:
	#DEBUG_VALUE: blake2b_compress_ref:v <- [DW_OP_LLVM_fragment 448 64] $r15
	.loc	3 75 1920                       # crypto_generichash/blake2b/ref/blake2b-compress-ref.c:75:1920
	addq	-24(%rsp), %r13                 # 8-byte Folded Reload
.Ltmp392:
	.loc	3 75 1912 is_stmt 0             # crypto_generichash/blake2b/ref/blake2b-compress-ref.c:75:1912
	addq	%r15, %r13
.Ltmp393:
	#DEBUG_VALUE: blake2b_compress_ref:v <- [DW_OP_LLVM_fragment 128 64] $r13
	.loc	3 75 1976                       # crypto_generichash/blake2b/ref/blake2b-compress-ref.c:75:1976
	xorq	%r13, %rdi
.Ltmp394:
	#DEBUG_VALUE: rotr64:x <- $rdi
	#DEBUG_VALUE: rotr64:b <- 16
	.loc	4 58 21 is_stmt 1               # ./include/sodium/private/common.h:58:21 @[ crypto_generichash/blake2b/ref/blake2b-compress-ref.c:75:1962 ]
	rolq	$48, %rdi
.Ltmp395:
	#DEBUG_VALUE: blake2b_compress_ref:v <- [DW_OP_LLVM_fragment 832 64] $rdi
	.loc	3 75 1997                       # crypto_generichash/blake2b/ref/blake2b-compress-ref.c:75:1997
	addq	%rdi, %rax
.Ltmp396:
	#DEBUG_VALUE: blake2b_compress_ref:v <- [DW_OP_LLVM_fragment 512 64] $rax
	.loc	3 0 1997 is_stmt 0              # crypto_generichash/blake2b/ref/blake2b-compress-ref.c:0:1997
	movq	%rax, -120(%rsp)                # 8-byte Spill
.Ltmp397:
	#DEBUG_VALUE: blake2b_compress_ref:v <- [DW_OP_constu 120, DW_OP_minus, DW_OP_deref, DW_OP_LLVM_fragment 512 64] $rsp
	.loc	3 75 2027                       # crypto_generichash/blake2b/ref/blake2b-compress-ref.c:75:2027
	xorq	%rax, %r15
.Ltmp398:
	#DEBUG_VALUE: rotr64:x <- $r15
	#DEBUG_VALUE: rotr64:b <- 63
	.loc	4 58 21 is_stmt 1               # ./include/sodium/private/common.h:58:21 @[ crypto_generichash/blake2b/ref/blake2b-compress-ref.c:75:2014 ]
	rolq	%r15
.Ltmp399:
	#DEBUG_VALUE: blake2b_compress_ref:v <- [DW_OP_LLVM_fragment 448 64] $r15
	.loc	4 0 21 is_stmt 0                # ./include/sodium/private/common.h:0:21
	movq	-56(%rsp), %r14                 # 8-byte Reload
.Ltmp400:
	.loc	3 75 2074 is_stmt 1             # crypto_generichash/blake2b/ref/blake2b-compress-ref.c:75:2074
	addq	%r14, %rdx
.Ltmp401:
	.loc	3 75 2066 is_stmt 0             # crypto_generichash/blake2b/ref/blake2b-compress-ref.c:75:2066
	addq	%r8, %rdx
.Ltmp402:
	#DEBUG_VALUE: blake2b_compress_ref:v <- [DW_OP_LLVM_fragment 192 64] $rdx
	.loc	3 75 2130                       # crypto_generichash/blake2b/ref/blake2b-compress-ref.c:75:2130
	xorq	%rdx, %rsi
.Ltmp403:
	#DEBUG_VALUE: rotr64:x <- $rsi
	#DEBUG_VALUE: rotr64:b <- 32
	.loc	4 58 21 is_stmt 1               # ./include/sodium/private/common.h:58:21 @[ crypto_generichash/blake2b/ref/blake2b-compress-ref.c:75:2116 ]
	rolq	$32, %rsi
.Ltmp404:
	#DEBUG_VALUE: blake2b_compress_ref:v <- [DW_OP_LLVM_fragment 896 64] $rsi
	.loc	4 0 21 is_stmt 0                # ./include/sodium/private/common.h:0:21
	movq	-128(%rsp), %rax                # 8-byte Reload
.Ltmp405:
	.loc	3 75 2151 is_stmt 1             # crypto_generichash/blake2b/ref/blake2b-compress-ref.c:75:2151
	addq	%rsi, %rax
.Ltmp406:
	#DEBUG_VALUE: blake2b_compress_ref:v <- [DW_OP_LLVM_fragment 576 64] $rax
	.loc	3 75 2181 is_stmt 0             # crypto_generichash/blake2b/ref/blake2b-compress-ref.c:75:2181
	xorq	%rax, %r8
.Ltmp407:
	#DEBUG_VALUE: rotr64:x <- $r8
	#DEBUG_VALUE: rotr64:b <- 24
	.loc	4 58 21 is_stmt 1               # ./include/sodium/private/common.h:58:21 @[ crypto_generichash/blake2b/ref/blake2b-compress-ref.c:75:2168 ]
	rolq	$40, %r8
.Ltmp408:
	#DEBUG_VALUE: blake2b_compress_ref:v <- [DW_OP_LLVM_fragment 256 64] $r8
	.loc	3 75 2210                       # crypto_generichash/blake2b/ref/blake2b-compress-ref.c:75:2210
	addq	-88(%rsp), %rdx                 # 8-byte Folded Reload
.Ltmp409:
	.loc	3 75 2202 is_stmt 0             # crypto_generichash/blake2b/ref/blake2b-compress-ref.c:75:2202
	addq	%r8, %rdx
.Ltmp410:
	#DEBUG_VALUE: blake2b_compress_ref:v <- [DW_OP_LLVM_fragment 192 64] $rdx
	.loc	3 75 2266                       # crypto_generichash/blake2b/ref/blake2b-compress-ref.c:75:2266
	xorq	%rdx, %rsi
.Ltmp411:
	#DEBUG_VALUE: rotr64:x <- $rsi
	#DEBUG_VALUE: rotr64:b <- 16
	.loc	4 58 21 is_stmt 1               # ./include/sodium/private/common.h:58:21 @[ crypto_generichash/blake2b/ref/blake2b-compress-ref.c:75:2252 ]
	rolq	$48, %rsi
.Ltmp412:
	#DEBUG_VALUE: blake2b_compress_ref:v <- [DW_OP_LLVM_fragment 896 64] $rsi
	.loc	3 75 2287                       # crypto_generichash/blake2b/ref/blake2b-compress-ref.c:75:2287
	addq	%rsi, %rax
.Ltmp413:
	#DEBUG_VALUE: blake2b_compress_ref:v <- [DW_OP_LLVM_fragment 576 64] $rax
	.loc	3 75 2317 is_stmt 0             # crypto_generichash/blake2b/ref/blake2b-compress-ref.c:75:2317
	xorq	%rax, %r8
.Ltmp414:
	#DEBUG_VALUE: rotr64:x <- $r8
	#DEBUG_VALUE: rotr64:b <- 63
	.loc	4 58 21 is_stmt 1               # ./include/sodium/private/common.h:58:21 @[ crypto_generichash/blake2b/ref/blake2b-compress-ref.c:75:2304 ]
	rolq	%r8
.Ltmp415:
	#DEBUG_VALUE: blake2b_compress_ref:v <- [DW_OP_LLVM_fragment 256 64] $r8
	.loc	3 76 28                         # crypto_generichash/blake2b/ref/blake2b-compress-ref.c:76:28
	addq	%r10, %r9
.Ltmp416:
	.loc	3 76 20 is_stmt 0               # crypto_generichash/blake2b/ref/blake2b-compress-ref.c:76:20
	addq	%r8, %r9
.Ltmp417:
	#DEBUG_VALUE: blake2b_compress_ref:v <- [DW_OP_LLVM_fragment 0 64] $r9
	.loc	3 76 84                         # crypto_generichash/blake2b/ref/blake2b-compress-ref.c:76:84
	xorq	%r9, %rcx
.Ltmp418:
	#DEBUG_VALUE: rotr64:x <- $rcx
	#DEBUG_VALUE: rotr64:b <- 32
	.loc	4 58 21 is_stmt 1               # ./include/sodium/private/common.h:58:21 @[ crypto_generichash/blake2b/ref/blake2b-compress-ref.c:76:70 ]
	rolq	$32, %rcx
.Ltmp419:
	#DEBUG_VALUE: blake2b_compress_ref:v <- [DW_OP_LLVM_fragment 768 64] $rcx
	.loc	4 0 21 is_stmt 0                # ./include/sodium/private/common.h:0:21
	movq	-120(%rsp), %r10                # 8-byte Reload
.Ltmp420:
	.loc	3 76 105 is_stmt 1              # crypto_generichash/blake2b/ref/blake2b-compress-ref.c:76:105
	addq	%rcx, %r10
.Ltmp421:
	#DEBUG_VALUE: blake2b_compress_ref:v <- [DW_OP_LLVM_fragment 512 64] $r10
	.loc	3 76 135 is_stmt 0              # crypto_generichash/blake2b/ref/blake2b-compress-ref.c:76:135
	xorq	%r10, %r8
.Ltmp422:
	#DEBUG_VALUE: rotr64:x <- $r8
	#DEBUG_VALUE: rotr64:b <- 24
	.loc	4 58 21 is_stmt 1               # ./include/sodium/private/common.h:58:21 @[ crypto_generichash/blake2b/ref/blake2b-compress-ref.c:76:122 ]
	rolq	$40, %r8
.Ltmp423:
	#DEBUG_VALUE: blake2b_compress_ref:v <- [DW_OP_LLVM_fragment 256 64] $r8
	.loc	3 76 164                        # crypto_generichash/blake2b/ref/blake2b-compress-ref.c:76:164
	addq	%r14, %r9
.Ltmp424:
	.loc	3 76 156 is_stmt 0              # crypto_generichash/blake2b/ref/blake2b-compress-ref.c:76:156
	addq	%r8, %r9
.Ltmp425:
	#DEBUG_VALUE: blake2b_compress_ref:v <- [DW_OP_LLVM_fragment 0 64] $r9
	.loc	3 76 220                        # crypto_generichash/blake2b/ref/blake2b-compress-ref.c:76:220
	xorq	%r9, %rcx
.Ltmp426:
	#DEBUG_VALUE: rotr64:x <- $rcx
	#DEBUG_VALUE: rotr64:b <- 16
	.loc	4 58 21 is_stmt 1               # ./include/sodium/private/common.h:58:21 @[ crypto_generichash/blake2b/ref/blake2b-compress-ref.c:76:206 ]
	rolq	$48, %rcx
.Ltmp427:
	#DEBUG_VALUE: blake2b_compress_ref:v <- [DW_OP_LLVM_fragment 768 64] $rcx
	.loc	3 76 241                        # crypto_generichash/blake2b/ref/blake2b-compress-ref.c:76:241
	addq	%rcx, %r10
.Ltmp428:
	#DEBUG_VALUE: blake2b_compress_ref:v <- [DW_OP_LLVM_fragment 512 64] $r10
	.loc	3 76 271 is_stmt 0              # crypto_generichash/blake2b/ref/blake2b-compress-ref.c:76:271
	xorq	%r10, %r8
.Ltmp429:
	#DEBUG_VALUE: rotr64:x <- $r8
	#DEBUG_VALUE: rotr64:b <- 63
	.loc	4 58 21 is_stmt 1               # ./include/sodium/private/common.h:58:21 @[ crypto_generichash/blake2b/ref/blake2b-compress-ref.c:76:258 ]
	rolq	%r8
.Ltmp430:
	#DEBUG_VALUE: blake2b_compress_ref:v <- [DW_OP_LLVM_fragment 256 64] $r8
	.loc	3 76 318                        # crypto_generichash/blake2b/ref/blake2b-compress-ref.c:76:318
	addq	-72(%rsp), %r11                 # 8-byte Folded Reload
.Ltmp431:
	.loc	3 76 310 is_stmt 0              # crypto_generichash/blake2b/ref/blake2b-compress-ref.c:76:310
	addq	%r12, %r11
.Ltmp432:
	#DEBUG_VALUE: blake2b_compress_ref:v <- [DW_OP_LLVM_fragment 64 64] $r11
	.loc	3 76 374                        # crypto_generichash/blake2b/ref/blake2b-compress-ref.c:76:374
	xorq	%r11, %rdi
.Ltmp433:
	#DEBUG_VALUE: rotr64:x <- $rdi
	#DEBUG_VALUE: rotr64:b <- 32
	.loc	4 58 21 is_stmt 1               # ./include/sodium/private/common.h:58:21 @[ crypto_generichash/blake2b/ref/blake2b-compress-ref.c:76:360 ]
	rolq	$32, %rdi
.Ltmp434:
	#DEBUG_VALUE: blake2b_compress_ref:v <- [DW_OP_LLVM_fragment 832 64] $rdi
	.loc	3 76 395                        # crypto_generichash/blake2b/ref/blake2b-compress-ref.c:76:395
	addq	%rdi, %rax
.Ltmp435:
	#DEBUG_VALUE: blake2b_compress_ref:v <- [DW_OP_LLVM_fragment 576 64] $rax
	.loc	3 76 425 is_stmt 0              # crypto_generichash/blake2b/ref/blake2b-compress-ref.c:76:425
	xorq	%rax, %r12
.Ltmp436:
	#DEBUG_VALUE: rotr64:x <- $r12
	#DEBUG_VALUE: rotr64:b <- 24
	.loc	4 58 21 is_stmt 1               # ./include/sodium/private/common.h:58:21 @[ crypto_generichash/blake2b/ref/blake2b-compress-ref.c:76:412 ]
	rolq	$40, %r12
.Ltmp437:
	#DEBUG_VALUE: blake2b_compress_ref:v <- [DW_OP_LLVM_fragment 320 64] $r12
	.loc	3 76 454                        # crypto_generichash/blake2b/ref/blake2b-compress-ref.c:76:454
	addq	-24(%rsp), %r11                 # 8-byte Folded Reload
.Ltmp438:
	.loc	3 76 446 is_stmt 0              # crypto_generichash/blake2b/ref/blake2b-compress-ref.c:76:446
	addq	%r12, %r11
.Ltmp439:
	#DEBUG_VALUE: blake2b_compress_ref:v <- [DW_OP_LLVM_fragment 64 64] $r11
	.loc	3 76 510                        # crypto_generichash/blake2b/ref/blake2b-compress-ref.c:76:510
	xorq	%r11, %rdi
.Ltmp440:
	#DEBUG_VALUE: rotr64:x <- $rdi
	#DEBUG_VALUE: rotr64:b <- 16
	.loc	4 58 21 is_stmt 1               # ./include/sodium/private/common.h:58:21 @[ crypto_generichash/blake2b/ref/blake2b-compress-ref.c:76:496 ]
	rolq	$48, %rdi
.Ltmp441:
	#DEBUG_VALUE: blake2b_compress_ref:v <- [DW_OP_LLVM_fragment 832 64] $rdi
	.loc	3 76 531                        # crypto_generichash/blake2b/ref/blake2b-compress-ref.c:76:531
	addq	%rdi, %rax
.Ltmp442:
	#DEBUG_VALUE: blake2b_compress_ref:v <- [DW_OP_LLVM_fragment 576 64] $rax
	.loc	3 0 531 is_stmt 0               # crypto_generichash/blake2b/ref/blake2b-compress-ref.c:0:531
	movq	%rax, -128(%rsp)                # 8-byte Spill
.Ltmp443:
	#DEBUG_VALUE: blake2b_compress_ref:v <- [DW_OP_constu 128, DW_OP_minus, DW_OP_deref, DW_OP_LLVM_fragment 576 64] $rsp
	.loc	3 76 561                        # crypto_generichash/blake2b/ref/blake2b-compress-ref.c:76:561
	xorq	%rax, %r12
.Ltmp444:
	#DEBUG_VALUE: rotr64:x <- $r12
	#DEBUG_VALUE: rotr64:b <- 63
	.loc	4 58 21 is_stmt 1               # ./include/sodium/private/common.h:58:21 @[ crypto_generichash/blake2b/ref/blake2b-compress-ref.c:76:548 ]
	rolq	%r12
.Ltmp445:
	#DEBUG_VALUE: blake2b_compress_ref:v <- [DW_OP_LLVM_fragment 320 64] $r12
	.loc	3 76 608                        # crypto_generichash/blake2b/ref/blake2b-compress-ref.c:76:608
	addq	-40(%rsp), %r13                 # 8-byte Folded Reload
.Ltmp446:
	.loc	3 76 600 is_stmt 0              # crypto_generichash/blake2b/ref/blake2b-compress-ref.c:76:600
	addq	%rbx, %r13
.Ltmp447:
	#DEBUG_VALUE: blake2b_compress_ref:v <- [DW_OP_LLVM_fragment 128 64] $r13
	.loc	3 76 664                        # crypto_generichash/blake2b/ref/blake2b-compress-ref.c:76:664
	xorq	%r13, %rsi
.Ltmp448:
	#DEBUG_VALUE: rotr64:x <- $rsi
	#DEBUG_VALUE: rotr64:b <- 32
	.loc	4 58 21 is_stmt 1               # ./include/sodium/private/common.h:58:21 @[ crypto_generichash/blake2b/ref/blake2b-compress-ref.c:76:650 ]
	rolq	$32, %rsi
.Ltmp449:
	#DEBUG_VALUE: blake2b_compress_ref:v <- [DW_OP_LLVM_fragment 896 64] $rsi
	.loc	4 0 21 is_stmt 0                # ./include/sodium/private/common.h:0:21
	movq	-112(%rsp), %rax                # 8-byte Reload
.Ltmp450:
	.loc	3 76 686 is_stmt 1              # crypto_generichash/blake2b/ref/blake2b-compress-ref.c:76:686
	addq	%rsi, %rax
.Ltmp451:
	#DEBUG_VALUE: blake2b_compress_ref:v <- [DW_OP_LLVM_fragment 640 64] $rax
	.loc	3 76 716 is_stmt 0              # crypto_generichash/blake2b/ref/blake2b-compress-ref.c:76:716
	xorq	%rax, %rbx
.Ltmp452:
	#DEBUG_VALUE: rotr64:x <- $rbx
	#DEBUG_VALUE: rotr64:b <- 24
	.loc	4 58 21 is_stmt 1               # ./include/sodium/private/common.h:58:21 @[ crypto_generichash/blake2b/ref/blake2b-compress-ref.c:76:703 ]
	rolq	$40, %rbx
.Ltmp453:
	#DEBUG_VALUE: blake2b_compress_ref:v <- [DW_OP_LLVM_fragment 384 64] $rbx
	.loc	3 76 746                        # crypto_generichash/blake2b/ref/blake2b-compress-ref.c:76:746
	addq	-104(%rsp), %r13                # 8-byte Folded Reload
.Ltmp454:
	.loc	3 76 738 is_stmt 0              # crypto_generichash/blake2b/ref/blake2b-compress-ref.c:76:738
	addq	%rbx, %r13
.Ltmp455:
	#DEBUG_VALUE: blake2b_compress_ref:v <- [DW_OP_LLVM_fragment 128 64] $r13
	.loc	3 76 802                        # crypto_generichash/blake2b/ref/blake2b-compress-ref.c:76:802
	xorq	%r13, %rsi
.Ltmp456:
	#DEBUG_VALUE: rotr64:x <- $rsi
	#DEBUG_VALUE: rotr64:b <- 16
	.loc	4 58 21 is_stmt 1               # ./include/sodium/private/common.h:58:21 @[ crypto_generichash/blake2b/ref/blake2b-compress-ref.c:76:788 ]
	rolq	$48, %rsi
.Ltmp457:
	#DEBUG_VALUE: blake2b_compress_ref:v <- [DW_OP_LLVM_fragment 896 64] $rsi
	.loc	3 76 824                        # crypto_generichash/blake2b/ref/blake2b-compress-ref.c:76:824
	addq	%rsi, %rax
.Ltmp458:
	#DEBUG_VALUE: blake2b_compress_ref:v <- [DW_OP_LLVM_fragment 640 64] $rax
	.loc	3 76 854 is_stmt 0              # crypto_generichash/blake2b/ref/blake2b-compress-ref.c:76:854
	xorq	%rax, %rbx
.Ltmp459:
	#DEBUG_VALUE: rotr64:x <- $rbx
	#DEBUG_VALUE: rotr64:b <- 63
	.loc	4 58 21 is_stmt 1               # ./include/sodium/private/common.h:58:21 @[ crypto_generichash/blake2b/ref/blake2b-compress-ref.c:76:841 ]
	rolq	%rbx
.Ltmp460:
	#DEBUG_VALUE: blake2b_compress_ref:v <- [DW_OP_LLVM_fragment 384 64] $rbx
	.loc	3 76 902                        # crypto_generichash/blake2b/ref/blake2b-compress-ref.c:76:902
	addq	8(%rsp), %rdx                   # 8-byte Folded Reload
.Ltmp461:
	.loc	3 76 894 is_stmt 0              # crypto_generichash/blake2b/ref/blake2b-compress-ref.c:76:894
	addq	%r15, %rdx
.Ltmp462:
	#DEBUG_VALUE: blake2b_compress_ref:v <- [DW_OP_LLVM_fragment 192 64] $rdx
	.loc	3 76 958                        # crypto_generichash/blake2b/ref/blake2b-compress-ref.c:76:958
	xorq	%rdx, %rbp
.Ltmp463:
	#DEBUG_VALUE: rotr64:x <- $rbp
	#DEBUG_VALUE: rotr64:b <- 32
	.loc	4 58 21 is_stmt 1               # ./include/sodium/private/common.h:58:21 @[ crypto_generichash/blake2b/ref/blake2b-compress-ref.c:76:944 ]
	rolq	$32, %rbp
.Ltmp464:
	#DEBUG_VALUE: blake2b_compress_ref:v <- [DW_OP_LLVM_fragment 960 64] $rbp
	.loc	4 0 21 is_stmt 0                # ./include/sodium/private/common.h:0:21
	movq	24(%rsp), %r14                  # 8-byte Reload
.Ltmp465:
	.loc	3 76 980 is_stmt 1              # crypto_generichash/blake2b/ref/blake2b-compress-ref.c:76:980
	addq	%rbp, %r14
.Ltmp466:
	#DEBUG_VALUE: blake2b_compress_ref:v <- [DW_OP_LLVM_fragment 704 64] $r14
	.loc	3 76 1010 is_stmt 0             # crypto_generichash/blake2b/ref/blake2b-compress-ref.c:76:1010
	xorq	%r14, %r15
.Ltmp467:
	#DEBUG_VALUE: rotr64:x <- $r15
	#DEBUG_VALUE: rotr64:b <- 24
	.loc	4 58 21 is_stmt 1               # ./include/sodium/private/common.h:58:21 @[ crypto_generichash/blake2b/ref/blake2b-compress-ref.c:76:997 ]
	rolq	$40, %r15
.Ltmp468:
	#DEBUG_VALUE: blake2b_compress_ref:v <- [DW_OP_LLVM_fragment 448 64] $r15
	.loc	3 76 1040                       # crypto_generichash/blake2b/ref/blake2b-compress-ref.c:76:1040
	addq	-8(%rsp), %rdx                  # 8-byte Folded Reload
.Ltmp469:
	.loc	3 76 1032 is_stmt 0             # crypto_generichash/blake2b/ref/blake2b-compress-ref.c:76:1032
	addq	%r15, %rdx
.Ltmp470:
	#DEBUG_VALUE: blake2b_compress_ref:v <- [DW_OP_LLVM_fragment 192 64] $rdx
	.loc	3 76 1096                       # crypto_generichash/blake2b/ref/blake2b-compress-ref.c:76:1096
	xorq	%rdx, %rbp
.Ltmp471:
	#DEBUG_VALUE: rotr64:x <- $rbp
	#DEBUG_VALUE: rotr64:b <- 16
	.loc	4 58 21 is_stmt 1               # ./include/sodium/private/common.h:58:21 @[ crypto_generichash/blake2b/ref/blake2b-compress-ref.c:76:1082 ]
	rolq	$48, %rbp
.Ltmp472:
	#DEBUG_VALUE: blake2b_compress_ref:v <- [DW_OP_LLVM_fragment 960 64] $rbp
	.loc	3 76 1118                       # crypto_generichash/blake2b/ref/blake2b-compress-ref.c:76:1118
	addq	%rbp, %r14
.Ltmp473:
	#DEBUG_VALUE: blake2b_compress_ref:v <- [DW_OP_LLVM_fragment 704 64] $r14
	.loc	3 76 1148 is_stmt 0             # crypto_generichash/blake2b/ref/blake2b-compress-ref.c:76:1148
	xorq	%r14, %r15
.Ltmp474:
	#DEBUG_VALUE: rotr64:x <- $r15
	#DEBUG_VALUE: rotr64:b <- 63
	.loc	4 58 21 is_stmt 1               # ./include/sodium/private/common.h:58:21 @[ crypto_generichash/blake2b/ref/blake2b-compress-ref.c:76:1135 ]
	rolq	%r15
.Ltmp475:
	#DEBUG_VALUE: blake2b_compress_ref:v <- [DW_OP_LLVM_fragment 448 64] $r15
	.loc	3 76 1196                       # crypto_generichash/blake2b/ref/blake2b-compress-ref.c:76:1196
	addq	-80(%rsp), %r9                  # 8-byte Folded Reload
.Ltmp476:
	.loc	3 76 1188 is_stmt 0             # crypto_generichash/blake2b/ref/blake2b-compress-ref.c:76:1188
	addq	%r12, %r9
.Ltmp477:
	#DEBUG_VALUE: blake2b_compress_ref:v <- [DW_OP_LLVM_fragment 0 64] $r9
	.loc	3 76 1252                       # crypto_generichash/blake2b/ref/blake2b-compress-ref.c:76:1252
	xorq	%r9, %rbp
.Ltmp478:
	#DEBUG_VALUE: rotr64:x <- $rbp
	#DEBUG_VALUE: rotr64:b <- 32
	.loc	4 58 21 is_stmt 1               # ./include/sodium/private/common.h:58:21 @[ crypto_generichash/blake2b/ref/blake2b-compress-ref.c:76:1238 ]
	rolq	$32, %rbp
.Ltmp479:
	#DEBUG_VALUE: blake2b_compress_ref:v <- [DW_OP_LLVM_fragment 960 64] $rbp
	.loc	3 76 1274                       # crypto_generichash/blake2b/ref/blake2b-compress-ref.c:76:1274
	addq	%rbp, %rax
.Ltmp480:
	#DEBUG_VALUE: blake2b_compress_ref:v <- [DW_OP_LLVM_fragment 640 64] $rax
	.loc	3 76 1304 is_stmt 0             # crypto_generichash/blake2b/ref/blake2b-compress-ref.c:76:1304
	xorq	%rax, %r12
.Ltmp481:
	#DEBUG_VALUE: rotr64:x <- $r12
	#DEBUG_VALUE: rotr64:b <- 24
	.loc	4 58 21 is_stmt 1               # ./include/sodium/private/common.h:58:21 @[ crypto_generichash/blake2b/ref/blake2b-compress-ref.c:76:1291 ]
	rolq	$40, %r12
.Ltmp482:
	#DEBUG_VALUE: blake2b_compress_ref:v <- [DW_OP_LLVM_fragment 320 64] $r12
	.loc	3 76 1334                       # crypto_generichash/blake2b/ref/blake2b-compress-ref.c:76:1334
	addq	-48(%rsp), %r9                  # 8-byte Folded Reload
.Ltmp483:
	.loc	3 76 1326 is_stmt 0             # crypto_generichash/blake2b/ref/blake2b-compress-ref.c:76:1326
	addq	%r12, %r9
.Ltmp484:
	#DEBUG_VALUE: blake2b_compress_ref:v <- [DW_OP_LLVM_fragment 0 64] $r9
	.loc	3 76 1390                       # crypto_generichash/blake2b/ref/blake2b-compress-ref.c:76:1390
	xorq	%r9, %rbp
.Ltmp485:
	#DEBUG_VALUE: rotr64:x <- $rbp
	#DEBUG_VALUE: rotr64:b <- 16
	.loc	4 58 21 is_stmt 1               # ./include/sodium/private/common.h:58:21 @[ crypto_generichash/blake2b/ref/blake2b-compress-ref.c:76:1376 ]
	rolq	$48, %rbp
.Ltmp486:
	#DEBUG_VALUE: blake2b_compress_ref:v <- [DW_OP_LLVM_fragment 960 64] $rbp
	.loc	3 76 1412                       # crypto_generichash/blake2b/ref/blake2b-compress-ref.c:76:1412
	addq	%rbp, %rax
.Ltmp487:
	#DEBUG_VALUE: blake2b_compress_ref:v <- [DW_OP_LLVM_fragment 640 64] $rax
	.loc	3 0 1412 is_stmt 0              # crypto_generichash/blake2b/ref/blake2b-compress-ref.c:0:1412
	movq	%rax, -112(%rsp)                # 8-byte Spill
.Ltmp488:
	#DEBUG_VALUE: blake2b_compress_ref:v <- [DW_OP_constu 112, DW_OP_minus, DW_OP_deref, DW_OP_LLVM_fragment 640 64] $rsp
	.loc	3 76 1442                       # crypto_generichash/blake2b/ref/blake2b-compress-ref.c:76:1442
	xorq	%rax, %r12
.Ltmp489:
	#DEBUG_VALUE: rotr64:x <- $r12
	#DEBUG_VALUE: rotr64:b <- 63
	.loc	4 58 21 is_stmt 1               # ./include/sodium/private/common.h:58:21 @[ crypto_generichash/blake2b/ref/blake2b-compress-ref.c:76:1429 ]
	rolq	%r12
.Ltmp490:
	#DEBUG_VALUE: blake2b_compress_ref:v <- [DW_OP_LLVM_fragment 320 64] $r12
	.loc	3 76 1490                       # crypto_generichash/blake2b/ref/blake2b-compress-ref.c:76:1490
	addq	-96(%rsp), %r11                 # 8-byte Folded Reload
.Ltmp491:
	.loc	3 76 1482 is_stmt 0             # crypto_generichash/blake2b/ref/blake2b-compress-ref.c:76:1482
	addq	%rbx, %r11
.Ltmp492:
	#DEBUG_VALUE: blake2b_compress_ref:v <- [DW_OP_LLVM_fragment 64 64] $r11
	.loc	3 76 1546                       # crypto_generichash/blake2b/ref/blake2b-compress-ref.c:76:1546
	xorq	%r11, %rcx
.Ltmp493:
	#DEBUG_VALUE: rotr64:x <- $rcx
	#DEBUG_VALUE: rotr64:b <- 32
	.loc	4 58 21 is_stmt 1               # ./include/sodium/private/common.h:58:21 @[ crypto_generichash/blake2b/ref/blake2b-compress-ref.c:76:1532 ]
	rolq	$32, %rcx
.Ltmp494:
	#DEBUG_VALUE: blake2b_compress_ref:v <- [DW_OP_LLVM_fragment 768 64] $rcx
	.loc	3 76 1568                       # crypto_generichash/blake2b/ref/blake2b-compress-ref.c:76:1568
	addq	%rcx, %r14
.Ltmp495:
	#DEBUG_VALUE: blake2b_compress_ref:v <- [DW_OP_LLVM_fragment 704 64] $r14
	.loc	3 76 1598 is_stmt 0             # crypto_generichash/blake2b/ref/blake2b-compress-ref.c:76:1598
	xorq	%r14, %rbx
.Ltmp496:
	#DEBUG_VALUE: rotr64:x <- $rbx
	#DEBUG_VALUE: rotr64:b <- 24
	.loc	4 58 21 is_stmt 1               # ./include/sodium/private/common.h:58:21 @[ crypto_generichash/blake2b/ref/blake2b-compress-ref.c:76:1585 ]
	rolq	$40, %rbx
.Ltmp497:
	#DEBUG_VALUE: blake2b_compress_ref:v <- [DW_OP_LLVM_fragment 384 64] $rbx
	.loc	3 76 1628                       # crypto_generichash/blake2b/ref/blake2b-compress-ref.c:76:1628
	addq	(%rsp), %r11                    # 8-byte Folded Reload
.Ltmp498:
	.loc	3 76 1620 is_stmt 0             # crypto_generichash/blake2b/ref/blake2b-compress-ref.c:76:1620
	addq	%rbx, %r11
.Ltmp499:
	#DEBUG_VALUE: blake2b_compress_ref:v <- [DW_OP_LLVM_fragment 64 64] $r11
	.loc	3 76 1684                       # crypto_generichash/blake2b/ref/blake2b-compress-ref.c:76:1684
	xorq	%r11, %rcx
.Ltmp500:
	#DEBUG_VALUE: rotr64:x <- $rcx
	#DEBUG_VALUE: rotr64:b <- 16
	.loc	4 58 21 is_stmt 1               # ./include/sodium/private/common.h:58:21 @[ crypto_generichash/blake2b/ref/blake2b-compress-ref.c:76:1670 ]
	rolq	$48, %rcx
.Ltmp501:
	#DEBUG_VALUE: blake2b_compress_ref:v <- [DW_OP_LLVM_fragment 768 64] $rcx
	.loc	3 76 1706                       # crypto_generichash/blake2b/ref/blake2b-compress-ref.c:76:1706
	addq	%rcx, %r14
.Ltmp502:
	#DEBUG_VALUE: blake2b_compress_ref:v <- [DW_OP_LLVM_fragment 704 64] $r14
	.loc	3 76 1736 is_stmt 0             # crypto_generichash/blake2b/ref/blake2b-compress-ref.c:76:1736
	xorq	%r14, %rbx
.Ltmp503:
	#DEBUG_VALUE: rotr64:x <- $rbx
	#DEBUG_VALUE: rotr64:b <- 63
	.loc	4 58 21 is_stmt 1               # ./include/sodium/private/common.h:58:21 @[ crypto_generichash/blake2b/ref/blake2b-compress-ref.c:76:1723 ]
	rolq	%rbx
.Ltmp504:
	#DEBUG_VALUE: blake2b_compress_ref:v <- [DW_OP_LLVM_fragment 384 64] $rbx
	.loc	3 76 1784                       # crypto_generichash/blake2b/ref/blake2b-compress-ref.c:76:1784
	addq	-88(%rsp), %r13                 # 8-byte Folded Reload
.Ltmp505:
	.loc	3 76 1776 is_stmt 0             # crypto_generichash/blake2b/ref/blake2b-compress-ref.c:76:1776
	addq	%r15, %r13
.Ltmp506:
	#DEBUG_VALUE: blake2b_compress_ref:v <- [DW_OP_LLVM_fragment 128 64] $r13
	.loc	3 76 1840                       # crypto_generichash/blake2b/ref/blake2b-compress-ref.c:76:1840
	xorq	%r13, %rdi
.Ltmp507:
	#DEBUG_VALUE: rotr64:x <- $rdi
	#DEBUG_VALUE: rotr64:b <- 32
	.loc	4 58 21 is_stmt 1               # ./include/sodium/private/common.h:58:21 @[ crypto_generichash/blake2b/ref/blake2b-compress-ref.c:76:1826 ]
	rolq	$32, %rdi
.Ltmp508:
	#DEBUG_VALUE: blake2b_compress_ref:v <- [DW_OP_LLVM_fragment 832 64] $rdi
	.loc	4 0 21 is_stmt 0                # ./include/sodium/private/common.h:0:21
	movq	%r10, %rax
.Ltmp509:
	.loc	3 76 1861 is_stmt 1             # crypto_generichash/blake2b/ref/blake2b-compress-ref.c:76:1861
	addq	%rdi, %rax
.Ltmp510:
	#DEBUG_VALUE: blake2b_compress_ref:v <- [DW_OP_LLVM_fragment 512 64] $rax
	.loc	3 76 1891 is_stmt 0             # crypto_generichash/blake2b/ref/blake2b-compress-ref.c:76:1891
	xorq	%rax, %r15
.Ltmp511:
	#DEBUG_VALUE: rotr64:x <- $r15
	#DEBUG_VALUE: rotr64:b <- 24
	.loc	4 58 21 is_stmt 1               # ./include/sodium/private/common.h:58:21 @[ crypto_generichash/blake2b/ref/blake2b-compress-ref.c:76:1878 ]
	rolq	$40, %r15
.Ltmp512:
	#DEBUG_VALUE: blake2b_compress_ref:v <- [DW_OP_LLVM_fragment 448 64] $r15
	.loc	4 0 21 is_stmt 0                # ./include/sodium/private/common.h:0:21
	movq	16(%rsp), %r10                  # 8-byte Reload
.Ltmp513:
	.loc	3 76 1920 is_stmt 1             # crypto_generichash/blake2b/ref/blake2b-compress-ref.c:76:1920
	addq	%r10, %r13
.Ltmp514:
	.loc	3 76 1912 is_stmt 0             # crypto_generichash/blake2b/ref/blake2b-compress-ref.c:76:1912
	addq	%r15, %r13
.Ltmp515:
	#DEBUG_VALUE: blake2b_compress_ref:v <- [DW_OP_LLVM_fragment 128 64] $r13
	.loc	3 76 1976                       # crypto_generichash/blake2b/ref/blake2b-compress-ref.c:76:1976
	xorq	%r13, %rdi
.Ltmp516:
	#DEBUG_VALUE: rotr64:x <- $rdi
	#DEBUG_VALUE: rotr64:b <- 16
	.loc	4 58 21 is_stmt 1               # ./include/sodium/private/common.h:58:21 @[ crypto_generichash/blake2b/ref/blake2b-compress-ref.c:76:1962 ]
	rolq	$48, %rdi
.Ltmp517:
	#DEBUG_VALUE: blake2b_compress_ref:v <- [DW_OP_LLVM_fragment 832 64] $rdi
	.loc	3 76 1997                       # crypto_generichash/blake2b/ref/blake2b-compress-ref.c:76:1997
	addq	%rdi, %rax
.Ltmp518:
	#DEBUG_VALUE: blake2b_compress_ref:v <- [DW_OP_LLVM_fragment 512 64] $rax
	.loc	3 0 1997 is_stmt 0              # crypto_generichash/blake2b/ref/blake2b-compress-ref.c:0:1997
	movq	%rax, -120(%rsp)                # 8-byte Spill
.Ltmp519:
	#DEBUG_VALUE: blake2b_compress_ref:v <- [DW_OP_constu 120, DW_OP_minus, DW_OP_deref, DW_OP_LLVM_fragment 512 64] $rsp
	.loc	3 76 2027                       # crypto_generichash/blake2b/ref/blake2b-compress-ref.c:76:2027
	xorq	%rax, %r15
.Ltmp520:
	#DEBUG_VALUE: rotr64:x <- $r15
	#DEBUG_VALUE: rotr64:b <- 63
	.loc	4 58 21 is_stmt 1               # ./include/sodium/private/common.h:58:21 @[ crypto_generichash/blake2b/ref/blake2b-compress-ref.c:76:2014 ]
	rolq	%r15
.Ltmp521:
	#DEBUG_VALUE: blake2b_compress_ref:v <- [DW_OP_LLVM_fragment 448 64] $r15
	.loc	3 76 2074                       # crypto_generichash/blake2b/ref/blake2b-compress-ref.c:76:2074
	addq	-32(%rsp), %rdx                 # 8-byte Folded Reload
.Ltmp522:
	.loc	3 76 2066 is_stmt 0             # crypto_generichash/blake2b/ref/blake2b-compress-ref.c:76:2066
	addq	%r8, %rdx
.Ltmp523:
	#DEBUG_VALUE: blake2b_compress_ref:v <- [DW_OP_LLVM_fragment 192 64] $rdx
	.loc	3 76 2130                       # crypto_generichash/blake2b/ref/blake2b-compress-ref.c:76:2130
	xorq	%rdx, %rsi
.Ltmp524:
	#DEBUG_VALUE: rotr64:x <- $rsi
	#DEBUG_VALUE: rotr64:b <- 32
	.loc	4 58 21 is_stmt 1               # ./include/sodium/private/common.h:58:21 @[ crypto_generichash/blake2b/ref/blake2b-compress-ref.c:76:2116 ]
	rolq	$32, %rsi
.Ltmp525:
	#DEBUG_VALUE: blake2b_compress_ref:v <- [DW_OP_LLVM_fragment 896 64] $rsi
	.loc	4 0 21 is_stmt 0                # ./include/sodium/private/common.h:0:21
	movq	-128(%rsp), %rax                # 8-byte Reload
.Ltmp526:
	.loc	3 76 2151 is_stmt 1             # crypto_generichash/blake2b/ref/blake2b-compress-ref.c:76:2151
	addq	%rsi, %rax
.Ltmp527:
	#DEBUG_VALUE: blake2b_compress_ref:v <- [DW_OP_LLVM_fragment 576 64] $rax
	.loc	3 76 2181 is_stmt 0             # crypto_generichash/blake2b/ref/blake2b-compress-ref.c:76:2181
	xorq	%rax, %r8
.Ltmp528:
	#DEBUG_VALUE: rotr64:x <- $r8
	#DEBUG_VALUE: rotr64:b <- 24
	.loc	4 58 21 is_stmt 1               # ./include/sodium/private/common.h:58:21 @[ crypto_generichash/blake2b/ref/blake2b-compress-ref.c:76:2168 ]
	rolq	$40, %r8
.Ltmp529:
	#DEBUG_VALUE: blake2b_compress_ref:v <- [DW_OP_LLVM_fragment 256 64] $r8
	.loc	3 76 2210                       # crypto_generichash/blake2b/ref/blake2b-compress-ref.c:76:2210
	addq	-64(%rsp), %rdx                 # 8-byte Folded Reload
.Ltmp530:
	.loc	3 76 2202 is_stmt 0             # crypto_generichash/blake2b/ref/blake2b-compress-ref.c:76:2202
	addq	%r8, %rdx
.Ltmp531:
	#DEBUG_VALUE: blake2b_compress_ref:v <- [DW_OP_LLVM_fragment 192 64] $rdx
	.loc	3 76 2266                       # crypto_generichash/blake2b/ref/blake2b-compress-ref.c:76:2266
	xorq	%rdx, %rsi
.Ltmp532:
	#DEBUG_VALUE: rotr64:x <- $rsi
	#DEBUG_VALUE: rotr64:b <- 16
	.loc	4 58 21 is_stmt 1               # ./include/sodium/private/common.h:58:21 @[ crypto_generichash/blake2b/ref/blake2b-compress-ref.c:76:2252 ]
	rolq	$48, %rsi
.Ltmp533:
	#DEBUG_VALUE: blake2b_compress_ref:v <- [DW_OP_LLVM_fragment 896 64] $rsi
	.loc	3 76 2287                       # crypto_generichash/blake2b/ref/blake2b-compress-ref.c:76:2287
	addq	%rsi, %rax
.Ltmp534:
	#DEBUG_VALUE: blake2b_compress_ref:v <- [DW_OP_LLVM_fragment 576 64] $rax
	.loc	3 0 2287 is_stmt 0              # crypto_generichash/blake2b/ref/blake2b-compress-ref.c:0:2287
	movq	%rax, -128(%rsp)                # 8-byte Spill
.Ltmp535:
	#DEBUG_VALUE: blake2b_compress_ref:v <- [DW_OP_constu 128, DW_OP_minus, DW_OP_deref, DW_OP_LLVM_fragment 576 64] $rsp
	.loc	3 76 2317                       # crypto_generichash/blake2b/ref/blake2b-compress-ref.c:76:2317
	xorq	%rax, %r8
.Ltmp536:
	#DEBUG_VALUE: rotr64:x <- $r8
	#DEBUG_VALUE: rotr64:b <- 63
	.loc	4 58 21 is_stmt 1               # ./include/sodium/private/common.h:58:21 @[ crypto_generichash/blake2b/ref/blake2b-compress-ref.c:76:2304 ]
	rolq	%r8
.Ltmp537:
	#DEBUG_VALUE: blake2b_compress_ref:v <- [DW_OP_LLVM_fragment 256 64] $r8
	.loc	3 77 28                         # crypto_generichash/blake2b/ref/blake2b-compress-ref.c:77:28
	addq	-56(%rsp), %r9                  # 8-byte Folded Reload
.Ltmp538:
	.loc	3 77 20 is_stmt 0               # crypto_generichash/blake2b/ref/blake2b-compress-ref.c:77:20
	addq	%r8, %r9
.Ltmp539:
	#DEBUG_VALUE: blake2b_compress_ref:v <- [DW_OP_LLVM_fragment 0 64] $r9
	.loc	3 77 84                         # crypto_generichash/blake2b/ref/blake2b-compress-ref.c:77:84
	xorq	%r9, %rcx
.Ltmp540:
	#DEBUG_VALUE: rotr64:x <- $rcx
	#DEBUG_VALUE: rotr64:b <- 32
	.loc	4 58 21 is_stmt 1               # ./include/sodium/private/common.h:58:21 @[ crypto_generichash/blake2b/ref/blake2b-compress-ref.c:77:70 ]
	rolq	$32, %rcx
.Ltmp541:
	#DEBUG_VALUE: blake2b_compress_ref:v <- [DW_OP_LLVM_fragment 768 64] $rcx
	.loc	4 0 21 is_stmt 0                # ./include/sodium/private/common.h:0:21
	movq	-120(%rsp), %rax                # 8-byte Reload
.Ltmp542:
	.loc	3 77 105 is_stmt 1              # crypto_generichash/blake2b/ref/blake2b-compress-ref.c:77:105
	addq	%rcx, %rax
.Ltmp543:
	#DEBUG_VALUE: blake2b_compress_ref:v <- [DW_OP_LLVM_fragment 512 64] $rax
	.loc	3 77 135 is_stmt 0              # crypto_generichash/blake2b/ref/blake2b-compress-ref.c:77:135
	xorq	%rax, %r8
.Ltmp544:
	#DEBUG_VALUE: rotr64:x <- $r8
	#DEBUG_VALUE: rotr64:b <- 24
	.loc	4 58 21 is_stmt 1               # ./include/sodium/private/common.h:58:21 @[ crypto_generichash/blake2b/ref/blake2b-compress-ref.c:77:122 ]
	rolq	$40, %r8
.Ltmp545:
	#DEBUG_VALUE: blake2b_compress_ref:v <- [DW_OP_LLVM_fragment 256 64] $r8
	.loc	3 77 164                        # crypto_generichash/blake2b/ref/blake2b-compress-ref.c:77:164
	addq	%r10, %r9
.Ltmp546:
	.loc	3 77 156 is_stmt 0              # crypto_generichash/blake2b/ref/blake2b-compress-ref.c:77:156
	addq	%r8, %r9
.Ltmp547:
	#DEBUG_VALUE: blake2b_compress_ref:v <- [DW_OP_LLVM_fragment 0 64] $r9
	.loc	3 77 220                        # crypto_generichash/blake2b/ref/blake2b-compress-ref.c:77:220
	xorq	%r9, %rcx
.Ltmp548:
	#DEBUG_VALUE: rotr64:x <- $rcx
	#DEBUG_VALUE: rotr64:b <- 16
	.loc	4 58 21 is_stmt 1               # ./include/sodium/private/common.h:58:21 @[ crypto_generichash/blake2b/ref/blake2b-compress-ref.c:77:206 ]
	rolq	$48, %rcx
.Ltmp549:
	#DEBUG_VALUE: blake2b_compress_ref:v <- [DW_OP_LLVM_fragment 768 64] $rcx
	.loc	3 77 241                        # crypto_generichash/blake2b/ref/blake2b-compress-ref.c:77:241
	addq	%rcx, %rax
.Ltmp550:
	#DEBUG_VALUE: blake2b_compress_ref:v <- [DW_OP_LLVM_fragment 512 64] $rax
	.loc	3 0 241 is_stmt 0               # crypto_generichash/blake2b/ref/blake2b-compress-ref.c:0:241
	movq	%rax, -120(%rsp)                # 8-byte Spill
.Ltmp551:
	#DEBUG_VALUE: blake2b_compress_ref:v <- [DW_OP_constu 120, DW_OP_minus, DW_OP_deref, DW_OP_LLVM_fragment 512 64] $rsp
	.loc	3 77 271                        # crypto_generichash/blake2b/ref/blake2b-compress-ref.c:77:271
	xorq	%rax, %r8
.Ltmp552:
	#DEBUG_VALUE: rotr64:x <- $r8
	#DEBUG_VALUE: rotr64:b <- 63
	.loc	4 58 21 is_stmt 1               # ./include/sodium/private/common.h:58:21 @[ crypto_generichash/blake2b/ref/blake2b-compress-ref.c:77:258 ]
	rolq	%r8
.Ltmp553:
	#DEBUG_VALUE: blake2b_compress_ref:v <- [DW_OP_LLVM_fragment 256 64] $r8
	.loc	3 77 318                        # crypto_generichash/blake2b/ref/blake2b-compress-ref.c:77:318
	addq	-96(%rsp), %r11                 # 8-byte Folded Reload
.Ltmp554:
	.loc	3 77 310 is_stmt 0              # crypto_generichash/blake2b/ref/blake2b-compress-ref.c:77:310
	addq	%r12, %r11
.Ltmp555:
	#DEBUG_VALUE: blake2b_compress_ref:v <- [DW_OP_LLVM_fragment 64 64] $r11
	.loc	3 77 374                        # crypto_generichash/blake2b/ref/blake2b-compress-ref.c:77:374
	xorq	%r11, %rdi
.Ltmp556:
	#DEBUG_VALUE: rotr64:x <- $rdi
	#DEBUG_VALUE: rotr64:b <- 32
	.loc	4 58 21 is_stmt 1               # ./include/sodium/private/common.h:58:21 @[ crypto_generichash/blake2b/ref/blake2b-compress-ref.c:77:360 ]
	rolq	$32, %rdi
.Ltmp557:
	#DEBUG_VALUE: blake2b_compress_ref:v <- [DW_OP_LLVM_fragment 832 64] $rdi
	.loc	4 0 21 is_stmt 0                # ./include/sodium/private/common.h:0:21
	movq	-128(%rsp), %r10                # 8-byte Reload
.Ltmp558:
	.loc	3 77 395 is_stmt 1              # crypto_generichash/blake2b/ref/blake2b-compress-ref.c:77:395
	addq	%rdi, %r10
.Ltmp559:
	#DEBUG_VALUE: blake2b_compress_ref:v <- [DW_OP_LLVM_fragment 576 64] $r10
	.loc	3 77 425 is_stmt 0              # crypto_generichash/blake2b/ref/blake2b-compress-ref.c:77:425
	xorq	%r10, %r12
.Ltmp560:
	#DEBUG_VALUE: rotr64:x <- $r12
	#DEBUG_VALUE: rotr64:b <- 24
	.loc	4 58 21 is_stmt 1               # ./include/sodium/private/common.h:58:21 @[ crypto_generichash/blake2b/ref/blake2b-compress-ref.c:77:412 ]
	rolq	$40, %r12
.Ltmp561:
	#DEBUG_VALUE: blake2b_compress_ref:v <- [DW_OP_LLVM_fragment 320 64] $r12
	.loc	3 77 454                        # crypto_generichash/blake2b/ref/blake2b-compress-ref.c:77:454
	addq	-16(%rsp), %r11                 # 8-byte Folded Reload
.Ltmp562:
	.loc	3 77 446 is_stmt 0              # crypto_generichash/blake2b/ref/blake2b-compress-ref.c:77:446
	addq	%r12, %r11
.Ltmp563:
	#DEBUG_VALUE: blake2b_compress_ref:v <- [DW_OP_LLVM_fragment 64 64] $r11
	.loc	3 77 510                        # crypto_generichash/blake2b/ref/blake2b-compress-ref.c:77:510
	xorq	%r11, %rdi
.Ltmp564:
	#DEBUG_VALUE: rotr64:x <- $rdi
	#DEBUG_VALUE: rotr64:b <- 16
	.loc	4 58 21 is_stmt 1               # ./include/sodium/private/common.h:58:21 @[ crypto_generichash/blake2b/ref/blake2b-compress-ref.c:77:496 ]
	rolq	$48, %rdi
.Ltmp565:
	#DEBUG_VALUE: blake2b_compress_ref:v <- [DW_OP_LLVM_fragment 832 64] $rdi
	.loc	3 77 531                        # crypto_generichash/blake2b/ref/blake2b-compress-ref.c:77:531
	addq	%rdi, %r10
.Ltmp566:
	#DEBUG_VALUE: blake2b_compress_ref:v <- [DW_OP_LLVM_fragment 576 64] $r10
	.loc	3 0 531 is_stmt 0               # crypto_generichash/blake2b/ref/blake2b-compress-ref.c:0:531
	movq	%r10, -128(%rsp)                # 8-byte Spill
.Ltmp567:
	#DEBUG_VALUE: blake2b_compress_ref:v <- [DW_OP_constu 128, DW_OP_minus, DW_OP_deref, DW_OP_LLVM_fragment 576 64] $rsp
	.loc	3 77 561                        # crypto_generichash/blake2b/ref/blake2b-compress-ref.c:77:561
	xorq	%r10, %r12
.Ltmp568:
	#DEBUG_VALUE: rotr64:x <- $r12
	#DEBUG_VALUE: rotr64:b <- 63
	.loc	4 58 21 is_stmt 1               # ./include/sodium/private/common.h:58:21 @[ crypto_generichash/blake2b/ref/blake2b-compress-ref.c:77:548 ]
	rolq	%r12
.Ltmp569:
	#DEBUG_VALUE: blake2b_compress_ref:v <- [DW_OP_LLVM_fragment 320 64] $r12
	.loc	3 77 608                        # crypto_generichash/blake2b/ref/blake2b-compress-ref.c:77:608
	addq	-80(%rsp), %r13                 # 8-byte Folded Reload
.Ltmp570:
	.loc	3 77 600 is_stmt 0              # crypto_generichash/blake2b/ref/blake2b-compress-ref.c:77:600
	addq	%rbx, %r13
.Ltmp571:
	#DEBUG_VALUE: blake2b_compress_ref:v <- [DW_OP_LLVM_fragment 128 64] $r13
	.loc	3 77 664                        # crypto_generichash/blake2b/ref/blake2b-compress-ref.c:77:664
	xorq	%r13, %rsi
.Ltmp572:
	#DEBUG_VALUE: rotr64:x <- $rsi
	#DEBUG_VALUE: rotr64:b <- 32
	.loc	4 58 21 is_stmt 1               # ./include/sodium/private/common.h:58:21 @[ crypto_generichash/blake2b/ref/blake2b-compress-ref.c:77:650 ]
	rolq	$32, %rsi
.Ltmp573:
	#DEBUG_VALUE: blake2b_compress_ref:v <- [DW_OP_LLVM_fragment 896 64] $rsi
	.loc	4 0 21 is_stmt 0                # ./include/sodium/private/common.h:0:21
	movq	-112(%rsp), %r10                # 8-byte Reload
.Ltmp574:
	.loc	3 77 686 is_stmt 1              # crypto_generichash/blake2b/ref/blake2b-compress-ref.c:77:686
	addq	%rsi, %r10
.Ltmp575:
	#DEBUG_VALUE: blake2b_compress_ref:v <- [DW_OP_LLVM_fragment 640 64] $r10
	.loc	3 77 716 is_stmt 0              # crypto_generichash/blake2b/ref/blake2b-compress-ref.c:77:716
	xorq	%r10, %rbx
.Ltmp576:
	#DEBUG_VALUE: rotr64:x <- $rbx
	#DEBUG_VALUE: rotr64:b <- 24
	.loc	4 58 21 is_stmt 1               # ./include/sodium/private/common.h:58:21 @[ crypto_generichash/blake2b/ref/blake2b-compress-ref.c:77:703 ]
	rolq	$40, %rbx
.Ltmp577:
	#DEBUG_VALUE: blake2b_compress_ref:v <- [DW_OP_LLVM_fragment 384 64] $rbx
	.loc	3 77 746                        # crypto_generichash/blake2b/ref/blake2b-compress-ref.c:77:746
	addq	-88(%rsp), %r13                 # 8-byte Folded Reload
.Ltmp578:
	.loc	3 77 738 is_stmt 0              # crypto_generichash/blake2b/ref/blake2b-compress-ref.c:77:738
	addq	%rbx, %r13
.Ltmp579:
	#DEBUG_VALUE: blake2b_compress_ref:v <- [DW_OP_LLVM_fragment 128 64] $r13
	.loc	3 77 802                        # crypto_generichash/blake2b/ref/blake2b-compress-ref.c:77:802
	xorq	%r13, %rsi
.Ltmp580:
	#DEBUG_VALUE: rotr64:x <- $rsi
	#DEBUG_VALUE: rotr64:b <- 16
	.loc	4 58 21 is_stmt 1               # ./include/sodium/private/common.h:58:21 @[ crypto_generichash/blake2b/ref/blake2b-compress-ref.c:77:788 ]
	rolq	$48, %rsi
.Ltmp581:
	#DEBUG_VALUE: blake2b_compress_ref:v <- [DW_OP_LLVM_fragment 896 64] $rsi
	.loc	3 77 824                        # crypto_generichash/blake2b/ref/blake2b-compress-ref.c:77:824
	addq	%rsi, %r10
.Ltmp582:
	#DEBUG_VALUE: blake2b_compress_ref:v <- [DW_OP_LLVM_fragment 640 64] $r10
	.loc	3 77 854 is_stmt 0              # crypto_generichash/blake2b/ref/blake2b-compress-ref.c:77:854
	xorq	%r10, %rbx
.Ltmp583:
	#DEBUG_VALUE: rotr64:x <- $rbx
	#DEBUG_VALUE: rotr64:b <- 63
	.loc	4 58 21 is_stmt 1               # ./include/sodium/private/common.h:58:21 @[ crypto_generichash/blake2b/ref/blake2b-compress-ref.c:77:841 ]
	rolq	%rbx
.Ltmp584:
	#DEBUG_VALUE: blake2b_compress_ref:v <- [DW_OP_LLVM_fragment 384 64] $rbx
	.loc	3 77 902                        # crypto_generichash/blake2b/ref/blake2b-compress-ref.c:77:902
	addq	(%rsp), %rdx                    # 8-byte Folded Reload
.Ltmp585:
	.loc	3 77 894 is_stmt 0              # crypto_generichash/blake2b/ref/blake2b-compress-ref.c:77:894
	addq	%r15, %rdx
.Ltmp586:
	#DEBUG_VALUE: blake2b_compress_ref:v <- [DW_OP_LLVM_fragment 192 64] $rdx
	.loc	3 77 958                        # crypto_generichash/blake2b/ref/blake2b-compress-ref.c:77:958
	xorq	%rdx, %rbp
.Ltmp587:
	#DEBUG_VALUE: rotr64:x <- $rbp
	#DEBUG_VALUE: rotr64:b <- 32
	.loc	4 58 21 is_stmt 1               # ./include/sodium/private/common.h:58:21 @[ crypto_generichash/blake2b/ref/blake2b-compress-ref.c:77:944 ]
	rolq	$32, %rbp
.Ltmp588:
	#DEBUG_VALUE: blake2b_compress_ref:v <- [DW_OP_LLVM_fragment 960 64] $rbp
	.loc	3 77 980                        # crypto_generichash/blake2b/ref/blake2b-compress-ref.c:77:980
	addq	%rbp, %r14
.Ltmp589:
	#DEBUG_VALUE: blake2b_compress_ref:v <- [DW_OP_LLVM_fragment 704 64] $r14
	.loc	3 77 1010 is_stmt 0             # crypto_generichash/blake2b/ref/blake2b-compress-ref.c:77:1010
	xorq	%r14, %r15
.Ltmp590:
	#DEBUG_VALUE: rotr64:x <- $r15
	#DEBUG_VALUE: rotr64:b <- 24
	.loc	4 58 21 is_stmt 1               # ./include/sodium/private/common.h:58:21 @[ crypto_generichash/blake2b/ref/blake2b-compress-ref.c:77:997 ]
	rolq	$40, %r15
.Ltmp591:
	#DEBUG_VALUE: blake2b_compress_ref:v <- [DW_OP_LLVM_fragment 448 64] $r15
	.loc	3 77 1040                       # crypto_generichash/blake2b/ref/blake2b-compress-ref.c:77:1040
	addq	-32(%rsp), %rdx                 # 8-byte Folded Reload
.Ltmp592:
	.loc	3 77 1032 is_stmt 0             # crypto_generichash/blake2b/ref/blake2b-compress-ref.c:77:1032
	addq	%r15, %rdx
.Ltmp593:
	#DEBUG_VALUE: blake2b_compress_ref:v <- [DW_OP_LLVM_fragment 192 64] $rdx
	.loc	3 77 1096                       # crypto_generichash/blake2b/ref/blake2b-compress-ref.c:77:1096
	xorq	%rdx, %rbp
.Ltmp594:
	#DEBUG_VALUE: rotr64:x <- $rbp
	#DEBUG_VALUE: rotr64:b <- 16
	.loc	4 58 21 is_stmt 1               # ./include/sodium/private/common.h:58:21 @[ crypto_generichash/blake2b/ref/blake2b-compress-ref.c:77:1082 ]
	rolq	$48, %rbp
.Ltmp595:
	#DEBUG_VALUE: blake2b_compress_ref:v <- [DW_OP_LLVM_fragment 960 64] $rbp
	.loc	3 77 1118                       # crypto_generichash/blake2b/ref/blake2b-compress-ref.c:77:1118
	addq	%rbp, %r14
.Ltmp596:
	#DEBUG_VALUE: blake2b_compress_ref:v <- [DW_OP_LLVM_fragment 704 64] $r14
	.loc	3 77 1148 is_stmt 0             # crypto_generichash/blake2b/ref/blake2b-compress-ref.c:77:1148
	xorq	%r14, %r15
.Ltmp597:
	#DEBUG_VALUE: rotr64:x <- $r15
	#DEBUG_VALUE: rotr64:b <- 63
	.loc	4 58 21 is_stmt 1               # ./include/sodium/private/common.h:58:21 @[ crypto_generichash/blake2b/ref/blake2b-compress-ref.c:77:1135 ]
	rolq	%r15
.Ltmp598:
	#DEBUG_VALUE: blake2b_compress_ref:v <- [DW_OP_LLVM_fragment 448 64] $r15
	.loc	3 77 1196                       # crypto_generichash/blake2b/ref/blake2b-compress-ref.c:77:1196
	addq	-8(%rsp), %r9                   # 8-byte Folded Reload
.Ltmp599:
	.loc	3 77 1188 is_stmt 0             # crypto_generichash/blake2b/ref/blake2b-compress-ref.c:77:1188
	addq	%r12, %r9
.Ltmp600:
	#DEBUG_VALUE: blake2b_compress_ref:v <- [DW_OP_LLVM_fragment 0 64] $r9
	.loc	3 77 1252                       # crypto_generichash/blake2b/ref/blake2b-compress-ref.c:77:1252
	xorq	%r9, %rbp
.Ltmp601:
	#DEBUG_VALUE: rotr64:x <- $rbp
	#DEBUG_VALUE: rotr64:b <- 32
	.loc	4 58 21 is_stmt 1               # ./include/sodium/private/common.h:58:21 @[ crypto_generichash/blake2b/ref/blake2b-compress-ref.c:77:1238 ]
	rolq	$32, %rbp
.Ltmp602:
	#DEBUG_VALUE: blake2b_compress_ref:v <- [DW_OP_LLVM_fragment 960 64] $rbp
	.loc	3 77 1274                       # crypto_generichash/blake2b/ref/blake2b-compress-ref.c:77:1274
	addq	%rbp, %r10
.Ltmp603:
	#DEBUG_VALUE: blake2b_compress_ref:v <- [DW_OP_LLVM_fragment 640 64] $r10
	.loc	3 77 1304 is_stmt 0             # crypto_generichash/blake2b/ref/blake2b-compress-ref.c:77:1304
	xorq	%r10, %r12
.Ltmp604:
	#DEBUG_VALUE: rotr64:x <- $r12
	#DEBUG_VALUE: rotr64:b <- 24
	.loc	4 58 21 is_stmt 1               # ./include/sodium/private/common.h:58:21 @[ crypto_generichash/blake2b/ref/blake2b-compress-ref.c:77:1291 ]
	rolq	$40, %r12
.Ltmp605:
	#DEBUG_VALUE: blake2b_compress_ref:v <- [DW_OP_LLVM_fragment 320 64] $r12
	.loc	3 77 1334                       # crypto_generichash/blake2b/ref/blake2b-compress-ref.c:77:1334
	addq	-24(%rsp), %r9                  # 8-byte Folded Reload
.Ltmp606:
	.loc	3 77 1326 is_stmt 0             # crypto_generichash/blake2b/ref/blake2b-compress-ref.c:77:1326
	addq	%r12, %r9
.Ltmp607:
	#DEBUG_VALUE: blake2b_compress_ref:v <- [DW_OP_LLVM_fragment 0 64] $r9
	.loc	3 77 1390                       # crypto_generichash/blake2b/ref/blake2b-compress-ref.c:77:1390
	xorq	%r9, %rbp
.Ltmp608:
	#DEBUG_VALUE: rotr64:x <- $rbp
	#DEBUG_VALUE: rotr64:b <- 16
	.loc	4 58 21 is_stmt 1               # ./include/sodium/private/common.h:58:21 @[ crypto_generichash/blake2b/ref/blake2b-compress-ref.c:77:1376 ]
	rolq	$48, %rbp
.Ltmp609:
	#DEBUG_VALUE: blake2b_compress_ref:v <- [DW_OP_LLVM_fragment 960 64] $rbp
	.loc	3 77 1412                       # crypto_generichash/blake2b/ref/blake2b-compress-ref.c:77:1412
	addq	%rbp, %r10
.Ltmp610:
	#DEBUG_VALUE: blake2b_compress_ref:v <- [DW_OP_LLVM_fragment 640 64] $r10
	.loc	3 77 1442 is_stmt 0             # crypto_generichash/blake2b/ref/blake2b-compress-ref.c:77:1442
	xorq	%r10, %r12
.Ltmp611:
	#DEBUG_VALUE: rotr64:x <- $r12
	#DEBUG_VALUE: rotr64:b <- 63
	.loc	4 58 21 is_stmt 1               # ./include/sodium/private/common.h:58:21 @[ crypto_generichash/blake2b/ref/blake2b-compress-ref.c:77:1429 ]
	rolq	%r12
.Ltmp612:
	#DEBUG_VALUE: blake2b_compress_ref:v <- [DW_OP_LLVM_fragment 320 64] $r12
	.loc	3 77 1490                       # crypto_generichash/blake2b/ref/blake2b-compress-ref.c:77:1490
	addq	8(%rsp), %r11                   # 8-byte Folded Reload
.Ltmp613:
	.loc	3 77 1482 is_stmt 0             # crypto_generichash/blake2b/ref/blake2b-compress-ref.c:77:1482
	addq	%rbx, %r11
.Ltmp614:
	#DEBUG_VALUE: blake2b_compress_ref:v <- [DW_OP_LLVM_fragment 64 64] $r11
	.loc	3 77 1546                       # crypto_generichash/blake2b/ref/blake2b-compress-ref.c:77:1546
	xorq	%r11, %rcx
.Ltmp615:
	#DEBUG_VALUE: rotr64:x <- $rcx
	#DEBUG_VALUE: rotr64:b <- 32
	.loc	4 58 21 is_stmt 1               # ./include/sodium/private/common.h:58:21 @[ crypto_generichash/blake2b/ref/blake2b-compress-ref.c:77:1532 ]
	rolq	$32, %rcx
.Ltmp616:
	#DEBUG_VALUE: blake2b_compress_ref:v <- [DW_OP_LLVM_fragment 768 64] $rcx
	.loc	3 77 1568                       # crypto_generichash/blake2b/ref/blake2b-compress-ref.c:77:1568
	addq	%rcx, %r14
.Ltmp617:
	#DEBUG_VALUE: blake2b_compress_ref:v <- [DW_OP_LLVM_fragment 704 64] $r14
	.loc	3 77 1598 is_stmt 0             # crypto_generichash/blake2b/ref/blake2b-compress-ref.c:77:1598
	xorq	%r14, %rbx
.Ltmp618:
	#DEBUG_VALUE: rotr64:x <- $rbx
	#DEBUG_VALUE: rotr64:b <- 24
	.loc	4 58 21 is_stmt 1               # ./include/sodium/private/common.h:58:21 @[ crypto_generichash/blake2b/ref/blake2b-compress-ref.c:77:1585 ]
	rolq	$40, %rbx
.Ltmp619:
	#DEBUG_VALUE: blake2b_compress_ref:v <- [DW_OP_LLVM_fragment 384 64] $rbx
	.loc	3 77 1628                       # crypto_generichash/blake2b/ref/blake2b-compress-ref.c:77:1628
	addq	-104(%rsp), %r11                # 8-byte Folded Reload
.Ltmp620:
	.loc	3 77 1620 is_stmt 0             # crypto_generichash/blake2b/ref/blake2b-compress-ref.c:77:1620
	addq	%rbx, %r11
.Ltmp621:
	#DEBUG_VALUE: blake2b_compress_ref:v <- [DW_OP_LLVM_fragment 64 64] $r11
	.loc	3 77 1684                       # crypto_generichash/blake2b/ref/blake2b-compress-ref.c:77:1684
	xorq	%r11, %rcx
.Ltmp622:
	#DEBUG_VALUE: rotr64:x <- $rcx
	#DEBUG_VALUE: rotr64:b <- 16
	.loc	4 58 21 is_stmt 1               # ./include/sodium/private/common.h:58:21 @[ crypto_generichash/blake2b/ref/blake2b-compress-ref.c:77:1670 ]
	rolq	$48, %rcx
.Ltmp623:
	#DEBUG_VALUE: blake2b_compress_ref:v <- [DW_OP_LLVM_fragment 768 64] $rcx
	.loc	3 77 1706                       # crypto_generichash/blake2b/ref/blake2b-compress-ref.c:77:1706
	addq	%rcx, %r14
.Ltmp624:
	#DEBUG_VALUE: blake2b_compress_ref:v <- [DW_OP_LLVM_fragment 704 64] $r14
	.loc	3 77 1736 is_stmt 0             # crypto_generichash/blake2b/ref/blake2b-compress-ref.c:77:1736
	xorq	%r14, %rbx
.Ltmp625:
	#DEBUG_VALUE: rotr64:x <- $rbx
	#DEBUG_VALUE: rotr64:b <- 63
	.loc	4 58 21 is_stmt 1               # ./include/sodium/private/common.h:58:21 @[ crypto_generichash/blake2b/ref/blake2b-compress-ref.c:77:1723 ]
	rolq	%rbx
.Ltmp626:
	#DEBUG_VALUE: blake2b_compress_ref:v <- [DW_OP_LLVM_fragment 384 64] $rbx
	.loc	3 77 1784                       # crypto_generichash/blake2b/ref/blake2b-compress-ref.c:77:1784
	addq	-48(%rsp), %r13                 # 8-byte Folded Reload
.Ltmp627:
	.loc	3 77 1776 is_stmt 0             # crypto_generichash/blake2b/ref/blake2b-compress-ref.c:77:1776
	addq	%r15, %r13
.Ltmp628:
	#DEBUG_VALUE: blake2b_compress_ref:v <- [DW_OP_LLVM_fragment 128 64] $r13
	.loc	3 77 1840                       # crypto_generichash/blake2b/ref/blake2b-compress-ref.c:77:1840
	xorq	%r13, %rdi
.Ltmp629:
	#DEBUG_VALUE: rotr64:x <- $rdi
	#DEBUG_VALUE: rotr64:b <- 32
	.loc	4 58 21 is_stmt 1               # ./include/sodium/private/common.h:58:21 @[ crypto_generichash/blake2b/ref/blake2b-compress-ref.c:77:1826 ]
	rolq	$32, %rdi
.Ltmp630:
	#DEBUG_VALUE: blake2b_compress_ref:v <- [DW_OP_LLVM_fragment 832 64] $rdi
	.loc	4 0 21 is_stmt 0                # ./include/sodium/private/common.h:0:21
	movq	-120(%rsp), %rax                # 8-byte Reload
.Ltmp631:
	.loc	3 77 1861 is_stmt 1             # crypto_generichash/blake2b/ref/blake2b-compress-ref.c:77:1861
	addq	%rdi, %rax
.Ltmp632:
	#DEBUG_VALUE: blake2b_compress_ref:v <- [DW_OP_LLVM_fragment 512 64] $rax
	.loc	3 77 1891 is_stmt 0             # crypto_generichash/blake2b/ref/blake2b-compress-ref.c:77:1891
	xorq	%rax, %r15
.Ltmp633:
	#DEBUG_VALUE: rotr64:x <- $r15
	#DEBUG_VALUE: rotr64:b <- 24
	.loc	4 58 21 is_stmt 1               # ./include/sodium/private/common.h:58:21 @[ crypto_generichash/blake2b/ref/blake2b-compress-ref.c:77:1878 ]
	rolq	$40, %r15
.Ltmp634:
	#DEBUG_VALUE: blake2b_compress_ref:v <- [DW_OP_LLVM_fragment 448 64] $r15
	.loc	3 77 1920                       # crypto_generichash/blake2b/ref/blake2b-compress-ref.c:77:1920
	addq	-64(%rsp), %r13                 # 8-byte Folded Reload
.Ltmp635:
	.loc	3 77 1912 is_stmt 0             # crypto_generichash/blake2b/ref/blake2b-compress-ref.c:77:1912
	addq	%r15, %r13
.Ltmp636:
	#DEBUG_VALUE: blake2b_compress_ref:v <- [DW_OP_LLVM_fragment 128 64] $r13
	.loc	3 77 1976                       # crypto_generichash/blake2b/ref/blake2b-compress-ref.c:77:1976
	xorq	%r13, %rdi
.Ltmp637:
	#DEBUG_VALUE: rotr64:x <- $rdi
	#DEBUG_VALUE: rotr64:b <- 16
	.loc	4 58 21 is_stmt 1               # ./include/sodium/private/common.h:58:21 @[ crypto_generichash/blake2b/ref/blake2b-compress-ref.c:77:1962 ]
	rolq	$48, %rdi
.Ltmp638:
	#DEBUG_VALUE: blake2b_compress_ref:v <- [DW_OP_LLVM_fragment 832 64] $rdi
	.loc	3 77 1997                       # crypto_generichash/blake2b/ref/blake2b-compress-ref.c:77:1997
	addq	%rdi, %rax
.Ltmp639:
	#DEBUG_VALUE: blake2b_compress_ref:v <- [DW_OP_LLVM_fragment 512 64] $rax
	.loc	3 0 1997 is_stmt 0              # crypto_generichash/blake2b/ref/blake2b-compress-ref.c:0:1997
	movq	%rax, -120(%rsp)                # 8-byte Spill
.Ltmp640:
	#DEBUG_VALUE: blake2b_compress_ref:v <- [DW_OP_constu 120, DW_OP_minus, DW_OP_deref, DW_OP_LLVM_fragment 512 64] $rsp
	.loc	3 77 2027                       # crypto_generichash/blake2b/ref/blake2b-compress-ref.c:77:2027
	xorq	%rax, %r15
.Ltmp641:
	#DEBUG_VALUE: rotr64:x <- $r15
	#DEBUG_VALUE: rotr64:b <- 63
	.loc	4 58 21 is_stmt 1               # ./include/sodium/private/common.h:58:21 @[ crypto_generichash/blake2b/ref/blake2b-compress-ref.c:77:2014 ]
	rolq	%r15
.Ltmp642:
	#DEBUG_VALUE: blake2b_compress_ref:v <- [DW_OP_LLVM_fragment 448 64] $r15
	.loc	3 77 2074                       # crypto_generichash/blake2b/ref/blake2b-compress-ref.c:77:2074
	addq	-72(%rsp), %rdx                 # 8-byte Folded Reload
.Ltmp643:
	.loc	3 77 2066 is_stmt 0             # crypto_generichash/blake2b/ref/blake2b-compress-ref.c:77:2066
	addq	%r8, %rdx
.Ltmp644:
	#DEBUG_VALUE: blake2b_compress_ref:v <- [DW_OP_LLVM_fragment 192 64] $rdx
	.loc	3 77 2130                       # crypto_generichash/blake2b/ref/blake2b-compress-ref.c:77:2130
	xorq	%rdx, %rsi
.Ltmp645:
	#DEBUG_VALUE: rotr64:x <- $rsi
	#DEBUG_VALUE: rotr64:b <- 32
	.loc	4 58 21 is_stmt 1               # ./include/sodium/private/common.h:58:21 @[ crypto_generichash/blake2b/ref/blake2b-compress-ref.c:77:2116 ]
	rolq	$32, %rsi
.Ltmp646:
	#DEBUG_VALUE: blake2b_compress_ref:v <- [DW_OP_LLVM_fragment 896 64] $rsi
	.loc	4 0 21 is_stmt 0                # ./include/sodium/private/common.h:0:21
	movq	-128(%rsp), %rax                # 8-byte Reload
.Ltmp647:
	.loc	3 77 2151 is_stmt 1             # crypto_generichash/blake2b/ref/blake2b-compress-ref.c:77:2151
	addq	%rsi, %rax
.Ltmp648:
	#DEBUG_VALUE: blake2b_compress_ref:v <- [DW_OP_LLVM_fragment 576 64] $rax
	.loc	3 77 2181 is_stmt 0             # crypto_generichash/blake2b/ref/blake2b-compress-ref.c:77:2181
	xorq	%rax, %r8
.Ltmp649:
	#DEBUG_VALUE: rotr64:x <- $r8
	#DEBUG_VALUE: rotr64:b <- 24
	.loc	4 58 21 is_stmt 1               # ./include/sodium/private/common.h:58:21 @[ crypto_generichash/blake2b/ref/blake2b-compress-ref.c:77:2168 ]
	rolq	$40, %r8
.Ltmp650:
	#DEBUG_VALUE: blake2b_compress_ref:v <- [DW_OP_LLVM_fragment 256 64] $r8
	.loc	3 77 2210                       # crypto_generichash/blake2b/ref/blake2b-compress-ref.c:77:2210
	addq	-40(%rsp), %rdx                 # 8-byte Folded Reload
.Ltmp651:
	.loc	3 77 2202 is_stmt 0             # crypto_generichash/blake2b/ref/blake2b-compress-ref.c:77:2202
	addq	%r8, %rdx
.Ltmp652:
	#DEBUG_VALUE: blake2b_compress_ref:v <- [DW_OP_LLVM_fragment 192 64] $rdx
	.loc	3 77 2266                       # crypto_generichash/blake2b/ref/blake2b-compress-ref.c:77:2266
	xorq	%rdx, %rsi
.Ltmp653:
	#DEBUG_VALUE: rotr64:x <- $rsi
	#DEBUG_VALUE: rotr64:b <- 16
	.loc	4 58 21 is_stmt 1               # ./include/sodium/private/common.h:58:21 @[ crypto_generichash/blake2b/ref/blake2b-compress-ref.c:77:2252 ]
	rolq	$48, %rsi
.Ltmp654:
	#DEBUG_VALUE: blake2b_compress_ref:v <- [DW_OP_LLVM_fragment 896 64] $rsi
	.loc	3 77 2287                       # crypto_generichash/blake2b/ref/blake2b-compress-ref.c:77:2287
	addq	%rsi, %rax
.Ltmp655:
	#DEBUG_VALUE: blake2b_compress_ref:v <- [DW_OP_LLVM_fragment 576 64] $rax
	.loc	3 0 2287 is_stmt 0              # crypto_generichash/blake2b/ref/blake2b-compress-ref.c:0:2287
	movq	%rax, -128(%rsp)                # 8-byte Spill
.Ltmp656:
	#DEBUG_VALUE: blake2b_compress_ref:v <- [DW_OP_constu 128, DW_OP_minus, DW_OP_deref, DW_OP_LLVM_fragment 576 64] $rsp
	.loc	3 77 2317                       # crypto_generichash/blake2b/ref/blake2b-compress-ref.c:77:2317
	xorq	%rax, %r8
.Ltmp657:
	#DEBUG_VALUE: rotr64:x <- $r8
	#DEBUG_VALUE: rotr64:b <- 63
	.loc	4 58 21 is_stmt 1               # ./include/sodium/private/common.h:58:21 @[ crypto_generichash/blake2b/ref/blake2b-compress-ref.c:77:2304 ]
	rolq	%r8
.Ltmp658:
	#DEBUG_VALUE: blake2b_compress_ref:v <- [DW_OP_LLVM_fragment 256 64] $r8
	.loc	3 78 28                         # crypto_generichash/blake2b/ref/blake2b-compress-ref.c:78:28
	addq	-80(%rsp), %r9                  # 8-byte Folded Reload
.Ltmp659:
	.loc	3 78 20 is_stmt 0               # crypto_generichash/blake2b/ref/blake2b-compress-ref.c:78:20
	addq	%r8, %r9
.Ltmp660:
	#DEBUG_VALUE: blake2b_compress_ref:v <- [DW_OP_LLVM_fragment 0 64] $r9
	.loc	3 78 84                         # crypto_generichash/blake2b/ref/blake2b-compress-ref.c:78:84
	xorq	%r9, %rcx
.Ltmp661:
	#DEBUG_VALUE: rotr64:x <- $rcx
	#DEBUG_VALUE: rotr64:b <- 32
	.loc	4 58 21 is_stmt 1               # ./include/sodium/private/common.h:58:21 @[ crypto_generichash/blake2b/ref/blake2b-compress-ref.c:78:70 ]
	rolq	$32, %rcx
.Ltmp662:
	#DEBUG_VALUE: blake2b_compress_ref:v <- [DW_OP_LLVM_fragment 768 64] $rcx
	.loc	4 0 21 is_stmt 0                # ./include/sodium/private/common.h:0:21
	movq	-120(%rsp), %rax                # 8-byte Reload
.Ltmp663:
	.loc	3 78 105 is_stmt 1              # crypto_generichash/blake2b/ref/blake2b-compress-ref.c:78:105
	addq	%rcx, %rax
.Ltmp664:
	#DEBUG_VALUE: blake2b_compress_ref:v <- [DW_OP_LLVM_fragment 512 64] $rax
	.loc	3 78 135 is_stmt 0              # crypto_generichash/blake2b/ref/blake2b-compress-ref.c:78:135
	xorq	%rax, %r8
.Ltmp665:
	#DEBUG_VALUE: rotr64:x <- $r8
	#DEBUG_VALUE: rotr64:b <- 24
	.loc	4 58 21 is_stmt 1               # ./include/sodium/private/common.h:58:21 @[ crypto_generichash/blake2b/ref/blake2b-compress-ref.c:78:122 ]
	rolq	$40, %r8
.Ltmp666:
	#DEBUG_VALUE: blake2b_compress_ref:v <- [DW_OP_LLVM_fragment 256 64] $r8
	.loc	3 78 164                        # crypto_generichash/blake2b/ref/blake2b-compress-ref.c:78:164
	addq	-104(%rsp), %r9                 # 8-byte Folded Reload
.Ltmp667:
	.loc	3 78 156 is_stmt 0              # crypto_generichash/blake2b/ref/blake2b-compress-ref.c:78:156
	addq	%r8, %r9
.Ltmp668:
	#DEBUG_VALUE: blake2b_compress_ref:v <- [DW_OP_LLVM_fragment 0 64] $r9
	.loc	3 78 220                        # crypto_generichash/blake2b/ref/blake2b-compress-ref.c:78:220
	xorq	%r9, %rcx
.Ltmp669:
	#DEBUG_VALUE: rotr64:x <- $rcx
	#DEBUG_VALUE: rotr64:b <- 16
	.loc	4 58 21 is_stmt 1               # ./include/sodium/private/common.h:58:21 @[ crypto_generichash/blake2b/ref/blake2b-compress-ref.c:78:206 ]
	rolq	$48, %rcx
.Ltmp670:
	#DEBUG_VALUE: blake2b_compress_ref:v <- [DW_OP_LLVM_fragment 768 64] $rcx
	.loc	3 78 241                        # crypto_generichash/blake2b/ref/blake2b-compress-ref.c:78:241
	addq	%rcx, %rax
.Ltmp671:
	#DEBUG_VALUE: blake2b_compress_ref:v <- [DW_OP_LLVM_fragment 512 64] $rax
	.loc	3 0 241 is_stmt 0               # crypto_generichash/blake2b/ref/blake2b-compress-ref.c:0:241
	movq	%rax, -120(%rsp)                # 8-byte Spill
.Ltmp672:
	#DEBUG_VALUE: blake2b_compress_ref:v <- [DW_OP_constu 120, DW_OP_minus, DW_OP_deref, DW_OP_LLVM_fragment 512 64] $rsp
	.loc	3 78 271                        # crypto_generichash/blake2b/ref/blake2b-compress-ref.c:78:271
	xorq	%rax, %r8
.Ltmp673:
	#DEBUG_VALUE: rotr64:x <- $r8
	#DEBUG_VALUE: rotr64:b <- 63
	.loc	4 58 21 is_stmt 1               # ./include/sodium/private/common.h:58:21 @[ crypto_generichash/blake2b/ref/blake2b-compress-ref.c:78:258 ]
	rolq	%r8
.Ltmp674:
	#DEBUG_VALUE: blake2b_compress_ref:v <- [DW_OP_LLVM_fragment 256 64] $r8
	.loc	3 78 318                        # crypto_generichash/blake2b/ref/blake2b-compress-ref.c:78:318
	addq	-48(%rsp), %r11                 # 8-byte Folded Reload
.Ltmp675:
	.loc	3 78 310 is_stmt 0              # crypto_generichash/blake2b/ref/blake2b-compress-ref.c:78:310
	addq	%r12, %r11
.Ltmp676:
	#DEBUG_VALUE: blake2b_compress_ref:v <- [DW_OP_LLVM_fragment 64 64] $r11
	.loc	3 78 374                        # crypto_generichash/blake2b/ref/blake2b-compress-ref.c:78:374
	xorq	%r11, %rdi
.Ltmp677:
	#DEBUG_VALUE: rotr64:x <- $rdi
	#DEBUG_VALUE: rotr64:b <- 32
	.loc	4 58 21 is_stmt 1               # ./include/sodium/private/common.h:58:21 @[ crypto_generichash/blake2b/ref/blake2b-compress-ref.c:78:360 ]
	rolq	$32, %rdi
.Ltmp678:
	#DEBUG_VALUE: blake2b_compress_ref:v <- [DW_OP_LLVM_fragment 832 64] $rdi
	.loc	4 0 21 is_stmt 0                # ./include/sodium/private/common.h:0:21
	movq	-128(%rsp), %rax                # 8-byte Reload
.Ltmp679:
	.loc	3 78 395 is_stmt 1              # crypto_generichash/blake2b/ref/blake2b-compress-ref.c:78:395
	addq	%rdi, %rax
.Ltmp680:
	#DEBUG_VALUE: blake2b_compress_ref:v <- [DW_OP_LLVM_fragment 576 64] $rax
	.loc	3 78 425 is_stmt 0              # crypto_generichash/blake2b/ref/blake2b-compress-ref.c:78:425
	xorq	%rax, %r12
.Ltmp681:
	#DEBUG_VALUE: rotr64:x <- $r12
	#DEBUG_VALUE: rotr64:b <- 24
	.loc	4 58 21 is_stmt 1               # ./include/sodium/private/common.h:58:21 @[ crypto_generichash/blake2b/ref/blake2b-compress-ref.c:78:412 ]
	rolq	$40, %r12
.Ltmp682:
	#DEBUG_VALUE: blake2b_compress_ref:v <- [DW_OP_LLVM_fragment 320 64] $r12
	.loc	3 78 454                        # crypto_generichash/blake2b/ref/blake2b-compress-ref.c:78:454
	addq	(%rsp), %r11                    # 8-byte Folded Reload
.Ltmp683:
	.loc	3 78 446 is_stmt 0              # crypto_generichash/blake2b/ref/blake2b-compress-ref.c:78:446
	addq	%r12, %r11
.Ltmp684:
	#DEBUG_VALUE: blake2b_compress_ref:v <- [DW_OP_LLVM_fragment 64 64] $r11
	.loc	3 78 510                        # crypto_generichash/blake2b/ref/blake2b-compress-ref.c:78:510
	xorq	%r11, %rdi
.Ltmp685:
	#DEBUG_VALUE: rotr64:x <- $rdi
	#DEBUG_VALUE: rotr64:b <- 16
	.loc	4 58 21 is_stmt 1               # ./include/sodium/private/common.h:58:21 @[ crypto_generichash/blake2b/ref/blake2b-compress-ref.c:78:496 ]
	rolq	$48, %rdi
.Ltmp686:
	#DEBUG_VALUE: blake2b_compress_ref:v <- [DW_OP_LLVM_fragment 832 64] $rdi
	.loc	3 78 531                        # crypto_generichash/blake2b/ref/blake2b-compress-ref.c:78:531
	addq	%rdi, %rax
.Ltmp687:
	#DEBUG_VALUE: blake2b_compress_ref:v <- [DW_OP_LLVM_fragment 576 64] $rax
	.loc	3 0 531 is_stmt 0               # crypto_generichash/blake2b/ref/blake2b-compress-ref.c:0:531
	movq	%rax, -128(%rsp)                # 8-byte Spill
.Ltmp688:
	#DEBUG_VALUE: blake2b_compress_ref:v <- [DW_OP_constu 128, DW_OP_minus, DW_OP_deref, DW_OP_LLVM_fragment 576 64] $rsp
	.loc	3 78 561                        # crypto_generichash/blake2b/ref/blake2b-compress-ref.c:78:561
	xorq	%rax, %r12
.Ltmp689:
	#DEBUG_VALUE: rotr64:x <- $r12
	#DEBUG_VALUE: rotr64:b <- 63
	.loc	4 58 21 is_stmt 1               # ./include/sodium/private/common.h:58:21 @[ crypto_generichash/blake2b/ref/blake2b-compress-ref.c:78:548 ]
	rolq	%r12
.Ltmp690:
	#DEBUG_VALUE: blake2b_compress_ref:v <- [DW_OP_LLVM_fragment 320 64] $r12
	.loc	3 78 608                        # crypto_generichash/blake2b/ref/blake2b-compress-ref.c:78:608
	addq	16(%rsp), %r13                  # 8-byte Folded Reload
.Ltmp691:
	.loc	3 78 600 is_stmt 0              # crypto_generichash/blake2b/ref/blake2b-compress-ref.c:78:600
	addq	%rbx, %r13
.Ltmp692:
	#DEBUG_VALUE: blake2b_compress_ref:v <- [DW_OP_LLVM_fragment 128 64] $r13
	.loc	3 78 664                        # crypto_generichash/blake2b/ref/blake2b-compress-ref.c:78:664
	xorq	%r13, %rsi
.Ltmp693:
	#DEBUG_VALUE: rotr64:x <- $rsi
	#DEBUG_VALUE: rotr64:b <- 32
	.loc	4 58 21 is_stmt 1               # ./include/sodium/private/common.h:58:21 @[ crypto_generichash/blake2b/ref/blake2b-compress-ref.c:78:650 ]
	rolq	$32, %rsi
.Ltmp694:
	#DEBUG_VALUE: blake2b_compress_ref:v <- [DW_OP_LLVM_fragment 896 64] $rsi
	.loc	3 78 686                        # crypto_generichash/blake2b/ref/blake2b-compress-ref.c:78:686
	addq	%rsi, %r10
.Ltmp695:
	#DEBUG_VALUE: blake2b_compress_ref:v <- [DW_OP_LLVM_fragment 640 64] $r10
	.loc	3 78 716 is_stmt 0              # crypto_generichash/blake2b/ref/blake2b-compress-ref.c:78:716
	xorq	%r10, %rbx
.Ltmp696:
	#DEBUG_VALUE: rotr64:x <- $rbx
	#DEBUG_VALUE: rotr64:b <- 24
	.loc	4 58 21 is_stmt 1               # ./include/sodium/private/common.h:58:21 @[ crypto_generichash/blake2b/ref/blake2b-compress-ref.c:78:703 ]
	rolq	$40, %rbx
.Ltmp697:
	#DEBUG_VALUE: blake2b_compress_ref:v <- [DW_OP_LLVM_fragment 384 64] $rbx
	.loc	3 78 746                        # crypto_generichash/blake2b/ref/blake2b-compress-ref.c:78:746
	addq	8(%rsp), %r13                   # 8-byte Folded Reload
.Ltmp698:
	.loc	3 78 738 is_stmt 0              # crypto_generichash/blake2b/ref/blake2b-compress-ref.c:78:738
	addq	%rbx, %r13
.Ltmp699:
	#DEBUG_VALUE: blake2b_compress_ref:v <- [DW_OP_LLVM_fragment 128 64] $r13
	.loc	3 78 802                        # crypto_generichash/blake2b/ref/blake2b-compress-ref.c:78:802
	xorq	%r13, %rsi
.Ltmp700:
	#DEBUG_VALUE: rotr64:x <- $rsi
	#DEBUG_VALUE: rotr64:b <- 16
	.loc	4 58 21 is_stmt 1               # ./include/sodium/private/common.h:58:21 @[ crypto_generichash/blake2b/ref/blake2b-compress-ref.c:78:788 ]
	rolq	$48, %rsi
.Ltmp701:
	#DEBUG_VALUE: blake2b_compress_ref:v <- [DW_OP_LLVM_fragment 896 64] $rsi
	.loc	3 78 824                        # crypto_generichash/blake2b/ref/blake2b-compress-ref.c:78:824
	addq	%rsi, %r10
.Ltmp702:
	#DEBUG_VALUE: blake2b_compress_ref:v <- [DW_OP_LLVM_fragment 640 64] $r10
	.loc	3 78 854 is_stmt 0              # crypto_generichash/blake2b/ref/blake2b-compress-ref.c:78:854
	xorq	%r10, %rbx
.Ltmp703:
	#DEBUG_VALUE: rotr64:x <- $rbx
	#DEBUG_VALUE: rotr64:b <- 63
	.loc	4 58 21 is_stmt 1               # ./include/sodium/private/common.h:58:21 @[ crypto_generichash/blake2b/ref/blake2b-compress-ref.c:78:841 ]
	rolq	%rbx
.Ltmp704:
	#DEBUG_VALUE: blake2b_compress_ref:v <- [DW_OP_LLVM_fragment 384 64] $rbx
	.loc	3 78 902                        # crypto_generichash/blake2b/ref/blake2b-compress-ref.c:78:902
	addq	-64(%rsp), %rdx                 # 8-byte Folded Reload
.Ltmp705:
	.loc	3 78 894 is_stmt 0              # crypto_generichash/blake2b/ref/blake2b-compress-ref.c:78:894
	addq	%r15, %rdx
.Ltmp706:
	#DEBUG_VALUE: blake2b_compress_ref:v <- [DW_OP_LLVM_fragment 192 64] $rdx
	.loc	3 78 958                        # crypto_generichash/blake2b/ref/blake2b-compress-ref.c:78:958
	xorq	%rdx, %rbp
.Ltmp707:
	#DEBUG_VALUE: rotr64:x <- $rbp
	#DEBUG_VALUE: rotr64:b <- 32
	.loc	4 58 21 is_stmt 1               # ./include/sodium/private/common.h:58:21 @[ crypto_generichash/blake2b/ref/blake2b-compress-ref.c:78:944 ]
	rolq	$32, %rbp
.Ltmp708:
	#DEBUG_VALUE: blake2b_compress_ref:v <- [DW_OP_LLVM_fragment 960 64] $rbp
	.loc	3 78 980                        # crypto_generichash/blake2b/ref/blake2b-compress-ref.c:78:980
	addq	%rbp, %r14
.Ltmp709:
	#DEBUG_VALUE: blake2b_compress_ref:v <- [DW_OP_LLVM_fragment 704 64] $r14
	.loc	3 78 1010 is_stmt 0             # crypto_generichash/blake2b/ref/blake2b-compress-ref.c:78:1010
	xorq	%r14, %r15
.Ltmp710:
	#DEBUG_VALUE: rotr64:x <- $r15
	#DEBUG_VALUE: rotr64:b <- 24
	.loc	4 58 21 is_stmt 1               # ./include/sodium/private/common.h:58:21 @[ crypto_generichash/blake2b/ref/blake2b-compress-ref.c:78:997 ]
	rolq	$40, %r15
.Ltmp711:
	#DEBUG_VALUE: blake2b_compress_ref:v <- [DW_OP_LLVM_fragment 448 64] $r15
	.loc	3 78 1040                       # crypto_generichash/blake2b/ref/blake2b-compress-ref.c:78:1040
	addq	-72(%rsp), %rdx                 # 8-byte Folded Reload
.Ltmp712:
	.loc	3 78 1032 is_stmt 0             # crypto_generichash/blake2b/ref/blake2b-compress-ref.c:78:1032
	addq	%r15, %rdx
.Ltmp713:
	#DEBUG_VALUE: blake2b_compress_ref:v <- [DW_OP_LLVM_fragment 192 64] $rdx
	.loc	3 78 1096                       # crypto_generichash/blake2b/ref/blake2b-compress-ref.c:78:1096
	xorq	%rdx, %rbp
.Ltmp714:
	#DEBUG_VALUE: rotr64:x <- $rbp
	#DEBUG_VALUE: rotr64:b <- 16
	.loc	4 58 21 is_stmt 1               # ./include/sodium/private/common.h:58:21 @[ crypto_generichash/blake2b/ref/blake2b-compress-ref.c:78:1082 ]
	rolq	$48, %rbp
.Ltmp715:
	#DEBUG_VALUE: blake2b_compress_ref:v <- [DW_OP_LLVM_fragment 960 64] $rbp
	.loc	3 78 1118                       # crypto_generichash/blake2b/ref/blake2b-compress-ref.c:78:1118
	addq	%rbp, %r14
.Ltmp716:
	#DEBUG_VALUE: blake2b_compress_ref:v <- [DW_OP_LLVM_fragment 704 64] $r14
	.loc	3 78 1148 is_stmt 0             # crypto_generichash/blake2b/ref/blake2b-compress-ref.c:78:1148
	xorq	%r14, %r15
.Ltmp717:
	#DEBUG_VALUE: rotr64:x <- $r15
	#DEBUG_VALUE: rotr64:b <- 63
	.loc	4 58 21 is_stmt 1               # ./include/sodium/private/common.h:58:21 @[ crypto_generichash/blake2b/ref/blake2b-compress-ref.c:78:1135 ]
	rolq	%r15
.Ltmp718:
	#DEBUG_VALUE: blake2b_compress_ref:v <- [DW_OP_LLVM_fragment 448 64] $r15
	.loc	3 78 1196                       # crypto_generichash/blake2b/ref/blake2b-compress-ref.c:78:1196
	addq	-88(%rsp), %r9                  # 8-byte Folded Reload
.Ltmp719:
	.loc	3 78 1188 is_stmt 0             # crypto_generichash/blake2b/ref/blake2b-compress-ref.c:78:1188
	addq	%r12, %r9
.Ltmp720:
	#DEBUG_VALUE: blake2b_compress_ref:v <- [DW_OP_LLVM_fragment 0 64] $r9
	.loc	3 78 1252                       # crypto_generichash/blake2b/ref/blake2b-compress-ref.c:78:1252
	xorq	%r9, %rbp
.Ltmp721:
	#DEBUG_VALUE: rotr64:x <- $rbp
	#DEBUG_VALUE: rotr64:b <- 32
	.loc	4 58 21 is_stmt 1               # ./include/sodium/private/common.h:58:21 @[ crypto_generichash/blake2b/ref/blake2b-compress-ref.c:78:1238 ]
	rolq	$32, %rbp
.Ltmp722:
	#DEBUG_VALUE: blake2b_compress_ref:v <- [DW_OP_LLVM_fragment 960 64] $rbp
	.loc	3 78 1274                       # crypto_generichash/blake2b/ref/blake2b-compress-ref.c:78:1274
	addq	%rbp, %r10
.Ltmp723:
	#DEBUG_VALUE: blake2b_compress_ref:v <- [DW_OP_LLVM_fragment 640 64] $r10
	.loc	3 78 1304 is_stmt 0             # crypto_generichash/blake2b/ref/blake2b-compress-ref.c:78:1304
	xorq	%r10, %r12
.Ltmp724:
	#DEBUG_VALUE: rotr64:x <- $r12
	#DEBUG_VALUE: rotr64:b <- 24
	.loc	4 58 21 is_stmt 1               # ./include/sodium/private/common.h:58:21 @[ crypto_generichash/blake2b/ref/blake2b-compress-ref.c:78:1291 ]
	rolq	$40, %r12
.Ltmp725:
	#DEBUG_VALUE: blake2b_compress_ref:v <- [DW_OP_LLVM_fragment 320 64] $r12
	.loc	3 78 1334                       # crypto_generichash/blake2b/ref/blake2b-compress-ref.c:78:1334
	addq	-40(%rsp), %r9                  # 8-byte Folded Reload
.Ltmp726:
	.loc	3 78 1326 is_stmt 0             # crypto_generichash/blake2b/ref/blake2b-compress-ref.c:78:1326
	addq	%r12, %r9
.Ltmp727:
	#DEBUG_VALUE: blake2b_compress_ref:v <- [DW_OP_LLVM_fragment 0 64] $r9
	.loc	3 78 1390                       # crypto_generichash/blake2b/ref/blake2b-compress-ref.c:78:1390
	xorq	%r9, %rbp
.Ltmp728:
	#DEBUG_VALUE: rotr64:x <- $rbp
	#DEBUG_VALUE: rotr64:b <- 16
	.loc	4 58 21 is_stmt 1               # ./include/sodium/private/common.h:58:21 @[ crypto_generichash/blake2b/ref/blake2b-compress-ref.c:78:1376 ]
	rolq	$48, %rbp
.Ltmp729:
	#DEBUG_VALUE: blake2b_compress_ref:v <- [DW_OP_LLVM_fragment 960 64] $rbp
	.loc	3 78 1412                       # crypto_generichash/blake2b/ref/blake2b-compress-ref.c:78:1412
	addq	%rbp, %r10
.Ltmp730:
	#DEBUG_VALUE: blake2b_compress_ref:v <- [DW_OP_LLVM_fragment 640 64] $r10
	.loc	3 0 1412 is_stmt 0              # crypto_generichash/blake2b/ref/blake2b-compress-ref.c:0:1412
	movq	%r10, -112(%rsp)                # 8-byte Spill
.Ltmp731:
	#DEBUG_VALUE: blake2b_compress_ref:v <- [DW_OP_constu 112, DW_OP_minus, DW_OP_deref, DW_OP_LLVM_fragment 640 64] $rsp
	.loc	3 78 1442                       # crypto_generichash/blake2b/ref/blake2b-compress-ref.c:78:1442
	xorq	%r10, %r12
.Ltmp732:
	#DEBUG_VALUE: rotr64:x <- $r12
	#DEBUG_VALUE: rotr64:b <- 63
	.loc	4 58 21 is_stmt 1               # ./include/sodium/private/common.h:58:21 @[ crypto_generichash/blake2b/ref/blake2b-compress-ref.c:78:1429 ]
	rolq	%r12
.Ltmp733:
	#DEBUG_VALUE: blake2b_compress_ref:v <- [DW_OP_LLVM_fragment 320 64] $r12
	.loc	3 78 1490                       # crypto_generichash/blake2b/ref/blake2b-compress-ref.c:78:1490
	addq	-16(%rsp), %r11                 # 8-byte Folded Reload
.Ltmp734:
	.loc	3 78 1482 is_stmt 0             # crypto_generichash/blake2b/ref/blake2b-compress-ref.c:78:1482
	addq	%rbx, %r11
.Ltmp735:
	#DEBUG_VALUE: blake2b_compress_ref:v <- [DW_OP_LLVM_fragment 64 64] $r11
	.loc	3 0 1482                        # crypto_generichash/blake2b/ref/blake2b-compress-ref.c:0:1482
	movq	%rcx, %rax
	.loc	3 78 1546                       # crypto_generichash/blake2b/ref/blake2b-compress-ref.c:78:1546
	xorq	%r11, %rax
.Ltmp736:
	#DEBUG_VALUE: rotr64:x <- $rax
	#DEBUG_VALUE: rotr64:b <- 32
	.loc	4 58 21 is_stmt 1               # ./include/sodium/private/common.h:58:21 @[ crypto_generichash/blake2b/ref/blake2b-compress-ref.c:78:1532 ]
	rolq	$32, %rax
.Ltmp737:
	#DEBUG_VALUE: blake2b_compress_ref:v <- [DW_OP_LLVM_fragment 768 64] $rax
	.loc	3 78 1568                       # crypto_generichash/blake2b/ref/blake2b-compress-ref.c:78:1568
	addq	%rax, %r14
.Ltmp738:
	#DEBUG_VALUE: blake2b_compress_ref:v <- [DW_OP_LLVM_fragment 704 64] $r14
	.loc	3 78 1598 is_stmt 0             # crypto_generichash/blake2b/ref/blake2b-compress-ref.c:78:1598
	xorq	%r14, %rbx
.Ltmp739:
	#DEBUG_VALUE: rotr64:x <- $rbx
	#DEBUG_VALUE: rotr64:b <- 24
	.loc	4 58 21 is_stmt 1               # ./include/sodium/private/common.h:58:21 @[ crypto_generichash/blake2b/ref/blake2b-compress-ref.c:78:1585 ]
	rolq	$40, %rbx
.Ltmp740:
	#DEBUG_VALUE: blake2b_compress_ref:v <- [DW_OP_LLVM_fragment 384 64] $rbx
	.loc	3 78 1628                       # crypto_generichash/blake2b/ref/blake2b-compress-ref.c:78:1628
	addq	-96(%rsp), %r11                 # 8-byte Folded Reload
.Ltmp741:
	.loc	3 78 1620 is_stmt 0             # crypto_generichash/blake2b/ref/blake2b-compress-ref.c:78:1620
	addq	%rbx, %r11
.Ltmp742:
	#DEBUG_VALUE: blake2b_compress_ref:v <- [DW_OP_LLVM_fragment 64 64] $r11
	.loc	3 78 1684                       # crypto_generichash/blake2b/ref/blake2b-compress-ref.c:78:1684
	xorq	%r11, %rax
.Ltmp743:
	#DEBUG_VALUE: rotr64:x <- $rax
	#DEBUG_VALUE: rotr64:b <- 16
	.loc	4 58 21 is_stmt 1               # ./include/sodium/private/common.h:58:21 @[ crypto_generichash/blake2b/ref/blake2b-compress-ref.c:78:1670 ]
	rolq	$48, %rax
.Ltmp744:
	#DEBUG_VALUE: blake2b_compress_ref:v <- [DW_OP_LLVM_fragment 768 64] $rax
	.loc	3 78 1706                       # crypto_generichash/blake2b/ref/blake2b-compress-ref.c:78:1706
	addq	%rax, %r14
.Ltmp745:
	#DEBUG_VALUE: blake2b_compress_ref:v <- [DW_OP_LLVM_fragment 704 64] $r14
	.loc	3 0 1706 is_stmt 0              # crypto_generichash/blake2b/ref/blake2b-compress-ref.c:0:1706
	movq	%rax, %rcx
	.loc	3 78 1736                       # crypto_generichash/blake2b/ref/blake2b-compress-ref.c:78:1736
	xorq	%r14, %rbx
.Ltmp746:
	#DEBUG_VALUE: rotr64:x <- $rbx
	#DEBUG_VALUE: rotr64:b <- 63
	.loc	4 58 21 is_stmt 1               # ./include/sodium/private/common.h:58:21 @[ crypto_generichash/blake2b/ref/blake2b-compress-ref.c:78:1723 ]
	rolq	%rbx
.Ltmp747:
	#DEBUG_VALUE: blake2b_compress_ref:v <- [DW_OP_LLVM_fragment 384 64] $rbx
	.loc	3 78 1784                       # crypto_generichash/blake2b/ref/blake2b-compress-ref.c:78:1784
	addq	-32(%rsp), %r13                 # 8-byte Folded Reload
.Ltmp748:
	.loc	3 78 1776 is_stmt 0             # crypto_generichash/blake2b/ref/blake2b-compress-ref.c:78:1776
	addq	%r15, %r13
.Ltmp749:
	#DEBUG_VALUE: blake2b_compress_ref:v <- [DW_OP_LLVM_fragment 128 64] $r13
	.loc	3 78 1840                       # crypto_generichash/blake2b/ref/blake2b-compress-ref.c:78:1840
	xorq	%r13, %rdi
.Ltmp750:
	#DEBUG_VALUE: rotr64:x <- $rdi
	#DEBUG_VALUE: rotr64:b <- 32
	.loc	4 58 21 is_stmt 1               # ./include/sodium/private/common.h:58:21 @[ crypto_generichash/blake2b/ref/blake2b-compress-ref.c:78:1826 ]
	rolq	$32, %rdi
.Ltmp751:
	#DEBUG_VALUE: blake2b_compress_ref:v <- [DW_OP_LLVM_fragment 832 64] $rdi
	.loc	4 0 21 is_stmt 0                # ./include/sodium/private/common.h:0:21
	movq	-120(%rsp), %rax                # 8-byte Reload
.Ltmp752:
	.loc	3 78 1861 is_stmt 1             # crypto_generichash/blake2b/ref/blake2b-compress-ref.c:78:1861
	addq	%rdi, %rax
.Ltmp753:
	#DEBUG_VALUE: blake2b_compress_ref:v <- [DW_OP_LLVM_fragment 768 64] $rcx
	#DEBUG_VALUE: blake2b_compress_ref:v <- [DW_OP_LLVM_fragment 512 64] $rax
	.loc	3 78 1891 is_stmt 0             # crypto_generichash/blake2b/ref/blake2b-compress-ref.c:78:1891
	xorq	%rax, %r15
.Ltmp754:
	#DEBUG_VALUE: rotr64:x <- $r15
	#DEBUG_VALUE: rotr64:b <- 24
	.loc	4 58 21 is_stmt 1               # ./include/sodium/private/common.h:58:21 @[ crypto_generichash/blake2b/ref/blake2b-compress-ref.c:78:1878 ]
	rolq	$40, %r15
.Ltmp755:
	#DEBUG_VALUE: blake2b_compress_ref:v <- [DW_OP_LLVM_fragment 448 64] $r15
	.loc	3 78 1920                       # crypto_generichash/blake2b/ref/blake2b-compress-ref.c:78:1920
	addq	-8(%rsp), %r13                  # 8-byte Folded Reload
.Ltmp756:
	.loc	3 78 1912 is_stmt 0             # crypto_generichash/blake2b/ref/blake2b-compress-ref.c:78:1912
	addq	%r15, %r13
.Ltmp757:
	#DEBUG_VALUE: blake2b_compress_ref:v <- [DW_OP_LLVM_fragment 128 64] $r13
	.loc	3 78 1976                       # crypto_generichash/blake2b/ref/blake2b-compress-ref.c:78:1976
	xorq	%r13, %rdi
.Ltmp758:
	#DEBUG_VALUE: rotr64:x <- $rdi
	#DEBUG_VALUE: rotr64:b <- 16
	.loc	4 58 21 is_stmt 1               # ./include/sodium/private/common.h:58:21 @[ crypto_generichash/blake2b/ref/blake2b-compress-ref.c:78:1962 ]
	rolq	$48, %rdi
.Ltmp759:
	#DEBUG_VALUE: blake2b_compress_ref:v <- [DW_OP_LLVM_fragment 832 64] $rdi
	.loc	3 78 1997                       # crypto_generichash/blake2b/ref/blake2b-compress-ref.c:78:1997
	addq	%rdi, %rax
.Ltmp760:
	#DEBUG_VALUE: blake2b_compress_ref:v <- [DW_OP_LLVM_fragment 512 64] $rax
	.loc	3 0 1997 is_stmt 0              # crypto_generichash/blake2b/ref/blake2b-compress-ref.c:0:1997
	movq	%rax, -120(%rsp)                # 8-byte Spill
.Ltmp761:
	#DEBUG_VALUE: blake2b_compress_ref:v <- [DW_OP_constu 120, DW_OP_minus, DW_OP_deref, DW_OP_LLVM_fragment 512 64] $rsp
	.loc	3 78 2027                       # crypto_generichash/blake2b/ref/blake2b-compress-ref.c:78:2027
	xorq	%rax, %r15
.Ltmp762:
	#DEBUG_VALUE: rotr64:x <- $r15
	#DEBUG_VALUE: rotr64:b <- 63
	.loc	4 58 21 is_stmt 1               # ./include/sodium/private/common.h:58:21 @[ crypto_generichash/blake2b/ref/blake2b-compress-ref.c:78:2014 ]
	rolq	%r15
.Ltmp763:
	#DEBUG_VALUE: blake2b_compress_ref:v <- [DW_OP_LLVM_fragment 448 64] $r15
	.loc	4 0 21 is_stmt 0                # ./include/sodium/private/common.h:0:21
	movq	-24(%rsp), %r10                 # 8-byte Reload
.Ltmp764:
	.loc	3 78 2074 is_stmt 1             # crypto_generichash/blake2b/ref/blake2b-compress-ref.c:78:2074
	addq	%r10, %rdx
.Ltmp765:
	.loc	3 78 2066 is_stmt 0             # crypto_generichash/blake2b/ref/blake2b-compress-ref.c:78:2066
	addq	%r8, %rdx
.Ltmp766:
	#DEBUG_VALUE: blake2b_compress_ref:v <- [DW_OP_LLVM_fragment 192 64] $rdx
	.loc	3 78 2130                       # crypto_generichash/blake2b/ref/blake2b-compress-ref.c:78:2130
	xorq	%rdx, %rsi
.Ltmp767:
	#DEBUG_VALUE: rotr64:x <- $rsi
	#DEBUG_VALUE: rotr64:b <- 32
	.loc	4 58 21 is_stmt 1               # ./include/sodium/private/common.h:58:21 @[ crypto_generichash/blake2b/ref/blake2b-compress-ref.c:78:2116 ]
	rolq	$32, %rsi
.Ltmp768:
	#DEBUG_VALUE: blake2b_compress_ref:v <- [DW_OP_LLVM_fragment 896 64] $rsi
	.loc	4 0 21 is_stmt 0                # ./include/sodium/private/common.h:0:21
	movq	-128(%rsp), %rax                # 8-byte Reload
.Ltmp769:
	.loc	3 78 2151 is_stmt 1             # crypto_generichash/blake2b/ref/blake2b-compress-ref.c:78:2151
	addq	%rsi, %rax
.Ltmp770:
	#DEBUG_VALUE: blake2b_compress_ref:v <- [DW_OP_LLVM_fragment 576 64] $rax
	.loc	3 78 2181 is_stmt 0             # crypto_generichash/blake2b/ref/blake2b-compress-ref.c:78:2181
	xorq	%rax, %r8
.Ltmp771:
	#DEBUG_VALUE: rotr64:x <- $r8
	#DEBUG_VALUE: rotr64:b <- 24
	.loc	4 58 21 is_stmt 1               # ./include/sodium/private/common.h:58:21 @[ crypto_generichash/blake2b/ref/blake2b-compress-ref.c:78:2168 ]
	rolq	$40, %r8
.Ltmp772:
	#DEBUG_VALUE: blake2b_compress_ref:v <- [DW_OP_LLVM_fragment 256 64] $r8
	.loc	3 78 2210                       # crypto_generichash/blake2b/ref/blake2b-compress-ref.c:78:2210
	addq	-56(%rsp), %rdx                 # 8-byte Folded Reload
.Ltmp773:
	.loc	3 78 2202 is_stmt 0             # crypto_generichash/blake2b/ref/blake2b-compress-ref.c:78:2202
	addq	%r8, %rdx
.Ltmp774:
	#DEBUG_VALUE: blake2b_compress_ref:v <- [DW_OP_LLVM_fragment 192 64] $rdx
	.loc	3 78 2266                       # crypto_generichash/blake2b/ref/blake2b-compress-ref.c:78:2266
	xorq	%rdx, %rsi
.Ltmp775:
	#DEBUG_VALUE: rotr64:x <- $rsi
	#DEBUG_VALUE: rotr64:b <- 16
	.loc	4 58 21 is_stmt 1               # ./include/sodium/private/common.h:58:21 @[ crypto_generichash/blake2b/ref/blake2b-compress-ref.c:78:2252 ]
	rolq	$48, %rsi
.Ltmp776:
	#DEBUG_VALUE: blake2b_compress_ref:v <- [DW_OP_LLVM_fragment 896 64] $rsi
	.loc	3 78 2287                       # crypto_generichash/blake2b/ref/blake2b-compress-ref.c:78:2287
	addq	%rsi, %rax
.Ltmp777:
	#DEBUG_VALUE: blake2b_compress_ref:v <- [DW_OP_LLVM_fragment 576 64] $rax
	.loc	3 0 2287 is_stmt 0              # crypto_generichash/blake2b/ref/blake2b-compress-ref.c:0:2287
	movq	%rax, -128(%rsp)                # 8-byte Spill
.Ltmp778:
	#DEBUG_VALUE: blake2b_compress_ref:v <- [DW_OP_constu 128, DW_OP_minus, DW_OP_deref, DW_OP_LLVM_fragment 576 64] $rsp
	.loc	3 78 2317                       # crypto_generichash/blake2b/ref/blake2b-compress-ref.c:78:2317
	xorq	%rax, %r8
.Ltmp779:
	#DEBUG_VALUE: rotr64:x <- $r8
	#DEBUG_VALUE: rotr64:b <- 63
	.loc	4 58 21 is_stmt 1               # ./include/sodium/private/common.h:58:21 @[ crypto_generichash/blake2b/ref/blake2b-compress-ref.c:78:2304 ]
	rolq	%r8
.Ltmp780:
	#DEBUG_VALUE: blake2b_compress_ref:v <- [DW_OP_LLVM_fragment 256 64] $r8
	.loc	3 79 28                         # crypto_generichash/blake2b/ref/blake2b-compress-ref.c:79:28
	addq	-104(%rsp), %r9                 # 8-byte Folded Reload
.Ltmp781:
	.loc	3 79 20 is_stmt 0               # crypto_generichash/blake2b/ref/blake2b-compress-ref.c:79:20
	addq	%r8, %r9
.Ltmp782:
	#DEBUG_VALUE: blake2b_compress_ref:v <- [DW_OP_LLVM_fragment 0 64] $r9
	.loc	3 79 84                         # crypto_generichash/blake2b/ref/blake2b-compress-ref.c:79:84
	xorq	%r9, %rcx
.Ltmp783:
	#DEBUG_VALUE: rotr64:x <- $rcx
	#DEBUG_VALUE: rotr64:b <- 32
	.loc	4 58 21 is_stmt 1               # ./include/sodium/private/common.h:58:21 @[ crypto_generichash/blake2b/ref/blake2b-compress-ref.c:79:70 ]
	rolq	$32, %rcx
.Ltmp784:
	#DEBUG_VALUE: blake2b_compress_ref:v <- [DW_OP_LLVM_fragment 768 64] $rcx
	.loc	4 0 21 is_stmt 0                # ./include/sodium/private/common.h:0:21
	movq	-120(%rsp), %rax                # 8-byte Reload
.Ltmp785:
	.loc	3 79 105 is_stmt 1              # crypto_generichash/blake2b/ref/blake2b-compress-ref.c:79:105
	addq	%rcx, %rax
.Ltmp786:
	#DEBUG_VALUE: blake2b_compress_ref:v <- [DW_OP_LLVM_fragment 512 64] $rax
	.loc	3 79 135 is_stmt 0              # crypto_generichash/blake2b/ref/blake2b-compress-ref.c:79:135
	xorq	%rax, %r8
.Ltmp787:
	#DEBUG_VALUE: rotr64:x <- $r8
	#DEBUG_VALUE: rotr64:b <- 24
	.loc	4 58 21 is_stmt 1               # ./include/sodium/private/common.h:58:21 @[ crypto_generichash/blake2b/ref/blake2b-compress-ref.c:79:122 ]
	rolq	$40, %r8
.Ltmp788:
	#DEBUG_VALUE: blake2b_compress_ref:v <- [DW_OP_LLVM_fragment 256 64] $r8
	.loc	3 79 164                        # crypto_generichash/blake2b/ref/blake2b-compress-ref.c:79:164
	addq	-96(%rsp), %r9                  # 8-byte Folded Reload
.Ltmp789:
	.loc	3 79 156 is_stmt 0              # crypto_generichash/blake2b/ref/blake2b-compress-ref.c:79:156
	addq	%r8, %r9
.Ltmp790:
	#DEBUG_VALUE: blake2b_compress_ref:v <- [DW_OP_LLVM_fragment 0 64] $r9
	.loc	3 79 220                        # crypto_generichash/blake2b/ref/blake2b-compress-ref.c:79:220
	xorq	%r9, %rcx
.Ltmp791:
	#DEBUG_VALUE: rotr64:x <- $rcx
	#DEBUG_VALUE: rotr64:b <- 16
	.loc	4 58 21 is_stmt 1               # ./include/sodium/private/common.h:58:21 @[ crypto_generichash/blake2b/ref/blake2b-compress-ref.c:79:206 ]
	rolq	$48, %rcx
.Ltmp792:
	#DEBUG_VALUE: blake2b_compress_ref:v <- [DW_OP_LLVM_fragment 768 64] $rcx
	.loc	3 79 241                        # crypto_generichash/blake2b/ref/blake2b-compress-ref.c:79:241
	addq	%rcx, %rax
.Ltmp793:
	#DEBUG_VALUE: blake2b_compress_ref:v <- [DW_OP_LLVM_fragment 512 64] $rax
	.loc	3 79 271 is_stmt 0              # crypto_generichash/blake2b/ref/blake2b-compress-ref.c:79:271
	xorq	%rax, %r8
.Ltmp794:
	#DEBUG_VALUE: rotr64:x <- $r8
	#DEBUG_VALUE: rotr64:b <- 63
	.loc	4 58 21 is_stmt 1               # ./include/sodium/private/common.h:58:21 @[ crypto_generichash/blake2b/ref/blake2b-compress-ref.c:79:258 ]
	rolq	%r8
.Ltmp795:
	#DEBUG_VALUE: blake2b_compress_ref:v <- [DW_OP_LLVM_fragment 256 64] $r8
	.loc	3 79 318                        # crypto_generichash/blake2b/ref/blake2b-compress-ref.c:79:318
	addq	%r10, %r11
.Ltmp796:
	.loc	3 79 310 is_stmt 0              # crypto_generichash/blake2b/ref/blake2b-compress-ref.c:79:310
	addq	%r12, %r11
.Ltmp797:
	#DEBUG_VALUE: blake2b_compress_ref:v <- [DW_OP_LLVM_fragment 64 64] $r11
	.loc	3 79 374                        # crypto_generichash/blake2b/ref/blake2b-compress-ref.c:79:374
	xorq	%r11, %rdi
.Ltmp798:
	#DEBUG_VALUE: rotr64:x <- $rdi
	#DEBUG_VALUE: rotr64:b <- 32
	.loc	4 58 21 is_stmt 1               # ./include/sodium/private/common.h:58:21 @[ crypto_generichash/blake2b/ref/blake2b-compress-ref.c:79:360 ]
	rolq	$32, %rdi
.Ltmp799:
	#DEBUG_VALUE: blake2b_compress_ref:v <- [DW_OP_LLVM_fragment 832 64] $rdi
	.loc	4 0 21 is_stmt 0                # ./include/sodium/private/common.h:0:21
	movq	-128(%rsp), %r10                # 8-byte Reload
.Ltmp800:
	.loc	3 79 395 is_stmt 1              # crypto_generichash/blake2b/ref/blake2b-compress-ref.c:79:395
	addq	%rdi, %r10
.Ltmp801:
	#DEBUG_VALUE: blake2b_compress_ref:v <- [DW_OP_LLVM_fragment 576 64] $r10
	.loc	3 79 425 is_stmt 0              # crypto_generichash/blake2b/ref/blake2b-compress-ref.c:79:425
	xorq	%r10, %r12
.Ltmp802:
	#DEBUG_VALUE: rotr64:x <- $r12
	#DEBUG_VALUE: rotr64:b <- 24
	.loc	4 58 21 is_stmt 1               # ./include/sodium/private/common.h:58:21 @[ crypto_generichash/blake2b/ref/blake2b-compress-ref.c:79:412 ]
	rolq	$40, %r12
.Ltmp803:
	#DEBUG_VALUE: blake2b_compress_ref:v <- [DW_OP_LLVM_fragment 320 64] $r12
	.loc	3 79 454                        # crypto_generichash/blake2b/ref/blake2b-compress-ref.c:79:454
	addq	-32(%rsp), %r11                 # 8-byte Folded Reload
.Ltmp804:
	.loc	3 79 446 is_stmt 0              # crypto_generichash/blake2b/ref/blake2b-compress-ref.c:79:446
	addq	%r12, %r11
.Ltmp805:
	#DEBUG_VALUE: blake2b_compress_ref:v <- [DW_OP_LLVM_fragment 64 64] $r11
	.loc	3 79 510                        # crypto_generichash/blake2b/ref/blake2b-compress-ref.c:79:510
	xorq	%r11, %rdi
.Ltmp806:
	#DEBUG_VALUE: rotr64:x <- $rdi
	#DEBUG_VALUE: rotr64:b <- 16
	.loc	4 58 21 is_stmt 1               # ./include/sodium/private/common.h:58:21 @[ crypto_generichash/blake2b/ref/blake2b-compress-ref.c:79:496 ]
	rolq	$48, %rdi
.Ltmp807:
	#DEBUG_VALUE: blake2b_compress_ref:v <- [DW_OP_LLVM_fragment 832 64] $rdi
	.loc	3 79 531                        # crypto_generichash/blake2b/ref/blake2b-compress-ref.c:79:531
	addq	%rdi, %r10
.Ltmp808:
	#DEBUG_VALUE: blake2b_compress_ref:v <- [DW_OP_LLVM_fragment 576 64] $r10
	.loc	3 0 531 is_stmt 0               # crypto_generichash/blake2b/ref/blake2b-compress-ref.c:0:531
	movq	%r10, -128(%rsp)                # 8-byte Spill
.Ltmp809:
	#DEBUG_VALUE: blake2b_compress_ref:v <- [DW_OP_constu 128, DW_OP_minus, DW_OP_deref, DW_OP_LLVM_fragment 576 64] $rsp
	.loc	3 79 561                        # crypto_generichash/blake2b/ref/blake2b-compress-ref.c:79:561
	xorq	%r10, %r12
.Ltmp810:
	#DEBUG_VALUE: rotr64:x <- $r12
	#DEBUG_VALUE: rotr64:b <- 63
	.loc	4 58 21 is_stmt 1               # ./include/sodium/private/common.h:58:21 @[ crypto_generichash/blake2b/ref/blake2b-compress-ref.c:79:548 ]
	rolq	%r12
.Ltmp811:
	#DEBUG_VALUE: blake2b_compress_ref:v <- [DW_OP_LLVM_fragment 320 64] $r12
	.loc	3 79 608                        # crypto_generichash/blake2b/ref/blake2b-compress-ref.c:79:608
	addq	-8(%rsp), %r13                  # 8-byte Folded Reload
.Ltmp812:
	.loc	3 79 600 is_stmt 0              # crypto_generichash/blake2b/ref/blake2b-compress-ref.c:79:600
	addq	%rbx, %r13
.Ltmp813:
	#DEBUG_VALUE: blake2b_compress_ref:v <- [DW_OP_LLVM_fragment 128 64] $r13
	.loc	3 79 664                        # crypto_generichash/blake2b/ref/blake2b-compress-ref.c:79:664
	xorq	%r13, %rsi
.Ltmp814:
	#DEBUG_VALUE: rotr64:x <- $rsi
	#DEBUG_VALUE: rotr64:b <- 32
	.loc	4 58 21 is_stmt 1               # ./include/sodium/private/common.h:58:21 @[ crypto_generichash/blake2b/ref/blake2b-compress-ref.c:79:650 ]
	rolq	$32, %rsi
.Ltmp815:
	#DEBUG_VALUE: blake2b_compress_ref:v <- [DW_OP_LLVM_fragment 896 64] $rsi
	.loc	4 0 21 is_stmt 0                # ./include/sodium/private/common.h:0:21
	movq	-112(%rsp), %r10                # 8-byte Reload
.Ltmp816:
	.loc	3 79 686 is_stmt 1              # crypto_generichash/blake2b/ref/blake2b-compress-ref.c:79:686
	addq	%rsi, %r10
.Ltmp817:
	#DEBUG_VALUE: blake2b_compress_ref:v <- [DW_OP_LLVM_fragment 640 64] $r10
	.loc	3 79 716 is_stmt 0              # crypto_generichash/blake2b/ref/blake2b-compress-ref.c:79:716
	xorq	%r10, %rbx
.Ltmp818:
	#DEBUG_VALUE: rotr64:x <- $rbx
	#DEBUG_VALUE: rotr64:b <- 24
	.loc	4 58 21 is_stmt 1               # ./include/sodium/private/common.h:58:21 @[ crypto_generichash/blake2b/ref/blake2b-compress-ref.c:79:703 ]
	rolq	$40, %rbx
.Ltmp819:
	#DEBUG_VALUE: blake2b_compress_ref:v <- [DW_OP_LLVM_fragment 384 64] $rbx
	.loc	3 79 746                        # crypto_generichash/blake2b/ref/blake2b-compress-ref.c:79:746
	addq	-40(%rsp), %r13                 # 8-byte Folded Reload
.Ltmp820:
	.loc	3 79 738 is_stmt 0              # crypto_generichash/blake2b/ref/blake2b-compress-ref.c:79:738
	addq	%rbx, %r13
.Ltmp821:
	#DEBUG_VALUE: blake2b_compress_ref:v <- [DW_OP_LLVM_fragment 128 64] $r13
	.loc	3 79 802                        # crypto_generichash/blake2b/ref/blake2b-compress-ref.c:79:802
	xorq	%r13, %rsi
.Ltmp822:
	#DEBUG_VALUE: rotr64:x <- $rsi
	#DEBUG_VALUE: rotr64:b <- 16
	.loc	4 58 21 is_stmt 1               # ./include/sodium/private/common.h:58:21 @[ crypto_generichash/blake2b/ref/blake2b-compress-ref.c:79:788 ]
	rolq	$48, %rsi
.Ltmp823:
	#DEBUG_VALUE: blake2b_compress_ref:v <- [DW_OP_LLVM_fragment 896 64] $rsi
	.loc	3 79 824                        # crypto_generichash/blake2b/ref/blake2b-compress-ref.c:79:824
	addq	%rsi, %r10
.Ltmp824:
	#DEBUG_VALUE: blake2b_compress_ref:v <- [DW_OP_LLVM_fragment 640 64] $r10
	.loc	3 79 854 is_stmt 0              # crypto_generichash/blake2b/ref/blake2b-compress-ref.c:79:854
	xorq	%r10, %rbx
.Ltmp825:
	#DEBUG_VALUE: rotr64:x <- $rbx
	#DEBUG_VALUE: rotr64:b <- 63
	.loc	4 58 21 is_stmt 1               # ./include/sodium/private/common.h:58:21 @[ crypto_generichash/blake2b/ref/blake2b-compress-ref.c:79:841 ]
	rolq	%rbx
.Ltmp826:
	#DEBUG_VALUE: blake2b_compress_ref:v <- [DW_OP_LLVM_fragment 384 64] $rbx
	.loc	3 79 902                        # crypto_generichash/blake2b/ref/blake2b-compress-ref.c:79:902
	addq	-88(%rsp), %rdx                 # 8-byte Folded Reload
.Ltmp827:
	.loc	3 79 894 is_stmt 0              # crypto_generichash/blake2b/ref/blake2b-compress-ref.c:79:894
	addq	%r15, %rdx
.Ltmp828:
	#DEBUG_VALUE: blake2b_compress_ref:v <- [DW_OP_LLVM_fragment 192 64] $rdx
	.loc	3 79 958                        # crypto_generichash/blake2b/ref/blake2b-compress-ref.c:79:958
	xorq	%rdx, %rbp
.Ltmp829:
	#DEBUG_VALUE: rotr64:x <- $rbp
	#DEBUG_VALUE: rotr64:b <- 32
	.loc	4 58 21 is_stmt 1               # ./include/sodium/private/common.h:58:21 @[ crypto_generichash/blake2b/ref/blake2b-compress-ref.c:79:944 ]
	rolq	$32, %rbp
.Ltmp830:
	#DEBUG_VALUE: blake2b_compress_ref:v <- [DW_OP_LLVM_fragment 960 64] $rbp
	.loc	3 79 980                        # crypto_generichash/blake2b/ref/blake2b-compress-ref.c:79:980
	addq	%rbp, %r14
.Ltmp831:
	#DEBUG_VALUE: blake2b_compress_ref:v <- [DW_OP_LLVM_fragment 704 64] $r14
	.loc	3 79 1010 is_stmt 0             # crypto_generichash/blake2b/ref/blake2b-compress-ref.c:79:1010
	xorq	%r14, %r15
.Ltmp832:
	#DEBUG_VALUE: rotr64:x <- $r15
	#DEBUG_VALUE: rotr64:b <- 24
	.loc	4 58 21 is_stmt 1               # ./include/sodium/private/common.h:58:21 @[ crypto_generichash/blake2b/ref/blake2b-compress-ref.c:79:997 ]
	rolq	$40, %r15
.Ltmp833:
	#DEBUG_VALUE: blake2b_compress_ref:v <- [DW_OP_LLVM_fragment 448 64] $r15
	.loc	3 79 1040                       # crypto_generichash/blake2b/ref/blake2b-compress-ref.c:79:1040
	addq	(%rsp), %rdx                    # 8-byte Folded Reload
.Ltmp834:
	.loc	3 79 1032 is_stmt 0             # crypto_generichash/blake2b/ref/blake2b-compress-ref.c:79:1032
	addq	%r15, %rdx
.Ltmp835:
	#DEBUG_VALUE: blake2b_compress_ref:v <- [DW_OP_LLVM_fragment 192 64] $rdx
	.loc	3 79 1096                       # crypto_generichash/blake2b/ref/blake2b-compress-ref.c:79:1096
	xorq	%rdx, %rbp
.Ltmp836:
	#DEBUG_VALUE: rotr64:x <- $rbp
	#DEBUG_VALUE: rotr64:b <- 16
	.loc	4 58 21 is_stmt 1               # ./include/sodium/private/common.h:58:21 @[ crypto_generichash/blake2b/ref/blake2b-compress-ref.c:79:1082 ]
	rolq	$48, %rbp
.Ltmp837:
	#DEBUG_VALUE: blake2b_compress_ref:v <- [DW_OP_LLVM_fragment 960 64] $rbp
	.loc	3 79 1118                       # crypto_generichash/blake2b/ref/blake2b-compress-ref.c:79:1118
	addq	%rbp, %r14
.Ltmp838:
	#DEBUG_VALUE: blake2b_compress_ref:v <- [DW_OP_LLVM_fragment 704 64] $r14
	.loc	3 79 1148 is_stmt 0             # crypto_generichash/blake2b/ref/blake2b-compress-ref.c:79:1148
	xorq	%r14, %r15
.Ltmp839:
	#DEBUG_VALUE: rotr64:x <- $r15
	#DEBUG_VALUE: rotr64:b <- 63
	.loc	4 58 21 is_stmt 1               # ./include/sodium/private/common.h:58:21 @[ crypto_generichash/blake2b/ref/blake2b-compress-ref.c:79:1135 ]
	rolq	%r15
.Ltmp840:
	#DEBUG_VALUE: blake2b_compress_ref:v <- [DW_OP_LLVM_fragment 448 64] $r15
	.loc	3 79 1196                       # crypto_generichash/blake2b/ref/blake2b-compress-ref.c:79:1196
	addq	16(%rsp), %r9                   # 8-byte Folded Reload
.Ltmp841:
	.loc	3 79 1188 is_stmt 0             # crypto_generichash/blake2b/ref/blake2b-compress-ref.c:79:1188
	addq	%r12, %r9
.Ltmp842:
	#DEBUG_VALUE: blake2b_compress_ref:v <- [DW_OP_LLVM_fragment 0 64] $r9
	.loc	3 79 1252                       # crypto_generichash/blake2b/ref/blake2b-compress-ref.c:79:1252
	xorq	%r9, %rbp
.Ltmp843:
	#DEBUG_VALUE: rotr64:x <- $rbp
	#DEBUG_VALUE: rotr64:b <- 32
	.loc	4 58 21 is_stmt 1               # ./include/sodium/private/common.h:58:21 @[ crypto_generichash/blake2b/ref/blake2b-compress-ref.c:79:1238 ]
	rolq	$32, %rbp
.Ltmp844:
	#DEBUG_VALUE: blake2b_compress_ref:v <- [DW_OP_LLVM_fragment 960 64] $rbp
	.loc	3 79 1274                       # crypto_generichash/blake2b/ref/blake2b-compress-ref.c:79:1274
	addq	%rbp, %r10
.Ltmp845:
	#DEBUG_VALUE: blake2b_compress_ref:v <- [DW_OP_LLVM_fragment 640 64] $r10
	.loc	3 79 1304 is_stmt 0             # crypto_generichash/blake2b/ref/blake2b-compress-ref.c:79:1304
	xorq	%r10, %r12
.Ltmp846:
	#DEBUG_VALUE: rotr64:x <- $r12
	#DEBUG_VALUE: rotr64:b <- 24
	.loc	4 58 21 is_stmt 1               # ./include/sodium/private/common.h:58:21 @[ crypto_generichash/blake2b/ref/blake2b-compress-ref.c:79:1291 ]
	rolq	$40, %r12
.Ltmp847:
	#DEBUG_VALUE: blake2b_compress_ref:v <- [DW_OP_LLVM_fragment 320 64] $r12
	.loc	3 79 1334                       # crypto_generichash/blake2b/ref/blake2b-compress-ref.c:79:1334
	addq	-16(%rsp), %r9                  # 8-byte Folded Reload
.Ltmp848:
	.loc	3 79 1326 is_stmt 0             # crypto_generichash/blake2b/ref/blake2b-compress-ref.c:79:1326
	addq	%r12, %r9
.Ltmp849:
	#DEBUG_VALUE: blake2b_compress_ref:v <- [DW_OP_LLVM_fragment 0 64] $r9
	.loc	3 79 1390                       # crypto_generichash/blake2b/ref/blake2b-compress-ref.c:79:1390
	xorq	%r9, %rbp
.Ltmp850:
	#DEBUG_VALUE: rotr64:x <- $rbp
	#DEBUG_VALUE: rotr64:b <- 16
	.loc	4 58 21 is_stmt 1               # ./include/sodium/private/common.h:58:21 @[ crypto_generichash/blake2b/ref/blake2b-compress-ref.c:79:1376 ]
	rolq	$48, %rbp
.Ltmp851:
	#DEBUG_VALUE: blake2b_compress_ref:v <- [DW_OP_LLVM_fragment 960 64] $rbp
	.loc	3 79 1412                       # crypto_generichash/blake2b/ref/blake2b-compress-ref.c:79:1412
	addq	%rbp, %r10
.Ltmp852:
	#DEBUG_VALUE: blake2b_compress_ref:v <- [DW_OP_LLVM_fragment 640 64] $r10
	.loc	3 0 1412 is_stmt 0              # crypto_generichash/blake2b/ref/blake2b-compress-ref.c:0:1412
	movq	%r10, -112(%rsp)                # 8-byte Spill
.Ltmp853:
	#DEBUG_VALUE: blake2b_compress_ref:v <- [DW_OP_constu 112, DW_OP_minus, DW_OP_deref, DW_OP_LLVM_fragment 640 64] $rsp
	.loc	3 79 1442                       # crypto_generichash/blake2b/ref/blake2b-compress-ref.c:79:1442
	xorq	%r10, %r12
.Ltmp854:
	#DEBUG_VALUE: rotr64:x <- $r12
	#DEBUG_VALUE: rotr64:b <- 63
	.loc	4 58 21 is_stmt 1               # ./include/sodium/private/common.h:58:21 @[ crypto_generichash/blake2b/ref/blake2b-compress-ref.c:79:1429 ]
	rolq	%r12
.Ltmp855:
	#DEBUG_VALUE: blake2b_compress_ref:v <- [DW_OP_LLVM_fragment 320 64] $r12
	.loc	3 79 1490                       # crypto_generichash/blake2b/ref/blake2b-compress-ref.c:79:1490
	addq	-48(%rsp), %r11                 # 8-byte Folded Reload
.Ltmp856:
	.loc	3 79 1482 is_stmt 0             # crypto_generichash/blake2b/ref/blake2b-compress-ref.c:79:1482
	addq	%rbx, %r11
.Ltmp857:
	#DEBUG_VALUE: blake2b_compress_ref:v <- [DW_OP_LLVM_fragment 64 64] $r11
	.loc	3 79 1546                       # crypto_generichash/blake2b/ref/blake2b-compress-ref.c:79:1546
	xorq	%r11, %rcx
.Ltmp858:
	#DEBUG_VALUE: rotr64:x <- $rcx
	#DEBUG_VALUE: rotr64:b <- 32
	.loc	4 58 21 is_stmt 1               # ./include/sodium/private/common.h:58:21 @[ crypto_generichash/blake2b/ref/blake2b-compress-ref.c:79:1532 ]
	rolq	$32, %rcx
.Ltmp859:
	#DEBUG_VALUE: blake2b_compress_ref:v <- [DW_OP_LLVM_fragment 768 64] $rcx
	.loc	3 79 1568                       # crypto_generichash/blake2b/ref/blake2b-compress-ref.c:79:1568
	addq	%rcx, %r14
.Ltmp860:
	#DEBUG_VALUE: blake2b_compress_ref:v <- [DW_OP_LLVM_fragment 704 64] $r14
	.loc	3 79 1598 is_stmt 0             # crypto_generichash/blake2b/ref/blake2b-compress-ref.c:79:1598
	xorq	%r14, %rbx
.Ltmp861:
	#DEBUG_VALUE: rotr64:x <- $rbx
	#DEBUG_VALUE: rotr64:b <- 24
	.loc	4 58 21 is_stmt 1               # ./include/sodium/private/common.h:58:21 @[ crypto_generichash/blake2b/ref/blake2b-compress-ref.c:79:1585 ]
	rolq	$40, %rbx
.Ltmp862:
	#DEBUG_VALUE: blake2b_compress_ref:v <- [DW_OP_LLVM_fragment 384 64] $rbx
	.loc	3 79 1628                       # crypto_generichash/blake2b/ref/blake2b-compress-ref.c:79:1628
	addq	-72(%rsp), %r11                 # 8-byte Folded Reload
.Ltmp863:
	.loc	3 79 1620 is_stmt 0             # crypto_generichash/blake2b/ref/blake2b-compress-ref.c:79:1620
	addq	%rbx, %r11
.Ltmp864:
	#DEBUG_VALUE: blake2b_compress_ref:v <- [DW_OP_LLVM_fragment 64 64] $r11
	.loc	3 79 1684                       # crypto_generichash/blake2b/ref/blake2b-compress-ref.c:79:1684
	xorq	%r11, %rcx
.Ltmp865:
	#DEBUG_VALUE: rotr64:x <- $rcx
	#DEBUG_VALUE: rotr64:b <- 16
	.loc	4 58 21 is_stmt 1               # ./include/sodium/private/common.h:58:21 @[ crypto_generichash/blake2b/ref/blake2b-compress-ref.c:79:1670 ]
	rolq	$48, %rcx
.Ltmp866:
	#DEBUG_VALUE: blake2b_compress_ref:v <- [DW_OP_LLVM_fragment 768 64] $rcx
	.loc	3 79 1706                       # crypto_generichash/blake2b/ref/blake2b-compress-ref.c:79:1706
	addq	%rcx, %r14
.Ltmp867:
	#DEBUG_VALUE: blake2b_compress_ref:v <- [DW_OP_LLVM_fragment 704 64] $r14
	.loc	3 0 1706 is_stmt 0              # crypto_generichash/blake2b/ref/blake2b-compress-ref.c:0:1706
	movq	%r14, 24(%rsp)                  # 8-byte Spill
.Ltmp868:
	#DEBUG_VALUE: blake2b_compress_ref:v <- [DW_OP_plus_uconst 24, DW_OP_deref, DW_OP_LLVM_fragment 704 64] $rsp
	.loc	3 79 1736                       # crypto_generichash/blake2b/ref/blake2b-compress-ref.c:79:1736
	xorq	%r14, %rbx
.Ltmp869:
	#DEBUG_VALUE: rotr64:x <- $rbx
	#DEBUG_VALUE: rotr64:b <- 63
	.loc	4 58 21 is_stmt 1               # ./include/sodium/private/common.h:58:21 @[ crypto_generichash/blake2b/ref/blake2b-compress-ref.c:79:1723 ]
	rolq	%rbx
.Ltmp870:
	#DEBUG_VALUE: blake2b_compress_ref:v <- [DW_OP_LLVM_fragment 384 64] $rbx
	.loc	3 79 1784                       # crypto_generichash/blake2b/ref/blake2b-compress-ref.c:79:1784
	addq	-56(%rsp), %r13                 # 8-byte Folded Reload
.Ltmp871:
	.loc	3 79 1776 is_stmt 0             # crypto_generichash/blake2b/ref/blake2b-compress-ref.c:79:1776
	addq	%r15, %r13
.Ltmp872:
	#DEBUG_VALUE: blake2b_compress_ref:v <- [DW_OP_LLVM_fragment 128 64] $r13
	.loc	3 79 1840                       # crypto_generichash/blake2b/ref/blake2b-compress-ref.c:79:1840
	xorq	%r13, %rdi
.Ltmp873:
	#DEBUG_VALUE: rotr64:x <- $rdi
	#DEBUG_VALUE: rotr64:b <- 32
	.loc	4 58 21 is_stmt 1               # ./include/sodium/private/common.h:58:21 @[ crypto_generichash/blake2b/ref/blake2b-compress-ref.c:79:1826 ]
	rolq	$32, %rdi
.Ltmp874:
	#DEBUG_VALUE: blake2b_compress_ref:v <- [DW_OP_LLVM_fragment 832 64] $rdi
	.loc	3 79 1861                       # crypto_generichash/blake2b/ref/blake2b-compress-ref.c:79:1861
	addq	%rdi, %rax
.Ltmp875:
	#DEBUG_VALUE: blake2b_compress_ref:v <- [DW_OP_LLVM_fragment 512 64] $rax
	.loc	3 79 1891 is_stmt 0             # crypto_generichash/blake2b/ref/blake2b-compress-ref.c:79:1891
	xorq	%rax, %r15
.Ltmp876:
	#DEBUG_VALUE: rotr64:x <- $r15
	#DEBUG_VALUE: rotr64:b <- 24
	.loc	4 58 21 is_stmt 1               # ./include/sodium/private/common.h:58:21 @[ crypto_generichash/blake2b/ref/blake2b-compress-ref.c:79:1878 ]
	rolq	$40, %r15
.Ltmp877:
	#DEBUG_VALUE: blake2b_compress_ref:v <- [DW_OP_LLVM_fragment 448 64] $r15
	.loc	3 79 1920                       # crypto_generichash/blake2b/ref/blake2b-compress-ref.c:79:1920
	addq	-80(%rsp), %r13                 # 8-byte Folded Reload
.Ltmp878:
	.loc	3 79 1912 is_stmt 0             # crypto_generichash/blake2b/ref/blake2b-compress-ref.c:79:1912
	addq	%r15, %r13
.Ltmp879:
	#DEBUG_VALUE: blake2b_compress_ref:v <- [DW_OP_LLVM_fragment 128 64] $r13
	.loc	3 79 1976                       # crypto_generichash/blake2b/ref/blake2b-compress-ref.c:79:1976
	xorq	%r13, %rdi
.Ltmp880:
	#DEBUG_VALUE: rotr64:x <- $rdi
	#DEBUG_VALUE: rotr64:b <- 16
	.loc	4 58 21 is_stmt 1               # ./include/sodium/private/common.h:58:21 @[ crypto_generichash/blake2b/ref/blake2b-compress-ref.c:79:1962 ]
	rolq	$48, %rdi
.Ltmp881:
	#DEBUG_VALUE: blake2b_compress_ref:v <- [DW_OP_LLVM_fragment 832 64] $rdi
	.loc	3 79 1997                       # crypto_generichash/blake2b/ref/blake2b-compress-ref.c:79:1997
	addq	%rdi, %rax
.Ltmp882:
	#DEBUG_VALUE: blake2b_compress_ref:v <- [DW_OP_LLVM_fragment 512 64] $rax
	.loc	3 0 1997 is_stmt 0              # crypto_generichash/blake2b/ref/blake2b-compress-ref.c:0:1997
	movq	%rax, -120(%rsp)                # 8-byte Spill
.Ltmp883:
	#DEBUG_VALUE: blake2b_compress_ref:v <- [DW_OP_constu 120, DW_OP_minus, DW_OP_deref, DW_OP_LLVM_fragment 512 64] $rsp
	.loc	3 79 2027                       # crypto_generichash/blake2b/ref/blake2b-compress-ref.c:79:2027
	xorq	%rax, %r15
.Ltmp884:
	#DEBUG_VALUE: rotr64:x <- $r15
	#DEBUG_VALUE: rotr64:b <- 63
	.loc	4 58 21 is_stmt 1               # ./include/sodium/private/common.h:58:21 @[ crypto_generichash/blake2b/ref/blake2b-compress-ref.c:79:2014 ]
	rolq	%r15
.Ltmp885:
	#DEBUG_VALUE: blake2b_compress_ref:v <- [DW_OP_LLVM_fragment 448 64] $r15
	.loc	3 79 2074                       # crypto_generichash/blake2b/ref/blake2b-compress-ref.c:79:2074
	addq	-64(%rsp), %rdx                 # 8-byte Folded Reload
.Ltmp886:
	.loc	3 79 2066 is_stmt 0             # crypto_generichash/blake2b/ref/blake2b-compress-ref.c:79:2066
	addq	%r8, %rdx
.Ltmp887:
	#DEBUG_VALUE: blake2b_compress_ref:v <- [DW_OP_LLVM_fragment 192 64] $rdx
	.loc	3 79 2130                       # crypto_generichash/blake2b/ref/blake2b-compress-ref.c:79:2130
	xorq	%rdx, %rsi
.Ltmp888:
	#DEBUG_VALUE: rotr64:x <- $rsi
	#DEBUG_VALUE: rotr64:b <- 32
	.loc	4 58 21 is_stmt 1               # ./include/sodium/private/common.h:58:21 @[ crypto_generichash/blake2b/ref/blake2b-compress-ref.c:79:2116 ]
	rolq	$32, %rsi
.Ltmp889:
	#DEBUG_VALUE: blake2b_compress_ref:v <- [DW_OP_LLVM_fragment 896 64] $rsi
	.loc	4 0 21 is_stmt 0                # ./include/sodium/private/common.h:0:21
	movq	-128(%rsp), %r14                # 8-byte Reload
.Ltmp890:
	.loc	3 79 2151 is_stmt 1             # crypto_generichash/blake2b/ref/blake2b-compress-ref.c:79:2151
	addq	%rsi, %r14
.Ltmp891:
	#DEBUG_VALUE: blake2b_compress_ref:v <- [DW_OP_LLVM_fragment 576 64] $r14
	.loc	3 79 2181 is_stmt 0             # crypto_generichash/blake2b/ref/blake2b-compress-ref.c:79:2181
	xorq	%r14, %r8
.Ltmp892:
	#DEBUG_VALUE: rotr64:x <- $r8
	#DEBUG_VALUE: rotr64:b <- 24
	.loc	4 58 21 is_stmt 1               # ./include/sodium/private/common.h:58:21 @[ crypto_generichash/blake2b/ref/blake2b-compress-ref.c:79:2168 ]
	rolq	$40, %r8
.Ltmp893:
	#DEBUG_VALUE: blake2b_compress_ref:v <- [DW_OP_LLVM_fragment 256 64] $r8
	.loc	4 0 21 is_stmt 0                # ./include/sodium/private/common.h:0:21
	movq	8(%rsp), %r10                   # 8-byte Reload
.Ltmp894:
	.loc	3 79 2210 is_stmt 1             # crypto_generichash/blake2b/ref/blake2b-compress-ref.c:79:2210
	addq	%r10, %rdx
.Ltmp895:
	.loc	3 79 2202 is_stmt 0             # crypto_generichash/blake2b/ref/blake2b-compress-ref.c:79:2202
	addq	%r8, %rdx
.Ltmp896:
	#DEBUG_VALUE: blake2b_compress_ref:v <- [DW_OP_LLVM_fragment 192 64] $rdx
	.loc	3 79 2266                       # crypto_generichash/blake2b/ref/blake2b-compress-ref.c:79:2266
	xorq	%rdx, %rsi
.Ltmp897:
	#DEBUG_VALUE: rotr64:x <- $rsi
	#DEBUG_VALUE: rotr64:b <- 16
	.loc	4 58 21 is_stmt 1               # ./include/sodium/private/common.h:58:21 @[ crypto_generichash/blake2b/ref/blake2b-compress-ref.c:79:2252 ]
	rolq	$48, %rsi
.Ltmp898:
	#DEBUG_VALUE: blake2b_compress_ref:v <- [DW_OP_LLVM_fragment 896 64] $rsi
	.loc	3 79 2287                       # crypto_generichash/blake2b/ref/blake2b-compress-ref.c:79:2287
	addq	%rsi, %r14
.Ltmp899:
	#DEBUG_VALUE: blake2b_compress_ref:v <- [DW_OP_LLVM_fragment 576 64] $r14
	.loc	3 79 2317 is_stmt 0             # crypto_generichash/blake2b/ref/blake2b-compress-ref.c:79:2317
	xorq	%r14, %r8
.Ltmp900:
	#DEBUG_VALUE: rotr64:x <- $r8
	#DEBUG_VALUE: rotr64:b <- 63
	.loc	4 58 21 is_stmt 1               # ./include/sodium/private/common.h:58:21 @[ crypto_generichash/blake2b/ref/blake2b-compress-ref.c:79:2304 ]
	rolq	%r8
.Ltmp901:
	#DEBUG_VALUE: blake2b_compress_ref:v <- [DW_OP_LLVM_fragment 256 64] $r8
	.loc	3 80 28                         # crypto_generichash/blake2b/ref/blake2b-compress-ref.c:80:28
	addq	-40(%rsp), %r9                  # 8-byte Folded Reload
.Ltmp902:
	.loc	3 80 20 is_stmt 0               # crypto_generichash/blake2b/ref/blake2b-compress-ref.c:80:20
	addq	%r8, %r9
.Ltmp903:
	#DEBUG_VALUE: blake2b_compress_ref:v <- [DW_OP_LLVM_fragment 0 64] $r9
	.loc	3 80 84                         # crypto_generichash/blake2b/ref/blake2b-compress-ref.c:80:84
	xorq	%r9, %rcx
.Ltmp904:
	#DEBUG_VALUE: rotr64:x <- $rcx
	#DEBUG_VALUE: rotr64:b <- 32
	.loc	4 58 21 is_stmt 1               # ./include/sodium/private/common.h:58:21 @[ crypto_generichash/blake2b/ref/blake2b-compress-ref.c:80:70 ]
	rolq	$32, %rcx
.Ltmp905:
	#DEBUG_VALUE: blake2b_compress_ref:v <- [DW_OP_LLVM_fragment 768 64] $rcx
	.loc	4 0 21 is_stmt 0                # ./include/sodium/private/common.h:0:21
	movq	-120(%rsp), %rax                # 8-byte Reload
.Ltmp906:
	.loc	3 80 105 is_stmt 1              # crypto_generichash/blake2b/ref/blake2b-compress-ref.c:80:105
	addq	%rcx, %rax
.Ltmp907:
	#DEBUG_VALUE: blake2b_compress_ref:v <- [DW_OP_LLVM_fragment 512 64] $rax
	.loc	3 80 135 is_stmt 0              # crypto_generichash/blake2b/ref/blake2b-compress-ref.c:80:135
	xorq	%rax, %r8
.Ltmp908:
	#DEBUG_VALUE: rotr64:x <- $r8
	#DEBUG_VALUE: rotr64:b <- 24
	.loc	4 58 21 is_stmt 1               # ./include/sodium/private/common.h:58:21 @[ crypto_generichash/blake2b/ref/blake2b-compress-ref.c:80:122 ]
	rolq	$40, %r8
.Ltmp909:
	#DEBUG_VALUE: blake2b_compress_ref:v <- [DW_OP_LLVM_fragment 256 64] $r8
	.loc	3 80 164                        # crypto_generichash/blake2b/ref/blake2b-compress-ref.c:80:164
	addq	%r10, %r9
.Ltmp910:
	.loc	3 80 156 is_stmt 0              # crypto_generichash/blake2b/ref/blake2b-compress-ref.c:80:156
	addq	%r8, %r9
.Ltmp911:
	#DEBUG_VALUE: blake2b_compress_ref:v <- [DW_OP_LLVM_fragment 0 64] $r9
	.loc	3 80 220                        # crypto_generichash/blake2b/ref/blake2b-compress-ref.c:80:220
	xorq	%r9, %rcx
.Ltmp912:
	#DEBUG_VALUE: rotr64:x <- $rcx
	#DEBUG_VALUE: rotr64:b <- 16
	.loc	4 58 21 is_stmt 1               # ./include/sodium/private/common.h:58:21 @[ crypto_generichash/blake2b/ref/blake2b-compress-ref.c:80:206 ]
	rolq	$48, %rcx
.Ltmp913:
	#DEBUG_VALUE: blake2b_compress_ref:v <- [DW_OP_LLVM_fragment 768 64] $rcx
	.loc	3 80 241                        # crypto_generichash/blake2b/ref/blake2b-compress-ref.c:80:241
	addq	%rcx, %rax
.Ltmp914:
	#DEBUG_VALUE: blake2b_compress_ref:v <- [DW_OP_LLVM_fragment 512 64] $rax
	.loc	3 80 271 is_stmt 0              # crypto_generichash/blake2b/ref/blake2b-compress-ref.c:80:271
	xorq	%rax, %r8
.Ltmp915:
	#DEBUG_VALUE: rotr64:x <- $r8
	#DEBUG_VALUE: rotr64:b <- 63
	.loc	4 58 21 is_stmt 1               # ./include/sodium/private/common.h:58:21 @[ crypto_generichash/blake2b/ref/blake2b-compress-ref.c:80:258 ]
	rolq	%r8
.Ltmp916:
	#DEBUG_VALUE: blake2b_compress_ref:v <- [DW_OP_LLVM_fragment 256 64] $r8
	.loc	3 80 318                        # crypto_generichash/blake2b/ref/blake2b-compress-ref.c:80:318
	addq	-16(%rsp), %r11                 # 8-byte Folded Reload
.Ltmp917:
	.loc	3 80 310 is_stmt 0              # crypto_generichash/blake2b/ref/blake2b-compress-ref.c:80:310
	addq	%r12, %r11
.Ltmp918:
	#DEBUG_VALUE: blake2b_compress_ref:v <- [DW_OP_LLVM_fragment 64 64] $r11
	.loc	3 80 374                        # crypto_generichash/blake2b/ref/blake2b-compress-ref.c:80:374
	xorq	%r11, %rdi
.Ltmp919:
	#DEBUG_VALUE: rotr64:x <- $rdi
	#DEBUG_VALUE: rotr64:b <- 32
	.loc	4 58 21 is_stmt 1               # ./include/sodium/private/common.h:58:21 @[ crypto_generichash/blake2b/ref/blake2b-compress-ref.c:80:360 ]
	rolq	$32, %rdi
.Ltmp920:
	#DEBUG_VALUE: blake2b_compress_ref:v <- [DW_OP_LLVM_fragment 832 64] $rdi
	.loc	3 80 395                        # crypto_generichash/blake2b/ref/blake2b-compress-ref.c:80:395
	addq	%rdi, %r14
.Ltmp921:
	#DEBUG_VALUE: blake2b_compress_ref:v <- [DW_OP_LLVM_fragment 576 64] $r14
	.loc	3 80 425 is_stmt 0              # crypto_generichash/blake2b/ref/blake2b-compress-ref.c:80:425
	xorq	%r14, %r12
.Ltmp922:
	#DEBUG_VALUE: rotr64:x <- $r12
	#DEBUG_VALUE: rotr64:b <- 24
	.loc	4 58 21 is_stmt 1               # ./include/sodium/private/common.h:58:21 @[ crypto_generichash/blake2b/ref/blake2b-compress-ref.c:80:412 ]
	rolq	$40, %r12
.Ltmp923:
	#DEBUG_VALUE: blake2b_compress_ref:v <- [DW_OP_LLVM_fragment 320 64] $r12
	.loc	3 80 454                        # crypto_generichash/blake2b/ref/blake2b-compress-ref.c:80:454
	addq	-8(%rsp), %r11                  # 8-byte Folded Reload
.Ltmp924:
	.loc	3 80 446 is_stmt 0              # crypto_generichash/blake2b/ref/blake2b-compress-ref.c:80:446
	addq	%r12, %r11
.Ltmp925:
	#DEBUG_VALUE: blake2b_compress_ref:v <- [DW_OP_LLVM_fragment 64 64] $r11
	.loc	3 80 510                        # crypto_generichash/blake2b/ref/blake2b-compress-ref.c:80:510
	xorq	%r11, %rdi
.Ltmp926:
	#DEBUG_VALUE: rotr64:x <- $rdi
	#DEBUG_VALUE: rotr64:b <- 16
	.loc	4 58 21 is_stmt 1               # ./include/sodium/private/common.h:58:21 @[ crypto_generichash/blake2b/ref/blake2b-compress-ref.c:80:496 ]
	rolq	$48, %rdi
.Ltmp927:
	#DEBUG_VALUE: blake2b_compress_ref:v <- [DW_OP_LLVM_fragment 832 64] $rdi
	.loc	3 80 531                        # crypto_generichash/blake2b/ref/blake2b-compress-ref.c:80:531
	addq	%rdi, %r14
.Ltmp928:
	#DEBUG_VALUE: blake2b_compress_ref:v <- [DW_OP_LLVM_fragment 576 64] $r14
	.loc	3 0 531 is_stmt 0               # crypto_generichash/blake2b/ref/blake2b-compress-ref.c:0:531
	movq	%r14, -128(%rsp)                # 8-byte Spill
.Ltmp929:
	#DEBUG_VALUE: blake2b_compress_ref:v <- [DW_OP_constu 128, DW_OP_minus, DW_OP_deref, DW_OP_LLVM_fragment 576 64] $rsp
	.loc	3 80 561                        # crypto_generichash/blake2b/ref/blake2b-compress-ref.c:80:561
	xorq	%r14, %r12
.Ltmp930:
	#DEBUG_VALUE: rotr64:x <- $r12
	#DEBUG_VALUE: rotr64:b <- 63
	.loc	4 58 21 is_stmt 1               # ./include/sodium/private/common.h:58:21 @[ crypto_generichash/blake2b/ref/blake2b-compress-ref.c:80:548 ]
	rolq	%r12
.Ltmp931:
	#DEBUG_VALUE: blake2b_compress_ref:v <- [DW_OP_LLVM_fragment 320 64] $r12
	.loc	3 80 608                        # crypto_generichash/blake2b/ref/blake2b-compress-ref.c:80:608
	addq	-104(%rsp), %r13                # 8-byte Folded Reload
.Ltmp932:
	.loc	3 80 600 is_stmt 0              # crypto_generichash/blake2b/ref/blake2b-compress-ref.c:80:600
	addq	%rbx, %r13
.Ltmp933:
	#DEBUG_VALUE: blake2b_compress_ref:v <- [DW_OP_LLVM_fragment 128 64] $r13
	.loc	3 80 664                        # crypto_generichash/blake2b/ref/blake2b-compress-ref.c:80:664
	xorq	%r13, %rsi
.Ltmp934:
	#DEBUG_VALUE: rotr64:x <- $rsi
	#DEBUG_VALUE: rotr64:b <- 32
	.loc	4 58 21 is_stmt 1               # ./include/sodium/private/common.h:58:21 @[ crypto_generichash/blake2b/ref/blake2b-compress-ref.c:80:650 ]
	rolq	$32, %rsi
.Ltmp935:
	#DEBUG_VALUE: blake2b_compress_ref:v <- [DW_OP_LLVM_fragment 896 64] $rsi
	.loc	4 0 21 is_stmt 0                # ./include/sodium/private/common.h:0:21
	movq	-112(%rsp), %r10                # 8-byte Reload
.Ltmp936:
	.loc	3 80 686 is_stmt 1              # crypto_generichash/blake2b/ref/blake2b-compress-ref.c:80:686
	addq	%rsi, %r10
.Ltmp937:
	#DEBUG_VALUE: blake2b_compress_ref:v <- [DW_OP_LLVM_fragment 640 64] $r10
	.loc	3 80 716 is_stmt 0              # crypto_generichash/blake2b/ref/blake2b-compress-ref.c:80:716
	xorq	%r10, %rbx
.Ltmp938:
	#DEBUG_VALUE: rotr64:x <- $rbx
	#DEBUG_VALUE: rotr64:b <- 24
	.loc	4 58 21 is_stmt 1               # ./include/sodium/private/common.h:58:21 @[ crypto_generichash/blake2b/ref/blake2b-compress-ref.c:80:703 ]
	rolq	$40, %rbx
.Ltmp939:
	#DEBUG_VALUE: blake2b_compress_ref:v <- [DW_OP_LLVM_fragment 384 64] $rbx
	.loc	3 80 746                        # crypto_generichash/blake2b/ref/blake2b-compress-ref.c:80:746
	addq	-24(%rsp), %r13                 # 8-byte Folded Reload
.Ltmp940:
	.loc	3 80 738 is_stmt 0              # crypto_generichash/blake2b/ref/blake2b-compress-ref.c:80:738
	addq	%rbx, %r13
.Ltmp941:
	#DEBUG_VALUE: blake2b_compress_ref:v <- [DW_OP_LLVM_fragment 128 64] $r13
	.loc	3 80 802                        # crypto_generichash/blake2b/ref/blake2b-compress-ref.c:80:802
	xorq	%r13, %rsi
.Ltmp942:
	#DEBUG_VALUE: rotr64:x <- $rsi
	#DEBUG_VALUE: rotr64:b <- 16
	.loc	4 58 21 is_stmt 1               # ./include/sodium/private/common.h:58:21 @[ crypto_generichash/blake2b/ref/blake2b-compress-ref.c:80:788 ]
	rolq	$48, %rsi
.Ltmp943:
	#DEBUG_VALUE: blake2b_compress_ref:v <- [DW_OP_LLVM_fragment 896 64] $rsi
	.loc	3 80 824                        # crypto_generichash/blake2b/ref/blake2b-compress-ref.c:80:824
	addq	%rsi, %r10
.Ltmp944:
	#DEBUG_VALUE: blake2b_compress_ref:v <- [DW_OP_LLVM_fragment 640 64] $r10
	.loc	3 80 854 is_stmt 0              # crypto_generichash/blake2b/ref/blake2b-compress-ref.c:80:854
	xorq	%r10, %rbx
.Ltmp945:
	#DEBUG_VALUE: rotr64:x <- $rbx
	#DEBUG_VALUE: rotr64:b <- 63
	.loc	4 58 21 is_stmt 1               # ./include/sodium/private/common.h:58:21 @[ crypto_generichash/blake2b/ref/blake2b-compress-ref.c:80:841 ]
	rolq	%rbx
.Ltmp946:
	#DEBUG_VALUE: blake2b_compress_ref:v <- [DW_OP_LLVM_fragment 384 64] $rbx
	.loc	3 80 902                        # crypto_generichash/blake2b/ref/blake2b-compress-ref.c:80:902
	addq	-72(%rsp), %rdx                 # 8-byte Folded Reload
.Ltmp947:
	.loc	3 80 894 is_stmt 0              # crypto_generichash/blake2b/ref/blake2b-compress-ref.c:80:894
	addq	%r15, %rdx
.Ltmp948:
	#DEBUG_VALUE: blake2b_compress_ref:v <- [DW_OP_LLVM_fragment 192 64] $rdx
	.loc	3 80 958                        # crypto_generichash/blake2b/ref/blake2b-compress-ref.c:80:958
	xorq	%rdx, %rbp
.Ltmp949:
	#DEBUG_VALUE: rotr64:x <- $rbp
	#DEBUG_VALUE: rotr64:b <- 32
	.loc	4 58 21 is_stmt 1               # ./include/sodium/private/common.h:58:21 @[ crypto_generichash/blake2b/ref/blake2b-compress-ref.c:80:944 ]
	rolq	$32, %rbp
.Ltmp950:
	#DEBUG_VALUE: blake2b_compress_ref:v <- [DW_OP_LLVM_fragment 960 64] $rbp
	.loc	4 0 21 is_stmt 0                # ./include/sodium/private/common.h:0:21
	movq	24(%rsp), %r14                  # 8-byte Reload
.Ltmp951:
	.loc	3 80 980 is_stmt 1              # crypto_generichash/blake2b/ref/blake2b-compress-ref.c:80:980
	addq	%rbp, %r14
.Ltmp952:
	#DEBUG_VALUE: blake2b_compress_ref:v <- [DW_OP_LLVM_fragment 704 64] $r14
	.loc	3 80 1010 is_stmt 0             # crypto_generichash/blake2b/ref/blake2b-compress-ref.c:80:1010
	xorq	%r14, %r15
.Ltmp953:
	#DEBUG_VALUE: rotr64:x <- $r15
	#DEBUG_VALUE: rotr64:b <- 24
	.loc	4 58 21 is_stmt 1               # ./include/sodium/private/common.h:58:21 @[ crypto_generichash/blake2b/ref/blake2b-compress-ref.c:80:997 ]
	rolq	$40, %r15
.Ltmp954:
	#DEBUG_VALUE: blake2b_compress_ref:v <- [DW_OP_LLVM_fragment 448 64] $r15
	.loc	3 80 1040                       # crypto_generichash/blake2b/ref/blake2b-compress-ref.c:80:1040
	addq	-56(%rsp), %rdx                 # 8-byte Folded Reload
.Ltmp955:
	.loc	3 80 1032 is_stmt 0             # crypto_generichash/blake2b/ref/blake2b-compress-ref.c:80:1032
	addq	%r15, %rdx
.Ltmp956:
	#DEBUG_VALUE: blake2b_compress_ref:v <- [DW_OP_LLVM_fragment 192 64] $rdx
	.loc	3 80 1096                       # crypto_generichash/blake2b/ref/blake2b-compress-ref.c:80:1096
	xorq	%rdx, %rbp
.Ltmp957:
	#DEBUG_VALUE: rotr64:x <- $rbp
	#DEBUG_VALUE: rotr64:b <- 16
	.loc	4 58 21 is_stmt 1               # ./include/sodium/private/common.h:58:21 @[ crypto_generichash/blake2b/ref/blake2b-compress-ref.c:80:1082 ]
	rolq	$48, %rbp
.Ltmp958:
	#DEBUG_VALUE: blake2b_compress_ref:v <- [DW_OP_LLVM_fragment 960 64] $rbp
	.loc	3 80 1118                       # crypto_generichash/blake2b/ref/blake2b-compress-ref.c:80:1118
	addq	%rbp, %r14
.Ltmp959:
	#DEBUG_VALUE: blake2b_compress_ref:v <- [DW_OP_LLVM_fragment 704 64] $r14
	.loc	3 80 1148 is_stmt 0             # crypto_generichash/blake2b/ref/blake2b-compress-ref.c:80:1148
	xorq	%r14, %r15
.Ltmp960:
	#DEBUG_VALUE: rotr64:x <- $r15
	#DEBUG_VALUE: rotr64:b <- 63
	.loc	4 58 21 is_stmt 1               # ./include/sodium/private/common.h:58:21 @[ crypto_generichash/blake2b/ref/blake2b-compress-ref.c:80:1135 ]
	rolq	%r15
.Ltmp961:
	#DEBUG_VALUE: blake2b_compress_ref:v <- [DW_OP_LLVM_fragment 448 64] $r15
	.loc	3 80 1196                       # crypto_generichash/blake2b/ref/blake2b-compress-ref.c:80:1196
	addq	-96(%rsp), %r9                  # 8-byte Folded Reload
.Ltmp962:
	.loc	3 80 1188 is_stmt 0             # crypto_generichash/blake2b/ref/blake2b-compress-ref.c:80:1188
	addq	%r12, %r9
.Ltmp963:
	#DEBUG_VALUE: blake2b_compress_ref:v <- [DW_OP_LLVM_fragment 0 64] $r9
	.loc	3 80 1252                       # crypto_generichash/blake2b/ref/blake2b-compress-ref.c:80:1252
	xorq	%r9, %rbp
.Ltmp964:
	#DEBUG_VALUE: rotr64:x <- $rbp
	#DEBUG_VALUE: rotr64:b <- 32
	.loc	4 58 21 is_stmt 1               # ./include/sodium/private/common.h:58:21 @[ crypto_generichash/blake2b/ref/blake2b-compress-ref.c:80:1238 ]
	rolq	$32, %rbp
.Ltmp965:
	#DEBUG_VALUE: blake2b_compress_ref:v <- [DW_OP_LLVM_fragment 960 64] $rbp
	.loc	3 80 1274                       # crypto_generichash/blake2b/ref/blake2b-compress-ref.c:80:1274
	addq	%rbp, %r10
.Ltmp966:
	#DEBUG_VALUE: blake2b_compress_ref:v <- [DW_OP_LLVM_fragment 640 64] $r10
	.loc	3 80 1304 is_stmt 0             # crypto_generichash/blake2b/ref/blake2b-compress-ref.c:80:1304
	xorq	%r10, %r12
.Ltmp967:
	#DEBUG_VALUE: rotr64:x <- $r12
	#DEBUG_VALUE: rotr64:b <- 24
	.loc	4 58 21 is_stmt 1               # ./include/sodium/private/common.h:58:21 @[ crypto_generichash/blake2b/ref/blake2b-compress-ref.c:80:1291 ]
	rolq	$40, %r12
.Ltmp968:
	#DEBUG_VALUE: blake2b_compress_ref:v <- [DW_OP_LLVM_fragment 320 64] $r12
	.loc	3 80 1334                       # crypto_generichash/blake2b/ref/blake2b-compress-ref.c:80:1334
	addq	16(%rsp), %r9                   # 8-byte Folded Reload
.Ltmp969:
	.loc	3 80 1326 is_stmt 0             # crypto_generichash/blake2b/ref/blake2b-compress-ref.c:80:1326
	addq	%r12, %r9
.Ltmp970:
	#DEBUG_VALUE: blake2b_compress_ref:v <- [DW_OP_LLVM_fragment 0 64] $r9
	.loc	3 80 1390                       # crypto_generichash/blake2b/ref/blake2b-compress-ref.c:80:1390
	xorq	%r9, %rbp
.Ltmp971:
	#DEBUG_VALUE: rotr64:x <- $rbp
	#DEBUG_VALUE: rotr64:b <- 16
	.loc	4 58 21 is_stmt 1               # ./include/sodium/private/common.h:58:21 @[ crypto_generichash/blake2b/ref/blake2b-compress-ref.c:80:1376 ]
	rolq	$48, %rbp
.Ltmp972:
	#DEBUG_VALUE: blake2b_compress_ref:v <- [DW_OP_LLVM_fragment 960 64] $rbp
	.loc	3 80 1412                       # crypto_generichash/blake2b/ref/blake2b-compress-ref.c:80:1412
	addq	%rbp, %r10
.Ltmp973:
	#DEBUG_VALUE: blake2b_compress_ref:v <- [DW_OP_LLVM_fragment 640 64] $r10
	.loc	3 0 1412 is_stmt 0              # crypto_generichash/blake2b/ref/blake2b-compress-ref.c:0:1412
	movq	%r10, -112(%rsp)                # 8-byte Spill
.Ltmp974:
	#DEBUG_VALUE: blake2b_compress_ref:v <- [DW_OP_constu 112, DW_OP_minus, DW_OP_deref, DW_OP_LLVM_fragment 640 64] $rsp
	.loc	3 80 1442                       # crypto_generichash/blake2b/ref/blake2b-compress-ref.c:80:1442
	xorq	%r10, %r12
.Ltmp975:
	#DEBUG_VALUE: rotr64:x <- $r12
	#DEBUG_VALUE: rotr64:b <- 63
	.loc	4 58 21 is_stmt 1               # ./include/sodium/private/common.h:58:21 @[ crypto_generichash/blake2b/ref/blake2b-compress-ref.c:80:1429 ]
	rolq	%r12
.Ltmp976:
	#DEBUG_VALUE: blake2b_compress_ref:v <- [DW_OP_LLVM_fragment 320 64] $r12
	.loc	3 80 1490                       # crypto_generichash/blake2b/ref/blake2b-compress-ref.c:80:1490
	addq	-32(%rsp), %r11                 # 8-byte Folded Reload
.Ltmp977:
	.loc	3 80 1482 is_stmt 0             # crypto_generichash/blake2b/ref/blake2b-compress-ref.c:80:1482
	addq	%rbx, %r11
.Ltmp978:
	#DEBUG_VALUE: blake2b_compress_ref:v <- [DW_OP_LLVM_fragment 64 64] $r11
	.loc	3 80 1546                       # crypto_generichash/blake2b/ref/blake2b-compress-ref.c:80:1546
	xorq	%r11, %rcx
.Ltmp979:
	#DEBUG_VALUE: rotr64:x <- $rcx
	#DEBUG_VALUE: rotr64:b <- 32
	.loc	4 58 21 is_stmt 1               # ./include/sodium/private/common.h:58:21 @[ crypto_generichash/blake2b/ref/blake2b-compress-ref.c:80:1532 ]
	rolq	$32, %rcx
.Ltmp980:
	#DEBUG_VALUE: blake2b_compress_ref:v <- [DW_OP_LLVM_fragment 768 64] $rcx
	.loc	3 80 1568                       # crypto_generichash/blake2b/ref/blake2b-compress-ref.c:80:1568
	addq	%rcx, %r14
.Ltmp981:
	#DEBUG_VALUE: blake2b_compress_ref:v <- [DW_OP_LLVM_fragment 704 64] $r14
	.loc	3 80 1598 is_stmt 0             # crypto_generichash/blake2b/ref/blake2b-compress-ref.c:80:1598
	xorq	%r14, %rbx
.Ltmp982:
	#DEBUG_VALUE: rotr64:x <- $rbx
	#DEBUG_VALUE: rotr64:b <- 24
	.loc	4 58 21 is_stmt 1               # ./include/sodium/private/common.h:58:21 @[ crypto_generichash/blake2b/ref/blake2b-compress-ref.c:80:1585 ]
	rolq	$40, %rbx
.Ltmp983:
	#DEBUG_VALUE: blake2b_compress_ref:v <- [DW_OP_LLVM_fragment 384 64] $rbx
	.loc	3 80 1628                       # crypto_generichash/blake2b/ref/blake2b-compress-ref.c:80:1628
	addq	-88(%rsp), %r11                 # 8-byte Folded Reload
.Ltmp984:
	.loc	3 80 1620 is_stmt 0             # crypto_generichash/blake2b/ref/blake2b-compress-ref.c:80:1620
	addq	%rbx, %r11
.Ltmp985:
	#DEBUG_VALUE: blake2b_compress_ref:v <- [DW_OP_LLVM_fragment 64 64] $r11
	.loc	3 80 1684                       # crypto_generichash/blake2b/ref/blake2b-compress-ref.c:80:1684
	xorq	%r11, %rcx
.Ltmp986:
	#DEBUG_VALUE: rotr64:x <- $rcx
	#DEBUG_VALUE: rotr64:b <- 16
	.loc	4 58 21 is_stmt 1               # ./include/sodium/private/common.h:58:21 @[ crypto_generichash/blake2b/ref/blake2b-compress-ref.c:80:1670 ]
	rolq	$48, %rcx
.Ltmp987:
	#DEBUG_VALUE: blake2b_compress_ref:v <- [DW_OP_LLVM_fragment 768 64] $rcx
	.loc	3 80 1706                       # crypto_generichash/blake2b/ref/blake2b-compress-ref.c:80:1706
	addq	%rcx, %r14
.Ltmp988:
	#DEBUG_VALUE: blake2b_compress_ref:v <- [DW_OP_LLVM_fragment 704 64] $r14
	.loc	3 80 1736 is_stmt 0             # crypto_generichash/blake2b/ref/blake2b-compress-ref.c:80:1736
	xorq	%r14, %rbx
.Ltmp989:
	#DEBUG_VALUE: rotr64:x <- $rbx
	#DEBUG_VALUE: rotr64:b <- 63
	.loc	4 58 21 is_stmt 1               # ./include/sodium/private/common.h:58:21 @[ crypto_generichash/blake2b/ref/blake2b-compress-ref.c:80:1723 ]
	rolq	%rbx
.Ltmp990:
	#DEBUG_VALUE: blake2b_compress_ref:v <- [DW_OP_LLVM_fragment 384 64] $rbx
	.loc	3 80 1784                       # crypto_generichash/blake2b/ref/blake2b-compress-ref.c:80:1784
	addq	-64(%rsp), %r13                 # 8-byte Folded Reload
.Ltmp991:
	.loc	3 80 1776 is_stmt 0             # crypto_generichash/blake2b/ref/blake2b-compress-ref.c:80:1776
	addq	%r15, %r13
.Ltmp992:
	#DEBUG_VALUE: blake2b_compress_ref:v <- [DW_OP_LLVM_fragment 128 64] $r13
	.loc	3 80 1840                       # crypto_generichash/blake2b/ref/blake2b-compress-ref.c:80:1840
	xorq	%r13, %rdi
.Ltmp993:
	#DEBUG_VALUE: rotr64:x <- $rdi
	#DEBUG_VALUE: rotr64:b <- 32
	.loc	4 58 21 is_stmt 1               # ./include/sodium/private/common.h:58:21 @[ crypto_generichash/blake2b/ref/blake2b-compress-ref.c:80:1826 ]
	rolq	$32, %rdi
.Ltmp994:
	#DEBUG_VALUE: blake2b_compress_ref:v <- [DW_OP_LLVM_fragment 832 64] $rdi
	.loc	3 80 1861                       # crypto_generichash/blake2b/ref/blake2b-compress-ref.c:80:1861
	addq	%rdi, %rax
.Ltmp995:
	#DEBUG_VALUE: blake2b_compress_ref:v <- [DW_OP_LLVM_fragment 512 64] $rax
	.loc	3 80 1891 is_stmt 0             # crypto_generichash/blake2b/ref/blake2b-compress-ref.c:80:1891
	xorq	%rax, %r15
.Ltmp996:
	#DEBUG_VALUE: rotr64:x <- $r15
	#DEBUG_VALUE: rotr64:b <- 24
	.loc	4 58 21 is_stmt 1               # ./include/sodium/private/common.h:58:21 @[ crypto_generichash/blake2b/ref/blake2b-compress-ref.c:80:1878 ]
	rolq	$40, %r15
.Ltmp997:
	#DEBUG_VALUE: blake2b_compress_ref:v <- [DW_OP_LLVM_fragment 448 64] $r15
	.loc	4 0 21 is_stmt 0                # ./include/sodium/private/common.h:0:21
	movq	-48(%rsp), %r10                 # 8-byte Reload
.Ltmp998:
	.loc	3 80 1920 is_stmt 1             # crypto_generichash/blake2b/ref/blake2b-compress-ref.c:80:1920
	addq	%r10, %r13
.Ltmp999:
	.loc	3 80 1912 is_stmt 0             # crypto_generichash/blake2b/ref/blake2b-compress-ref.c:80:1912
	addq	%r15, %r13
.Ltmp1000:
	#DEBUG_VALUE: blake2b_compress_ref:v <- [DW_OP_LLVM_fragment 128 64] $r13
	.loc	3 80 1976                       # crypto_generichash/blake2b/ref/blake2b-compress-ref.c:80:1976
	xorq	%r13, %rdi
.Ltmp1001:
	#DEBUG_VALUE: rotr64:x <- $rdi
	#DEBUG_VALUE: rotr64:b <- 16
	.loc	4 58 21 is_stmt 1               # ./include/sodium/private/common.h:58:21 @[ crypto_generichash/blake2b/ref/blake2b-compress-ref.c:80:1962 ]
	rolq	$48, %rdi
.Ltmp1002:
	#DEBUG_VALUE: blake2b_compress_ref:v <- [DW_OP_LLVM_fragment 832 64] $rdi
	.loc	3 80 1997                       # crypto_generichash/blake2b/ref/blake2b-compress-ref.c:80:1997
	addq	%rdi, %rax
.Ltmp1003:
	#DEBUG_VALUE: blake2b_compress_ref:v <- [DW_OP_LLVM_fragment 512 64] $rax
	.loc	3 0 1997 is_stmt 0              # crypto_generichash/blake2b/ref/blake2b-compress-ref.c:0:1997
	movq	%rax, -120(%rsp)                # 8-byte Spill
.Ltmp1004:
	#DEBUG_VALUE: blake2b_compress_ref:v <- [DW_OP_constu 120, DW_OP_minus, DW_OP_deref, DW_OP_LLVM_fragment 512 64] $rsp
	.loc	3 80 2027                       # crypto_generichash/blake2b/ref/blake2b-compress-ref.c:80:2027
	xorq	%rax, %r15
.Ltmp1005:
	#DEBUG_VALUE: rotr64:x <- $r15
	#DEBUG_VALUE: rotr64:b <- 63
	.loc	4 58 21 is_stmt 1               # ./include/sodium/private/common.h:58:21 @[ crypto_generichash/blake2b/ref/blake2b-compress-ref.c:80:2014 ]
	rolq	%r15
.Ltmp1006:
	#DEBUG_VALUE: blake2b_compress_ref:v <- [DW_OP_LLVM_fragment 448 64] $r15
	.loc	3 80 2074                       # crypto_generichash/blake2b/ref/blake2b-compress-ref.c:80:2074
	addq	-80(%rsp), %rdx                 # 8-byte Folded Reload
.Ltmp1007:
	.loc	3 80 2066 is_stmt 0             # crypto_generichash/blake2b/ref/blake2b-compress-ref.c:80:2066
	addq	%r8, %rdx
.Ltmp1008:
	#DEBUG_VALUE: blake2b_compress_ref:v <- [DW_OP_LLVM_fragment 192 64] $rdx
	.loc	3 80 2130                       # crypto_generichash/blake2b/ref/blake2b-compress-ref.c:80:2130
	xorq	%rdx, %rsi
.Ltmp1009:
	#DEBUG_VALUE: rotr64:x <- $rsi
	#DEBUG_VALUE: rotr64:b <- 32
	.loc	4 58 21 is_stmt 1               # ./include/sodium/private/common.h:58:21 @[ crypto_generichash/blake2b/ref/blake2b-compress-ref.c:80:2116 ]
	rolq	$32, %rsi
.Ltmp1010:
	#DEBUG_VALUE: blake2b_compress_ref:v <- [DW_OP_LLVM_fragment 896 64] $rsi
	.loc	4 0 21 is_stmt 0                # ./include/sodium/private/common.h:0:21
	movq	-128(%rsp), %rax                # 8-byte Reload
.Ltmp1011:
	.loc	3 80 2151 is_stmt 1             # crypto_generichash/blake2b/ref/blake2b-compress-ref.c:80:2151
	addq	%rsi, %rax
.Ltmp1012:
	#DEBUG_VALUE: blake2b_compress_ref:v <- [DW_OP_LLVM_fragment 576 64] $rax
	.loc	3 80 2181 is_stmt 0             # crypto_generichash/blake2b/ref/blake2b-compress-ref.c:80:2181
	xorq	%rax, %r8
.Ltmp1013:
	#DEBUG_VALUE: rotr64:x <- $r8
	#DEBUG_VALUE: rotr64:b <- 24
	.loc	4 58 21 is_stmt 1               # ./include/sodium/private/common.h:58:21 @[ crypto_generichash/blake2b/ref/blake2b-compress-ref.c:80:2168 ]
	rolq	$40, %r8
.Ltmp1014:
	#DEBUG_VALUE: blake2b_compress_ref:v <- [DW_OP_LLVM_fragment 256 64] $r8
	.loc	3 80 2210                       # crypto_generichash/blake2b/ref/blake2b-compress-ref.c:80:2210
	addq	(%rsp), %rdx                    # 8-byte Folded Reload
.Ltmp1015:
	.loc	3 80 2202 is_stmt 0             # crypto_generichash/blake2b/ref/blake2b-compress-ref.c:80:2202
	addq	%r8, %rdx
.Ltmp1016:
	#DEBUG_VALUE: blake2b_compress_ref:v <- [DW_OP_LLVM_fragment 192 64] $rdx
	.loc	3 80 2266                       # crypto_generichash/blake2b/ref/blake2b-compress-ref.c:80:2266
	xorq	%rdx, %rsi
.Ltmp1017:
	#DEBUG_VALUE: rotr64:x <- $rsi
	#DEBUG_VALUE: rotr64:b <- 16
	.loc	4 58 21 is_stmt 1               # ./include/sodium/private/common.h:58:21 @[ crypto_generichash/blake2b/ref/blake2b-compress-ref.c:80:2252 ]
	rolq	$48, %rsi
.Ltmp1018:
	#DEBUG_VALUE: blake2b_compress_ref:v <- [DW_OP_LLVM_fragment 896 64] $rsi
	.loc	3 80 2287                       # crypto_generichash/blake2b/ref/blake2b-compress-ref.c:80:2287
	addq	%rsi, %rax
.Ltmp1019:
	#DEBUG_VALUE: blake2b_compress_ref:v <- [DW_OP_LLVM_fragment 576 64] $rax
	.loc	3 0 2287 is_stmt 0              # crypto_generichash/blake2b/ref/blake2b-compress-ref.c:0:2287
	movq	%rax, -128(%rsp)                # 8-byte Spill
.Ltmp1020:
	#DEBUG_VALUE: blake2b_compress_ref:v <- [DW_OP_constu 128, DW_OP_minus, DW_OP_deref, DW_OP_LLVM_fragment 576 64] $rsp
	.loc	3 80 2317                       # crypto_generichash/blake2b/ref/blake2b-compress-ref.c:80:2317
	xorq	%rax, %r8
.Ltmp1021:
	#DEBUG_VALUE: rotr64:x <- $r8
	#DEBUG_VALUE: rotr64:b <- 63
	.loc	4 58 21 is_stmt 1               # ./include/sodium/private/common.h:58:21 @[ crypto_generichash/blake2b/ref/blake2b-compress-ref.c:80:2304 ]
	rolq	%r8
.Ltmp1022:
	#DEBUG_VALUE: blake2b_compress_ref:v <- [DW_OP_LLVM_fragment 256 64] $r8
	.loc	3 81 28                         # crypto_generichash/blake2b/ref/blake2b-compress-ref.c:81:28
	addq	%r10, %r9
.Ltmp1023:
	.loc	3 81 20 is_stmt 0               # crypto_generichash/blake2b/ref/blake2b-compress-ref.c:81:20
	addq	%r8, %r9
.Ltmp1024:
	#DEBUG_VALUE: blake2b_compress_ref:v <- [DW_OP_LLVM_fragment 0 64] $r9
	.loc	3 81 84                         # crypto_generichash/blake2b/ref/blake2b-compress-ref.c:81:84
	xorq	%r9, %rcx
.Ltmp1025:
	#DEBUG_VALUE: rotr64:x <- $rcx
	#DEBUG_VALUE: rotr64:b <- 32
	.loc	4 58 21 is_stmt 1               # ./include/sodium/private/common.h:58:21 @[ crypto_generichash/blake2b/ref/blake2b-compress-ref.c:81:70 ]
	rolq	$32, %rcx
.Ltmp1026:
	#DEBUG_VALUE: blake2b_compress_ref:v <- [DW_OP_LLVM_fragment 768 64] $rcx
	.loc	4 0 21 is_stmt 0                # ./include/sodium/private/common.h:0:21
	movq	-120(%rsp), %rax                # 8-byte Reload
.Ltmp1027:
	.loc	3 81 105 is_stmt 1              # crypto_generichash/blake2b/ref/blake2b-compress-ref.c:81:105
	addq	%rcx, %rax
.Ltmp1028:
	#DEBUG_VALUE: blake2b_compress_ref:v <- [DW_OP_LLVM_fragment 512 64] $rax
	.loc	3 81 135 is_stmt 0              # crypto_generichash/blake2b/ref/blake2b-compress-ref.c:81:135
	xorq	%rax, %r8
.Ltmp1029:
	#DEBUG_VALUE: rotr64:x <- $r8
	#DEBUG_VALUE: rotr64:b <- 24
	.loc	4 58 21 is_stmt 1               # ./include/sodium/private/common.h:58:21 @[ crypto_generichash/blake2b/ref/blake2b-compress-ref.c:81:122 ]
	rolq	$40, %r8
.Ltmp1030:
	#DEBUG_VALUE: blake2b_compress_ref:v <- [DW_OP_LLVM_fragment 256 64] $r8
	.loc	3 81 164                        # crypto_generichash/blake2b/ref/blake2b-compress-ref.c:81:164
	addq	-32(%rsp), %r9                  # 8-byte Folded Reload
.Ltmp1031:
	.loc	3 81 156 is_stmt 0              # crypto_generichash/blake2b/ref/blake2b-compress-ref.c:81:156
	addq	%r8, %r9
.Ltmp1032:
	#DEBUG_VALUE: blake2b_compress_ref:v <- [DW_OP_LLVM_fragment 0 64] $r9
	.loc	3 81 220                        # crypto_generichash/blake2b/ref/blake2b-compress-ref.c:81:220
	xorq	%r9, %rcx
.Ltmp1033:
	#DEBUG_VALUE: rotr64:x <- $rcx
	#DEBUG_VALUE: rotr64:b <- 16
	.loc	4 58 21 is_stmt 1               # ./include/sodium/private/common.h:58:21 @[ crypto_generichash/blake2b/ref/blake2b-compress-ref.c:81:206 ]
	rolq	$48, %rcx
.Ltmp1034:
	#DEBUG_VALUE: blake2b_compress_ref:v <- [DW_OP_LLVM_fragment 768 64] $rcx
	.loc	3 81 241                        # crypto_generichash/blake2b/ref/blake2b-compress-ref.c:81:241
	addq	%rcx, %rax
.Ltmp1035:
	#DEBUG_VALUE: blake2b_compress_ref:v <- [DW_OP_LLVM_fragment 512 64] $rax
	.loc	3 81 271 is_stmt 0              # crypto_generichash/blake2b/ref/blake2b-compress-ref.c:81:271
	xorq	%rax, %r8
.Ltmp1036:
	#DEBUG_VALUE: rotr64:x <- $r8
	#DEBUG_VALUE: rotr64:b <- 63
	.loc	4 58 21 is_stmt 1               # ./include/sodium/private/common.h:58:21 @[ crypto_generichash/blake2b/ref/blake2b-compress-ref.c:81:258 ]
	rolq	%r8
.Ltmp1037:
	#DEBUG_VALUE: blake2b_compress_ref:v <- [DW_OP_LLVM_fragment 256 64] $r8
	.loc	3 81 318                        # crypto_generichash/blake2b/ref/blake2b-compress-ref.c:81:318
	addq	-8(%rsp), %r11                  # 8-byte Folded Reload
.Ltmp1038:
	.loc	3 81 310 is_stmt 0              # crypto_generichash/blake2b/ref/blake2b-compress-ref.c:81:310
	addq	%r12, %r11
.Ltmp1039:
	#DEBUG_VALUE: blake2b_compress_ref:v <- [DW_OP_LLVM_fragment 64 64] $r11
	.loc	3 81 374                        # crypto_generichash/blake2b/ref/blake2b-compress-ref.c:81:374
	xorq	%r11, %rdi
.Ltmp1040:
	#DEBUG_VALUE: rotr64:x <- $rdi
	#DEBUG_VALUE: rotr64:b <- 32
	.loc	4 58 21 is_stmt 1               # ./include/sodium/private/common.h:58:21 @[ crypto_generichash/blake2b/ref/blake2b-compress-ref.c:81:360 ]
	rolq	$32, %rdi
.Ltmp1041:
	#DEBUG_VALUE: blake2b_compress_ref:v <- [DW_OP_LLVM_fragment 832 64] $rdi
	.loc	4 0 21 is_stmt 0                # ./include/sodium/private/common.h:0:21
	movq	-128(%rsp), %r10                # 8-byte Reload
.Ltmp1042:
	.loc	3 81 395 is_stmt 1              # crypto_generichash/blake2b/ref/blake2b-compress-ref.c:81:395
	addq	%rdi, %r10
.Ltmp1043:
	#DEBUG_VALUE: blake2b_compress_ref:v <- [DW_OP_LLVM_fragment 576 64] $r10
	.loc	3 81 425 is_stmt 0              # crypto_generichash/blake2b/ref/blake2b-compress-ref.c:81:425
	xorq	%r10, %r12
.Ltmp1044:
	#DEBUG_VALUE: rotr64:x <- $r12
	#DEBUG_VALUE: rotr64:b <- 24
	.loc	4 58 21 is_stmt 1               # ./include/sodium/private/common.h:58:21 @[ crypto_generichash/blake2b/ref/blake2b-compress-ref.c:81:412 ]
	rolq	$40, %r12
.Ltmp1045:
	#DEBUG_VALUE: blake2b_compress_ref:v <- [DW_OP_LLVM_fragment 320 64] $r12
	.loc	3 81 454                        # crypto_generichash/blake2b/ref/blake2b-compress-ref.c:81:454
	addq	-56(%rsp), %r11                 # 8-byte Folded Reload
.Ltmp1046:
	.loc	3 81 446 is_stmt 0              # crypto_generichash/blake2b/ref/blake2b-compress-ref.c:81:446
	addq	%r12, %r11
.Ltmp1047:
	#DEBUG_VALUE: blake2b_compress_ref:v <- [DW_OP_LLVM_fragment 64 64] $r11
	.loc	3 81 510                        # crypto_generichash/blake2b/ref/blake2b-compress-ref.c:81:510
	xorq	%r11, %rdi
.Ltmp1048:
	#DEBUG_VALUE: rotr64:x <- $rdi
	#DEBUG_VALUE: rotr64:b <- 16
	.loc	4 58 21 is_stmt 1               # ./include/sodium/private/common.h:58:21 @[ crypto_generichash/blake2b/ref/blake2b-compress-ref.c:81:496 ]
	rolq	$48, %rdi
.Ltmp1049:
	#DEBUG_VALUE: blake2b_compress_ref:v <- [DW_OP_LLVM_fragment 832 64] $rdi
	.loc	3 81 531                        # crypto_generichash/blake2b/ref/blake2b-compress-ref.c:81:531
	addq	%rdi, %r10
.Ltmp1050:
	#DEBUG_VALUE: blake2b_compress_ref:v <- [DW_OP_LLVM_fragment 576 64] $r10
	.loc	3 0 531 is_stmt 0               # crypto_generichash/blake2b/ref/blake2b-compress-ref.c:0:531
	movq	%r10, -128(%rsp)                # 8-byte Spill
.Ltmp1051:
	#DEBUG_VALUE: blake2b_compress_ref:v <- [DW_OP_constu 128, DW_OP_minus, DW_OP_deref, DW_OP_LLVM_fragment 576 64] $rsp
	.loc	3 81 561                        # crypto_generichash/blake2b/ref/blake2b-compress-ref.c:81:561
	xorq	%r10, %r12
.Ltmp1052:
	#DEBUG_VALUE: rotr64:x <- $r12
	#DEBUG_VALUE: rotr64:b <- 63
	.loc	4 58 21 is_stmt 1               # ./include/sodium/private/common.h:58:21 @[ crypto_generichash/blake2b/ref/blake2b-compress-ref.c:81:548 ]
	rolq	%r12
.Ltmp1053:
	#DEBUG_VALUE: blake2b_compress_ref:v <- [DW_OP_LLVM_fragment 320 64] $r12
	.loc	3 81 608                        # crypto_generichash/blake2b/ref/blake2b-compress-ref.c:81:608
	addq	8(%rsp), %r13                   # 8-byte Folded Reload
.Ltmp1054:
	.loc	3 81 600 is_stmt 0              # crypto_generichash/blake2b/ref/blake2b-compress-ref.c:81:600
	addq	%rbx, %r13
.Ltmp1055:
	#DEBUG_VALUE: blake2b_compress_ref:v <- [DW_OP_LLVM_fragment 128 64] $r13
	.loc	3 81 664                        # crypto_generichash/blake2b/ref/blake2b-compress-ref.c:81:664
	xorq	%r13, %rsi
.Ltmp1056:
	#DEBUG_VALUE: rotr64:x <- $rsi
	#DEBUG_VALUE: rotr64:b <- 32
	.loc	4 58 21 is_stmt 1               # ./include/sodium/private/common.h:58:21 @[ crypto_generichash/blake2b/ref/blake2b-compress-ref.c:81:650 ]
	rolq	$32, %rsi
.Ltmp1057:
	#DEBUG_VALUE: blake2b_compress_ref:v <- [DW_OP_LLVM_fragment 896 64] $rsi
	.loc	4 0 21 is_stmt 0                # ./include/sodium/private/common.h:0:21
	movq	-112(%rsp), %r10                # 8-byte Reload
.Ltmp1058:
	.loc	3 81 686 is_stmt 1              # crypto_generichash/blake2b/ref/blake2b-compress-ref.c:81:686
	addq	%rsi, %r10
.Ltmp1059:
	#DEBUG_VALUE: blake2b_compress_ref:v <- [DW_OP_LLVM_fragment 640 64] $r10
	.loc	3 81 716 is_stmt 0              # crypto_generichash/blake2b/ref/blake2b-compress-ref.c:81:716
	xorq	%r10, %rbx
.Ltmp1060:
	#DEBUG_VALUE: rotr64:x <- $rbx
	#DEBUG_VALUE: rotr64:b <- 24
	.loc	4 58 21 is_stmt 1               # ./include/sodium/private/common.h:58:21 @[ crypto_generichash/blake2b/ref/blake2b-compress-ref.c:81:703 ]
	rolq	$40, %rbx
.Ltmp1061:
	#DEBUG_VALUE: blake2b_compress_ref:v <- [DW_OP_LLVM_fragment 384 64] $rbx
	.loc	3 81 746                        # crypto_generichash/blake2b/ref/blake2b-compress-ref.c:81:746
	addq	-72(%rsp), %r13                 # 8-byte Folded Reload
.Ltmp1062:
	.loc	3 81 738 is_stmt 0              # crypto_generichash/blake2b/ref/blake2b-compress-ref.c:81:738
	addq	%rbx, %r13
.Ltmp1063:
	#DEBUG_VALUE: blake2b_compress_ref:v <- [DW_OP_LLVM_fragment 128 64] $r13
	.loc	3 81 802                        # crypto_generichash/blake2b/ref/blake2b-compress-ref.c:81:802
	xorq	%r13, %rsi
.Ltmp1064:
	#DEBUG_VALUE: rotr64:x <- $rsi
	#DEBUG_VALUE: rotr64:b <- 16
	.loc	4 58 21 is_stmt 1               # ./include/sodium/private/common.h:58:21 @[ crypto_generichash/blake2b/ref/blake2b-compress-ref.c:81:788 ]
	rolq	$48, %rsi
.Ltmp1065:
	#DEBUG_VALUE: blake2b_compress_ref:v <- [DW_OP_LLVM_fragment 896 64] $rsi
	.loc	3 81 824                        # crypto_generichash/blake2b/ref/blake2b-compress-ref.c:81:824
	addq	%rsi, %r10
.Ltmp1066:
	#DEBUG_VALUE: blake2b_compress_ref:v <- [DW_OP_LLVM_fragment 640 64] $r10
	.loc	3 81 854 is_stmt 0              # crypto_generichash/blake2b/ref/blake2b-compress-ref.c:81:854
	xorq	%r10, %rbx
.Ltmp1067:
	#DEBUG_VALUE: rotr64:x <- $rbx
	#DEBUG_VALUE: rotr64:b <- 63
	.loc	4 58 21 is_stmt 1               # ./include/sodium/private/common.h:58:21 @[ crypto_generichash/blake2b/ref/blake2b-compress-ref.c:81:841 ]
	rolq	%rbx
.Ltmp1068:
	#DEBUG_VALUE: blake2b_compress_ref:v <- [DW_OP_LLVM_fragment 384 64] $rbx
	.loc	3 81 902                        # crypto_generichash/blake2b/ref/blake2b-compress-ref.c:81:902
	addq	16(%rsp), %rdx                  # 8-byte Folded Reload
.Ltmp1069:
	.loc	3 81 894 is_stmt 0              # crypto_generichash/blake2b/ref/blake2b-compress-ref.c:81:894
	addq	%r15, %rdx
.Ltmp1070:
	#DEBUG_VALUE: blake2b_compress_ref:v <- [DW_OP_LLVM_fragment 192 64] $rdx
	.loc	3 81 958                        # crypto_generichash/blake2b/ref/blake2b-compress-ref.c:81:958
	xorq	%rdx, %rbp
.Ltmp1071:
	#DEBUG_VALUE: rotr64:x <- $rbp
	#DEBUG_VALUE: rotr64:b <- 32
	.loc	4 58 21 is_stmt 1               # ./include/sodium/private/common.h:58:21 @[ crypto_generichash/blake2b/ref/blake2b-compress-ref.c:81:944 ]
	rolq	$32, %rbp
.Ltmp1072:
	#DEBUG_VALUE: blake2b_compress_ref:v <- [DW_OP_LLVM_fragment 960 64] $rbp
	.loc	3 81 980                        # crypto_generichash/blake2b/ref/blake2b-compress-ref.c:81:980
	addq	%rbp, %r14
.Ltmp1073:
	#DEBUG_VALUE: blake2b_compress_ref:v <- [DW_OP_LLVM_fragment 704 64] $r14
	.loc	3 81 1010 is_stmt 0             # crypto_generichash/blake2b/ref/blake2b-compress-ref.c:81:1010
	xorq	%r14, %r15
.Ltmp1074:
	#DEBUG_VALUE: rotr64:x <- $r15
	#DEBUG_VALUE: rotr64:b <- 24
	.loc	4 58 21 is_stmt 1               # ./include/sodium/private/common.h:58:21 @[ crypto_generichash/blake2b/ref/blake2b-compress-ref.c:81:997 ]
	rolq	$40, %r15
.Ltmp1075:
	#DEBUG_VALUE: blake2b_compress_ref:v <- [DW_OP_LLVM_fragment 448 64] $r15
	.loc	3 81 1040                       # crypto_generichash/blake2b/ref/blake2b-compress-ref.c:81:1040
	addq	-64(%rsp), %rdx                 # 8-byte Folded Reload
.Ltmp1076:
	.loc	3 81 1032 is_stmt 0             # crypto_generichash/blake2b/ref/blake2b-compress-ref.c:81:1032
	addq	%r15, %rdx
.Ltmp1077:
	#DEBUG_VALUE: blake2b_compress_ref:v <- [DW_OP_LLVM_fragment 192 64] $rdx
	.loc	3 81 1096                       # crypto_generichash/blake2b/ref/blake2b-compress-ref.c:81:1096
	xorq	%rdx, %rbp
.Ltmp1078:
	#DEBUG_VALUE: rotr64:x <- $rbp
	#DEBUG_VALUE: rotr64:b <- 16
	.loc	4 58 21 is_stmt 1               # ./include/sodium/private/common.h:58:21 @[ crypto_generichash/blake2b/ref/blake2b-compress-ref.c:81:1082 ]
	rolq	$48, %rbp
.Ltmp1079:
	#DEBUG_VALUE: blake2b_compress_ref:v <- [DW_OP_LLVM_fragment 960 64] $rbp
	.loc	3 81 1118                       # crypto_generichash/blake2b/ref/blake2b-compress-ref.c:81:1118
	addq	%rbp, %r14
.Ltmp1080:
	#DEBUG_VALUE: blake2b_compress_ref:v <- [DW_OP_LLVM_fragment 704 64] $r14
	.loc	3 81 1148 is_stmt 0             # crypto_generichash/blake2b/ref/blake2b-compress-ref.c:81:1148
	xorq	%r14, %r15
.Ltmp1081:
	#DEBUG_VALUE: rotr64:x <- $r15
	#DEBUG_VALUE: rotr64:b <- 63
	.loc	4 58 21 is_stmt 1               # ./include/sodium/private/common.h:58:21 @[ crypto_generichash/blake2b/ref/blake2b-compress-ref.c:81:1135 ]
	rolq	%r15
.Ltmp1082:
	#DEBUG_VALUE: blake2b_compress_ref:v <- [DW_OP_LLVM_fragment 448 64] $r15
	.loc	3 81 1196                       # crypto_generichash/blake2b/ref/blake2b-compress-ref.c:81:1196
	addq	-104(%rsp), %r9                 # 8-byte Folded Reload
.Ltmp1083:
	.loc	3 81 1188 is_stmt 0             # crypto_generichash/blake2b/ref/blake2b-compress-ref.c:81:1188
	addq	%r12, %r9
.Ltmp1084:
	#DEBUG_VALUE: blake2b_compress_ref:v <- [DW_OP_LLVM_fragment 0 64] $r9
	.loc	3 81 1252                       # crypto_generichash/blake2b/ref/blake2b-compress-ref.c:81:1252
	xorq	%r9, %rbp
.Ltmp1085:
	#DEBUG_VALUE: rotr64:x <- $rbp
	#DEBUG_VALUE: rotr64:b <- 32
	.loc	4 58 21 is_stmt 1               # ./include/sodium/private/common.h:58:21 @[ crypto_generichash/blake2b/ref/blake2b-compress-ref.c:81:1238 ]
	rolq	$32, %rbp
.Ltmp1086:
	#DEBUG_VALUE: blake2b_compress_ref:v <- [DW_OP_LLVM_fragment 960 64] $rbp
	.loc	3 81 1274                       # crypto_generichash/blake2b/ref/blake2b-compress-ref.c:81:1274
	addq	%rbp, %r10
.Ltmp1087:
	#DEBUG_VALUE: blake2b_compress_ref:v <- [DW_OP_LLVM_fragment 640 64] $r10
	.loc	3 81 1304 is_stmt 0             # crypto_generichash/blake2b/ref/blake2b-compress-ref.c:81:1304
	xorq	%r10, %r12
.Ltmp1088:
	#DEBUG_VALUE: rotr64:x <- $r12
	#DEBUG_VALUE: rotr64:b <- 24
	.loc	4 58 21 is_stmt 1               # ./include/sodium/private/common.h:58:21 @[ crypto_generichash/blake2b/ref/blake2b-compress-ref.c:81:1291 ]
	rolq	$40, %r12
.Ltmp1089:
	#DEBUG_VALUE: blake2b_compress_ref:v <- [DW_OP_LLVM_fragment 320 64] $r12
	.loc	3 81 1334                       # crypto_generichash/blake2b/ref/blake2b-compress-ref.c:81:1334
	addq	-80(%rsp), %r9                  # 8-byte Folded Reload
.Ltmp1090:
	.loc	3 81 1326 is_stmt 0             # crypto_generichash/blake2b/ref/blake2b-compress-ref.c:81:1326
	addq	%r12, %r9
.Ltmp1091:
	#DEBUG_VALUE: blake2b_compress_ref:v <- [DW_OP_LLVM_fragment 0 64] $r9
	.loc	3 81 1390                       # crypto_generichash/blake2b/ref/blake2b-compress-ref.c:81:1390
	xorq	%r9, %rbp
.Ltmp1092:
	#DEBUG_VALUE: rotr64:x <- $rbp
	#DEBUG_VALUE: rotr64:b <- 16
	.loc	4 58 21 is_stmt 1               # ./include/sodium/private/common.h:58:21 @[ crypto_generichash/blake2b/ref/blake2b-compress-ref.c:81:1376 ]
	rolq	$48, %rbp
.Ltmp1093:
	#DEBUG_VALUE: blake2b_compress_ref:v <- [DW_OP_LLVM_fragment 960 64] $rbp
	.loc	3 81 1412                       # crypto_generichash/blake2b/ref/blake2b-compress-ref.c:81:1412
	addq	%rbp, %r10
.Ltmp1094:
	#DEBUG_VALUE: blake2b_compress_ref:v <- [DW_OP_LLVM_fragment 640 64] $r10
	.loc	3 0 1412 is_stmt 0              # crypto_generichash/blake2b/ref/blake2b-compress-ref.c:0:1412
	movq	%r10, -112(%rsp)                # 8-byte Spill
.Ltmp1095:
	#DEBUG_VALUE: blake2b_compress_ref:v <- [DW_OP_constu 112, DW_OP_minus, DW_OP_deref, DW_OP_LLVM_fragment 640 64] $rsp
	.loc	3 81 1442                       # crypto_generichash/blake2b/ref/blake2b-compress-ref.c:81:1442
	xorq	%r10, %r12
.Ltmp1096:
	#DEBUG_VALUE: rotr64:x <- $r12
	#DEBUG_VALUE: rotr64:b <- 63
	.loc	4 58 21 is_stmt 1               # ./include/sodium/private/common.h:58:21 @[ crypto_generichash/blake2b/ref/blake2b-compress-ref.c:81:1429 ]
	rolq	%r12
.Ltmp1097:
	#DEBUG_VALUE: blake2b_compress_ref:v <- [DW_OP_LLVM_fragment 320 64] $r12
	.loc	3 81 1490                       # crypto_generichash/blake2b/ref/blake2b-compress-ref.c:81:1490
	addq	-40(%rsp), %r11                 # 8-byte Folded Reload
.Ltmp1098:
	.loc	3 81 1482 is_stmt 0             # crypto_generichash/blake2b/ref/blake2b-compress-ref.c:81:1482
	addq	%rbx, %r11
.Ltmp1099:
	#DEBUG_VALUE: blake2b_compress_ref:v <- [DW_OP_LLVM_fragment 64 64] $r11
	.loc	3 81 1546                       # crypto_generichash/blake2b/ref/blake2b-compress-ref.c:81:1546
	xorq	%r11, %rcx
.Ltmp1100:
	#DEBUG_VALUE: rotr64:x <- $rcx
	#DEBUG_VALUE: rotr64:b <- 32
	.loc	4 58 21 is_stmt 1               # ./include/sodium/private/common.h:58:21 @[ crypto_generichash/blake2b/ref/blake2b-compress-ref.c:81:1532 ]
	rolq	$32, %rcx
.Ltmp1101:
	#DEBUG_VALUE: blake2b_compress_ref:v <- [DW_OP_LLVM_fragment 768 64] $rcx
	.loc	3 81 1568                       # crypto_generichash/blake2b/ref/blake2b-compress-ref.c:81:1568
	addq	%rcx, %r14
.Ltmp1102:
	#DEBUG_VALUE: blake2b_compress_ref:v <- [DW_OP_LLVM_fragment 704 64] $r14
	.loc	3 81 1598 is_stmt 0             # crypto_generichash/blake2b/ref/blake2b-compress-ref.c:81:1598
	xorq	%r14, %rbx
.Ltmp1103:
	#DEBUG_VALUE: rotr64:x <- $rbx
	#DEBUG_VALUE: rotr64:b <- 24
	.loc	4 58 21 is_stmt 1               # ./include/sodium/private/common.h:58:21 @[ crypto_generichash/blake2b/ref/blake2b-compress-ref.c:81:1585 ]
	rolq	$40, %rbx
.Ltmp1104:
	#DEBUG_VALUE: blake2b_compress_ref:v <- [DW_OP_LLVM_fragment 384 64] $rbx
	.loc	3 81 1628                       # crypto_generichash/blake2b/ref/blake2b-compress-ref.c:81:1628
	addq	-16(%rsp), %r11                 # 8-byte Folded Reload
.Ltmp1105:
	.loc	3 81 1620 is_stmt 0             # crypto_generichash/blake2b/ref/blake2b-compress-ref.c:81:1620
	addq	%rbx, %r11
.Ltmp1106:
	#DEBUG_VALUE: blake2b_compress_ref:v <- [DW_OP_LLVM_fragment 64 64] $r11
	.loc	3 81 1684                       # crypto_generichash/blake2b/ref/blake2b-compress-ref.c:81:1684
	xorq	%r11, %rcx
.Ltmp1107:
	#DEBUG_VALUE: rotr64:x <- $rcx
	#DEBUG_VALUE: rotr64:b <- 16
	.loc	4 58 21 is_stmt 1               # ./include/sodium/private/common.h:58:21 @[ crypto_generichash/blake2b/ref/blake2b-compress-ref.c:81:1670 ]
	rolq	$48, %rcx
.Ltmp1108:
	#DEBUG_VALUE: blake2b_compress_ref:v <- [DW_OP_LLVM_fragment 768 64] $rcx
	.loc	3 81 1706                       # crypto_generichash/blake2b/ref/blake2b-compress-ref.c:81:1706
	addq	%rcx, %r14
.Ltmp1109:
	#DEBUG_VALUE: blake2b_compress_ref:v <- [DW_OP_LLVM_fragment 704 64] $r14
	.loc	3 0 1706 is_stmt 0              # crypto_generichash/blake2b/ref/blake2b-compress-ref.c:0:1706
	movq	%r14, 24(%rsp)                  # 8-byte Spill
.Ltmp1110:
	#DEBUG_VALUE: blake2b_compress_ref:v <- [DW_OP_plus_uconst 24, DW_OP_deref, DW_OP_LLVM_fragment 704 64] $rsp
	.loc	3 81 1736                       # crypto_generichash/blake2b/ref/blake2b-compress-ref.c:81:1736
	xorq	%r14, %rbx
.Ltmp1111:
	#DEBUG_VALUE: rotr64:x <- $rbx
	#DEBUG_VALUE: rotr64:b <- 63
	.loc	4 58 21 is_stmt 1               # ./include/sodium/private/common.h:58:21 @[ crypto_generichash/blake2b/ref/blake2b-compress-ref.c:81:1723 ]
	rolq	%rbx
.Ltmp1112:
	#DEBUG_VALUE: blake2b_compress_ref:v <- [DW_OP_LLVM_fragment 384 64] $rbx
	.loc	3 81 1784                       # crypto_generichash/blake2b/ref/blake2b-compress-ref.c:81:1784
	addq	-24(%rsp), %r13                 # 8-byte Folded Reload
.Ltmp1113:
	.loc	3 81 1776 is_stmt 0             # crypto_generichash/blake2b/ref/blake2b-compress-ref.c:81:1776
	addq	%r15, %r13
.Ltmp1114:
	#DEBUG_VALUE: blake2b_compress_ref:v <- [DW_OP_LLVM_fragment 128 64] $r13
	.loc	3 81 1840                       # crypto_generichash/blake2b/ref/blake2b-compress-ref.c:81:1840
	xorq	%r13, %rdi
.Ltmp1115:
	#DEBUG_VALUE: rotr64:x <- $rdi
	#DEBUG_VALUE: rotr64:b <- 32
	.loc	4 58 21 is_stmt 1               # ./include/sodium/private/common.h:58:21 @[ crypto_generichash/blake2b/ref/blake2b-compress-ref.c:81:1826 ]
	rolq	$32, %rdi
.Ltmp1116:
	#DEBUG_VALUE: blake2b_compress_ref:v <- [DW_OP_LLVM_fragment 832 64] $rdi
	.loc	3 81 1861                       # crypto_generichash/blake2b/ref/blake2b-compress-ref.c:81:1861
	addq	%rdi, %rax
.Ltmp1117:
	#DEBUG_VALUE: blake2b_compress_ref:v <- [DW_OP_LLVM_fragment 512 64] $rax
	.loc	3 81 1891 is_stmt 0             # crypto_generichash/blake2b/ref/blake2b-compress-ref.c:81:1891
	xorq	%rax, %r15
.Ltmp1118:
	#DEBUG_VALUE: rotr64:x <- $r15
	#DEBUG_VALUE: rotr64:b <- 24
	.loc	4 58 21 is_stmt 1               # ./include/sodium/private/common.h:58:21 @[ crypto_generichash/blake2b/ref/blake2b-compress-ref.c:81:1878 ]
	rolq	$40, %r15
.Ltmp1119:
	#DEBUG_VALUE: blake2b_compress_ref:v <- [DW_OP_LLVM_fragment 448 64] $r15
	.loc	3 81 1920                       # crypto_generichash/blake2b/ref/blake2b-compress-ref.c:81:1920
	addq	-88(%rsp), %r13                 # 8-byte Folded Reload
.Ltmp1120:
	.loc	3 81 1912 is_stmt 0             # crypto_generichash/blake2b/ref/blake2b-compress-ref.c:81:1912
	addq	%r15, %r13
.Ltmp1121:
	#DEBUG_VALUE: blake2b_compress_ref:v <- [DW_OP_LLVM_fragment 128 64] $r13
	.loc	3 81 1976                       # crypto_generichash/blake2b/ref/blake2b-compress-ref.c:81:1976
	xorq	%r13, %rdi
.Ltmp1122:
	#DEBUG_VALUE: rotr64:x <- $rdi
	#DEBUG_VALUE: rotr64:b <- 16
	.loc	4 58 21 is_stmt 1               # ./include/sodium/private/common.h:58:21 @[ crypto_generichash/blake2b/ref/blake2b-compress-ref.c:81:1962 ]
	rolq	$48, %rdi
.Ltmp1123:
	#DEBUG_VALUE: blake2b_compress_ref:v <- [DW_OP_LLVM_fragment 832 64] $rdi
	.loc	3 81 1997                       # crypto_generichash/blake2b/ref/blake2b-compress-ref.c:81:1997
	addq	%rdi, %rax
.Ltmp1124:
	#DEBUG_VALUE: blake2b_compress_ref:v <- [DW_OP_LLVM_fragment 512 64] $rax
	.loc	3 81 2027 is_stmt 0             # crypto_generichash/blake2b/ref/blake2b-compress-ref.c:81:2027
	xorq	%rax, %r15
.Ltmp1125:
	#DEBUG_VALUE: rotr64:x <- $r15
	#DEBUG_VALUE: rotr64:b <- 63
	.loc	4 58 21 is_stmt 1               # ./include/sodium/private/common.h:58:21 @[ crypto_generichash/blake2b/ref/blake2b-compress-ref.c:81:2014 ]
	rolq	%r15
.Ltmp1126:
	#DEBUG_VALUE: blake2b_compress_ref:v <- [DW_OP_LLVM_fragment 448 64] $r15
	.loc	4 0 21 is_stmt 0                # ./include/sodium/private/common.h:0:21
	movq	(%rsp), %r10                    # 8-byte Reload
.Ltmp1127:
	.loc	3 81 2074 is_stmt 1             # crypto_generichash/blake2b/ref/blake2b-compress-ref.c:81:2074
	addq	%r10, %rdx
.Ltmp1128:
	.loc	3 81 2066 is_stmt 0             # crypto_generichash/blake2b/ref/blake2b-compress-ref.c:81:2066
	addq	%r8, %rdx
.Ltmp1129:
	#DEBUG_VALUE: blake2b_compress_ref:v <- [DW_OP_LLVM_fragment 192 64] $rdx
	.loc	3 81 2130                       # crypto_generichash/blake2b/ref/blake2b-compress-ref.c:81:2130
	xorq	%rdx, %rsi
.Ltmp1130:
	#DEBUG_VALUE: rotr64:x <- $rsi
	#DEBUG_VALUE: rotr64:b <- 32
	.loc	4 58 21 is_stmt 1               # ./include/sodium/private/common.h:58:21 @[ crypto_generichash/blake2b/ref/blake2b-compress-ref.c:81:2116 ]
	rolq	$32, %rsi
.Ltmp1131:
	#DEBUG_VALUE: blake2b_compress_ref:v <- [DW_OP_LLVM_fragment 896 64] $rsi
	.loc	4 0 21 is_stmt 0                # ./include/sodium/private/common.h:0:21
	movq	-128(%rsp), %r14                # 8-byte Reload
.Ltmp1132:
	.loc	3 81 2151 is_stmt 1             # crypto_generichash/blake2b/ref/blake2b-compress-ref.c:81:2151
	addq	%rsi, %r14
.Ltmp1133:
	#DEBUG_VALUE: blake2b_compress_ref:v <- [DW_OP_LLVM_fragment 576 64] $r14
	.loc	3 81 2181 is_stmt 0             # crypto_generichash/blake2b/ref/blake2b-compress-ref.c:81:2181
	xorq	%r14, %r8
.Ltmp1134:
	#DEBUG_VALUE: rotr64:x <- $r8
	#DEBUG_VALUE: rotr64:b <- 24
	.loc	4 58 21 is_stmt 1               # ./include/sodium/private/common.h:58:21 @[ crypto_generichash/blake2b/ref/blake2b-compress-ref.c:81:2168 ]
	rolq	$40, %r8
.Ltmp1135:
	#DEBUG_VALUE: blake2b_compress_ref:v <- [DW_OP_LLVM_fragment 256 64] $r8
	.loc	3 81 2210                       # crypto_generichash/blake2b/ref/blake2b-compress-ref.c:81:2210
	addq	-96(%rsp), %rdx                 # 8-byte Folded Reload
.Ltmp1136:
	.loc	3 81 2202 is_stmt 0             # crypto_generichash/blake2b/ref/blake2b-compress-ref.c:81:2202
	addq	%r8, %rdx
.Ltmp1137:
	#DEBUG_VALUE: blake2b_compress_ref:v <- [DW_OP_LLVM_fragment 192 64] $rdx
	.loc	3 81 2266                       # crypto_generichash/blake2b/ref/blake2b-compress-ref.c:81:2266
	xorq	%rdx, %rsi
.Ltmp1138:
	#DEBUG_VALUE: rotr64:x <- $rsi
	#DEBUG_VALUE: rotr64:b <- 16
	.loc	4 58 21 is_stmt 1               # ./include/sodium/private/common.h:58:21 @[ crypto_generichash/blake2b/ref/blake2b-compress-ref.c:81:2252 ]
	rolq	$48, %rsi
.Ltmp1139:
	#DEBUG_VALUE: blake2b_compress_ref:v <- [DW_OP_LLVM_fragment 896 64] $rsi
	.loc	3 81 2287                       # crypto_generichash/blake2b/ref/blake2b-compress-ref.c:81:2287
	addq	%rsi, %r14
.Ltmp1140:
	#DEBUG_VALUE: blake2b_compress_ref:v <- [DW_OP_LLVM_fragment 576 64] $r14
	.loc	3 81 2317 is_stmt 0             # crypto_generichash/blake2b/ref/blake2b-compress-ref.c:81:2317
	xorq	%r14, %r8
.Ltmp1141:
	#DEBUG_VALUE: rotr64:x <- $r8
	#DEBUG_VALUE: rotr64:b <- 63
	.loc	4 58 21 is_stmt 1               # ./include/sodium/private/common.h:58:21 @[ crypto_generichash/blake2b/ref/blake2b-compress-ref.c:81:2304 ]
	rolq	%r8
.Ltmp1142:
	#DEBUG_VALUE: blake2b_compress_ref:v <- [DW_OP_LLVM_fragment 256 64] $r8
	.loc	3 82 28                         # crypto_generichash/blake2b/ref/blake2b-compress-ref.c:82:28
	addq	%r10, %r9
.Ltmp1143:
	.loc	3 82 20 is_stmt 0               # crypto_generichash/blake2b/ref/blake2b-compress-ref.c:82:20
	addq	%r8, %r9
.Ltmp1144:
	#DEBUG_VALUE: blake2b_compress_ref:v <- [DW_OP_LLVM_fragment 0 64] $r9
	.loc	3 82 84                         # crypto_generichash/blake2b/ref/blake2b-compress-ref.c:82:84
	xorq	%r9, %rcx
.Ltmp1145:
	#DEBUG_VALUE: rotr64:x <- $rcx
	#DEBUG_VALUE: rotr64:b <- 32
	.loc	4 58 21 is_stmt 1               # ./include/sodium/private/common.h:58:21 @[ crypto_generichash/blake2b/ref/blake2b-compress-ref.c:82:70 ]
	rolq	$32, %rcx
.Ltmp1146:
	#DEBUG_VALUE: blake2b_compress_ref:v <- [DW_OP_LLVM_fragment 768 64] $rcx
	.loc	3 82 105                        # crypto_generichash/blake2b/ref/blake2b-compress-ref.c:82:105
	addq	%rcx, %rax
.Ltmp1147:
	#DEBUG_VALUE: blake2b_compress_ref:v <- [DW_OP_LLVM_fragment 512 64] $rax
	.loc	3 82 135 is_stmt 0              # crypto_generichash/blake2b/ref/blake2b-compress-ref.c:82:135
	xorq	%rax, %r8
.Ltmp1148:
	#DEBUG_VALUE: rotr64:x <- $r8
	#DEBUG_VALUE: rotr64:b <- 24
	.loc	4 58 21 is_stmt 1               # ./include/sodium/private/common.h:58:21 @[ crypto_generichash/blake2b/ref/blake2b-compress-ref.c:82:122 ]
	rolq	$40, %r8
.Ltmp1149:
	#DEBUG_VALUE: blake2b_compress_ref:v <- [DW_OP_LLVM_fragment 256 64] $r8
	.loc	3 82 164                        # crypto_generichash/blake2b/ref/blake2b-compress-ref.c:82:164
	addq	-80(%rsp), %r9                  # 8-byte Folded Reload
.Ltmp1150:
	.loc	3 82 156 is_stmt 0              # crypto_generichash/blake2b/ref/blake2b-compress-ref.c:82:156
	addq	%r8, %r9
.Ltmp1151:
	#DEBUG_VALUE: blake2b_compress_ref:v <- [DW_OP_LLVM_fragment 0 64] $r9
	.loc	3 82 220                        # crypto_generichash/blake2b/ref/blake2b-compress-ref.c:82:220
	xorq	%r9, %rcx
.Ltmp1152:
	#DEBUG_VALUE: rotr64:x <- $rcx
	#DEBUG_VALUE: rotr64:b <- 16
	.loc	4 58 21 is_stmt 1               # ./include/sodium/private/common.h:58:21 @[ crypto_generichash/blake2b/ref/blake2b-compress-ref.c:82:206 ]
	rolq	$48, %rcx
.Ltmp1153:
	#DEBUG_VALUE: blake2b_compress_ref:v <- [DW_OP_LLVM_fragment 768 64] $rcx
	.loc	3 82 241                        # crypto_generichash/blake2b/ref/blake2b-compress-ref.c:82:241
	addq	%rcx, %rax
.Ltmp1154:
	#DEBUG_VALUE: blake2b_compress_ref:v <- [DW_OP_LLVM_fragment 512 64] $rax
	.loc	3 0 241 is_stmt 0               # crypto_generichash/blake2b/ref/blake2b-compress-ref.c:0:241
	movq	%rax, -120(%rsp)                # 8-byte Spill
.Ltmp1155:
	#DEBUG_VALUE: blake2b_compress_ref:v <- [DW_OP_constu 120, DW_OP_minus, DW_OP_deref, DW_OP_LLVM_fragment 512 64] $rsp
	.loc	3 82 271                        # crypto_generichash/blake2b/ref/blake2b-compress-ref.c:82:271
	xorq	%rax, %r8
.Ltmp1156:
	#DEBUG_VALUE: rotr64:x <- $r8
	#DEBUG_VALUE: rotr64:b <- 63
	.loc	4 58 21 is_stmt 1               # ./include/sodium/private/common.h:58:21 @[ crypto_generichash/blake2b/ref/blake2b-compress-ref.c:82:258 ]
	rolq	%r8
.Ltmp1157:
	#DEBUG_VALUE: blake2b_compress_ref:v <- [DW_OP_LLVM_fragment 256 64] $r8
	.loc	3 82 318                        # crypto_generichash/blake2b/ref/blake2b-compress-ref.c:82:318
	addq	-64(%rsp), %r11                 # 8-byte Folded Reload
.Ltmp1158:
	.loc	3 82 310 is_stmt 0              # crypto_generichash/blake2b/ref/blake2b-compress-ref.c:82:310
	addq	%r12, %r11
.Ltmp1159:
	#DEBUG_VALUE: blake2b_compress_ref:v <- [DW_OP_LLVM_fragment 64 64] $r11
	.loc	3 82 374                        # crypto_generichash/blake2b/ref/blake2b-compress-ref.c:82:374
	xorq	%r11, %rdi
.Ltmp1160:
	#DEBUG_VALUE: rotr64:x <- $rdi
	#DEBUG_VALUE: rotr64:b <- 32
	.loc	4 58 21 is_stmt 1               # ./include/sodium/private/common.h:58:21 @[ crypto_generichash/blake2b/ref/blake2b-compress-ref.c:82:360 ]
	rolq	$32, %rdi
.Ltmp1161:
	#DEBUG_VALUE: blake2b_compress_ref:v <- [DW_OP_LLVM_fragment 832 64] $rdi
	.loc	3 82 395                        # crypto_generichash/blake2b/ref/blake2b-compress-ref.c:82:395
	addq	%rdi, %r14
.Ltmp1162:
	#DEBUG_VALUE: blake2b_compress_ref:v <- [DW_OP_LLVM_fragment 576 64] $r14
	.loc	3 82 425 is_stmt 0              # crypto_generichash/blake2b/ref/blake2b-compress-ref.c:82:425
	xorq	%r14, %r12
.Ltmp1163:
	#DEBUG_VALUE: rotr64:x <- $r12
	#DEBUG_VALUE: rotr64:b <- 24
	.loc	4 58 21 is_stmt 1               # ./include/sodium/private/common.h:58:21 @[ crypto_generichash/blake2b/ref/blake2b-compress-ref.c:82:412 ]
	rolq	$40, %r12
.Ltmp1164:
	#DEBUG_VALUE: blake2b_compress_ref:v <- [DW_OP_LLVM_fragment 320 64] $r12
	.loc	3 82 454                        # crypto_generichash/blake2b/ref/blake2b-compress-ref.c:82:454
	addq	-88(%rsp), %r11                 # 8-byte Folded Reload
.Ltmp1165:
	.loc	3 82 446 is_stmt 0              # crypto_generichash/blake2b/ref/blake2b-compress-ref.c:82:446
	addq	%r12, %r11
.Ltmp1166:
	#DEBUG_VALUE: blake2b_compress_ref:v <- [DW_OP_LLVM_fragment 64 64] $r11
	.loc	3 82 510                        # crypto_generichash/blake2b/ref/blake2b-compress-ref.c:82:510
	xorq	%r11, %rdi
.Ltmp1167:
	#DEBUG_VALUE: rotr64:x <- $rdi
	#DEBUG_VALUE: rotr64:b <- 16
	.loc	4 58 21 is_stmt 1               # ./include/sodium/private/common.h:58:21 @[ crypto_generichash/blake2b/ref/blake2b-compress-ref.c:82:496 ]
	rolq	$48, %rdi
.Ltmp1168:
	#DEBUG_VALUE: blake2b_compress_ref:v <- [DW_OP_LLVM_fragment 832 64] $rdi
	.loc	3 82 531                        # crypto_generichash/blake2b/ref/blake2b-compress-ref.c:82:531
	addq	%rdi, %r14
.Ltmp1169:
	#DEBUG_VALUE: blake2b_compress_ref:v <- [DW_OP_LLVM_fragment 576 64] $r14
	.loc	3 82 561 is_stmt 0              # crypto_generichash/blake2b/ref/blake2b-compress-ref.c:82:561
	xorq	%r14, %r12
.Ltmp1170:
	#DEBUG_VALUE: rotr64:x <- $r12
	#DEBUG_VALUE: rotr64:b <- 63
	.loc	4 58 21 is_stmt 1               # ./include/sodium/private/common.h:58:21 @[ crypto_generichash/blake2b/ref/blake2b-compress-ref.c:82:548 ]
	rolq	%r12
.Ltmp1171:
	#DEBUG_VALUE: blake2b_compress_ref:v <- [DW_OP_LLVM_fragment 320 64] $r12
	.loc	3 82 608                        # crypto_generichash/blake2b/ref/blake2b-compress-ref.c:82:608
	addq	-16(%rsp), %r13                 # 8-byte Folded Reload
.Ltmp1172:
	.loc	3 82 600 is_stmt 0              # crypto_generichash/blake2b/ref/blake2b-compress-ref.c:82:600
	addq	%rbx, %r13
.Ltmp1173:
	#DEBUG_VALUE: blake2b_compress_ref:v <- [DW_OP_LLVM_fragment 128 64] $r13
	.loc	3 82 664                        # crypto_generichash/blake2b/ref/blake2b-compress-ref.c:82:664
	xorq	%r13, %rsi
.Ltmp1174:
	#DEBUG_VALUE: rotr64:x <- $rsi
	#DEBUG_VALUE: rotr64:b <- 32
	.loc	4 58 21 is_stmt 1               # ./include/sodium/private/common.h:58:21 @[ crypto_generichash/blake2b/ref/blake2b-compress-ref.c:82:650 ]
	rolq	$32, %rsi
.Ltmp1175:
	#DEBUG_VALUE: blake2b_compress_ref:v <- [DW_OP_LLVM_fragment 896 64] $rsi
	.loc	4 0 21 is_stmt 0                # ./include/sodium/private/common.h:0:21
	movq	-112(%rsp), %r10                # 8-byte Reload
.Ltmp1176:
	.loc	3 82 686 is_stmt 1              # crypto_generichash/blake2b/ref/blake2b-compress-ref.c:82:686
	addq	%rsi, %r10
.Ltmp1177:
	#DEBUG_VALUE: blake2b_compress_ref:v <- [DW_OP_LLVM_fragment 640 64] $r10
	.loc	3 82 716 is_stmt 0              # crypto_generichash/blake2b/ref/blake2b-compress-ref.c:82:716
	xorq	%r10, %rbx
.Ltmp1178:
	#DEBUG_VALUE: rotr64:x <- $rbx
	#DEBUG_VALUE: rotr64:b <- 24
	.loc	4 58 21 is_stmt 1               # ./include/sodium/private/common.h:58:21 @[ crypto_generichash/blake2b/ref/blake2b-compress-ref.c:82:703 ]
	rolq	$40, %rbx
.Ltmp1179:
	#DEBUG_VALUE: blake2b_compress_ref:v <- [DW_OP_LLVM_fragment 384 64] $rbx
	.loc	3 82 746                        # crypto_generichash/blake2b/ref/blake2b-compress-ref.c:82:746
	addq	-48(%rsp), %r13                 # 8-byte Folded Reload
.Ltmp1180:
	.loc	3 82 738 is_stmt 0              # crypto_generichash/blake2b/ref/blake2b-compress-ref.c:82:738
	addq	%rbx, %r13
.Ltmp1181:
	#DEBUG_VALUE: blake2b_compress_ref:v <- [DW_OP_LLVM_fragment 128 64] $r13
	.loc	3 82 802                        # crypto_generichash/blake2b/ref/blake2b-compress-ref.c:82:802
	xorq	%r13, %rsi
.Ltmp1182:
	#DEBUG_VALUE: rotr64:x <- $rsi
	#DEBUG_VALUE: rotr64:b <- 16
	.loc	4 58 21 is_stmt 1               # ./include/sodium/private/common.h:58:21 @[ crypto_generichash/blake2b/ref/blake2b-compress-ref.c:82:788 ]
	rolq	$48, %rsi
.Ltmp1183:
	#DEBUG_VALUE: blake2b_compress_ref:v <- [DW_OP_LLVM_fragment 896 64] $rsi
	.loc	3 82 824                        # crypto_generichash/blake2b/ref/blake2b-compress-ref.c:82:824
	addq	%rsi, %r10
.Ltmp1184:
	#DEBUG_VALUE: blake2b_compress_ref:v <- [DW_OP_LLVM_fragment 640 64] $r10
	.loc	3 82 854 is_stmt 0              # crypto_generichash/blake2b/ref/blake2b-compress-ref.c:82:854
	xorq	%r10, %rbx
.Ltmp1185:
	#DEBUG_VALUE: rotr64:x <- $rbx
	#DEBUG_VALUE: rotr64:b <- 63
	.loc	3 0 854                         # crypto_generichash/blake2b/ref/blake2b-compress-ref.c:0:854
	movq	%r10, %rax
.Ltmp1186:
	.loc	4 58 21 is_stmt 1               # ./include/sodium/private/common.h:58:21 @[ crypto_generichash/blake2b/ref/blake2b-compress-ref.c:82:841 ]
	rolq	%rbx
