	.file	"blake2b-long.c"
	.file	0 "/home/leizhenyuu/opt/Anonymous_Repo/libsodium_o2_attr_inline/src/libsodium" "blake2b-long.c" md5 0xa6507beb4a627cfcf75530da1fd7ab94
	.file	1 "/usr/include/x86_64-linux-gnu/bits" "types.h"
	.file	2 "/usr/include/x86_64-linux-gnu/bits" "stdint-uintn.h"
	.text
	.hidden	blake2b_long                    # -- Begin function blake2b_long
	.globl	blake2b_long
	.p2align	4
	.type	blake2b_long,@function
blake2b_long:                           # @blake2b_long
.Lfunc_begin0:
	.file	3 "crypto_pwhash/argon2" "blake2b-long.c"
	.loc	3 14 0                          # crypto_pwhash/argon2/blake2b-long.c:14:0
	.cfi_startproc
# %bb.0:
	#DEBUG_VALUE: blake2b_long:pout <- $rdi
	#DEBUG_VALUE: blake2b_long:outlen <- $rsi
	#DEBUG_VALUE: blake2b_long:in <- $rdx
	#DEBUG_VALUE: blake2b_long:inlen <- $rcx
	pushq	%rbp
	.cfi_def_cfa_offset 16
	.cfi_offset %rbp, -16
	movq	%rsp, %rbp
	.cfi_def_cfa_register %rbp
	pushq	%r15
	pushq	%r14
	pushq	%r13
	pushq	%r12
	pushq	%rbx
	andq	$-64, %rsp
	subq	$640, %rsp                      # imm = 0x280
	.cfi_offset %rbx, -56
	.cfi_offset %r12, -48
	.cfi_offset %r13, -40
	.cfi_offset %r14, -32
	.cfi_offset %r15, -24
	movq	%fs:40, %rax
	movq	%rax, 576(%rsp)
.Ltmp0:
	#DEBUG_VALUE: blake2b_long:out <- undef
	.loc	3 17 13 prologue_end            # crypto_pwhash/argon2/blake2b-long.c:17:13
	movl	$0, 60(%rsp)
.Ltmp1:
	#DEBUG_VALUE: blake2b_long:ret <- -1
	.loc	3 20 16                         # crypto_pwhash/argon2/blake2b-long.c:20:16
	movq	%rsi, %rax
	shrq	$32, %rax
	movl	$-1, %r15d
	jne	.LBB0_1
.Ltmp2:
# %bb.3:
	#DEBUG_VALUE: blake2b_long:pout <- $rdi
	#DEBUG_VALUE: blake2b_long:outlen <- $rsi
	#DEBUG_VALUE: blake2b_long:in <- $rdx
	#DEBUG_VALUE: blake2b_long:inlen <- $rcx
	#DEBUG_VALUE: blake2b_long:ret <- -1
	.loc	3 0 16 is_stmt 0                # crypto_pwhash/argon2/blake2b-long.c:0:16
	movq	%rsi, %r14
	movq	%rdi, %rbx
.Ltmp3:
	#DEBUG_VALUE: store32_le:dst <- [DW_OP_plus_uconst 60, DW_OP_stack_value] $rsp
	#DEBUG_VALUE: store32_le:w <- undef
	#DEBUG_VALUE: memcpy:__dest <- [DW_OP_plus_uconst 60, DW_OP_stack_value] $rsp
	#DEBUG_VALUE: memcpy:__src <- undef
	#DEBUG_VALUE: memcpy:__len <- 4
	movq	%rdx, %r13
.Ltmp4:
	#DEBUG_VALUE: blake2b_long:in <- $r13
	movq	%rcx, %r12
.Ltmp5:
	#DEBUG_VALUE: blake2b_long:inlen <- $r12
	.file	4 "/usr/include/x86_64-linux-gnu/bits" "string_fortified.h"
	.loc	4 29 10 is_stmt 1               # /usr/include/x86_64-linux-gnu/bits/string_fortified.h:29:10 @[ ./include/sodium/private/common.h:122:5 @[ crypto_pwhash/argon2/blake2b-long.c:25:5 ] ]
	movl	%r14d, 60(%rsp)
	leaq	192(%rsp), %rdi
.Ltmp6:
	#DEBUG_VALUE: blake2b_long:pout <- $rbx
	.loc	3 35 16                         # crypto_pwhash/argon2/blake2b-long.c:35:16
	cmpq	$64, %rsi
	ja	.LBB0_8
.Ltmp7:
# %bb.4:
	#DEBUG_VALUE: blake2b_long:pout <- $rbx
	#DEBUG_VALUE: blake2b_long:outlen <- $r14
	#DEBUG_VALUE: blake2b_long:in <- $r13
	#DEBUG_VALUE: blake2b_long:inlen <- $r12
	#DEBUG_VALUE: blake2b_long:ret <- -1
	.loc	3 36 20                         # crypto_pwhash/argon2/blake2b-long.c:36:20
	xorl	%esi, %esi
	xorl	%edx, %edx
	movq	%r14, %rcx
	callq	crypto_generichash_blake2b_init@PLT
.Ltmp8:
	#DEBUG_VALUE: blake2b_long:ret <- $eax
	.loc	3 36 99 is_stmt 0               # crypto_pwhash/argon2/blake2b-long.c:36:99
	testl	%eax, %eax
	js	.LBB0_18
.Ltmp9:
# %bb.5:
	#DEBUG_VALUE: blake2b_long:pout <- $rbx
	#DEBUG_VALUE: blake2b_long:outlen <- $r14
	#DEBUG_VALUE: blake2b_long:in <- $r13
	#DEBUG_VALUE: blake2b_long:inlen <- $r12
	#DEBUG_VALUE: blake2b_long:ret <- $eax
	.loc	3 0 99                          # crypto_pwhash/argon2/blake2b-long.c:0:99
	leaq	192(%rsp), %rdi
	leaq	60(%rsp), %rsi
.Ltmp10:
	.loc	3 37 20 is_stmt 1               # crypto_pwhash/argon2/blake2b-long.c:37:20
	movl	$4, %edx
	callq	crypto_generichash_blake2b_update@PLT
.Ltmp11:
	#DEBUG_VALUE: blake2b_long:ret <- $eax
	.loc	3 37 113 is_stmt 0              # crypto_pwhash/argon2/blake2b-long.c:37:113
	testl	%eax, %eax
	js	.LBB0_18
.Ltmp12:
# %bb.6:
	#DEBUG_VALUE: blake2b_long:pout <- $rbx
	#DEBUG_VALUE: blake2b_long:outlen <- $r14
	#DEBUG_VALUE: blake2b_long:in <- $r13
	#DEBUG_VALUE: blake2b_long:inlen <- $r12
	#DEBUG_VALUE: blake2b_long:ret <- $eax
	.loc	3 0 113                         # crypto_pwhash/argon2/blake2b-long.c:0:113
	leaq	192(%rsp), %rdi
.Ltmp13:
	.loc	3 39 20 is_stmt 1               # crypto_pwhash/argon2/blake2b-long.c:39:20
	movq	%r13, %rsi
	movq	%r12, %rdx
	callq	crypto_generichash_blake2b_update@PLT
.Ltmp14:
	#DEBUG_VALUE: blake2b_long:ret <- $eax
	.loc	3 39 113 is_stmt 0              # crypto_pwhash/argon2/blake2b-long.c:39:113
	testl	%eax, %eax
	js	.LBB0_18
.Ltmp15:
# %bb.7:
	#DEBUG_VALUE: blake2b_long:pout <- $rbx
	#DEBUG_VALUE: blake2b_long:outlen <- $r14
	#DEBUG_VALUE: blake2b_long:in <- $r13
	#DEBUG_VALUE: blake2b_long:inlen <- $r12
	#DEBUG_VALUE: blake2b_long:ret <- $eax
	.loc	3 0 113                         # crypto_pwhash/argon2/blake2b-long.c:0:113
	leaq	192(%rsp), %rdi
.Ltmp16:
	.loc	3 41 20 is_stmt 1               # crypto_pwhash/argon2/blake2b-long.c:41:20
	movq	%rbx, %rsi
	movq	%r14, %rdx
	callq	crypto_generichash_blake2b_final@PLT
.Ltmp17:
	movl	%eax, %r15d
.Ltmp18:
	#DEBUG_VALUE: blake2b_long:ret <- $r15d
	.loc	3 61 110                        # crypto_pwhash/argon2/blake2b-long.c:61:110
	jmp	.LBB0_1
.Ltmp19:
.LBB0_8:
	#DEBUG_VALUE: blake2b_long:pout <- $rbx
	#DEBUG_VALUE: blake2b_long:outlen <- $r14
	#DEBUG_VALUE: blake2b_long:in <- $r13
	#DEBUG_VALUE: blake2b_long:inlen <- $r12
	#DEBUG_VALUE: blake2b_long:ret <- -1
	.loc	3 46 20                         # crypto_pwhash/argon2/blake2b-long.c:46:20
	movl	$64, %ecx
	xorl	%esi, %esi
	xorl	%edx, %edx
	callq	crypto_generichash_blake2b_init@PLT
.Ltmp20:
	#DEBUG_VALUE: blake2b_long:ret <- $eax
	.loc	3 46 97 is_stmt 0               # crypto_pwhash/argon2/blake2b-long.c:46:97
	testl	%eax, %eax
	js	.LBB0_18
.Ltmp21:
# %bb.9:
	#DEBUG_VALUE: blake2b_long:pout <- $rbx
	#DEBUG_VALUE: blake2b_long:outlen <- $r14
	#DEBUG_VALUE: blake2b_long:in <- $r13
	#DEBUG_VALUE: blake2b_long:inlen <- $r12
	#DEBUG_VALUE: blake2b_long:ret <- $eax
	.loc	3 0 97                          # crypto_pwhash/argon2/blake2b-long.c:0:97
	leaq	192(%rsp), %rdi
	leaq	60(%rsp), %rsi
.Ltmp22:
	.loc	3 48 20 is_stmt 1               # crypto_pwhash/argon2/blake2b-long.c:48:20
	movl	$4, %edx
	callq	crypto_generichash_blake2b_update@PLT
.Ltmp23:
	#DEBUG_VALUE: blake2b_long:ret <- $eax
	.loc	3 48 113 is_stmt 0              # crypto_pwhash/argon2/blake2b-long.c:48:113
	testl	%eax, %eax
	js	.LBB0_18
.Ltmp24:
# %bb.10:
	#DEBUG_VALUE: blake2b_long:pout <- $rbx
	#DEBUG_VALUE: blake2b_long:outlen <- $r14
	#DEBUG_VALUE: blake2b_long:in <- $r13
	#DEBUG_VALUE: blake2b_long:inlen <- $r12
	#DEBUG_VALUE: blake2b_long:ret <- $eax
	.loc	3 0 113                         # crypto_pwhash/argon2/blake2b-long.c:0:113
	leaq	192(%rsp), %rdi
.Ltmp25:
	.loc	3 50 20 is_stmt 1               # crypto_pwhash/argon2/blake2b-long.c:50:20
	movq	%r13, %rsi
	movq	%r12, %rdx
	callq	crypto_generichash_blake2b_update@PLT
.Ltmp26:
	#DEBUG_VALUE: blake2b_long:ret <- $eax
	.loc	3 50 113 is_stmt 0              # crypto_pwhash/argon2/blake2b-long.c:50:113
	testl	%eax, %eax
	js	.LBB0_18
.Ltmp27:
# %bb.11:
	#DEBUG_VALUE: blake2b_long:pout <- $rbx
	#DEBUG_VALUE: blake2b_long:outlen <- $r14
	#DEBUG_VALUE: blake2b_long:in <- $r13
	#DEBUG_VALUE: blake2b_long:inlen <- $r12
	#DEBUG_VALUE: blake2b_long:ret <- $eax
	.loc	3 0 113                         # crypto_pwhash/argon2/blake2b-long.c:0:113
	leaq	192(%rsp), %rdi
	leaq	128(%rsp), %rsi
.Ltmp28:
	.loc	3 52 20 is_stmt 1               # crypto_pwhash/argon2/blake2b-long.c:52:20
	movl	$64, %edx
	callq	crypto_generichash_blake2b_final@PLT
.Ltmp29:
	#DEBUG_VALUE: blake2b_long:ret <- $eax
	.loc	3 52 94 is_stmt 0               # crypto_pwhash/argon2/blake2b-long.c:52:94
	testl	%eax, %eax
	js	.LBB0_18
.Ltmp30:
# %bb.12:
	#DEBUG_VALUE: blake2b_long:pout <- $rbx
	#DEBUG_VALUE: blake2b_long:outlen <- $r14
	#DEBUG_VALUE: blake2b_long:in <- $r13
	#DEBUG_VALUE: blake2b_long:inlen <- $r12
	#DEBUG_VALUE: blake2b_long:ret <- $eax
	#DEBUG_VALUE: memcpy:__dest <- $rbx
	#DEBUG_VALUE: memcpy:__src <- [DW_OP_plus_uconst 128, DW_OP_stack_value] $rsp
	#DEBUG_VALUE: memcpy:__len <- 32
	.loc	4 29 10 is_stmt 1               # /usr/include/x86_64-linux-gnu/bits/string_fortified.h:29:10 @[ crypto_pwhash/argon2/blake2b-long.c:54:9 ]
	movaps	128(%rsp), %xmm0
	movaps	144(%rsp), %xmm1
	movups	%xmm1, 16(%rbx)
	movups	%xmm0, (%rbx)
.Ltmp31:
	#DEBUG_VALUE: blake2b_long:out <- [DW_OP_plus_uconst 32, DW_OP_stack_value] $rbx
	#DEBUG_VALUE: toproduce <- [DW_OP_constu 32, DW_OP_minus, DW_OP_stack_value] $r14d
	.loc	3 0 0 is_stmt 0                 # crypto_pwhash/argon2/blake2b-long.c:0
	leal	-32(%r14), %r13d
.Ltmp32:
	#DEBUG_VALUE: blake2b_long:in <- [DW_OP_LLVM_entry_value 1] $rdx
	addq	$32, %rbx
.Ltmp33:
	#DEBUG_VALUE: blake2b_long:pout <- [DW_OP_LLVM_entry_value 1] $rdi
	.loc	3 59 26 is_stmt 1               # crypto_pwhash/argon2/blake2b-long.c:59:26
	cmpl	$65, %r13d
	.loc	3 59 9 is_stmt 0                # crypto_pwhash/argon2/blake2b-long.c:59:9
	jb	.LBB0_16
.Ltmp34:
# %bb.13:                               # %.lr.ph.preheader
	#DEBUG_VALUE: blake2b_long:pout <- [DW_OP_LLVM_entry_value 1] $rdi
	#DEBUG_VALUE: blake2b_long:outlen <- $r14
	#DEBUG_VALUE: blake2b_long:in <- [DW_OP_LLVM_entry_value 1] $rdx
	#DEBUG_VALUE: blake2b_long:inlen <- $r12
	#DEBUG_VALUE: blake2b_long:ret <- $eax
	#DEBUG_VALUE: memcpy:__src <- [DW_OP_plus_uconst 128, DW_OP_stack_value] $rsp
	#DEBUG_VALUE: memcpy:__len <- 32
	#DEBUG_VALUE: toproduce <- [DW_OP_constu 32, DW_OP_minus, DW_OP_stack_value] $r14d
	.loc	3 0 9                           # crypto_pwhash/argon2/blake2b-long.c:0:9
	leaq	128(%rsp), %r14
.Ltmp35:
	#DEBUG_VALUE: blake2b_long:outlen <- [DW_OP_LLVM_entry_value 1] $rsi
	leaq	64(%rsp), %r12
.Ltmp36:
	#DEBUG_VALUE: blake2b_long:inlen <- [DW_OP_LLVM_entry_value 1] $rcx
	.p2align	4
.LBB0_14:                               # %.lr.ph
                                        # =>This Inner Loop Header: Depth=1
	#DEBUG_VALUE: blake2b_long:pout <- [DW_OP_LLVM_entry_value 1] $rdi
	#DEBUG_VALUE: blake2b_long:outlen <- [DW_OP_LLVM_entry_value 1] $rsi
	#DEBUG_VALUE: blake2b_long:in <- [DW_OP_LLVM_entry_value 1] $rdx
	#DEBUG_VALUE: blake2b_long:inlen <- [DW_OP_LLVM_entry_value 1] $rcx
	#DEBUG_VALUE: blake2b_long:ret <- $eax
	#DEBUG_VALUE: memcpy:__dest <- [DW_OP_plus_uconst 64, DW_OP_stack_value] $rsp
	#DEBUG_VALUE: memcpy:__src <- [DW_OP_plus_uconst 128, DW_OP_stack_value] $rsp
	#DEBUG_VALUE: memcpy:__len <- 64
	.loc	4 29 10 is_stmt 1               # /usr/include/x86_64-linux-gnu/bits/string_fortified.h:29:10 @[ crypto_pwhash/argon2/blake2b-long.c:60:13 ]
	movaps	128(%rsp), %xmm0
	movaps	144(%rsp), %xmm1
	movaps	160(%rsp), %xmm2
	movaps	176(%rsp), %xmm3
	movaps	%xmm3, 112(%rsp)
	movaps	%xmm2, 96(%rsp)
	movaps	%xmm1, 80(%rsp)
	movaps	%xmm0, 64(%rsp)
.Ltmp37:
	.loc	3 61 24                         # crypto_pwhash/argon2/blake2b-long.c:61:24
	movl	$64, %esi
	movl	$64, %ecx
	movq	%r14, %rdi
	movq	%r12, %rdx
	xorl	%r8d, %r8d
	xorl	%r9d, %r9d
	callq	crypto_generichash_blake2b@PLT
.Ltmp38:
	#DEBUG_VALUE: blake2b_long:ret <- $eax
	.loc	3 61 110 is_stmt 0              # crypto_pwhash/argon2/blake2b-long.c:61:110
	testl	%eax, %eax
	js	.LBB0_18
.Ltmp39:
# %bb.15:                               #   in Loop: Header=BB0_14 Depth=1
	#DEBUG_VALUE: blake2b_long:pout <- [DW_OP_LLVM_entry_value 1] $rdi
	#DEBUG_VALUE: blake2b_long:outlen <- [DW_OP_LLVM_entry_value 1] $rsi
	#DEBUG_VALUE: blake2b_long:in <- [DW_OP_LLVM_entry_value 1] $rdx
	#DEBUG_VALUE: blake2b_long:inlen <- [DW_OP_LLVM_entry_value 1] $rcx
	#DEBUG_VALUE: blake2b_long:ret <- $eax
	#DEBUG_VALUE: memcpy:__dest <- $rbx
	#DEBUG_VALUE: memcpy:__src <- [DW_OP_plus_uconst 128, DW_OP_stack_value] $rsp
	#DEBUG_VALUE: memcpy:__len <- 32
	.loc	4 29 10 is_stmt 1               # /usr/include/x86_64-linux-gnu/bits/string_fortified.h:29:10 @[ crypto_pwhash/argon2/blake2b-long.c:64:13 ]
	movaps	128(%rsp), %xmm0
	movaps	144(%rsp), %xmm1
	movups	%xmm1, 16(%rbx)
	movups	%xmm0, (%rbx)
.Ltmp40:
	#DEBUG_VALUE: blake2b_long:out <- [DW_OP_plus_uconst 32, DW_OP_stack_value] $rbx
	#DEBUG_VALUE: toproduce <- [DW_OP_constu 32, DW_OP_minus, DW_OP_stack_value] $r13d
	.loc	3 0 0 is_stmt 0                 # crypto_pwhash/argon2/blake2b-long.c:0
	addl	$-32, %r13d
.Ltmp41:
	addq	$32, %rbx
.Ltmp42:
	#DEBUG_VALUE: blake2b_long:out <- $rbx
	#DEBUG_VALUE: toproduce <- $r13d
	.loc	3 59 26 is_stmt 1               # crypto_pwhash/argon2/blake2b-long.c:59:26
	cmpl	$64, %r13d
	.loc	3 59 9 is_stmt 0                # crypto_pwhash/argon2/blake2b-long.c:59:9
	ja	.LBB0_14
.Ltmp43:
.LBB0_16:                               # %._crit_edge
	#DEBUG_VALUE: blake2b_long:pout <- [DW_OP_LLVM_entry_value 1] $rdi
	#DEBUG_VALUE: blake2b_long:outlen <- [DW_OP_LLVM_entry_value 1] $rsi
	#DEBUG_VALUE: blake2b_long:in <- [DW_OP_LLVM_entry_value 1] $rdx
	#DEBUG_VALUE: blake2b_long:inlen <- [DW_OP_LLVM_entry_value 1] $rcx
	#DEBUG_VALUE: blake2b_long:ret <- $eax
	#DEBUG_VALUE: memcpy:__dest <- [DW_OP_plus_uconst 64, DW_OP_stack_value] $rsp
	#DEBUG_VALUE: memcpy:__src <- [DW_OP_plus_uconst 128, DW_OP_stack_value] $rsp
	#DEBUG_VALUE: memcpy:__len <- 64
	.loc	4 29 10 is_stmt 1               # /usr/include/x86_64-linux-gnu/bits/string_fortified.h:29:10 @[ crypto_pwhash/argon2/blake2b-long.c:69:9 ]
	movaps	128(%rsp), %xmm0
	movaps	144(%rsp), %xmm1
	movaps	160(%rsp), %xmm2
	movaps	176(%rsp), %xmm3
	movaps	%xmm3, 112(%rsp)
	movaps	%xmm2, 96(%rsp)
	movaps	%xmm1, 80(%rsp)
	movaps	%xmm0, 64(%rsp)
.Ltmp44:
	.loc	3 70 59                         # crypto_pwhash/argon2/blake2b-long.c:70:59
	movl	%r13d, %r14d
	leaq	128(%rsp), %rdi
	leaq	64(%rsp), %rdx
	.loc	3 70 20 is_stmt 0               # crypto_pwhash/argon2/blake2b-long.c:70:20
	movl	$64, %ecx
	movq	%r14, %rsi
	xorl	%r8d, %r8d
	xorl	%r9d, %r9d
	callq	crypto_generichash_blake2b@PLT
.Ltmp45:
	movl	%eax, %r15d
.Ltmp46:
	#DEBUG_VALUE: blake2b_long:ret <- $r15d
	.loc	3 70 111                        # crypto_pwhash/argon2/blake2b-long.c:70:111
	testl	%eax, %eax
	js	.LBB0_1
.Ltmp47:
# %bb.17:
	#DEBUG_VALUE: blake2b_long:pout <- [DW_OP_LLVM_entry_value 1] $rdi
	#DEBUG_VALUE: blake2b_long:outlen <- [DW_OP_LLVM_entry_value 1] $rsi
	#DEBUG_VALUE: blake2b_long:in <- [DW_OP_LLVM_entry_value 1] $rdx
	#DEBUG_VALUE: blake2b_long:inlen <- [DW_OP_LLVM_entry_value 1] $rcx
	#DEBUG_VALUE: blake2b_long:ret <- $r15d
	#DEBUG_VALUE: memcpy:__dest <- $rbx
	#DEBUG_VALUE: memcpy:__src <- [DW_OP_plus_uconst 128, DW_OP_stack_value] $rsp
	#DEBUG_VALUE: memcpy:__len <- $r14d
	.loc	3 0 111                         # crypto_pwhash/argon2/blake2b-long.c:0:111
	leaq	128(%rsp), %rsi
.Ltmp48:
	.loc	4 29 10 is_stmt 1               # /usr/include/x86_64-linux-gnu/bits/string_fortified.h:29:10 @[ crypto_pwhash/argon2/blake2b-long.c:73:9 ]
	movq	%rbx, %rdi
	movq	%r14, %rdx
	callq	memcpy@PLT
.Ltmp49:
	#DEBUG_VALUE: blake2b_long:ret <- $r15d
	.loc	4 0 10 is_stmt 0                # /usr/include/x86_64-linux-gnu/bits/string_fortified.h:0:10
	jmp	.LBB0_1
.Ltmp50:
.LBB0_18:
	#DEBUG_VALUE: blake2b_long:pout <- [DW_OP_LLVM_entry_value 1] $rdi
	#DEBUG_VALUE: blake2b_long:outlen <- [DW_OP_LLVM_entry_value 1] $rsi
	#DEBUG_VALUE: blake2b_long:in <- [DW_OP_LLVM_entry_value 1] $rdx
	#DEBUG_VALUE: blake2b_long:inlen <- [DW_OP_LLVM_entry_value 1] $rcx
	#DEBUG_VALUE: blake2b_long:ret <- $eax
	movl	%eax, %r15d
.Ltmp51:
.LBB0_1:
	#DEBUG_VALUE: blake2b_long:pout <- [DW_OP_LLVM_entry_value 1] $rdi
	#DEBUG_VALUE: blake2b_long:outlen <- [DW_OP_LLVM_entry_value 1] $rsi
	#DEBUG_VALUE: blake2b_long:in <- [DW_OP_LLVM_entry_value 1] $rdx
	#DEBUG_VALUE: blake2b_long:inlen <- [DW_OP_LLVM_entry_value 1] $rcx
	#DEBUG_LABEL: blake2b_long:fail
	leaq	192(%rsp), %rdi
	.loc	3 76 5 is_stmt 1                # crypto_pwhash/argon2/blake2b-long.c:76:5
	movl	$384, %esi                      # imm = 0x180
	callq	sodium_memzero@PLT
.Ltmp52:
	.loc	3 79 1                          # crypto_pwhash/argon2/blake2b-long.c:79:1
	movq	%fs:40, %rax
	cmpq	576(%rsp), %rax
	jne	.LBB0_26
.Ltmp53:
# %bb.2:                                # %SP_return
	#DEBUG_VALUE: blake2b_long:pout <- [DW_OP_LLVM_entry_value 1] $rdi
	#DEBUG_VALUE: blake2b_long:outlen <- [DW_OP_LLVM_entry_value 1] $rsi
	#DEBUG_VALUE: blake2b_long:in <- [DW_OP_LLVM_entry_value 1] $rdx
	#DEBUG_VALUE: blake2b_long:inlen <- [DW_OP_LLVM_entry_value 1] $rcx
	movl	%r15d, %eax
	leaq	-40(%rbp), %rsp
	.loc	3 79 1 epilogue_begin is_stmt 0 # crypto_pwhash/argon2/blake2b-long.c:79:1
	popq	%rbx
	popq	%r12
	popq	%r13
	popq	%r14
	popq	%r15
	popq	%rbp
	.cfi_def_cfa %rsp, 8
	retq
.Ltmp54:
.LBB0_26:                               # %CallStackCheckFailBlk
	.cfi_def_cfa %rbp, 16
	#DEBUG_VALUE: blake2b_long:pout <- [DW_OP_LLVM_entry_value 1] $rdi
	#DEBUG_VALUE: blake2b_long:outlen <- [DW_OP_LLVM_entry_value 1] $rsi
	#DEBUG_VALUE: blake2b_long:in <- [DW_OP_LLVM_entry_value 1] $rdx
	#DEBUG_VALUE: blake2b_long:inlen <- [DW_OP_LLVM_entry_value 1] $rcx
	.loc	3 0 0                           # crypto_pwhash/argon2/blake2b-long.c:0
	callq	__stack_chk_fail@PLT
.Ltmp55:
.Lfunc_end0:
	.size	blake2b_long, .Lfunc_end0-blake2b_long
	.cfi_endproc
	.file	5 "/home/leizhenyuu/opt/Anonymous_Repo" "llvm-project/build/lib/clang/21/include/__stddef_size_t.h"
	.file	6 "./include/sodium/private" "common.h"
	.file	7 "./include/sodium" "crypto_generichash_blake2b.h"
	.file	8 "./include/sodium" "utils.h"
                                        # -- End function
	.section	".note.GNU-stack","",@progbits
	.addrsig
	.addrsig_sym __stack_chk_fail