	.file	"blake2b-ref.c"
	.file	0 "/home/leizhenyuu/opt/Anonymous_Repo/libsodium_o2_attr_inline/src/libsodium" "blake2b-ref.c" md5 0x39c83b6814d8727e0888dd7e9f05280f
	.file	1 "crypto_generichash/blake2b/ref" "blake2b-ref.c"
	.file	2 "/usr/include/x86_64-linux-gnu/bits" "types.h"
	.file	3 "/usr/include/x86_64-linux-gnu/bits" "stdint-uintn.h"
	.file	4 "crypto_generichash/blake2b/ref" "blake2.h"
	.file	5 "/home/leizhenyuu/opt/Anonymous_Repo" "llvm-project/build/lib/clang/21/include/__stddef_size_t.h"
	.file	6 "./include/sodium/private" "common.h"
	.text
	.hidden	blake2b_init_param              # -- Begin function blake2b_init_param
	.globl	blake2b_init_param
	.p2align	4
	.type	blake2b_init_param,@function
blake2b_init_param:                     # @blake2b_init_param
.Lfunc_begin0:
	.loc	1 110 0                         # crypto_generichash/blake2b/ref/blake2b-ref.c:110:0
	.cfi_startproc
# %bb.0:
	#DEBUG_VALUE: blake2b_init_param:S <- $rdi
	#DEBUG_VALUE: blake2b_init_param:P <- $rsi
	#DEBUG_VALUE: blake2b_init0:S <- $rdi
	pushq	%r14
	.cfi_def_cfa_offset 16
	pushq	%rbx
	.cfi_def_cfa_offset 24
	pushq	%rax
	.cfi_def_cfa_offset 32
	.cfi_offset %rbx, -24
	.cfi_offset %r14, -16
	movq	%rsi, %r14
	movq	%rdi, %rbx
.Ltmp0:
	#DEBUG_VALUE: blake2b_init0:i <- 0
	.loc	1 98 17 prologue_end            # crypto_generichash/blake2b/ref/blake2b-ref.c:98:17 @[ crypto_generichash/blake2b/ref/blake2b-ref.c:115:5 ]
	movaps	blake2b_IV+48(%rip), %xmm0
	movups	%xmm0, 48(%rdi)
	movaps	blake2b_IV+32(%rip), %xmm0
	movups	%xmm0, 32(%rdi)
	movaps	blake2b_IV+16(%rip), %xmm0
	movups	%xmm0, 16(%rdi)
	movaps	blake2b_IV(%rip), %xmm0
	movups	%xmm0, (%rdi)
.Ltmp1:
	#DEBUG_VALUE: blake2b_init0:i <- undef
	.loc	1 101 25                        # crypto_generichash/blake2b/ref/blake2b-ref.c:101:25 @[ crypto_generichash/blake2b/ref/blake2b-ref.c:115:5 ]
	addq	$64, %rdi
.Ltmp2:
	#DEBUG_VALUE: blake2b_init0:S <- $rbx
	#DEBUG_VALUE: blake2b_init_param:S <- $rbx
	#DEBUG_VALUE: memset:__dest <- $rdi
	#DEBUG_VALUE: memset:__ch <- 0
	#DEBUG_VALUE: memset:__len <- 297
	.file	7 "/usr/include/x86_64-linux-gnu/bits" "string_fortified.h"
	.loc	7 59 10                         # /usr/include/x86_64-linux-gnu/bits/string_fortified.h:59:10 @[ crypto_generichash/blake2b/ref/blake2b-ref.c:101:5 @[ crypto_generichash/blake2b/ref/blake2b-ref.c:115:5 ] ]
	movl	$297, %edx                      # imm = 0x129
	xorl	%esi, %esi
.Ltmp3:
	#DEBUG_VALUE: blake2b_init_param:P <- $r14
	callq	memset@PLT
.Ltmp4:
	.loc	7 0 10 is_stmt 0                # /usr/include/x86_64-linux-gnu/bits/string_fortified.h:0:10
	movabsq	$7640891576956012808, %rax      # imm = 0x6A09E667F3BCC908
.Ltmp5:
	#DEBUG_VALUE: blake2b_init_param:p <- $r14
	#DEBUG_VALUE: blake2b_init_param:i <- 0
	#DEBUG_VALUE: memcpy:__len <- 8
	.loc	1 120 17 is_stmt 1              # crypto_generichash/blake2b/ref/blake2b-ref.c:120:17
	xorq	(%r14), %rax
	movq	%rax, (%rbx)
	movabsq	$-4942790177534073029, %rax     # imm = 0xBB67AE8584CAA73B
.Ltmp6:
	#DEBUG_VALUE: blake2b_init_param:i <- 1
	#DEBUG_VALUE: load64_le:src <- undef
	#DEBUG_VALUE: memcpy:__src <- undef
	xorq	8(%r14), %rax
	movq	%rax, 8(%rbx)
	movabsq	$4354685564936845355, %rax      # imm = 0x3C6EF372FE94F82B
.Ltmp7:
	#DEBUG_VALUE: blake2b_init_param:i <- 2
	xorq	16(%r14), %rax
	movq	%rax, 16(%rbx)
	movabsq	$-6534734903238641935, %rax     # imm = 0xA54FF53A5F1D36F1
.Ltmp8:
	#DEBUG_VALUE: blake2b_init_param:i <- 3
	xorq	24(%r14), %rax
	movq	%rax, 24(%rbx)
	movabsq	$5840696475078001361, %rax      # imm = 0x510E527FADE682D1
.Ltmp9:
	#DEBUG_VALUE: blake2b_init_param:i <- 4
	xorq	32(%r14), %rax
	movq	%rax, 32(%rbx)
	movabsq	$-7276294671716946913, %rax     # imm = 0x9B05688C2B3E6C1F
.Ltmp10:
	#DEBUG_VALUE: blake2b_init_param:i <- 5
	xorq	40(%r14), %rax
	movq	%rax, 40(%rbx)
	movabsq	$2270897969802886507, %rax      # imm = 0x1F83D9ABFB41BD6B
.Ltmp11:
	#DEBUG_VALUE: blake2b_init_param:i <- 6
	xorq	48(%r14), %rax
	movq	%rax, 48(%rbx)
	movabsq	$6620516959819538809, %rax      # imm = 0x5BE0CD19137E2179
.Ltmp12:
	#DEBUG_VALUE: blake2b_init_param:i <- 7
	xorq	56(%r14), %rax
	movq	%rax, 56(%rbx)
.Ltmp13:
	#DEBUG_VALUE: blake2b_init_param:i <- 8
	.loc	1 122 5                         # crypto_generichash/blake2b/ref/blake2b-ref.c:122:5
	xorl	%eax, %eax
	.loc	1 122 5 epilogue_begin is_stmt 0 # crypto_generichash/blake2b/ref/blake2b-ref.c:122:5
	addq	$8, %rsp
	.cfi_def_cfa_offset 24
	popq	%rbx
.Ltmp14:
	#DEBUG_VALUE: blake2b_init_param:S <- [DW_OP_LLVM_entry_value 1] $rdi
	.cfi_def_cfa_offset 16
	popq	%r14
.Ltmp15:
	#DEBUG_VALUE: blake2b_init_param:P <- [DW_OP_LLVM_entry_value 1] $rsi
	.cfi_def_cfa_offset 8
	retq
.Ltmp16:
.Lfunc_end0:
	.size	blake2b_init_param, .Lfunc_end0-blake2b_init_param
	.cfi_endproc
                                        # -- End function
	.hidden	blake2b_init                    # -- Begin function blake2b_init
	.globl	blake2b_init
	.p2align	4
	.type	blake2b_init,@function
blake2b_init:                           # @blake2b_init
.Lfunc_begin1:
	.loc	1 127 0 is_stmt 1               # crypto_generichash/blake2b/ref/blake2b-ref.c:127:0
	.cfi_startproc
# %bb.0:
	#DEBUG_VALUE: blake2b_init:S <- $rdi
	#DEBUG_VALUE: blake2b_init:outlen <- $esi
	pushq	%r14
	.cfi_def_cfa_offset 16
	pushq	%rbx
	.cfi_def_cfa_offset 24
	pushq	%rax
	.cfi_def_cfa_offset 32
	.cfi_offset %rbx, -24
	.cfi_offset %r14, -16
                                        # kill: def $esi killed $esi def $rsi
.Ltmp17:
	.loc	1 130 19 prologue_end           # crypto_generichash/blake2b/ref/blake2b-ref.c:130:19
	leal	-65(%rsi), %eax
	cmpb	$-65, %al
	jbe	.LBB1_2
.Ltmp18:
# %bb.1:
	#DEBUG_VALUE: blake2b_init:S <- $rdi
	#DEBUG_VALUE: blake2b_init:outlen <- $esi
	.loc	1 0 19 is_stmt 0                # crypto_generichash/blake2b/ref/blake2b-ref.c:0:19
	movq	%rdi, %rbx
	.loc	1 133 22 is_stmt 1              # crypto_generichash/blake2b/ref/blake2b-ref.c:133:22
	movzbl	%sil, %r14d
.Ltmp19:
	#DEBUG_VALUE: blake2b_init:P <- [DW_OP_constu 16842752, DW_OP_or, DW_OP_stack_value, DW_OP_LLVM_fragment 0 64] $r14d
	#DEBUG_VALUE: blake2b_init:P <- [DW_OP_LLVM_fragment 64 64] 0
	#DEBUG_VALUE: blake2b_init:P <- [DW_OP_LLVM_fragment 128 8] 0
	#DEBUG_VALUE: blake2b_init:P <- [DW_OP_LLVM_fragment 136 8] 0
	#DEBUG_VALUE: memset:__dest <- undef
	#DEBUG_VALUE: memset:__ch <- 0
	#DEBUG_VALUE: memset:__len <- 14
	#DEBUG_VALUE: blake2b_init:P <- [DW_OP_LLVM_fragment 144 48] 0
	#DEBUG_VALUE: blake2b_init:P <- [DW_OP_LLVM_fragment 192 64] 0
	#DEBUG_VALUE: memset:__dest <- undef
	#DEBUG_VALUE: memset:__ch <- 0
	#DEBUG_VALUE: memset:__len <- 16
	#DEBUG_VALUE: blake2b_init:P <- [DW_OP_LLVM_fragment 256 64] 0
	#DEBUG_VALUE: blake2b_init:P <- [DW_OP_LLVM_fragment 320 64] 0
	#DEBUG_VALUE: memset:__dest <- undef
	#DEBUG_VALUE: memset:__ch <- 0
	#DEBUG_VALUE: memset:__len <- 16
	#DEBUG_VALUE: blake2b_init:P <- [DW_OP_LLVM_fragment 384 64] 0
	#DEBUG_VALUE: blake2b_init:P <- [DW_OP_LLVM_fragment 448 64] 0
	#DEBUG_VALUE: blake2b_init_param:S <- $rbx
	#DEBUG_VALUE: blake2b_init_param:P <- undef
	#DEBUG_VALUE: blake2b_init0:S <- $rbx
	#DEBUG_VALUE: blake2b_init0:i <- undef
	.loc	1 101 25                        # crypto_generichash/blake2b/ref/blake2b-ref.c:101:25 @[ crypto_generichash/blake2b/ref/blake2b-ref.c:115:5 @[ crypto_generichash/blake2b/ref/blake2b-ref.c:144:12 ] ]
	addq	$64, %rdi
.Ltmp20:
	#DEBUG_VALUE: blake2b_init:S <- $rbx
	#DEBUG_VALUE: memset:__dest <- $rdi
	#DEBUG_VALUE: memset:__ch <- 0
	#DEBUG_VALUE: memset:__len <- 297
	.loc	7 59 10                         # /usr/include/x86_64-linux-gnu/bits/string_fortified.h:59:10 @[ crypto_generichash/blake2b/ref/blake2b-ref.c:101:5 @[ crypto_generichash/blake2b/ref/blake2b-ref.c:115:5 @[ crypto_generichash/blake2b/ref/blake2b-ref.c:144:12 ] ] ]
	movl	$297, %edx                      # imm = 0x129
	xorl	%esi, %esi
.Ltmp21:
	#DEBUG_VALUE: blake2b_init:outlen <- [DW_OP_LLVM_entry_value 1] $esi
	callq	memset@PLT
.Ltmp22:
	.loc	7 0 10 is_stmt 0                # /usr/include/x86_64-linux-gnu/bits/string_fortified.h:0:10
	movabsq	$7640891576939301128, %rax      # imm = 0x6A09E667F2BDC908
.Ltmp23:
	#DEBUG_VALUE: blake2b_init_param:p <- undef
	#DEBUG_VALUE: blake2b_init_param:i <- 0
	.loc	1 120 17 is_stmt 1              # crypto_generichash/blake2b/ref/blake2b-ref.c:120:17 @[ crypto_generichash/blake2b/ref/blake2b-ref.c:144:12 ]
	xorq	%r14, %rax
	movq	%rax, (%rbx)
	movabsq	$-4942790177534073029, %rax     # imm = 0xBB67AE8584CAA73B
.Ltmp24:
	#DEBUG_VALUE: blake2b_init_param:i <- 1
	movq	%rax, 8(%rbx)
	movabsq	$4354685564936845355, %rax      # imm = 0x3C6EF372FE94F82B
.Ltmp25:
	#DEBUG_VALUE: blake2b_init_param:i <- 2
	movq	%rax, 16(%rbx)
	movabsq	$-6534734903238641935, %rax     # imm = 0xA54FF53A5F1D36F1
.Ltmp26:
	#DEBUG_VALUE: blake2b_init_param:i <- 3
	movq	%rax, 24(%rbx)
	movabsq	$5840696475078001361, %rax      # imm = 0x510E527FADE682D1
.Ltmp27:
	#DEBUG_VALUE: blake2b_init_param:i <- 4
	movq	%rax, 32(%rbx)
	movabsq	$-7276294671716946913, %rax     # imm = 0x9B05688C2B3E6C1F
.Ltmp28:
	#DEBUG_VALUE: blake2b_init_param:i <- 5
	movq	%rax, 40(%rbx)
	movabsq	$2270897969802886507, %rax      # imm = 0x1F83D9ABFB41BD6B
.Ltmp29:
	#DEBUG_VALUE: blake2b_init_param:i <- 6
	movq	%rax, 48(%rbx)
	movabsq	$6620516959819538809, %rax      # imm = 0x5BE0CD19137E2179
.Ltmp30:
	#DEBUG_VALUE: blake2b_init_param:i <- 7
	movq	%rax, 56(%rbx)
.Ltmp31:
	#DEBUG_VALUE: blake2b_init_param:i <- 8
	.loc	1 144 5                         # crypto_generichash/blake2b/ref/blake2b-ref.c:144:5
	xorl	%eax, %eax
	.loc	1 144 5 epilogue_begin is_stmt 0 # crypto_generichash/blake2b/ref/blake2b-ref.c:144:5
	addq	$8, %rsp
	.cfi_def_cfa_offset 24
	popq	%rbx
.Ltmp32:
	#DEBUG_VALUE: blake2b_init:S <- [DW_OP_LLVM_entry_value 1] $rdi
	.cfi_def_cfa_offset 16
	popq	%r14
.Ltmp33:
	.cfi_def_cfa_offset 8
	retq
.Ltmp34:
.LBB1_2:
	.cfi_def_cfa_offset 32
	#DEBUG_VALUE: blake2b_init:S <- $rdi
	#DEBUG_VALUE: blake2b_init:outlen <- $esi
	.loc	1 131 9 is_stmt 1               # crypto_generichash/blake2b/ref/blake2b-ref.c:131:9
	callq	sodium_misuse@PLT
.Ltmp35:
	#DEBUG_VALUE: blake2b_init:outlen <- [DW_OP_LLVM_entry_value 1] $esi
	#DEBUG_VALUE: blake2b_init:S <- [DW_OP_LLVM_entry_value 1] $rdi
.Lfunc_end1:
	.size	blake2b_init, .Lfunc_end1-blake2b_init
	.cfi_endproc
	.file	8 "./include/sodium" "core.h"
                                        # -- End function
	.section	.rodata.cst16,"aM",@progbits,16
	.p2align	4, 0x0                          # -- Begin function blake2b_init_salt_personal
.LCPI2_0:
	.quad	5840696475078001361             # 0x510e527fade682d1
	.quad	-7276294671716946913            # 0x9b05688c2b3e6c1f
.LCPI2_1:
	.quad	2270897969802886507             # 0x1f83d9abfb41bd6b
	.quad	6620516959819538809             # 0x5be0cd19137e2179
	.text
	.hidden	blake2b_init_salt_personal
	.globl	blake2b_init_salt_personal
	.p2align	4
	.type	blake2b_init_salt_personal,@function
blake2b_init_salt_personal:             # @blake2b_init_salt_personal
.Lfunc_begin2:
	.loc	1 150 0                         # crypto_generichash/blake2b/ref/blake2b-ref.c:150:0
	.cfi_startproc
# %bb.0:
	#DEBUG_VALUE: blake2b_init_salt_personal:S <- $rdi
	#DEBUG_VALUE: blake2b_init_salt_personal:outlen <- $esi
	#DEBUG_VALUE: blake2b_init_salt_personal:salt <- $rdx
	#DEBUG_VALUE: blake2b_init_salt_personal:personal <- $rcx
	pushq	%r14
	.cfi_def_cfa_offset 16
	pushq	%rbx
	.cfi_def_cfa_offset 24
	subq	$40, %rsp
	.cfi_def_cfa_offset 64
	.cfi_offset %rbx, -24
	.cfi_offset %r14, -16
                                        # kill: def $esi killed $esi def $rsi
.Ltmp36:
	.loc	1 153 19 prologue_end           # crypto_generichash/blake2b/ref/blake2b-ref.c:153:19
	leal	-65(%rsi), %eax
	cmpb	$-65, %al
	jbe	.LBB2_8
.Ltmp37:
# %bb.1:
	#DEBUG_VALUE: blake2b_init_salt_personal:S <- $rdi
	#DEBUG_VALUE: blake2b_init_salt_personal:outlen <- $esi
	#DEBUG_VALUE: blake2b_init_salt_personal:salt <- $rdx
	#DEBUG_VALUE: blake2b_init_salt_personal:personal <- $rcx
	.loc	1 0 19 is_stmt 0                # crypto_generichash/blake2b/ref/blake2b-ref.c:0:19
	movq	%rdi, %rbx
.Ltmp38:
	#DEBUG_VALUE: memcpy:__dest <- undef
	#DEBUG_VALUE: memcpy:__src <- undef
	#DEBUG_VALUE: memcpy:__len <- 4
	#DEBUG_VALUE: blake2b_init_salt_personal:P <- [DW_OP_LLVM_convert 8 7, DW_OP_LLVM_convert 64 7, DW_OP_constu 65536, DW_OP_or, DW_OP_constu 16777216, DW_OP_or, DW_OP_stack_value, DW_OP_LLVM_fragment 0 64] $sil
	#DEBUG_VALUE: memcpy:__dest <- undef
	#DEBUG_VALUE: memcpy:__src <- undef
	#DEBUG_VALUE: memcpy:__len <- 8
	#DEBUG_VALUE: blake2b_init_salt_personal:P <- [DW_OP_LLVM_fragment 64 64] 0
	#DEBUG_VALUE: blake2b_init_salt_personal:P <- [DW_OP_LLVM_fragment 128 8] 0
	#DEBUG_VALUE: blake2b_init_salt_personal:P <- [DW_OP_LLVM_fragment 136 8] 0
	#DEBUG_VALUE: memset:__dest <- undef
	#DEBUG_VALUE: memset:__ch <- 0
	#DEBUG_VALUE: memset:__len <- 14
	#DEBUG_VALUE: blake2b_init_salt_personal:P <- [DW_OP_LLVM_fragment 144 48] 0
	#DEBUG_VALUE: blake2b_init_salt_personal:P <- [DW_OP_LLVM_fragment 192 64] 0
	.loc	1 165 14 is_stmt 1              # crypto_generichash/blake2b/ref/blake2b-ref.c:165:14
	testq	%rdx, %rdx
	je	.LBB2_2
.Ltmp39:
# %bb.3:
	#DEBUG_VALUE: blake2b_init_salt_personal:S <- $rbx
	#DEBUG_VALUE: blake2b_init_salt_personal:outlen <- $esi
	#DEBUG_VALUE: blake2b_init_salt_personal:salt <- $rdx
	#DEBUG_VALUE: blake2b_init_salt_personal:personal <- $rcx
	#DEBUG_VALUE: blake2b_init_salt_personal:P <- [DW_OP_LLVM_convert 8 7, DW_OP_LLVM_convert 64 7, DW_OP_constu 65536, DW_OP_or, DW_OP_constu 16777216, DW_OP_or, DW_OP_stack_value, DW_OP_LLVM_fragment 0 64] $sil
	#DEBUG_VALUE: blake2b_init_salt_personal:P <- [DW_OP_LLVM_fragment 64 64] 0
	#DEBUG_VALUE: blake2b_init_salt_personal:P <- [DW_OP_LLVM_fragment 128 8] 0
	#DEBUG_VALUE: blake2b_init_salt_personal:P <- [DW_OP_LLVM_fragment 136 8] 0
	#DEBUG_VALUE: blake2b_init_salt_personal:P <- [DW_OP_LLVM_fragment 144 48] 0
	#DEBUG_VALUE: blake2b_init_salt_personal:P <- [DW_OP_LLVM_fragment 192 64] 0
	#DEBUG_VALUE: blake2b_param_set_salt:P <- undef
	#DEBUG_VALUE: blake2b_param_set_salt:salt <- $rdx
	#DEBUG_VALUE: memcpy:__dest <- undef
	#DEBUG_VALUE: memcpy:__src <- $rdx
	#DEBUG_VALUE: memcpy:__len <- 16
	#DEBUG_VALUE: blake2b_init_salt_personal:P <- [DW_OP_LLVM_fragment 256 64] undef
	.loc	7 29 10                         # /usr/include/x86_64-linux-gnu/bits/string_fortified.h:29:10 @[ crypto_generichash/blake2b/ref/blake2b-ref.c:80:5 @[ crypto_generichash/blake2b/ref/blake2b-ref.c:166:9 ] ]
	movups	(%rdx), %xmm0
.Ltmp40:
	#DEBUG_VALUE: blake2b_init_salt_personal:P <- [DW_OP_LLVM_fragment 320 64] undef
	.loc	1 120 17                        # crypto_generichash/blake2b/ref/blake2b-ref.c:120:17 @[ crypto_generichash/blake2b/ref/blake2b-ref.c:175:12 ]
	xorps	.LCPI2_0(%rip), %xmm0
	jmp	.LBB2_4
.Ltmp41:
.LBB2_2:
	#DEBUG_VALUE: blake2b_init_salt_personal:S <- $rbx
	#DEBUG_VALUE: blake2b_init_salt_personal:outlen <- $esi
	#DEBUG_VALUE: blake2b_init_salt_personal:salt <- $rdx
	#DEBUG_VALUE: blake2b_init_salt_personal:personal <- $rcx
	#DEBUG_VALUE: blake2b_init_salt_personal:P <- [DW_OP_LLVM_convert 8 7, DW_OP_LLVM_convert 64 7, DW_OP_constu 65536, DW_OP_or, DW_OP_constu 16777216, DW_OP_or, DW_OP_stack_value, DW_OP_LLVM_fragment 0 64] $sil
	#DEBUG_VALUE: blake2b_init_salt_personal:P <- [DW_OP_LLVM_fragment 64 64] 0
	#DEBUG_VALUE: blake2b_init_salt_personal:P <- [DW_OP_LLVM_fragment 128 8] 0
	#DEBUG_VALUE: blake2b_init_salt_personal:P <- [DW_OP_LLVM_fragment 136 8] 0
	#DEBUG_VALUE: blake2b_init_salt_personal:P <- [DW_OP_LLVM_fragment 144 48] 0
	#DEBUG_VALUE: blake2b_init_salt_personal:P <- [DW_OP_LLVM_fragment 192 64] 0
	.loc	1 0 17 is_stmt 0                # crypto_generichash/blake2b/ref/blake2b-ref.c:0:17
	movaps	.LCPI2_0(%rip), %xmm0           # xmm0 = [5840696475078001361,11170449401992604703]
.Ltmp42:
.LBB2_4:
	#DEBUG_VALUE: blake2b_init_salt_personal:S <- $rbx
	#DEBUG_VALUE: blake2b_init_salt_personal:outlen <- $esi
	#DEBUG_VALUE: blake2b_init_salt_personal:salt <- $rdx
	#DEBUG_VALUE: blake2b_init_salt_personal:personal <- $rcx
	#DEBUG_VALUE: blake2b_init_salt_personal:P <- [DW_OP_LLVM_convert 8 7, DW_OP_LLVM_convert 64 7, DW_OP_constu 65536, DW_OP_or, DW_OP_constu 16777216, DW_OP_or, DW_OP_stack_value, DW_OP_LLVM_fragment 0 64] $sil
	#DEBUG_VALUE: blake2b_init_salt_personal:P <- [DW_OP_LLVM_fragment 64 64] 0
	#DEBUG_VALUE: blake2b_init_salt_personal:P <- [DW_OP_LLVM_fragment 128 8] 0
	#DEBUG_VALUE: blake2b_init_salt_personal:P <- [DW_OP_LLVM_fragment 136 8] 0
	#DEBUG_VALUE: blake2b_init_salt_personal:P <- [DW_OP_LLVM_fragment 144 48] 0
	#DEBUG_VALUE: blake2b_init_salt_personal:P <- [DW_OP_LLVM_fragment 192 64] 0
	movaps	%xmm0, 16(%rsp)                 # 16-byte Spill
.Ltmp43:
	#DEBUG_VALUE: blake2b_init_salt_personal:P <- [DW_OP_LLVM_fragment 256 64] undef
	#DEBUG_VALUE: blake2b_init_salt_personal:P <- [DW_OP_LLVM_fragment 320 64] undef
	.loc	1 170 18 is_stmt 1              # crypto_generichash/blake2b/ref/blake2b-ref.c:170:18
	testq	%rcx, %rcx
	je	.LBB2_5
.Ltmp44:
# %bb.6:
	#DEBUG_VALUE: blake2b_init_salt_personal:S <- $rbx
	#DEBUG_VALUE: blake2b_init_salt_personal:outlen <- $esi
	#DEBUG_VALUE: blake2b_init_salt_personal:salt <- $rdx
	#DEBUG_VALUE: blake2b_init_salt_personal:personal <- $rcx
	#DEBUG_VALUE: blake2b_init_salt_personal:P <- [DW_OP_LLVM_convert 8 7, DW_OP_LLVM_convert 64 7, DW_OP_constu 65536, DW_OP_or, DW_OP_constu 16777216, DW_OP_or, DW_OP_stack_value, DW_OP_LLVM_fragment 0 64] $sil
	#DEBUG_VALUE: blake2b_init_salt_personal:P <- [DW_OP_LLVM_fragment 64 64] 0
	#DEBUG_VALUE: blake2b_init_salt_personal:P <- [DW_OP_LLVM_fragment 128 8] 0
	#DEBUG_VALUE: blake2b_init_salt_personal:P <- [DW_OP_LLVM_fragment 136 8] 0
	#DEBUG_VALUE: blake2b_init_salt_personal:P <- [DW_OP_LLVM_fragment 144 48] 0
	#DEBUG_VALUE: blake2b_init_salt_personal:P <- [DW_OP_LLVM_fragment 192 64] 0
	#DEBUG_VALUE: blake2b_param_set_personal:P <- undef
	#DEBUG_VALUE: blake2b_param_set_personal:personal <- $rcx
	#DEBUG_VALUE: memcpy:__dest <- undef
	#DEBUG_VALUE: memcpy:__src <- $rcx
	#DEBUG_VALUE: memcpy:__len <- 16
	#DEBUG_VALUE: blake2b_init_salt_personal:P <- [DW_OP_LLVM_fragment 384 64] undef
	.loc	7 29 10                         # /usr/include/x86_64-linux-gnu/bits/string_fortified.h:29:10 @[ crypto_generichash/blake2b/ref/blake2b-ref.c:88:5 @[ crypto_generichash/blake2b/ref/blake2b-ref.c:171:9 ] ]
	movups	(%rcx), %xmm0
.Ltmp45:
	#DEBUG_VALUE: blake2b_init_salt_personal:P <- [DW_OP_LLVM_fragment 448 64] undef
	.loc	1 120 17                        # crypto_generichash/blake2b/ref/blake2b-ref.c:120:17 @[ crypto_generichash/blake2b/ref/blake2b-ref.c:175:12 ]
	xorps	.LCPI2_1(%rip), %xmm0
	jmp	.LBB2_7
.Ltmp46:
.LBB2_5:
	#DEBUG_VALUE: blake2b_init_salt_personal:S <- $rbx
	#DEBUG_VALUE: blake2b_init_salt_personal:outlen <- $esi
	#DEBUG_VALUE: blake2b_init_salt_personal:salt <- $rdx
	#DEBUG_VALUE: blake2b_init_salt_personal:personal <- $rcx
	#DEBUG_VALUE: blake2b_init_salt_personal:P <- [DW_OP_LLVM_convert 8 7, DW_OP_LLVM_convert 64 7, DW_OP_constu 65536, DW_OP_or, DW_OP_constu 16777216, DW_OP_or, DW_OP_stack_value, DW_OP_LLVM_fragment 0 64] $sil
	#DEBUG_VALUE: blake2b_init_salt_personal:P <- [DW_OP_LLVM_fragment 64 64] 0
	#DEBUG_VALUE: blake2b_init_salt_personal:P <- [DW_OP_LLVM_fragment 128 8] 0
	#DEBUG_VALUE: blake2b_init_salt_personal:P <- [DW_OP_LLVM_fragment 136 8] 0
	#DEBUG_VALUE: blake2b_init_salt_personal:P <- [DW_OP_LLVM_fragment 144 48] 0
	#DEBUG_VALUE: blake2b_init_salt_personal:P <- [DW_OP_LLVM_fragment 192 64] 0
	.loc	1 0 17 is_stmt 0                # crypto_generichash/blake2b/ref/blake2b-ref.c:0:17
	movaps	.LCPI2_1(%rip), %xmm0           # xmm0 = [2270897969802886507,6620516959819538809]
.Ltmp47:
.LBB2_7:
	#DEBUG_VALUE: blake2b_init_salt_personal:S <- $rbx
	#DEBUG_VALUE: blake2b_init_salt_personal:outlen <- $esi
	#DEBUG_VALUE: blake2b_init_salt_personal:salt <- $rdx
	#DEBUG_VALUE: blake2b_init_salt_personal:personal <- $rcx
	#DEBUG_VALUE: blake2b_init_salt_personal:P <- [DW_OP_LLVM_convert 8 7, DW_OP_LLVM_convert 64 7, DW_OP_constu 65536, DW_OP_or, DW_OP_constu 16777216, DW_OP_or, DW_OP_stack_value, DW_OP_LLVM_fragment 0 64] $sil
	#DEBUG_VALUE: blake2b_init_salt_personal:P <- [DW_OP_LLVM_fragment 64 64] 0
	#DEBUG_VALUE: blake2b_init_salt_personal:P <- [DW_OP_LLVM_fragment 128 8] 0
	#DEBUG_VALUE: blake2b_init_salt_personal:P <- [DW_OP_LLVM_fragment 136 8] 0
	#DEBUG_VALUE: blake2b_init_salt_personal:P <- [DW_OP_LLVM_fragment 144 48] 0
	#DEBUG_VALUE: blake2b_init_salt_personal:P <- [DW_OP_LLVM_fragment 192 64] 0
	movaps	%xmm0, (%rsp)                   # 16-byte Spill
	.loc	1 156 22 is_stmt 1              # crypto_generichash/blake2b/ref/blake2b-ref.c:156:22
	movzbl	%sil, %r14d
.Ltmp48:
	#DEBUG_VALUE: blake2b_init_salt_personal:P <- [DW_OP_constu 16842752, DW_OP_or, DW_OP_stack_value, DW_OP_LLVM_fragment 0 64] $r14d
	#DEBUG_VALUE: blake2b_init_salt_personal:P <- [DW_OP_LLVM_fragment 384 64] undef
	#DEBUG_VALUE: blake2b_init_salt_personal:P <- [DW_OP_LLVM_fragment 448 64] undef
	#DEBUG_VALUE: blake2b_init_param:S <- $rbx
	#DEBUG_VALUE: blake2b_init_param:P <- undef
	#DEBUG_VALUE: blake2b_init0:S <- $rbx
	#DEBUG_VALUE: blake2b_init0:i <- undef
	.loc	1 101 25                        # crypto_generichash/blake2b/ref/blake2b-ref.c:101:25 @[ crypto_generichash/blake2b/ref/blake2b-ref.c:115:5 @[ crypto_generichash/blake2b/ref/blake2b-ref.c:175:12 ] ]
	leaq	64(%rbx), %rdi
.Ltmp49:
	#DEBUG_VALUE: memset:__dest <- $rdi
	#DEBUG_VALUE: memset:__ch <- 0
	#DEBUG_VALUE: memset:__len <- 297
	.loc	7 59 10                         # /usr/include/x86_64-linux-gnu/bits/string_fortified.h:59:10 @[ crypto_generichash/blake2b/ref/blake2b-ref.c:101:5 @[ crypto_generichash/blake2b/ref/blake2b-ref.c:115:5 @[ crypto_generichash/blake2b/ref/blake2b-ref.c:175:12 ] ] ]
	movl	$297, %edx                      # imm = 0x129
.Ltmp50:
	#DEBUG_VALUE: blake2b_init_salt_personal:salt <- [DW_OP_LLVM_entry_value 1] $rdx
	xorl	%esi, %esi
.Ltmp51:
	#DEBUG_VALUE: blake2b_init_salt_personal:outlen <- [DW_OP_LLVM_entry_value 1] $esi
	callq	memset@PLT
.Ltmp52:
	#DEBUG_VALUE: blake2b_init_salt_personal:personal <- [DW_OP_LLVM_entry_value 1] $rcx
	.loc	7 0 10 is_stmt 0                # /usr/include/x86_64-linux-gnu/bits/string_fortified.h:0:10
	movabsq	$7640891576939301128, %rax      # imm = 0x6A09E667F2BDC908
.Ltmp53:
	#DEBUG_VALUE: blake2b_init_param:p <- undef
	#DEBUG_VALUE: blake2b_init_param:i <- 0
	#DEBUG_VALUE: memcpy:__dest <- undef
	#DEBUG_VALUE: memcpy:__src <- undef
	#DEBUG_VALUE: memcpy:__len <- 8
	.loc	1 120 17 is_stmt 1              # crypto_generichash/blake2b/ref/blake2b-ref.c:120:17 @[ crypto_generichash/blake2b/ref/blake2b-ref.c:175:12 ]
	xorq	%r14, %rax
	movq	%rax, (%rbx)
	movabsq	$-4942790177534073029, %rax     # imm = 0xBB67AE8584CAA73B
.Ltmp54:
	#DEBUG_VALUE: blake2b_init_param:i <- 1
	movq	%rax, 8(%rbx)
	movabsq	$4354685564936845355, %rax      # imm = 0x3C6EF372FE94F82B
.Ltmp55:
	#DEBUG_VALUE: blake2b_init_param:i <- 2
	movq	%rax, 16(%rbx)
	movabsq	$-6534734903238641935, %rax     # imm = 0xA54FF53A5F1D36F1
.Ltmp56:
	#DEBUG_VALUE: blake2b_init_param:i <- 3
	movq	%rax, 24(%rbx)
.Ltmp57:
	#DEBUG_VALUE: blake2b_init_param:i <- 4
	#DEBUG_VALUE: blake2b_init_param:i <- 5
	.loc	1 0 17 is_stmt 0                # crypto_generichash/blake2b/ref/blake2b-ref.c:0:17
	movaps	16(%rsp), %xmm0                 # 16-byte Reload
	.loc	1 120 17                        # crypto_generichash/blake2b/ref/blake2b-ref.c:120:17 @[ crypto_generichash/blake2b/ref/blake2b-ref.c:175:12 ]
	movups	%xmm0, 32(%rbx)
.Ltmp58:
	#DEBUG_VALUE: blake2b_init_param:i <- 6
	#DEBUG_VALUE: blake2b_init_param:i <- 7
	.loc	1 0 17                          # crypto_generichash/blake2b/ref/blake2b-ref.c:0:17
	movaps	(%rsp), %xmm0                   # 16-byte Reload
	.loc	1 120 17                        # crypto_generichash/blake2b/ref/blake2b-ref.c:120:17 @[ crypto_generichash/blake2b/ref/blake2b-ref.c:175:12 ]
	movups	%xmm0, 48(%rbx)
.Ltmp59:
	#DEBUG_VALUE: blake2b_init_param:i <- 8
	.loc	1 175 5 is_stmt 1               # crypto_generichash/blake2b/ref/blake2b-ref.c:175:5
	xorl	%eax, %eax
	.loc	1 175 5 epilogue_begin is_stmt 0 # crypto_generichash/blake2b/ref/blake2b-ref.c:175:5
	addq	$40, %rsp
	.cfi_def_cfa_offset 24
	popq	%rbx
.Ltmp60:
	#DEBUG_VALUE: blake2b_init_salt_personal:S <- [DW_OP_LLVM_entry_value 1] $rdi
	.cfi_def_cfa_offset 16
	popq	%r14
.Ltmp61:
	.cfi_def_cfa_offset 8
	retq
.Ltmp62:
.LBB2_8:
	.cfi_def_cfa_offset 64
	#DEBUG_VALUE: blake2b_init_salt_personal:S <- $rdi
	#DEBUG_VALUE: blake2b_init_salt_personal:outlen <- $esi
	#DEBUG_VALUE: blake2b_init_salt_personal:salt <- $rdx
	#DEBUG_VALUE: blake2b_init_salt_personal:personal <- $rcx
	.loc	1 154 9 is_stmt 1               # crypto_generichash/blake2b/ref/blake2b-ref.c:154:9
	callq	sodium_misuse@PLT
.Ltmp63:
	#DEBUG_VALUE: blake2b_init_salt_personal:personal <- [DW_OP_LLVM_entry_value 1] $rcx
	#DEBUG_VALUE: blake2b_init_salt_personal:salt <- [DW_OP_LLVM_entry_value 1] $rdx
	#DEBUG_VALUE: blake2b_init_salt_personal:outlen <- [DW_OP_LLVM_entry_value 1] $esi
	#DEBUG_VALUE: blake2b_init_salt_personal:S <- [DW_OP_LLVM_entry_value 1] $rdi
.Lfunc_end2:
	.size	blake2b_init_salt_personal, .Lfunc_end2-blake2b_init_salt_personal
	.cfi_endproc
                                        # -- End function
	.hidden	blake2b_init_key                # -- Begin function blake2b_init_key
	.globl	blake2b_init_key
	.p2align	4
	.type	blake2b_init_key,@function
blake2b_init_key:                       # @blake2b_init_key
.Lfunc_begin3:
	.loc	1 181 0                         # crypto_generichash/blake2b/ref/blake2b-ref.c:181:0
	.cfi_startproc
# %bb.0:
	#DEBUG_VALUE: blake2b_init_key:S <- $rdi
	#DEBUG_VALUE: blake2b_init_key:outlen <- $esi
	#DEBUG_VALUE: blake2b_init_key:key <- $rdx
	#DEBUG_VALUE: blake2b_init_key:keylen <- $ecx
	pushq	%r15
	.cfi_def_cfa_offset 16
	pushq	%r14
	.cfi_def_cfa_offset 24
	pushq	%r12
	.cfi_def_cfa_offset 32
	pushq	%rbx
	.cfi_def_cfa_offset 40
	subq	$136, %rsp
	.cfi_def_cfa_offset 176
	.cfi_offset %rbx, -40
	.cfi_offset %r12, -32
	.cfi_offset %r14, -24
	.cfi_offset %r15, -16
                                        # kill: def $ecx killed $ecx def $rcx
                                        # kill: def $esi killed $esi def $rsi
	movq	%fs:40, %rax
	movq	%rax, 128(%rsp)
.Ltmp64:
	.loc	1 184 19 prologue_end           # crypto_generichash/blake2b/ref/blake2b-ref.c:184:19
	leal	-65(%rsi), %eax
	cmpb	$-65, %al
	jbe	.LBB3_5
.Ltmp65:
# %bb.1:
	#DEBUG_VALUE: blake2b_init_key:S <- $rdi
	#DEBUG_VALUE: blake2b_init_key:outlen <- $esi
	#DEBUG_VALUE: blake2b_init_key:key <- $rdx
	#DEBUG_VALUE: blake2b_init_key:keylen <- $ecx
	.loc	1 0 19 is_stmt 0                # crypto_generichash/blake2b/ref/blake2b-ref.c:0:19
	movq	%rdx, %rbx
.Ltmp66:
	.loc	1 187 10 is_stmt 1              # crypto_generichash/blake2b/ref/blake2b-ref.c:187:10
	testq	%rdx, %rdx
	.loc	1 187 14 is_stmt 0              # crypto_generichash/blake2b/ref/blake2b-ref.c:187:14
	je	.LBB3_5
.Ltmp67:
# %bb.2:
	#DEBUG_VALUE: blake2b_init_key:S <- $rdi
	#DEBUG_VALUE: blake2b_init_key:outlen <- $esi
	#DEBUG_VALUE: blake2b_init_key:key <- $rbx
	#DEBUG_VALUE: blake2b_init_key:keylen <- $ecx
	leal	-65(%rcx), %eax
	cmpb	$-65, %al
	jbe	.LBB3_5
.Ltmp68:
# %bb.3:
	#DEBUG_VALUE: blake2b_init_key:S <- $rdi
	#DEBUG_VALUE: blake2b_init_key:outlen <- $esi
	#DEBUG_VALUE: blake2b_init_key:key <- $rbx
	#DEBUG_VALUE: blake2b_init_key:keylen <- $ecx
	.loc	1 190 22 is_stmt 1              # crypto_generichash/blake2b/ref/blake2b-ref.c:190:22
	movzbl	%sil, %eax
.Ltmp69:
	#DEBUG_VALUE: blake2b_init_key:P <- [DW_OP_LLVM_fragment 0 8] $eax
	.loc	1 191 19                        # crypto_generichash/blake2b/ref/blake2b-ref.c:191:19
	movzbl	%cl, %r14d
.Ltmp70:
	#DEBUG_VALUE: memset:__dest <- $rsp
	#DEBUG_VALUE: memset:__ch <- 0
	#DEBUG_VALUE: memset:__len <- 128
	#DEBUG_VALUE: memcpy:__len <- $r14d
	movl	%r14d, %r12d
	shll	$8, %r12d
	orq	%rax, %r12
.Ltmp71:
	#DEBUG_VALUE: blake2b_init_key:P <- [DW_OP_constu 16842752, DW_OP_or, DW_OP_stack_value, DW_OP_LLVM_fragment 0 64] $r12
	#DEBUG_VALUE: memcpy:__dest <- undef
	#DEBUG_VALUE: memcpy:__src <- undef
	#DEBUG_VALUE: memcpy:__len <- 4
	#DEBUG_VALUE: memcpy:__dest <- undef
	#DEBUG_VALUE: memcpy:__src <- undef
	#DEBUG_VALUE: memcpy:__len <- 8
	#DEBUG_VALUE: blake2b_init_key:P <- [DW_OP_LLVM_fragment 64 64] 0
	#DEBUG_VALUE: blake2b_init_key:P <- [DW_OP_LLVM_fragment 128 8] 0
	#DEBUG_VALUE: blake2b_init_key:P <- [DW_OP_LLVM_fragment 136 8] 0
	#DEBUG_VALUE: memset:__dest <- undef
	#DEBUG_VALUE: memset:__ch <- 0
	#DEBUG_VALUE: memset:__len <- 14
	#DEBUG_VALUE: blake2b_init_key:P <- [DW_OP_LLVM_fragment 144 48] 0
	#DEBUG_VALUE: blake2b_init_key:P <- [DW_OP_LLVM_fragment 192 64] 0
	#DEBUG_VALUE: memset:__dest <- undef
	#DEBUG_VALUE: memset:__ch <- 0
	#DEBUG_VALUE: memset:__len <- 16
	#DEBUG_VALUE: blake2b_init_key:P <- [DW_OP_LLVM_fragment 256 64] 0
	#DEBUG_VALUE: blake2b_init_key:P <- [DW_OP_LLVM_fragment 320 64] 0
	#DEBUG_VALUE: memset:__dest <- undef
	#DEBUG_VALUE: memset:__ch <- 0
	#DEBUG_VALUE: memset:__len <- 16
	#DEBUG_VALUE: blake2b_init_key:P <- [DW_OP_LLVM_fragment 384 64] 0
	#DEBUG_VALUE: blake2b_init_key:P <- [DW_OP_LLVM_fragment 448 64] 0
	#DEBUG_VALUE: blake2b_init_param:S <- $rdi
	#DEBUG_VALUE: blake2b_init_param:P <- undef
	#DEBUG_VALUE: blake2b_init0:S <- $rdi
	#DEBUG_VALUE: blake2b_init0:i <- undef
	.loc	1 101 25                        # crypto_generichash/blake2b/ref/blake2b-ref.c:101:25 @[ crypto_generichash/blake2b/ref/blake2b-ref.c:115:5 @[ crypto_generichash/blake2b/ref/blake2b-ref.c:202:9 ] ]
	leaq	64(%rdi), %rax
.Ltmp72:
	#DEBUG_VALUE: memset:__dest <- $rax
	#DEBUG_VALUE: memset:__ch <- 0
	#DEBUG_VALUE: memset:__len <- 297
	.loc	7 59 10                         # /usr/include/x86_64-linux-gnu/bits/string_fortified.h:59:10 @[ crypto_generichash/blake2b/ref/blake2b-ref.c:101:5 @[ crypto_generichash/blake2b/ref/blake2b-ref.c:115:5 @[ crypto_generichash/blake2b/ref/blake2b-ref.c:202:9 ] ] ]
	movl	$297, %edx                      # imm = 0x129
	movq	%rdi, %r15
.Ltmp73:
	#DEBUG_VALUE: blake2b_init0:S <- $r15
	#DEBUG_VALUE: blake2b_init_param:S <- $r15
	#DEBUG_VALUE: blake2b_init_key:S <- $r15
	movq	%rax, %rdi
	xorl	%esi, %esi
.Ltmp74:
	#DEBUG_VALUE: blake2b_init_key:outlen <- [DW_OP_LLVM_entry_value 1] $esi
	callq	memset@PLT
.Ltmp75:
	#DEBUG_VALUE: blake2b_init_key:keylen <- [DW_OP_LLVM_entry_value 1] $ecx
	.loc	7 0 10 is_stmt 0                # /usr/include/x86_64-linux-gnu/bits/string_fortified.h:0:10
	movabsq	$7640891576939301128, %rax      # imm = 0x6A09E667F2BDC908
.Ltmp76:
	#DEBUG_VALUE: blake2b_init_param:p <- undef
	#DEBUG_VALUE: blake2b_init_param:i <- 0
	#DEBUG_VALUE: memcpy:__dest <- undef
	#DEBUG_VALUE: memcpy:__src <- undef
	#DEBUG_VALUE: memcpy:__len <- 8
	.loc	1 120 17 is_stmt 1              # crypto_generichash/blake2b/ref/blake2b-ref.c:120:17 @[ crypto_generichash/blake2b/ref/blake2b-ref.c:202:9 ]
	xorq	%r12, %rax
	movq	%rax, (%r15)
	movabsq	$-4942790177534073029, %rax     # imm = 0xBB67AE8584CAA73B
.Ltmp77:
	#DEBUG_VALUE: blake2b_init_param:i <- 1
	movq	%rax, 8(%r15)
	movabsq	$4354685564936845355, %rax      # imm = 0x3C6EF372FE94F82B
.Ltmp78:
	#DEBUG_VALUE: blake2b_init_param:i <- 2
	movq	%rax, 16(%r15)
	movabsq	$-6534734903238641935, %rax     # imm = 0xA54FF53A5F1D36F1
.Ltmp79:
	#DEBUG_VALUE: blake2b_init_param:i <- 3
	movq	%rax, 24(%r15)
	movabsq	$5840696475078001361, %rax      # imm = 0x510E527FADE682D1
.Ltmp80:
	#DEBUG_VALUE: blake2b_init_param:i <- 4
	movq	%rax, 32(%r15)
	movabsq	$-7276294671716946913, %rax     # imm = 0x9B05688C2B3E6C1F
.Ltmp81:
	#DEBUG_VALUE: blake2b_init_param:i <- 5
	movq	%rax, 40(%r15)
	movabsq	$2270897969802886507, %rax      # imm = 0x1F83D9ABFB41BD6B
.Ltmp82:
	#DEBUG_VALUE: blake2b_init_param:i <- 6
	movq	%rax, 48(%r15)
	movabsq	$6620516959819538809, %rax      # imm = 0x5BE0CD19137E2179
.Ltmp83:
	#DEBUG_VALUE: blake2b_init_param:i <- 7
	movq	%rax, 56(%r15)
.Ltmp84:
	#DEBUG_VALUE: blake2b_init_param:i <- 8
	.loc	7 59 10                         # /usr/include/x86_64-linux-gnu/bits/string_fortified.h:59:10 @[ crypto_generichash/blake2b/ref/blake2b-ref.c:207:9 ]
	xorps	%xmm0, %xmm0
	movaps	%xmm0, 112(%rsp)
	movaps	%xmm0, 96(%rsp)
	movaps	%xmm0, 80(%rsp)
	movaps	%xmm0, 64(%rsp)
	movaps	%xmm0, 48(%rsp)
	movaps	%xmm0, 32(%rsp)
	movaps	%xmm0, 16(%rsp)
	movaps	%xmm0, (%rsp)
.Ltmp85:
	#DEBUG_VALUE: memcpy:__dest <- $rsp
	#DEBUG_VALUE: memcpy:__src <- $rbx
	.loc	7 0 10 is_stmt 0                # /usr/include/x86_64-linux-gnu/bits/string_fortified.h:0:10
	movq	%rsp, %r12
.Ltmp86:
	.loc	7 29 10 is_stmt 1               # /usr/include/x86_64-linux-gnu/bits/string_fortified.h:29:10 @[ crypto_generichash/blake2b/ref/blake2b-ref.c:208:9 ]
	movl	$128, %ecx
	movq	%r12, %rdi
	movq	%rbx, %rsi
	movq	%r14, %rdx
	callq	__memcpy_chk@PLT
.Ltmp87:
	.loc	1 209 9                         # crypto_generichash/blake2b/ref/blake2b-ref.c:209:9
	movl	$128, %edx
	movq	%r15, %rdi
	movq	%r12, %rsi
	callq	blake2b_update
.Ltmp88:
	.loc	1 210 9                         # crypto_generichash/blake2b/ref/blake2b-ref.c:210:9
	movl	$128, %esi
	movq	%r12, %rdi
	callq	sodium_memzero@PLT
.Ltmp89:
	.loc	1 212 5                         # crypto_generichash/blake2b/ref/blake2b-ref.c:212:5
	movq	%fs:40, %rax
	cmpq	128(%rsp), %rax
	jne	.LBB3_4
.Ltmp90:
# %bb.6:                                # %SP_return
	#DEBUG_VALUE: blake2b_init_key:S <- $r15
	#DEBUG_VALUE: blake2b_init_key:outlen <- [DW_OP_LLVM_entry_value 1] $esi
	#DEBUG_VALUE: blake2b_init_key:key <- $rbx
	#DEBUG_VALUE: blake2b_init_key:keylen <- [DW_OP_LLVM_entry_value 1] $ecx
	#DEBUG_VALUE: blake2b_init_key:P <- [DW_OP_LLVM_fragment 64 64] 0
	#DEBUG_VALUE: blake2b_init_key:P <- [DW_OP_LLVM_fragment 128 8] 0
	#DEBUG_VALUE: blake2b_init_key:P <- [DW_OP_LLVM_fragment 136 8] 0
	#DEBUG_VALUE: blake2b_init_key:P <- [DW_OP_LLVM_fragment 144 48] 0
	#DEBUG_VALUE: blake2b_init_key:P <- [DW_OP_LLVM_fragment 192 64] 0
	#DEBUG_VALUE: blake2b_init_key:P <- [DW_OP_LLVM_fragment 256 64] 0
	#DEBUG_VALUE: blake2b_init_key:P <- [DW_OP_LLVM_fragment 320 64] 0
	#DEBUG_VALUE: blake2b_init_key:P <- [DW_OP_LLVM_fragment 384 64] 0
	#DEBUG_VALUE: blake2b_init_key:P <- [DW_OP_LLVM_fragment 448 64] 0
	xorl	%eax, %eax
	.loc	1 212 5 epilogue_begin is_stmt 0 # crypto_generichash/blake2b/ref/blake2b-ref.c:212:5
	addq	$136, %rsp
	.cfi_def_cfa_offset 40
	popq	%rbx
.Ltmp91:
	#DEBUG_VALUE: blake2b_init_key:key <- [DW_OP_LLVM_entry_value 1] $rdx
	.cfi_def_cfa_offset 32
	popq	%r12
	.cfi_def_cfa_offset 24
	popq	%r14
	.cfi_def_cfa_offset 16
	popq	%r15
.Ltmp92:
	#DEBUG_VALUE: blake2b_init_key:S <- [DW_OP_LLVM_entry_value 1] $rdi
	.cfi_def_cfa_offset 8
	retq
.Ltmp93:
.LBB3_5:
	.cfi_def_cfa_offset 176
	#DEBUG_VALUE: blake2b_init_key:S <- $rdi
	#DEBUG_VALUE: blake2b_init_key:outlen <- $esi
	#DEBUG_VALUE: blake2b_init_key:key <- $rdx
	#DEBUG_VALUE: blake2b_init_key:keylen <- $ecx
	.loc	1 0 0                           # crypto_generichash/blake2b/ref/blake2b-ref.c:0
	callq	sodium_misuse@PLT
.Ltmp94:
	#DEBUG_VALUE: blake2b_init_key:keylen <- [DW_OP_LLVM_entry_value 1] $ecx
	#DEBUG_VALUE: blake2b_init_key:key <- [DW_OP_LLVM_entry_value 1] $rdx
	#DEBUG_VALUE: blake2b_init_key:outlen <- [DW_OP_LLVM_entry_value 1] $esi
	#DEBUG_VALUE: blake2b_init_key:S <- [DW_OP_LLVM_entry_value 1] $rdi
.LBB3_4:                                # %CallStackCheckFailBlk
	#DEBUG_VALUE: blake2b_init_key:S <- $r15
	#DEBUG_VALUE: blake2b_init_key:outlen <- [DW_OP_LLVM_entry_value 1] $esi
	#DEBUG_VALUE: blake2b_init_key:key <- $rbx
	#DEBUG_VALUE: blake2b_init_key:keylen <- [DW_OP_LLVM_entry_value 1] $ecx
	#DEBUG_VALUE: memset:__dest <- $r12
	#DEBUG_VALUE: memset:__ch <- 0
	#DEBUG_VALUE: memset:__len <- 128
	#DEBUG_VALUE: memcpy:__len <- $r14d
	#DEBUG_VALUE: blake2b_init_key:P <- [DW_OP_LLVM_fragment 64 64] 0
	#DEBUG_VALUE: blake2b_init_key:P <- [DW_OP_LLVM_fragment 128 8] 0
	#DEBUG_VALUE: blake2b_init_key:P <- [DW_OP_LLVM_fragment 136 8] 0
	#DEBUG_VALUE: blake2b_init_key:P <- [DW_OP_LLVM_fragment 144 48] 0
	#DEBUG_VALUE: blake2b_init_key:P <- [DW_OP_LLVM_fragment 192 64] 0
	#DEBUG_VALUE: blake2b_init_key:P <- [DW_OP_LLVM_fragment 256 64] 0
	#DEBUG_VALUE: blake2b_init_key:P <- [DW_OP_LLVM_fragment 320 64] 0
	#DEBUG_VALUE: blake2b_init_key:P <- [DW_OP_LLVM_fragment 384 64] 0
	#DEBUG_VALUE: blake2b_init_key:P <- [DW_OP_LLVM_fragment 448 64] 0
	#DEBUG_VALUE: blake2b_init_param:S <- $r15
	#DEBUG_VALUE: blake2b_init0:S <- $r15
	#DEBUG_VALUE: memset:__ch <- 0
	#DEBUG_VALUE: memset:__len <- 297
	#DEBUG_VALUE: blake2b_init_param:i <- 8
	#DEBUG_VALUE: memcpy:__dest <- $r12
	#DEBUG_VALUE: memcpy:__src <- $rbx
	callq	__stack_chk_fail@PLT
.Ltmp95:
.Lfunc_end3:
	.size	blake2b_init_key, .Lfunc_end3-blake2b_init_key
	.cfi_endproc
	.file	9 "./include/sodium" "utils.h"
                                        # -- End function
	.hidden	blake2b_update                  # -- Begin function blake2b_update
	.globl	blake2b_update
	.p2align	4
	.type	blake2b_update,@function
blake2b_update:                         # @blake2b_update
.Lfunc_begin4:
	.cfi_startproc
# %bb.0:
	#DEBUG_VALUE: blake2b_update:S <- $rdi
	#DEBUG_VALUE: blake2b_update:in <- $rsi
	#DEBUG_VALUE: blake2b_update:inlen <- $rdx
	.loc	1 265 18 prologue_end is_stmt 1 # crypto_generichash/blake2b/ref/blake2b-ref.c:265:18
	testq	%rdx, %rdx
	.loc	1 265 5 is_stmt 0               # crypto_generichash/blake2b/ref/blake2b-ref.c:265:5
	je	.LBB4_6
.Ltmp96:
# %bb.1:                                # %.lr.ph
	#DEBUG_VALUE: blake2b_update:S <- $rdi
	#DEBUG_VALUE: blake2b_update:in <- $rsi
	#DEBUG_VALUE: blake2b_update:inlen <- $rdx
	pushq	%rbp
	.cfi_def_cfa_offset 16
	pushq	%r15
	.cfi_def_cfa_offset 24
	pushq	%r14
	.cfi_def_cfa_offset 32
	pushq	%r13
	.cfi_def_cfa_offset 40
	pushq	%r12
	.cfi_def_cfa_offset 48
	pushq	%rbx
	.cfi_def_cfa_offset 56
	pushq	%rax
	.cfi_def_cfa_offset 64
	.cfi_offset %rbx, -56
	.cfi_offset %r12, -48
	.cfi_offset %r13, -40
	.cfi_offset %r14, -32
	.cfi_offset %r15, -24
	.cfi_offset %rbp, -16
	movq	%rdx, %rbx
	movq	%rsi, %r15
	movq	%rdi, %r14
	leaq	96(%rdi), %r12
	leaq	224(%rdi), %rbp
.Ltmp97:
	.loc	1 266 26 is_stmt 1              # crypto_generichash/blake2b/ref/blake2b-ref.c:266:26
	movq	352(%rdi), %rdi
.Ltmp98:
	#DEBUG_VALUE: blake2b_update:S <- $r14
	.loc	1 0 26 is_stmt 0                # :0:26
.Ltmp99:
	.p2align	4
.LBB4_2:                                # =>This Inner Loop Header: Depth=1
	#DEBUG_VALUE: blake2b_update:S <- $r14
	#DEBUG_VALUE: blake2b_update:inlen <- $rbx
	#DEBUG_VALUE: blake2b_update:in <- $r15
	#DEBUG_VALUE: blake2b_update:inlen <- $rbx
	#DEBUG_VALUE: left <- $rdi
	.loc	1 267 46 is_stmt 1              # crypto_generichash/blake2b/ref/blake2b-ref.c:267:46
	movl	$256, %r13d                     # imm = 0x100
	subq	%rdi, %r13
.Ltmp100:
	#DEBUG_VALUE: fill <- $r13
	.loc	1 0 0 is_stmt 0                 # crypto_generichash/blake2b/ref/blake2b-ref.c:0
	addq	%r12, %rdi
.Ltmp101:
	.loc	1 269 19 is_stmt 1              # crypto_generichash/blake2b/ref/blake2b-ref.c:269:19
	cmpq	%r13, %rbx
	jbe	.LBB4_3
.Ltmp102:
# %bb.4:                                #   in Loop: Header=BB4_2 Depth=1
	#DEBUG_VALUE: blake2b_update:S <- $r14
	#DEBUG_VALUE: blake2b_update:in <- $r15
	#DEBUG_VALUE: blake2b_update:inlen <- $rbx
	#DEBUG_VALUE: fill <- $r13
	#DEBUG_VALUE: memcpy:__dest <- $rdi
	#DEBUG_VALUE: memcpy:__src <- $r15
	#DEBUG_VALUE: memcpy:__len <- $r13
	.loc	7 29 10                         # /usr/include/x86_64-linux-gnu/bits/string_fortified.h:29:10 @[ crypto_generichash/blake2b/ref/blake2b-ref.c:270:13 ]
	movq	%r15, %rsi
	movq	%r13, %rdx
	callq	memcpy@PLT
.Ltmp103:
	.loc	1 271 23                        # crypto_generichash/blake2b/ref/blake2b-ref.c:271:23
	addq	%r13, 352(%r14)
.Ltmp104:
	#DEBUG_VALUE: blake2b_increment_counter:S <- $r14
	#DEBUG_VALUE: blake2b_increment_counter:inc <- 128
	#DEBUG_VALUE: blake2b_increment_counter:t <- [DW_OP_LLVM_fragment 0 64] undef
	#DEBUG_VALUE: blake2b_increment_counter:t <- [DW_OP_LLVM_fragment 64 64] undef
	.loc	1 67 13                         # crypto_generichash/blake2b/ref/blake2b-ref.c:67:13 @[ crypto_generichash/blake2b/ref/blake2b-ref.c:272:13 ]
	addq	$128, 64(%r14)
	.loc	1 68 13                         # crypto_generichash/blake2b/ref/blake2b-ref.c:68:13 @[ crypto_generichash/blake2b/ref/blake2b-ref.c:272:13 ]
	adcq	$0, 72(%r14)
.Ltmp105:
	.loc	1 273 13                        # crypto_generichash/blake2b/ref/blake2b-ref.c:273:13
	movq	%r14, %rdi
	movq	%r12, %rsi
	callq	*blake2b_compress(%rip)
.Ltmp106:
	#DEBUG_VALUE: memcpy:__dest <- $r12
	#DEBUG_VALUE: memcpy:__src <- $rbp
	#DEBUG_VALUE: memcpy:__len <- 128
	.loc	7 29 10                         # /usr/include/x86_64-linux-gnu/bits/string_fortified.h:29:10 @[ crypto_generichash/blake2b/ref/blake2b-ref.c:274:13 ]
	movups	(%rbp), %xmm0
	movups	16(%rbp), %xmm1
	movups	32(%rbp), %xmm2
	movups	48(%rbp), %xmm3
	movups	%xmm0, (%r12)
	movups	%xmm1, 16(%r12)
	movups	%xmm2, 32(%r12)
	movups	%xmm3, 48(%r12)
	movups	64(%rbp), %xmm0
	movups	%xmm0, 64(%r12)
	movups	80(%rbp), %xmm0
	movups	%xmm0, 80(%r12)
	movups	96(%rbp), %xmm0
	movups	%xmm0, 96(%r12)
	movups	112(%rbp), %xmm0
	movups	%xmm0, 112(%r12)
.Ltmp107:
	.loc	1 276 23                        # crypto_generichash/blake2b/ref/blake2b-ref.c:276:23
	movq	352(%r14), %rdi
	addq	$-128, %rdi
.Ltmp108:
	.loc	1 0 0 is_stmt 0                 # crypto_generichash/blake2b/ref/blake2b-ref.c:0
	addq	%r13, %r15
.Ltmp109:
	#DEBUG_VALUE: blake2b_update:in <- $r15
	#DEBUG_VALUE: blake2b_update:inlen <- undef
	#DEBUG_VALUE: blake2b_update:in <- [DW_OP_LLVM_arg 0, DW_OP_LLVM_arg 1, DW_OP_plus, DW_OP_stack_value] undef, undef
	movq	%rdi, 352(%r14)
.Ltmp110:
	.loc	1 265 18 is_stmt 1              # crypto_generichash/blake2b/ref/blake2b-ref.c:265:18
	subq	%r13, %rbx
.Ltmp111:
	#DEBUG_VALUE: blake2b_update:inlen <- $rbx
	.loc	1 265 5 is_stmt 0               # crypto_generichash/blake2b/ref/blake2b-ref.c:265:5
	jne	.LBB4_2
	jmp	.LBB4_5
.Ltmp112:
.LBB4_3:                                # %.thread
	#DEBUG_VALUE: blake2b_update:S <- $r14
	#DEBUG_VALUE: blake2b_update:in <- $r15
	#DEBUG_VALUE: blake2b_update:inlen <- $rbx
	#DEBUG_VALUE: fill <- $r13
	#DEBUG_VALUE: memcpy:__dest <- $rdi
	#DEBUG_VALUE: memcpy:__src <- $r15
	#DEBUG_VALUE: memcpy:__len <- $rbx
	.loc	7 29 10 is_stmt 1               # /usr/include/x86_64-linux-gnu/bits/string_fortified.h:29:10 @[ crypto_generichash/blake2b/ref/blake2b-ref.c:281:13 ]
	movq	%r15, %rsi
	movq	%rbx, %rdx
	callq	memcpy@PLT
.Ltmp113:
	#DEBUG_VALUE: blake2b_update:in <- [DW_OP_LLVM_arg 0, DW_OP_LLVM_arg 1, DW_OP_plus, DW_OP_stack_value] $r15, $rbx
	#DEBUG_VALUE: blake2b_update:inlen <- 0
	.loc	1 0 0 is_stmt 0                 # crypto_generichash/blake2b/ref/blake2b-ref.c:0
	addq	%rbx, 352(%r14)
.Ltmp114:
.LBB4_5:
	#DEBUG_VALUE: blake2b_update:S <- $r14
	#DEBUG_VALUE: fill <- $r13
	addq	$8, %rsp
	.cfi_def_cfa_offset 56
	popq	%rbx
	.cfi_def_cfa_offset 48
	popq	%r12
	.cfi_def_cfa_offset 40
	popq	%r13
	.cfi_def_cfa_offset 32
	popq	%r14
.Ltmp115:
	#DEBUG_VALUE: blake2b_update:S <- [DW_OP_LLVM_entry_value 1] $rdi
	.cfi_def_cfa_offset 24
	popq	%r15
	.cfi_def_cfa_offset 16
	popq	%rbp
	.cfi_def_cfa_offset 8
	.cfi_restore %rbx
	.cfi_restore %r12
	.cfi_restore %r13
	.cfi_restore %r14
	.cfi_restore %r15
	.cfi_restore %rbp
.Ltmp116:
.LBB4_6:                                # %._crit_edge
	#DEBUG_VALUE: blake2b_update:S <- [DW_OP_LLVM_entry_value 1] $rdi
	.loc	1 288 5 is_stmt 1               # crypto_generichash/blake2b/ref/blake2b-ref.c:288:5
	xorl	%eax, %eax
	retq
.Ltmp117:
.Lfunc_end4:
	.size	blake2b_update, .Lfunc_end4-blake2b_update
	.cfi_endproc
                                        # -- End function
	.section	.rodata.cst16,"aM",@progbits,16
	.p2align	4, 0x0                          # -- Begin function blake2b_init_key_salt_personal
.LCPI5_0:
	.quad	5840696475078001361             # 0x510e527fade682d1
	.quad	-7276294671716946913            # 0x9b05688c2b3e6c1f
.LCPI5_1:
	.quad	2270897969802886507             # 0x1f83d9abfb41bd6b
	.quad	6620516959819538809             # 0x5be0cd19137e2179
	.text
	.hidden	blake2b_init_key_salt_personal
	.globl	blake2b_init_key_salt_personal
	.p2align	4
	.type	blake2b_init_key_salt_personal,@function
blake2b_init_key_salt_personal:         # @blake2b_init_key_salt_personal
.Lfunc_begin5:
	.loc	1 219 0                         # crypto_generichash/blake2b/ref/blake2b-ref.c:219:0
	.cfi_startproc
# %bb.0:
	#DEBUG_VALUE: blake2b_init_key_salt_personal:S <- $rdi
	#DEBUG_VALUE: blake2b_init_key_salt_personal:outlen <- $esi
	#DEBUG_VALUE: blake2b_init_key_salt_personal:key <- $rdx
	#DEBUG_VALUE: blake2b_init_key_salt_personal:keylen <- $ecx
	#DEBUG_VALUE: blake2b_init_key_salt_personal:salt <- $r8
	#DEBUG_VALUE: blake2b_init_key_salt_personal:personal <- $r9
	pushq	%r15
	.cfi_def_cfa_offset 16
	pushq	%r14
	.cfi_def_cfa_offset 24
	pushq	%r12
	.cfi_def_cfa_offset 32
	pushq	%rbx
	.cfi_def_cfa_offset 40
	subq	$168, %rsp
	.cfi_def_cfa_offset 208
	.cfi_offset %rbx, -40
	.cfi_offset %r12, -32
	.cfi_offset %r14, -24
	.cfi_offset %r15, -16
                                        # kill: def $ecx killed $ecx def $rcx
                                        # kill: def $esi killed $esi def $rsi
	movq	%fs:40, %rax
	movq	%rax, 160(%rsp)
.Ltmp118:
	.loc	1 222 19 prologue_end           # crypto_generichash/blake2b/ref/blake2b-ref.c:222:19
	leal	-65(%rsi), %eax
	cmpb	$-65, %al
	jbe	.LBB5_11
.Ltmp119:
# %bb.1:
	#DEBUG_VALUE: blake2b_init_key_salt_personal:S <- $rdi
	#DEBUG_VALUE: blake2b_init_key_salt_personal:outlen <- $esi
	#DEBUG_VALUE: blake2b_init_key_salt_personal:key <- $rdx
	#DEBUG_VALUE: blake2b_init_key_salt_personal:keylen <- $ecx
	#DEBUG_VALUE: blake2b_init_key_salt_personal:salt <- $r8
	#DEBUG_VALUE: blake2b_init_key_salt_personal:personal <- $r9
	.loc	1 0 19 is_stmt 0                # crypto_generichash/blake2b/ref/blake2b-ref.c:0:19
	movq	%rdx, %rbx
.Ltmp120:
	.loc	1 225 10 is_stmt 1              # crypto_generichash/blake2b/ref/blake2b-ref.c:225:10
	testq	%rdx, %rdx
	.loc	1 225 14 is_stmt 0              # crypto_generichash/blake2b/ref/blake2b-ref.c:225:14
	je	.LBB5_11
.Ltmp121:
# %bb.2:
	#DEBUG_VALUE: blake2b_init_key_salt_personal:S <- $rdi
	#DEBUG_VALUE: blake2b_init_key_salt_personal:outlen <- $esi
	#DEBUG_VALUE: blake2b_init_key_salt_personal:key <- $rbx
	#DEBUG_VALUE: blake2b_init_key_salt_personal:keylen <- $ecx
	#DEBUG_VALUE: blake2b_init_key_salt_personal:salt <- $r8
	#DEBUG_VALUE: blake2b_init_key_salt_personal:personal <- $r9
	leal	-65(%rcx), %eax
	cmpb	$-65, %al
	jbe	.LBB5_11
.Ltmp122:
# %bb.3:
	#DEBUG_VALUE: blake2b_init_key_salt_personal:S <- $rdi
	#DEBUG_VALUE: blake2b_init_key_salt_personal:outlen <- $esi
	#DEBUG_VALUE: blake2b_init_key_salt_personal:key <- $rbx
	#DEBUG_VALUE: blake2b_init_key_salt_personal:keylen <- $ecx
	#DEBUG_VALUE: blake2b_init_key_salt_personal:salt <- $r8
	#DEBUG_VALUE: blake2b_init_key_salt_personal:personal <- $r9
	#DEBUG_VALUE: memcpy:__dest <- undef
	#DEBUG_VALUE: memcpy:__src <- undef
	#DEBUG_VALUE: memcpy:__len <- 4
	#DEBUG_VALUE: blake2b_init_key_salt_personal:P <- [DW_OP_LLVM_arg 0, DW_OP_LLVM_convert 8 7, DW_OP_LLVM_convert 64 7, DW_OP_constu 8, DW_OP_shl, DW_OP_LLVM_arg 1, DW_OP_LLVM_convert 8 7, DW_OP_LLVM_convert 64 7, DW_OP_or, DW_OP_constu 65536, DW_OP_or, DW_OP_constu 16777216, DW_OP_or, DW_OP_stack_value, DW_OP_LLVM_fragment 0 64] $cl, $sil
	#DEBUG_VALUE: memcpy:__dest <- undef
	#DEBUG_VALUE: memcpy:__src <- undef
	#DEBUG_VALUE: memcpy:__len <- 8
	#DEBUG_VALUE: blake2b_init_key_salt_personal:P <- [DW_OP_LLVM_fragment 64 64] 0
	#DEBUG_VALUE: blake2b_init_key_salt_personal:P <- [DW_OP_LLVM_fragment 128 8] 0
	#DEBUG_VALUE: blake2b_init_key_salt_personal:P <- [DW_OP_LLVM_fragment 136 8] 0
	#DEBUG_VALUE: memset:__dest <- undef
	#DEBUG_VALUE: memset:__ch <- 0
	#DEBUG_VALUE: memset:__len <- 14
	#DEBUG_VALUE: blake2b_init_key_salt_personal:P <- [DW_OP_LLVM_fragment 144 48] 0
	#DEBUG_VALUE: blake2b_init_key_salt_personal:P <- [DW_OP_LLVM_fragment 192 64] 0
	.loc	1 237 14 is_stmt 1              # crypto_generichash/blake2b/ref/blake2b-ref.c:237:14
	testq	%r8, %r8
	je	.LBB5_4
.Ltmp123:
# %bb.5:
	#DEBUG_VALUE: blake2b_init_key_salt_personal:S <- $rdi
	#DEBUG_VALUE: blake2b_init_key_salt_personal:outlen <- $esi
	#DEBUG_VALUE: blake2b_init_key_salt_personal:key <- $rbx
	#DEBUG_VALUE: blake2b_init_key_salt_personal:keylen <- $ecx
	#DEBUG_VALUE: blake2b_init_key_salt_personal:salt <- $r8
	#DEBUG_VALUE: blake2b_init_key_salt_personal:personal <- $r9
	#DEBUG_VALUE: blake2b_init_key_salt_personal:P <- [DW_OP_LLVM_arg 0, DW_OP_LLVM_convert 8 7, DW_OP_LLVM_convert 64 7, DW_OP_constu 8, DW_OP_shl, DW_OP_LLVM_arg 1, DW_OP_LLVM_convert 8 7, DW_OP_LLVM_convert 64 7, DW_OP_or, DW_OP_constu 65536, DW_OP_or, DW_OP_constu 16777216, DW_OP_or, DW_OP_stack_value, DW_OP_LLVM_fragment 0 64] $cl, $sil
	#DEBUG_VALUE: blake2b_init_key_salt_personal:P <- [DW_OP_LLVM_fragment 64 64] 0
	#DEBUG_VALUE: blake2b_init_key_salt_personal:P <- [DW_OP_LLVM_fragment 128 8] 0
	#DEBUG_VALUE: blake2b_init_key_salt_personal:P <- [DW_OP_LLVM_fragment 136 8] 0
	#DEBUG_VALUE: blake2b_init_key_salt_personal:P <- [DW_OP_LLVM_fragment 144 48] 0
	#DEBUG_VALUE: blake2b_init_key_salt_personal:P <- [DW_OP_LLVM_fragment 192 64] 0
	#DEBUG_VALUE: blake2b_param_set_salt:P <- undef
	#DEBUG_VALUE: blake2b_param_set_salt:salt <- $r8
	#DEBUG_VALUE: memcpy:__dest <- undef
	#DEBUG_VALUE: memcpy:__src <- $r8
	#DEBUG_VALUE: memcpy:__len <- 16
	#DEBUG_VALUE: blake2b_init_key_salt_personal:P <- [DW_OP_LLVM_fragment 256 64] undef
	.loc	7 29 10                         # /usr/include/x86_64-linux-gnu/bits/string_fortified.h:29:10 @[ crypto_generichash/blake2b/ref/blake2b-ref.c:80:5 @[ crypto_generichash/blake2b/ref/blake2b-ref.c:238:9 ] ]
	movups	(%r8), %xmm0
.Ltmp124:
	#DEBUG_VALUE: blake2b_init_key_salt_personal:P <- [DW_OP_LLVM_fragment 320 64] undef
	.loc	1 120 17                        # crypto_generichash/blake2b/ref/blake2b-ref.c:120:17 @[ crypto_generichash/blake2b/ref/blake2b-ref.c:248:9 ]
	xorps	.LCPI5_0(%rip), %xmm0
	jmp	.LBB5_6
.Ltmp125:
.LBB5_4:
	#DEBUG_VALUE: blake2b_init_key_salt_personal:S <- $rdi
	#DEBUG_VALUE: blake2b_init_key_salt_personal:outlen <- $esi
	#DEBUG_VALUE: blake2b_init_key_salt_personal:key <- $rbx
	#DEBUG_VALUE: blake2b_init_key_salt_personal:keylen <- $ecx
	#DEBUG_VALUE: blake2b_init_key_salt_personal:salt <- $r8
	#DEBUG_VALUE: blake2b_init_key_salt_personal:personal <- $r9
	#DEBUG_VALUE: blake2b_init_key_salt_personal:P <- [DW_OP_LLVM_arg 0, DW_OP_LLVM_convert 8 7, DW_OP_LLVM_convert 64 7, DW_OP_constu 8, DW_OP_shl, DW_OP_LLVM_arg 1, DW_OP_LLVM_convert 8 7, DW_OP_LLVM_convert 64 7, DW_OP_or, DW_OP_constu 65536, DW_OP_or, DW_OP_constu 16777216, DW_OP_or, DW_OP_stack_value, DW_OP_LLVM_fragment 0 64] $cl, $sil
	#DEBUG_VALUE: blake2b_init_key_salt_personal:P <- [DW_OP_LLVM_fragment 64 64] 0
	#DEBUG_VALUE: blake2b_init_key_salt_personal:P <- [DW_OP_LLVM_fragment 128 8] 0
	#DEBUG_VALUE: blake2b_init_key_salt_personal:P <- [DW_OP_LLVM_fragment 136 8] 0
	#DEBUG_VALUE: blake2b_init_key_salt_personal:P <- [DW_OP_LLVM_fragment 144 48] 0
	#DEBUG_VALUE: blake2b_init_key_salt_personal:P <- [DW_OP_LLVM_fragment 192 64] 0
	.loc	1 0 17 is_stmt 0                # crypto_generichash/blake2b/ref/blake2b-ref.c:0:17
	movaps	.LCPI5_0(%rip), %xmm0           # xmm0 = [5840696475078001361,11170449401992604703]
.Ltmp126:
.LBB5_6:
	#DEBUG_VALUE: blake2b_init_key_salt_personal:S <- $rdi
	#DEBUG_VALUE: blake2b_init_key_salt_personal:outlen <- $esi
	#DEBUG_VALUE: blake2b_init_key_salt_personal:key <- $rbx
	#DEBUG_VALUE: blake2b_init_key_salt_personal:keylen <- $ecx
	#DEBUG_VALUE: blake2b_init_key_salt_personal:salt <- $r8
	#DEBUG_VALUE: blake2b_init_key_salt_personal:personal <- $r9
	#DEBUG_VALUE: blake2b_init_key_salt_personal:P <- [DW_OP_LLVM_arg 0, DW_OP_LLVM_convert 8 7, DW_OP_LLVM_convert 64 7, DW_OP_constu 8, DW_OP_shl, DW_OP_LLVM_arg 1, DW_OP_LLVM_convert 8 7, DW_OP_LLVM_convert 64 7, DW_OP_or, DW_OP_constu 65536, DW_OP_or, DW_OP_constu 16777216, DW_OP_or, DW_OP_stack_value, DW_OP_LLVM_fragment 0 64] $cl, $sil
	#DEBUG_VALUE: blake2b_init_key_salt_personal:P <- [DW_OP_LLVM_fragment 64 64] 0
	#DEBUG_VALUE: blake2b_init_key_salt_personal:P <- [DW_OP_LLVM_fragment 128 8] 0
	#DEBUG_VALUE: blake2b_init_key_salt_personal:P <- [DW_OP_LLVM_fragment 136 8] 0
	#DEBUG_VALUE: blake2b_init_key_salt_personal:P <- [DW_OP_LLVM_fragment 144 48] 0
	#DEBUG_VALUE: blake2b_init_key_salt_personal:P <- [DW_OP_LLVM_fragment 192 64] 0
	movaps	%xmm0, 16(%rsp)                 # 16-byte Spill
.Ltmp127:
	#DEBUG_VALUE: blake2b_init_key_salt_personal:P <- [DW_OP_LLVM_fragment 256 64] undef
	#DEBUG_VALUE: blake2b_init_key_salt_personal:P <- [DW_OP_LLVM_fragment 320 64] undef
	.loc	1 242 18 is_stmt 1              # crypto_generichash/blake2b/ref/blake2b-ref.c:242:18
	testq	%r9, %r9
	je	.LBB5_7
.Ltmp128:
# %bb.8:
	#DEBUG_VALUE: blake2b_init_key_salt_personal:S <- $rdi
	#DEBUG_VALUE: blake2b_init_key_salt_personal:outlen <- $esi
	#DEBUG_VALUE: blake2b_init_key_salt_personal:key <- $rbx
	#DEBUG_VALUE: blake2b_init_key_salt_personal:keylen <- $ecx
	#DEBUG_VALUE: blake2b_init_key_salt_personal:salt <- $r8
	#DEBUG_VALUE: blake2b_init_key_salt_personal:personal <- $r9
	#DEBUG_VALUE: blake2b_init_key_salt_personal:P <- [DW_OP_LLVM_arg 0, DW_OP_LLVM_convert 8 7, DW_OP_LLVM_convert 64 7, DW_OP_constu 8, DW_OP_shl, DW_OP_LLVM_arg 1, DW_OP_LLVM_convert 8 7, DW_OP_LLVM_convert 64 7, DW_OP_or, DW_OP_constu 65536, DW_OP_or, DW_OP_constu 16777216, DW_OP_or, DW_OP_stack_value, DW_OP_LLVM_fragment 0 64] $cl, $sil
	#DEBUG_VALUE: blake2b_init_key_salt_personal:P <- [DW_OP_LLVM_fragment 64 64] 0
	#DEBUG_VALUE: blake2b_init_key_salt_personal:P <- [DW_OP_LLVM_fragment 128 8] 0
	#DEBUG_VALUE: blake2b_init_key_salt_personal:P <- [DW_OP_LLVM_fragment 136 8] 0
	#DEBUG_VALUE: blake2b_init_key_salt_personal:P <- [DW_OP_LLVM_fragment 144 48] 0
	#DEBUG_VALUE: blake2b_init_key_salt_personal:P <- [DW_OP_LLVM_fragment 192 64] 0
	#DEBUG_VALUE: blake2b_param_set_personal:P <- undef
	#DEBUG_VALUE: blake2b_param_set_personal:personal <- $r9
	#DEBUG_VALUE: memcpy:__dest <- undef
	#DEBUG_VALUE: memcpy:__src <- $r9
	#DEBUG_VALUE: memcpy:__len <- 16
	#DEBUG_VALUE: blake2b_init_key_salt_personal:P <- [DW_OP_LLVM_fragment 384 64] undef
	.loc	7 29 10                         # /usr/include/x86_64-linux-gnu/bits/string_fortified.h:29:10 @[ crypto_generichash/blake2b/ref/blake2b-ref.c:88:5 @[ crypto_generichash/blake2b/ref/blake2b-ref.c:243:9 ] ]
	movups	(%r9), %xmm0
.Ltmp129:
	#DEBUG_VALUE: blake2b_init_key_salt_personal:P <- [DW_OP_LLVM_fragment 448 64] undef
	.loc	1 120 17                        # crypto_generichash/blake2b/ref/blake2b-ref.c:120:17 @[ crypto_generichash/blake2b/ref/blake2b-ref.c:248:9 ]
	xorps	.LCPI5_1(%rip), %xmm0
	jmp	.LBB5_9
.Ltmp130:
.LBB5_7:
	#DEBUG_VALUE: blake2b_init_key_salt_personal:S <- $rdi
	#DEBUG_VALUE: blake2b_init_key_salt_personal:outlen <- $esi
	#DEBUG_VALUE: blake2b_init_key_salt_personal:key <- $rbx
	#DEBUG_VALUE: blake2b_init_key_salt_personal:keylen <- $ecx
	#DEBUG_VALUE: blake2b_init_key_salt_personal:salt <- $r8
	#DEBUG_VALUE: blake2b_init_key_salt_personal:personal <- $r9
	#DEBUG_VALUE: blake2b_init_key_salt_personal:P <- [DW_OP_LLVM_arg 0, DW_OP_LLVM_convert 8 7, DW_OP_LLVM_convert 64 7, DW_OP_constu 8, DW_OP_shl, DW_OP_LLVM_arg 1, DW_OP_LLVM_convert 8 7, DW_OP_LLVM_convert 64 7, DW_OP_or, DW_OP_constu 65536, DW_OP_or, DW_OP_constu 16777216, DW_OP_or, DW_OP_stack_value, DW_OP_LLVM_fragment 0 64] $cl, $sil
	#DEBUG_VALUE: blake2b_init_key_salt_personal:P <- [DW_OP_LLVM_fragment 64 64] 0
	#DEBUG_VALUE: blake2b_init_key_salt_personal:P <- [DW_OP_LLVM_fragment 128 8] 0
	#DEBUG_VALUE: blake2b_init_key_salt_personal:P <- [DW_OP_LLVM_fragment 136 8] 0
	#DEBUG_VALUE: blake2b_init_key_salt_personal:P <- [DW_OP_LLVM_fragment 144 48] 0
	#DEBUG_VALUE: blake2b_init_key_salt_personal:P <- [DW_OP_LLVM_fragment 192 64] 0
	.loc	1 0 17 is_stmt 0                # crypto_generichash/blake2b/ref/blake2b-ref.c:0:17
	movaps	.LCPI5_1(%rip), %xmm0           # xmm0 = [2270897969802886507,6620516959819538809]
.Ltmp131:
.LBB5_9:
	#DEBUG_VALUE: blake2b_init_key_salt_personal:S <- $rdi
	#DEBUG_VALUE: blake2b_init_key_salt_personal:outlen <- $esi
	#DEBUG_VALUE: blake2b_init_key_salt_personal:key <- $rbx
	#DEBUG_VALUE: blake2b_init_key_salt_personal:keylen <- $ecx
	#DEBUG_VALUE: blake2b_init_key_salt_personal:salt <- $r8
	#DEBUG_VALUE: blake2b_init_key_salt_personal:personal <- $r9
	#DEBUG_VALUE: blake2b_init_key_salt_personal:P <- [DW_OP_LLVM_arg 0, DW_OP_LLVM_convert 8 7, DW_OP_LLVM_convert 64 7, DW_OP_constu 8, DW_OP_shl, DW_OP_LLVM_arg 1, DW_OP_LLVM_convert 8 7, DW_OP_LLVM_convert 64 7, DW_OP_or, DW_OP_constu 65536, DW_OP_or, DW_OP_constu 16777216, DW_OP_or, DW_OP_stack_value, DW_OP_LLVM_fragment 0 64] $cl, $sil
	#DEBUG_VALUE: blake2b_init_key_salt_personal:P <- [DW_OP_LLVM_fragment 64 64] 0
	#DEBUG_VALUE: blake2b_init_key_salt_personal:P <- [DW_OP_LLVM_fragment 128 8] 0
	#DEBUG_VALUE: blake2b_init_key_salt_personal:P <- [DW_OP_LLVM_fragment 136 8] 0
	#DEBUG_VALUE: blake2b_init_key_salt_personal:P <- [DW_OP_LLVM_fragment 144 48] 0
	#DEBUG_VALUE: blake2b_init_key_salt_personal:P <- [DW_OP_LLVM_fragment 192 64] 0
	movaps	%xmm0, (%rsp)                   # 16-byte Spill
	.loc	1 229 19 is_stmt 1              # crypto_generichash/blake2b/ref/blake2b-ref.c:229:19
	movzbl	%cl, %r14d
.Ltmp132:
	#DEBUG_VALUE: blake2b_init_key_salt_personal:P <- [DW_OP_LLVM_arg 0, DW_OP_constu 8, DW_OP_shl, DW_OP_LLVM_arg 1, DW_OP_LLVM_convert 8 7, DW_OP_LLVM_convert 64 7, DW_OP_or, DW_OP_constu 65536, DW_OP_or, DW_OP_constu 16777216, DW_OP_or, DW_OP_stack_value, DW_OP_LLVM_fragment 0 64] $r14d, $sil
	#DEBUG_VALUE: blake2b_init_key_salt_personal:P <- [DW_OP_LLVM_arg 0, DW_OP_constu 8, DW_OP_shl, DW_OP_LLVM_arg 1, DW_OP_LLVM_convert 8 7, DW_OP_LLVM_convert 64 7, DW_OP_or, DW_OP_constu 65536, DW_OP_or, DW_OP_constu 16777216, DW_OP_or, DW_OP_stack_value, DW_OP_LLVM_fragment 24 8] $r14d, $sil
	#DEBUG_VALUE: blake2b_init_key_salt_personal:P <- [DW_OP_LLVM_arg 0, DW_OP_constu 8, DW_OP_shl, DW_OP_LLVM_arg 1, DW_OP_LLVM_convert 8 7, DW_OP_LLVM_convert 64 7, DW_OP_or, DW_OP_stack_value, DW_OP_LLVM_fragment 8 8] $r14d, $sil
	#DEBUG_VALUE: memset:__dest <- [DW_OP_plus_uconst 32, DW_OP_stack_value] $rsp
	#DEBUG_VALUE: memset:__ch <- 0
	#DEBUG_VALUE: memset:__len <- 128
	#DEBUG_VALUE: memcpy:__len <- $r14d
	movl	%r14d, %eax
	shll	$8, %eax
.Ltmp133:
	#DEBUG_VALUE: blake2b_init_key_salt_personal:P <- [DW_OP_LLVM_arg 0, DW_OP_LLVM_arg 1, DW_OP_LLVM_convert 8 7, DW_OP_LLVM_convert 64 7, DW_OP_or, DW_OP_constu 65536, DW_OP_or, DW_OP_constu 16777216, DW_OP_or, DW_OP_stack_value, DW_OP_LLVM_fragment 0 64] $eax, $sil
	#DEBUG_VALUE: blake2b_init_key_salt_personal:P <- [DW_OP_LLVM_arg 0, DW_OP_LLVM_arg 1, DW_OP_LLVM_convert 8 7, DW_OP_LLVM_convert 64 7, DW_OP_or, DW_OP_constu 65536, DW_OP_or, DW_OP_stack_value, DW_OP_LLVM_fragment 16 8] $eax, $sil
	.loc	1 228 22                        # crypto_generichash/blake2b/ref/blake2b-ref.c:228:22
	movzbl	%sil, %r12d
.Ltmp134:
	#DEBUG_VALUE: blake2b_init_key_salt_personal:P <- [DW_OP_LLVM_arg 0, DW_OP_LLVM_arg 1, DW_OP_or, DW_OP_constu 65536, DW_OP_or, DW_OP_constu 16777216, DW_OP_or, DW_OP_stack_value, DW_OP_LLVM_fragment 0 64] $eax, $r12d
	#DEBUG_VALUE: blake2b_init_key_salt_personal:P <- [DW_OP_LLVM_arg 0, DW_OP_LLVM_arg 1, DW_OP_or, DW_OP_constu 65536, DW_OP_or, DW_OP_constu 16777216, DW_OP_or, DW_OP_stack_value, DW_OP_LLVM_fragment 24 8] $eax, $r12d
	#DEBUG_VALUE: blake2b_init_key_salt_personal:P <- [DW_OP_LLVM_arg 0, DW_OP_LLVM_arg 1, DW_OP_or, DW_OP_stack_value, DW_OP_LLVM_fragment 8 8] $eax, $r12d
	.loc	1 229 19                        # crypto_generichash/blake2b/ref/blake2b-ref.c:229:19
	orq	%rax, %r12
.Ltmp135:
	#DEBUG_VALUE: blake2b_init_key_salt_personal:P <- [DW_OP_constu 16842752, DW_OP_or, DW_OP_stack_value, DW_OP_LLVM_fragment 0 64] $r12
	#DEBUG_VALUE: blake2b_init_key_salt_personal:P <- [DW_OP_LLVM_fragment 384 64] undef
	#DEBUG_VALUE: blake2b_init_key_salt_personal:P <- [DW_OP_LLVM_fragment 448 64] undef
	#DEBUG_VALUE: blake2b_init_param:S <- $rdi
	#DEBUG_VALUE: blake2b_init_param:P <- undef
	#DEBUG_VALUE: blake2b_init0:S <- $rdi
	#DEBUG_VALUE: blake2b_init0:i <- undef
	.loc	1 101 25                        # crypto_generichash/blake2b/ref/blake2b-ref.c:101:25 @[ crypto_generichash/blake2b/ref/blake2b-ref.c:115:5 @[ crypto_generichash/blake2b/ref/blake2b-ref.c:248:9 ] ]
	leaq	64(%rdi), %rax
.Ltmp136:
	#DEBUG_VALUE: memset:__dest <- $rax
	#DEBUG_VALUE: memset:__ch <- 0
	#DEBUG_VALUE: memset:__len <- 297
	.loc	7 59 10                         # /usr/include/x86_64-linux-gnu/bits/string_fortified.h:59:10 @[ crypto_generichash/blake2b/ref/blake2b-ref.c:101:5 @[ crypto_generichash/blake2b/ref/blake2b-ref.c:115:5 @[ crypto_generichash/blake2b/ref/blake2b-ref.c:248:9 ] ] ]
	movl	$297, %edx                      # imm = 0x129
	movq	%rdi, %r15
.Ltmp137:
	#DEBUG_VALUE: blake2b_init0:S <- $r15
	#DEBUG_VALUE: blake2b_init_param:S <- $r15
	#DEBUG_VALUE: blake2b_init_key_salt_personal:S <- $r15
	movq	%rax, %rdi
	xorl	%esi, %esi
.Ltmp138:
	#DEBUG_VALUE: blake2b_init_key_salt_personal:outlen <- [DW_OP_LLVM_entry_value 1] $esi
	callq	memset@PLT
.Ltmp139:
	#DEBUG_VALUE: blake2b_init_key_salt_personal:personal <- [DW_OP_LLVM_entry_value 1] $r9
	#DEBUG_VALUE: blake2b_init_key_salt_personal:salt <- [DW_OP_LLVM_entry_value 1] $r8
	#DEBUG_VALUE: blake2b_init_key_salt_personal:keylen <- [DW_OP_LLVM_entry_value 1] $ecx
	.loc	7 0 10 is_stmt 0                # /usr/include/x86_64-linux-gnu/bits/string_fortified.h:0:10
	movabsq	$7640891576939301128, %rax      # imm = 0x6A09E667F2BDC908
.Ltmp140:
	#DEBUG_VALUE: blake2b_init_param:p <- undef
	#DEBUG_VALUE: blake2b_init_param:i <- 0
	#DEBUG_VALUE: memcpy:__dest <- undef
	#DEBUG_VALUE: memcpy:__src <- undef
	#DEBUG_VALUE: memcpy:__len <- 8
	.loc	1 120 17 is_stmt 1              # crypto_generichash/blake2b/ref/blake2b-ref.c:120:17 @[ crypto_generichash/blake2b/ref/blake2b-ref.c:248:9 ]
	xorq	%r12, %rax
	movq	%rax, (%r15)
	movabsq	$-4942790177534073029, %rax     # imm = 0xBB67AE8584CAA73B
.Ltmp141:
	#DEBUG_VALUE: blake2b_init_param:i <- 1
	movq	%rax, 8(%r15)
	movabsq	$4354685564936845355, %rax      # imm = 0x3C6EF372FE94F82B
.Ltmp142:
	#DEBUG_VALUE: blake2b_init_param:i <- 2
	movq	%rax, 16(%r15)
	movabsq	$-6534734903238641935, %rax     # imm = 0xA54FF53A5F1D36F1
.Ltmp143:
	#DEBUG_VALUE: blake2b_init_param:i <- 3
	movq	%rax, 24(%r15)
.Ltmp144:
	#DEBUG_VALUE: blake2b_init_param:i <- 4
	#DEBUG_VALUE: blake2b_init_param:i <- 5
	.loc	1 0 17 is_stmt 0                # crypto_generichash/blake2b/ref/blake2b-ref.c:0:17
	movaps	16(%rsp), %xmm0                 # 16-byte Reload
	.loc	1 120 17                        # crypto_generichash/blake2b/ref/blake2b-ref.c:120:17 @[ crypto_generichash/blake2b/ref/blake2b-ref.c:248:9 ]
	movups	%xmm0, 32(%r15)
.Ltmp145:
	#DEBUG_VALUE: blake2b_init_param:i <- 6
	#DEBUG_VALUE: blake2b_init_param:i <- 7
	.loc	1 0 17                          # crypto_generichash/blake2b/ref/blake2b-ref.c:0:17
	movaps	(%rsp), %xmm0                   # 16-byte Reload
	.loc	1 120 17                        # crypto_generichash/blake2b/ref/blake2b-ref.c:120:17 @[ crypto_generichash/blake2b/ref/blake2b-ref.c:248:9 ]
	movups	%xmm0, 48(%r15)
.Ltmp146:
	#DEBUG_VALUE: blake2b_init_param:i <- 8
	.loc	7 59 10 is_stmt 1               # /usr/include/x86_64-linux-gnu/bits/string_fortified.h:59:10 @[ crypto_generichash/blake2b/ref/blake2b-ref.c:253:9 ]
	xorps	%xmm0, %xmm0
	movaps	%xmm0, 144(%rsp)
	movaps	%xmm0, 128(%rsp)
	movaps	%xmm0, 112(%rsp)
	movaps	%xmm0, 96(%rsp)
	movaps	%xmm0, 80(%rsp)
	movaps	%xmm0, 64(%rsp)
	movaps	%xmm0, 48(%rsp)
	movaps	%xmm0, 32(%rsp)
.Ltmp147:
	#DEBUG_VALUE: memcpy:__dest <- [DW_OP_plus_uconst 32, DW_OP_stack_value] $rsp
	#DEBUG_VALUE: memcpy:__src <- $rbx
	.loc	7 0 10 is_stmt 0                # /usr/include/x86_64-linux-gnu/bits/string_fortified.h:0:10
	leaq	32(%rsp), %r12
.Ltmp148:
	.loc	7 29 10 is_stmt 1               # /usr/include/x86_64-linux-gnu/bits/string_fortified.h:29:10 @[ crypto_generichash/blake2b/ref/blake2b-ref.c:254:9 ]
	movl	$128, %ecx
	movq	%r12, %rdi
	movq	%rbx, %rsi
	movq	%r14, %rdx
	callq	__memcpy_chk@PLT
.Ltmp149:
	.loc	1 255 9                         # crypto_generichash/blake2b/ref/blake2b-ref.c:255:9
	movl	$128, %edx
	movq	%r15, %rdi
	movq	%r12, %rsi
	callq	blake2b_update
.Ltmp150:
	.loc	1 256 9                         # crypto_generichash/blake2b/ref/blake2b-ref.c:256:9
	movl	$128, %esi
	movq	%r12, %rdi
	callq	sodium_memzero@PLT
.Ltmp151:
	.loc	1 258 5                         # crypto_generichash/blake2b/ref/blake2b-ref.c:258:5
	movq	%fs:40, %rax
	cmpq	160(%rsp), %rax
	jne	.LBB5_10
.Ltmp152:
# %bb.12:                               # %SP_return
	#DEBUG_VALUE: blake2b_init_key_salt_personal:S <- $r15
	#DEBUG_VALUE: blake2b_init_key_salt_personal:outlen <- [DW_OP_LLVM_entry_value 1] $esi
	#DEBUG_VALUE: blake2b_init_key_salt_personal:key <- $rbx
	#DEBUG_VALUE: blake2b_init_key_salt_personal:keylen <- [DW_OP_LLVM_entry_value 1] $ecx
	#DEBUG_VALUE: blake2b_init_key_salt_personal:salt <- [DW_OP_LLVM_entry_value 1] $r8
	#DEBUG_VALUE: blake2b_init_key_salt_personal:personal <- [DW_OP_LLVM_entry_value 1] $r9
	#DEBUG_VALUE: blake2b_init_key_salt_personal:P <- [DW_OP_LLVM_fragment 64 64] 0
	#DEBUG_VALUE: blake2b_init_key_salt_personal:P <- [DW_OP_LLVM_fragment 128 8] 0
	#DEBUG_VALUE: blake2b_init_key_salt_personal:P <- [DW_OP_LLVM_fragment 136 8] 0
	#DEBUG_VALUE: blake2b_init_key_salt_personal:P <- [DW_OP_LLVM_fragment 144 48] 0
	#DEBUG_VALUE: blake2b_init_key_salt_personal:P <- [DW_OP_LLVM_fragment 192 64] 0
	xorl	%eax, %eax
	.loc	1 258 5 epilogue_begin is_stmt 0 # crypto_generichash/blake2b/ref/blake2b-ref.c:258:5
	addq	$168, %rsp
	.cfi_def_cfa_offset 40
	popq	%rbx
.Ltmp153:
	#DEBUG_VALUE: blake2b_init_key_salt_personal:key <- [DW_OP_LLVM_entry_value 1] $rdx
	.cfi_def_cfa_offset 32
	popq	%r12
	.cfi_def_cfa_offset 24
	popq	%r14
	.cfi_def_cfa_offset 16
	popq	%r15
.Ltmp154:
	#DEBUG_VALUE: blake2b_init_key_salt_personal:S <- [DW_OP_LLVM_entry_value 1] $rdi
	.cfi_def_cfa_offset 8
	retq
.Ltmp155:
.LBB5_11:
	.cfi_def_cfa_offset 208
	#DEBUG_VALUE: blake2b_init_key_salt_personal:S <- $rdi
	#DEBUG_VALUE: blake2b_init_key_salt_personal:outlen <- $esi
	#DEBUG_VALUE: blake2b_init_key_salt_personal:key <- $rdx
	#DEBUG_VALUE: blake2b_init_key_salt_personal:keylen <- $ecx
	#DEBUG_VALUE: blake2b_init_key_salt_personal:salt <- $r8
	#DEBUG_VALUE: blake2b_init_key_salt_personal:personal <- $r9
	.loc	1 0 0                           # crypto_generichash/blake2b/ref/blake2b-ref.c:0
	callq	sodium_misuse@PLT
.Ltmp156:
	#DEBUG_VALUE: blake2b_init_key_salt_personal:personal <- [DW_OP_LLVM_entry_value 1] $r9
	#DEBUG_VALUE: blake2b_init_key_salt_personal:salt <- [DW_OP_LLVM_entry_value 1] $r8
	#DEBUG_VALUE: blake2b_init_key_salt_personal:keylen <- [DW_OP_LLVM_entry_value 1] $ecx
	#DEBUG_VALUE: blake2b_init_key_salt_personal:key <- [DW_OP_LLVM_entry_value 1] $rdx
	#DEBUG_VALUE: blake2b_init_key_salt_personal:outlen <- [DW_OP_LLVM_entry_value 1] $esi
	#DEBUG_VALUE: blake2b_init_key_salt_personal:S <- [DW_OP_LLVM_entry_value 1] $rdi
.LBB5_10:                               # %CallStackCheckFailBlk
	#DEBUG_VALUE: blake2b_init_key_salt_personal:S <- $r15
	#DEBUG_VALUE: blake2b_init_key_salt_personal:outlen <- [DW_OP_LLVM_entry_value 1] $esi
	#DEBUG_VALUE: blake2b_init_key_salt_personal:key <- $rbx
	#DEBUG_VALUE: blake2b_init_key_salt_personal:keylen <- [DW_OP_LLVM_entry_value 1] $ecx
	#DEBUG_VALUE: blake2b_init_key_salt_personal:salt <- [DW_OP_LLVM_entry_value 1] $r8
	#DEBUG_VALUE: blake2b_init_key_salt_personal:personal <- [DW_OP_LLVM_entry_value 1] $r9
	#DEBUG_VALUE: blake2b_init_key_salt_personal:P <- [DW_OP_LLVM_fragment 64 64] 0
	#DEBUG_VALUE: blake2b_init_key_salt_personal:P <- [DW_OP_LLVM_fragment 128 8] 0
	#DEBUG_VALUE: blake2b_init_key_salt_personal:P <- [DW_OP_LLVM_fragment 136 8] 0
	#DEBUG_VALUE: blake2b_init_key_salt_personal:P <- [DW_OP_LLVM_fragment 144 48] 0
	#DEBUG_VALUE: blake2b_init_key_salt_personal:P <- [DW_OP_LLVM_fragment 192 64] 0
	#DEBUG_VALUE: memset:__dest <- [DW_OP_plus_uconst 32, DW_OP_stack_value] $rsp
	#DEBUG_VALUE: memset:__ch <- 0
	#DEBUG_VALUE: memset:__len <- 128
	#DEBUG_VALUE: memcpy:__len <- $r14d
	#DEBUG_VALUE: blake2b_init_param:S <- $r15
	#DEBUG_VALUE: blake2b_init0:S <- $r15
	#DEBUG_VALUE: memset:__ch <- 0
	#DEBUG_VALUE: memset:__len <- 297
	#DEBUG_VALUE: blake2b_init_param:i <- 8
	#DEBUG_VALUE: memcpy:__dest <- [DW_OP_plus_uconst 32, DW_OP_stack_value] $rsp
	#DEBUG_VALUE: memcpy:__src <- $rbx
	callq	__stack_chk_fail@PLT
.Ltmp157:
.Lfunc_end5:
	.size	blake2b_init_key_salt_personal, .Lfunc_end5-blake2b_init_key_salt_personal
	.cfi_endproc
                                        # -- End function
	.hidden	blake2b_final                   # -- Begin function blake2b_final
	.globl	blake2b_final
	.p2align	4
	.type	blake2b_final,@function
blake2b_final:                          # @blake2b_final
.Lfunc_begin6:
	.loc	1 293 0 is_stmt 1               # crypto_generichash/blake2b/ref/blake2b-ref.c:293:0
	.cfi_startproc
# %bb.0:
	#DEBUG_VALUE: blake2b_final:S <- $rdi
	#DEBUG_VALUE: blake2b_final:out <- $rsi
	#DEBUG_VALUE: blake2b_final:outlen <- $edx
	pushq	%rbp
	.cfi_def_cfa_offset 16
	pushq	%r15
	.cfi_def_cfa_offset 24
	pushq	%r14
	.cfi_def_cfa_offset 32
	pushq	%r12
	.cfi_def_cfa_offset 40
	pushq	%rbx
	.cfi_def_cfa_offset 48
	subq	$80, %rsp
	.cfi_def_cfa_offset 128
	.cfi_offset %rbx, -48
	.cfi_offset %r12, -40
	.cfi_offset %r14, -32
	.cfi_offset %r15, -24
	.cfi_offset %rbp, -16
	movl	%edx, %r14d
	movq	%fs:40, %rax
	movq	%rax, 72(%rsp)
.Ltmp158:
	.loc	1 296 17 prologue_end           # crypto_generichash/blake2b/ref/blake2b-ref.c:296:17
	leal	-65(%r14), %eax
	cmpb	$-65, %al
	jbe	.LBB6_10
.Ltmp159:
# %bb.1:
	#DEBUG_VALUE: blake2b_final:S <- $rdi
	#DEBUG_VALUE: blake2b_final:out <- $rsi
	#DEBUG_VALUE: blake2b_final:outlen <- $r14d
	.loc	1 0 17 is_stmt 0                # crypto_generichash/blake2b/ref/blake2b-ref.c:0:17
	movq	%rdi, %rbx
.Ltmp160:
	#DEBUG_VALUE: blake2b_is_lastblock:S <- $rbx
	movl	$-1, %ebp
.Ltmp161:
	.loc	1 48 20 is_stmt 1               # crypto_generichash/blake2b/ref/blake2b-ref.c:48:20 @[ crypto_generichash/blake2b/ref/blake2b-ref.c:299:9 ]
	cmpq	$0, 80(%rdi)
.Ltmp162:
	.loc	1 299 9                         # crypto_generichash/blake2b/ref/blake2b-ref.c:299:9
	jne	.LBB6_8
.Ltmp163:
# %bb.2:
	#DEBUG_VALUE: blake2b_final:S <- $rbx
	#DEBUG_VALUE: blake2b_final:out <- $rsi
	#DEBUG_VALUE: blake2b_final:outlen <- $r14d
	.loc	1 0 9 is_stmt 0                 # crypto_generichash/blake2b/ref/blake2b-ref.c:0:9
	movq	%rsi, %r15
.Ltmp164:
	#DEBUG_VALUE: blake2b_final:out <- $r15
	.loc	1 302 12 is_stmt 1              # crypto_generichash/blake2b/ref/blake2b-ref.c:302:12
	movq	352(%rbx), %rax
	.loc	1 302 19 is_stmt 0              # crypto_generichash/blake2b/ref/blake2b-ref.c:302:19
	cmpq	$129, %rax
	jb	.LBB6_5
.Ltmp165:
# %bb.3:
	#DEBUG_VALUE: blake2b_final:S <- $rbx
	#DEBUG_VALUE: blake2b_final:out <- $r15
	#DEBUG_VALUE: blake2b_final:outlen <- $r14d
	#DEBUG_VALUE: blake2b_increment_counter:S <- $rbx
	#DEBUG_VALUE: blake2b_increment_counter:inc <- 128
	#DEBUG_VALUE: blake2b_increment_counter:t <- [DW_OP_LLVM_fragment 0 64] undef
	#DEBUG_VALUE: blake2b_increment_counter:t <- [DW_OP_LLVM_fragment 64 64] undef
	.loc	1 67 13 is_stmt 1               # crypto_generichash/blake2b/ref/blake2b-ref.c:67:13 @[ crypto_generichash/blake2b/ref/blake2b-ref.c:303:9 ]
	addq	$128, 64(%rbx)
	.loc	1 68 13                         # crypto_generichash/blake2b/ref/blake2b-ref.c:68:13 @[ crypto_generichash/blake2b/ref/blake2b-ref.c:303:9 ]
	adcq	$0, 72(%rbx)
.Ltmp166:
	.loc	1 304 32                        # crypto_generichash/blake2b/ref/blake2b-ref.c:304:32
	leaq	96(%rbx), %r12
	.loc	1 304 9 is_stmt 0               # crypto_generichash/blake2b/ref/blake2b-ref.c:304:9
	movq	%rbx, %rdi
	movq	%r12, %rsi
	callq	*blake2b_compress(%rip)
.Ltmp167:
	.loc	1 305 19 is_stmt 1              # crypto_generichash/blake2b/ref/blake2b-ref.c:305:19
	movq	352(%rbx), %rdx
	addq	$-128, %rdx
	movq	%rdx, 352(%rbx)
.Ltmp168:
	.loc	1 306 100                       # crypto_generichash/blake2b/ref/blake2b-ref.c:306:100
	cmpq	$129, %rdx
	jae	.LBB6_11
.Ltmp169:
# %bb.4:
	#DEBUG_VALUE: blake2b_final:S <- $rbx
	#DEBUG_VALUE: blake2b_final:out <- $r15
	#DEBUG_VALUE: blake2b_final:outlen <- $r14d
	.loc	1 307 31                        # crypto_generichash/blake2b/ref/blake2b-ref.c:307:31
	leaq	224(%rbx), %rsi
.Ltmp170:
	#DEBUG_VALUE: memcpy:__src <- $rsi
	#DEBUG_VALUE: memcpy:__dest <- $r12
	#DEBUG_VALUE: memcpy:__len <- $rdx
	.loc	7 29 10                         # /usr/include/x86_64-linux-gnu/bits/string_fortified.h:29:10 @[ crypto_generichash/blake2b/ref/blake2b-ref.c:307:9 ]
	movq	%r12, %rdi
	callq	memcpy@PLT
.Ltmp171:
	.loc	1 310 37                        # crypto_generichash/blake2b/ref/blake2b-ref.c:310:37
	movq	352(%rbx), %rax
.Ltmp172:
.LBB6_5:
	#DEBUG_VALUE: blake2b_final:S <- $rbx
	#DEBUG_VALUE: blake2b_final:out <- $r15
	#DEBUG_VALUE: blake2b_final:outlen <- $r14d
	#DEBUG_VALUE: blake2b_increment_counter:S <- $rbx
	#DEBUG_VALUE: blake2b_increment_counter:inc <- $rax
	#DEBUG_VALUE: blake2b_increment_counter:t <- [DW_OP_LLVM_fragment 0 64] undef
	#DEBUG_VALUE: blake2b_increment_counter:t <- [DW_OP_LLVM_fragment 64 64] undef
	.loc	1 67 13                         # crypto_generichash/blake2b/ref/blake2b-ref.c:67:13 @[ crypto_generichash/blake2b/ref/blake2b-ref.c:310:5 ]
	addq	%rax, 64(%rbx)
	.loc	1 68 13                         # crypto_generichash/blake2b/ref/blake2b-ref.c:68:13 @[ crypto_generichash/blake2b/ref/blake2b-ref.c:310:5 ]
	adcq	$0, 72(%rbx)
.Ltmp173:
	#DEBUG_VALUE: blake2b_set_lastblock:S <- $rbx
	.loc	1 54 9                          # crypto_generichash/blake2b/ref/blake2b-ref.c:54:9 @[ crypto_generichash/blake2b/ref/blake2b-ref.c:311:5 ]
	cmpb	$0, 360(%rbx)
	je	.LBB6_7
.Ltmp174:
# %bb.6:
	#DEBUG_VALUE: blake2b_final:S <- $rbx
	#DEBUG_VALUE: blake2b_final:out <- $r15
	#DEBUG_VALUE: blake2b_final:outlen <- $r14d
	#DEBUG_VALUE: blake2b_set_lastblock:S <- $rbx
	#DEBUG_VALUE: blake2b_set_lastnode:S <- $rbx
	.loc	1 40 13                         # crypto_generichash/blake2b/ref/blake2b-ref.c:40:13 @[ crypto_generichash/blake2b/ref/blake2b-ref.c:55:9 @[ crypto_generichash/blake2b/ref/blake2b-ref.c:311:5 ] ]
	movq	$-1, 88(%rbx)
.Ltmp175:
.LBB6_7:                                # %blake2b_set_lastblock.exit
	#DEBUG_VALUE: blake2b_final:S <- $rbx
	#DEBUG_VALUE: blake2b_final:out <- $r15
	#DEBUG_VALUE: blake2b_final:outlen <- $r14d
	#DEBUG_VALUE: blake2b_set_lastblock:S <- $rbx
	.loc	1 57 13                         # crypto_generichash/blake2b/ref/blake2b-ref.c:57:13 @[ crypto_generichash/blake2b/ref/blake2b-ref.c:311:5 ]
	movq	$-1, 80(%rbx)
.Ltmp176:
	.loc	1 312 15                        # crypto_generichash/blake2b/ref/blake2b-ref.c:312:15
	leaq	96(%rbx), %r12
	.loc	1 312 19 is_stmt 0              # crypto_generichash/blake2b/ref/blake2b-ref.c:312:19
	leaq	(%rbx,%rax), %rdi
	addq	$96, %rdi
	movl	$256, %edx                      # imm = 0x100
	.loc	1 313 35 is_stmt 1              # crypto_generichash/blake2b/ref/blake2b-ref.c:313:35
	subq	%rax, %rdx
.Ltmp177:
	#DEBUG_VALUE: memset:__len <- $rdx
	#DEBUG_VALUE: memset:__dest <- $rdi
	#DEBUG_VALUE: memset:__ch <- 0
	.loc	1 0 35 is_stmt 0                # crypto_generichash/blake2b/ref/blake2b-ref.c:0:35
	xorl	%ebp, %ebp
.Ltmp178:
	.loc	7 59 10 is_stmt 1               # /usr/include/x86_64-linux-gnu/bits/string_fortified.h:59:10 @[ crypto_generichash/blake2b/ref/blake2b-ref.c:312:5 ]
	xorl	%esi, %esi
	callq	memset@PLT
.Ltmp179:
	.loc	1 314 5                         # crypto_generichash/blake2b/ref/blake2b-ref.c:314:5
	movq	%rbx, %rdi
	movq	%r12, %rsi
	callq	*blake2b_compress(%rip)
.Ltmp180:
	#DEBUG_VALUE: store64_le:dst <- $rsp
	#DEBUG_VALUE: store64_le:w <- undef
	#DEBUG_VALUE: memcpy:__dest <- $rsp
	#DEBUG_VALUE: memcpy:__src <- undef
	#DEBUG_VALUE: memcpy:__len <- 8
	.loc	1 317 35                        # crypto_generichash/blake2b/ref/blake2b-ref.c:317:35
	movups	(%rbx), %xmm0
.Ltmp181:
	#DEBUG_VALUE: store64_le:dst <- [DW_OP_plus_uconst 8, DW_OP_stack_value] $rsp
	#DEBUG_VALUE: store64_le:w <- undef
	#DEBUG_VALUE: memcpy:__dest <- [DW_OP_plus_uconst 8, DW_OP_stack_value] $rsp
	#DEBUG_VALUE: memcpy:__src <- undef
	#DEBUG_VALUE: memcpy:__len <- 8
	.loc	7 29 10                         # /usr/include/x86_64-linux-gnu/bits/string_fortified.h:29:10 @[ ./include/sodium/private/common.h:87:5 @[ crypto_generichash/blake2b/ref/blake2b-ref.c:317:5 ] ]
	movaps	%xmm0, (%rsp)
.Ltmp182:
	#DEBUG_VALUE: store64_le:dst <- undef
	#DEBUG_VALUE: store64_le:w <- undef
	#DEBUG_VALUE: memcpy:__dest <- undef
	#DEBUG_VALUE: memcpy:__src <- undef
	#DEBUG_VALUE: memcpy:__len <- 8
	.loc	1 319 35                        # crypto_generichash/blake2b/ref/blake2b-ref.c:319:35
	movups	16(%rbx), %xmm0
.Ltmp183:
	#DEBUG_VALUE: store64_le:dst <- [DW_OP_plus_uconst 24, DW_OP_stack_value] $rsp
	#DEBUG_VALUE: store64_le:w <- undef
	#DEBUG_VALUE: memcpy:__dest <- [DW_OP_plus_uconst 24, DW_OP_stack_value] $rsp
	#DEBUG_VALUE: memcpy:__src <- undef
	#DEBUG_VALUE: memcpy:__len <- 8
	.loc	7 29 10                         # /usr/include/x86_64-linux-gnu/bits/string_fortified.h:29:10 @[ ./include/sodium/private/common.h:87:5 @[ crypto_generichash/blake2b/ref/blake2b-ref.c:319:5 ] ]
	movaps	%xmm0, 16(%rsp)
.Ltmp184:
	#DEBUG_VALUE: store64_le:dst <- undef
	#DEBUG_VALUE: store64_le:w <- undef
	#DEBUG_VALUE: memcpy:__dest <- undef
	#DEBUG_VALUE: memcpy:__src <- undef
	#DEBUG_VALUE: memcpy:__len <- 8
	.loc	1 321 35                        # crypto_generichash/blake2b/ref/blake2b-ref.c:321:35
	movups	32(%rbx), %xmm0
.Ltmp185:
	#DEBUG_VALUE: store64_le:dst <- [DW_OP_plus_uconst 40, DW_OP_stack_value] $rsp
	#DEBUG_VALUE: store64_le:w <- undef
	#DEBUG_VALUE: memcpy:__dest <- [DW_OP_plus_uconst 40, DW_OP_stack_value] $rsp
	#DEBUG_VALUE: memcpy:__src <- undef
	#DEBUG_VALUE: memcpy:__len <- 8
	.loc	7 29 10                         # /usr/include/x86_64-linux-gnu/bits/string_fortified.h:29:10 @[ ./include/sodium/private/common.h:87:5 @[ crypto_generichash/blake2b/ref/blake2b-ref.c:321:5 ] ]
	movaps	%xmm0, 32(%rsp)
.Ltmp186:
	#DEBUG_VALUE: store64_le:dst <- undef
	#DEBUG_VALUE: store64_le:w <- undef
	#DEBUG_VALUE: memcpy:__dest <- undef
	#DEBUG_VALUE: memcpy:__src <- undef
	#DEBUG_VALUE: memcpy:__len <- 8
	.loc	1 323 35                        # crypto_generichash/blake2b/ref/blake2b-ref.c:323:35
	movups	48(%rbx), %xmm0
.Ltmp187:
	#DEBUG_VALUE: store64_le:dst <- [DW_OP_plus_uconst 56, DW_OP_stack_value] $rsp
	#DEBUG_VALUE: store64_le:w <- undef
	#DEBUG_VALUE: memcpy:__dest <- [DW_OP_plus_uconst 56, DW_OP_stack_value] $rsp
	#DEBUG_VALUE: memcpy:__src <- undef
	#DEBUG_VALUE: memcpy:__len <- 8
	.loc	7 29 10                         # /usr/include/x86_64-linux-gnu/bits/string_fortified.h:29:10 @[ ./include/sodium/private/common.h:87:5 @[ crypto_generichash/blake2b/ref/blake2b-ref.c:323:5 ] ]
	movaps	%xmm0, 48(%rsp)
.Ltmp188:
	.loc	1 325 25                        # crypto_generichash/blake2b/ref/blake2b-ref.c:325:25
	movzbl	%r14b, %edx
.Ltmp189:
	#DEBUG_VALUE: memcpy:__len <- $edx
	#DEBUG_VALUE: memcpy:__dest <- $r15
	#DEBUG_VALUE: memcpy:__src <- $rsp
	.loc	1 0 25 is_stmt 0                # crypto_generichash/blake2b/ref/blake2b-ref.c:0:25
	movq	%rsp, %rsi
.Ltmp190:
	.loc	7 29 10 is_stmt 1               # /usr/include/x86_64-linux-gnu/bits/string_fortified.h:29:10 @[ crypto_generichash/blake2b/ref/blake2b-ref.c:325:5 ]
	movq	%r15, %rdi
	callq	memcpy@PLT
.Ltmp191:
	.loc	1 327 5                         # crypto_generichash/blake2b/ref/blake2b-ref.c:327:5
	movl	$64, %esi
	movq	%rbx, %rdi
	callq	sodium_memzero@PLT
.Ltmp192:
	.loc	1 328 5                         # crypto_generichash/blake2b/ref/blake2b-ref.c:328:5
	movl	$256, %esi                      # imm = 0x100
	movq	%r12, %rdi
	callq	sodium_memzero@PLT
.Ltmp193:
.LBB6_8:
	#DEBUG_VALUE: blake2b_final:S <- $rbx
	#DEBUG_VALUE: blake2b_final:out <- [DW_OP_LLVM_entry_value 1] $rsi
	#DEBUG_VALUE: blake2b_final:outlen <- $r14d
	.loc	1 331 1                         # crypto_generichash/blake2b/ref/blake2b-ref.c:331:1
	movq	%fs:40, %rax
	cmpq	72(%rsp), %rax
	jne	.LBB6_9
.Ltmp194:
# %bb.12:                               # %SP_return
	#DEBUG_VALUE: blake2b_final:S <- $rbx
	#DEBUG_VALUE: blake2b_final:out <- [DW_OP_LLVM_entry_value 1] $rsi
	#DEBUG_VALUE: blake2b_final:outlen <- $r14d
	movl	%ebp, %eax
	.loc	1 331 1 epilogue_begin is_stmt 0 # crypto_generichash/blake2b/ref/blake2b-ref.c:331:1
	addq	$80, %rsp
	.cfi_def_cfa_offset 48
	popq	%rbx
.Ltmp195:
	#DEBUG_VALUE: blake2b_final:S <- [DW_OP_LLVM_entry_value 1] $rdi
	.cfi_def_cfa_offset 40
	popq	%r12
	.cfi_def_cfa_offset 32
	popq	%r14
.Ltmp196:
	#DEBUG_VALUE: blake2b_final:outlen <- [DW_OP_LLVM_entry_value 1] $edx
	.cfi_def_cfa_offset 24
	popq	%r15
	.cfi_def_cfa_offset 16
	popq	%rbp
	.cfi_def_cfa_offset 8
	retq
.Ltmp197:
.LBB6_10:
	.cfi_def_cfa_offset 128
	#DEBUG_VALUE: blake2b_final:S <- $rdi
	#DEBUG_VALUE: blake2b_final:out <- $rsi
	#DEBUG_VALUE: blake2b_final:outlen <- $r14d
	.loc	1 297 9 is_stmt 1               # crypto_generichash/blake2b/ref/blake2b-ref.c:297:9
	callq	sodium_misuse@PLT
.Ltmp198:
	#DEBUG_VALUE: blake2b_final:out <- [DW_OP_LLVM_entry_value 1] $rsi
	#DEBUG_VALUE: blake2b_final:S <- [DW_OP_LLVM_entry_value 1] $rdi
.LBB6_9:                                # %CallStackCheckFailBlk
	#DEBUG_VALUE: blake2b_final:S <- $rbx
	#DEBUG_VALUE: blake2b_final:out <- [DW_OP_LLVM_entry_value 1] $rsi
	#DEBUG_VALUE: blake2b_final:outlen <- $r14d
	.loc	1 0 0 is_stmt 0                 # crypto_generichash/blake2b/ref/blake2b-ref.c:0
	callq	__stack_chk_fail@PLT
.Ltmp199:
.LBB6_11:
	#DEBUG_VALUE: blake2b_final:S <- $rbx
	#DEBUG_VALUE: blake2b_final:out <- $r15
	#DEBUG_VALUE: blake2b_final:outlen <- $r14d
	.loc	1 306 130 is_stmt 1             # crypto_generichash/blake2b/ref/blake2b-ref.c:306:130
	leaq	.L.str(%rip), %rdi
	leaq	.L.str.1(%rip), %rsi
	leaq	.L__PRETTY_FUNCTION__.blake2b_final(%rip), %rcx
	movl	$306, %edx                      # imm = 0x132
	callq	__assert_fail@PLT
.Ltmp200:
.Lfunc_end6:
	.size	blake2b_final, .Lfunc_end6-blake2b_final
	.cfi_endproc
	.file	10 "/usr/include" "assert.h"
                                        # -- End function
	.hidden	blake2b                         # -- Begin function blake2b
	.globl	blake2b
	.p2align	4
	.type	blake2b,@function
blake2b:                                # @blake2b
.Lfunc_begin7:
	.loc	1 337 0                         # crypto_generichash/blake2b/ref/blake2b-ref.c:337:0
	.cfi_startproc
# %bb.0:
	#DEBUG_VALUE: blake2b:out <- $rdi
	#DEBUG_VALUE: blake2b:in <- $rsi
	#DEBUG_VALUE: blake2b:key <- $rdx
	#DEBUG_VALUE: blake2b:outlen <- $ecx
	#DEBUG_VALUE: blake2b:inlen <- $r8
	#DEBUG_VALUE: blake2b:keylen <- $r9d
	pushq	%rbp
	.cfi_def_cfa_offset 16
	.cfi_offset %rbp, -16
	movq	%rsp, %rbp
	.cfi_def_cfa_register %rbp
	pushq	%r15
	pushq	%r14
	pushq	%r13
	pushq	%r12
	pushq	%rbx
	andq	$-64, %rsp
	subq	$448, %rsp                      # imm = 0x1C0
	.cfi_offset %rbx, -56
	.cfi_offset %r12, -48
	.cfi_offset %r13, -40
	.cfi_offset %r14, -32
	.cfi_offset %r15, -24
                                        # kill: def $ecx killed $ecx def $rcx
	movq	%rsi, %r15
.Ltmp201:
	.loc	1 341 20 prologue_end           # crypto_generichash/blake2b/ref/blake2b-ref.c:341:20
	testq	%rsi, %rsi
	setne	%al
	testq	%r8, %r8
	sete	%sil
.Ltmp202:
	#DEBUG_VALUE: blake2b:in <- $r15
	.loc	1 341 26 is_stmt 0              # crypto_generichash/blake2b/ref/blake2b-ref.c:341:26
	orb	%al, %sil
	je	.LBB7_9
.Ltmp203:
# %bb.1:
	#DEBUG_VALUE: blake2b:out <- $rdi
	#DEBUG_VALUE: blake2b:in <- $r15
	#DEBUG_VALUE: blake2b:key <- $rdx
	#DEBUG_VALUE: blake2b:outlen <- $ecx
	#DEBUG_VALUE: blake2b:inlen <- $r8
	#DEBUG_VALUE: blake2b:keylen <- $r9d
	.loc	1 0 26                          # crypto_generichash/blake2b/ref/blake2b-ref.c:0:26
	movq	%rdi, %rbx
.Ltmp204:
	.loc	1 344 20 is_stmt 1              # crypto_generichash/blake2b/ref/blake2b-ref.c:344:20
	testq	%rdi, %rdi
	je	.LBB7_9
.Ltmp205:
# %bb.2:
	#DEBUG_VALUE: blake2b:out <- $rbx
	#DEBUG_VALUE: blake2b:in <- $r15
	#DEBUG_VALUE: blake2b:key <- $rdx
	#DEBUG_VALUE: blake2b:outlen <- $ecx
	#DEBUG_VALUE: blake2b:inlen <- $r8
	#DEBUG_VALUE: blake2b:keylen <- $r9d
	.loc	1 347 17                        # crypto_generichash/blake2b/ref/blake2b-ref.c:347:17
	leal	-65(%rcx), %eax
	cmpb	$-65, %al
	jbe	.LBB7_9
.Ltmp206:
# %bb.3:
	#DEBUG_VALUE: blake2b:out <- $rbx
	#DEBUG_VALUE: blake2b:in <- $r15
	#DEBUG_VALUE: blake2b:key <- $rdx
	#DEBUG_VALUE: blake2b:outlen <- $ecx
	#DEBUG_VALUE: blake2b:inlen <- $r8
	#DEBUG_VALUE: blake2b:keylen <- $r9d
	.loc	1 350 20                        # crypto_generichash/blake2b/ref/blake2b-ref.c:350:20
	testq	%rdx, %rdx
	setne	%al
	testb	%r9b, %r9b
	sete	%sil
	.loc	1 350 27 is_stmt 0              # crypto_generichash/blake2b/ref/blake2b-ref.c:350:27
	orb	%al, %sil
	je	.LBB7_9
.Ltmp207:
# %bb.4:
	#DEBUG_VALUE: blake2b:out <- $rbx
	#DEBUG_VALUE: blake2b:in <- $r15
	#DEBUG_VALUE: blake2b:key <- $rdx
	#DEBUG_VALUE: blake2b:outlen <- $ecx
	#DEBUG_VALUE: blake2b:inlen <- $r8
	#DEBUG_VALUE: blake2b:keylen <- $r9d
	.loc	1 353 16 is_stmt 1              # crypto_generichash/blake2b/ref/blake2b-ref.c:353:16
	cmpb	$65, %r9b
	jae	.LBB7_9
.Ltmp208:
# %bb.5:
	#DEBUG_VALUE: blake2b:out <- $rbx
	#DEBUG_VALUE: blake2b:in <- $r15
	#DEBUG_VALUE: blake2b:key <- $rdx
	#DEBUG_VALUE: blake2b:outlen <- $ecx
	#DEBUG_VALUE: blake2b:inlen <- $r8
	#DEBUG_VALUE: blake2b:keylen <- $r9d
	.loc	1 0 16 is_stmt 0                # crypto_generichash/blake2b/ref/blake2b-ref.c:0:16
	movq	%r8, %r14
	movzbl	%cl, %r12d
	testb	%r9b, %r9b
.Ltmp209:
	.loc	1 356 16 is_stmt 1              # crypto_generichash/blake2b/ref/blake2b-ref.c:356:16
	je	.LBB7_7
.Ltmp210:
# %bb.6:
	#DEBUG_VALUE: blake2b:out <- $rbx
	#DEBUG_VALUE: blake2b:in <- $r15
	#DEBUG_VALUE: blake2b:key <- $rdx
	#DEBUG_VALUE: blake2b:outlen <- $ecx
	#DEBUG_VALUE: blake2b:inlen <- $r14
	#DEBUG_VALUE: blake2b:keylen <- $r9d
	.loc	1 357 13                        # crypto_generichash/blake2b/ref/blake2b-ref.c:357:13
	movzbl	%r9b, %ecx
.Ltmp211:
	#DEBUG_VALUE: blake2b:outlen <- [DW_OP_LLVM_entry_value 1] $ecx
	.loc	1 0 13 is_stmt 0                # crypto_generichash/blake2b/ref/blake2b-ref.c:0:13
	movq	%rsp, %rdi
	.loc	1 357 13                        # crypto_generichash/blake2b/ref/blake2b-ref.c:357:13
	movl	%r12d, %esi
	callq	blake2b_init_key
.Ltmp212:
	#DEBUG_VALUE: blake2b:keylen <- [DW_OP_LLVM_entry_value 1] $r9d
	#DEBUG_VALUE: blake2b:key <- [DW_OP_LLVM_entry_value 1] $rdx
	.loc	1 357 54                        # crypto_generichash/blake2b/ref/blake2b-ref.c:357:54
	jmp	.LBB7_8
.Ltmp213:
.LBB7_7:                                # %blake2b_init.exit
	#DEBUG_VALUE: blake2b:out <- $rbx
	#DEBUG_VALUE: blake2b:in <- $r15
	#DEBUG_VALUE: blake2b:key <- $rdx
	#DEBUG_VALUE: blake2b:outlen <- $ecx
	#DEBUG_VALUE: blake2b:inlen <- $r14
	#DEBUG_VALUE: blake2b:keylen <- $r9d
	#DEBUG_VALUE: blake2b_init_param:p <- undef
	#DEBUG_VALUE: blake2b_init_param:P <- undef
	#DEBUG_VALUE: blake2b_init:S <- $rsp
	#DEBUG_VALUE: blake2b_init:outlen <- $cl
	#DEBUG_VALUE: blake2b_init:P <- [DW_OP_constu 16842752, DW_OP_or, DW_OP_stack_value, DW_OP_LLVM_fragment 0 64] undef
	#DEBUG_VALUE: blake2b_init:P <- [DW_OP_LLVM_fragment 64 64] 0
	#DEBUG_VALUE: blake2b_init:P <- [DW_OP_LLVM_fragment 128 8] 0
	#DEBUG_VALUE: blake2b_init:P <- [DW_OP_LLVM_fragment 136 8] 0
	#DEBUG_VALUE: memset:__dest <- undef
	#DEBUG_VALUE: memset:__ch <- 0
	#DEBUG_VALUE: memset:__len <- 14
	#DEBUG_VALUE: blake2b_init:P <- [DW_OP_LLVM_fragment 144 48] 0
	#DEBUG_VALUE: blake2b_init:P <- [DW_OP_LLVM_fragment 192 64] 0
	#DEBUG_VALUE: memset:__dest <- undef
	#DEBUG_VALUE: memset:__ch <- 0
	#DEBUG_VALUE: memset:__len <- 16
	#DEBUG_VALUE: blake2b_init:P <- [DW_OP_LLVM_fragment 256 64] 0
	#DEBUG_VALUE: blake2b_init:P <- [DW_OP_LLVM_fragment 320 64] 0
	#DEBUG_VALUE: memset:__dest <- undef
	#DEBUG_VALUE: memset:__ch <- 0
	#DEBUG_VALUE: memset:__len <- 16
	#DEBUG_VALUE: blake2b_init:P <- [DW_OP_LLVM_fragment 384 64] 0
	#DEBUG_VALUE: blake2b_init:P <- [DW_OP_LLVM_fragment 448 64] 0
	#DEBUG_VALUE: blake2b_init_param:S <- $rsp
	#DEBUG_VALUE: blake2b_init0:S <- $rsp
	#DEBUG_VALUE: blake2b_init0:i <- undef
	.loc	1 101 25 is_stmt 1              # crypto_generichash/blake2b/ref/blake2b-ref.c:101:25 @[ crypto_generichash/blake2b/ref/blake2b-ref.c:115:5 @[ crypto_generichash/blake2b/ref/blake2b-ref.c:144:12 @[ crypto_generichash/blake2b/ref/blake2b-ref.c:361:13 ] ] ]
	leaq	64(%rsp), %rdi
.Ltmp214:
	#DEBUG_VALUE: memset:__dest <- $rdi
	#DEBUG_VALUE: memset:__ch <- 0
	#DEBUG_VALUE: memset:__len <- 297
	.loc	7 59 10                         # /usr/include/x86_64-linux-gnu/bits/string_fortified.h:59:10 @[ crypto_generichash/blake2b/ref/blake2b-ref.c:101:5 @[ crypto_generichash/blake2b/ref/blake2b-ref.c:115:5 @[ crypto_generichash/blake2b/ref/blake2b-ref.c:144:12 @[ crypto_generichash/blake2b/ref/blake2b-ref.c:361:13 ] ] ] ]
	movl	$297, %edx                      # imm = 0x129
.Ltmp215:
	#DEBUG_VALUE: blake2b:key <- [DW_OP_LLVM_entry_value 1] $rdx
	xorl	%esi, %esi
	callq	memset@PLT
.Ltmp216:
	#DEBUG_VALUE: blake2b:keylen <- [DW_OP_LLVM_entry_value 1] $r9d
	#DEBUG_VALUE: blake2b:outlen <- [DW_OP_LLVM_entry_value 1] $ecx
	.loc	7 0 10 is_stmt 0                # /usr/include/x86_64-linux-gnu/bits/string_fortified.h:0:10
	movabsq	$7640891576939301128, %rax      # imm = 0x6A09E667F2BDC908
.Ltmp217:
	#DEBUG_VALUE: blake2b_init_param:i <- 0
	.loc	1 120 17 is_stmt 1              # crypto_generichash/blake2b/ref/blake2b-ref.c:120:17 @[ crypto_generichash/blake2b/ref/blake2b-ref.c:144:12 @[ crypto_generichash/blake2b/ref/blake2b-ref.c:361:13 ] ]
	xorq	%r12, %rax
	movq	%rax, (%rsp)
	movabsq	$-4942790177534073029, %rax     # imm = 0xBB67AE8584CAA73B
.Ltmp218:
	#DEBUG_VALUE: blake2b_init_param:i <- 1
	movq	%rax, 8(%rsp)
	movabsq	$4354685564936845355, %rax      # imm = 0x3C6EF372FE94F82B
.Ltmp219:
	#DEBUG_VALUE: blake2b_init_param:i <- 2
	movq	%rax, 16(%rsp)
	movabsq	$-6534734903238641935, %rax     # imm = 0xA54FF53A5F1D36F1
.Ltmp220:
	#DEBUG_VALUE: blake2b_init_param:i <- 3
	movq	%rax, 24(%rsp)
	movabsq	$5840696475078001361, %rax      # imm = 0x510E527FADE682D1
.Ltmp221:
	#DEBUG_VALUE: blake2b_init_param:i <- 4
	movq	%rax, 32(%rsp)
	movabsq	$-7276294671716946913, %rax     # imm = 0x9B05688C2B3E6C1F
.Ltmp222:
	#DEBUG_VALUE: blake2b_init_param:i <- 5
	movq	%rax, 40(%rsp)
	movabsq	$2270897969802886507, %rax      # imm = 0x1F83D9ABFB41BD6B
.Ltmp223:
	#DEBUG_VALUE: blake2b_init_param:i <- 6
	movq	%rax, 48(%rsp)
	movabsq	$6620516959819538809, %rax      # imm = 0x5BE0CD19137E2179
.Ltmp224:
	#DEBUG_VALUE: blake2b_init_param:i <- 7
	movq	%rax, 56(%rsp)
.Ltmp225:
	#DEBUG_VALUE: blake2b_init_param:i <- 8
.LBB7_8:
	#DEBUG_VALUE: blake2b:out <- $rbx
	#DEBUG_VALUE: blake2b:in <- $r15
	#DEBUG_VALUE: blake2b:key <- [DW_OP_LLVM_entry_value 1] $rdx
	#DEBUG_VALUE: blake2b:outlen <- [DW_OP_LLVM_entry_value 1] $ecx
	#DEBUG_VALUE: blake2b:inlen <- $r14
	#DEBUG_VALUE: blake2b:keylen <- [DW_OP_LLVM_entry_value 1] $r9d
	.loc	1 0 17 is_stmt 0                # crypto_generichash/blake2b/ref/blake2b-ref.c:0:17
	movq	%rsp, %r13
	.loc	1 366 5 is_stmt 1               # crypto_generichash/blake2b/ref/blake2b-ref.c:366:5
	movq	%r13, %rdi
	movq	%r15, %rsi
	movq	%r14, %rdx
	callq	blake2b_update
.Ltmp226:
	.loc	1 367 5                         # crypto_generichash/blake2b/ref/blake2b-ref.c:367:5
	movq	%r13, %rdi
	movq	%rbx, %rsi
	movl	%r12d, %edx
	callq	blake2b_final
.Ltmp227:
	.loc	1 368 5                         # crypto_generichash/blake2b/ref/blake2b-ref.c:368:5
	xorl	%eax, %eax
	leaq	-40(%rbp), %rsp
	.loc	1 368 5 epilogue_begin is_stmt 0 # crypto_generichash/blake2b/ref/blake2b-ref.c:368:5
	popq	%rbx
.Ltmp228:
	#DEBUG_VALUE: blake2b:out <- [DW_OP_LLVM_entry_value 1] $rdi
	popq	%r12
	popq	%r13
	popq	%r14
.Ltmp229:
	#DEBUG_VALUE: blake2b:inlen <- [DW_OP_LLVM_entry_value 1] $r8
	popq	%r15
.Ltmp230:
	#DEBUG_VALUE: blake2b:in <- [DW_OP_LLVM_entry_value 1] $rsi
	popq	%rbp
	.cfi_def_cfa %rsp, 8
	retq
.Ltmp231:
.LBB7_9:
	.cfi_def_cfa %rbp, 16
	#DEBUG_VALUE: blake2b:out <- $rdi
	#DEBUG_VALUE: blake2b:in <- $r15
	#DEBUG_VALUE: blake2b:key <- $rdx
	#DEBUG_VALUE: blake2b:outlen <- $ecx
	#DEBUG_VALUE: blake2b:inlen <- $r8
	#DEBUG_VALUE: blake2b:keylen <- $r9d
	.loc	1 0 0                           # crypto_generichash/blake2b/ref/blake2b-ref.c:0
	callq	sodium_misuse@PLT
.Ltmp232:
	#DEBUG_VALUE: blake2b:keylen <- [DW_OP_LLVM_entry_value 1] $r9d
	#DEBUG_VALUE: blake2b:inlen <- [DW_OP_LLVM_entry_value 1] $r8
	#DEBUG_VALUE: blake2b:outlen <- [DW_OP_LLVM_entry_value 1] $ecx
	#DEBUG_VALUE: blake2b:key <- [DW_OP_LLVM_entry_value 1] $rdx
	#DEBUG_VALUE: blake2b:out <- [DW_OP_LLVM_entry_value 1] $rdi
.Lfunc_end7:
	.size	blake2b, .Lfunc_end7-blake2b
	.cfi_endproc
                                        # -- End function
	.section	.rodata.cst16,"aM",@progbits,16
	.p2align	4, 0x0                          # -- Begin function blake2b_salt_personal
.LCPI8_0:
	.quad	5840696475078001361             # 0x510e527fade682d1
	.quad	-7276294671716946913            # 0x9b05688c2b3e6c1f
.LCPI8_1:
	.quad	2270897969802886507             # 0x1f83d9abfb41bd6b
	.quad	6620516959819538809             # 0x5be0cd19137e2179
	.text
	.hidden	blake2b_salt_personal
	.globl	blake2b_salt_personal
	.p2align	4
	.type	blake2b_salt_personal,@function
blake2b_salt_personal:                  # @blake2b_salt_personal
.Lfunc_begin8:
	.loc	1 375 0 is_stmt 1               # crypto_generichash/blake2b/ref/blake2b-ref.c:375:0
	.cfi_startproc
# %bb.0:
	#DEBUG_VALUE: blake2b_salt_personal:out <- $rdi
	#DEBUG_VALUE: blake2b_salt_personal:in <- $rsi
	#DEBUG_VALUE: blake2b_salt_personal:key <- $rdx
	#DEBUG_VALUE: blake2b_salt_personal:outlen <- $ecx
	#DEBUG_VALUE: blake2b_salt_personal:inlen <- $r8
	#DEBUG_VALUE: blake2b_salt_personal:keylen <- $r9d
	pushq	%rbp
	.cfi_def_cfa_offset 16
	.cfi_offset %rbp, -16
	movq	%rsp, %rbp
	.cfi_def_cfa_register %rbp
	pushq	%r15
	pushq	%r14
	pushq	%r13
	pushq	%r12
	pushq	%rbx
	andq	$-64, %rsp
	subq	$512, %rsp                      # imm = 0x200
	.cfi_offset %rbx, -56
	.cfi_offset %r12, -48
	.cfi_offset %r13, -40
	.cfi_offset %r14, -32
	.cfi_offset %r15, -24
.Ltmp233:
	#DEBUG_VALUE: blake2b_salt_personal:salt <- [DW_OP_plus_uconst 16] [$rbp+0]
	#DEBUG_VALUE: blake2b_salt_personal:personal <- [DW_OP_plus_uconst 24] [$rbp+0]
                                        # kill: def $ecx killed $ecx def $rcx
	movq	%rsi, %r15
.Ltmp234:
	#DEBUG_VALUE: blake2b_salt_personal:S <- [DW_OP_plus_uconst 64, DW_OP_deref] $rsp
	.loc	1 379 20 prologue_end           # crypto_generichash/blake2b/ref/blake2b-ref.c:379:20
	testq	%rsi, %rsi
	setne	%al
	testq	%r8, %r8
	sete	%sil
.Ltmp235:
	#DEBUG_VALUE: blake2b_salt_personal:in <- $r15
	.loc	1 379 26 is_stmt 0              # crypto_generichash/blake2b/ref/blake2b-ref.c:379:26
	orb	%al, %sil
	je	.LBB8_15
.Ltmp236:
# %bb.1:
	#DEBUG_VALUE: blake2b_salt_personal:out <- $rdi
	#DEBUG_VALUE: blake2b_salt_personal:in <- $r15
	#DEBUG_VALUE: blake2b_salt_personal:key <- $rdx
	#DEBUG_VALUE: blake2b_salt_personal:outlen <- $ecx
	#DEBUG_VALUE: blake2b_salt_personal:inlen <- $r8
	#DEBUG_VALUE: blake2b_salt_personal:keylen <- $r9d
	#DEBUG_VALUE: blake2b_salt_personal:salt <- [DW_OP_plus_uconst 16] [$rbp+0]
	#DEBUG_VALUE: blake2b_salt_personal:personal <- [DW_OP_plus_uconst 24] [$rbp+0]
	#DEBUG_VALUE: blake2b_salt_personal:S <- [DW_OP_plus_uconst 64, DW_OP_deref] $rsp
	.loc	1 0 26                          # crypto_generichash/blake2b/ref/blake2b-ref.c:0:26
	movq	%rdi, %rbx
.Ltmp237:
	.loc	1 382 20 is_stmt 1              # crypto_generichash/blake2b/ref/blake2b-ref.c:382:20
	testq	%rdi, %rdi
	je	.LBB8_15
.Ltmp238:
# %bb.2:
	#DEBUG_VALUE: blake2b_salt_personal:out <- $rbx
	#DEBUG_VALUE: blake2b_salt_personal:in <- $r15
	#DEBUG_VALUE: blake2b_salt_personal:key <- $rdx
	#DEBUG_VALUE: blake2b_salt_personal:outlen <- $ecx
	#DEBUG_VALUE: blake2b_salt_personal:inlen <- $r8
	#DEBUG_VALUE: blake2b_salt_personal:keylen <- $r9d
	#DEBUG_VALUE: blake2b_salt_personal:salt <- [DW_OP_plus_uconst 16] [$rbp+0]
	#DEBUG_VALUE: blake2b_salt_personal:personal <- [DW_OP_plus_uconst 24] [$rbp+0]
	#DEBUG_VALUE: blake2b_salt_personal:S <- [DW_OP_plus_uconst 64, DW_OP_deref] $rsp
	.loc	1 385 17                        # crypto_generichash/blake2b/ref/blake2b-ref.c:385:17
	leal	-65(%rcx), %eax
	cmpb	$-65, %al
	jbe	.LBB8_15
.Ltmp239:
# %bb.3:
	#DEBUG_VALUE: blake2b_salt_personal:out <- $rbx
	#DEBUG_VALUE: blake2b_salt_personal:in <- $r15
	#DEBUG_VALUE: blake2b_salt_personal:key <- $rdx
	#DEBUG_VALUE: blake2b_salt_personal:outlen <- $ecx
	#DEBUG_VALUE: blake2b_salt_personal:inlen <- $r8
	#DEBUG_VALUE: blake2b_salt_personal:keylen <- $r9d
	#DEBUG_VALUE: blake2b_salt_personal:salt <- [DW_OP_plus_uconst 16] [$rbp+0]
	#DEBUG_VALUE: blake2b_salt_personal:personal <- [DW_OP_plus_uconst 24] [$rbp+0]
	#DEBUG_VALUE: blake2b_salt_personal:S <- [DW_OP_plus_uconst 64, DW_OP_deref] $rsp
	.loc	1 388 20                        # crypto_generichash/blake2b/ref/blake2b-ref.c:388:20
	testq	%rdx, %rdx
	setne	%al
	testb	%r9b, %r9b
	sete	%sil
	.loc	1 388 27 is_stmt 0              # crypto_generichash/blake2b/ref/blake2b-ref.c:388:27
	orb	%al, %sil
	je	.LBB8_15
.Ltmp240:
# %bb.4:
	#DEBUG_VALUE: blake2b_salt_personal:out <- $rbx
	#DEBUG_VALUE: blake2b_salt_personal:in <- $r15
	#DEBUG_VALUE: blake2b_salt_personal:key <- $rdx
	#DEBUG_VALUE: blake2b_salt_personal:outlen <- $ecx
	#DEBUG_VALUE: blake2b_salt_personal:inlen <- $r8
	#DEBUG_VALUE: blake2b_salt_personal:keylen <- $r9d
	#DEBUG_VALUE: blake2b_salt_personal:salt <- [DW_OP_plus_uconst 16] [$rbp+0]
	#DEBUG_VALUE: blake2b_salt_personal:personal <- [DW_OP_plus_uconst 24] [$rbp+0]
	#DEBUG_VALUE: blake2b_salt_personal:S <- [DW_OP_plus_uconst 64, DW_OP_deref] $rsp
	.loc	1 391 16 is_stmt 1              # crypto_generichash/blake2b/ref/blake2b-ref.c:391:16
	cmpb	$65, %r9b
	jae	.LBB8_15
.Ltmp241:
# %bb.5:
	#DEBUG_VALUE: blake2b_salt_personal:out <- $rbx
	#DEBUG_VALUE: blake2b_salt_personal:in <- $r15
	#DEBUG_VALUE: blake2b_salt_personal:key <- $rdx
	#DEBUG_VALUE: blake2b_salt_personal:outlen <- $ecx
	#DEBUG_VALUE: blake2b_salt_personal:inlen <- $r8
	#DEBUG_VALUE: blake2b_salt_personal:keylen <- $r9d
	#DEBUG_VALUE: blake2b_salt_personal:salt <- [DW_OP_plus_uconst 16] [$rbp+0]
	#DEBUG_VALUE: blake2b_salt_personal:personal <- [DW_OP_plus_uconst 24] [$rbp+0]
	#DEBUG_VALUE: blake2b_salt_personal:S <- [DW_OP_plus_uconst 64, DW_OP_deref] $rsp
	.loc	1 0 16 is_stmt 0                # crypto_generichash/blake2b/ref/blake2b-ref.c:0:16
	movq	%r8, %r14
	movq	24(%rbp), %rax
	movq	16(%rbp), %r8
.Ltmp242:
	#DEBUG_VALUE: blake2b_salt_personal:inlen <- $r14
	movzbl	%cl, %r12d
	testb	%r9b, %r9b
.Ltmp243:
	.loc	1 394 16 is_stmt 1              # crypto_generichash/blake2b/ref/blake2b-ref.c:394:16
	je	.LBB8_7
.Ltmp244:
# %bb.6:
	#DEBUG_VALUE: blake2b_salt_personal:out <- $rbx
	#DEBUG_VALUE: blake2b_salt_personal:in <- $r15
	#DEBUG_VALUE: blake2b_salt_personal:key <- $rdx
	#DEBUG_VALUE: blake2b_salt_personal:outlen <- $ecx
	#DEBUG_VALUE: blake2b_salt_personal:inlen <- $r14
	#DEBUG_VALUE: blake2b_salt_personal:keylen <- $r9d
	#DEBUG_VALUE: blake2b_salt_personal:salt <- [DW_OP_plus_uconst 16] [$rbp+0]
	#DEBUG_VALUE: blake2b_salt_personal:personal <- [DW_OP_plus_uconst 24] [$rbp+0]
	#DEBUG_VALUE: blake2b_salt_personal:S <- [DW_OP_plus_uconst 64, DW_OP_deref] $rsp
	.loc	1 395 13                        # crypto_generichash/blake2b/ref/blake2b-ref.c:395:13
	movzbl	%r9b, %ecx
.Ltmp245:
	#DEBUG_VALUE: blake2b_salt_personal:outlen <- [DW_OP_LLVM_entry_value 1] $ecx
	.loc	1 0 13 is_stmt 0                # crypto_generichash/blake2b/ref/blake2b-ref.c:0:13
	leaq	64(%rsp), %rdi
	.loc	1 395 13                        # crypto_generichash/blake2b/ref/blake2b-ref.c:395:13
	movl	%r12d, %esi
	movq	%rax, %r9
.Ltmp246:
	#DEBUG_VALUE: blake2b_salt_personal:keylen <- [DW_OP_LLVM_entry_value 1] $r9d
	callq	blake2b_init_key_salt_personal
.Ltmp247:
	#DEBUG_VALUE: blake2b_salt_personal:key <- [DW_OP_LLVM_entry_value 1] $rdx
	.loc	1 396 54 is_stmt 1              # crypto_generichash/blake2b/ref/blake2b-ref.c:396:54
	jmp	.LBB8_14
.Ltmp248:
.LBB8_7:
	#DEBUG_VALUE: blake2b_salt_personal:out <- $rbx
	#DEBUG_VALUE: blake2b_salt_personal:in <- $r15
	#DEBUG_VALUE: blake2b_salt_personal:key <- $rdx
	#DEBUG_VALUE: blake2b_salt_personal:outlen <- $ecx
	#DEBUG_VALUE: blake2b_salt_personal:inlen <- $r14
	#DEBUG_VALUE: blake2b_salt_personal:keylen <- $r9d
	#DEBUG_VALUE: blake2b_salt_personal:salt <- [DW_OP_plus_uconst 16] [$rbp+0]
	#DEBUG_VALUE: blake2b_salt_personal:personal <- [DW_OP_plus_uconst 24] [$rbp+0]
	#DEBUG_VALUE: blake2b_salt_personal:S <- [DW_OP_plus_uconst 64, DW_OP_deref] $rsp
	#DEBUG_VALUE: memcpy:__src <- undef
	#DEBUG_VALUE: blake2b_init_param:p <- undef
	#DEBUG_VALUE: blake2b_init_param:P <- undef
	#DEBUG_VALUE: blake2b_param_set_personal:P <- undef
	#DEBUG_VALUE: blake2b_param_set_salt:P <- undef
	#DEBUG_VALUE: blake2b_init_salt_personal:S <- [DW_OP_plus_uconst 64, DW_OP_stack_value] $rsp
	#DEBUG_VALUE: blake2b_init_salt_personal:outlen <- $cl
	#DEBUG_VALUE: blake2b_init_salt_personal:salt <- $r8
	#DEBUG_VALUE: blake2b_init_salt_personal:personal <- $rax
	#DEBUG_VALUE: memcpy:__dest <- undef
	#DEBUG_VALUE: memcpy:__src <- undef
	#DEBUG_VALUE: memcpy:__len <- 4
	#DEBUG_VALUE: blake2b_init_salt_personal:P <- [DW_OP_LLVM_convert 8 7, DW_OP_LLVM_convert 64 7, DW_OP_constu 65536, DW_OP_or, DW_OP_constu 16777216, DW_OP_or, DW_OP_stack_value, DW_OP_LLVM_fragment 0 64] $cl
	#DEBUG_VALUE: memcpy:__dest <- undef
	#DEBUG_VALUE: memcpy:__src <- undef
	#DEBUG_VALUE: memcpy:__len <- 8
	#DEBUG_VALUE: blake2b_init_salt_personal:P <- [DW_OP_LLVM_fragment 64 64] 0
	#DEBUG_VALUE: blake2b_init_salt_personal:P <- [DW_OP_LLVM_fragment 128 8] 0
	#DEBUG_VALUE: blake2b_init_salt_personal:P <- [DW_OP_LLVM_fragment 136 8] 0
	#DEBUG_VALUE: memset:__dest <- undef
	#DEBUG_VALUE: memset:__ch <- 0
	#DEBUG_VALUE: memset:__len <- 14
	#DEBUG_VALUE: blake2b_init_salt_personal:P <- [DW_OP_LLVM_fragment 144 48] 0
	#DEBUG_VALUE: blake2b_init_salt_personal:P <- [DW_OP_LLVM_fragment 192 64] 0
	.loc	1 165 14                        # crypto_generichash/blake2b/ref/blake2b-ref.c:165:14 @[ crypto_generichash/blake2b/ref/blake2b-ref.c:400:13 ]
	testq	%r8, %r8
	je	.LBB8_8
.Ltmp249:
# %bb.9:
	#DEBUG_VALUE: blake2b_salt_personal:out <- $rbx
	#DEBUG_VALUE: blake2b_salt_personal:in <- $r15
	#DEBUG_VALUE: blake2b_salt_personal:key <- $rdx
	#DEBUG_VALUE: blake2b_salt_personal:outlen <- $ecx
	#DEBUG_VALUE: blake2b_salt_personal:inlen <- $r14
	#DEBUG_VALUE: blake2b_salt_personal:keylen <- $r9d
	#DEBUG_VALUE: blake2b_salt_personal:salt <- [DW_OP_plus_uconst 16] [$rbp+0]
	#DEBUG_VALUE: blake2b_salt_personal:personal <- [DW_OP_plus_uconst 24] [$rbp+0]
	#DEBUG_VALUE: blake2b_salt_personal:S <- [DW_OP_plus_uconst 64, DW_OP_deref] $rsp
	#DEBUG_VALUE: blake2b_init_salt_personal:S <- [DW_OP_plus_uconst 64, DW_OP_stack_value] $rsp
	#DEBUG_VALUE: blake2b_init_salt_personal:outlen <- $cl
	#DEBUG_VALUE: blake2b_init_salt_personal:salt <- $r8
	#DEBUG_VALUE: blake2b_init_salt_personal:personal <- $rax
	#DEBUG_VALUE: blake2b_init_salt_personal:P <- [DW_OP_LLVM_convert 8 7, DW_OP_LLVM_convert 64 7, DW_OP_constu 65536, DW_OP_or, DW_OP_constu 16777216, DW_OP_or, DW_OP_stack_value, DW_OP_LLVM_fragment 0 64] $cl
	#DEBUG_VALUE: blake2b_init_salt_personal:P <- [DW_OP_LLVM_fragment 64 64] 0
	#DEBUG_VALUE: blake2b_init_salt_personal:P <- [DW_OP_LLVM_fragment 128 8] 0
	#DEBUG_VALUE: blake2b_init_salt_personal:P <- [DW_OP_LLVM_fragment 136 8] 0
	#DEBUG_VALUE: blake2b_init_salt_personal:P <- [DW_OP_LLVM_fragment 144 48] 0
	#DEBUG_VALUE: blake2b_init_salt_personal:P <- [DW_OP_LLVM_fragment 192 64] 0
	#DEBUG_VALUE: blake2b_param_set_salt:P <- undef
	#DEBUG_VALUE: blake2b_param_set_salt:salt <- $r8
	#DEBUG_VALUE: memcpy:__dest <- undef
	#DEBUG_VALUE: memcpy:__src <- $r8
	#DEBUG_VALUE: memcpy:__len <- 16
	#DEBUG_VALUE: blake2b_init_salt_personal:P <- [DW_OP_LLVM_fragment 256 64] undef
	.loc	7 29 10                         # /usr/include/x86_64-linux-gnu/bits/string_fortified.h:29:10 @[ crypto_generichash/blake2b/ref/blake2b-ref.c:80:5 @[ crypto_generichash/blake2b/ref/blake2b-ref.c:166:9 @[ crypto_generichash/blake2b/ref/blake2b-ref.c:400:13 ] ] ]
	movups	(%r8), %xmm0
.Ltmp250:
	#DEBUG_VALUE: blake2b_init_salt_personal:P <- [DW_OP_LLVM_fragment 320 64] undef
	.loc	1 120 17                        # crypto_generichash/blake2b/ref/blake2b-ref.c:120:17 @[ crypto_generichash/blake2b/ref/blake2b-ref.c:175:12 @[ crypto_generichash/blake2b/ref/blake2b-ref.c:400:13 ] ]
	xorps	.LCPI8_0(%rip), %xmm0
	jmp	.LBB8_10
.Ltmp251:
.LBB8_8:
	#DEBUG_VALUE: blake2b_salt_personal:out <- $rbx
	#DEBUG_VALUE: blake2b_salt_personal:in <- $r15
	#DEBUG_VALUE: blake2b_salt_personal:key <- $rdx
	#DEBUG_VALUE: blake2b_salt_personal:outlen <- $ecx
	#DEBUG_VALUE: blake2b_salt_personal:inlen <- $r14
	#DEBUG_VALUE: blake2b_salt_personal:keylen <- $r9d
	#DEBUG_VALUE: blake2b_salt_personal:salt <- [DW_OP_plus_uconst 16] [$rbp+0]
	#DEBUG_VALUE: blake2b_salt_personal:personal <- [DW_OP_plus_uconst 24] [$rbp+0]
	#DEBUG_VALUE: blake2b_salt_personal:S <- [DW_OP_plus_uconst 64, DW_OP_deref] $rsp
	#DEBUG_VALUE: blake2b_init_salt_personal:S <- [DW_OP_plus_uconst 64, DW_OP_stack_value] $rsp
	#DEBUG_VALUE: blake2b_init_salt_personal:outlen <- $cl
	#DEBUG_VALUE: blake2b_init_salt_personal:salt <- $r8
	#DEBUG_VALUE: blake2b_init_salt_personal:personal <- $rax
	#DEBUG_VALUE: blake2b_init_salt_personal:P <- [DW_OP_LLVM_convert 8 7, DW_OP_LLVM_convert 64 7, DW_OP_constu 65536, DW_OP_or, DW_OP_constu 16777216, DW_OP_or, DW_OP_stack_value, DW_OP_LLVM_fragment 0 64] $cl
	#DEBUG_VALUE: blake2b_init_salt_personal:P <- [DW_OP_LLVM_fragment 64 64] 0
	#DEBUG_VALUE: blake2b_init_salt_personal:P <- [DW_OP_LLVM_fragment 128 8] 0
	#DEBUG_VALUE: blake2b_init_salt_personal:P <- [DW_OP_LLVM_fragment 136 8] 0
	#DEBUG_VALUE: blake2b_init_salt_personal:P <- [DW_OP_LLVM_fragment 144 48] 0
	#DEBUG_VALUE: blake2b_init_salt_personal:P <- [DW_OP_LLVM_fragment 192 64] 0
	.loc	1 0 17 is_stmt 0                # crypto_generichash/blake2b/ref/blake2b-ref.c:0:17
	movaps	.LCPI8_0(%rip), %xmm0           # xmm0 = [5840696475078001361,11170449401992604703]
.Ltmp252:
.LBB8_10:
	#DEBUG_VALUE: blake2b_salt_personal:out <- $rbx
	#DEBUG_VALUE: blake2b_salt_personal:in <- $r15
	#DEBUG_VALUE: blake2b_salt_personal:key <- $rdx
	#DEBUG_VALUE: blake2b_salt_personal:outlen <- $ecx
	#DEBUG_VALUE: blake2b_salt_personal:inlen <- $r14
	#DEBUG_VALUE: blake2b_salt_personal:keylen <- $r9d
	#DEBUG_VALUE: blake2b_salt_personal:salt <- [DW_OP_plus_uconst 16] [$rbp+0]
	#DEBUG_VALUE: blake2b_salt_personal:personal <- [DW_OP_plus_uconst 24] [$rbp+0]
	#DEBUG_VALUE: blake2b_salt_personal:S <- [DW_OP_plus_uconst 64, DW_OP_deref] $rsp
	#DEBUG_VALUE: blake2b_init_salt_personal:S <- [DW_OP_plus_uconst 64, DW_OP_stack_value] $rsp
	#DEBUG_VALUE: blake2b_init_salt_personal:outlen <- $cl
	#DEBUG_VALUE: blake2b_init_salt_personal:salt <- $r8
	#DEBUG_VALUE: blake2b_init_salt_personal:personal <- $rax
	#DEBUG_VALUE: blake2b_init_salt_personal:P <- [DW_OP_LLVM_convert 8 7, DW_OP_LLVM_convert 64 7, DW_OP_constu 65536, DW_OP_or, DW_OP_constu 16777216, DW_OP_or, DW_OP_stack_value, DW_OP_LLVM_fragment 0 64] $cl
	#DEBUG_VALUE: blake2b_init_salt_personal:P <- [DW_OP_LLVM_fragment 64 64] 0
	#DEBUG_VALUE: blake2b_init_salt_personal:P <- [DW_OP_LLVM_fragment 128 8] 0
	#DEBUG_VALUE: blake2b_init_salt_personal:P <- [DW_OP_LLVM_fragment 136 8] 0
	#DEBUG_VALUE: blake2b_init_salt_personal:P <- [DW_OP_LLVM_fragment 144 48] 0
	#DEBUG_VALUE: blake2b_init_salt_personal:P <- [DW_OP_LLVM_fragment 192 64] 0
	movaps	%xmm0, 48(%rsp)                 # 16-byte Spill
.Ltmp253:
	#DEBUG_VALUE: blake2b_init_salt_personal:P <- [DW_OP_LLVM_fragment 256 64] undef
	#DEBUG_VALUE: blake2b_init_salt_personal:P <- [DW_OP_LLVM_fragment 320 64] undef
	.loc	1 170 18 is_stmt 1              # crypto_generichash/blake2b/ref/blake2b-ref.c:170:18 @[ crypto_generichash/blake2b/ref/blake2b-ref.c:400:13 ]
	testq	%rax, %rax
	je	.LBB8_11
.Ltmp254:
# %bb.12:
	#DEBUG_VALUE: blake2b_salt_personal:out <- $rbx
	#DEBUG_VALUE: blake2b_salt_personal:in <- $r15
	#DEBUG_VALUE: blake2b_salt_personal:key <- $rdx
	#DEBUG_VALUE: blake2b_salt_personal:outlen <- $ecx
	#DEBUG_VALUE: blake2b_salt_personal:inlen <- $r14
	#DEBUG_VALUE: blake2b_salt_personal:keylen <- $r9d
	#DEBUG_VALUE: blake2b_salt_personal:salt <- [DW_OP_plus_uconst 16] [$rbp+0]
	#DEBUG_VALUE: blake2b_salt_personal:personal <- [DW_OP_plus_uconst 24] [$rbp+0]
	#DEBUG_VALUE: blake2b_salt_personal:S <- [DW_OP_plus_uconst 64, DW_OP_deref] $rsp
	#DEBUG_VALUE: blake2b_init_salt_personal:S <- [DW_OP_plus_uconst 64, DW_OP_stack_value] $rsp
	#DEBUG_VALUE: blake2b_init_salt_personal:outlen <- $cl
	#DEBUG_VALUE: blake2b_init_salt_personal:salt <- $r8
	#DEBUG_VALUE: blake2b_init_salt_personal:personal <- $rax
	#DEBUG_VALUE: blake2b_init_salt_personal:P <- [DW_OP_LLVM_convert 8 7, DW_OP_LLVM_convert 64 7, DW_OP_constu 65536, DW_OP_or, DW_OP_constu 16777216, DW_OP_or, DW_OP_stack_value, DW_OP_LLVM_fragment 0 64] $cl
	#DEBUG_VALUE: blake2b_init_salt_personal:P <- [DW_OP_LLVM_fragment 64 64] 0
	#DEBUG_VALUE: blake2b_init_salt_personal:P <- [DW_OP_LLVM_fragment 128 8] 0
	#DEBUG_VALUE: blake2b_init_salt_personal:P <- [DW_OP_LLVM_fragment 136 8] 0
	#DEBUG_VALUE: blake2b_init_salt_personal:P <- [DW_OP_LLVM_fragment 144 48] 0
	#DEBUG_VALUE: blake2b_init_salt_personal:P <- [DW_OP_LLVM_fragment 192 64] 0
	#DEBUG_VALUE: blake2b_param_set_personal:P <- undef
	#DEBUG_VALUE: blake2b_param_set_personal:personal <- $rax
	#DEBUG_VALUE: memcpy:__dest <- undef
	#DEBUG_VALUE: memcpy:__src <- $rax
	#DEBUG_VALUE: memcpy:__len <- 16
	#DEBUG_VALUE: blake2b_init_salt_personal:P <- [DW_OP_LLVM_fragment 384 64] undef
	.loc	7 29 10                         # /usr/include/x86_64-linux-gnu/bits/string_fortified.h:29:10 @[ crypto_generichash/blake2b/ref/blake2b-ref.c:88:5 @[ crypto_generichash/blake2b/ref/blake2b-ref.c:171:9 @[ crypto_generichash/blake2b/ref/blake2b-ref.c:400:13 ] ] ]
	movups	(%rax), %xmm0
.Ltmp255:
	#DEBUG_VALUE: blake2b_init_salt_personal:P <- [DW_OP_LLVM_fragment 448 64] undef
	.loc	1 120 17                        # crypto_generichash/blake2b/ref/blake2b-ref.c:120:17 @[ crypto_generichash/blake2b/ref/blake2b-ref.c:175:12 @[ crypto_generichash/blake2b/ref/blake2b-ref.c:400:13 ] ]
	xorps	.LCPI8_1(%rip), %xmm0
	jmp	.LBB8_13
.Ltmp256:
.LBB8_11:
	#DEBUG_VALUE: blake2b_salt_personal:out <- $rbx
	#DEBUG_VALUE: blake2b_salt_personal:in <- $r15
	#DEBUG_VALUE: blake2b_salt_personal:key <- $rdx
	#DEBUG_VALUE: blake2b_salt_personal:outlen <- $ecx
	#DEBUG_VALUE: blake2b_salt_personal:inlen <- $r14
	#DEBUG_VALUE: blake2b_salt_personal:keylen <- $r9d
	#DEBUG_VALUE: blake2b_salt_personal:salt <- [DW_OP_plus_uconst 16] [$rbp+0]
	#DEBUG_VALUE: blake2b_salt_personal:personal <- [DW_OP_plus_uconst 24] [$rbp+0]
	#DEBUG_VALUE: blake2b_salt_personal:S <- [DW_OP_plus_uconst 64, DW_OP_deref] $rsp
	#DEBUG_VALUE: blake2b_init_salt_personal:S <- [DW_OP_plus_uconst 64, DW_OP_stack_value] $rsp
	#DEBUG_VALUE: blake2b_init_salt_personal:outlen <- $cl
	#DEBUG_VALUE: blake2b_init_salt_personal:salt <- $r8
	#DEBUG_VALUE: blake2b_init_salt_personal:personal <- $rax
	#DEBUG_VALUE: blake2b_init_salt_personal:P <- [DW_OP_LLVM_convert 8 7, DW_OP_LLVM_convert 64 7, DW_OP_constu 65536, DW_OP_or, DW_OP_constu 16777216, DW_OP_or, DW_OP_stack_value, DW_OP_LLVM_fragment 0 64] $cl
	#DEBUG_VALUE: blake2b_init_salt_personal:P <- [DW_OP_LLVM_fragment 64 64] 0
	#DEBUG_VALUE: blake2b_init_salt_personal:P <- [DW_OP_LLVM_fragment 128 8] 0
	#DEBUG_VALUE: blake2b_init_salt_personal:P <- [DW_OP_LLVM_fragment 136 8] 0
	#DEBUG_VALUE: blake2b_init_salt_personal:P <- [DW_OP_LLVM_fragment 144 48] 0
	#DEBUG_VALUE: blake2b_init_salt_personal:P <- [DW_OP_LLVM_fragment 192 64] 0
	.loc	1 0 17 is_stmt 0                # crypto_generichash/blake2b/ref/blake2b-ref.c:0:17
	movaps	.LCPI8_1(%rip), %xmm0           # xmm0 = [2270897969802886507,6620516959819538809]
.Ltmp257:
.LBB8_13:                               # %blake2b_init_salt_personal.exit
	#DEBUG_VALUE: blake2b_salt_personal:out <- $rbx
	#DEBUG_VALUE: blake2b_salt_personal:in <- $r15
	#DEBUG_VALUE: blake2b_salt_personal:key <- $rdx
	#DEBUG_VALUE: blake2b_salt_personal:outlen <- $ecx
	#DEBUG_VALUE: blake2b_salt_personal:inlen <- $r14
	#DEBUG_VALUE: blake2b_salt_personal:keylen <- $r9d
	#DEBUG_VALUE: blake2b_salt_personal:salt <- [DW_OP_plus_uconst 16] [$rbp+0]
	#DEBUG_VALUE: blake2b_salt_personal:personal <- [DW_OP_plus_uconst 24] [$rbp+0]
	#DEBUG_VALUE: blake2b_salt_personal:S <- [DW_OP_plus_uconst 64, DW_OP_deref] $rsp
	#DEBUG_VALUE: blake2b_init_salt_personal:S <- [DW_OP_plus_uconst 64, DW_OP_stack_value] $rsp
	#DEBUG_VALUE: blake2b_init_salt_personal:outlen <- $cl
	#DEBUG_VALUE: blake2b_init_salt_personal:salt <- $r8
	#DEBUG_VALUE: blake2b_init_salt_personal:personal <- $rax
	#DEBUG_VALUE: blake2b_init_salt_personal:P <- [DW_OP_LLVM_convert 8 7, DW_OP_LLVM_convert 64 7, DW_OP_constu 65536, DW_OP_or, DW_OP_constu 16777216, DW_OP_or, DW_OP_stack_value, DW_OP_LLVM_fragment 0 64] $cl
	#DEBUG_VALUE: blake2b_init_salt_personal:P <- [DW_OP_LLVM_fragment 64 64] 0
	#DEBUG_VALUE: blake2b_init_salt_personal:P <- [DW_OP_LLVM_fragment 128 8] 0
	#DEBUG_VALUE: blake2b_init_salt_personal:P <- [DW_OP_LLVM_fragment 136 8] 0
	#DEBUG_VALUE: blake2b_init_salt_personal:P <- [DW_OP_LLVM_fragment 144 48] 0
	#DEBUG_VALUE: blake2b_init_salt_personal:P <- [DW_OP_LLVM_fragment 192 64] 0
	movaps	%xmm0, 32(%rsp)                 # 16-byte Spill
.Ltmp258:
	#DEBUG_VALUE: blake2b_init_salt_personal:P <- [DW_OP_constu 16842752, DW_OP_or, DW_OP_stack_value, DW_OP_LLVM_fragment 0 64] undef
	#DEBUG_VALUE: blake2b_init_salt_personal:P <- [DW_OP_LLVM_fragment 384 64] undef
	#DEBUG_VALUE: blake2b_init_salt_personal:P <- [DW_OP_LLVM_fragment 448 64] undef
	#DEBUG_VALUE: blake2b_init_param:S <- [DW_OP_plus_uconst 64, DW_OP_stack_value] $rsp
	#DEBUG_VALUE: blake2b_init_param:P <- undef
	#DEBUG_VALUE: blake2b_init0:S <- [DW_OP_plus_uconst 64, DW_OP_stack_value] $rsp
	#DEBUG_VALUE: blake2b_init0:i <- undef
	.loc	1 101 25 is_stmt 1              # crypto_generichash/blake2b/ref/blake2b-ref.c:101:25 @[ crypto_generichash/blake2b/ref/blake2b-ref.c:115:5 @[ crypto_generichash/blake2b/ref/blake2b-ref.c:175:12 @[ crypto_generichash/blake2b/ref/blake2b-ref.c:400:13 ] ] ]
	leaq	128(%rsp), %rdi
.Ltmp259:
	#DEBUG_VALUE: memset:__dest <- $rdi
	#DEBUG_VALUE: memset:__ch <- 0
	#DEBUG_VALUE: memset:__len <- 297
	.loc	7 59 10                         # /usr/include/x86_64-linux-gnu/bits/string_fortified.h:59:10 @[ crypto_generichash/blake2b/ref/blake2b-ref.c:101:5 @[ crypto_generichash/blake2b/ref/blake2b-ref.c:115:5 @[ crypto_generichash/blake2b/ref/blake2b-ref.c:175:12 @[ crypto_generichash/blake2b/ref/blake2b-ref.c:400:13 ] ] ] ]
	movl	$297, %edx                      # imm = 0x129
.Ltmp260:
	#DEBUG_VALUE: blake2b_salt_personal:key <- [DW_OP_LLVM_entry_value 1] $rdx
	xorl	%esi, %esi
	callq	memset@PLT
.Ltmp261:
	#DEBUG_VALUE: blake2b_salt_personal:keylen <- [DW_OP_LLVM_entry_value 1] $r9d
	#DEBUG_VALUE: blake2b_salt_personal:outlen <- [DW_OP_LLVM_entry_value 1] $ecx
	.loc	7 0 10 is_stmt 0                # /usr/include/x86_64-linux-gnu/bits/string_fortified.h:0:10
	movabsq	$7640891576939301128, %rax      # imm = 0x6A09E667F2BDC908
.Ltmp262:
	#DEBUG_VALUE: blake2b_salt_personal:S <- [DW_OP_plus_uconst 64, DW_OP_deref] $rsp
	#DEBUG_VALUE: blake2b_init_param:p <- undef
	#DEBUG_VALUE: blake2b_init_param:i <- 0
	#DEBUG_VALUE: memcpy:__dest <- undef
	#DEBUG_VALUE: memcpy:__src <- undef
	#DEBUG_VALUE: memcpy:__len <- 8
	.loc	1 120 17 is_stmt 1              # crypto_generichash/blake2b/ref/blake2b-ref.c:120:17 @[ crypto_generichash/blake2b/ref/blake2b-ref.c:175:12 @[ crypto_generichash/blake2b/ref/blake2b-ref.c:400:13 ] ]
	xorq	%r12, %rax
	movq	%rax, 64(%rsp)
	movabsq	$-4942790177534073029, %rax     # imm = 0xBB67AE8584CAA73B
.Ltmp263:
	#DEBUG_VALUE: blake2b_init_param:i <- 1
	movq	%rax, 72(%rsp)
	movabsq	$4354685564936845355, %rax      # imm = 0x3C6EF372FE94F82B
.Ltmp264:
	#DEBUG_VALUE: blake2b_init_param:i <- 2
	movq	%rax, 80(%rsp)
	movabsq	$-6534734903238641935, %rax     # imm = 0xA54FF53A5F1D36F1
.Ltmp265:
	#DEBUG_VALUE: blake2b_init_param:i <- 3
	movq	%rax, 88(%rsp)
.Ltmp266:
	#DEBUG_VALUE: blake2b_init_param:i <- 4
	#DEBUG_VALUE: blake2b_salt_personal:S <- [DW_OP_LLVM_fragment 256 64] undef
	#DEBUG_VALUE: blake2b_salt_personal:S <- [DW_OP_plus_uconst 64, DW_OP_deref, DW_OP_LLVM_fragment 0 256] $rsp
	#DEBUG_VALUE: blake2b_salt_personal:S <- [DW_OP_plus_uconst 64, DW_OP_plus_uconst 40, DW_OP_deref, DW_OP_LLVM_fragment 320 2568] $rsp
	#DEBUG_VALUE: blake2b_init_param:i <- 5
	.loc	1 0 17 is_stmt 0                # crypto_generichash/blake2b/ref/blake2b-ref.c:0:17
	movaps	48(%rsp), %xmm0                 # 16-byte Reload
	.loc	1 120 17                        # crypto_generichash/blake2b/ref/blake2b-ref.c:120:17 @[ crypto_generichash/blake2b/ref/blake2b-ref.c:175:12 @[ crypto_generichash/blake2b/ref/blake2b-ref.c:400:13 ] ]
	movaps	%xmm0, 96(%rsp)
.Ltmp267:
	#DEBUG_VALUE: blake2b_salt_personal:S <- [DW_OP_plus_uconst 64, DW_OP_deref] $rsp
	#DEBUG_VALUE: blake2b_init_param:i <- 6
	#DEBUG_VALUE: blake2b_salt_personal:S <- [DW_OP_LLVM_fragment 384 64] undef
	#DEBUG_VALUE: blake2b_salt_personal:S <- [DW_OP_plus_uconst 64, DW_OP_deref, DW_OP_LLVM_fragment 0 384] $rsp
	#DEBUG_VALUE: blake2b_salt_personal:S <- [DW_OP_plus_uconst 64, DW_OP_plus_uconst 56, DW_OP_deref, DW_OP_LLVM_fragment 448 2440] $rsp
	#DEBUG_VALUE: blake2b_init_param:i <- 7
	.loc	1 0 17                          # crypto_generichash/blake2b/ref/blake2b-ref.c:0:17
	movaps	32(%rsp), %xmm0                 # 16-byte Reload
	.loc	1 120 17                        # crypto_generichash/blake2b/ref/blake2b-ref.c:120:17 @[ crypto_generichash/blake2b/ref/blake2b-ref.c:175:12 @[ crypto_generichash/blake2b/ref/blake2b-ref.c:400:13 ] ]
	movaps	%xmm0, 112(%rsp)
.Ltmp268:
	#DEBUG_VALUE: blake2b_salt_personal:S <- [DW_OP_plus_uconst 64, DW_OP_deref] $rsp
	#DEBUG_VALUE: blake2b_init_param:i <- 8
.LBB8_14:
	#DEBUG_VALUE: blake2b_salt_personal:out <- $rbx
	#DEBUG_VALUE: blake2b_salt_personal:in <- $r15
	#DEBUG_VALUE: blake2b_salt_personal:key <- [DW_OP_LLVM_entry_value 1] $rdx
	#DEBUG_VALUE: blake2b_salt_personal:outlen <- [DW_OP_LLVM_entry_value 1] $ecx
	#DEBUG_VALUE: blake2b_salt_personal:inlen <- $r14
	#DEBUG_VALUE: blake2b_salt_personal:keylen <- [DW_OP_LLVM_entry_value 1] $r9d
	#DEBUG_VALUE: blake2b_salt_personal:salt <- [DW_OP_plus_uconst 16] [$rbp+0]
	#DEBUG_VALUE: blake2b_salt_personal:personal <- [DW_OP_plus_uconst 24] [$rbp+0]
	#DEBUG_VALUE: blake2b_salt_personal:S <- [DW_OP_plus_uconst 64, DW_OP_deref] $rsp
	.loc	1 0 17                          # crypto_generichash/blake2b/ref/blake2b-ref.c:0:17
	leaq	64(%rsp), %r13
	.loc	1 405 5 is_stmt 1               # crypto_generichash/blake2b/ref/blake2b-ref.c:405:5
	movq	%r13, %rdi
	movq	%r15, %rsi
	movq	%r14, %rdx
	callq	blake2b_update
.Ltmp269:
	.loc	1 406 5                         # crypto_generichash/blake2b/ref/blake2b-ref.c:406:5
	movq	%r13, %rdi
	movq	%rbx, %rsi
	movl	%r12d, %edx
	callq	blake2b_final
.Ltmp270:
	.loc	1 407 5                         # crypto_generichash/blake2b/ref/blake2b-ref.c:407:5
	xorl	%eax, %eax
	leaq	-40(%rbp), %rsp
.Ltmp271:
	.loc	1 407 5 epilogue_begin is_stmt 0 # crypto_generichash/blake2b/ref/blake2b-ref.c:407:5
	popq	%rbx
.Ltmp272:
	#DEBUG_VALUE: blake2b_salt_personal:out <- [DW_OP_LLVM_entry_value 1] $rdi
	popq	%r12
	popq	%r13
	popq	%r14
.Ltmp273:
	#DEBUG_VALUE: blake2b_salt_personal:inlen <- [DW_OP_LLVM_entry_value 1] $r8
	popq	%r15
.Ltmp274:
	#DEBUG_VALUE: blake2b_salt_personal:in <- [DW_OP_LLVM_entry_value 1] $rsi
	popq	%rbp
	.cfi_def_cfa %rsp, 8
	retq
.Ltmp275:
.LBB8_15:
	.cfi_def_cfa %rbp, 16
	#DEBUG_VALUE: blake2b_salt_personal:out <- $rdi
	#DEBUG_VALUE: blake2b_salt_personal:in <- $r15
	#DEBUG_VALUE: blake2b_salt_personal:key <- $rdx
	#DEBUG_VALUE: blake2b_salt_personal:outlen <- $ecx
	#DEBUG_VALUE: blake2b_salt_personal:inlen <- $r8
	#DEBUG_VALUE: blake2b_salt_personal:keylen <- $r9d
	#DEBUG_VALUE: blake2b_salt_personal:salt <- [DW_OP_plus_uconst 16] [$rbp+0]
	#DEBUG_VALUE: blake2b_salt_personal:personal <- [DW_OP_plus_uconst 24] [$rbp+0]
	#DEBUG_VALUE: blake2b_salt_personal:S <- [DW_OP_plus_uconst 64, DW_OP_deref] $rsp
	.loc	1 0 0                           # crypto_generichash/blake2b/ref/blake2b-ref.c:0
	callq	sodium_misuse@PLT
.Ltmp276:
	#DEBUG_VALUE: blake2b_salt_personal:keylen <- [DW_OP_LLVM_entry_value 1] $r9d
	#DEBUG_VALUE: blake2b_salt_personal:inlen <- [DW_OP_LLVM_entry_value 1] $r8
	#DEBUG_VALUE: blake2b_salt_personal:outlen <- [DW_OP_LLVM_entry_value 1] $ecx
	#DEBUG_VALUE: blake2b_salt_personal:key <- [DW_OP_LLVM_entry_value 1] $rdx
	#DEBUG_VALUE: blake2b_salt_personal:out <- [DW_OP_LLVM_entry_value 1] $rdi
.Lfunc_end8:
	.size	blake2b_salt_personal, .Lfunc_end8-blake2b_salt_personal
	.cfi_endproc
                                        # -- End function
	.hidden	blake2b_pick_best_implementation # -- Begin function blake2b_pick_best_implementation
	.globl	blake2b_pick_best_implementation
	.p2align	4
	.type	blake2b_pick_best_implementation,@function
blake2b_pick_best_implementation:       # @blake2b_pick_best_implementation
.Lfunc_begin9:
	.loc	1 412 0 is_stmt 1               # crypto_generichash/blake2b/ref/blake2b-ref.c:412:0
	.cfi_startproc
# %bb.0:
	pushq	%rax
	.cfi_def_cfa_offset 16
.Ltmp277:
	.loc	1 416 9 prologue_end            # crypto_generichash/blake2b/ref/blake2b-ref.c:416:9
	callq	sodium_runtime_has_avx2@PLT
.Ltmp278:
	testl	%eax, %eax
	je	.LBB9_2
.Ltmp279:
# %bb.1:
	.loc	1 0 9 is_stmt 0                 # crypto_generichash/blake2b/ref/blake2b-ref.c:0:9
	movq	blake2b_compress_avx2@GOTPCREL(%rip), %rax
	jmp	.LBB9_7
.LBB9_2:
.Ltmp280:
	.loc	1 423 9 is_stmt 1               # crypto_generichash/blake2b/ref/blake2b-ref.c:423:9
	callq	sodium_runtime_has_sse41@PLT
.Ltmp281:
	testl	%eax, %eax
	je	.LBB9_4
.Ltmp282:
# %bb.3:
	.loc	1 0 9 is_stmt 0                 # crypto_generichash/blake2b/ref/blake2b-ref.c:0:9
	movq	blake2b_compress_sse41@GOTPCREL(%rip), %rax
	jmp	.LBB9_7
.LBB9_4:
.Ltmp283:
	.loc	1 429 9 is_stmt 1               # crypto_generichash/blake2b/ref/blake2b-ref.c:429:9
	callq	sodium_runtime_has_ssse3@PLT
.Ltmp284:
	testl	%eax, %eax
.Ltmp285:
	.loc	1 0 0 is_stmt 0                 # crypto_generichash/blake2b/ref/blake2b-ref.c:0
	jne	.LBB9_5
# %bb.6:
	movq	blake2b_compress_ref@GOTPCREL(%rip), %rax
	jmp	.LBB9_7
.LBB9_5:
	movq	blake2b_compress_ssse3@GOTPCREL(%rip), %rax
.LBB9_7:
	movq	%rax, blake2b_compress(%rip)
	.loc	1 438 1 is_stmt 1               # crypto_generichash/blake2b/ref/blake2b-ref.c:438:1
	xorl	%eax, %eax
	.loc	1 438 1 epilogue_begin is_stmt 0 # crypto_generichash/blake2b/ref/blake2b-ref.c:438:1
	popq	%rcx
	.cfi_def_cfa_offset 8
	retq
.Ltmp286:
.Lfunc_end9:
	.size	blake2b_pick_best_implementation, .Lfunc_end9-blake2b_pick_best_implementation
	.cfi_endproc
	.file	11 "./include/sodium" "runtime.h"
                                        # -- End function
	.type	blake2b_compress,@object        # @blake2b_compress
	.data
	.p2align	3, 0x0
blake2b_compress:
	.quad	blake2b_compress_ref
	.size	blake2b_compress, 8

	.type	.L.str,@object                  # @.str
	.section	.rodata.str1.1,"aMS",@progbits,1
.L.str:
	.asciz	"S->buflen <= BLAKE2B_BLOCKBYTES"
	.size	.L.str, 32

	.type	.L.str.1,@object                # @.str.1
.L.str.1:
	.asciz	"crypto_generichash/blake2b/ref/blake2b-ref.c"
	.size	.L.str.1, 45

	.type	.L__PRETTY_FUNCTION__.blake2b_final,@object # @__PRETTY_FUNCTION__.blake2b_final
.L__PRETTY_FUNCTION__.blake2b_final:
	.asciz	"int blake2b_final(blake2b_state *, uint8_t *, uint8_t)"
	.size	.L__PRETTY_FUNCTION__.blake2b_final, 55

	.type	blake2b_IV,@object              # @blake2b_IV
	.section	.rodata,"a",@progbits
	.p2align	4, 0x0
blake2b_IV:
	.quad	7640891576956012808             # 0x6a09e667f3bcc908
	.quad	-4942790177534073029            # 0xbb67ae8584caa73b
	.quad	4354685564936845355             # 0x3c6ef372fe94f82b
	.quad	-6534734903238641935            # 0xa54ff53a5f1d36f1
	.quad	5840696475078001361             # 0x510e527fade682d1
	.quad	-7276294671716946913            # 0x9b05688c2b3e6c1f
	.quad	2270897969802886507             # 0x1f83d9abfb41bd6b
	.quad	6620516959819538809             # 0x5be0cd19137e2179
	.size	blake2b_IV, 64

	.section	".note.GNU-stack","",@progbits
	.addrsig
	.addrsig_sym blake2b_compress_avx2
	.addrsig_sym blake2b_compress_sse41
	.addrsig_sym blake2b_compress_ssse3
	.addrsig_sym blake2b_compress_ref
	.addrsig_sym __stack_chk_fail