	.file	"box_curve25519xsalsa20poly1305.c"
	.file	0 "/home/leizhenyuu/opt/Anonymous_Repo/libsodium_o2_attr_inline/src/libsodium" "box_curve25519xsalsa20poly1305.c" md5 0x332e85723491e6130088c3532ead87b1
	.file	1 "crypto_box/curve25519xsalsa20poly1305" "box_curve25519xsalsa20poly1305.c"
	.text
	.globl	crypto_box_curve25519xsalsa20poly1305_seed_keypair # -- Begin function crypto_box_curve25519xsalsa20poly1305_seed_keypair
	.p2align	4
	.type	crypto_box_curve25519xsalsa20poly1305_seed_keypair,@function
crypto_box_curve25519xsalsa20poly1305_seed_keypair: # @crypto_box_curve25519xsalsa20poly1305_seed_keypair
.Lfunc_begin0:
	.loc	1 15 0                          # crypto_box/curve25519xsalsa20poly1305/box_curve25519xsalsa20poly1305.c:15:0
	.cfi_startproc
# %bb.0:
	#DEBUG_VALUE: crypto_box_curve25519xsalsa20poly1305_seed_keypair:pk <- $rdi
	#DEBUG_VALUE: crypto_box_curve25519xsalsa20poly1305_seed_keypair:sk <- $rsi
	#DEBUG_VALUE: crypto_box_curve25519xsalsa20poly1305_seed_keypair:seed <- $rdx
	pushq	%r15
	.cfi_def_cfa_offset 16
	pushq	%r14
	.cfi_def_cfa_offset 24
	pushq	%rbx
	.cfi_def_cfa_offset 32
	subq	$80, %rsp
	.cfi_def_cfa_offset 112
	.cfi_offset %rbx, -32
	.cfi_offset %r14, -24
	.cfi_offset %r15, -16
	movq	%rdx, %rax
	movq	%rsi, %rbx
	movq	%rdi, %r14
	movq	%fs:40, %rcx
	movq	%rcx, 72(%rsp)
	movq	%rsp, %r15
.Ltmp0:
	.loc	1 18 5 prologue_end             # crypto_box/curve25519xsalsa20poly1305/box_curve25519xsalsa20poly1305.c:18:5
	movl	$32, %edx
.Ltmp1:
	#DEBUG_VALUE: crypto_box_curve25519xsalsa20poly1305_seed_keypair:seed <- $rax
	movq	%r15, %rdi
.Ltmp2:
	#DEBUG_VALUE: crypto_box_curve25519xsalsa20poly1305_seed_keypair:pk <- $r14
	movq	%rax, %rsi
.Ltmp3:
	#DEBUG_VALUE: crypto_box_curve25519xsalsa20poly1305_seed_keypair:sk <- $rbx
	callq	crypto_hash_sha512@PLT
.Ltmp4:
	#DEBUG_VALUE: crypto_box_curve25519xsalsa20poly1305_seed_keypair:seed <- [DW_OP_LLVM_entry_value 1] $rdx
	#DEBUG_VALUE: memcpy:__dest <- $rbx
	#DEBUG_VALUE: memcpy:__src <- $rsp
	#DEBUG_VALUE: memcpy:__len <- 32
	.file	2 "/usr/include/x86_64-linux-gnu/bits" "string_fortified.h"
	.loc	2 29 10                         # /usr/include/x86_64-linux-gnu/bits/string_fortified.h:29:10 @[ crypto_box/curve25519xsalsa20poly1305/box_curve25519xsalsa20poly1305.c:19:5 ]
	movaps	(%rsp), %xmm0
	movaps	16(%rsp), %xmm1
	movups	%xmm0, (%rbx)
	movups	%xmm1, 16(%rbx)
.Ltmp5:
	.loc	1 20 5                          # crypto_box/curve25519xsalsa20poly1305/box_curve25519xsalsa20poly1305.c:20:5
	movl	$64, %esi
	movq	%r15, %rdi
	callq	sodium_memzero@PLT
.Ltmp6:
	.loc	1 22 12                         # crypto_box/curve25519xsalsa20poly1305/box_curve25519xsalsa20poly1305.c:22:12
	movq	%r14, %rdi
	movq	%rbx, %rsi
	callq	crypto_scalarmult_curve25519_base@PLT
.Ltmp7:
	.loc	1 22 5 is_stmt 0                # crypto_box/curve25519xsalsa20poly1305/box_curve25519xsalsa20poly1305.c:22:5
	movq	%fs:40, %rcx
	cmpq	72(%rsp), %rcx
	jne	.LBB0_2
.Ltmp8:
# %bb.1:                                # %SP_return
	#DEBUG_VALUE: crypto_box_curve25519xsalsa20poly1305_seed_keypair:pk <- $r14
	#DEBUG_VALUE: crypto_box_curve25519xsalsa20poly1305_seed_keypair:sk <- $rbx
	#DEBUG_VALUE: crypto_box_curve25519xsalsa20poly1305_seed_keypair:seed <- [DW_OP_LLVM_entry_value 1] $rdx
	.loc	1 22 5 epilogue_begin           # crypto_box/curve25519xsalsa20poly1305/box_curve25519xsalsa20poly1305.c:22:5
	addq	$80, %rsp
	.cfi_def_cfa_offset 32
	popq	%rbx
.Ltmp9:
	#DEBUG_VALUE: crypto_box_curve25519xsalsa20poly1305_seed_keypair:sk <- [DW_OP_LLVM_entry_value 1] $rsi
	.cfi_def_cfa_offset 24
	popq	%r14
.Ltmp10:
	#DEBUG_VALUE: crypto_box_curve25519xsalsa20poly1305_seed_keypair:pk <- [DW_OP_LLVM_entry_value 1] $rdi
	.cfi_def_cfa_offset 16
	popq	%r15
	.cfi_def_cfa_offset 8
	retq
.Ltmp11:
.LBB0_2:                                # %CallStackCheckFailBlk
	.cfi_def_cfa_offset 112
	#DEBUG_VALUE: crypto_box_curve25519xsalsa20poly1305_seed_keypair:pk <- $r14
	#DEBUG_VALUE: crypto_box_curve25519xsalsa20poly1305_seed_keypair:sk <- $rbx
	#DEBUG_VALUE: crypto_box_curve25519xsalsa20poly1305_seed_keypair:seed <- [DW_OP_LLVM_entry_value 1] $rdx
	#DEBUG_VALUE: memcpy:__dest <- $rbx
	#DEBUG_VALUE: memcpy:__src <- $r15
	#DEBUG_VALUE: memcpy:__len <- 32
	.loc	1 0 0                           # crypto_box/curve25519xsalsa20poly1305/box_curve25519xsalsa20poly1305.c:0
	callq	__stack_chk_fail@PLT
.Ltmp12:
.Lfunc_end0:
	.size	crypto_box_curve25519xsalsa20poly1305_seed_keypair, .Lfunc_end0-crypto_box_curve25519xsalsa20poly1305_seed_keypair
	.cfi_endproc
	.file	3 "/home/leizhenyuu/opt/Anonymous_Repo" "llvm-project/build/lib/clang/21/include/__stddef_size_t.h"
	.file	4 "./include/sodium" "crypto_hash_sha512.h"
	.file	5 "./include/sodium" "utils.h"
	.file	6 "./include/sodium" "crypto_scalarmult_curve25519.h"
                                        # -- End function
	.globl	crypto_box_curve25519xsalsa20poly1305_keypair # -- Begin function crypto_box_curve25519xsalsa20poly1305_keypair
	.p2align	4
	.type	crypto_box_curve25519xsalsa20poly1305_keypair,@function
crypto_box_curve25519xsalsa20poly1305_keypair: # @crypto_box_curve25519xsalsa20poly1305_keypair
.Lfunc_begin1:
	.loc	1 28 0 is_stmt 1                # crypto_box/curve25519xsalsa20poly1305/box_curve25519xsalsa20poly1305.c:28:0
	.cfi_startproc
# %bb.0:
	#DEBUG_VALUE: crypto_box_curve25519xsalsa20poly1305_keypair:pk <- $rdi
	#DEBUG_VALUE: crypto_box_curve25519xsalsa20poly1305_keypair:sk <- $rsi
	pushq	%r14
	.cfi_def_cfa_offset 16
	pushq	%rbx
	.cfi_def_cfa_offset 24
	pushq	%rax
	.cfi_def_cfa_offset 32
	.cfi_offset %rbx, -24
	.cfi_offset %r14, -16
	movq	%rsi, %rbx
	movq	%rdi, %r14
.Ltmp13:
	.loc	1 29 5 prologue_end             # crypto_box/curve25519xsalsa20poly1305/box_curve25519xsalsa20poly1305.c:29:5
	movl	$32, %esi
.Ltmp14:
	#DEBUG_VALUE: crypto_box_curve25519xsalsa20poly1305_keypair:sk <- $rbx
	movq	%rbx, %rdi
.Ltmp15:
	#DEBUG_VALUE: crypto_box_curve25519xsalsa20poly1305_keypair:pk <- $r14
	callq	randombytes_buf@PLT
.Ltmp16:
	.loc	1 31 12                         # crypto_box/curve25519xsalsa20poly1305/box_curve25519xsalsa20poly1305.c:31:12
	movq	%r14, %rdi
	movq	%rbx, %rsi
	.loc	1 31 12 epilogue_begin is_stmt 0 # crypto_box/curve25519xsalsa20poly1305/box_curve25519xsalsa20poly1305.c:31:12
	addq	$8, %rsp
	.cfi_def_cfa_offset 24
	popq	%rbx
.Ltmp17:
	#DEBUG_VALUE: crypto_box_curve25519xsalsa20poly1305_keypair:sk <- $rsi
	.cfi_def_cfa_offset 16
	popq	%r14
.Ltmp18:
	#DEBUG_VALUE: crypto_box_curve25519xsalsa20poly1305_keypair:pk <- $rdi
	.cfi_def_cfa_offset 8
	jmp	crypto_scalarmult_curve25519_base@PLT # TAILCALL
.Ltmp19:
.Lfunc_end1:
	.size	crypto_box_curve25519xsalsa20poly1305_keypair, .Lfunc_end1-crypto_box_curve25519xsalsa20poly1305_keypair
	.cfi_endproc
	.file	7 "./include/sodium" "randombytes.h"
                                        # -- End function
	.globl	crypto_box_curve25519xsalsa20poly1305_beforenm # -- Begin function crypto_box_curve25519xsalsa20poly1305_beforenm
	.p2align	4
	.type	crypto_box_curve25519xsalsa20poly1305_beforenm,@function
crypto_box_curve25519xsalsa20poly1305_beforenm: # @crypto_box_curve25519xsalsa20poly1305_beforenm
.Lfunc_begin2:
	.loc	1 38 0 is_stmt 1                # crypto_box/curve25519xsalsa20poly1305/box_curve25519xsalsa20poly1305.c:38:0
	.cfi_startproc
# %bb.0:
	#DEBUG_VALUE: crypto_box_curve25519xsalsa20poly1305_beforenm:k <- $rdi
	#DEBUG_VALUE: crypto_box_curve25519xsalsa20poly1305_beforenm:pk <- $rsi
	#DEBUG_VALUE: crypto_box_curve25519xsalsa20poly1305_beforenm:sk <- $rdx
	pushq	%rbx
	.cfi_def_cfa_offset 16
	subq	$48, %rsp
	.cfi_def_cfa_offset 64
	.cfi_offset %rbx, -16
	movq	%rsi, %rax
	movq	%rdi, %rbx
	movq	%fs:40, %rcx
	movq	%rcx, 40(%rsp)
	movq	%rsp, %rdi
.Ltmp20:
	#DEBUG_VALUE: crypto_box_curve25519xsalsa20poly1305_beforenm:k <- $rbx
	.loc	1 42 9 prologue_end             # crypto_box/curve25519xsalsa20poly1305/box_curve25519xsalsa20poly1305.c:42:9
	movq	%rdx, %rsi
.Ltmp21:
	#DEBUG_VALUE: crypto_box_curve25519xsalsa20poly1305_beforenm:pk <- $rax
	movq	%rax, %rdx
.Ltmp22:
	#DEBUG_VALUE: crypto_box_curve25519xsalsa20poly1305_beforenm:sk <- $rsi
	callq	crypto_scalarmult_curve25519@PLT
.Ltmp23:
	#DEBUG_VALUE: crypto_box_curve25519xsalsa20poly1305_beforenm:sk <- [DW_OP_LLVM_entry_value 1] $rdx
	#DEBUG_VALUE: crypto_box_curve25519xsalsa20poly1305_beforenm:pk <- [DW_OP_LLVM_entry_value 1] $rsi
	movl	%eax, %ecx
	movl	$-1, %eax
	.loc	1 42 49 is_stmt 0               # crypto_box/curve25519xsalsa20poly1305/box_curve25519xsalsa20poly1305.c:42:49
	testl	%ecx, %ecx
	jne	.LBB2_2
.Ltmp24:
# %bb.1:
	#DEBUG_VALUE: crypto_box_curve25519xsalsa20poly1305_beforenm:k <- $rbx
	#DEBUG_VALUE: crypto_box_curve25519xsalsa20poly1305_beforenm:pk <- [DW_OP_LLVM_entry_value 1] $rsi
	#DEBUG_VALUE: crypto_box_curve25519xsalsa20poly1305_beforenm:sk <- [DW_OP_LLVM_entry_value 1] $rdx
	.loc	1 45 12 is_stmt 1               # crypto_box/curve25519xsalsa20poly1305/box_curve25519xsalsa20poly1305.c:45:12
	leaq	crypto_box_curve25519xsalsa20poly1305_beforenm.zero(%rip), %rsi
	movq	%rsp, %rdx
	movq	%rbx, %rdi
	xorl	%ecx, %ecx
	callq	crypto_core_hsalsa20@PLT
.Ltmp25:
.LBB2_2:
	#DEBUG_VALUE: crypto_box_curve25519xsalsa20poly1305_beforenm:k <- $rbx
	#DEBUG_VALUE: crypto_box_curve25519xsalsa20poly1305_beforenm:pk <- [DW_OP_LLVM_entry_value 1] $rsi
	#DEBUG_VALUE: crypto_box_curve25519xsalsa20poly1305_beforenm:sk <- [DW_OP_LLVM_entry_value 1] $rdx
	.loc	1 46 1                          # crypto_box/curve25519xsalsa20poly1305/box_curve25519xsalsa20poly1305.c:46:1
	movq	%fs:40, %rcx
	cmpq	40(%rsp), %rcx
	jne	.LBB2_4
.Ltmp26:
# %bb.3:                                # %SP_return
	#DEBUG_VALUE: crypto_box_curve25519xsalsa20poly1305_beforenm:k <- $rbx
	#DEBUG_VALUE: crypto_box_curve25519xsalsa20poly1305_beforenm:pk <- [DW_OP_LLVM_entry_value 1] $rsi
	#DEBUG_VALUE: crypto_box_curve25519xsalsa20poly1305_beforenm:sk <- [DW_OP_LLVM_entry_value 1] $rdx
	.loc	1 46 1 epilogue_begin is_stmt 0 # crypto_box/curve25519xsalsa20poly1305/box_curve25519xsalsa20poly1305.c:46:1
	addq	$48, %rsp
	.cfi_def_cfa_offset 16
	popq	%rbx
.Ltmp27:
	#DEBUG_VALUE: crypto_box_curve25519xsalsa20poly1305_beforenm:k <- [DW_OP_LLVM_entry_value 1] $rdi
	.cfi_def_cfa_offset 8
	retq
.Ltmp28:
.LBB2_4:                                # %CallStackCheckFailBlk
	.cfi_def_cfa_offset 64
	#DEBUG_VALUE: crypto_box_curve25519xsalsa20poly1305_beforenm:k <- $rbx
	#DEBUG_VALUE: crypto_box_curve25519xsalsa20poly1305_beforenm:pk <- [DW_OP_LLVM_entry_value 1] $rsi
	#DEBUG_VALUE: crypto_box_curve25519xsalsa20poly1305_beforenm:sk <- [DW_OP_LLVM_entry_value 1] $rdx
	.loc	1 0 0                           # crypto_box/curve25519xsalsa20poly1305/box_curve25519xsalsa20poly1305.c:0
	callq	__stack_chk_fail@PLT
.Ltmp29:
.Lfunc_end2:
	.size	crypto_box_curve25519xsalsa20poly1305_beforenm, .Lfunc_end2-crypto_box_curve25519xsalsa20poly1305_beforenm
	.cfi_endproc
	.file	8 "./include/sodium" "crypto_core_hsalsa20.h"
                                        # -- End function
	.globl	crypto_box_curve25519xsalsa20poly1305_afternm # -- Begin function crypto_box_curve25519xsalsa20poly1305_afternm
	.p2align	4
	.type	crypto_box_curve25519xsalsa20poly1305_afternm,@function
crypto_box_curve25519xsalsa20poly1305_afternm: # @crypto_box_curve25519xsalsa20poly1305_afternm
.Lfunc_begin3:
	.cfi_startproc
# %bb.0:
	#DEBUG_VALUE: crypto_box_curve25519xsalsa20poly1305_afternm:c <- $rdi
	#DEBUG_VALUE: crypto_box_curve25519xsalsa20poly1305_afternm:m <- $rsi
	#DEBUG_VALUE: crypto_box_curve25519xsalsa20poly1305_afternm:mlen <- $rdx
	#DEBUG_VALUE: crypto_box_curve25519xsalsa20poly1305_afternm:n <- $rcx
	#DEBUG_VALUE: crypto_box_curve25519xsalsa20poly1305_afternm:k <- $r8
	.loc	1 55 12 prologue_end is_stmt 1  # crypto_box/curve25519xsalsa20poly1305/box_curve25519xsalsa20poly1305.c:55:12
	jmp	crypto_secretbox_xsalsa20poly1305@PLT # TAILCALL
.Ltmp30:
.Lfunc_end3:
	.size	crypto_box_curve25519xsalsa20poly1305_afternm, .Lfunc_end3-crypto_box_curve25519xsalsa20poly1305_afternm
	.cfi_endproc
	.file	9 "./include/sodium" "crypto_secretbox_xsalsa20poly1305.h"
                                        # -- End function
	.globl	crypto_box_curve25519xsalsa20poly1305_open_afternm # -- Begin function crypto_box_curve25519xsalsa20poly1305_open_afternm
	.p2align	4
	.type	crypto_box_curve25519xsalsa20poly1305_open_afternm,@function
crypto_box_curve25519xsalsa20poly1305_open_afternm: # @crypto_box_curve25519xsalsa20poly1305_open_afternm
.Lfunc_begin4:
	.cfi_startproc
# %bb.0:
	#DEBUG_VALUE: crypto_box_curve25519xsalsa20poly1305_open_afternm:m <- $rdi
	#DEBUG_VALUE: crypto_box_curve25519xsalsa20poly1305_open_afternm:c <- $rsi
	#DEBUG_VALUE: crypto_box_curve25519xsalsa20poly1305_open_afternm:clen <- $rdx
	#DEBUG_VALUE: crypto_box_curve25519xsalsa20poly1305_open_afternm:n <- $rcx
	#DEBUG_VALUE: crypto_box_curve25519xsalsa20poly1305_open_afternm:k <- $r8
	.loc	1 65 12 prologue_end            # crypto_box/curve25519xsalsa20poly1305/box_curve25519xsalsa20poly1305.c:65:12
	jmp	crypto_secretbox_xsalsa20poly1305_open@PLT # TAILCALL
.Ltmp31:
.Lfunc_end4:
	.size	crypto_box_curve25519xsalsa20poly1305_open_afternm, .Lfunc_end4-crypto_box_curve25519xsalsa20poly1305_open_afternm
	.cfi_endproc
                                        # -- End function
	.globl	crypto_box_curve25519xsalsa20poly1305 # -- Begin function crypto_box_curve25519xsalsa20poly1305
	.p2align	4
	.type	crypto_box_curve25519xsalsa20poly1305,@function
crypto_box_curve25519xsalsa20poly1305:  # @crypto_box_curve25519xsalsa20poly1305
.Lfunc_begin5:
	.loc	1 74 0                          # crypto_box/curve25519xsalsa20poly1305/box_curve25519xsalsa20poly1305.c:74:0
	.cfi_startproc
# %bb.0:
	#DEBUG_VALUE: crypto_box_curve25519xsalsa20poly1305:c <- $rdi
	#DEBUG_VALUE: crypto_box_curve25519xsalsa20poly1305:m <- $rsi
	#DEBUG_VALUE: crypto_box_curve25519xsalsa20poly1305:mlen <- $rdx
	#DEBUG_VALUE: crypto_box_curve25519xsalsa20poly1305:n <- $rcx
	#DEBUG_VALUE: crypto_box_curve25519xsalsa20poly1305:pk <- $r8
	#DEBUG_VALUE: crypto_box_curve25519xsalsa20poly1305:sk <- $r9
	pushq	%r15
	.cfi_def_cfa_offset 16
	pushq	%r14
	.cfi_def_cfa_offset 24
	pushq	%r13
	.cfi_def_cfa_offset 32
	pushq	%r12
	.cfi_def_cfa_offset 40
	pushq	%rbx
	.cfi_def_cfa_offset 48
	subq	$80, %rsp
	.cfi_def_cfa_offset 128
	.cfi_offset %rbx, -48
	.cfi_offset %r12, -40
	.cfi_offset %r13, -32
	.cfi_offset %r14, -24
	.cfi_offset %r15, -16
	movq	%rcx, %rbx
	movq	%rdx, %r14
	movq	%rsi, %r15
	movq	%rdi, %r12
	movq	%fs:40, %rax
	movq	%rax, 72(%rsp)
.Ltmp32:
	#DEBUG_VALUE: crypto_box_curve25519xsalsa20poly1305_beforenm:s <- [DW_OP_plus_uconst 32, DW_OP_deref] $rsp
	#DEBUG_VALUE: crypto_box_curve25519xsalsa20poly1305_beforenm:k <- $rsp
	#DEBUG_VALUE: crypto_box_curve25519xsalsa20poly1305_beforenm:pk <- $r8
	#DEBUG_VALUE: crypto_box_curve25519xsalsa20poly1305_beforenm:sk <- $r9
	leaq	32(%rsp), %rdi
.Ltmp33:
	#DEBUG_VALUE: crypto_box_curve25519xsalsa20poly1305:c <- $r12
	.loc	1 42 9 prologue_end             # crypto_box/curve25519xsalsa20poly1305/box_curve25519xsalsa20poly1305.c:42:9 @[ crypto_box/curve25519xsalsa20poly1305/box_curve25519xsalsa20poly1305.c:78:9 ]
	movq	%r9, %rsi
.Ltmp34:
	#DEBUG_VALUE: crypto_box_curve25519xsalsa20poly1305:m <- $r15
	movq	%r8, %rdx
.Ltmp35:
	#DEBUG_VALUE: crypto_box_curve25519xsalsa20poly1305:mlen <- $r14
	callq	crypto_scalarmult_curve25519@PLT
.Ltmp36:
	#DEBUG_VALUE: crypto_box_curve25519xsalsa20poly1305:sk <- [DW_OP_LLVM_entry_value 1] $r9
	#DEBUG_VALUE: crypto_box_curve25519xsalsa20poly1305:pk <- [DW_OP_LLVM_entry_value 1] $r8
	#DEBUG_VALUE: crypto_box_curve25519xsalsa20poly1305:n <- $rbx
	.loc	1 42 49 is_stmt 0               # crypto_box/curve25519xsalsa20poly1305/box_curve25519xsalsa20poly1305.c:42:49 @[ crypto_box/curve25519xsalsa20poly1305/box_curve25519xsalsa20poly1305.c:78:9 ]
	testl	%eax, %eax
	je	.LBB5_2
.Ltmp37:
# %bb.1:                                # %crypto_box_curve25519xsalsa20poly1305_beforenm.exit.thread
	#DEBUG_VALUE: crypto_box_curve25519xsalsa20poly1305:c <- $r12
	#DEBUG_VALUE: crypto_box_curve25519xsalsa20poly1305:m <- $r15
	#DEBUG_VALUE: crypto_box_curve25519xsalsa20poly1305:mlen <- $r14
	#DEBUG_VALUE: crypto_box_curve25519xsalsa20poly1305:n <- $rbx
	#DEBUG_VALUE: crypto_box_curve25519xsalsa20poly1305:pk <- [DW_OP_LLVM_entry_value 1] $r8
	#DEBUG_VALUE: crypto_box_curve25519xsalsa20poly1305:sk <- [DW_OP_LLVM_entry_value 1] $r9
	.loc	1 0 49                          # crypto_box/curve25519xsalsa20poly1305/box_curve25519xsalsa20poly1305.c:0:49
	movl	$-1, %eax
	.loc	1 78 67 is_stmt 1               # crypto_box/curve25519xsalsa20poly1305/box_curve25519xsalsa20poly1305.c:78:67
	jmp	.LBB5_4
.Ltmp38:
.LBB5_2:                                # %crypto_box_curve25519xsalsa20poly1305_beforenm.exit
	#DEBUG_VALUE: crypto_box_curve25519xsalsa20poly1305:c <- $r12
	#DEBUG_VALUE: crypto_box_curve25519xsalsa20poly1305:m <- $r15
	#DEBUG_VALUE: crypto_box_curve25519xsalsa20poly1305:mlen <- $r14
	#DEBUG_VALUE: crypto_box_curve25519xsalsa20poly1305:n <- $rbx
	#DEBUG_VALUE: crypto_box_curve25519xsalsa20poly1305:pk <- [DW_OP_LLVM_entry_value 1] $r8
	#DEBUG_VALUE: crypto_box_curve25519xsalsa20poly1305:sk <- [DW_OP_LLVM_entry_value 1] $r9
	#DEBUG_VALUE: crypto_box_curve25519xsalsa20poly1305_beforenm:s <- [DW_OP_plus_uconst 32, DW_OP_deref] $rsp
	#DEBUG_VALUE: crypto_box_curve25519xsalsa20poly1305_beforenm:k <- $rsp
	.loc	1 45 12                         # crypto_box/curve25519xsalsa20poly1305/box_curve25519xsalsa20poly1305.c:45:12 @[ crypto_box/curve25519xsalsa20poly1305/box_curve25519xsalsa20poly1305.c:78:9 ]
	leaq	crypto_box_curve25519xsalsa20poly1305_beforenm.zero(%rip), %rsi
	movq	%rsp, %rdi
	leaq	32(%rsp), %rdx
	xorl	%ecx, %ecx
	callq	crypto_core_hsalsa20@PLT
.Ltmp39:
	movl	%eax, %ecx
	movl	$-1, %eax
.Ltmp40:
	.loc	1 78 67                         # crypto_box/curve25519xsalsa20poly1305/box_curve25519xsalsa20poly1305.c:78:67
	testl	%ecx, %ecx
	jne	.LBB5_4
.Ltmp41:
# %bb.3:
	#DEBUG_VALUE: crypto_box_curve25519xsalsa20poly1305:c <- $r12
	#DEBUG_VALUE: crypto_box_curve25519xsalsa20poly1305:m <- $r15
	#DEBUG_VALUE: crypto_box_curve25519xsalsa20poly1305:mlen <- $r14
	#DEBUG_VALUE: crypto_box_curve25519xsalsa20poly1305:n <- $rbx
	#DEBUG_VALUE: crypto_box_curve25519xsalsa20poly1305:pk <- [DW_OP_LLVM_entry_value 1] $r8
	#DEBUG_VALUE: crypto_box_curve25519xsalsa20poly1305:sk <- [DW_OP_LLVM_entry_value 1] $r9
	#DEBUG_VALUE: crypto_box_curve25519xsalsa20poly1305_afternm:c <- $r12
	#DEBUG_VALUE: crypto_box_curve25519xsalsa20poly1305_afternm:m <- $r15
	#DEBUG_VALUE: crypto_box_curve25519xsalsa20poly1305_afternm:mlen <- $r14
	#DEBUG_VALUE: crypto_box_curve25519xsalsa20poly1305_afternm:n <- $rbx
	#DEBUG_VALUE: crypto_box_curve25519xsalsa20poly1305_afternm:k <- $rsp
	.loc	1 0 67 is_stmt 0                # crypto_box/curve25519xsalsa20poly1305/box_curve25519xsalsa20poly1305.c:0:67
	movq	%rsp, %r13
.Ltmp42:
	.loc	1 55 12 is_stmt 1               # crypto_box/curve25519xsalsa20poly1305/box_curve25519xsalsa20poly1305.c:55:12 @[ crypto_box/curve25519xsalsa20poly1305/box_curve25519xsalsa20poly1305.c:81:11 ]
	movq	%r12, %rdi
	movq	%r15, %rsi
	movq	%r14, %rdx
	movq	%rbx, %rcx
	movq	%r13, %r8
	callq	crypto_secretbox_xsalsa20poly1305@PLT
.Ltmp43:
	movl	%eax, %ebx
.Ltmp44:
	#DEBUG_VALUE: crypto_box_curve25519xsalsa20poly1305:n <- [DW_OP_LLVM_entry_value 1] $rcx
	#DEBUG_VALUE: crypto_box_curve25519xsalsa20poly1305:ret <- $ebx
	.loc	1 82 5                          # crypto_box/curve25519xsalsa20poly1305/box_curve25519xsalsa20poly1305.c:82:5
	movl	$32, %esi
	movq	%r13, %rdi
	callq	sodium_memzero@PLT
.Ltmp45:
	.loc	1 0 5 is_stmt 0                 # crypto_box/curve25519xsalsa20poly1305/box_curve25519xsalsa20poly1305.c:0:5
	movl	%ebx, %eax
.Ltmp46:
.LBB5_4:
	#DEBUG_VALUE: crypto_box_curve25519xsalsa20poly1305:c <- $r12
	#DEBUG_VALUE: crypto_box_curve25519xsalsa20poly1305:m <- $r15
	#DEBUG_VALUE: crypto_box_curve25519xsalsa20poly1305:mlen <- $r14
	#DEBUG_VALUE: crypto_box_curve25519xsalsa20poly1305:n <- [DW_OP_LLVM_entry_value 1] $rcx
	#DEBUG_VALUE: crypto_box_curve25519xsalsa20poly1305:pk <- [DW_OP_LLVM_entry_value 1] $r8
	#DEBUG_VALUE: crypto_box_curve25519xsalsa20poly1305:sk <- [DW_OP_LLVM_entry_value 1] $r9
	.loc	1 85 1 is_stmt 1                # crypto_box/curve25519xsalsa20poly1305/box_curve25519xsalsa20poly1305.c:85:1
	movq	%fs:40, %rcx
	cmpq	72(%rsp), %rcx
	jne	.LBB5_6
.Ltmp47:
# %bb.5:                                # %SP_return
	#DEBUG_VALUE: crypto_box_curve25519xsalsa20poly1305:c <- $r12
	#DEBUG_VALUE: crypto_box_curve25519xsalsa20poly1305:m <- $r15
	#DEBUG_VALUE: crypto_box_curve25519xsalsa20poly1305:mlen <- $r14
	#DEBUG_VALUE: crypto_box_curve25519xsalsa20poly1305:n <- [DW_OP_LLVM_entry_value 1] $rcx
	#DEBUG_VALUE: crypto_box_curve25519xsalsa20poly1305:pk <- [DW_OP_LLVM_entry_value 1] $r8
	#DEBUG_VALUE: crypto_box_curve25519xsalsa20poly1305:sk <- [DW_OP_LLVM_entry_value 1] $r9
	.loc	1 85 1 epilogue_begin is_stmt 0 # crypto_box/curve25519xsalsa20poly1305/box_curve25519xsalsa20poly1305.c:85:1
	addq	$80, %rsp
	.cfi_def_cfa_offset 48
	popq	%rbx
	.cfi_def_cfa_offset 40
	popq	%r12
.Ltmp48:
	#DEBUG_VALUE: crypto_box_curve25519xsalsa20poly1305:c <- [DW_OP_LLVM_entry_value 1] $rdi
	.cfi_def_cfa_offset 32
	popq	%r13
	.cfi_def_cfa_offset 24
	popq	%r14
.Ltmp49:
	#DEBUG_VALUE: crypto_box_curve25519xsalsa20poly1305:mlen <- [DW_OP_LLVM_entry_value 1] $rdx
	.cfi_def_cfa_offset 16
	popq	%r15
.Ltmp50:
	#DEBUG_VALUE: crypto_box_curve25519xsalsa20poly1305:m <- [DW_OP_LLVM_entry_value 1] $rsi
	.cfi_def_cfa_offset 8
	retq
.Ltmp51:
.LBB5_6:                                # %CallStackCheckFailBlk
	.cfi_def_cfa_offset 128
	#DEBUG_VALUE: crypto_box_curve25519xsalsa20poly1305:c <- $r12
	#DEBUG_VALUE: crypto_box_curve25519xsalsa20poly1305:m <- $r15
	#DEBUG_VALUE: crypto_box_curve25519xsalsa20poly1305:mlen <- $r14
	#DEBUG_VALUE: crypto_box_curve25519xsalsa20poly1305:n <- [DW_OP_LLVM_entry_value 1] $rcx
	#DEBUG_VALUE: crypto_box_curve25519xsalsa20poly1305:pk <- [DW_OP_LLVM_entry_value 1] $r8
	#DEBUG_VALUE: crypto_box_curve25519xsalsa20poly1305:sk <- [DW_OP_LLVM_entry_value 1] $r9
	.loc	1 0 0                           # crypto_box/curve25519xsalsa20poly1305/box_curve25519xsalsa20poly1305.c:0
	callq	__stack_chk_fail@PLT
.Ltmp52:
.Lfunc_end5:
	.size	crypto_box_curve25519xsalsa20poly1305, .Lfunc_end5-crypto_box_curve25519xsalsa20poly1305
	.cfi_endproc
                                        # -- End function
	.globl	crypto_box_curve25519xsalsa20poly1305_open # -- Begin function crypto_box_curve25519xsalsa20poly1305_open
	.p2align	4
	.type	crypto_box_curve25519xsalsa20poly1305_open,@function
crypto_box_curve25519xsalsa20poly1305_open: # @crypto_box_curve25519xsalsa20poly1305_open
.Lfunc_begin6:
	.loc	1 91 0 is_stmt 1                # crypto_box/curve25519xsalsa20poly1305/box_curve25519xsalsa20poly1305.c:91:0
	.cfi_startproc
# %bb.0:
	#DEBUG_VALUE: crypto_box_curve25519xsalsa20poly1305_open:m <- $rdi
	#DEBUG_VALUE: crypto_box_curve25519xsalsa20poly1305_open:c <- $rsi
	#DEBUG_VALUE: crypto_box_curve25519xsalsa20poly1305_open:clen <- $rdx
	#DEBUG_VALUE: crypto_box_curve25519xsalsa20poly1305_open:n <- $rcx
	#DEBUG_VALUE: crypto_box_curve25519xsalsa20poly1305_open:pk <- $r8
	#DEBUG_VALUE: crypto_box_curve25519xsalsa20poly1305_open:sk <- $r9
	pushq	%r15
	.cfi_def_cfa_offset 16
	pushq	%r14
	.cfi_def_cfa_offset 24
	pushq	%r13
	.cfi_def_cfa_offset 32
	pushq	%r12
	.cfi_def_cfa_offset 40
	pushq	%rbx
	.cfi_def_cfa_offset 48
	subq	$80, %rsp
	.cfi_def_cfa_offset 128
	.cfi_offset %rbx, -48
	.cfi_offset %r12, -40
	.cfi_offset %r13, -32
	.cfi_offset %r14, -24
	.cfi_offset %r15, -16
	movq	%rcx, %rbx
	movq	%rdx, %r14
	movq	%rsi, %r15
	movq	%rdi, %r12
	movq	%fs:40, %rax
	movq	%rax, 72(%rsp)
.Ltmp53:
	#DEBUG_VALUE: crypto_box_curve25519xsalsa20poly1305_beforenm:s <- [DW_OP_plus_uconst 32, DW_OP_deref] $rsp
	#DEBUG_VALUE: crypto_box_curve25519xsalsa20poly1305_beforenm:k <- $rsp
	#DEBUG_VALUE: crypto_box_curve25519xsalsa20poly1305_beforenm:pk <- $r8
	#DEBUG_VALUE: crypto_box_curve25519xsalsa20poly1305_beforenm:sk <- $r9
	leaq	32(%rsp), %rdi
.Ltmp54:
	#DEBUG_VALUE: crypto_box_curve25519xsalsa20poly1305_open:m <- $r12
	.loc	1 42 9 prologue_end             # crypto_box/curve25519xsalsa20poly1305/box_curve25519xsalsa20poly1305.c:42:9 @[ crypto_box/curve25519xsalsa20poly1305/box_curve25519xsalsa20poly1305.c:95:9 ]
	movq	%r9, %rsi
.Ltmp55:
	#DEBUG_VALUE: crypto_box_curve25519xsalsa20poly1305_open:c <- $r15
	movq	%r8, %rdx
.Ltmp56:
	#DEBUG_VALUE: crypto_box_curve25519xsalsa20poly1305_open:clen <- $r14
	callq	crypto_scalarmult_curve25519@PLT
.Ltmp57:
	#DEBUG_VALUE: crypto_box_curve25519xsalsa20poly1305_open:sk <- [DW_OP_LLVM_entry_value 1] $r9
	#DEBUG_VALUE: crypto_box_curve25519xsalsa20poly1305_open:pk <- [DW_OP_LLVM_entry_value 1] $r8
	#DEBUG_VALUE: crypto_box_curve25519xsalsa20poly1305_open:n <- $rbx
	.loc	1 42 49 is_stmt 0               # crypto_box/curve25519xsalsa20poly1305/box_curve25519xsalsa20poly1305.c:42:49 @[ crypto_box/curve25519xsalsa20poly1305/box_curve25519xsalsa20poly1305.c:95:9 ]
	testl	%eax, %eax
	je	.LBB6_2
.Ltmp58:
# %bb.1:                                # %crypto_box_curve25519xsalsa20poly1305_beforenm.exit.thread
	#DEBUG_VALUE: crypto_box_curve25519xsalsa20poly1305_open:m <- $r12
	#DEBUG_VALUE: crypto_box_curve25519xsalsa20poly1305_open:c <- $r15
	#DEBUG_VALUE: crypto_box_curve25519xsalsa20poly1305_open:clen <- $r14
	#DEBUG_VALUE: crypto_box_curve25519xsalsa20poly1305_open:n <- $rbx
	#DEBUG_VALUE: crypto_box_curve25519xsalsa20poly1305_open:pk <- [DW_OP_LLVM_entry_value 1] $r8
	#DEBUG_VALUE: crypto_box_curve25519xsalsa20poly1305_open:sk <- [DW_OP_LLVM_entry_value 1] $r9
	.loc	1 0 49                          # crypto_box/curve25519xsalsa20poly1305/box_curve25519xsalsa20poly1305.c:0:49
	movl	$-1, %eax
	.loc	1 95 67 is_stmt 1               # crypto_box/curve25519xsalsa20poly1305/box_curve25519xsalsa20poly1305.c:95:67
	jmp	.LBB6_4
.Ltmp59:
.LBB6_2:                                # %crypto_box_curve25519xsalsa20poly1305_beforenm.exit
	#DEBUG_VALUE: crypto_box_curve25519xsalsa20poly1305_open:m <- $r12
	#DEBUG_VALUE: crypto_box_curve25519xsalsa20poly1305_open:c <- $r15
	#DEBUG_VALUE: crypto_box_curve25519xsalsa20poly1305_open:clen <- $r14
	#DEBUG_VALUE: crypto_box_curve25519xsalsa20poly1305_open:n <- $rbx
	#DEBUG_VALUE: crypto_box_curve25519xsalsa20poly1305_open:pk <- [DW_OP_LLVM_entry_value 1] $r8
	#DEBUG_VALUE: crypto_box_curve25519xsalsa20poly1305_open:sk <- [DW_OP_LLVM_entry_value 1] $r9
	#DEBUG_VALUE: crypto_box_curve25519xsalsa20poly1305_beforenm:s <- [DW_OP_plus_uconst 32, DW_OP_deref] $rsp
	#DEBUG_VALUE: crypto_box_curve25519xsalsa20poly1305_beforenm:k <- $rsp
	.loc	1 45 12                         # crypto_box/curve25519xsalsa20poly1305/box_curve25519xsalsa20poly1305.c:45:12 @[ crypto_box/curve25519xsalsa20poly1305/box_curve25519xsalsa20poly1305.c:95:9 ]
	leaq	crypto_box_curve25519xsalsa20poly1305_beforenm.zero(%rip), %rsi
	movq	%rsp, %rdi
	leaq	32(%rsp), %rdx
	xorl	%ecx, %ecx
	callq	crypto_core_hsalsa20@PLT
.Ltmp60:
	movl	%eax, %ecx
	movl	$-1, %eax
.Ltmp61:
	.loc	1 95 67                         # crypto_box/curve25519xsalsa20poly1305/box_curve25519xsalsa20poly1305.c:95:67
	testl	%ecx, %ecx
	jne	.LBB6_4
.Ltmp62:
# %bb.3:
	#DEBUG_VALUE: crypto_box_curve25519xsalsa20poly1305_open:m <- $r12
	#DEBUG_VALUE: crypto_box_curve25519xsalsa20poly1305_open:c <- $r15
	#DEBUG_VALUE: crypto_box_curve25519xsalsa20poly1305_open:clen <- $r14
	#DEBUG_VALUE: crypto_box_curve25519xsalsa20poly1305_open:n <- $rbx
	#DEBUG_VALUE: crypto_box_curve25519xsalsa20poly1305_open:pk <- [DW_OP_LLVM_entry_value 1] $r8
	#DEBUG_VALUE: crypto_box_curve25519xsalsa20poly1305_open:sk <- [DW_OP_LLVM_entry_value 1] $r9
	#DEBUG_VALUE: crypto_box_curve25519xsalsa20poly1305_open_afternm:m <- $r12
	#DEBUG_VALUE: crypto_box_curve25519xsalsa20poly1305_open_afternm:c <- $r15
	#DEBUG_VALUE: crypto_box_curve25519xsalsa20poly1305_open_afternm:clen <- $r14
	#DEBUG_VALUE: crypto_box_curve25519xsalsa20poly1305_open_afternm:n <- $rbx
	#DEBUG_VALUE: crypto_box_curve25519xsalsa20poly1305_open_afternm:k <- $rsp
	.loc	1 0 67 is_stmt 0                # crypto_box/curve25519xsalsa20poly1305/box_curve25519xsalsa20poly1305.c:0:67
	movq	%rsp, %r13
.Ltmp63:
	.loc	1 65 12 is_stmt 1               # crypto_box/curve25519xsalsa20poly1305/box_curve25519xsalsa20poly1305.c:65:12 @[ crypto_box/curve25519xsalsa20poly1305/box_curve25519xsalsa20poly1305.c:98:11 ]
	movq	%r12, %rdi
	movq	%r15, %rsi
	movq	%r14, %rdx
	movq	%rbx, %rcx
	movq	%r13, %r8
	callq	crypto_secretbox_xsalsa20poly1305_open@PLT
.Ltmp64:
	movl	%eax, %ebx
.Ltmp65:
	#DEBUG_VALUE: crypto_box_curve25519xsalsa20poly1305_open:n <- [DW_OP_LLVM_entry_value 1] $rcx
	#DEBUG_VALUE: crypto_box_curve25519xsalsa20poly1305_open:ret <- $ebx
	.loc	1 99 5                          # crypto_box/curve25519xsalsa20poly1305/box_curve25519xsalsa20poly1305.c:99:5
	movl	$32, %esi
	movq	%r13, %rdi
	callq	sodium_memzero@PLT
.Ltmp66:
	.loc	1 0 5 is_stmt 0                 # crypto_box/curve25519xsalsa20poly1305/box_curve25519xsalsa20poly1305.c:0:5
	movl	%ebx, %eax
.Ltmp67:
.LBB6_4:
	#DEBUG_VALUE: crypto_box_curve25519xsalsa20poly1305_open:m <- $r12
	#DEBUG_VALUE: crypto_box_curve25519xsalsa20poly1305_open:c <- $r15
	#DEBUG_VALUE: crypto_box_curve25519xsalsa20poly1305_open:clen <- $r14
	#DEBUG_VALUE: crypto_box_curve25519xsalsa20poly1305_open:n <- [DW_OP_LLVM_entry_value 1] $rcx
	#DEBUG_VALUE: crypto_box_curve25519xsalsa20poly1305_open:pk <- [DW_OP_LLVM_entry_value 1] $r8
	#DEBUG_VALUE: crypto_box_curve25519xsalsa20poly1305_open:sk <- [DW_OP_LLVM_entry_value 1] $r9
	.loc	1 102 1 is_stmt 1               # crypto_box/curve25519xsalsa20poly1305/box_curve25519xsalsa20poly1305.c:102:1
	movq	%fs:40, %rcx
	cmpq	72(%rsp), %rcx
	jne	.LBB6_6
.Ltmp68:
# %bb.5:                                # %SP_return
	#DEBUG_VALUE: crypto_box_curve25519xsalsa20poly1305_open:m <- $r12
	#DEBUG_VALUE: crypto_box_curve25519xsalsa20poly1305_open:c <- $r15
	#DEBUG_VALUE: crypto_box_curve25519xsalsa20poly1305_open:clen <- $r14
	#DEBUG_VALUE: crypto_box_curve25519xsalsa20poly1305_open:n <- [DW_OP_LLVM_entry_value 1] $rcx
	#DEBUG_VALUE: crypto_box_curve25519xsalsa20poly1305_open:pk <- [DW_OP_LLVM_entry_value 1] $r8
	#DEBUG_VALUE: crypto_box_curve25519xsalsa20poly1305_open:sk <- [DW_OP_LLVM_entry_value 1] $r9
	.loc	1 102 1 epilogue_begin is_stmt 0 # crypto_box/curve25519xsalsa20poly1305/box_curve25519xsalsa20poly1305.c:102:1
	addq	$80, %rsp
	.cfi_def_cfa_offset 48
	popq	%rbx
	.cfi_def_cfa_offset 40
	popq	%r12
.Ltmp69:
	#DEBUG_VALUE: crypto_box_curve25519xsalsa20poly1305_open:m <- [DW_OP_LLVM_entry_value 1] $rdi
	.cfi_def_cfa_offset 32
	popq	%r13
	.cfi_def_cfa_offset 24
	popq	%r14
.Ltmp70:
	#DEBUG_VALUE: crypto_box_curve25519xsalsa20poly1305_open:clen <- [DW_OP_LLVM_entry_value 1] $rdx
	.cfi_def_cfa_offset 16
	popq	%r15
.Ltmp71:
	#DEBUG_VALUE: crypto_box_curve25519xsalsa20poly1305_open:c <- [DW_OP_LLVM_entry_value 1] $rsi
	.cfi_def_cfa_offset 8
	retq
.Ltmp72:
.LBB6_6:                                # %CallStackCheckFailBlk
	.cfi_def_cfa_offset 128
	#DEBUG_VALUE: crypto_box_curve25519xsalsa20poly1305_open:m <- $r12
	#DEBUG_VALUE: crypto_box_curve25519xsalsa20poly1305_open:c <- $r15
	#DEBUG_VALUE: crypto_box_curve25519xsalsa20poly1305_open:clen <- $r14
	#DEBUG_VALUE: crypto_box_curve25519xsalsa20poly1305_open:n <- [DW_OP_LLVM_entry_value 1] $rcx
	#DEBUG_VALUE: crypto_box_curve25519xsalsa20poly1305_open:pk <- [DW_OP_LLVM_entry_value 1] $r8
	#DEBUG_VALUE: crypto_box_curve25519xsalsa20poly1305_open:sk <- [DW_OP_LLVM_entry_value 1] $r9
	.loc	1 0 0                           # crypto_box/curve25519xsalsa20poly1305/box_curve25519xsalsa20poly1305.c:0
	callq	__stack_chk_fail@PLT
.Ltmp73:
.Lfunc_end6:
	.size	crypto_box_curve25519xsalsa20poly1305_open, .Lfunc_end6-crypto_box_curve25519xsalsa20poly1305_open
	.cfi_endproc
                                        # -- End function
	.globl	crypto_box_curve25519xsalsa20poly1305_seedbytes # -- Begin function crypto_box_curve25519xsalsa20poly1305_seedbytes
	.p2align	4
	.type	crypto_box_curve25519xsalsa20poly1305_seedbytes,@function
crypto_box_curve25519xsalsa20poly1305_seedbytes: # @crypto_box_curve25519xsalsa20poly1305_seedbytes
.Lfunc_begin7:
	.cfi_startproc
# %bb.0:
	.loc	1 107 5 prologue_end is_stmt 1  # crypto_box/curve25519xsalsa20poly1305/box_curve25519xsalsa20poly1305.c:107:5
	movl	$32, %eax
	retq
.Ltmp74:
.Lfunc_end7:
	.size	crypto_box_curve25519xsalsa20poly1305_seedbytes, .Lfunc_end7-crypto_box_curve25519xsalsa20poly1305_seedbytes
	.cfi_endproc
                                        # -- End function
	.globl	crypto_box_curve25519xsalsa20poly1305_publickeybytes # -- Begin function crypto_box_curve25519xsalsa20poly1305_publickeybytes
	.p2align	4
	.type	crypto_box_curve25519xsalsa20poly1305_publickeybytes,@function
crypto_box_curve25519xsalsa20poly1305_publickeybytes: # @crypto_box_curve25519xsalsa20poly1305_publickeybytes
.Lfunc_begin8:
	.cfi_startproc
# %bb.0:
	.loc	1 113 5 prologue_end            # crypto_box/curve25519xsalsa20poly1305/box_curve25519xsalsa20poly1305.c:113:5
	movl	$32, %eax
	retq
.Ltmp75:
.Lfunc_end8:
	.size	crypto_box_curve25519xsalsa20poly1305_publickeybytes, .Lfunc_end8-crypto_box_curve25519xsalsa20poly1305_publickeybytes
	.cfi_endproc
                                        # -- End function
	.globl	crypto_box_curve25519xsalsa20poly1305_secretkeybytes # -- Begin function crypto_box_curve25519xsalsa20poly1305_secretkeybytes
	.p2align	4
	.type	crypto_box_curve25519xsalsa20poly1305_secretkeybytes,@function
crypto_box_curve25519xsalsa20poly1305_secretkeybytes: # @crypto_box_curve25519xsalsa20poly1305_secretkeybytes
.Lfunc_begin9:
	.cfi_startproc
# %bb.0:
	.loc	1 119 5 prologue_end            # crypto_box/curve25519xsalsa20poly1305/box_curve25519xsalsa20poly1305.c:119:5
	movl	$32, %eax
	retq
.Ltmp76:
.Lfunc_end9:
	.size	crypto_box_curve25519xsalsa20poly1305_secretkeybytes, .Lfunc_end9-crypto_box_curve25519xsalsa20poly1305_secretkeybytes
	.cfi_endproc
                                        # -- End function
	.globl	crypto_box_curve25519xsalsa20poly1305_beforenmbytes # -- Begin function crypto_box_curve25519xsalsa20poly1305_beforenmbytes
	.p2align	4
	.type	crypto_box_curve25519xsalsa20poly1305_beforenmbytes,@function
crypto_box_curve25519xsalsa20poly1305_beforenmbytes: # @crypto_box_curve25519xsalsa20poly1305_beforenmbytes
.Lfunc_begin10:
	.cfi_startproc
# %bb.0:
	.loc	1 125 5 prologue_end            # crypto_box/curve25519xsalsa20poly1305/box_curve25519xsalsa20poly1305.c:125:5
	movl	$32, %eax
	retq
.Ltmp77:
.Lfunc_end10:
	.size	crypto_box_curve25519xsalsa20poly1305_beforenmbytes, .Lfunc_end10-crypto_box_curve25519xsalsa20poly1305_beforenmbytes
	.cfi_endproc
                                        # -- End function
	.globl	crypto_box_curve25519xsalsa20poly1305_noncebytes # -- Begin function crypto_box_curve25519xsalsa20poly1305_noncebytes
	.p2align	4
	.type	crypto_box_curve25519xsalsa20poly1305_noncebytes,@function
crypto_box_curve25519xsalsa20poly1305_noncebytes: # @crypto_box_curve25519xsalsa20poly1305_noncebytes
.Lfunc_begin11:
	.cfi_startproc
# %bb.0:
	.loc	1 131 5 prologue_end            # crypto_box/curve25519xsalsa20poly1305/box_curve25519xsalsa20poly1305.c:131:5
	movl	$24, %eax
	retq
.Ltmp78:
.Lfunc_end11:
	.size	crypto_box_curve25519xsalsa20poly1305_noncebytes, .Lfunc_end11-crypto_box_curve25519xsalsa20poly1305_noncebytes
	.cfi_endproc
                                        # -- End function
	.globl	crypto_box_curve25519xsalsa20poly1305_zerobytes # -- Begin function crypto_box_curve25519xsalsa20poly1305_zerobytes
	.p2align	4
	.type	crypto_box_curve25519xsalsa20poly1305_zerobytes,@function
crypto_box_curve25519xsalsa20poly1305_zerobytes: # @crypto_box_curve25519xsalsa20poly1305_zerobytes
.Lfunc_begin12:
	.cfi_startproc
# %bb.0:
	.loc	1 137 5 prologue_end            # crypto_box/curve25519xsalsa20poly1305/box_curve25519xsalsa20poly1305.c:137:5
	movl	$32, %eax
	retq
.Ltmp79:
.Lfunc_end12:
	.size	crypto_box_curve25519xsalsa20poly1305_zerobytes, .Lfunc_end12-crypto_box_curve25519xsalsa20poly1305_zerobytes
	.cfi_endproc
                                        # -- End function
	.globl	crypto_box_curve25519xsalsa20poly1305_boxzerobytes # -- Begin function crypto_box_curve25519xsalsa20poly1305_boxzerobytes
	.p2align	4
	.type	crypto_box_curve25519xsalsa20poly1305_boxzerobytes,@function
crypto_box_curve25519xsalsa20poly1305_boxzerobytes: # @crypto_box_curve25519xsalsa20poly1305_boxzerobytes
.Lfunc_begin13:
	.cfi_startproc
# %bb.0:
	.loc	1 143 5 prologue_end            # crypto_box/curve25519xsalsa20poly1305/box_curve25519xsalsa20poly1305.c:143:5
	movl	$16, %eax
	retq
.Ltmp80:
.Lfunc_end13:
	.size	crypto_box_curve25519xsalsa20poly1305_boxzerobytes, .Lfunc_end13-crypto_box_curve25519xsalsa20poly1305_boxzerobytes
	.cfi_endproc
                                        # -- End function
	.globl	crypto_box_curve25519xsalsa20poly1305_macbytes # -- Begin function crypto_box_curve25519xsalsa20poly1305_macbytes
	.p2align	4
	.type	crypto_box_curve25519xsalsa20poly1305_macbytes,@function
crypto_box_curve25519xsalsa20poly1305_macbytes: # @crypto_box_curve25519xsalsa20poly1305_macbytes
.Lfunc_begin14:
	.cfi_startproc
# %bb.0:
	.loc	1 149 5 prologue_end            # crypto_box/curve25519xsalsa20poly1305/box_curve25519xsalsa20poly1305.c:149:5
	movl	$16, %eax
	retq
.Ltmp81:
.Lfunc_end14:
	.size	crypto_box_curve25519xsalsa20poly1305_macbytes, .Lfunc_end14-crypto_box_curve25519xsalsa20poly1305_macbytes
	.cfi_endproc
                                        # -- End function
	.globl	crypto_box_curve25519xsalsa20poly1305_messagebytes_max # -- Begin function crypto_box_curve25519xsalsa20poly1305_messagebytes_max
	.p2align	4
	.type	crypto_box_curve25519xsalsa20poly1305_messagebytes_max,@function
crypto_box_curve25519xsalsa20poly1305_messagebytes_max: # @crypto_box_curve25519xsalsa20poly1305_messagebytes_max
.Lfunc_begin15:
	.cfi_startproc
# %bb.0:
	.loc	1 155 5 prologue_end            # crypto_box/curve25519xsalsa20poly1305/box_curve25519xsalsa20poly1305.c:155:5
	movq	$-17, %rax
	retq
.Ltmp82:
.Lfunc_end15:
	.size	crypto_box_curve25519xsalsa20poly1305_messagebytes_max, .Lfunc_end15-crypto_box_curve25519xsalsa20poly1305_messagebytes_max
	.cfi_endproc
                                        # -- End function
	.type	crypto_box_curve25519xsalsa20poly1305_beforenm.zero,@object # @crypto_box_curve25519xsalsa20poly1305_beforenm.zero
	.section	.rodata,"a",@progbits
	.p2align	4, 0x0
crypto_box_curve25519xsalsa20poly1305_beforenm.zero:
	.zero	16
	.size	crypto_box_curve25519xsalsa20poly1305_beforenm.zero, 16

	.section	".note.GNU-stack","",@progbits
	.addrsig
	.addrsig_sym __stack_chk_fail
	.addrsig_sym crypto_box_curve25519xsalsa20poly1305_beforenm.zero