	.file	"box_curve25519xchacha20poly1305.c"
	.file	0 "/home/leizhenyuu/opt/Anonymous_Repo/libsodium_o2_attr_inline/src/libsodium" "box_curve25519xchacha20poly1305.c" md5 0xe492bbf517e59ab9972a6280468bf049
	.file	1 "crypto_box/curve25519xchacha20poly1305" "box_curve25519xchacha20poly1305.c"
	.text
	.globl	crypto_box_curve25519xchacha20poly1305_seed_keypair # -- Begin function crypto_box_curve25519xchacha20poly1305_seed_keypair
	.p2align	4
	.type	crypto_box_curve25519xchacha20poly1305_seed_keypair,@function
crypto_box_curve25519xchacha20poly1305_seed_keypair: # @crypto_box_curve25519xchacha20poly1305_seed_keypair
.Lfunc_begin0:
	.loc	1 21 0                          # crypto_box/curve25519xchacha20poly1305/box_curve25519xchacha20poly1305.c:21:0
	.cfi_startproc
# %bb.0:
	#DEBUG_VALUE: crypto_box_curve25519xchacha20poly1305_seed_keypair:pk <- $rdi
	#DEBUG_VALUE: crypto_box_curve25519xchacha20poly1305_seed_keypair:sk <- $rsi
	#DEBUG_VALUE: crypto_box_curve25519xchacha20poly1305_seed_keypair:seed <- $rdx
	pushq	%r15
	.cfi_def_cfa_offset 16
	pushq	%r14
	.cfi_def_cfa_offset 24
	pushq	%rbx
	.cfi_def_cfa_offset 32
	subq	$80, %rsp
	.cfi_def_cfa_offset 112
	.cfi_offset %rbx, -32
	.cfi_offset %r14, -24
	.cfi_offset %r15, -16
	movq	%rdx, %rax
	movq	%rsi, %rbx
	movq	%rdi, %r14
	movq	%fs:40, %rcx
	movq	%rcx, 72(%rsp)
	movq	%rsp, %r15
.Ltmp0:
	.loc	1 24 5 prologue_end             # crypto_box/curve25519xchacha20poly1305/box_curve25519xchacha20poly1305.c:24:5
	movl	$32, %edx
.Ltmp1:
	#DEBUG_VALUE: crypto_box_curve25519xchacha20poly1305_seed_keypair:seed <- $rax
	movq	%r15, %rdi
.Ltmp2:
	#DEBUG_VALUE: crypto_box_curve25519xchacha20poly1305_seed_keypair:pk <- $r14
	movq	%rax, %rsi
.Ltmp3:
	#DEBUG_VALUE: crypto_box_curve25519xchacha20poly1305_seed_keypair:sk <- $rbx
	callq	crypto_hash_sha512@PLT
.Ltmp4:
	#DEBUG_VALUE: crypto_box_curve25519xchacha20poly1305_seed_keypair:seed <- [DW_OP_LLVM_entry_value 1] $rdx
	#DEBUG_VALUE: memcpy:__dest <- $rbx
	#DEBUG_VALUE: memcpy:__src <- $rsp
	#DEBUG_VALUE: memcpy:__len <- 32
	.file	2 "/usr/include/x86_64-linux-gnu/bits" "string_fortified.h"
	.loc	2 29 10                         # /usr/include/x86_64-linux-gnu/bits/string_fortified.h:29:10 @[ crypto_box/curve25519xchacha20poly1305/box_curve25519xchacha20poly1305.c:25:5 ]
	movaps	(%rsp), %xmm0
	movaps	16(%rsp), %xmm1
	movups	%xmm0, (%rbx)
	movups	%xmm1, 16(%rbx)
.Ltmp5:
	.loc	1 26 5                          # crypto_box/curve25519xchacha20poly1305/box_curve25519xchacha20poly1305.c:26:5
	movl	$64, %esi
	movq	%r15, %rdi
	callq	sodium_memzero@PLT
.Ltmp6:
	.loc	1 28 12                         # crypto_box/curve25519xchacha20poly1305/box_curve25519xchacha20poly1305.c:28:12
	movq	%r14, %rdi
	movq	%rbx, %rsi
	callq	crypto_scalarmult_curve25519_base@PLT
.Ltmp7:
	.loc	1 28 5 is_stmt 0                # crypto_box/curve25519xchacha20poly1305/box_curve25519xchacha20poly1305.c:28:5
	movq	%fs:40, %rcx
	cmpq	72(%rsp), %rcx
	jne	.LBB0_2
.Ltmp8:
# %bb.1:                                # %SP_return
	#DEBUG_VALUE: crypto_box_curve25519xchacha20poly1305_seed_keypair:pk <- $r14
	#DEBUG_VALUE: crypto_box_curve25519xchacha20poly1305_seed_keypair:sk <- $rbx
	#DEBUG_VALUE: crypto_box_curve25519xchacha20poly1305_seed_keypair:seed <- [DW_OP_LLVM_entry_value 1] $rdx
	.loc	1 28 5 epilogue_begin           # crypto_box/curve25519xchacha20poly1305/box_curve25519xchacha20poly1305.c:28:5
	addq	$80, %rsp
	.cfi_def_cfa_offset 32
	popq	%rbx
.Ltmp9:
	#DEBUG_VALUE: crypto_box_curve25519xchacha20poly1305_seed_keypair:sk <- [DW_OP_LLVM_entry_value 1] $rsi
	.cfi_def_cfa_offset 24
	popq	%r14
.Ltmp10:
	#DEBUG_VALUE: crypto_box_curve25519xchacha20poly1305_seed_keypair:pk <- [DW_OP_LLVM_entry_value 1] $rdi
	.cfi_def_cfa_offset 16
	popq	%r15
	.cfi_def_cfa_offset 8
	retq
.Ltmp11:
.LBB0_2:                                # %CallStackCheckFailBlk
	.cfi_def_cfa_offset 112
	#DEBUG_VALUE: crypto_box_curve25519xchacha20poly1305_seed_keypair:pk <- $r14
	#DEBUG_VALUE: crypto_box_curve25519xchacha20poly1305_seed_keypair:sk <- $rbx
	#DEBUG_VALUE: crypto_box_curve25519xchacha20poly1305_seed_keypair:seed <- [DW_OP_LLVM_entry_value 1] $rdx
	#DEBUG_VALUE: memcpy:__dest <- $rbx
	#DEBUG_VALUE: memcpy:__src <- $r15
	#DEBUG_VALUE: memcpy:__len <- 32
	.loc	1 0 0                           # crypto_box/curve25519xchacha20poly1305/box_curve25519xchacha20poly1305.c:0
	callq	__stack_chk_fail@PLT
.Ltmp12:
.Lfunc_end0:
	.size	crypto_box_curve25519xchacha20poly1305_seed_keypair, .Lfunc_end0-crypto_box_curve25519xchacha20poly1305_seed_keypair
	.cfi_endproc
	.file	3 "/home/leizhenyuu/opt/Anonymous_Repo" "llvm-project/build/lib/clang/21/include/__stddef_size_t.h"
	.file	4 "./include/sodium" "crypto_hash_sha512.h"
	.file	5 "./include/sodium" "utils.h"
	.file	6 "./include/sodium" "crypto_scalarmult_curve25519.h"
                                        # -- End function
	.globl	crypto_box_curve25519xchacha20poly1305_keypair # -- Begin function crypto_box_curve25519xchacha20poly1305_keypair
	.p2align	4
	.type	crypto_box_curve25519xchacha20poly1305_keypair,@function
crypto_box_curve25519xchacha20poly1305_keypair: # @crypto_box_curve25519xchacha20poly1305_keypair
.Lfunc_begin1:
	.loc	1 34 0 is_stmt 1                # crypto_box/curve25519xchacha20poly1305/box_curve25519xchacha20poly1305.c:34:0
	.cfi_startproc
# %bb.0:
	#DEBUG_VALUE: crypto_box_curve25519xchacha20poly1305_keypair:pk <- $rdi
	#DEBUG_VALUE: crypto_box_curve25519xchacha20poly1305_keypair:sk <- $rsi
	pushq	%r14
	.cfi_def_cfa_offset 16
	pushq	%rbx
	.cfi_def_cfa_offset 24
	pushq	%rax
	.cfi_def_cfa_offset 32
	.cfi_offset %rbx, -24
	.cfi_offset %r14, -16
	movq	%rsi, %rbx
	movq	%rdi, %r14
.Ltmp13:
	.loc	1 35 5 prologue_end             # crypto_box/curve25519xchacha20poly1305/box_curve25519xchacha20poly1305.c:35:5
	movl	$32, %esi
.Ltmp14:
	#DEBUG_VALUE: crypto_box_curve25519xchacha20poly1305_keypair:sk <- $rbx
	movq	%rbx, %rdi
.Ltmp15:
	#DEBUG_VALUE: crypto_box_curve25519xchacha20poly1305_keypair:pk <- $r14
	callq	randombytes_buf@PLT
.Ltmp16:
	.loc	1 37 12                         # crypto_box/curve25519xchacha20poly1305/box_curve25519xchacha20poly1305.c:37:12
	movq	%r14, %rdi
	movq	%rbx, %rsi
	.loc	1 37 12 epilogue_begin is_stmt 0 # crypto_box/curve25519xchacha20poly1305/box_curve25519xchacha20poly1305.c:37:12
	addq	$8, %rsp
	.cfi_def_cfa_offset 24
	popq	%rbx
.Ltmp17:
	#DEBUG_VALUE: crypto_box_curve25519xchacha20poly1305_keypair:sk <- $rsi
	.cfi_def_cfa_offset 16
	popq	%r14
.Ltmp18:
	#DEBUG_VALUE: crypto_box_curve25519xchacha20poly1305_keypair:pk <- $rdi
	.cfi_def_cfa_offset 8
	jmp	crypto_scalarmult_curve25519_base@PLT # TAILCALL
.Ltmp19:
.Lfunc_end1:
	.size	crypto_box_curve25519xchacha20poly1305_keypair, .Lfunc_end1-crypto_box_curve25519xchacha20poly1305_keypair
	.cfi_endproc
	.file	7 "./include/sodium" "randombytes.h"
                                        # -- End function
	.globl	crypto_box_curve25519xchacha20poly1305_beforenm # -- Begin function crypto_box_curve25519xchacha20poly1305_beforenm
	.p2align	4
	.type	crypto_box_curve25519xchacha20poly1305_beforenm,@function
crypto_box_curve25519xchacha20poly1305_beforenm: # @crypto_box_curve25519xchacha20poly1305_beforenm
.Lfunc_begin2:
	.loc	1 44 0 is_stmt 1                # crypto_box/curve25519xchacha20poly1305/box_curve25519xchacha20poly1305.c:44:0
	.cfi_startproc
# %bb.0:
	#DEBUG_VALUE: crypto_box_curve25519xchacha20poly1305_beforenm:k <- $rdi
	#DEBUG_VALUE: crypto_box_curve25519xchacha20poly1305_beforenm:pk <- $rsi
	#DEBUG_VALUE: crypto_box_curve25519xchacha20poly1305_beforenm:sk <- $rdx
	pushq	%rbx
	.cfi_def_cfa_offset 16
	subq	$48, %rsp
	.cfi_def_cfa_offset 64
	.cfi_offset %rbx, -16
	movq	%rsi, %rax
	movq	%rdi, %rbx
	movq	%fs:40, %rcx
	movq	%rcx, 40(%rsp)
	movq	%rsp, %rdi
.Ltmp20:
	#DEBUG_VALUE: crypto_box_curve25519xchacha20poly1305_beforenm:k <- $rbx
	.loc	1 48 9 prologue_end             # crypto_box/curve25519xchacha20poly1305/box_curve25519xchacha20poly1305.c:48:9
	movq	%rdx, %rsi
.Ltmp21:
	#DEBUG_VALUE: crypto_box_curve25519xchacha20poly1305_beforenm:pk <- $rax
	movq	%rax, %rdx
.Ltmp22:
	#DEBUG_VALUE: crypto_box_curve25519xchacha20poly1305_beforenm:sk <- $rsi
	callq	crypto_scalarmult_curve25519@PLT
.Ltmp23:
	#DEBUG_VALUE: crypto_box_curve25519xchacha20poly1305_beforenm:sk <- [DW_OP_LLVM_entry_value 1] $rdx
	#DEBUG_VALUE: crypto_box_curve25519xchacha20poly1305_beforenm:pk <- [DW_OP_LLVM_entry_value 1] $rsi
	movl	%eax, %ecx
	movl	$-1, %eax
	.loc	1 48 49 is_stmt 0               # crypto_box/curve25519xchacha20poly1305/box_curve25519xchacha20poly1305.c:48:49
	testl	%ecx, %ecx
	jne	.LBB2_2
.Ltmp24:
# %bb.1:
	#DEBUG_VALUE: crypto_box_curve25519xchacha20poly1305_beforenm:k <- $rbx
	#DEBUG_VALUE: crypto_box_curve25519xchacha20poly1305_beforenm:pk <- [DW_OP_LLVM_entry_value 1] $rsi
	#DEBUG_VALUE: crypto_box_curve25519xchacha20poly1305_beforenm:sk <- [DW_OP_LLVM_entry_value 1] $rdx
	.loc	1 51 12 is_stmt 1               # crypto_box/curve25519xchacha20poly1305/box_curve25519xchacha20poly1305.c:51:12
	leaq	crypto_box_curve25519xchacha20poly1305_beforenm.zero(%rip), %rsi
	movq	%rsp, %rdx
	movq	%rbx, %rdi
	xorl	%ecx, %ecx
	callq	crypto_core_hchacha20@PLT
.Ltmp25:
.LBB2_2:
	#DEBUG_VALUE: crypto_box_curve25519xchacha20poly1305_beforenm:k <- $rbx
	#DEBUG_VALUE: crypto_box_curve25519xchacha20poly1305_beforenm:pk <- [DW_OP_LLVM_entry_value 1] $rsi
	#DEBUG_VALUE: crypto_box_curve25519xchacha20poly1305_beforenm:sk <- [DW_OP_LLVM_entry_value 1] $rdx
	.loc	1 52 1                          # crypto_box/curve25519xchacha20poly1305/box_curve25519xchacha20poly1305.c:52:1
	movq	%fs:40, %rcx
	cmpq	40(%rsp), %rcx
	jne	.LBB2_4
.Ltmp26:
# %bb.3:                                # %SP_return
	#DEBUG_VALUE: crypto_box_curve25519xchacha20poly1305_beforenm:k <- $rbx
	#DEBUG_VALUE: crypto_box_curve25519xchacha20poly1305_beforenm:pk <- [DW_OP_LLVM_entry_value 1] $rsi
	#DEBUG_VALUE: crypto_box_curve25519xchacha20poly1305_beforenm:sk <- [DW_OP_LLVM_entry_value 1] $rdx
	.loc	1 52 1 epilogue_begin is_stmt 0 # crypto_box/curve25519xchacha20poly1305/box_curve25519xchacha20poly1305.c:52:1
	addq	$48, %rsp
	.cfi_def_cfa_offset 16
	popq	%rbx
.Ltmp27:
	#DEBUG_VALUE: crypto_box_curve25519xchacha20poly1305_beforenm:k <- [DW_OP_LLVM_entry_value 1] $rdi
	.cfi_def_cfa_offset 8
	retq
.Ltmp28:
.LBB2_4:                                # %CallStackCheckFailBlk
	.cfi_def_cfa_offset 64
	#DEBUG_VALUE: crypto_box_curve25519xchacha20poly1305_beforenm:k <- $rbx
	#DEBUG_VALUE: crypto_box_curve25519xchacha20poly1305_beforenm:pk <- [DW_OP_LLVM_entry_value 1] $rsi
	#DEBUG_VALUE: crypto_box_curve25519xchacha20poly1305_beforenm:sk <- [DW_OP_LLVM_entry_value 1] $rdx
	.loc	1 0 0                           # crypto_box/curve25519xchacha20poly1305/box_curve25519xchacha20poly1305.c:0
	callq	__stack_chk_fail@PLT
.Ltmp29:
.Lfunc_end2:
	.size	crypto_box_curve25519xchacha20poly1305_beforenm, .Lfunc_end2-crypto_box_curve25519xchacha20poly1305_beforenm
	.cfi_endproc
	.file	8 "./include/sodium" "crypto_core_hchacha20.h"
                                        # -- End function
	.globl	crypto_box_curve25519xchacha20poly1305_detached_afternm # -- Begin function crypto_box_curve25519xchacha20poly1305_detached_afternm
	.p2align	4
	.type	crypto_box_curve25519xchacha20poly1305_detached_afternm,@function
crypto_box_curve25519xchacha20poly1305_detached_afternm: # @crypto_box_curve25519xchacha20poly1305_detached_afternm
.Lfunc_begin3:
	.cfi_startproc
# %bb.0:
	#DEBUG_VALUE: crypto_box_curve25519xchacha20poly1305_detached_afternm:c <- $rdi
	#DEBUG_VALUE: crypto_box_curve25519xchacha20poly1305_detached_afternm:mac <- $rsi
	#DEBUG_VALUE: crypto_box_curve25519xchacha20poly1305_detached_afternm:m <- $rdx
	#DEBUG_VALUE: crypto_box_curve25519xchacha20poly1305_detached_afternm:mlen <- $rcx
	#DEBUG_VALUE: crypto_box_curve25519xchacha20poly1305_detached_afternm:n <- $r8
	#DEBUG_VALUE: crypto_box_curve25519xchacha20poly1305_detached_afternm:k <- $r9
	.loc	1 59 12 prologue_end is_stmt 1  # crypto_box/curve25519xchacha20poly1305/box_curve25519xchacha20poly1305.c:59:12
	jmp	crypto_secretbox_xchacha20poly1305_detached@PLT # TAILCALL
.Ltmp30:
.Lfunc_end3:
	.size	crypto_box_curve25519xchacha20poly1305_detached_afternm, .Lfunc_end3-crypto_box_curve25519xchacha20poly1305_detached_afternm
	.cfi_endproc
	.file	9 "./include/sodium" "crypto_secretbox_xchacha20poly1305.h"
                                        # -- End function
	.globl	crypto_box_curve25519xchacha20poly1305_detached # -- Begin function crypto_box_curve25519xchacha20poly1305_detached
	.p2align	4
	.type	crypto_box_curve25519xchacha20poly1305_detached,@function
crypto_box_curve25519xchacha20poly1305_detached: # @crypto_box_curve25519xchacha20poly1305_detached
.Lfunc_begin4:
	.loc	1 67 0                          # crypto_box/curve25519xchacha20poly1305/box_curve25519xchacha20poly1305.c:67:0
	.cfi_startproc
# %bb.0:
	#DEBUG_VALUE: crypto_box_curve25519xchacha20poly1305_detached:c <- $rdi
	#DEBUG_VALUE: crypto_box_curve25519xchacha20poly1305_detached:mac <- $rsi
	#DEBUG_VALUE: crypto_box_curve25519xchacha20poly1305_detached:m <- $rdx
	#DEBUG_VALUE: crypto_box_curve25519xchacha20poly1305_detached:mlen <- $rcx
	#DEBUG_VALUE: crypto_box_curve25519xchacha20poly1305_detached:n <- $r8
	#DEBUG_VALUE: crypto_box_curve25519xchacha20poly1305_detached:pk <- $r9
	pushq	%rbp
	.cfi_def_cfa_offset 16
	pushq	%r15
	.cfi_def_cfa_offset 24
	pushq	%r14
	.cfi_def_cfa_offset 32
	pushq	%r13
	.cfi_def_cfa_offset 40
	pushq	%r12
	.cfi_def_cfa_offset 48
	pushq	%rbx
	.cfi_def_cfa_offset 56
	subq	$72, %rsp
	.cfi_def_cfa_offset 128
	.cfi_offset %rbx, -56
	.cfi_offset %r12, -48
	.cfi_offset %r13, -40
	.cfi_offset %r14, -32
	.cfi_offset %r15, -24
	.cfi_offset %rbp, -16
.Ltmp31:
	#DEBUG_VALUE: crypto_box_curve25519xchacha20poly1305_detached:sk <- [DW_OP_plus_uconst 128] [$rsp+0]
	movq	%r8, %rbx
	movq	%rcx, %r14
	movq	%rdx, %r15
	movq	%rsi, %r12
	movq	%rdi, %r13
	movq	128(%rsp), %rsi
.Ltmp32:
	#DEBUG_VALUE: crypto_box_curve25519xchacha20poly1305_detached:mac <- $r12
	#DEBUG_VALUE: crypto_box_curve25519xchacha20poly1305_beforenm:pk <- $r9
	movq	%fs:40, %rax
	movq	%rax, 64(%rsp)
.Ltmp33:
	#DEBUG_VALUE: crypto_box_curve25519xchacha20poly1305_beforenm:s <- [DW_OP_plus_uconst 32, DW_OP_deref] $rsp
	#DEBUG_VALUE: crypto_box_curve25519xchacha20poly1305_beforenm:k <- $rsp
	#DEBUG_VALUE: crypto_box_curve25519xchacha20poly1305_beforenm:sk <- $rsi
	leaq	32(%rsp), %rdi
.Ltmp34:
	#DEBUG_VALUE: crypto_box_curve25519xchacha20poly1305_detached:c <- $r13
	.loc	1 48 9 prologue_end             # crypto_box/curve25519xchacha20poly1305/box_curve25519xchacha20poly1305.c:48:9 @[ crypto_box/curve25519xchacha20poly1305/box_curve25519xchacha20poly1305.c:73:9 ]
	movq	%r9, %rdx
.Ltmp35:
	#DEBUG_VALUE: crypto_box_curve25519xchacha20poly1305_detached:m <- $r15
	callq	crypto_scalarmult_curve25519@PLT
.Ltmp36:
	#DEBUG_VALUE: crypto_box_curve25519xchacha20poly1305_detached:pk <- [DW_OP_LLVM_entry_value 1] $r9
	#DEBUG_VALUE: crypto_box_curve25519xchacha20poly1305_detached:n <- $rbx
	#DEBUG_VALUE: crypto_box_curve25519xchacha20poly1305_detached:mlen <- $r14
	.loc	1 48 49 is_stmt 0               # crypto_box/curve25519xchacha20poly1305/box_curve25519xchacha20poly1305.c:48:49 @[ crypto_box/curve25519xchacha20poly1305/box_curve25519xchacha20poly1305.c:73:9 ]
	testl	%eax, %eax
	je	.LBB4_2
.Ltmp37:
# %bb.1:                                # %crypto_box_curve25519xchacha20poly1305_beforenm.exit.thread
	#DEBUG_VALUE: crypto_box_curve25519xchacha20poly1305_detached:c <- $r13
	#DEBUG_VALUE: crypto_box_curve25519xchacha20poly1305_detached:mac <- $r12
	#DEBUG_VALUE: crypto_box_curve25519xchacha20poly1305_detached:m <- $r15
	#DEBUG_VALUE: crypto_box_curve25519xchacha20poly1305_detached:mlen <- $r14
	#DEBUG_VALUE: crypto_box_curve25519xchacha20poly1305_detached:n <- $rbx
	#DEBUG_VALUE: crypto_box_curve25519xchacha20poly1305_detached:pk <- [DW_OP_LLVM_entry_value 1] $r9
	#DEBUG_VALUE: crypto_box_curve25519xchacha20poly1305_detached:sk <- [DW_OP_plus_uconst 128] [$rsp+0]
	.loc	1 0 49                          # crypto_box/curve25519xchacha20poly1305/box_curve25519xchacha20poly1305.c:0:49
	movl	$-1, %eax
	.loc	1 73 68 is_stmt 1               # crypto_box/curve25519xchacha20poly1305/box_curve25519xchacha20poly1305.c:73:68
	jmp	.LBB4_4
.Ltmp38:
.LBB4_2:                                # %crypto_box_curve25519xchacha20poly1305_beforenm.exit
	#DEBUG_VALUE: crypto_box_curve25519xchacha20poly1305_detached:c <- $r13
	#DEBUG_VALUE: crypto_box_curve25519xchacha20poly1305_detached:mac <- $r12
	#DEBUG_VALUE: crypto_box_curve25519xchacha20poly1305_detached:m <- $r15
	#DEBUG_VALUE: crypto_box_curve25519xchacha20poly1305_detached:mlen <- $r14
	#DEBUG_VALUE: crypto_box_curve25519xchacha20poly1305_detached:n <- $rbx
	#DEBUG_VALUE: crypto_box_curve25519xchacha20poly1305_detached:pk <- [DW_OP_LLVM_entry_value 1] $r9
	#DEBUG_VALUE: crypto_box_curve25519xchacha20poly1305_detached:sk <- [DW_OP_plus_uconst 128] [$rsp+0]
	#DEBUG_VALUE: crypto_box_curve25519xchacha20poly1305_beforenm:s <- [DW_OP_plus_uconst 32, DW_OP_deref] $rsp
	#DEBUG_VALUE: crypto_box_curve25519xchacha20poly1305_beforenm:k <- $rsp
	.loc	1 51 12                         # crypto_box/curve25519xchacha20poly1305/box_curve25519xchacha20poly1305.c:51:12 @[ crypto_box/curve25519xchacha20poly1305/box_curve25519xchacha20poly1305.c:73:9 ]
	leaq	crypto_box_curve25519xchacha20poly1305_beforenm.zero(%rip), %rsi
	movq	%rsp, %rdi
	leaq	32(%rsp), %rdx
	xorl	%ecx, %ecx
	callq	crypto_core_hchacha20@PLT
.Ltmp39:
	movl	%eax, %ecx
	movl	$-1, %eax
.Ltmp40:
	.loc	1 73 68                         # crypto_box/curve25519xchacha20poly1305/box_curve25519xchacha20poly1305.c:73:68
	testl	%ecx, %ecx
	jne	.LBB4_4
.Ltmp41:
# %bb.3:
	#DEBUG_VALUE: crypto_box_curve25519xchacha20poly1305_detached:c <- $r13
	#DEBUG_VALUE: crypto_box_curve25519xchacha20poly1305_detached:mac <- $r12
	#DEBUG_VALUE: crypto_box_curve25519xchacha20poly1305_detached:m <- $r15
	#DEBUG_VALUE: crypto_box_curve25519xchacha20poly1305_detached:mlen <- $r14
	#DEBUG_VALUE: crypto_box_curve25519xchacha20poly1305_detached:n <- $rbx
	#DEBUG_VALUE: crypto_box_curve25519xchacha20poly1305_detached:pk <- [DW_OP_LLVM_entry_value 1] $r9
	#DEBUG_VALUE: crypto_box_curve25519xchacha20poly1305_detached:sk <- [DW_OP_plus_uconst 128] [$rsp+0]
	#DEBUG_VALUE: crypto_box_curve25519xchacha20poly1305_detached_afternm:c <- $r13
	#DEBUG_VALUE: crypto_box_curve25519xchacha20poly1305_detached_afternm:mac <- $r12
	#DEBUG_VALUE: crypto_box_curve25519xchacha20poly1305_detached_afternm:m <- $r15
	#DEBUG_VALUE: crypto_box_curve25519xchacha20poly1305_detached_afternm:mlen <- $r14
	#DEBUG_VALUE: crypto_box_curve25519xchacha20poly1305_detached_afternm:n <- $rbx
	#DEBUG_VALUE: crypto_box_curve25519xchacha20poly1305_detached_afternm:k <- $rsp
	.loc	1 0 68 is_stmt 0                # crypto_box/curve25519xchacha20poly1305/box_curve25519xchacha20poly1305.c:0:68
	movq	%rsp, %rbp
.Ltmp42:
	.loc	1 59 12 is_stmt 1               # crypto_box/curve25519xchacha20poly1305/box_curve25519xchacha20poly1305.c:59:12 @[ crypto_box/curve25519xchacha20poly1305/box_curve25519xchacha20poly1305.c:76:11 ]
	movq	%r13, %rdi
	movq	%r12, %rsi
	movq	%r15, %rdx
	movq	%r14, %rcx
	movq	%rbx, %r8
	movq	%rbp, %r9
	callq	crypto_secretbox_xchacha20poly1305_detached@PLT
.Ltmp43:
	movl	%eax, %ebx
.Ltmp44:
	#DEBUG_VALUE: crypto_box_curve25519xchacha20poly1305_detached:n <- [DW_OP_LLVM_entry_value 1] $r8
	#DEBUG_VALUE: crypto_box_curve25519xchacha20poly1305_detached:ret <- $ebx
	.loc	1 78 5                          # crypto_box/curve25519xchacha20poly1305/box_curve25519xchacha20poly1305.c:78:5
	movl	$32, %esi
	movq	%rbp, %rdi
	callq	sodium_memzero@PLT
.Ltmp45:
	.loc	1 0 5 is_stmt 0                 # crypto_box/curve25519xchacha20poly1305/box_curve25519xchacha20poly1305.c:0:5
	movl	%ebx, %eax
.Ltmp46:
.LBB4_4:
	#DEBUG_VALUE: crypto_box_curve25519xchacha20poly1305_detached:c <- $r13
	#DEBUG_VALUE: crypto_box_curve25519xchacha20poly1305_detached:mac <- $r12
	#DEBUG_VALUE: crypto_box_curve25519xchacha20poly1305_detached:m <- $r15
	#DEBUG_VALUE: crypto_box_curve25519xchacha20poly1305_detached:mlen <- $r14
	#DEBUG_VALUE: crypto_box_curve25519xchacha20poly1305_detached:n <- [DW_OP_LLVM_entry_value 1] $r8
	#DEBUG_VALUE: crypto_box_curve25519xchacha20poly1305_detached:pk <- [DW_OP_LLVM_entry_value 1] $r9
	#DEBUG_VALUE: crypto_box_curve25519xchacha20poly1305_detached:sk <- [DW_OP_plus_uconst 128] [$rsp+0]
	.loc	1 81 1 is_stmt 1                # crypto_box/curve25519xchacha20poly1305/box_curve25519xchacha20poly1305.c:81:1
	movq	%fs:40, %rcx
	cmpq	64(%rsp), %rcx
	jne	.LBB4_6
.Ltmp47:
# %bb.5:                                # %SP_return
	#DEBUG_VALUE: crypto_box_curve25519xchacha20poly1305_detached:c <- $r13
	#DEBUG_VALUE: crypto_box_curve25519xchacha20poly1305_detached:mac <- $r12
	#DEBUG_VALUE: crypto_box_curve25519xchacha20poly1305_detached:m <- $r15
	#DEBUG_VALUE: crypto_box_curve25519xchacha20poly1305_detached:mlen <- $r14
	#DEBUG_VALUE: crypto_box_curve25519xchacha20poly1305_detached:n <- [DW_OP_LLVM_entry_value 1] $r8
	#DEBUG_VALUE: crypto_box_curve25519xchacha20poly1305_detached:pk <- [DW_OP_LLVM_entry_value 1] $r9
	#DEBUG_VALUE: crypto_box_curve25519xchacha20poly1305_detached:sk <- [DW_OP_plus_uconst 128] [$rsp+0]
	.loc	1 81 1 epilogue_begin is_stmt 0 # crypto_box/curve25519xchacha20poly1305/box_curve25519xchacha20poly1305.c:81:1
	addq	$72, %rsp
	.cfi_def_cfa_offset 56
	popq	%rbx
	.cfi_def_cfa_offset 48
	popq	%r12
.Ltmp48:
	#DEBUG_VALUE: crypto_box_curve25519xchacha20poly1305_detached:mac <- [DW_OP_LLVM_entry_value 1] $rsi
	.cfi_def_cfa_offset 40
	popq	%r13
.Ltmp49:
	#DEBUG_VALUE: crypto_box_curve25519xchacha20poly1305_detached:c <- [DW_OP_LLVM_entry_value 1] $rdi
	.cfi_def_cfa_offset 32
	popq	%r14
.Ltmp50:
	#DEBUG_VALUE: crypto_box_curve25519xchacha20poly1305_detached:mlen <- [DW_OP_LLVM_entry_value 1] $rcx
	.cfi_def_cfa_offset 24
	popq	%r15
.Ltmp51:
	#DEBUG_VALUE: crypto_box_curve25519xchacha20poly1305_detached:m <- [DW_OP_LLVM_entry_value 1] $rdx
	.cfi_def_cfa_offset 16
	popq	%rbp
	.cfi_def_cfa_offset 8
	retq
.Ltmp52:
.LBB4_6:                                # %CallStackCheckFailBlk
	.cfi_def_cfa_offset 128
	#DEBUG_VALUE: crypto_box_curve25519xchacha20poly1305_detached:c <- $r13
	#DEBUG_VALUE: crypto_box_curve25519xchacha20poly1305_detached:mac <- $r12
	#DEBUG_VALUE: crypto_box_curve25519xchacha20poly1305_detached:m <- $r15
	#DEBUG_VALUE: crypto_box_curve25519xchacha20poly1305_detached:mlen <- $r14
	#DEBUG_VALUE: crypto_box_curve25519xchacha20poly1305_detached:n <- [DW_OP_LLVM_entry_value 1] $r8
	#DEBUG_VALUE: crypto_box_curve25519xchacha20poly1305_detached:pk <- [DW_OP_LLVM_entry_value 1] $r9
	#DEBUG_VALUE: crypto_box_curve25519xchacha20poly1305_detached:sk <- [DW_OP_plus_uconst 128] [$rsp+0]
	.loc	1 0 0                           # crypto_box/curve25519xchacha20poly1305/box_curve25519xchacha20poly1305.c:0
	callq	__stack_chk_fail@PLT
.Ltmp53:
.Lfunc_end4:
	.size	crypto_box_curve25519xchacha20poly1305_detached, .Lfunc_end4-crypto_box_curve25519xchacha20poly1305_detached
	.cfi_endproc
                                        # -- End function
	.globl	crypto_box_curve25519xchacha20poly1305_easy_afternm # -- Begin function crypto_box_curve25519xchacha20poly1305_easy_afternm
	.p2align	4
	.type	crypto_box_curve25519xchacha20poly1305_easy_afternm,@function
crypto_box_curve25519xchacha20poly1305_easy_afternm: # @crypto_box_curve25519xchacha20poly1305_easy_afternm
.Lfunc_begin5:
	.loc	1 89 0 is_stmt 1                # crypto_box/curve25519xchacha20poly1305/box_curve25519xchacha20poly1305.c:89:0
	.cfi_startproc
# %bb.0:
	#DEBUG_VALUE: crypto_box_curve25519xchacha20poly1305_easy_afternm:c <- $rdi
	#DEBUG_VALUE: crypto_box_curve25519xchacha20poly1305_easy_afternm:m <- $rsi
	#DEBUG_VALUE: crypto_box_curve25519xchacha20poly1305_easy_afternm:mlen <- $rdx
	#DEBUG_VALUE: crypto_box_curve25519xchacha20poly1305_easy_afternm:n <- $rcx
	#DEBUG_VALUE: crypto_box_curve25519xchacha20poly1305_easy_afternm:k <- $r8
	movq	%r8, %r9
	movq	%rcx, %r8
.Ltmp54:
	#DEBUG_VALUE: crypto_box_curve25519xchacha20poly1305_easy_afternm:k <- $r9
	movq	%rdx, %rcx
.Ltmp55:
	#DEBUG_VALUE: crypto_box_curve25519xchacha20poly1305_easy_afternm:n <- $r8
	.loc	1 90 14 prologue_end            # crypto_box/curve25519xchacha20poly1305/box_curve25519xchacha20poly1305.c:90:14
	cmpq	$-16, %rdx
	jae	.LBB5_1
.Ltmp56:
# %bb.2:
	#DEBUG_VALUE: crypto_box_curve25519xchacha20poly1305_easy_afternm:c <- $rdi
	#DEBUG_VALUE: crypto_box_curve25519xchacha20poly1305_easy_afternm:m <- $rsi
	#DEBUG_VALUE: crypto_box_curve25519xchacha20poly1305_easy_afternm:mlen <- $rcx
	#DEBUG_VALUE: crypto_box_curve25519xchacha20poly1305_easy_afternm:n <- $r8
	#DEBUG_VALUE: crypto_box_curve25519xchacha20poly1305_easy_afternm:k <- $r9
	.loc	1 0 14 is_stmt 0                # crypto_box/curve25519xchacha20poly1305/box_curve25519xchacha20poly1305.c:0:14
	movq	%rsi, %rdx
	movq	%rdi, %rsi
.Ltmp57:
	#DEBUG_VALUE: crypto_box_curve25519xchacha20poly1305_easy_afternm:m <- $rdx
	.loc	1 94 11 is_stmt 1               # crypto_box/curve25519xchacha20poly1305/box_curve25519xchacha20poly1305.c:94:11
	addq	$16, %rdi
.Ltmp58:
	#DEBUG_VALUE: crypto_box_curve25519xchacha20poly1305_easy_afternm:c <- $rsi
	#DEBUG_VALUE: crypto_box_curve25519xchacha20poly1305_detached_afternm:c <- $rdi
	#DEBUG_VALUE: crypto_box_curve25519xchacha20poly1305_detached_afternm:mac <- $rsi
	#DEBUG_VALUE: crypto_box_curve25519xchacha20poly1305_detached_afternm:m <- $rdx
	#DEBUG_VALUE: crypto_box_curve25519xchacha20poly1305_detached_afternm:mlen <- $rcx
	#DEBUG_VALUE: crypto_box_curve25519xchacha20poly1305_detached_afternm:n <- $r8
	#DEBUG_VALUE: crypto_box_curve25519xchacha20poly1305_detached_afternm:k <- $r9
	.loc	1 59 12                         # crypto_box/curve25519xchacha20poly1305/box_curve25519xchacha20poly1305.c:59:12 @[ crypto_box/curve25519xchacha20poly1305/box_curve25519xchacha20poly1305.c:93:12 ]
	jmp	crypto_secretbox_xchacha20poly1305_detached@PLT # TAILCALL
.Ltmp59:
.LBB5_1:
	#DEBUG_VALUE: crypto_box_curve25519xchacha20poly1305_easy_afternm:c <- $rdi
	#DEBUG_VALUE: crypto_box_curve25519xchacha20poly1305_easy_afternm:m <- $rsi
	#DEBUG_VALUE: crypto_box_curve25519xchacha20poly1305_easy_afternm:mlen <- $rcx
	#DEBUG_VALUE: crypto_box_curve25519xchacha20poly1305_easy_afternm:n <- $r8
	#DEBUG_VALUE: crypto_box_curve25519xchacha20poly1305_easy_afternm:k <- $r9
	pushq	%rax
	.cfi_def_cfa_offset 16
.Ltmp60:
	.loc	1 91 9                          # crypto_box/curve25519xchacha20poly1305/box_curve25519xchacha20poly1305.c:91:9
	callq	sodium_misuse@PLT
.Ltmp61:
	#DEBUG_VALUE: crypto_box_curve25519xchacha20poly1305_easy_afternm:k <- [DW_OP_LLVM_entry_value 1] $r8
	#DEBUG_VALUE: crypto_box_curve25519xchacha20poly1305_easy_afternm:c <- [DW_OP_LLVM_entry_value 1] $rdi
	#DEBUG_VALUE: crypto_box_curve25519xchacha20poly1305_easy_afternm:m <- [DW_OP_LLVM_entry_value 1] $rsi
	#DEBUG_VALUE: crypto_box_curve25519xchacha20poly1305_easy_afternm:mlen <- [DW_OP_LLVM_entry_value 1] $rdx
	#DEBUG_VALUE: crypto_box_curve25519xchacha20poly1305_easy_afternm:n <- [DW_OP_LLVM_entry_value 1] $rcx
.Lfunc_end5:
	.size	crypto_box_curve25519xchacha20poly1305_easy_afternm, .Lfunc_end5-crypto_box_curve25519xchacha20poly1305_easy_afternm
	.cfi_endproc
	.file	10 "./include/sodium" "core.h"
                                        # -- End function
	.globl	crypto_box_curve25519xchacha20poly1305_easy # -- Begin function crypto_box_curve25519xchacha20poly1305_easy
	.p2align	4
	.type	crypto_box_curve25519xchacha20poly1305_easy,@function
crypto_box_curve25519xchacha20poly1305_easy: # @crypto_box_curve25519xchacha20poly1305_easy
.Lfunc_begin6:
	.loc	1 101 0                         # crypto_box/curve25519xchacha20poly1305/box_curve25519xchacha20poly1305.c:101:0
	.cfi_startproc
# %bb.0:
	#DEBUG_VALUE: crypto_box_curve25519xchacha20poly1305_easy:c <- $rdi
	#DEBUG_VALUE: crypto_box_curve25519xchacha20poly1305_easy:m <- $rsi
	#DEBUG_VALUE: crypto_box_curve25519xchacha20poly1305_easy:mlen <- $rdx
	#DEBUG_VALUE: crypto_box_curve25519xchacha20poly1305_easy:n <- $rcx
	#DEBUG_VALUE: crypto_box_curve25519xchacha20poly1305_easy:pk <- $r8
	#DEBUG_VALUE: crypto_box_curve25519xchacha20poly1305_easy:sk <- $r9
	pushq	%r15
	.cfi_def_cfa_offset 16
	pushq	%r14
	.cfi_def_cfa_offset 24
	pushq	%r13
	.cfi_def_cfa_offset 32
	pushq	%r12
	.cfi_def_cfa_offset 40
	pushq	%rbx
	.cfi_def_cfa_offset 48
	subq	$80, %rsp
	.cfi_def_cfa_offset 128
	.cfi_offset %rbx, -48
	.cfi_offset %r12, -40
	.cfi_offset %r13, -32
	.cfi_offset %r14, -24
	.cfi_offset %r15, -16
	movq	%fs:40, %rax
	movq	%rax, 72(%rsp)
.Ltmp62:
	.loc	1 102 14 prologue_end           # crypto_box/curve25519xchacha20poly1305/box_curve25519xchacha20poly1305.c:102:14
	cmpq	$-16, %rdx
	jae	.LBB6_7
.Ltmp63:
# %bb.1:
	#DEBUG_VALUE: crypto_box_curve25519xchacha20poly1305_easy:c <- $rdi
	#DEBUG_VALUE: crypto_box_curve25519xchacha20poly1305_easy:m <- $rsi
	#DEBUG_VALUE: crypto_box_curve25519xchacha20poly1305_easy:mlen <- $rdx
	#DEBUG_VALUE: crypto_box_curve25519xchacha20poly1305_easy:n <- $rcx
	#DEBUG_VALUE: crypto_box_curve25519xchacha20poly1305_easy:pk <- $r8
	#DEBUG_VALUE: crypto_box_curve25519xchacha20poly1305_easy:sk <- $r9
	.loc	1 0 14 is_stmt 0                # crypto_box/curve25519xchacha20poly1305/box_curve25519xchacha20poly1305.c:0:14
	movq	%rcx, %rbx
	movq	%rdx, %r14
	movq	%rsi, %r15
	movq	%rdi, %r12
.Ltmp64:
	#DEBUG_VALUE: crypto_box_curve25519xchacha20poly1305_detached:c <- undef
	#DEBUG_VALUE: crypto_box_curve25519xchacha20poly1305_detached:k <- [DW_OP_deref] $rsp
	#DEBUG_VALUE: crypto_box_curve25519xchacha20poly1305_detached:mac <- $r12
	#DEBUG_VALUE: crypto_box_curve25519xchacha20poly1305_detached:m <- $r15
	#DEBUG_VALUE: crypto_box_curve25519xchacha20poly1305_detached:mlen <- $r14
	#DEBUG_VALUE: crypto_box_curve25519xchacha20poly1305_detached:n <- $rbx
	#DEBUG_VALUE: crypto_box_curve25519xchacha20poly1305_detached:pk <- $r8
	#DEBUG_VALUE: crypto_box_curve25519xchacha20poly1305_detached:sk <- $r9
	#DEBUG_VALUE: crypto_box_curve25519xchacha20poly1305_beforenm:s <- [DW_OP_plus_uconst 32, DW_OP_deref] $rsp
	#DEBUG_VALUE: crypto_box_curve25519xchacha20poly1305_beforenm:k <- $rsp
	#DEBUG_VALUE: crypto_box_curve25519xchacha20poly1305_beforenm:pk <- $r8
	#DEBUG_VALUE: crypto_box_curve25519xchacha20poly1305_beforenm:sk <- $r9
	leaq	32(%rsp), %rdi
.Ltmp65:
	#DEBUG_VALUE: crypto_box_curve25519xchacha20poly1305_easy:c <- $r12
	.loc	1 48 9 is_stmt 1                # crypto_box/curve25519xchacha20poly1305/box_curve25519xchacha20poly1305.c:48:9 @[ crypto_box/curve25519xchacha20poly1305/box_curve25519xchacha20poly1305.c:73:9 @[ crypto_box/curve25519xchacha20poly1305/box_curve25519xchacha20poly1305.c:105:12 ] ]
	movq	%r9, %rsi
.Ltmp66:
	#DEBUG_VALUE: crypto_box_curve25519xchacha20poly1305_easy:m <- $r15
	movq	%r8, %rdx
.Ltmp67:
	#DEBUG_VALUE: crypto_box_curve25519xchacha20poly1305_easy:mlen <- $r14
	callq	crypto_scalarmult_curve25519@PLT
.Ltmp68:
	#DEBUG_VALUE: crypto_box_curve25519xchacha20poly1305_easy:sk <- [DW_OP_LLVM_entry_value 1] $r9
	#DEBUG_VALUE: crypto_box_curve25519xchacha20poly1305_easy:pk <- [DW_OP_LLVM_entry_value 1] $r8
	#DEBUG_VALUE: crypto_box_curve25519xchacha20poly1305_easy:n <- $rbx
	.loc	1 48 49 is_stmt 0               # crypto_box/curve25519xchacha20poly1305/box_curve25519xchacha20poly1305.c:48:49 @[ crypto_box/curve25519xchacha20poly1305/box_curve25519xchacha20poly1305.c:73:9 @[ crypto_box/curve25519xchacha20poly1305/box_curve25519xchacha20poly1305.c:105:12 ] ]
	testl	%eax, %eax
	je	.LBB6_3
.Ltmp69:
# %bb.2:                                # %crypto_box_curve25519xchacha20poly1305_beforenm.exit.thread.i
	#DEBUG_VALUE: crypto_box_curve25519xchacha20poly1305_easy:c <- $r12
	#DEBUG_VALUE: crypto_box_curve25519xchacha20poly1305_easy:m <- $r15
	#DEBUG_VALUE: crypto_box_curve25519xchacha20poly1305_easy:mlen <- $r14
	#DEBUG_VALUE: crypto_box_curve25519xchacha20poly1305_easy:n <- $rbx
	#DEBUG_VALUE: crypto_box_curve25519xchacha20poly1305_easy:pk <- [DW_OP_LLVM_entry_value 1] $r8
	#DEBUG_VALUE: crypto_box_curve25519xchacha20poly1305_easy:sk <- [DW_OP_LLVM_entry_value 1] $r9
	#DEBUG_VALUE: crypto_box_curve25519xchacha20poly1305_detached:k <- [DW_OP_deref] $rsp
	#DEBUG_VALUE: crypto_box_curve25519xchacha20poly1305_detached:mac <- $r12
	#DEBUG_VALUE: crypto_box_curve25519xchacha20poly1305_detached:m <- $r15
	#DEBUG_VALUE: crypto_box_curve25519xchacha20poly1305_detached:mlen <- $r14
	#DEBUG_VALUE: crypto_box_curve25519xchacha20poly1305_detached:n <- $rbx
	.loc	1 0 49                          # crypto_box/curve25519xchacha20poly1305/box_curve25519xchacha20poly1305.c:0:49
	movl	$-1, %eax
	.loc	1 73 68 is_stmt 1               # crypto_box/curve25519xchacha20poly1305/box_curve25519xchacha20poly1305.c:73:68 @[ crypto_box/curve25519xchacha20poly1305/box_curve25519xchacha20poly1305.c:105:12 ]
	jmp	.LBB6_5
.Ltmp70:
.LBB6_3:                                # %crypto_box_curve25519xchacha20poly1305_beforenm.exit.i
	#DEBUG_VALUE: crypto_box_curve25519xchacha20poly1305_easy:c <- $r12
	#DEBUG_VALUE: crypto_box_curve25519xchacha20poly1305_easy:m <- $r15
	#DEBUG_VALUE: crypto_box_curve25519xchacha20poly1305_easy:mlen <- $r14
	#DEBUG_VALUE: crypto_box_curve25519xchacha20poly1305_easy:n <- $rbx
	#DEBUG_VALUE: crypto_box_curve25519xchacha20poly1305_easy:pk <- [DW_OP_LLVM_entry_value 1] $r8
	#DEBUG_VALUE: crypto_box_curve25519xchacha20poly1305_easy:sk <- [DW_OP_LLVM_entry_value 1] $r9
	#DEBUG_VALUE: crypto_box_curve25519xchacha20poly1305_detached:k <- [DW_OP_deref] $rsp
	#DEBUG_VALUE: crypto_box_curve25519xchacha20poly1305_detached:mac <- $r12
	#DEBUG_VALUE: crypto_box_curve25519xchacha20poly1305_detached:m <- $r15
	#DEBUG_VALUE: crypto_box_curve25519xchacha20poly1305_detached:mlen <- $r14
	#DEBUG_VALUE: crypto_box_curve25519xchacha20poly1305_detached:n <- $rbx
	#DEBUG_VALUE: crypto_box_curve25519xchacha20poly1305_beforenm:s <- [DW_OP_plus_uconst 32, DW_OP_deref] $rsp
	#DEBUG_VALUE: crypto_box_curve25519xchacha20poly1305_beforenm:k <- $rsp
	.loc	1 51 12                         # crypto_box/curve25519xchacha20poly1305/box_curve25519xchacha20poly1305.c:51:12 @[ crypto_box/curve25519xchacha20poly1305/box_curve25519xchacha20poly1305.c:73:9 @[ crypto_box/curve25519xchacha20poly1305/box_curve25519xchacha20poly1305.c:105:12 ] ]
	leaq	crypto_box_curve25519xchacha20poly1305_beforenm.zero(%rip), %rsi
	movq	%rsp, %rdi
	leaq	32(%rsp), %rdx
	xorl	%ecx, %ecx
	callq	crypto_core_hchacha20@PLT
.Ltmp71:
	movl	%eax, %ecx
	movl	$-1, %eax
.Ltmp72:
	.loc	1 73 68                         # crypto_box/curve25519xchacha20poly1305/box_curve25519xchacha20poly1305.c:73:68 @[ crypto_box/curve25519xchacha20poly1305/box_curve25519xchacha20poly1305.c:105:12 ]
	testl	%ecx, %ecx
	jne	.LBB6_5
.Ltmp73:
# %bb.4:
	#DEBUG_VALUE: crypto_box_curve25519xchacha20poly1305_easy:c <- $r12
	#DEBUG_VALUE: crypto_box_curve25519xchacha20poly1305_easy:m <- $r15
	#DEBUG_VALUE: crypto_box_curve25519xchacha20poly1305_easy:mlen <- $r14
	#DEBUG_VALUE: crypto_box_curve25519xchacha20poly1305_easy:n <- $rbx
	#DEBUG_VALUE: crypto_box_curve25519xchacha20poly1305_easy:pk <- [DW_OP_LLVM_entry_value 1] $r8
	#DEBUG_VALUE: crypto_box_curve25519xchacha20poly1305_easy:sk <- [DW_OP_LLVM_entry_value 1] $r9
	#DEBUG_VALUE: crypto_box_curve25519xchacha20poly1305_detached:k <- [DW_OP_deref] $rsp
	#DEBUG_VALUE: crypto_box_curve25519xchacha20poly1305_detached:mac <- $r12
	#DEBUG_VALUE: crypto_box_curve25519xchacha20poly1305_detached:m <- $r15
	#DEBUG_VALUE: crypto_box_curve25519xchacha20poly1305_detached:mlen <- $r14
	#DEBUG_VALUE: crypto_box_curve25519xchacha20poly1305_detached:n <- $rbx
	.loc	1 0 0 is_stmt 0                 # crypto_box/curve25519xchacha20poly1305/box_curve25519xchacha20poly1305.c:0
	leaq	16(%r12), %rdi
.Ltmp74:
	#DEBUG_VALUE: crypto_box_curve25519xchacha20poly1305_detached:c <- $rdi
	#DEBUG_VALUE: crypto_box_curve25519xchacha20poly1305_detached_afternm:c <- $rdi
	#DEBUG_VALUE: crypto_box_curve25519xchacha20poly1305_detached_afternm:mac <- $r12
	#DEBUG_VALUE: crypto_box_curve25519xchacha20poly1305_detached_afternm:m <- $r15
	#DEBUG_VALUE: crypto_box_curve25519xchacha20poly1305_detached_afternm:mlen <- $r14
	#DEBUG_VALUE: crypto_box_curve25519xchacha20poly1305_detached_afternm:n <- $rbx
	#DEBUG_VALUE: crypto_box_curve25519xchacha20poly1305_detached_afternm:k <- $rsp
	movq	%rsp, %r13
.Ltmp75:
	.loc	1 59 12 is_stmt 1               # crypto_box/curve25519xchacha20poly1305/box_curve25519xchacha20poly1305.c:59:12 @[ crypto_box/curve25519xchacha20poly1305/box_curve25519xchacha20poly1305.c:76:11 @[ crypto_box/curve25519xchacha20poly1305/box_curve25519xchacha20poly1305.c:105:12 ] ]
	movq	%r12, %rsi
	movq	%r15, %rdx
	movq	%r14, %rcx
	movq	%rbx, %r8
	movq	%r13, %r9
	callq	crypto_secretbox_xchacha20poly1305_detached@PLT
.Ltmp76:
	movl	%eax, %ebx
.Ltmp77:
	#DEBUG_VALUE: crypto_box_curve25519xchacha20poly1305_easy:n <- [DW_OP_LLVM_entry_value 1] $rcx
	#DEBUG_VALUE: crypto_box_curve25519xchacha20poly1305_detached:ret <- $ebx
	.loc	1 78 5                          # crypto_box/curve25519xchacha20poly1305/box_curve25519xchacha20poly1305.c:78:5 @[ crypto_box/curve25519xchacha20poly1305/box_curve25519xchacha20poly1305.c:105:12 ]
	movl	$32, %esi
	movq	%r13, %rdi
	callq	sodium_memzero@PLT
.Ltmp78:
	.loc	1 0 5 is_stmt 0                 # crypto_box/curve25519xchacha20poly1305/box_curve25519xchacha20poly1305.c:0:5
	movl	%ebx, %eax
.Ltmp79:
.LBB6_5:                                # %crypto_box_curve25519xchacha20poly1305_detached.exit
	#DEBUG_VALUE: crypto_box_curve25519xchacha20poly1305_easy:c <- $r12
	#DEBUG_VALUE: crypto_box_curve25519xchacha20poly1305_easy:m <- $r15
	#DEBUG_VALUE: crypto_box_curve25519xchacha20poly1305_easy:mlen <- $r14
	#DEBUG_VALUE: crypto_box_curve25519xchacha20poly1305_easy:n <- [DW_OP_LLVM_entry_value 1] $rcx
	#DEBUG_VALUE: crypto_box_curve25519xchacha20poly1305_easy:pk <- [DW_OP_LLVM_entry_value 1] $r8
	#DEBUG_VALUE: crypto_box_curve25519xchacha20poly1305_easy:sk <- [DW_OP_LLVM_entry_value 1] $r9
	.loc	1 105 5 is_stmt 1               # crypto_box/curve25519xchacha20poly1305/box_curve25519xchacha20poly1305.c:105:5
	movq	%fs:40, %rcx
	cmpq	72(%rsp), %rcx
	jne	.LBB6_6
.Ltmp80:
# %bb.8:                                # %SP_return
	#DEBUG_VALUE: crypto_box_curve25519xchacha20poly1305_easy:c <- $r12
	#DEBUG_VALUE: crypto_box_curve25519xchacha20poly1305_easy:m <- $r15
	#DEBUG_VALUE: crypto_box_curve25519xchacha20poly1305_easy:mlen <- $r14
	#DEBUG_VALUE: crypto_box_curve25519xchacha20poly1305_easy:n <- [DW_OP_LLVM_entry_value 1] $rcx
	#DEBUG_VALUE: crypto_box_curve25519xchacha20poly1305_easy:pk <- [DW_OP_LLVM_entry_value 1] $r8
	#DEBUG_VALUE: crypto_box_curve25519xchacha20poly1305_easy:sk <- [DW_OP_LLVM_entry_value 1] $r9
	.loc	1 105 5 epilogue_begin is_stmt 0 # crypto_box/curve25519xchacha20poly1305/box_curve25519xchacha20poly1305.c:105:5
	addq	$80, %rsp
	.cfi_def_cfa_offset 48
	popq	%rbx
	.cfi_def_cfa_offset 40
	popq	%r12
.Ltmp81:
	#DEBUG_VALUE: crypto_box_curve25519xchacha20poly1305_easy:c <- [DW_OP_LLVM_entry_value 1] $rdi
	.cfi_def_cfa_offset 32
	popq	%r13
	.cfi_def_cfa_offset 24
	popq	%r14
.Ltmp82:
	#DEBUG_VALUE: crypto_box_curve25519xchacha20poly1305_easy:mlen <- [DW_OP_LLVM_entry_value 1] $rdx
	.cfi_def_cfa_offset 16
	popq	%r15
.Ltmp83:
	#DEBUG_VALUE: crypto_box_curve25519xchacha20poly1305_easy:m <- [DW_OP_LLVM_entry_value 1] $rsi
	.cfi_def_cfa_offset 8
	retq
.Ltmp84:
.LBB6_7:
	.cfi_def_cfa_offset 128
	#DEBUG_VALUE: crypto_box_curve25519xchacha20poly1305_easy:c <- $rdi
	#DEBUG_VALUE: crypto_box_curve25519xchacha20poly1305_easy:m <- $rsi
	#DEBUG_VALUE: crypto_box_curve25519xchacha20poly1305_easy:mlen <- $rdx
	#DEBUG_VALUE: crypto_box_curve25519xchacha20poly1305_easy:n <- $rcx
	#DEBUG_VALUE: crypto_box_curve25519xchacha20poly1305_easy:pk <- $r8
	#DEBUG_VALUE: crypto_box_curve25519xchacha20poly1305_easy:sk <- $r9
	.loc	1 103 9 is_stmt 1               # crypto_box/curve25519xchacha20poly1305/box_curve25519xchacha20poly1305.c:103:9
	callq	sodium_misuse@PLT
.Ltmp85:
	#DEBUG_VALUE: crypto_box_curve25519xchacha20poly1305_easy:sk <- [DW_OP_LLVM_entry_value 1] $r9
	#DEBUG_VALUE: crypto_box_curve25519xchacha20poly1305_easy:pk <- [DW_OP_LLVM_entry_value 1] $r8
	#DEBUG_VALUE: crypto_box_curve25519xchacha20poly1305_easy:n <- [DW_OP_LLVM_entry_value 1] $rcx
	#DEBUG_VALUE: crypto_box_curve25519xchacha20poly1305_easy:mlen <- [DW_OP_LLVM_entry_value 1] $rdx
	#DEBUG_VALUE: crypto_box_curve25519xchacha20poly1305_easy:m <- [DW_OP_LLVM_entry_value 1] $rsi
	#DEBUG_VALUE: crypto_box_curve25519xchacha20poly1305_easy:c <- [DW_OP_LLVM_entry_value 1] $rdi
.LBB6_6:                                # %CallStackCheckFailBlk
	#DEBUG_VALUE: crypto_box_curve25519xchacha20poly1305_easy:c <- $r12
	#DEBUG_VALUE: crypto_box_curve25519xchacha20poly1305_easy:m <- $r15
	#DEBUG_VALUE: crypto_box_curve25519xchacha20poly1305_easy:mlen <- $r14
	#DEBUG_VALUE: crypto_box_curve25519xchacha20poly1305_easy:n <- [DW_OP_LLVM_entry_value 1] $rcx
	#DEBUG_VALUE: crypto_box_curve25519xchacha20poly1305_easy:pk <- [DW_OP_LLVM_entry_value 1] $r8
	#DEBUG_VALUE: crypto_box_curve25519xchacha20poly1305_easy:sk <- [DW_OP_LLVM_entry_value 1] $r9
	.loc	1 0 0 is_stmt 0                 # crypto_box/curve25519xchacha20poly1305/box_curve25519xchacha20poly1305.c:0
	callq	__stack_chk_fail@PLT
.Ltmp86:
.Lfunc_end6:
	.size	crypto_box_curve25519xchacha20poly1305_easy, .Lfunc_end6-crypto_box_curve25519xchacha20poly1305_easy
	.cfi_endproc
                                        # -- End function
	.globl	crypto_box_curve25519xchacha20poly1305_open_detached_afternm # -- Begin function crypto_box_curve25519xchacha20poly1305_open_detached_afternm
	.p2align	4
	.type	crypto_box_curve25519xchacha20poly1305_open_detached_afternm,@function
crypto_box_curve25519xchacha20poly1305_open_detached_afternm: # @crypto_box_curve25519xchacha20poly1305_open_detached_afternm
.Lfunc_begin7:
	.cfi_startproc
# %bb.0:
	#DEBUG_VALUE: crypto_box_curve25519xchacha20poly1305_open_detached_afternm:m <- $rdi
	#DEBUG_VALUE: crypto_box_curve25519xchacha20poly1305_open_detached_afternm:c <- $rsi
	#DEBUG_VALUE: crypto_box_curve25519xchacha20poly1305_open_detached_afternm:mac <- $rdx
	#DEBUG_VALUE: crypto_box_curve25519xchacha20poly1305_open_detached_afternm:clen <- $rcx
	#DEBUG_VALUE: crypto_box_curve25519xchacha20poly1305_open_detached_afternm:n <- $r8
	#DEBUG_VALUE: crypto_box_curve25519xchacha20poly1305_open_detached_afternm:k <- $r9
	.loc	1 115 12 prologue_end is_stmt 1 # crypto_box/curve25519xchacha20poly1305/box_curve25519xchacha20poly1305.c:115:12
	jmp	crypto_secretbox_xchacha20poly1305_open_detached@PLT # TAILCALL
.Ltmp87:
.Lfunc_end7:
	.size	crypto_box_curve25519xchacha20poly1305_open_detached_afternm, .Lfunc_end7-crypto_box_curve25519xchacha20poly1305_open_detached_afternm
	.cfi_endproc
                                        # -- End function
	.globl	crypto_box_curve25519xchacha20poly1305_open_detached # -- Begin function crypto_box_curve25519xchacha20poly1305_open_detached
	.p2align	4
	.type	crypto_box_curve25519xchacha20poly1305_open_detached,@function
crypto_box_curve25519xchacha20poly1305_open_detached: # @crypto_box_curve25519xchacha20poly1305_open_detached
.Lfunc_begin8:
	.loc	1 124 0                         # crypto_box/curve25519xchacha20poly1305/box_curve25519xchacha20poly1305.c:124:0
	.cfi_startproc
# %bb.0:
	#DEBUG_VALUE: crypto_box_curve25519xchacha20poly1305_open_detached:m <- $rdi
	#DEBUG_VALUE: crypto_box_curve25519xchacha20poly1305_open_detached:c <- $rsi
	#DEBUG_VALUE: crypto_box_curve25519xchacha20poly1305_open_detached:mac <- $rdx
	#DEBUG_VALUE: crypto_box_curve25519xchacha20poly1305_open_detached:clen <- $rcx
	#DEBUG_VALUE: crypto_box_curve25519xchacha20poly1305_open_detached:n <- $r8
	#DEBUG_VALUE: crypto_box_curve25519xchacha20poly1305_open_detached:pk <- $r9
	pushq	%rbp
	.cfi_def_cfa_offset 16
	pushq	%r15
	.cfi_def_cfa_offset 24
	pushq	%r14
	.cfi_def_cfa_offset 32
	pushq	%r13
	.cfi_def_cfa_offset 40
	pushq	%r12
	.cfi_def_cfa_offset 48
	pushq	%rbx
	.cfi_def_cfa_offset 56
	subq	$72, %rsp
	.cfi_def_cfa_offset 128
	.cfi_offset %rbx, -56
	.cfi_offset %r12, -48
	.cfi_offset %r13, -40
	.cfi_offset %r14, -32
	.cfi_offset %r15, -24
	.cfi_offset %rbp, -16
.Ltmp88:
	#DEBUG_VALUE: crypto_box_curve25519xchacha20poly1305_open_detached:sk <- [DW_OP_plus_uconst 128] [$rsp+0]
	movq	%r8, %rbx
	movq	%rcx, %r14
	movq	%rdx, %r15
	movq	%rsi, %r12
	movq	%rdi, %r13
	movq	128(%rsp), %rsi
.Ltmp89:
	#DEBUG_VALUE: crypto_box_curve25519xchacha20poly1305_open_detached:c <- $r12
	#DEBUG_VALUE: crypto_box_curve25519xchacha20poly1305_beforenm:pk <- $r9
	movq	%fs:40, %rax
	movq	%rax, 64(%rsp)
.Ltmp90:
	#DEBUG_VALUE: crypto_box_curve25519xchacha20poly1305_beforenm:s <- [DW_OP_plus_uconst 32, DW_OP_deref] $rsp
	#DEBUG_VALUE: crypto_box_curve25519xchacha20poly1305_beforenm:k <- $rsp
	#DEBUG_VALUE: crypto_box_curve25519xchacha20poly1305_beforenm:sk <- $rsi
	leaq	32(%rsp), %rdi
.Ltmp91:
	#DEBUG_VALUE: crypto_box_curve25519xchacha20poly1305_open_detached:m <- $r13
	.loc	1 48 9 prologue_end             # crypto_box/curve25519xchacha20poly1305/box_curve25519xchacha20poly1305.c:48:9 @[ crypto_box/curve25519xchacha20poly1305/box_curve25519xchacha20poly1305.c:128:9 ]
	movq	%r9, %rdx
.Ltmp92:
	#DEBUG_VALUE: crypto_box_curve25519xchacha20poly1305_open_detached:mac <- $r15
	callq	crypto_scalarmult_curve25519@PLT
.Ltmp93:
	#DEBUG_VALUE: crypto_box_curve25519xchacha20poly1305_open_detached:pk <- [DW_OP_LLVM_entry_value 1] $r9
	#DEBUG_VALUE: crypto_box_curve25519xchacha20poly1305_open_detached:n <- $rbx
	#DEBUG_VALUE: crypto_box_curve25519xchacha20poly1305_open_detached:clen <- $r14
	.loc	1 48 49 is_stmt 0               # crypto_box/curve25519xchacha20poly1305/box_curve25519xchacha20poly1305.c:48:49 @[ crypto_box/curve25519xchacha20poly1305/box_curve25519xchacha20poly1305.c:128:9 ]
	testl	%eax, %eax
	je	.LBB8_2
.Ltmp94:
# %bb.1:                                # %crypto_box_curve25519xchacha20poly1305_beforenm.exit.thread
	#DEBUG_VALUE: crypto_box_curve25519xchacha20poly1305_open_detached:m <- $r13
	#DEBUG_VALUE: crypto_box_curve25519xchacha20poly1305_open_detached:c <- $r12
	#DEBUG_VALUE: crypto_box_curve25519xchacha20poly1305_open_detached:mac <- $r15
	#DEBUG_VALUE: crypto_box_curve25519xchacha20poly1305_open_detached:clen <- $r14
	#DEBUG_VALUE: crypto_box_curve25519xchacha20poly1305_open_detached:n <- $rbx
	#DEBUG_VALUE: crypto_box_curve25519xchacha20poly1305_open_detached:pk <- [DW_OP_LLVM_entry_value 1] $r9
	#DEBUG_VALUE: crypto_box_curve25519xchacha20poly1305_open_detached:sk <- [DW_OP_plus_uconst 128] [$rsp+0]
	.loc	1 0 49                          # crypto_box/curve25519xchacha20poly1305/box_curve25519xchacha20poly1305.c:0:49
	movl	$-1, %eax
	.loc	1 128 68 is_stmt 1              # crypto_box/curve25519xchacha20poly1305/box_curve25519xchacha20poly1305.c:128:68
	jmp	.LBB8_4
.Ltmp95:
.LBB8_2:                                # %crypto_box_curve25519xchacha20poly1305_beforenm.exit
	#DEBUG_VALUE: crypto_box_curve25519xchacha20poly1305_open_detached:m <- $r13
	#DEBUG_VALUE: crypto_box_curve25519xchacha20poly1305_open_detached:c <- $r12
	#DEBUG_VALUE: crypto_box_curve25519xchacha20poly1305_open_detached:mac <- $r15
	#DEBUG_VALUE: crypto_box_curve25519xchacha20poly1305_open_detached:clen <- $r14
	#DEBUG_VALUE: crypto_box_curve25519xchacha20poly1305_open_detached:n <- $rbx
	#DEBUG_VALUE: crypto_box_curve25519xchacha20poly1305_open_detached:pk <- [DW_OP_LLVM_entry_value 1] $r9
	#DEBUG_VALUE: crypto_box_curve25519xchacha20poly1305_open_detached:sk <- [DW_OP_plus_uconst 128] [$rsp+0]
	#DEBUG_VALUE: crypto_box_curve25519xchacha20poly1305_beforenm:s <- [DW_OP_plus_uconst 32, DW_OP_deref] $rsp
	#DEBUG_VALUE: crypto_box_curve25519xchacha20poly1305_beforenm:k <- $rsp
	.loc	1 51 12                         # crypto_box/curve25519xchacha20poly1305/box_curve25519xchacha20poly1305.c:51:12 @[ crypto_box/curve25519xchacha20poly1305/box_curve25519xchacha20poly1305.c:128:9 ]
	leaq	crypto_box_curve25519xchacha20poly1305_beforenm.zero(%rip), %rsi
	movq	%rsp, %rdi
	leaq	32(%rsp), %rdx
	xorl	%ecx, %ecx
	callq	crypto_core_hchacha20@PLT
.Ltmp96:
	movl	%eax, %ecx
	movl	$-1, %eax
.Ltmp97:
	.loc	1 128 68                        # crypto_box/curve25519xchacha20poly1305/box_curve25519xchacha20poly1305.c:128:68
	testl	%ecx, %ecx
	jne	.LBB8_4
.Ltmp98:
# %bb.3:
	#DEBUG_VALUE: crypto_box_curve25519xchacha20poly1305_open_detached:m <- $r13
	#DEBUG_VALUE: crypto_box_curve25519xchacha20poly1305_open_detached:c <- $r12
	#DEBUG_VALUE: crypto_box_curve25519xchacha20poly1305_open_detached:mac <- $r15
	#DEBUG_VALUE: crypto_box_curve25519xchacha20poly1305_open_detached:clen <- $r14
	#DEBUG_VALUE: crypto_box_curve25519xchacha20poly1305_open_detached:n <- $rbx
	#DEBUG_VALUE: crypto_box_curve25519xchacha20poly1305_open_detached:pk <- [DW_OP_LLVM_entry_value 1] $r9
	#DEBUG_VALUE: crypto_box_curve25519xchacha20poly1305_open_detached:sk <- [DW_OP_plus_uconst 128] [$rsp+0]
	#DEBUG_VALUE: crypto_box_curve25519xchacha20poly1305_open_detached_afternm:m <- $r13
	#DEBUG_VALUE: crypto_box_curve25519xchacha20poly1305_open_detached_afternm:c <- $r12
	#DEBUG_VALUE: crypto_box_curve25519xchacha20poly1305_open_detached_afternm:mac <- $r15
	#DEBUG_VALUE: crypto_box_curve25519xchacha20poly1305_open_detached_afternm:clen <- $r14
	#DEBUG_VALUE: crypto_box_curve25519xchacha20poly1305_open_detached_afternm:n <- $rbx
	#DEBUG_VALUE: crypto_box_curve25519xchacha20poly1305_open_detached_afternm:k <- $rsp
	.loc	1 0 68 is_stmt 0                # crypto_box/curve25519xchacha20poly1305/box_curve25519xchacha20poly1305.c:0:68
	movq	%rsp, %rbp
.Ltmp99:
	.loc	1 115 12 is_stmt 1              # crypto_box/curve25519xchacha20poly1305/box_curve25519xchacha20poly1305.c:115:12 @[ crypto_box/curve25519xchacha20poly1305/box_curve25519xchacha20poly1305.c:131:11 ]
	movq	%r13, %rdi
	movq	%r12, %rsi
	movq	%r15, %rdx
	movq	%r14, %rcx
	movq	%rbx, %r8
	movq	%rbp, %r9
	callq	crypto_secretbox_xchacha20poly1305_open_detached@PLT
.Ltmp100:
	movl	%eax, %ebx
.Ltmp101:
	#DEBUG_VALUE: crypto_box_curve25519xchacha20poly1305_open_detached:n <- [DW_OP_LLVM_entry_value 1] $r8
	#DEBUG_VALUE: crypto_box_curve25519xchacha20poly1305_open_detached:ret <- $ebx
	.loc	1 133 5                         # crypto_box/curve25519xchacha20poly1305/box_curve25519xchacha20poly1305.c:133:5
	movl	$32, %esi
	movq	%rbp, %rdi
	callq	sodium_memzero@PLT
.Ltmp102:
	.loc	1 0 5 is_stmt 0                 # crypto_box/curve25519xchacha20poly1305/box_curve25519xchacha20poly1305.c:0:5
	movl	%ebx, %eax
.Ltmp103:
.LBB8_4:
	#DEBUG_VALUE: crypto_box_curve25519xchacha20poly1305_open_detached:m <- $r13
	#DEBUG_VALUE: crypto_box_curve25519xchacha20poly1305_open_detached:c <- $r12
	#DEBUG_VALUE: crypto_box_curve25519xchacha20poly1305_open_detached:mac <- $r15
	#DEBUG_VALUE: crypto_box_curve25519xchacha20poly1305_open_detached:clen <- $r14
	#DEBUG_VALUE: crypto_box_curve25519xchacha20poly1305_open_detached:n <- [DW_OP_LLVM_entry_value 1] $r8
	#DEBUG_VALUE: crypto_box_curve25519xchacha20poly1305_open_detached:pk <- [DW_OP_LLVM_entry_value 1] $r9
	#DEBUG_VALUE: crypto_box_curve25519xchacha20poly1305_open_detached:sk <- [DW_OP_plus_uconst 128] [$rsp+0]
	.loc	1 136 1 is_stmt 1               # crypto_box/curve25519xchacha20poly1305/box_curve25519xchacha20poly1305.c:136:1
	movq	%fs:40, %rcx
	cmpq	64(%rsp), %rcx
	jne	.LBB8_6
.Ltmp104:
# %bb.5:                                # %SP_return
	#DEBUG_VALUE: crypto_box_curve25519xchacha20poly1305_open_detached:m <- $r13
	#DEBUG_VALUE: crypto_box_curve25519xchacha20poly1305_open_detached:c <- $r12
	#DEBUG_VALUE: crypto_box_curve25519xchacha20poly1305_open_detached:mac <- $r15
	#DEBUG_VALUE: crypto_box_curve25519xchacha20poly1305_open_detached:clen <- $r14
	#DEBUG_VALUE: crypto_box_curve25519xchacha20poly1305_open_detached:n <- [DW_OP_LLVM_entry_value 1] $r8
	#DEBUG_VALUE: crypto_box_curve25519xchacha20poly1305_open_detached:pk <- [DW_OP_LLVM_entry_value 1] $r9
	#DEBUG_VALUE: crypto_box_curve25519xchacha20poly1305_open_detached:sk <- [DW_OP_plus_uconst 128] [$rsp+0]
	.loc	1 136 1 epilogue_begin is_stmt 0 # crypto_box/curve25519xchacha20poly1305/box_curve25519xchacha20poly1305.c:136:1
	addq	$72, %rsp
	.cfi_def_cfa_offset 56
	popq	%rbx
	.cfi_def_cfa_offset 48
	popq	%r12
.Ltmp105:
	#DEBUG_VALUE: crypto_box_curve25519xchacha20poly1305_open_detached:c <- [DW_OP_LLVM_entry_value 1] $rsi
	.cfi_def_cfa_offset 40
	popq	%r13
.Ltmp106:
	#DEBUG_VALUE: crypto_box_curve25519xchacha20poly1305_open_detached:m <- [DW_OP_LLVM_entry_value 1] $rdi
	.cfi_def_cfa_offset 32
	popq	%r14
.Ltmp107:
	#DEBUG_VALUE: crypto_box_curve25519xchacha20poly1305_open_detached:clen <- [DW_OP_LLVM_entry_value 1] $rcx
	.cfi_def_cfa_offset 24
	popq	%r15
.Ltmp108:
	#DEBUG_VALUE: crypto_box_curve25519xchacha20poly1305_open_detached:mac <- [DW_OP_LLVM_entry_value 1] $rdx
	.cfi_def_cfa_offset 16
	popq	%rbp
	.cfi_def_cfa_offset 8
	retq
.Ltmp109:
.LBB8_6:                                # %CallStackCheckFailBlk
	.cfi_def_cfa_offset 128
	#DEBUG_VALUE: crypto_box_curve25519xchacha20poly1305_open_detached:m <- $r13
	#DEBUG_VALUE: crypto_box_curve25519xchacha20poly1305_open_detached:c <- $r12
	#DEBUG_VALUE: crypto_box_curve25519xchacha20poly1305_open_detached:mac <- $r15
	#DEBUG_VALUE: crypto_box_curve25519xchacha20poly1305_open_detached:clen <- $r14
	#DEBUG_VALUE: crypto_box_curve25519xchacha20poly1305_open_detached:n <- [DW_OP_LLVM_entry_value 1] $r8
	#DEBUG_VALUE: crypto_box_curve25519xchacha20poly1305_open_detached:pk <- [DW_OP_LLVM_entry_value 1] $r9
	#DEBUG_VALUE: crypto_box_curve25519xchacha20poly1305_open_detached:sk <- [DW_OP_plus_uconst 128] [$rsp+0]
	.loc	1 0 0                           # crypto_box/curve25519xchacha20poly1305/box_curve25519xchacha20poly1305.c:0
	callq	__stack_chk_fail@PLT
.Ltmp110:
.Lfunc_end8:
	.size	crypto_box_curve25519xchacha20poly1305_open_detached, .Lfunc_end8-crypto_box_curve25519xchacha20poly1305_open_detached
	.cfi_endproc
                                        # -- End function
	.globl	crypto_box_curve25519xchacha20poly1305_open_easy_afternm # -- Begin function crypto_box_curve25519xchacha20poly1305_open_easy_afternm
	.p2align	4
	.type	crypto_box_curve25519xchacha20poly1305_open_easy_afternm,@function
crypto_box_curve25519xchacha20poly1305_open_easy_afternm: # @crypto_box_curve25519xchacha20poly1305_open_easy_afternm
.Lfunc_begin9:
	.loc	1 142 0 is_stmt 1               # crypto_box/curve25519xchacha20poly1305/box_curve25519xchacha20poly1305.c:142:0
	.cfi_startproc
# %bb.0:
	#DEBUG_VALUE: crypto_box_curve25519xchacha20poly1305_open_easy_afternm:m <- $rdi
	#DEBUG_VALUE: crypto_box_curve25519xchacha20poly1305_open_easy_afternm:c <- $rsi
	#DEBUG_VALUE: crypto_box_curve25519xchacha20poly1305_open_easy_afternm:clen <- $rdx
	#DEBUG_VALUE: crypto_box_curve25519xchacha20poly1305_open_easy_afternm:n <- $rcx
	#DEBUG_VALUE: crypto_box_curve25519xchacha20poly1305_open_easy_afternm:k <- $r8
	movq	%r8, %r9
	movq	%rcx, %r8
.Ltmp111:
	#DEBUG_VALUE: crypto_box_curve25519xchacha20poly1305_open_easy_afternm:k <- $r9
	movq	%rdx, %rcx
.Ltmp112:
	#DEBUG_VALUE: crypto_box_curve25519xchacha20poly1305_open_easy_afternm:n <- $r8
	.loc	1 143 14 prologue_end           # crypto_box/curve25519xchacha20poly1305/box_curve25519xchacha20poly1305.c:143:14
	cmpq	$16, %rdx
	jae	.LBB9_2
.Ltmp113:
# %bb.1:
	#DEBUG_VALUE: crypto_box_curve25519xchacha20poly1305_open_easy_afternm:m <- $rdi
	#DEBUG_VALUE: crypto_box_curve25519xchacha20poly1305_open_easy_afternm:c <- $rsi
	#DEBUG_VALUE: crypto_box_curve25519xchacha20poly1305_open_easy_afternm:clen <- $rdx
	#DEBUG_VALUE: crypto_box_curve25519xchacha20poly1305_open_easy_afternm:n <- $r8
	#DEBUG_VALUE: crypto_box_curve25519xchacha20poly1305_open_easy_afternm:k <- $r9
	.loc	1 149 1                         # crypto_box/curve25519xchacha20poly1305/box_curve25519xchacha20poly1305.c:149:1
	movl	$-1, %eax
	retq
.Ltmp114:
.LBB9_2:
	#DEBUG_VALUE: crypto_box_curve25519xchacha20poly1305_open_easy_afternm:m <- $rdi
	#DEBUG_VALUE: crypto_box_curve25519xchacha20poly1305_open_easy_afternm:c <- $rsi
	#DEBUG_VALUE: crypto_box_curve25519xchacha20poly1305_open_easy_afternm:clen <- $rdx
	#DEBUG_VALUE: crypto_box_curve25519xchacha20poly1305_open_easy_afternm:n <- $r8
	#DEBUG_VALUE: crypto_box_curve25519xchacha20poly1305_open_easy_afternm:k <- $r9
	.loc	1 0 1 is_stmt 0                 # crypto_box/curve25519xchacha20poly1305/box_curve25519xchacha20poly1305.c:0:1
	movq	%rsi, %rdx
.Ltmp115:
	#DEBUG_VALUE: crypto_box_curve25519xchacha20poly1305_open_easy_afternm:clen <- $rcx
	.loc	1 147 14 is_stmt 1              # crypto_box/curve25519xchacha20poly1305/box_curve25519xchacha20poly1305.c:147:14
	addq	$16, %rsi
.Ltmp116:
	#DEBUG_VALUE: crypto_box_curve25519xchacha20poly1305_open_easy_afternm:c <- $rdx
	.loc	1 148 14                        # crypto_box/curve25519xchacha20poly1305/box_curve25519xchacha20poly1305.c:148:14
	addq	$-16, %rcx
.Ltmp117:
	#DEBUG_VALUE: crypto_box_curve25519xchacha20poly1305_open_easy_afternm:clen <- [DW_OP_LLVM_entry_value 1] $rdx
	#DEBUG_VALUE: crypto_box_curve25519xchacha20poly1305_open_detached_afternm:clen <- $rcx
	#DEBUG_VALUE: crypto_box_curve25519xchacha20poly1305_open_detached_afternm:m <- $rdi
	#DEBUG_VALUE: crypto_box_curve25519xchacha20poly1305_open_detached_afternm:c <- $rsi
	#DEBUG_VALUE: crypto_box_curve25519xchacha20poly1305_open_detached_afternm:mac <- $rdx
	#DEBUG_VALUE: crypto_box_curve25519xchacha20poly1305_open_detached_afternm:n <- $r8
	#DEBUG_VALUE: crypto_box_curve25519xchacha20poly1305_open_detached_afternm:k <- $r9
	.loc	1 115 12                        # crypto_box/curve25519xchacha20poly1305/box_curve25519xchacha20poly1305.c:115:12 @[ crypto_box/curve25519xchacha20poly1305/box_curve25519xchacha20poly1305.c:146:12 ]
	jmp	crypto_secretbox_xchacha20poly1305_open_detached@PLT # TAILCALL
.Ltmp118:
.Lfunc_end9:
	.size	crypto_box_curve25519xchacha20poly1305_open_easy_afternm, .Lfunc_end9-crypto_box_curve25519xchacha20poly1305_open_easy_afternm
	.cfi_endproc
                                        # -- End function
	.globl	crypto_box_curve25519xchacha20poly1305_open_easy # -- Begin function crypto_box_curve25519xchacha20poly1305_open_easy
	.p2align	4
	.type	crypto_box_curve25519xchacha20poly1305_open_easy,@function
crypto_box_curve25519xchacha20poly1305_open_easy: # @crypto_box_curve25519xchacha20poly1305_open_easy
.Lfunc_begin10:
	.loc	1 155 0                         # crypto_box/curve25519xchacha20poly1305/box_curve25519xchacha20poly1305.c:155:0
	.cfi_startproc
# %bb.0:
	#DEBUG_VALUE: crypto_box_curve25519xchacha20poly1305_open_easy:m <- $rdi
	#DEBUG_VALUE: crypto_box_curve25519xchacha20poly1305_open_easy:c <- $rsi
	#DEBUG_VALUE: crypto_box_curve25519xchacha20poly1305_open_easy:clen <- $rdx
	#DEBUG_VALUE: crypto_box_curve25519xchacha20poly1305_open_easy:n <- $rcx
	#DEBUG_VALUE: crypto_box_curve25519xchacha20poly1305_open_easy:pk <- $r8
	#DEBUG_VALUE: crypto_box_curve25519xchacha20poly1305_open_easy:sk <- $r9
	pushq	%r15
	.cfi_def_cfa_offset 16
	pushq	%r14
	.cfi_def_cfa_offset 24
	pushq	%r12
	.cfi_def_cfa_offset 32
	pushq	%rbx
	.cfi_def_cfa_offset 40
	subq	$72, %rsp
	.cfi_def_cfa_offset 112
	.cfi_offset %rbx, -40
	.cfi_offset %r12, -32
	.cfi_offset %r14, -24
	.cfi_offset %r15, -16
	movq	%fs:40, %rax
	movq	%rax, 64(%rsp)
	movl	$-1, %eax
.Ltmp119:
	.loc	1 156 14 prologue_end           # crypto_box/curve25519xchacha20poly1305/box_curve25519xchacha20poly1305.c:156:14
	cmpq	$16, %rdx
	jb	.LBB10_5
.Ltmp120:
# %bb.1:
	#DEBUG_VALUE: crypto_box_curve25519xchacha20poly1305_open_easy:m <- $rdi
	#DEBUG_VALUE: crypto_box_curve25519xchacha20poly1305_open_easy:c <- $rsi
	#DEBUG_VALUE: crypto_box_curve25519xchacha20poly1305_open_easy:clen <- $rdx
	#DEBUG_VALUE: crypto_box_curve25519xchacha20poly1305_open_easy:n <- $rcx
	#DEBUG_VALUE: crypto_box_curve25519xchacha20poly1305_open_easy:pk <- $r8
	#DEBUG_VALUE: crypto_box_curve25519xchacha20poly1305_open_easy:sk <- $r9
	#DEBUG_VALUE: crypto_box_curve25519xchacha20poly1305_open_detached:clen <- undef
	#DEBUG_VALUE: crypto_box_curve25519xchacha20poly1305_open_detached:k <- [DW_OP_deref] $rsp
	#DEBUG_VALUE: crypto_box_curve25519xchacha20poly1305_open_detached:m <- $rdi
	#DEBUG_VALUE: crypto_box_curve25519xchacha20poly1305_open_detached:c <- undef
	#DEBUG_VALUE: crypto_box_curve25519xchacha20poly1305_open_detached:mac <- $rsi
	#DEBUG_VALUE: crypto_box_curve25519xchacha20poly1305_open_detached:n <- $rcx
	#DEBUG_VALUE: crypto_box_curve25519xchacha20poly1305_open_detached:pk <- $r8
	#DEBUG_VALUE: crypto_box_curve25519xchacha20poly1305_open_detached:sk <- $r9
	#DEBUG_VALUE: crypto_box_curve25519xchacha20poly1305_beforenm:s <- [DW_OP_plus_uconst 32, DW_OP_deref] $rsp
	#DEBUG_VALUE: crypto_box_curve25519xchacha20poly1305_beforenm:k <- $rsp
	#DEBUG_VALUE: crypto_box_curve25519xchacha20poly1305_beforenm:pk <- $r8
	#DEBUG_VALUE: crypto_box_curve25519xchacha20poly1305_beforenm:sk <- $r9
	.loc	1 0 14 is_stmt 0                # crypto_box/curve25519xchacha20poly1305/box_curve25519xchacha20poly1305.c:0:14
	movq	%rdi, %r14
.Ltmp121:
	#DEBUG_VALUE: crypto_box_curve25519xchacha20poly1305_open_detached:m <- $r14
	#DEBUG_VALUE: crypto_box_curve25519xchacha20poly1305_open_easy:m <- $r14
	movq	%rsi, %r12
.Ltmp122:
	#DEBUG_VALUE: crypto_box_curve25519xchacha20poly1305_open_detached:mac <- $r12
	#DEBUG_VALUE: crypto_box_curve25519xchacha20poly1305_open_easy:c <- $r12
	movq	%rdx, %r15
.Ltmp123:
	#DEBUG_VALUE: crypto_box_curve25519xchacha20poly1305_open_easy:clen <- $r15
	movq	%rcx, %rbx
.Ltmp124:
	#DEBUG_VALUE: crypto_box_curve25519xchacha20poly1305_open_detached:n <- $rbx
	#DEBUG_VALUE: crypto_box_curve25519xchacha20poly1305_open_easy:n <- $rbx
	leaq	32(%rsp), %rdi
.Ltmp125:
	.loc	1 48 9 is_stmt 1                # crypto_box/curve25519xchacha20poly1305/box_curve25519xchacha20poly1305.c:48:9 @[ crypto_box/curve25519xchacha20poly1305/box_curve25519xchacha20poly1305.c:128:9 @[ crypto_box/curve25519xchacha20poly1305/box_curve25519xchacha20poly1305.c:159:12 ] ]
	movq	%r9, %rsi
	movq	%r8, %rdx
	callq	crypto_scalarmult_curve25519@PLT
.Ltmp126:
	#DEBUG_VALUE: crypto_box_curve25519xchacha20poly1305_open_easy:sk <- [DW_OP_LLVM_entry_value 1] $r9
	#DEBUG_VALUE: crypto_box_curve25519xchacha20poly1305_open_easy:pk <- [DW_OP_LLVM_entry_value 1] $r8
	.loc	1 48 49 is_stmt 0               # crypto_box/curve25519xchacha20poly1305/box_curve25519xchacha20poly1305.c:48:49 @[ crypto_box/curve25519xchacha20poly1305/box_curve25519xchacha20poly1305.c:128:9 @[ crypto_box/curve25519xchacha20poly1305/box_curve25519xchacha20poly1305.c:159:12 ] ]
	testl	%eax, %eax
	je	.LBB10_3
.Ltmp127:
# %bb.2:                                # %crypto_box_curve25519xchacha20poly1305_beforenm.exit.thread.i
	#DEBUG_VALUE: crypto_box_curve25519xchacha20poly1305_open_easy:m <- $r14
	#DEBUG_VALUE: crypto_box_curve25519xchacha20poly1305_open_easy:c <- $r12
	#DEBUG_VALUE: crypto_box_curve25519xchacha20poly1305_open_easy:clen <- $r15
	#DEBUG_VALUE: crypto_box_curve25519xchacha20poly1305_open_easy:n <- $rbx
	#DEBUG_VALUE: crypto_box_curve25519xchacha20poly1305_open_easy:pk <- [DW_OP_LLVM_entry_value 1] $r8
	#DEBUG_VALUE: crypto_box_curve25519xchacha20poly1305_open_easy:sk <- [DW_OP_LLVM_entry_value 1] $r9
	#DEBUG_VALUE: crypto_box_curve25519xchacha20poly1305_open_detached:k <- [DW_OP_deref] $rsp
	#DEBUG_VALUE: crypto_box_curve25519xchacha20poly1305_open_detached:m <- $r14
	#DEBUG_VALUE: crypto_box_curve25519xchacha20poly1305_open_detached:mac <- $r12
	#DEBUG_VALUE: crypto_box_curve25519xchacha20poly1305_open_detached:n <- $rbx
	.loc	1 0 49                          # crypto_box/curve25519xchacha20poly1305/box_curve25519xchacha20poly1305.c:0:49
	movl	$-1, %eax
	.loc	1 128 68 is_stmt 1              # crypto_box/curve25519xchacha20poly1305/box_curve25519xchacha20poly1305.c:128:68 @[ crypto_box/curve25519xchacha20poly1305/box_curve25519xchacha20poly1305.c:159:12 ]
	jmp	.LBB10_5
.Ltmp128:
.LBB10_3:                               # %crypto_box_curve25519xchacha20poly1305_beforenm.exit.i
	#DEBUG_VALUE: crypto_box_curve25519xchacha20poly1305_open_easy:m <- $r14
	#DEBUG_VALUE: crypto_box_curve25519xchacha20poly1305_open_easy:c <- $r12
	#DEBUG_VALUE: crypto_box_curve25519xchacha20poly1305_open_easy:clen <- $r15
	#DEBUG_VALUE: crypto_box_curve25519xchacha20poly1305_open_easy:n <- $rbx
	#DEBUG_VALUE: crypto_box_curve25519xchacha20poly1305_open_easy:pk <- [DW_OP_LLVM_entry_value 1] $r8
	#DEBUG_VALUE: crypto_box_curve25519xchacha20poly1305_open_easy:sk <- [DW_OP_LLVM_entry_value 1] $r9
	#DEBUG_VALUE: crypto_box_curve25519xchacha20poly1305_open_detached:k <- [DW_OP_deref] $rsp
	#DEBUG_VALUE: crypto_box_curve25519xchacha20poly1305_open_detached:m <- $r14
	#DEBUG_VALUE: crypto_box_curve25519xchacha20poly1305_open_detached:mac <- $r12
	#DEBUG_VALUE: crypto_box_curve25519xchacha20poly1305_open_detached:n <- $rbx
	#DEBUG_VALUE: crypto_box_curve25519xchacha20poly1305_beforenm:s <- [DW_OP_plus_uconst 32, DW_OP_deref] $rsp
	#DEBUG_VALUE: crypto_box_curve25519xchacha20poly1305_beforenm:k <- $rsp
	.loc	1 51 12                         # crypto_box/curve25519xchacha20poly1305/box_curve25519xchacha20poly1305.c:51:12 @[ crypto_box/curve25519xchacha20poly1305/box_curve25519xchacha20poly1305.c:128:9 @[ crypto_box/curve25519xchacha20poly1305/box_curve25519xchacha20poly1305.c:159:12 ] ]
	leaq	crypto_box_curve25519xchacha20poly1305_beforenm.zero(%rip), %rsi
	movq	%rsp, %rdi
	leaq	32(%rsp), %rdx
	xorl	%ecx, %ecx
	callq	crypto_core_hchacha20@PLT
.Ltmp129:
	movl	%eax, %ecx
	movl	$-1, %eax
.Ltmp130:
	.loc	1 128 68                        # crypto_box/curve25519xchacha20poly1305/box_curve25519xchacha20poly1305.c:128:68 @[ crypto_box/curve25519xchacha20poly1305/box_curve25519xchacha20poly1305.c:159:12 ]
	testl	%ecx, %ecx
	jne	.LBB10_5
.Ltmp131:
# %bb.4:
	#DEBUG_VALUE: crypto_box_curve25519xchacha20poly1305_open_easy:m <- $r14
	#DEBUG_VALUE: crypto_box_curve25519xchacha20poly1305_open_easy:c <- $r12
	#DEBUG_VALUE: crypto_box_curve25519xchacha20poly1305_open_easy:clen <- $r15
	#DEBUG_VALUE: crypto_box_curve25519xchacha20poly1305_open_easy:n <- $rbx
	#DEBUG_VALUE: crypto_box_curve25519xchacha20poly1305_open_easy:pk <- [DW_OP_LLVM_entry_value 1] $r8
	#DEBUG_VALUE: crypto_box_curve25519xchacha20poly1305_open_easy:sk <- [DW_OP_LLVM_entry_value 1] $r9
	#DEBUG_VALUE: crypto_box_curve25519xchacha20poly1305_open_detached:k <- [DW_OP_deref] $rsp
	#DEBUG_VALUE: crypto_box_curve25519xchacha20poly1305_open_detached:m <- $r14
	#DEBUG_VALUE: crypto_box_curve25519xchacha20poly1305_open_detached:mac <- $r12
	#DEBUG_VALUE: crypto_box_curve25519xchacha20poly1305_open_detached:n <- $rbx
	.loc	1 0 68 is_stmt 0                # crypto_box/curve25519xchacha20poly1305/box_curve25519xchacha20poly1305.c:0:68
	movq	%r12, %rdx
	leaq	16(%r12), %rsi
.Ltmp132:
	#DEBUG_VALUE: crypto_box_curve25519xchacha20poly1305_open_detached:c <- $rsi
	movq	%r15, %rcx
	addq	$-16, %rcx
.Ltmp133:
	#DEBUG_VALUE: crypto_box_curve25519xchacha20poly1305_open_detached:clen <- $rcx
	#DEBUG_VALUE: crypto_box_curve25519xchacha20poly1305_open_detached_afternm:m <- $r14
	#DEBUG_VALUE: crypto_box_curve25519xchacha20poly1305_open_detached_afternm:c <- $rsi
	#DEBUG_VALUE: crypto_box_curve25519xchacha20poly1305_open_detached_afternm:mac <- $r12
	#DEBUG_VALUE: crypto_box_curve25519xchacha20poly1305_open_detached_afternm:clen <- $rcx
	#DEBUG_VALUE: crypto_box_curve25519xchacha20poly1305_open_detached_afternm:n <- $rbx
	#DEBUG_VALUE: crypto_box_curve25519xchacha20poly1305_open_detached_afternm:k <- $rsp
	movq	%rsp, %r15
.Ltmp134:
	#DEBUG_VALUE: crypto_box_curve25519xchacha20poly1305_open_easy:clen <- [DW_OP_LLVM_entry_value 1] $rdx
	.loc	1 115 12 is_stmt 1              # crypto_box/curve25519xchacha20poly1305/box_curve25519xchacha20poly1305.c:115:12 @[ crypto_box/curve25519xchacha20poly1305/box_curve25519xchacha20poly1305.c:131:11 @[ crypto_box/curve25519xchacha20poly1305/box_curve25519xchacha20poly1305.c:159:12 ] ]
	movq	%r14, %rdi
	movq	%rbx, %r8
	movq	%r15, %r9
	callq	crypto_secretbox_xchacha20poly1305_open_detached@PLT
.Ltmp135:
	movl	%eax, %ebx
.Ltmp136:
	#DEBUG_VALUE: crypto_box_curve25519xchacha20poly1305_open_easy:n <- [DW_OP_LLVM_entry_value 1] $rcx
	#DEBUG_VALUE: crypto_box_curve25519xchacha20poly1305_open_detached:ret <- $ebx
	.loc	1 133 5                         # crypto_box/curve25519xchacha20poly1305/box_curve25519xchacha20poly1305.c:133:5 @[ crypto_box/curve25519xchacha20poly1305/box_curve25519xchacha20poly1305.c:159:12 ]
	movl	$32, %esi
	movq	%r15, %rdi
	callq	sodium_memzero@PLT
.Ltmp137:
	.loc	1 0 5 is_stmt 0                 # crypto_box/curve25519xchacha20poly1305/box_curve25519xchacha20poly1305.c:0:5
	movl	%ebx, %eax
.Ltmp138:
.LBB10_5:
	#DEBUG_VALUE: crypto_box_curve25519xchacha20poly1305_open_easy:m <- [DW_OP_LLVM_entry_value 1] $rdi
	#DEBUG_VALUE: crypto_box_curve25519xchacha20poly1305_open_easy:c <- [DW_OP_LLVM_entry_value 1] $rsi
	#DEBUG_VALUE: crypto_box_curve25519xchacha20poly1305_open_easy:clen <- [DW_OP_LLVM_entry_value 1] $rdx
	#DEBUG_VALUE: crypto_box_curve25519xchacha20poly1305_open_easy:n <- [DW_OP_LLVM_entry_value 1] $rcx
	#DEBUG_VALUE: crypto_box_curve25519xchacha20poly1305_open_easy:pk <- [DW_OP_LLVM_entry_value 1] $r8
	#DEBUG_VALUE: crypto_box_curve25519xchacha20poly1305_open_easy:sk <- [DW_OP_LLVM_entry_value 1] $r9
	.loc	1 162 1 is_stmt 1               # crypto_box/curve25519xchacha20poly1305/box_curve25519xchacha20poly1305.c:162:1
	movq	%fs:40, %rcx
	cmpq	64(%rsp), %rcx
	jne	.LBB10_7
.Ltmp139:
# %bb.6:                                # %SP_return
	#DEBUG_VALUE: crypto_box_curve25519xchacha20poly1305_open_easy:m <- [DW_OP_LLVM_entry_value 1] $rdi
	#DEBUG_VALUE: crypto_box_curve25519xchacha20poly1305_open_easy:c <- [DW_OP_LLVM_entry_value 1] $rsi
	#DEBUG_VALUE: crypto_box_curve25519xchacha20poly1305_open_easy:clen <- [DW_OP_LLVM_entry_value 1] $rdx
	#DEBUG_VALUE: crypto_box_curve25519xchacha20poly1305_open_easy:n <- [DW_OP_LLVM_entry_value 1] $rcx
	#DEBUG_VALUE: crypto_box_curve25519xchacha20poly1305_open_easy:pk <- [DW_OP_LLVM_entry_value 1] $r8
	#DEBUG_VALUE: crypto_box_curve25519xchacha20poly1305_open_easy:sk <- [DW_OP_LLVM_entry_value 1] $r9
	.loc	1 162 1 epilogue_begin is_stmt 0 # crypto_box/curve25519xchacha20poly1305/box_curve25519xchacha20poly1305.c:162:1
	addq	$72, %rsp
	.cfi_def_cfa_offset 40
	popq	%rbx
	.cfi_def_cfa_offset 32
	popq	%r12
	.cfi_def_cfa_offset 24
	popq	%r14
	.cfi_def_cfa_offset 16
	popq	%r15
	.cfi_def_cfa_offset 8
	retq
.Ltmp140:
.LBB10_7:                               # %CallStackCheckFailBlk
	.cfi_def_cfa_offset 112
	#DEBUG_VALUE: crypto_box_curve25519xchacha20poly1305_open_easy:m <- [DW_OP_LLVM_entry_value 1] $rdi
	#DEBUG_VALUE: crypto_box_curve25519xchacha20poly1305_open_easy:c <- [DW_OP_LLVM_entry_value 1] $rsi
	#DEBUG_VALUE: crypto_box_curve25519xchacha20poly1305_open_easy:clen <- [DW_OP_LLVM_entry_value 1] $rdx
	#DEBUG_VALUE: crypto_box_curve25519xchacha20poly1305_open_easy:n <- [DW_OP_LLVM_entry_value 1] $rcx
	#DEBUG_VALUE: crypto_box_curve25519xchacha20poly1305_open_easy:pk <- [DW_OP_LLVM_entry_value 1] $r8
	#DEBUG_VALUE: crypto_box_curve25519xchacha20poly1305_open_easy:sk <- [DW_OP_LLVM_entry_value 1] $r9
	.loc	1 0 0                           # crypto_box/curve25519xchacha20poly1305/box_curve25519xchacha20poly1305.c:0
	callq	__stack_chk_fail@PLT
.Ltmp141:
.Lfunc_end10:
	.size	crypto_box_curve25519xchacha20poly1305_open_easy, .Lfunc_end10-crypto_box_curve25519xchacha20poly1305_open_easy
	.cfi_endproc
                                        # -- End function
	.globl	crypto_box_curve25519xchacha20poly1305_seedbytes # -- Begin function crypto_box_curve25519xchacha20poly1305_seedbytes
	.p2align	4
	.type	crypto_box_curve25519xchacha20poly1305_seedbytes,@function
crypto_box_curve25519xchacha20poly1305_seedbytes: # @crypto_box_curve25519xchacha20poly1305_seedbytes
.Lfunc_begin11:
	.cfi_startproc
# %bb.0:
	.loc	1 167 5 prologue_end is_stmt 1  # crypto_box/curve25519xchacha20poly1305/box_curve25519xchacha20poly1305.c:167:5
	movl	$32, %eax
	retq
.Ltmp142:
.Lfunc_end11:
	.size	crypto_box_curve25519xchacha20poly1305_seedbytes, .Lfunc_end11-crypto_box_curve25519xchacha20poly1305_seedbytes
	.cfi_endproc
                                        # -- End function
	.globl	crypto_box_curve25519xchacha20poly1305_publickeybytes # -- Begin function crypto_box_curve25519xchacha20poly1305_publickeybytes
	.p2align	4
	.type	crypto_box_curve25519xchacha20poly1305_publickeybytes,@function
crypto_box_curve25519xchacha20poly1305_publickeybytes: # @crypto_box_curve25519xchacha20poly1305_publickeybytes
.Lfunc_begin12:
	.cfi_startproc
# %bb.0:
	.loc	1 173 5 prologue_end            # crypto_box/curve25519xchacha20poly1305/box_curve25519xchacha20poly1305.c:173:5
	movl	$32, %eax
	retq
.Ltmp143:
.Lfunc_end12:
	.size	crypto_box_curve25519xchacha20poly1305_publickeybytes, .Lfunc_end12-crypto_box_curve25519xchacha20poly1305_publickeybytes
	.cfi_endproc
                                        # -- End function
	.globl	crypto_box_curve25519xchacha20poly1305_secretkeybytes # -- Begin function crypto_box_curve25519xchacha20poly1305_secretkeybytes
	.p2align	4
	.type	crypto_box_curve25519xchacha20poly1305_secretkeybytes,@function
crypto_box_curve25519xchacha20poly1305_secretkeybytes: # @crypto_box_curve25519xchacha20poly1305_secretkeybytes
.Lfunc_begin13:
	.cfi_startproc
# %bb.0:
	.loc	1 179 5 prologue_end            # crypto_box/curve25519xchacha20poly1305/box_curve25519xchacha20poly1305.c:179:5
	movl	$32, %eax
	retq
.Ltmp144:
.Lfunc_end13:
	.size	crypto_box_curve25519xchacha20poly1305_secretkeybytes, .Lfunc_end13-crypto_box_curve25519xchacha20poly1305_secretkeybytes
	.cfi_endproc
                                        # -- End function
	.globl	crypto_box_curve25519xchacha20poly1305_beforenmbytes # -- Begin function crypto_box_curve25519xchacha20poly1305_beforenmbytes
	.p2align	4
	.type	crypto_box_curve25519xchacha20poly1305_beforenmbytes,@function
crypto_box_curve25519xchacha20poly1305_beforenmbytes: # @crypto_box_curve25519xchacha20poly1305_beforenmbytes
.Lfunc_begin14:
	.cfi_startproc
# %bb.0:
	.loc	1 185 5 prologue_end            # crypto_box/curve25519xchacha20poly1305/box_curve25519xchacha20poly1305.c:185:5
	movl	$32, %eax
	retq
.Ltmp145:
.Lfunc_end14:
	.size	crypto_box_curve25519xchacha20poly1305_beforenmbytes, .Lfunc_end14-crypto_box_curve25519xchacha20poly1305_beforenmbytes
	.cfi_endproc
                                        # -- End function
	.globl	crypto_box_curve25519xchacha20poly1305_noncebytes # -- Begin function crypto_box_curve25519xchacha20poly1305_noncebytes
	.p2align	4
	.type	crypto_box_curve25519xchacha20poly1305_noncebytes,@function
crypto_box_curve25519xchacha20poly1305_noncebytes: # @crypto_box_curve25519xchacha20poly1305_noncebytes
.Lfunc_begin15:
	.cfi_startproc
# %bb.0:
	.loc	1 191 5 prologue_end            # crypto_box/curve25519xchacha20poly1305/box_curve25519xchacha20poly1305.c:191:5
	movl	$24, %eax
	retq
.Ltmp146:
.Lfunc_end15:
	.size	crypto_box_curve25519xchacha20poly1305_noncebytes, .Lfunc_end15-crypto_box_curve25519xchacha20poly1305_noncebytes
	.cfi_endproc
                                        # -- End function
	.globl	crypto_box_curve25519xchacha20poly1305_macbytes # -- Begin function crypto_box_curve25519xchacha20poly1305_macbytes
	.p2align	4
	.type	crypto_box_curve25519xchacha20poly1305_macbytes,@function
crypto_box_curve25519xchacha20poly1305_macbytes: # @crypto_box_curve25519xchacha20poly1305_macbytes
.Lfunc_begin16:
	.cfi_startproc
# %bb.0:
	.loc	1 197 5 prologue_end            # crypto_box/curve25519xchacha20poly1305/box_curve25519xchacha20poly1305.c:197:5
	movl	$16, %eax
	retq
.Ltmp147:
.Lfunc_end16:
	.size	crypto_box_curve25519xchacha20poly1305_macbytes, .Lfunc_end16-crypto_box_curve25519xchacha20poly1305_macbytes
	.cfi_endproc
                                        # -- End function
	.globl	crypto_box_curve25519xchacha20poly1305_messagebytes_max # -- Begin function crypto_box_curve25519xchacha20poly1305_messagebytes_max
	.p2align	4
	.type	crypto_box_curve25519xchacha20poly1305_messagebytes_max,@function
crypto_box_curve25519xchacha20poly1305_messagebytes_max: # @crypto_box_curve25519xchacha20poly1305_messagebytes_max
.Lfunc_begin17:
	.cfi_startproc
# %bb.0:
	.loc	1 203 5 prologue_end            # crypto_box/curve25519xchacha20poly1305/box_curve25519xchacha20poly1305.c:203:5
	movq	$-17, %rax
	retq
.Ltmp148:
.Lfunc_end17:
	.size	crypto_box_curve25519xchacha20poly1305_messagebytes_max, .Lfunc_end17-crypto_box_curve25519xchacha20poly1305_messagebytes_max
	.cfi_endproc
                                        # -- End function
	.type	crypto_box_curve25519xchacha20poly1305_beforenm.zero,@object # @crypto_box_curve25519xchacha20poly1305_beforenm.zero
	.section	.rodata,"a",@progbits
	.p2align	4, 0x0
crypto_box_curve25519xchacha20poly1305_beforenm.zero:
	.zero	16
	.size	crypto_box_curve25519xchacha20poly1305_beforenm.zero, 16

	.section	".note.GNU-stack","",@progbits
	.addrsig
	.addrsig_sym __stack_chk_fail
	.addrsig_sym crypto_box_curve25519xchacha20poly1305_beforenm.zero