	.file	"chacha20_ref.c"
	.file	0 "/home/leizhenyuu/opt/Anonymous_Repo/libsodium_o2_attr_inline/src/libsodium" "chacha20_ref.c" md5 0xec1430a09f24206f1cd744d6232790a7
	.file	1 "crypto_stream/chacha20/ref/.." "stream_chacha20.h"
	.file	2 "/usr/include/x86_64-linux-gnu/bits" "types.h"
	.file	3 "/usr/include/x86_64-linux-gnu/bits" "stdint-uintn.h"
	.file	4 "crypto_stream/chacha20/ref" "chacha20_ref.c"
	.section	.rodata.cst16,"aM",@progbits,16
	.p2align	4, 0x0                          # -- Begin function stream_ref
.LCPI0_0:
	.long	1634760805                      # 0x61707865
	.long	857760878                       # 0x3320646e
	.long	2036477234                      # 0x79622d32
	.long	1797285236                      # 0x6b206574
	.text
	.p2align	4
	.type	stream_ref,@function
stream_ref:                             # @stream_ref
.Lfunc_begin0:
	.cfi_startproc
# %bb.0:
	#DEBUG_VALUE: stream_ref:c <- $rdi
	#DEBUG_VALUE: stream_ref:clen <- $rsi
	#DEBUG_VALUE: stream_ref:n <- $rdx
	#DEBUG_VALUE: stream_ref:k <- $rcx
	#DEBUG_VALUE: stream_ref:ctx <- [DW_OP_deref] $rsp
	.loc	4 229 10 prologue_end           # crypto_stream/chacha20/ref/chacha20_ref.c:229:10
	testq	%rsi, %rsi
	.loc	4 229 9 is_stmt 0               # crypto_stream/chacha20/ref/chacha20_ref.c:229:9
	je	.LBB0_2
.Ltmp0:
# %bb.1:
	#DEBUG_VALUE: stream_ref:c <- $rdi
	#DEBUG_VALUE: stream_ref:clen <- $rsi
	#DEBUG_VALUE: stream_ref:n <- $rdx
	#DEBUG_VALUE: stream_ref:k <- $rcx
	#DEBUG_VALUE: stream_ref:ctx <- [DW_OP_deref] $rsp
	pushq	%r15
	.cfi_def_cfa_offset 16
	pushq	%r14
	.cfi_def_cfa_offset 24
	pushq	%rbx
	.cfi_def_cfa_offset 32
	subq	$64, %rsp
	.cfi_def_cfa_offset 96
	.cfi_offset %rbx, -32
	.cfi_offset %r14, -24
	.cfi_offset %r15, -16
	movq	%rsi, %rbx
.Ltmp1:
	#DEBUG_VALUE: chacha_keysetup:ctx <- $rsp
	#DEBUG_VALUE: chacha_keysetup:k <- $rcx
	#DEBUG_VALUE: stream_ref:ctx <- [DW_OP_LLVM_fragment 0 32] 1634760805
	#DEBUG_VALUE: stream_ref:ctx <- [DW_OP_LLVM_fragment 32 32] 857760878
	#DEBUG_VALUE: stream_ref:ctx <- [DW_OP_LLVM_fragment 64 32] 2036477234
	#DEBUG_VALUE: stream_ref:ctx <- [DW_OP_plus_uconst 12, DW_OP_deref, DW_OP_LLVM_fragment 96 416] $rsp
	.loc	4 48 19 is_stmt 1               # crypto_stream/chacha20/ref/chacha20_ref.c:48:19 @[ crypto_stream/chacha20/ref/chacha20_ref.c:233:5 ]
	movaps	.LCPI0_0(%rip), %xmm0           # xmm0 = [1634760805,857760878,2036477234,1797285236]
	movaps	%xmm0, (%rsp)
.Ltmp2:
	#DEBUG_VALUE: stream_ref:ctx <- [DW_OP_plus_uconst 8, DW_OP_deref, DW_OP_LLVM_fragment 64 448] $rsp
	#DEBUG_VALUE: load32_le:w <- undef
	#DEBUG_VALUE: load32_le:src <- $rcx
	#DEBUG_VALUE: memcpy:__dest <- undef
	#DEBUG_VALUE: memcpy:__src <- $rcx
	#DEBUG_VALUE: memcpy:__len <- 4
	#DEBUG_VALUE: stream_ref:ctx <- [DW_OP_LLVM_fragment 128 32] undef
	#DEBUG_VALUE: stream_ref:ctx <- [DW_OP_plus_uconst 8, DW_OP_deref, DW_OP_LLVM_fragment 64 64] $rsp
	#DEBUG_VALUE: load32_le:w <- undef
	#DEBUG_VALUE: memcpy:__dest <- undef
	#DEBUG_VALUE: memcpy:__len <- 4
	#DEBUG_VALUE: stream_ref:ctx <- [DW_OP_LLVM_fragment 160 32] undef
	#DEBUG_VALUE: load32_le:w <- undef
	#DEBUG_VALUE: memcpy:__dest <- undef
	#DEBUG_VALUE: memcpy:__len <- 4
	#DEBUG_VALUE: stream_ref:ctx <- [DW_OP_LLVM_fragment 192 32] undef
	#DEBUG_VALUE: stream_ref:ctx <- [DW_OP_plus_uconst 28, DW_OP_deref, DW_OP_LLVM_fragment 224 288] $rsp
	#DEBUG_VALUE: load32_le:w <- undef
	#DEBUG_VALUE: memcpy:__dest <- undef
	#DEBUG_VALUE: memcpy:__len <- 4
	.file	5 "/usr/include/x86_64-linux-gnu/bits" "string_fortified.h"
	.loc	5 29 10                         # /usr/include/x86_64-linux-gnu/bits/string_fortified.h:29:10 @[ ./include/sodium/private/common.h:106:5 @[ crypto_stream/chacha20/ref/chacha20_ref.c:52:21 @[ crypto_stream/chacha20/ref/chacha20_ref.c:233:5 ] ] ]
	movups	(%rcx), %xmm0
.Ltmp3:
	.loc	4 52 19                         # crypto_stream/chacha20/ref/chacha20_ref.c:52:19 @[ crypto_stream/chacha20/ref/chacha20_ref.c:233:5 ]
	movaps	%xmm0, 16(%rsp)
.Ltmp4:
	#DEBUG_VALUE: stream_ref:ctx <- [DW_OP_plus_uconst 24, DW_OP_deref, DW_OP_LLVM_fragment 192 320] $rsp
	#DEBUG_VALUE: load32_le:w <- undef
	#DEBUG_VALUE: memcpy:__dest <- undef
	#DEBUG_VALUE: memcpy:__len <- 4
	#DEBUG_VALUE: load32_le:src <- [DW_OP_plus_uconst 16, DW_OP_stack_value] $rcx
	#DEBUG_VALUE: memcpy:__src <- [DW_OP_plus_uconst 16, DW_OP_stack_value] $rcx
	#DEBUG_VALUE: stream_ref:ctx <- [DW_OP_LLVM_fragment 256 32] undef
	#DEBUG_VALUE: stream_ref:ctx <- [DW_OP_plus_uconst 24, DW_OP_deref, DW_OP_LLVM_fragment 192 64] $rsp
	#DEBUG_VALUE: load32_le:w <- undef
	#DEBUG_VALUE: memcpy:__dest <- undef
	#DEBUG_VALUE: memcpy:__len <- 4
	#DEBUG_VALUE: stream_ref:ctx <- [DW_OP_LLVM_fragment 288 32] undef
	#DEBUG_VALUE: load32_le:w <- undef
	#DEBUG_VALUE: memcpy:__dest <- undef
	#DEBUG_VALUE: memcpy:__len <- 4
	#DEBUG_VALUE: stream_ref:ctx <- [DW_OP_LLVM_fragment 320 32] undef
	#DEBUG_VALUE: stream_ref:ctx <- [DW_OP_plus_uconst 44, DW_OP_deref, DW_OP_LLVM_fragment 352 160] $rsp
	#DEBUG_VALUE: load32_le:w <- undef
	#DEBUG_VALUE: memcpy:__dest <- undef
	#DEBUG_VALUE: memcpy:__len <- 4
	.loc	5 29 10                         # /usr/include/x86_64-linux-gnu/bits/string_fortified.h:29:10 @[ ./include/sodium/private/common.h:106:5 @[ crypto_stream/chacha20/ref/chacha20_ref.c:56:21 @[ crypto_stream/chacha20/ref/chacha20_ref.c:233:5 ] ] ]
	movups	16(%rcx), %xmm0
.Ltmp5:
	.loc	4 56 19                         # crypto_stream/chacha20/ref/chacha20_ref.c:56:19 @[ crypto_stream/chacha20/ref/chacha20_ref.c:233:5 ]
	movaps	%xmm0, 32(%rsp)
.Ltmp6:
	#DEBUG_VALUE: stream_ref:ctx <- [DW_OP_plus_uconst 40, DW_OP_deref, DW_OP_LLVM_fragment 320 192] $rsp
	#DEBUG_VALUE: chacha_ivsetup:ctx <- $rsp
	#DEBUG_VALUE: chacha_ivsetup:iv <- $rdx
	#DEBUG_VALUE: chacha_ivsetup:counter <- 0
	.loc	4 65 20                         # crypto_stream/chacha20/ref/chacha20_ref.c:65:20 @[ crypto_stream/chacha20/ref/chacha20_ref.c:234:5 ]
	movq	$0, 48(%rsp)
.Ltmp7:
	#DEBUG_VALUE: load32_le:w <- undef
	#DEBUG_VALUE: load32_le:src <- $rdx
	#DEBUG_VALUE: memcpy:__dest <- undef
	#DEBUG_VALUE: memcpy:__src <- $rdx
	#DEBUG_VALUE: memcpy:__len <- 4
	#DEBUG_VALUE: stream_ref:ctx <- [DW_OP_LLVM_fragment 448 32] undef
	#DEBUG_VALUE: stream_ref:ctx <- [DW_OP_plus_uconst 40, DW_OP_deref, DW_OP_LLVM_fragment 320 128] $rsp
	#DEBUG_VALUE: stream_ref:ctx <- [DW_OP_plus_uconst 60, DW_OP_deref, DW_OP_LLVM_fragment 480 32] $rsp
	#DEBUG_VALUE: load32_le:w <- undef
	#DEBUG_VALUE: memcpy:__dest <- undef
	#DEBUG_VALUE: memcpy:__len <- 4
	.loc	5 29 10                         # /usr/include/x86_64-linux-gnu/bits/string_fortified.h:29:10 @[ ./include/sodium/private/common.h:106:5 @[ crypto_stream/chacha20/ref/chacha20_ref.c:67:22 @[ crypto_stream/chacha20/ref/chacha20_ref.c:234:5 ] ] ]
	movq	(%rdx), %rax
.Ltmp8:
	.loc	4 67 20                         # crypto_stream/chacha20/ref/chacha20_ref.c:67:20 @[ crypto_stream/chacha20/ref/chacha20_ref.c:234:5 ]
	movq	%rax, 56(%rsp)
.Ltmp9:
	#DEBUG_VALUE: stream_ref:ctx <- [DW_OP_plus_uconst 40, DW_OP_deref, DW_OP_LLVM_fragment 320 192] $rsp
	#DEBUG_VALUE: memset:__dest <- $rdi
	#DEBUG_VALUE: memset:__ch <- 0
	#DEBUG_VALUE: memset:__len <- $rbx
	.loc	4 0 20 is_stmt 0                # crypto_stream/chacha20/ref/chacha20_ref.c:0:20
	movq	%rdi, %r14
.Ltmp10:
	.loc	5 59 10 is_stmt 1               # /usr/include/x86_64-linux-gnu/bits/string_fortified.h:59:10 @[ crypto_stream/chacha20/ref/chacha20_ref.c:235:5 ]
	xorl	%esi, %esi
.Ltmp11:
	#DEBUG_VALUE: stream_ref:clen <- $rbx
	movq	%rbx, %rdx
.Ltmp12:
	#DEBUG_VALUE: stream_ref:n <- [DW_OP_LLVM_entry_value 1] $rdx
	callq	memset@PLT
.Ltmp13:
	#DEBUG_VALUE: stream_ref:k <- [DW_OP_LLVM_entry_value 1] $rcx
	#DEBUG_VALUE: memset:__dest <- $r14
	#DEBUG_VALUE: stream_ref:c <- $r14
	.loc	5 0 10 is_stmt 0                # /usr/include/x86_64-linux-gnu/bits/string_fortified.h:0:10
	movq	%rsp, %r15
.Ltmp14:
	.loc	4 236 5 is_stmt 1               # crypto_stream/chacha20/ref/chacha20_ref.c:236:5
	movq	%r15, %rdi
	movq	%r14, %rsi
	movq	%r14, %rdx
	movq	%rbx, %rcx
	callq	chacha20_encrypt_bytes
.Ltmp15:
	.loc	4 237 5                         # crypto_stream/chacha20/ref/chacha20_ref.c:237:5
	movl	$64, %esi
	movq	%r15, %rdi
	callq	sodium_memzero@PLT
.Ltmp16:
	.loc	4 0 5 is_stmt 0                 # crypto_stream/chacha20/ref/chacha20_ref.c:0:5
	addq	$64, %rsp
.Ltmp17:
	#DEBUG_VALUE: chacha_ivsetup:ctx <- $r15
	#DEBUG_VALUE: chacha_keysetup:ctx <- $r15
	#DEBUG_VALUE: stream_ref:ctx <- [DW_OP_plus_uconst 60, DW_OP_deref, DW_OP_LLVM_fragment 480 32] $r15
	#DEBUG_VALUE: stream_ref:ctx <- [DW_OP_plus_uconst 40, DW_OP_deref, DW_OP_LLVM_fragment 320 128] $r15
	#DEBUG_VALUE: stream_ref:ctx <- [DW_OP_plus_uconst 40, DW_OP_deref, DW_OP_LLVM_fragment 320 192] $r15
	#DEBUG_VALUE: stream_ref:ctx <- [DW_OP_plus_uconst 44, DW_OP_deref, DW_OP_LLVM_fragment 352 160] $r15
	#DEBUG_VALUE: stream_ref:ctx <- [DW_OP_plus_uconst 24, DW_OP_deref, DW_OP_LLVM_fragment 192 64] $r15
	#DEBUG_VALUE: stream_ref:ctx <- [DW_OP_plus_uconst 24, DW_OP_deref, DW_OP_LLVM_fragment 192 320] $r15
	#DEBUG_VALUE: stream_ref:ctx <- [DW_OP_plus_uconst 28, DW_OP_deref, DW_OP_LLVM_fragment 224 288] $r15
	#DEBUG_VALUE: stream_ref:ctx <- [DW_OP_plus_uconst 8, DW_OP_deref, DW_OP_LLVM_fragment 64 64] $r15
	#DEBUG_VALUE: stream_ref:ctx <- [DW_OP_plus_uconst 8, DW_OP_deref, DW_OP_LLVM_fragment 64 448] $r15
	#DEBUG_VALUE: stream_ref:ctx <- [DW_OP_plus_uconst 12, DW_OP_deref, DW_OP_LLVM_fragment 96 416] $r15
	.cfi_def_cfa_offset 32
	popq	%rbx
.Ltmp18:
	#DEBUG_VALUE: stream_ref:clen <- [DW_OP_LLVM_entry_value 1] $rsi
	.cfi_def_cfa_offset 24
	popq	%r14
.Ltmp19:
	#DEBUG_VALUE: stream_ref:c <- [DW_OP_LLVM_entry_value 1] $rdi
	.cfi_def_cfa_offset 16
	popq	%r15
.Ltmp20:
	.cfi_def_cfa_offset 8
	.cfi_restore %rbx
	.cfi_restore %r14
	.cfi_restore %r15
.LBB0_2:
	#DEBUG_VALUE: stream_ref:c <- [DW_OP_LLVM_entry_value 1] $rdi
	#DEBUG_VALUE: stream_ref:clen <- [DW_OP_LLVM_entry_value 1] $rsi
	#DEBUG_VALUE: stream_ref:n <- [DW_OP_LLVM_entry_value 1] $rdx
	#DEBUG_VALUE: stream_ref:k <- [DW_OP_LLVM_entry_value 1] $rcx
	.loc	4 240 1 is_stmt 1               # crypto_stream/chacha20/ref/chacha20_ref.c:240:1
	xorl	%eax, %eax
	retq
.Ltmp21:
.Lfunc_end0:
	.size	stream_ref, .Lfunc_end0-stream_ref
	.cfi_endproc
	.file	6 "/home/leizhenyuu/opt/Anonymous_Repo" "llvm-project/build/lib/clang/21/include/__stddef_size_t.h"
	.file	7 "./include/sodium/private" "common.h"
	.file	8 "./include/sodium" "utils.h"
                                        # -- End function
	.section	.rodata.cst16,"aM",@progbits,16
	.p2align	4, 0x0                          # -- Begin function stream_ietf_ext_ref
.LCPI1_0:
	.long	1634760805                      # 0x61707865
	.long	857760878                       # 0x3320646e
	.long	2036477234                      # 0x79622d32
	.long	1797285236                      # 0x6b206574
	.text
	.p2align	4
	.type	stream_ietf_ext_ref,@function
stream_ietf_ext_ref:                    # @stream_ietf_ext_ref
.Lfunc_begin1:
	.cfi_startproc
# %bb.0:
	#DEBUG_VALUE: stream_ietf_ext_ref:c <- $rdi
	#DEBUG_VALUE: stream_ietf_ext_ref:clen <- $rsi
	#DEBUG_VALUE: stream_ietf_ext_ref:n <- $rdx
	#DEBUG_VALUE: stream_ietf_ext_ref:k <- $rcx
	#DEBUG_VALUE: stream_ietf_ext_ref:ctx <- [DW_OP_deref] $rsp
	.loc	4 248 10 prologue_end           # crypto_stream/chacha20/ref/chacha20_ref.c:248:10
	testq	%rsi, %rsi
	.loc	4 248 9 is_stmt 0               # crypto_stream/chacha20/ref/chacha20_ref.c:248:9
	je	.LBB1_2
.Ltmp22:
# %bb.1:
	#DEBUG_VALUE: stream_ietf_ext_ref:c <- $rdi
	#DEBUG_VALUE: stream_ietf_ext_ref:clen <- $rsi
	#DEBUG_VALUE: stream_ietf_ext_ref:n <- $rdx
	#DEBUG_VALUE: stream_ietf_ext_ref:k <- $rcx
	#DEBUG_VALUE: stream_ietf_ext_ref:ctx <- [DW_OP_deref] $rsp
	pushq	%r15
	.cfi_def_cfa_offset 16
	pushq	%r14
	.cfi_def_cfa_offset 24
	pushq	%rbx
	.cfi_def_cfa_offset 32
	subq	$64, %rsp
	.cfi_def_cfa_offset 96
	.cfi_offset %rbx, -32
	.cfi_offset %r14, -24
	.cfi_offset %r15, -16
	movq	%rsi, %rbx
.Ltmp23:
	#DEBUG_VALUE: chacha_keysetup:ctx <- $rsp
	#DEBUG_VALUE: chacha_keysetup:k <- $rcx
	#DEBUG_VALUE: stream_ietf_ext_ref:ctx <- [DW_OP_LLVM_fragment 0 32] 1634760805
	#DEBUG_VALUE: stream_ietf_ext_ref:ctx <- [DW_OP_LLVM_fragment 32 32] 857760878
	#DEBUG_VALUE: stream_ietf_ext_ref:ctx <- [DW_OP_LLVM_fragment 64 32] 2036477234
	#DEBUG_VALUE: stream_ietf_ext_ref:ctx <- [DW_OP_plus_uconst 12, DW_OP_deref, DW_OP_LLVM_fragment 96 416] $rsp
	.loc	4 48 19 is_stmt 1               # crypto_stream/chacha20/ref/chacha20_ref.c:48:19 @[ crypto_stream/chacha20/ref/chacha20_ref.c:252:5 ]
	movaps	.LCPI1_0(%rip), %xmm0           # xmm0 = [1634760805,857760878,2036477234,1797285236]
	movaps	%xmm0, (%rsp)
.Ltmp24:
	#DEBUG_VALUE: stream_ietf_ext_ref:ctx <- [DW_OP_plus_uconst 8, DW_OP_deref, DW_OP_LLVM_fragment 64 448] $rsp
	#DEBUG_VALUE: load32_le:w <- undef
	#DEBUG_VALUE: load32_le:src <- $rcx
	#DEBUG_VALUE: memcpy:__dest <- undef
	#DEBUG_VALUE: memcpy:__src <- $rcx
	#DEBUG_VALUE: memcpy:__len <- 4
	#DEBUG_VALUE: stream_ietf_ext_ref:ctx <- [DW_OP_LLVM_fragment 128 32] undef
	#DEBUG_VALUE: stream_ietf_ext_ref:ctx <- [DW_OP_plus_uconst 8, DW_OP_deref, DW_OP_LLVM_fragment 64 64] $rsp
	#DEBUG_VALUE: load32_le:w <- undef
	#DEBUG_VALUE: memcpy:__dest <- undef
	#DEBUG_VALUE: memcpy:__len <- 4
	#DEBUG_VALUE: stream_ietf_ext_ref:ctx <- [DW_OP_LLVM_fragment 160 32] undef
	#DEBUG_VALUE: load32_le:w <- undef
	#DEBUG_VALUE: memcpy:__dest <- undef
	#DEBUG_VALUE: memcpy:__len <- 4
	#DEBUG_VALUE: stream_ietf_ext_ref:ctx <- [DW_OP_LLVM_fragment 192 32] undef
	#DEBUG_VALUE: stream_ietf_ext_ref:ctx <- [DW_OP_plus_uconst 28, DW_OP_deref, DW_OP_LLVM_fragment 224 288] $rsp
	#DEBUG_VALUE: load32_le:w <- undef
	#DEBUG_VALUE: memcpy:__dest <- undef
	#DEBUG_VALUE: memcpy:__len <- 4
	.loc	5 29 10                         # /usr/include/x86_64-linux-gnu/bits/string_fortified.h:29:10 @[ ./include/sodium/private/common.h:106:5 @[ crypto_stream/chacha20/ref/chacha20_ref.c:52:21 @[ crypto_stream/chacha20/ref/chacha20_ref.c:252:5 ] ] ]
	movups	(%rcx), %xmm0
.Ltmp25:
	.loc	4 52 19                         # crypto_stream/chacha20/ref/chacha20_ref.c:52:19 @[ crypto_stream/chacha20/ref/chacha20_ref.c:252:5 ]
	movaps	%xmm0, 16(%rsp)
.Ltmp26:
	#DEBUG_VALUE: stream_ietf_ext_ref:ctx <- [DW_OP_plus_uconst 24, DW_OP_deref, DW_OP_LLVM_fragment 192 320] $rsp
	#DEBUG_VALUE: load32_le:w <- undef
	#DEBUG_VALUE: memcpy:__dest <- undef
	#DEBUG_VALUE: memcpy:__len <- 4
	#DEBUG_VALUE: load32_le:src <- [DW_OP_plus_uconst 16, DW_OP_stack_value] $rcx
	#DEBUG_VALUE: memcpy:__src <- [DW_OP_plus_uconst 16, DW_OP_stack_value] $rcx
	#DEBUG_VALUE: stream_ietf_ext_ref:ctx <- [DW_OP_LLVM_fragment 256 32] undef
	#DEBUG_VALUE: stream_ietf_ext_ref:ctx <- [DW_OP_plus_uconst 24, DW_OP_deref, DW_OP_LLVM_fragment 192 64] $rsp
	#DEBUG_VALUE: load32_le:w <- undef
	#DEBUG_VALUE: memcpy:__dest <- undef
	#DEBUG_VALUE: memcpy:__len <- 4
	#DEBUG_VALUE: stream_ietf_ext_ref:ctx <- [DW_OP_LLVM_fragment 288 32] undef
	#DEBUG_VALUE: load32_le:w <- undef
	#DEBUG_VALUE: memcpy:__dest <- undef
	#DEBUG_VALUE: memcpy:__len <- 4
	#DEBUG_VALUE: stream_ietf_ext_ref:ctx <- [DW_OP_LLVM_fragment 320 32] undef
	#DEBUG_VALUE: stream_ietf_ext_ref:ctx <- [DW_OP_plus_uconst 44, DW_OP_deref, DW_OP_LLVM_fragment 352 160] $rsp
	#DEBUG_VALUE: load32_le:w <- undef
	#DEBUG_VALUE: memcpy:__dest <- undef
	#DEBUG_VALUE: memcpy:__len <- 4
	.loc	5 29 10                         # /usr/include/x86_64-linux-gnu/bits/string_fortified.h:29:10 @[ ./include/sodium/private/common.h:106:5 @[ crypto_stream/chacha20/ref/chacha20_ref.c:56:21 @[ crypto_stream/chacha20/ref/chacha20_ref.c:252:5 ] ] ]
	movups	16(%rcx), %xmm0
.Ltmp27:
	.loc	4 56 19                         # crypto_stream/chacha20/ref/chacha20_ref.c:56:19 @[ crypto_stream/chacha20/ref/chacha20_ref.c:252:5 ]
	movaps	%xmm0, 32(%rsp)
.Ltmp28:
	#DEBUG_VALUE: stream_ietf_ext_ref:ctx <- [DW_OP_plus_uconst 40, DW_OP_deref, DW_OP_LLVM_fragment 320 192] $rsp
	#DEBUG_VALUE: chacha_ietf_ivsetup:ctx <- $rsp
	#DEBUG_VALUE: chacha_ietf_ivsetup:iv <- $rdx
	#DEBUG_VALUE: chacha_ietf_ivsetup:counter <- 0
	.loc	4 74 20                         # crypto_stream/chacha20/ref/chacha20_ref.c:74:20 @[ crypto_stream/chacha20/ref/chacha20_ref.c:253:5 ]
	movl	$0, 48(%rsp)
.Ltmp29:
	#DEBUG_VALUE: load32_le:w <- undef
	#DEBUG_VALUE: load32_le:src <- $rdx
	#DEBUG_VALUE: memcpy:__dest <- undef
	#DEBUG_VALUE: memcpy:__src <- $rdx
	#DEBUG_VALUE: memcpy:__len <- 4
	#DEBUG_VALUE: stream_ietf_ext_ref:ctx <- [DW_OP_LLVM_fragment 416 32] undef
	#DEBUG_VALUE: stream_ietf_ext_ref:ctx <- [DW_OP_plus_uconst 40, DW_OP_deref, DW_OP_LLVM_fragment 320 96] $rsp
	#DEBUG_VALUE: stream_ietf_ext_ref:ctx <- [DW_OP_plus_uconst 56, DW_OP_deref, DW_OP_LLVM_fragment 448 64] $rsp
	#DEBUG_VALUE: load32_le:w <- undef
	#DEBUG_VALUE: memcpy:__dest <- undef
	#DEBUG_VALUE: memcpy:__len <- 4
	.loc	5 29 10                         # /usr/include/x86_64-linux-gnu/bits/string_fortified.h:29:10 @[ ./include/sodium/private/common.h:106:5 @[ crypto_stream/chacha20/ref/chacha20_ref.c:75:22 @[ crypto_stream/chacha20/ref/chacha20_ref.c:253:5 ] ] ]
	movq	(%rdx), %rax
.Ltmp30:
	.loc	4 75 20                         # crypto_stream/chacha20/ref/chacha20_ref.c:75:20 @[ crypto_stream/chacha20/ref/chacha20_ref.c:253:5 ]
	movq	%rax, 52(%rsp)
.Ltmp31:
	#DEBUG_VALUE: stream_ietf_ext_ref:ctx <- [DW_OP_plus_uconst 40, DW_OP_deref, DW_OP_LLVM_fragment 320 192] $rsp
	#DEBUG_VALUE: load32_le:w <- undef
	#DEBUG_VALUE: memcpy:__dest <- undef
	#DEBUG_VALUE: memcpy:__len <- 4
	#DEBUG_VALUE: load32_le:src <- [DW_OP_plus_uconst 8, DW_OP_stack_value] $rdx
	#DEBUG_VALUE: memcpy:__src <- [DW_OP_plus_uconst 8, DW_OP_stack_value] $rdx
	.loc	5 29 10                         # /usr/include/x86_64-linux-gnu/bits/string_fortified.h:29:10 @[ ./include/sodium/private/common.h:106:5 @[ crypto_stream/chacha20/ref/chacha20_ref.c:77:22 @[ crypto_stream/chacha20/ref/chacha20_ref.c:253:5 ] ] ]
	movl	8(%rdx), %eax
.Ltmp32:
	.loc	4 77 20                         # crypto_stream/chacha20/ref/chacha20_ref.c:77:20 @[ crypto_stream/chacha20/ref/chacha20_ref.c:253:5 ]
	movl	%eax, 60(%rsp)
.Ltmp33:
	#DEBUG_VALUE: memset:__dest <- $rdi
	#DEBUG_VALUE: memset:__ch <- 0
	#DEBUG_VALUE: memset:__len <- $rbx
	.loc	4 0 20 is_stmt 0                # crypto_stream/chacha20/ref/chacha20_ref.c:0:20
	movq	%rdi, %r14
.Ltmp34:
	.loc	5 59 10 is_stmt 1               # /usr/include/x86_64-linux-gnu/bits/string_fortified.h:59:10 @[ crypto_stream/chacha20/ref/chacha20_ref.c:254:5 ]
	xorl	%esi, %esi
.Ltmp35:
	#DEBUG_VALUE: stream_ietf_ext_ref:clen <- $rbx
	movq	%rbx, %rdx
.Ltmp36:
	#DEBUG_VALUE: stream_ietf_ext_ref:n <- [DW_OP_LLVM_entry_value 1] $rdx
	callq	memset@PLT
.Ltmp37:
	#DEBUG_VALUE: stream_ietf_ext_ref:k <- [DW_OP_LLVM_entry_value 1] $rcx
	#DEBUG_VALUE: memset:__dest <- $r14
	#DEBUG_VALUE: stream_ietf_ext_ref:c <- $r14
	.loc	5 0 10 is_stmt 0                # /usr/include/x86_64-linux-gnu/bits/string_fortified.h:0:10
	movq	%rsp, %r15
.Ltmp38:
	.loc	4 255 5 is_stmt 1               # crypto_stream/chacha20/ref/chacha20_ref.c:255:5
	movq	%r15, %rdi
	movq	%r14, %rsi
	movq	%r14, %rdx
	movq	%rbx, %rcx
	callq	chacha20_encrypt_bytes
.Ltmp39:
	.loc	4 256 5                         # crypto_stream/chacha20/ref/chacha20_ref.c:256:5
	movl	$64, %esi
	movq	%r15, %rdi
	callq	sodium_memzero@PLT
.Ltmp40:
	.loc	4 0 5 is_stmt 0                 # crypto_stream/chacha20/ref/chacha20_ref.c:0:5
	addq	$64, %rsp
.Ltmp41:
	#DEBUG_VALUE: chacha_ietf_ivsetup:ctx <- $r15
	#DEBUG_VALUE: chacha_keysetup:ctx <- $r15
	#DEBUG_VALUE: stream_ietf_ext_ref:ctx <- [DW_OP_plus_uconst 56, DW_OP_deref, DW_OP_LLVM_fragment 448 64] $r15
	#DEBUG_VALUE: stream_ietf_ext_ref:ctx <- [DW_OP_plus_uconst 40, DW_OP_deref, DW_OP_LLVM_fragment 320 96] $r15
	#DEBUG_VALUE: stream_ietf_ext_ref:ctx <- [DW_OP_plus_uconst 40, DW_OP_deref, DW_OP_LLVM_fragment 320 192] $r15
	#DEBUG_VALUE: stream_ietf_ext_ref:ctx <- [DW_OP_plus_uconst 44, DW_OP_deref, DW_OP_LLVM_fragment 352 160] $r15
	#DEBUG_VALUE: stream_ietf_ext_ref:ctx <- [DW_OP_plus_uconst 24, DW_OP_deref, DW_OP_LLVM_fragment 192 64] $r15
	#DEBUG_VALUE: stream_ietf_ext_ref:ctx <- [DW_OP_plus_uconst 24, DW_OP_deref, DW_OP_LLVM_fragment 192 320] $r15
	#DEBUG_VALUE: stream_ietf_ext_ref:ctx <- [DW_OP_plus_uconst 28, DW_OP_deref, DW_OP_LLVM_fragment 224 288] $r15
	#DEBUG_VALUE: stream_ietf_ext_ref:ctx <- [DW_OP_plus_uconst 8, DW_OP_deref, DW_OP_LLVM_fragment 64 64] $r15
	#DEBUG_VALUE: stream_ietf_ext_ref:ctx <- [DW_OP_plus_uconst 8, DW_OP_deref, DW_OP_LLVM_fragment 64 448] $r15
	#DEBUG_VALUE: stream_ietf_ext_ref:ctx <- [DW_OP_plus_uconst 12, DW_OP_deref, DW_OP_LLVM_fragment 96 416] $r15
	.cfi_def_cfa_offset 32
	popq	%rbx
.Ltmp42:
	#DEBUG_VALUE: stream_ietf_ext_ref:clen <- [DW_OP_LLVM_entry_value 1] $rsi
	.cfi_def_cfa_offset 24
	popq	%r14
.Ltmp43:
	#DEBUG_VALUE: stream_ietf_ext_ref:c <- [DW_OP_LLVM_entry_value 1] $rdi
	.cfi_def_cfa_offset 16
	popq	%r15
.Ltmp44:
	.cfi_def_cfa_offset 8
	.cfi_restore %rbx
	.cfi_restore %r14
	.cfi_restore %r15
.LBB1_2:
	#DEBUG_VALUE: stream_ietf_ext_ref:c <- [DW_OP_LLVM_entry_value 1] $rdi
	#DEBUG_VALUE: stream_ietf_ext_ref:clen <- [DW_OP_LLVM_entry_value 1] $rsi
	#DEBUG_VALUE: stream_ietf_ext_ref:n <- [DW_OP_LLVM_entry_value 1] $rdx
	#DEBUG_VALUE: stream_ietf_ext_ref:k <- [DW_OP_LLVM_entry_value 1] $rcx
	.loc	4 259 1 is_stmt 1               # crypto_stream/chacha20/ref/chacha20_ref.c:259:1
	xorl	%eax, %eax
	retq
.Ltmp45:
.Lfunc_end1:
	.size	stream_ietf_ext_ref, .Lfunc_end1-stream_ietf_ext_ref
	.cfi_endproc
                                        # -- End function
	.section	.rodata.cst16,"aM",@progbits,16
	.p2align	4, 0x0                          # -- Begin function stream_ref_xor_ic
.LCPI2_0:
	.long	1634760805                      # 0x61707865
	.long	857760878                       # 0x3320646e
	.long	2036477234                      # 0x79622d32
	.long	1797285236                      # 0x6b206574
	.text
	.p2align	4
	.type	stream_ref_xor_ic,@function
stream_ref_xor_ic:                      # @stream_ref_xor_ic
.Lfunc_begin2:
	.loc	4 265 0                         # crypto_stream/chacha20/ref/chacha20_ref.c:265:0
	.cfi_startproc
# %bb.0:
	#DEBUG_VALUE: stream_ref_xor_ic:c <- $rdi
	#DEBUG_VALUE: stream_ref_xor_ic:m <- $rsi
	#DEBUG_VALUE: stream_ref_xor_ic:mlen <- $rdx
	#DEBUG_VALUE: stream_ref_xor_ic:n <- $rcx
	#DEBUG_VALUE: stream_ref_xor_ic:ic <- $r8
	#DEBUG_VALUE: stream_ref_xor_ic:k <- $r9
	movq	%rdx, %rax
.Ltmp46:
	#DEBUG_VALUE: stream_ref_xor_ic:ctx <- [DW_OP_deref] $rsp
	.loc	4 271 10 prologue_end           # crypto_stream/chacha20/ref/chacha20_ref.c:271:10
	testq	%rdx, %rdx
	.loc	4 271 9 is_stmt 0               # crypto_stream/chacha20/ref/chacha20_ref.c:271:9
	je	.LBB2_2
.Ltmp47:
# %bb.1:
	#DEBUG_VALUE: stream_ref_xor_ic:c <- $rdi
	#DEBUG_VALUE: stream_ref_xor_ic:m <- $rsi
	#DEBUG_VALUE: stream_ref_xor_ic:mlen <- $rdx
	#DEBUG_VALUE: stream_ref_xor_ic:n <- $rcx
	#DEBUG_VALUE: stream_ref_xor_ic:ic <- $r8
	#DEBUG_VALUE: stream_ref_xor_ic:k <- $r9
	#DEBUG_VALUE: stream_ref_xor_ic:ctx <- [DW_OP_deref] $rsp
	pushq	%rbx
	.cfi_def_cfa_offset 16
	subq	$64, %rsp
	.cfi_def_cfa_offset 80
	.cfi_offset %rbx, -16
	movq	%rdi, %rdx
.Ltmp48:
	#DEBUG_VALUE: stream_ref_xor_ic:mlen <- $rax
	.loc	4 274 30 is_stmt 1              # crypto_stream/chacha20/ref/chacha20_ref.c:274:30
	movq	%r8, %rdi
.Ltmp49:
	#DEBUG_VALUE: stream_ref_xor_ic:c <- $rdx
	shrq	$32, %rdi
.Ltmp50:
	#DEBUG_VALUE: stream_ref_xor_ic:ic_high <- $edi
	#DEBUG_VALUE: stream_ref_xor_ic:ic_low <- $r8d
	#DEBUG_VALUE: stream_ref_xor_ic:ic_bytes <- [DW_OP_LLVM_fragment 0 32] $r8d
	#DEBUG_VALUE: memcpy:__dest <- undef
	#DEBUG_VALUE: memcpy:__src <- undef
	#DEBUG_VALUE: memcpy:__len <- 4
	#DEBUG_VALUE: memcpy:__dest <- undef
	#DEBUG_VALUE: memcpy:__src <- undef
	#DEBUG_VALUE: memcpy:__len <- 4
	#DEBUG_VALUE: stream_ref_xor_ic:ic_bytes <- [DW_OP_LLVM_fragment 32 32] $edi
	#DEBUG_VALUE: chacha_keysetup:ctx <- $rsp
	#DEBUG_VALUE: chacha_keysetup:k <- $r9
	#DEBUG_VALUE: stream_ref_xor_ic:ctx <- [DW_OP_LLVM_fragment 0 32] 1634760805
	#DEBUG_VALUE: stream_ref_xor_ic:ctx <- [DW_OP_LLVM_fragment 32 32] 857760878
	#DEBUG_VALUE: stream_ref_xor_ic:ctx <- [DW_OP_LLVM_fragment 64 32] 2036477234
	#DEBUG_VALUE: stream_ref_xor_ic:ctx <- [DW_OP_plus_uconst 12, DW_OP_deref, DW_OP_LLVM_fragment 96 416] $rsp
	.loc	4 48 19                         # crypto_stream/chacha20/ref/chacha20_ref.c:48:19 @[ crypto_stream/chacha20/ref/chacha20_ref.c:278:5 ]
	movaps	.LCPI2_0(%rip), %xmm0           # xmm0 = [1634760805,857760878,2036477234,1797285236]
	movaps	%xmm0, (%rsp)
.Ltmp51:
	#DEBUG_VALUE: stream_ref_xor_ic:ctx <- [DW_OP_plus_uconst 8, DW_OP_deref, DW_OP_LLVM_fragment 64 448] $rsp
	#DEBUG_VALUE: load32_le:w <- undef
	#DEBUG_VALUE: load32_le:src <- $r9
	#DEBUG_VALUE: memcpy:__dest <- undef
	#DEBUG_VALUE: memcpy:__src <- $r9
	#DEBUG_VALUE: memcpy:__len <- 4
	#DEBUG_VALUE: stream_ref_xor_ic:ctx <- [DW_OP_LLVM_fragment 128 32] undef
	#DEBUG_VALUE: stream_ref_xor_ic:ctx <- [DW_OP_plus_uconst 8, DW_OP_deref, DW_OP_LLVM_fragment 64 64] $rsp
	#DEBUG_VALUE: load32_le:w <- undef
	#DEBUG_VALUE: memcpy:__dest <- undef
	#DEBUG_VALUE: memcpy:__len <- 4
	#DEBUG_VALUE: stream_ref_xor_ic:ctx <- [DW_OP_LLVM_fragment 160 32] undef
	#DEBUG_VALUE: load32_le:w <- undef
	#DEBUG_VALUE: memcpy:__dest <- undef
	#DEBUG_VALUE: memcpy:__len <- 4
	#DEBUG_VALUE: stream_ref_xor_ic:ctx <- [DW_OP_LLVM_fragment 192 32] undef
	#DEBUG_VALUE: stream_ref_xor_ic:ctx <- [DW_OP_plus_uconst 28, DW_OP_deref, DW_OP_LLVM_fragment 224 288] $rsp
	#DEBUG_VALUE: load32_le:w <- undef
	#DEBUG_VALUE: memcpy:__dest <- undef
	#DEBUG_VALUE: memcpy:__len <- 4
	.loc	5 29 10                         # /usr/include/x86_64-linux-gnu/bits/string_fortified.h:29:10 @[ ./include/sodium/private/common.h:106:5 @[ crypto_stream/chacha20/ref/chacha20_ref.c:52:21 @[ crypto_stream/chacha20/ref/chacha20_ref.c:278:5 ] ] ]
	movups	(%r9), %xmm0
.Ltmp52:
	.loc	4 52 19                         # crypto_stream/chacha20/ref/chacha20_ref.c:52:19 @[ crypto_stream/chacha20/ref/chacha20_ref.c:278:5 ]
	movaps	%xmm0, 16(%rsp)
.Ltmp53:
	#DEBUG_VALUE: stream_ref_xor_ic:ctx <- [DW_OP_plus_uconst 24, DW_OP_deref, DW_OP_LLVM_fragment 192 320] $rsp
	#DEBUG_VALUE: load32_le:w <- undef
	#DEBUG_VALUE: memcpy:__dest <- undef
	#DEBUG_VALUE: memcpy:__len <- 4
	#DEBUG_VALUE: load32_le:src <- [DW_OP_plus_uconst 16, DW_OP_stack_value] $r9
	#DEBUG_VALUE: memcpy:__src <- [DW_OP_plus_uconst 16, DW_OP_stack_value] $r9
	#DEBUG_VALUE: stream_ref_xor_ic:ctx <- [DW_OP_LLVM_fragment 256 32] undef
	#DEBUG_VALUE: stream_ref_xor_ic:ctx <- [DW_OP_plus_uconst 24, DW_OP_deref, DW_OP_LLVM_fragment 192 64] $rsp
	#DEBUG_VALUE: load32_le:w <- undef
	#DEBUG_VALUE: memcpy:__dest <- undef
	#DEBUG_VALUE: memcpy:__len <- 4
	#DEBUG_VALUE: stream_ref_xor_ic:ctx <- [DW_OP_LLVM_fragment 288 32] undef
	#DEBUG_VALUE: load32_le:w <- undef
	#DEBUG_VALUE: memcpy:__dest <- undef
	#DEBUG_VALUE: memcpy:__len <- 4
	#DEBUG_VALUE: stream_ref_xor_ic:ctx <- [DW_OP_LLVM_fragment 320 32] undef
	#DEBUG_VALUE: stream_ref_xor_ic:ctx <- [DW_OP_plus_uconst 44, DW_OP_deref, DW_OP_LLVM_fragment 352 160] $rsp
	#DEBUG_VALUE: load32_le:w <- undef
	#DEBUG_VALUE: memcpy:__dest <- undef
	#DEBUG_VALUE: memcpy:__len <- 4
	.loc	5 29 10                         # /usr/include/x86_64-linux-gnu/bits/string_fortified.h:29:10 @[ ./include/sodium/private/common.h:106:5 @[ crypto_stream/chacha20/ref/chacha20_ref.c:56:21 @[ crypto_stream/chacha20/ref/chacha20_ref.c:278:5 ] ] ]
	movups	16(%r9), %xmm0
.Ltmp54:
	.loc	4 56 19                         # crypto_stream/chacha20/ref/chacha20_ref.c:56:19 @[ crypto_stream/chacha20/ref/chacha20_ref.c:278:5 ]
	movaps	%xmm0, 32(%rsp)
.Ltmp55:
	#DEBUG_VALUE: stream_ref_xor_ic:ctx <- [DW_OP_plus_uconst 40, DW_OP_deref, DW_OP_LLVM_fragment 320 192] $rsp
	#DEBUG_VALUE: chacha_ivsetup:ctx <- $rsp
	#DEBUG_VALUE: chacha_ivsetup:iv <- $rcx
	#DEBUG_VALUE: chacha_ivsetup:counter <- undef
	#DEBUG_VALUE: load32_le:w <- undef
	#DEBUG_VALUE: load32_le:src <- undef
	#DEBUG_VALUE: memcpy:__dest <- undef
	#DEBUG_VALUE: memcpy:__src <- undef
	#DEBUG_VALUE: memcpy:__len <- 4
	.loc	4 65 20                         # crypto_stream/chacha20/ref/chacha20_ref.c:65:20 @[ crypto_stream/chacha20/ref/chacha20_ref.c:279:5 ]
	movl	%r8d, 48(%rsp)
.Ltmp56:
	#DEBUG_VALUE: load32_le:w <- undef
	#DEBUG_VALUE: load32_le:src <- undef
	#DEBUG_VALUE: memcpy:__dest <- undef
	#DEBUG_VALUE: memcpy:__src <- undef
	#DEBUG_VALUE: memcpy:__len <- 4
	.loc	4 66 20                         # crypto_stream/chacha20/ref/chacha20_ref.c:66:20 @[ crypto_stream/chacha20/ref/chacha20_ref.c:279:5 ]
	movl	%edi, 52(%rsp)
.Ltmp57:
	#DEBUG_VALUE: load32_le:w <- undef
	#DEBUG_VALUE: load32_le:src <- $rcx
	#DEBUG_VALUE: memcpy:__dest <- undef
	#DEBUG_VALUE: memcpy:__src <- $rcx
	#DEBUG_VALUE: memcpy:__len <- 4
	#DEBUG_VALUE: stream_ref_xor_ic:ctx <- [DW_OP_LLVM_fragment 448 32] undef
	#DEBUG_VALUE: stream_ref_xor_ic:ctx <- [DW_OP_plus_uconst 40, DW_OP_deref, DW_OP_LLVM_fragment 320 128] $rsp
	#DEBUG_VALUE: stream_ref_xor_ic:ctx <- [DW_OP_plus_uconst 60, DW_OP_deref, DW_OP_LLVM_fragment 480 32] $rsp
	#DEBUG_VALUE: load32_le:w <- undef
	#DEBUG_VALUE: memcpy:__dest <- undef
	#DEBUG_VALUE: memcpy:__len <- 4
	.loc	5 29 10                         # /usr/include/x86_64-linux-gnu/bits/string_fortified.h:29:10 @[ ./include/sodium/private/common.h:106:5 @[ crypto_stream/chacha20/ref/chacha20_ref.c:67:22 @[ crypto_stream/chacha20/ref/chacha20_ref.c:279:5 ] ] ]
	movq	(%rcx), %rcx
.Ltmp58:
	#DEBUG_VALUE: stream_ref_xor_ic:n <- [DW_OP_LLVM_entry_value 1] $rcx
	.loc	4 67 20                         # crypto_stream/chacha20/ref/chacha20_ref.c:67:20 @[ crypto_stream/chacha20/ref/chacha20_ref.c:279:5 ]
	movq	%rcx, 56(%rsp)
.Ltmp59:
	#DEBUG_VALUE: stream_ref_xor_ic:ctx <- [DW_OP_plus_uconst 40, DW_OP_deref, DW_OP_LLVM_fragment 320 192] $rsp
	.loc	4 0 20 is_stmt 0                # crypto_stream/chacha20/ref/chacha20_ref.c:0:20
	movq	%rsp, %rbx
.Ltmp60:
	.loc	4 280 5 is_stmt 1               # crypto_stream/chacha20/ref/chacha20_ref.c:280:5
	movq	%rbx, %rdi
.Ltmp61:
	movq	%rax, %rcx
	callq	chacha20_encrypt_bytes
.Ltmp62:
	#DEBUG_VALUE: stream_ref_xor_ic:mlen <- [DW_OP_LLVM_entry_value 1] $rdx
	#DEBUG_VALUE: stream_ref_xor_ic:c <- [DW_OP_LLVM_entry_value 1] $rdi
	#DEBUG_VALUE: stream_ref_xor_ic:m <- [DW_OP_LLVM_entry_value 1] $rsi
	#DEBUG_VALUE: stream_ref_xor_ic:ic <- [DW_OP_LLVM_entry_value 1] $r8
	#DEBUG_VALUE: stream_ref_xor_ic:k <- [DW_OP_LLVM_entry_value 1] $r9
	.loc	4 281 5                         # crypto_stream/chacha20/ref/chacha20_ref.c:281:5
	movl	$64, %esi
	movq	%rbx, %rdi
	callq	sodium_memzero@PLT
.Ltmp63:
	.loc	4 0 5 is_stmt 0                 # crypto_stream/chacha20/ref/chacha20_ref.c:0:5
	addq	$64, %rsp
.Ltmp64:
	#DEBUG_VALUE: chacha_ivsetup:ctx <- $rbx
	#DEBUG_VALUE: chacha_keysetup:ctx <- $rbx
	#DEBUG_VALUE: stream_ref_xor_ic:ctx <- [DW_OP_plus_uconst 60, DW_OP_deref, DW_OP_LLVM_fragment 480 32] $rbx
	#DEBUG_VALUE: stream_ref_xor_ic:ctx <- [DW_OP_plus_uconst 40, DW_OP_deref, DW_OP_LLVM_fragment 320 128] $rbx
	#DEBUG_VALUE: stream_ref_xor_ic:ctx <- [DW_OP_plus_uconst 40, DW_OP_deref, DW_OP_LLVM_fragment 320 192] $rbx
	#DEBUG_VALUE: stream_ref_xor_ic:ctx <- [DW_OP_plus_uconst 44, DW_OP_deref, DW_OP_LLVM_fragment 352 160] $rbx
	#DEBUG_VALUE: stream_ref_xor_ic:ctx <- [DW_OP_plus_uconst 24, DW_OP_deref, DW_OP_LLVM_fragment 192 64] $rbx
	#DEBUG_VALUE: stream_ref_xor_ic:ctx <- [DW_OP_plus_uconst 24, DW_OP_deref, DW_OP_LLVM_fragment 192 320] $rbx
	#DEBUG_VALUE: stream_ref_xor_ic:ctx <- [DW_OP_plus_uconst 28, DW_OP_deref, DW_OP_LLVM_fragment 224 288] $rbx
	#DEBUG_VALUE: stream_ref_xor_ic:ctx <- [DW_OP_plus_uconst 8, DW_OP_deref, DW_OP_LLVM_fragment 64 64] $rbx
	#DEBUG_VALUE: stream_ref_xor_ic:ctx <- [DW_OP_plus_uconst 8, DW_OP_deref, DW_OP_LLVM_fragment 64 448] $rbx
	#DEBUG_VALUE: stream_ref_xor_ic:ctx <- [DW_OP_plus_uconst 12, DW_OP_deref, DW_OP_LLVM_fragment 96 416] $rbx
	.cfi_def_cfa_offset 16
	popq	%rbx
.Ltmp65:
	.cfi_def_cfa_offset 8
	.cfi_restore %rbx
.LBB2_2:
	#DEBUG_VALUE: stream_ref_xor_ic:c <- [DW_OP_LLVM_entry_value 1] $rdi
	#DEBUG_VALUE: stream_ref_xor_ic:m <- [DW_OP_LLVM_entry_value 1] $rsi
	#DEBUG_VALUE: stream_ref_xor_ic:mlen <- [DW_OP_LLVM_entry_value 1] $rdx
	#DEBUG_VALUE: stream_ref_xor_ic:n <- [DW_OP_LLVM_entry_value 1] $rcx
	#DEBUG_VALUE: stream_ref_xor_ic:ic <- [DW_OP_LLVM_entry_value 1] $r8
	#DEBUG_VALUE: stream_ref_xor_ic:k <- [DW_OP_LLVM_entry_value 1] $r9
	.loc	4 284 1 is_stmt 1               # crypto_stream/chacha20/ref/chacha20_ref.c:284:1
	xorl	%eax, %eax
	retq
.Ltmp66:
.Lfunc_end2:
	.size	stream_ref_xor_ic, .Lfunc_end2-stream_ref_xor_ic
	.cfi_endproc
                                        # -- End function
	.section	.rodata.cst16,"aM",@progbits,16
	.p2align	4, 0x0                          # -- Begin function stream_ietf_ext_ref_xor_ic
.LCPI3_0:
	.long	1634760805                      # 0x61707865
	.long	857760878                       # 0x3320646e
	.long	2036477234                      # 0x79622d32
	.long	1797285236                      # 0x6b206574
	.text
	.p2align	4
	.type	stream_ietf_ext_ref_xor_ic,@function
stream_ietf_ext_ref_xor_ic:             # @stream_ietf_ext_ref_xor_ic
.Lfunc_begin3:
	.loc	4 290 0                         # crypto_stream/chacha20/ref/chacha20_ref.c:290:0
	.cfi_startproc
# %bb.0:
	#DEBUG_VALUE: stream_ietf_ext_ref_xor_ic:c <- $rdi
	#DEBUG_VALUE: stream_ietf_ext_ref_xor_ic:m <- $rsi
	#DEBUG_VALUE: stream_ietf_ext_ref_xor_ic:mlen <- $rdx
	#DEBUG_VALUE: stream_ietf_ext_ref_xor_ic:n <- $rcx
	#DEBUG_VALUE: stream_ietf_ext_ref_xor_ic:ic <- $r8d
	#DEBUG_VALUE: stream_ietf_ext_ref_xor_ic:k <- $r9
	movq	%rdx, %rax
.Ltmp67:
	#DEBUG_VALUE: stream_ietf_ext_ref_xor_ic:ctx <- [DW_OP_deref] $rsp
	.loc	4 294 10 prologue_end           # crypto_stream/chacha20/ref/chacha20_ref.c:294:10
	testq	%rdx, %rdx
	.loc	4 294 9 is_stmt 0               # crypto_stream/chacha20/ref/chacha20_ref.c:294:9
	je	.LBB3_2
.Ltmp68:
# %bb.1:
	#DEBUG_VALUE: stream_ietf_ext_ref_xor_ic:c <- $rdi
	#DEBUG_VALUE: stream_ietf_ext_ref_xor_ic:m <- $rsi
	#DEBUG_VALUE: stream_ietf_ext_ref_xor_ic:mlen <- $rdx
	#DEBUG_VALUE: stream_ietf_ext_ref_xor_ic:n <- $rcx
	#DEBUG_VALUE: stream_ietf_ext_ref_xor_ic:ic <- $r8d
	#DEBUG_VALUE: stream_ietf_ext_ref_xor_ic:k <- $r9
	#DEBUG_VALUE: stream_ietf_ext_ref_xor_ic:ctx <- [DW_OP_deref] $rsp
	pushq	%rbx
	.cfi_def_cfa_offset 16
	subq	$64, %rsp
	.cfi_def_cfa_offset 80
	.cfi_offset %rbx, -16
	movq	%rdi, %rdx
.Ltmp69:
	#DEBUG_VALUE: stream_ietf_ext_ref_xor_ic:mlen <- $rax
	#DEBUG_VALUE: memcpy:__dest <- undef
	#DEBUG_VALUE: memcpy:__src <- undef
	#DEBUG_VALUE: memcpy:__len <- 4
	#DEBUG_VALUE: stream_ietf_ext_ref_xor_ic:ic_bytes <- $r8d
	#DEBUG_VALUE: chacha_keysetup:ctx <- $rsp
	#DEBUG_VALUE: chacha_keysetup:k <- $r9
	#DEBUG_VALUE: stream_ietf_ext_ref_xor_ic:ctx <- [DW_OP_LLVM_fragment 0 32] 1634760805
	#DEBUG_VALUE: stream_ietf_ext_ref_xor_ic:ctx <- [DW_OP_LLVM_fragment 32 32] 857760878
	#DEBUG_VALUE: stream_ietf_ext_ref_xor_ic:ctx <- [DW_OP_LLVM_fragment 64 32] 2036477234
	#DEBUG_VALUE: stream_ietf_ext_ref_xor_ic:ctx <- [DW_OP_plus_uconst 12, DW_OP_deref, DW_OP_LLVM_fragment 96 416] $rsp
	.loc	4 48 19 is_stmt 1               # crypto_stream/chacha20/ref/chacha20_ref.c:48:19 @[ crypto_stream/chacha20/ref/chacha20_ref.c:298:5 ]
	movaps	.LCPI3_0(%rip), %xmm0           # xmm0 = [1634760805,857760878,2036477234,1797285236]
	movaps	%xmm0, (%rsp)
.Ltmp70:
	#DEBUG_VALUE: stream_ietf_ext_ref_xor_ic:ctx <- [DW_OP_plus_uconst 8, DW_OP_deref, DW_OP_LLVM_fragment 64 448] $rsp
	#DEBUG_VALUE: load32_le:w <- undef
	#DEBUG_VALUE: load32_le:src <- $r9
	#DEBUG_VALUE: memcpy:__dest <- undef
	#DEBUG_VALUE: memcpy:__src <- $r9
	#DEBUG_VALUE: memcpy:__len <- 4
	#DEBUG_VALUE: stream_ietf_ext_ref_xor_ic:ctx <- [DW_OP_LLVM_fragment 128 32] undef
	#DEBUG_VALUE: stream_ietf_ext_ref_xor_ic:ctx <- [DW_OP_plus_uconst 8, DW_OP_deref, DW_OP_LLVM_fragment 64 64] $rsp
	#DEBUG_VALUE: load32_le:w <- undef
	#DEBUG_VALUE: memcpy:__dest <- undef
	#DEBUG_VALUE: memcpy:__len <- 4
	#DEBUG_VALUE: stream_ietf_ext_ref_xor_ic:ctx <- [DW_OP_LLVM_fragment 160 32] undef
	#DEBUG_VALUE: load32_le:w <- undef
	#DEBUG_VALUE: memcpy:__dest <- undef
	#DEBUG_VALUE: memcpy:__len <- 4
	#DEBUG_VALUE: stream_ietf_ext_ref_xor_ic:ctx <- [DW_OP_LLVM_fragment 192 32] undef
	#DEBUG_VALUE: stream_ietf_ext_ref_xor_ic:ctx <- [DW_OP_plus_uconst 28, DW_OP_deref, DW_OP_LLVM_fragment 224 288] $rsp
	#DEBUG_VALUE: load32_le:w <- undef
	#DEBUG_VALUE: memcpy:__dest <- undef
	#DEBUG_VALUE: memcpy:__len <- 4
	.loc	5 29 10                         # /usr/include/x86_64-linux-gnu/bits/string_fortified.h:29:10 @[ ./include/sodium/private/common.h:106:5 @[ crypto_stream/chacha20/ref/chacha20_ref.c:52:21 @[ crypto_stream/chacha20/ref/chacha20_ref.c:298:5 ] ] ]
	movups	(%r9), %xmm0
.Ltmp71:
	.loc	4 52 19                         # crypto_stream/chacha20/ref/chacha20_ref.c:52:19 @[ crypto_stream/chacha20/ref/chacha20_ref.c:298:5 ]
	movaps	%xmm0, 16(%rsp)
.Ltmp72:
	#DEBUG_VALUE: stream_ietf_ext_ref_xor_ic:ctx <- [DW_OP_plus_uconst 24, DW_OP_deref, DW_OP_LLVM_fragment 192 320] $rsp
	#DEBUG_VALUE: load32_le:w <- undef
	#DEBUG_VALUE: memcpy:__dest <- undef
	#DEBUG_VALUE: memcpy:__len <- 4
	#DEBUG_VALUE: load32_le:src <- [DW_OP_plus_uconst 16, DW_OP_stack_value] $r9
	#DEBUG_VALUE: memcpy:__src <- [DW_OP_plus_uconst 16, DW_OP_stack_value] $r9
	#DEBUG_VALUE: stream_ietf_ext_ref_xor_ic:ctx <- [DW_OP_LLVM_fragment 256 32] undef
	#DEBUG_VALUE: stream_ietf_ext_ref_xor_ic:ctx <- [DW_OP_plus_uconst 24, DW_OP_deref, DW_OP_LLVM_fragment 192 64] $rsp
	#DEBUG_VALUE: load32_le:w <- undef
	#DEBUG_VALUE: memcpy:__dest <- undef
	#DEBUG_VALUE: memcpy:__len <- 4
	#DEBUG_VALUE: stream_ietf_ext_ref_xor_ic:ctx <- [DW_OP_LLVM_fragment 288 32] undef
	#DEBUG_VALUE: load32_le:w <- undef
	#DEBUG_VALUE: memcpy:__dest <- undef
	#DEBUG_VALUE: memcpy:__len <- 4
	#DEBUG_VALUE: stream_ietf_ext_ref_xor_ic:ctx <- [DW_OP_LLVM_fragment 320 32] undef
	#DEBUG_VALUE: stream_ietf_ext_ref_xor_ic:ctx <- [DW_OP_plus_uconst 44, DW_OP_deref, DW_OP_LLVM_fragment 352 160] $rsp
	#DEBUG_VALUE: load32_le:w <- undef
	#DEBUG_VALUE: memcpy:__dest <- undef
	#DEBUG_VALUE: memcpy:__len <- 4
	.loc	5 29 10                         # /usr/include/x86_64-linux-gnu/bits/string_fortified.h:29:10 @[ ./include/sodium/private/common.h:106:5 @[ crypto_stream/chacha20/ref/chacha20_ref.c:56:21 @[ crypto_stream/chacha20/ref/chacha20_ref.c:298:5 ] ] ]
	movups	16(%r9), %xmm0
.Ltmp73:
	.loc	4 56 19                         # crypto_stream/chacha20/ref/chacha20_ref.c:56:19 @[ crypto_stream/chacha20/ref/chacha20_ref.c:298:5 ]
	movaps	%xmm0, 32(%rsp)
.Ltmp74:
	#DEBUG_VALUE: stream_ietf_ext_ref_xor_ic:ctx <- [DW_OP_plus_uconst 40, DW_OP_deref, DW_OP_LLVM_fragment 320 192] $rsp
	#DEBUG_VALUE: chacha_ietf_ivsetup:ctx <- $rsp
	#DEBUG_VALUE: chacha_ietf_ivsetup:iv <- $rcx
	#DEBUG_VALUE: chacha_ietf_ivsetup:counter <- undef
	#DEBUG_VALUE: load32_le:w <- undef
	#DEBUG_VALUE: load32_le:src <- undef
	#DEBUG_VALUE: memcpy:__dest <- undef
	#DEBUG_VALUE: memcpy:__src <- undef
	#DEBUG_VALUE: memcpy:__len <- 4
	.loc	4 74 20                         # crypto_stream/chacha20/ref/chacha20_ref.c:74:20 @[ crypto_stream/chacha20/ref/chacha20_ref.c:299:5 ]
	movl	%r8d, 48(%rsp)
.Ltmp75:
	#DEBUG_VALUE: load32_le:w <- undef
	#DEBUG_VALUE: load32_le:src <- $rcx
	#DEBUG_VALUE: memcpy:__dest <- undef
	#DEBUG_VALUE: memcpy:__src <- $rcx
	#DEBUG_VALUE: memcpy:__len <- 4
	#DEBUG_VALUE: stream_ietf_ext_ref_xor_ic:ctx <- [DW_OP_LLVM_fragment 416 32] undef
	#DEBUG_VALUE: stream_ietf_ext_ref_xor_ic:ctx <- [DW_OP_plus_uconst 40, DW_OP_deref, DW_OP_LLVM_fragment 320 96] $rsp
	#DEBUG_VALUE: stream_ietf_ext_ref_xor_ic:ctx <- [DW_OP_plus_uconst 56, DW_OP_deref, DW_OP_LLVM_fragment 448 64] $rsp
	#DEBUG_VALUE: load32_le:w <- undef
	#DEBUG_VALUE: memcpy:__dest <- undef
	#DEBUG_VALUE: memcpy:__len <- 4
	.loc	5 29 10                         # /usr/include/x86_64-linux-gnu/bits/string_fortified.h:29:10 @[ ./include/sodium/private/common.h:106:5 @[ crypto_stream/chacha20/ref/chacha20_ref.c:75:22 @[ crypto_stream/chacha20/ref/chacha20_ref.c:299:5 ] ] ]
	movq	(%rcx), %rdi
.Ltmp76:
	#DEBUG_VALUE: stream_ietf_ext_ref_xor_ic:c <- $rdx
	.loc	4 75 20                         # crypto_stream/chacha20/ref/chacha20_ref.c:75:20 @[ crypto_stream/chacha20/ref/chacha20_ref.c:299:5 ]
	movq	%rdi, 52(%rsp)
.Ltmp77:
	#DEBUG_VALUE: stream_ietf_ext_ref_xor_ic:ctx <- [DW_OP_plus_uconst 40, DW_OP_deref, DW_OP_LLVM_fragment 320 192] $rsp
	#DEBUG_VALUE: load32_le:w <- undef
	#DEBUG_VALUE: memcpy:__dest <- undef
	#DEBUG_VALUE: memcpy:__len <- 4
	#DEBUG_VALUE: load32_le:src <- [DW_OP_plus_uconst 8, DW_OP_stack_value] $rcx
	#DEBUG_VALUE: memcpy:__src <- [DW_OP_plus_uconst 8, DW_OP_stack_value] $rcx
	.loc	5 29 10                         # /usr/include/x86_64-linux-gnu/bits/string_fortified.h:29:10 @[ ./include/sodium/private/common.h:106:5 @[ crypto_stream/chacha20/ref/chacha20_ref.c:77:22 @[ crypto_stream/chacha20/ref/chacha20_ref.c:299:5 ] ] ]
	movl	8(%rcx), %ecx
.Ltmp78:
	#DEBUG_VALUE: stream_ietf_ext_ref_xor_ic:n <- [DW_OP_LLVM_entry_value 1] $rcx
	.loc	4 77 20                         # crypto_stream/chacha20/ref/chacha20_ref.c:77:20 @[ crypto_stream/chacha20/ref/chacha20_ref.c:299:5 ]
	movl	%ecx, 60(%rsp)
	movq	%rsp, %rbx
.Ltmp79:
	.loc	4 300 5                         # crypto_stream/chacha20/ref/chacha20_ref.c:300:5
	movq	%rbx, %rdi
	movq	%rax, %rcx
	callq	chacha20_encrypt_bytes
.Ltmp80:
	#DEBUG_VALUE: stream_ietf_ext_ref_xor_ic:mlen <- [DW_OP_LLVM_entry_value 1] $rdx
	#DEBUG_VALUE: stream_ietf_ext_ref_xor_ic:c <- [DW_OP_LLVM_entry_value 1] $rdi
	#DEBUG_VALUE: stream_ietf_ext_ref_xor_ic:m <- [DW_OP_LLVM_entry_value 1] $rsi
	#DEBUG_VALUE: stream_ietf_ext_ref_xor_ic:ic <- [DW_OP_LLVM_entry_value 1] $r8d
	#DEBUG_VALUE: stream_ietf_ext_ref_xor_ic:k <- [DW_OP_LLVM_entry_value 1] $r9
	.loc	4 301 5                         # crypto_stream/chacha20/ref/chacha20_ref.c:301:5
	movl	$64, %esi
	movq	%rbx, %rdi
	callq	sodium_memzero@PLT
.Ltmp81:
	.loc	4 0 5 is_stmt 0                 # crypto_stream/chacha20/ref/chacha20_ref.c:0:5
	addq	$64, %rsp
.Ltmp82:
	#DEBUG_VALUE: chacha_ietf_ivsetup:ctx <- $rbx
	#DEBUG_VALUE: chacha_keysetup:ctx <- $rbx
	#DEBUG_VALUE: stream_ietf_ext_ref_xor_ic:ctx <- [DW_OP_plus_uconst 56, DW_OP_deref, DW_OP_LLVM_fragment 448 64] $rbx
	#DEBUG_VALUE: stream_ietf_ext_ref_xor_ic:ctx <- [DW_OP_plus_uconst 40, DW_OP_deref, DW_OP_LLVM_fragment 320 96] $rbx
	#DEBUG_VALUE: stream_ietf_ext_ref_xor_ic:ctx <- [DW_OP_plus_uconst 40, DW_OP_deref, DW_OP_LLVM_fragment 320 192] $rbx
	#DEBUG_VALUE: stream_ietf_ext_ref_xor_ic:ctx <- [DW_OP_plus_uconst 44, DW_OP_deref, DW_OP_LLVM_fragment 352 160] $rbx
	#DEBUG_VALUE: stream_ietf_ext_ref_xor_ic:ctx <- [DW_OP_plus_uconst 24, DW_OP_deref, DW_OP_LLVM_fragment 192 64] $rbx
	#DEBUG_VALUE: stream_ietf_ext_ref_xor_ic:ctx <- [DW_OP_plus_uconst 24, DW_OP_deref, DW_OP_LLVM_fragment 192 320] $rbx
	#DEBUG_VALUE: stream_ietf_ext_ref_xor_ic:ctx <- [DW_OP_plus_uconst 28, DW_OP_deref, DW_OP_LLVM_fragment 224 288] $rbx
	#DEBUG_VALUE: stream_ietf_ext_ref_xor_ic:ctx <- [DW_OP_plus_uconst 8, DW_OP_deref, DW_OP_LLVM_fragment 64 64] $rbx
	#DEBUG_VALUE: stream_ietf_ext_ref_xor_ic:ctx <- [DW_OP_plus_uconst 8, DW_OP_deref, DW_OP_LLVM_fragment 64 448] $rbx
	#DEBUG_VALUE: stream_ietf_ext_ref_xor_ic:ctx <- [DW_OP_plus_uconst 12, DW_OP_deref, DW_OP_LLVM_fragment 96 416] $rbx
	.cfi_def_cfa_offset 16
	popq	%rbx
.Ltmp83:
	.cfi_def_cfa_offset 8
	.cfi_restore %rbx
.LBB3_2:
	#DEBUG_VALUE: stream_ietf_ext_ref_xor_ic:c <- [DW_OP_LLVM_entry_value 1] $rdi
	#DEBUG_VALUE: stream_ietf_ext_ref_xor_ic:m <- [DW_OP_LLVM_entry_value 1] $rsi
	#DEBUG_VALUE: stream_ietf_ext_ref_xor_ic:mlen <- [DW_OP_LLVM_entry_value 1] $rdx
	#DEBUG_VALUE: stream_ietf_ext_ref_xor_ic:n <- [DW_OP_LLVM_entry_value 1] $rcx
	#DEBUG_VALUE: stream_ietf_ext_ref_xor_ic:ic <- [DW_OP_LLVM_entry_value 1] $r8d
	#DEBUG_VALUE: stream_ietf_ext_ref_xor_ic:k <- [DW_OP_LLVM_entry_value 1] $r9
	.loc	4 304 1 is_stmt 1               # crypto_stream/chacha20/ref/chacha20_ref.c:304:1
	xorl	%eax, %eax
	retq
.Ltmp84:
.Lfunc_end3:
	.size	stream_ietf_ext_ref_xor_ic, .Lfunc_end3-stream_ietf_ext_ref_xor_ic
	.cfi_endproc
                                        # -- End function
	.p2align	4                               # -- Begin function chacha20_encrypt_bytes
	.type	chacha20_encrypt_bytes,@function
chacha20_encrypt_bytes:                 # @chacha20_encrypt_bytes
.Lfunc_begin4:
	.loc	4 83 0                          # crypto_stream/chacha20/ref/chacha20_ref.c:83:0
	.cfi_startproc
# %bb.0:
	#DEBUG_VALUE: chacha20_encrypt_bytes:ctx <- $rdi
	#DEBUG_VALUE: chacha20_encrypt_bytes:m <- $rsi
	#DEBUG_VALUE: chacha20_encrypt_bytes:c <- $rdx
	#DEBUG_VALUE: chacha20_encrypt_bytes:bytes <- $rcx
	pushq	%rbp
	.cfi_def_cfa_offset 16
	pushq	%r15
	.cfi_def_cfa_offset 24
	pushq	%r14
	.cfi_def_cfa_offset 32
	pushq	%r13
	.cfi_def_cfa_offset 40
	pushq	%r12
	.cfi_def_cfa_offset 48
	pushq	%rbx
	.cfi_def_cfa_offset 56
	subq	$216, %rsp
	.cfi_def_cfa_offset 272
	.cfi_offset %rbx, -56
	.cfi_offset %r12, -48
	.cfi_offset %r13, -40
	.cfi_offset %r14, -32
	.cfi_offset %r15, -24
	.cfi_offset %rbp, -16
	movq	%rdx, %rbx
	movq	%fs:40, %rax
	movq	%rax, 208(%rsp)
.Ltmp85:
	#DEBUG_VALUE: chacha20_encrypt_bytes:ctarget <- 0
	.loc	4 95 10 prologue_end            # crypto_stream/chacha20/ref/chacha20_ref.c:95:10
	movl	(%rdi), %r9d
.Ltmp86:
	#DEBUG_VALUE: chacha20_encrypt_bytes:j0 <- $r9d
	.loc	4 96 10                         # crypto_stream/chacha20/ref/chacha20_ref.c:96:10
	movl	4(%rdi), %eax
	movl	%eax, 96(%rsp)                  # 4-byte Spill
	movdqu	4(%rdi), %xmm0
	.loc	4 100 10                        # crypto_stream/chacha20/ref/chacha20_ref.c:100:10
	movdqu	20(%rdi), %xmm1
	movl	20(%rdi), %eax
	movl	%eax, 92(%rsp)                  # 4-byte Spill
	.loc	4 104 10                        # crypto_stream/chacha20/ref/chacha20_ref.c:104:10
	movl	36(%rdi), %eax
.Ltmp87:
	#DEBUG_VALUE: chacha20_encrypt_bytes:j9 <- $eax
	.loc	4 0 10 is_stmt 0                # crypto_stream/chacha20/ref/chacha20_ref.c:0:10
	movl	%eax, 36(%rsp)                  # 4-byte Spill
.Ltmp88:
	#DEBUG_VALUE: chacha20_encrypt_bytes:j9 <- [DW_OP_plus_uconst 36, DW_OP_deref] $rsp
	.loc	4 105 11 is_stmt 1              # crypto_stream/chacha20/ref/chacha20_ref.c:105:11
	movl	40(%rdi), %eax
.Ltmp89:
	#DEBUG_VALUE: chacha20_encrypt_bytes:j10 <- $eax
	.loc	4 0 11 is_stmt 0                # crypto_stream/chacha20/ref/chacha20_ref.c:0:11
	movl	%eax, 32(%rsp)                  # 4-byte Spill
.Ltmp90:
	#DEBUG_VALUE: chacha20_encrypt_bytes:j10 <- [DW_OP_plus_uconst 32, DW_OP_deref] $rsp
	.loc	4 106 11 is_stmt 1              # crypto_stream/chacha20/ref/chacha20_ref.c:106:11
	movl	44(%rdi), %eax
.Ltmp91:
	#DEBUG_VALUE: chacha20_encrypt_bytes:j11 <- $eax
	.loc	4 0 11 is_stmt 0                # crypto_stream/chacha20/ref/chacha20_ref.c:0:11
	movl	%eax, 28(%rsp)                  # 4-byte Spill
.Ltmp92:
	#DEBUG_VALUE: chacha20_encrypt_bytes:j11 <- [DW_OP_plus_uconst 28, DW_OP_deref] $rsp
	.loc	4 107 11 is_stmt 1              # crypto_stream/chacha20/ref/chacha20_ref.c:107:11
	movl	48(%rdi), %eax
.Ltmp93:
	#DEBUG_VALUE: chacha20_encrypt_bytes:j12 <- $eax
	.loc	4 0 11 is_stmt 0                # crypto_stream/chacha20/ref/chacha20_ref.c:0:11
	movl	%eax, 12(%rsp)                  # 4-byte Spill
.Ltmp94:
	#DEBUG_VALUE: chacha20_encrypt_bytes:j12 <- [DW_OP_plus_uconst 12, DW_OP_deref] $rsp
	.loc	4 108 11 is_stmt 1              # crypto_stream/chacha20/ref/chacha20_ref.c:108:11
	movl	52(%rdi), %r8d
.Ltmp95:
	#DEBUG_VALUE: chacha20_encrypt_bytes:j13 <- $r8d
	.loc	4 109 11                        # crypto_stream/chacha20/ref/chacha20_ref.c:109:11
	movl	56(%rdi), %eax
.Ltmp96:
	#DEBUG_VALUE: chacha20_encrypt_bytes:j14 <- $eax
	.loc	4 0 11 is_stmt 0                # crypto_stream/chacha20/ref/chacha20_ref.c:0:11
	movl	%eax, 24(%rsp)                  # 4-byte Spill
.Ltmp97:
	#DEBUG_VALUE: chacha20_encrypt_bytes:j14 <- [DW_OP_plus_uconst 24, DW_OP_deref] $rsp
	.loc	4 110 11 is_stmt 1              # crypto_stream/chacha20/ref/chacha20_ref.c:110:11
	movl	60(%rdi), %eax
.Ltmp98:
	#DEBUG_VALUE: chacha20_encrypt_bytes:j15 <- $eax
	.loc	4 0 11 is_stmt 0                # crypto_stream/chacha20/ref/chacha20_ref.c:0:11
	movl	%eax, 20(%rsp)                  # 4-byte Spill
.Ltmp99:
	#DEBUG_VALUE: chacha20_encrypt_bytes:j15 <- [DW_OP_plus_uconst 20, DW_OP_deref] $rsp
	.loc	4 138 9 is_stmt 1               # crypto_stream/chacha20/ref/chacha20_ref.c:138:9
	movl	8(%rdi), %eax
	movl	%eax, 88(%rsp)                  # 4-byte Spill
	xorps	%xmm2, %xmm2
	movl	12(%rdi), %eax
	movl	%eax, 84(%rsp)                  # 4-byte Spill
	movl	16(%rdi), %eax
	movl	%eax, 80(%rsp)                  # 4-byte Spill
	movl	24(%rdi), %eax
	movl	%eax, 76(%rsp)                  # 4-byte Spill
	movl	28(%rdi), %eax
	movl	%eax, 72(%rsp)                  # 4-byte Spill
	movq	%rdi, 120(%rsp)                 # 8-byte Spill
.Ltmp100:
	#DEBUG_VALUE: chacha20_encrypt_bytes:ctx <- [DW_OP_plus_uconst 120] [$rsp+0]
	movl	32(%rdi), %eax
	movl	%eax, 68(%rsp)                  # 4-byte Spill
	xorl	%r11d, %r11d
	movq	%rcx, 112(%rsp)                 # 8-byte Spill
.Ltmp101:
	#DEBUG_VALUE: chacha20_encrypt_bytes:bytes <- [DW_OP_plus_uconst 112] [$rsp+0]
	.loc	4 0 9 is_stmt 0                 # crypto_stream/chacha20/ref/chacha20_ref.c:0:9
	movq	%rcx, %rdi
	movq	$0, 40(%rsp)                    # 8-byte Folded Spill
	movl	%r9d, 100(%rsp)                 # 4-byte Spill
.Ltmp102:
	#DEBUG_VALUE: chacha20_encrypt_bytes:j0 <- [DW_OP_plus_uconst 100, DW_OP_deref] $rsp
	.p2align	4
.LBB4_1:                                # =>This Loop Header: Depth=1
                                        #     Child Loop BB4_19 Depth 2
                                        #     Child Loop BB4_23 Depth 2
                                        #     Child Loop BB4_7 Depth 2
                                        #     Child Loop BB4_10 Depth 2
	#DEBUG_VALUE: chacha20_encrypt_bytes:ctx <- [DW_OP_plus_uconst 120] [$rsp+0]
	#DEBUG_VALUE: chacha20_encrypt_bytes:m <- $rsi
	#DEBUG_VALUE: chacha20_encrypt_bytes:c <- $rbx
	#DEBUG_VALUE: chacha20_encrypt_bytes:bytes <- $rdi
	#DEBUG_VALUE: chacha20_encrypt_bytes:j0 <- [DW_OP_plus_uconst 100, DW_OP_deref] $rsp
	#DEBUG_VALUE: chacha20_encrypt_bytes:j9 <- [DW_OP_plus_uconst 36, DW_OP_deref] $rsp
	#DEBUG_VALUE: chacha20_encrypt_bytes:j10 <- [DW_OP_plus_uconst 32, DW_OP_deref] $rsp
	#DEBUG_VALUE: chacha20_encrypt_bytes:j11 <- [DW_OP_plus_uconst 28, DW_OP_deref] $rsp
	#DEBUG_VALUE: chacha20_encrypt_bytes:j12 <- [DW_OP_plus_uconst 12, DW_OP_deref] $rsp
	#DEBUG_VALUE: chacha20_encrypt_bytes:j13 <- $r8d
	#DEBUG_VALUE: chacha20_encrypt_bytes:j14 <- [DW_OP_plus_uconst 24, DW_OP_deref] $rsp
	#DEBUG_VALUE: chacha20_encrypt_bytes:j15 <- [DW_OP_plus_uconst 20, DW_OP_deref] $rsp
	#DEBUG_VALUE: chacha20_encrypt_bytes:ctarget <- [DW_OP_plus_uconst 40, DW_OP_deref] $rsp
	#DEBUG_VALUE: chacha20_encrypt_bytes:m <- $rsi
	#DEBUG_VALUE: chacha20_encrypt_bytes:c <- $rbx
	#DEBUG_VALUE: chacha20_encrypt_bytes:j13 <- $r8d
	#DEBUG_VALUE: chacha20_encrypt_bytes:j12 <- [DW_OP_plus_uconst 12, DW_OP_deref] $rsp
	#DEBUG_VALUE: chacha20_encrypt_bytes:bytes <- $rdi
	.loc	4 113 19 is_stmt 1              # crypto_stream/chacha20/ref/chacha20_ref.c:113:19
	cmpq	$63, %rdi
	movq	%rdi, 136(%rsp)                 # 8-byte Spill
.Ltmp103:
	#DEBUG_VALUE: chacha20_encrypt_bytes:bytes <- [DW_OP_plus_uconst 136, DW_OP_deref] $rsp
	.loc	4 0 19 is_stmt 0                # crypto_stream/chacha20/ref/chacha20_ref.c:0:19
	movq	%r11, 128(%rsp)                 # 8-byte Spill
	.loc	4 113 19                        # crypto_stream/chacha20/ref/chacha20_ref.c:113:19
	jbe	.LBB4_3
.Ltmp104:
# %bb.2:                                #   in Loop: Header=BB4_1 Depth=1
	#DEBUG_VALUE: chacha20_encrypt_bytes:ctx <- [DW_OP_plus_uconst 120] [$rsp+0]
	#DEBUG_VALUE: chacha20_encrypt_bytes:m <- $rsi
	#DEBUG_VALUE: chacha20_encrypt_bytes:c <- $rbx
	#DEBUG_VALUE: chacha20_encrypt_bytes:bytes <- [DW_OP_plus_uconst 136, DW_OP_deref] $rsp
	#DEBUG_VALUE: chacha20_encrypt_bytes:ctarget <- [DW_OP_plus_uconst 40, DW_OP_deref] $rsp
	#DEBUG_VALUE: chacha20_encrypt_bytes:j0 <- [DW_OP_plus_uconst 100, DW_OP_deref] $rsp
	#DEBUG_VALUE: chacha20_encrypt_bytes:j9 <- [DW_OP_plus_uconst 36, DW_OP_deref] $rsp
	#DEBUG_VALUE: chacha20_encrypt_bytes:j10 <- [DW_OP_plus_uconst 32, DW_OP_deref] $rsp
	#DEBUG_VALUE: chacha20_encrypt_bytes:j11 <- [DW_OP_plus_uconst 28, DW_OP_deref] $rsp
	#DEBUG_VALUE: chacha20_encrypt_bytes:j12 <- [DW_OP_plus_uconst 12, DW_OP_deref] $rsp
	#DEBUG_VALUE: chacha20_encrypt_bytes:j13 <- $r8d
	#DEBUG_VALUE: chacha20_encrypt_bytes:j14 <- [DW_OP_plus_uconst 24, DW_OP_deref] $rsp
	#DEBUG_VALUE: chacha20_encrypt_bytes:j15 <- [DW_OP_plus_uconst 20, DW_OP_deref] $rsp
	.loc	4 0 19                          # crypto_stream/chacha20/ref/chacha20_ref.c:0:19
	movq	%rsi, 56(%rsp)                  # 8-byte Spill
.Ltmp105:
	#DEBUG_VALUE: chacha20_encrypt_bytes:m <- [DW_OP_plus_uconst 56, DW_OP_deref] $rsp
	movq	%rbx, 48(%rsp)                  # 8-byte Spill
.Ltmp106:
	#DEBUG_VALUE: chacha20_encrypt_bytes:c <- [DW_OP_plus_uconst 48, DW_OP_deref] $rsp
	.loc	4 113 19                        # crypto_stream/chacha20/ref/chacha20_ref.c:113:19
	jmp	.LBB4_9
.Ltmp107:
	.loc	4 0 19                          # :0:19
.Ltmp108:
	.p2align	4
.LBB4_3:                                # %iter.check
                                        #   in Loop: Header=BB4_1 Depth=1
	#DEBUG_VALUE: chacha20_encrypt_bytes:ctx <- [DW_OP_plus_uconst 120] [$rsp+0]
	#DEBUG_VALUE: chacha20_encrypt_bytes:m <- $rsi
	#DEBUG_VALUE: chacha20_encrypt_bytes:c <- $rbx
	#DEBUG_VALUE: chacha20_encrypt_bytes:bytes <- [DW_OP_plus_uconst 136, DW_OP_deref] $rsp
	#DEBUG_VALUE: chacha20_encrypt_bytes:ctarget <- [DW_OP_plus_uconst 40, DW_OP_deref] $rsp
	#DEBUG_VALUE: chacha20_encrypt_bytes:j0 <- [DW_OP_plus_uconst 100, DW_OP_deref] $rsp
	#DEBUG_VALUE: chacha20_encrypt_bytes:j9 <- [DW_OP_plus_uconst 36, DW_OP_deref] $rsp
	#DEBUG_VALUE: chacha20_encrypt_bytes:j10 <- [DW_OP_plus_uconst 32, DW_OP_deref] $rsp
	#DEBUG_VALUE: chacha20_encrypt_bytes:j11 <- [DW_OP_plus_uconst 28, DW_OP_deref] $rsp
	#DEBUG_VALUE: chacha20_encrypt_bytes:j12 <- [DW_OP_plus_uconst 12, DW_OP_deref] $rsp
	#DEBUG_VALUE: chacha20_encrypt_bytes:j13 <- $r8d
	#DEBUG_VALUE: chacha20_encrypt_bytes:j14 <- [DW_OP_plus_uconst 24, DW_OP_deref] $rsp
	#DEBUG_VALUE: chacha20_encrypt_bytes:j15 <- [DW_OP_plus_uconst 20, DW_OP_deref] $rsp
	#DEBUG_VALUE: memset:__dest <- [DW_OP_plus_uconst 144, DW_OP_stack_value] $rsp
	#DEBUG_VALUE: memset:__ch <- 0
	#DEBUG_VALUE: memset:__len <- 64
	.loc	5 59 10 is_stmt 1               # /usr/include/x86_64-linux-gnu/bits/string_fortified.h:59:10 @[ crypto_stream/chacha20/ref/chacha20_ref.c:114:13 ]
	movaps	%xmm2, 192(%rsp)
	movaps	%xmm2, 176(%rsp)
	movaps	%xmm2, 160(%rsp)
	movaps	%xmm2, 144(%rsp)
.Ltmp109:
	#DEBUG_VALUE: chacha20_encrypt_bytes:i <- 0
	.loc	4 115 13                        # crypto_stream/chacha20/ref/chacha20_ref.c:115:13
	cmpq	$4, %rdi
	jae	.LBB4_13
.Ltmp110:
# %bb.4:                                #   in Loop: Header=BB4_1 Depth=1
	#DEBUG_VALUE: chacha20_encrypt_bytes:ctx <- [DW_OP_plus_uconst 120] [$rsp+0]
	#DEBUG_VALUE: chacha20_encrypt_bytes:m <- $rsi
	#DEBUG_VALUE: chacha20_encrypt_bytes:c <- $rbx
	#DEBUG_VALUE: chacha20_encrypt_bytes:bytes <- [DW_OP_plus_uconst 136, DW_OP_deref] $rsp
	#DEBUG_VALUE: chacha20_encrypt_bytes:ctarget <- [DW_OP_plus_uconst 40, DW_OP_deref] $rsp
	#DEBUG_VALUE: chacha20_encrypt_bytes:j0 <- [DW_OP_plus_uconst 100, DW_OP_deref] $rsp
	#DEBUG_VALUE: chacha20_encrypt_bytes:j9 <- [DW_OP_plus_uconst 36, DW_OP_deref] $rsp
	#DEBUG_VALUE: chacha20_encrypt_bytes:j10 <- [DW_OP_plus_uconst 32, DW_OP_deref] $rsp
	#DEBUG_VALUE: chacha20_encrypt_bytes:j11 <- [DW_OP_plus_uconst 28, DW_OP_deref] $rsp
	#DEBUG_VALUE: chacha20_encrypt_bytes:j12 <- [DW_OP_plus_uconst 12, DW_OP_deref] $rsp
	#DEBUG_VALUE: chacha20_encrypt_bytes:j13 <- $r8d
	#DEBUG_VALUE: chacha20_encrypt_bytes:j14 <- [DW_OP_plus_uconst 24, DW_OP_deref] $rsp
	#DEBUG_VALUE: chacha20_encrypt_bytes:j15 <- [DW_OP_plus_uconst 20, DW_OP_deref] $rsp
	#DEBUG_VALUE: memset:__dest <- [DW_OP_plus_uconst 144, DW_OP_stack_value] $rsp
	#DEBUG_VALUE: memset:__ch <- 0
	#DEBUG_VALUE: memset:__len <- 64
	#DEBUG_VALUE: chacha20_encrypt_bytes:i <- 0
	.loc	4 0 13 is_stmt 0                # crypto_stream/chacha20/ref/chacha20_ref.c:0:13
	xorl	%eax, %eax
.Ltmp111:
.LBB4_5:                                # %.lr.ph.preheader
                                        #   in Loop: Header=BB4_1 Depth=1
	#DEBUG_VALUE: chacha20_encrypt_bytes:ctx <- [DW_OP_plus_uconst 120] [$rsp+0]
	#DEBUG_VALUE: chacha20_encrypt_bytes:m <- $rsi
	#DEBUG_VALUE: chacha20_encrypt_bytes:c <- $rbx
	#DEBUG_VALUE: chacha20_encrypt_bytes:bytes <- [DW_OP_plus_uconst 136, DW_OP_deref] $rsp
	#DEBUG_VALUE: chacha20_encrypt_bytes:ctarget <- [DW_OP_plus_uconst 40, DW_OP_deref] $rsp
	#DEBUG_VALUE: chacha20_encrypt_bytes:j0 <- [DW_OP_plus_uconst 100, DW_OP_deref] $rsp
	#DEBUG_VALUE: chacha20_encrypt_bytes:j9 <- [DW_OP_plus_uconst 36, DW_OP_deref] $rsp
	#DEBUG_VALUE: chacha20_encrypt_bytes:j10 <- [DW_OP_plus_uconst 32, DW_OP_deref] $rsp
	#DEBUG_VALUE: chacha20_encrypt_bytes:j11 <- [DW_OP_plus_uconst 28, DW_OP_deref] $rsp
	#DEBUG_VALUE: chacha20_encrypt_bytes:j12 <- [DW_OP_plus_uconst 12, DW_OP_deref] $rsp
	#DEBUG_VALUE: chacha20_encrypt_bytes:j13 <- $r8d
	#DEBUG_VALUE: chacha20_encrypt_bytes:j14 <- [DW_OP_plus_uconst 24, DW_OP_deref] $rsp
	#DEBUG_VALUE: chacha20_encrypt_bytes:j15 <- [DW_OP_plus_uconst 20, DW_OP_deref] $rsp
	#DEBUG_VALUE: memset:__dest <- [DW_OP_plus_uconst 144, DW_OP_stack_value] $rsp
	#DEBUG_VALUE: memset:__ch <- 0
	#DEBUG_VALUE: memset:__len <- 64
	#DEBUG_VALUE: chacha20_encrypt_bytes:i <- 0
	xorl	%ecx, %ecx
.Ltmp112:
.LBB4_6:                                # %.lr.ph.preheader
                                        #   in Loop: Header=BB4_1 Depth=1
	#DEBUG_VALUE: chacha20_encrypt_bytes:ctx <- [DW_OP_plus_uconst 120] [$rsp+0]
	#DEBUG_VALUE: chacha20_encrypt_bytes:m <- $rsi
	#DEBUG_VALUE: chacha20_encrypt_bytes:c <- $rbx
	#DEBUG_VALUE: chacha20_encrypt_bytes:bytes <- [DW_OP_plus_uconst 136, DW_OP_deref] $rsp
	#DEBUG_VALUE: chacha20_encrypt_bytes:ctarget <- [DW_OP_plus_uconst 40, DW_OP_deref] $rsp
	#DEBUG_VALUE: chacha20_encrypt_bytes:j0 <- [DW_OP_plus_uconst 100, DW_OP_deref] $rsp
	#DEBUG_VALUE: chacha20_encrypt_bytes:j9 <- [DW_OP_plus_uconst 36, DW_OP_deref] $rsp
	#DEBUG_VALUE: chacha20_encrypt_bytes:j10 <- [DW_OP_plus_uconst 32, DW_OP_deref] $rsp
	#DEBUG_VALUE: chacha20_encrypt_bytes:j11 <- [DW_OP_plus_uconst 28, DW_OP_deref] $rsp
	#DEBUG_VALUE: chacha20_encrypt_bytes:j12 <- [DW_OP_plus_uconst 12, DW_OP_deref] $rsp
	#DEBUG_VALUE: chacha20_encrypt_bytes:j13 <- $r8d
	#DEBUG_VALUE: chacha20_encrypt_bytes:j14 <- [DW_OP_plus_uconst 24, DW_OP_deref] $rsp
	#DEBUG_VALUE: chacha20_encrypt_bytes:j15 <- [DW_OP_plus_uconst 20, DW_OP_deref] $rsp
	#DEBUG_VALUE: chacha20_encrypt_bytes:i <- 0
	.loc	4 115 13 is_stmt 1              # crypto_stream/chacha20/ref/chacha20_ref.c:115:13
	incl	%ecx
.Ltmp113:
	.loc	4 0 13 is_stmt 0                # :0:13
.Ltmp114:
	.p2align	4
.LBB4_7:                                # %.lr.ph
                                        #   Parent Loop BB4_1 Depth=1
                                        # =>  This Inner Loop Header: Depth=2
	#DEBUG_VALUE: chacha20_encrypt_bytes:ctx <- [DW_OP_plus_uconst 120] [$rsp+0]
	#DEBUG_VALUE: chacha20_encrypt_bytes:m <- $rsi
	#DEBUG_VALUE: chacha20_encrypt_bytes:c <- $rbx
	#DEBUG_VALUE: chacha20_encrypt_bytes:bytes <- [DW_OP_plus_uconst 136, DW_OP_deref] $rsp
	#DEBUG_VALUE: chacha20_encrypt_bytes:ctarget <- [DW_OP_plus_uconst 40, DW_OP_deref] $rsp
	#DEBUG_VALUE: chacha20_encrypt_bytes:j0 <- [DW_OP_plus_uconst 100, DW_OP_deref] $rsp
	#DEBUG_VALUE: chacha20_encrypt_bytes:j9 <- [DW_OP_plus_uconst 36, DW_OP_deref] $rsp
	#DEBUG_VALUE: chacha20_encrypt_bytes:j10 <- [DW_OP_plus_uconst 32, DW_OP_deref] $rsp
	#DEBUG_VALUE: chacha20_encrypt_bytes:j11 <- [DW_OP_plus_uconst 28, DW_OP_deref] $rsp
	#DEBUG_VALUE: chacha20_encrypt_bytes:j12 <- [DW_OP_plus_uconst 12, DW_OP_deref] $rsp
	#DEBUG_VALUE: chacha20_encrypt_bytes:j13 <- $r8d
	#DEBUG_VALUE: chacha20_encrypt_bytes:j14 <- [DW_OP_plus_uconst 24, DW_OP_deref] $rsp
	#DEBUG_VALUE: chacha20_encrypt_bytes:j15 <- [DW_OP_plus_uconst 20, DW_OP_deref] $rsp
	#DEBUG_VALUE: chacha20_encrypt_bytes:i <- [DW_OP_constu 1, DW_OP_minus, DW_OP_stack_value] $ecx
	.loc	4 116 26 is_stmt 1              # crypto_stream/chacha20/ref/chacha20_ref.c:116:26
	movzbl	(%rsi,%rax), %edx
	.loc	4 116 24 is_stmt 0              # crypto_stream/chacha20/ref/chacha20_ref.c:116:24
	movb	%dl, 144(%rsp,%rax)
.Ltmp115:
	#DEBUG_VALUE: chacha20_encrypt_bytes:i <- $ecx
	.loc	4 115 25 is_stmt 1              # crypto_stream/chacha20/ref/chacha20_ref.c:115:25
	movl	%ecx, %eax
.Ltmp116:
	.loc	4 115 13 is_stmt 0              # crypto_stream/chacha20/ref/chacha20_ref.c:115:13
	incl	%ecx
.Ltmp117:
	#DEBUG_VALUE: chacha20_encrypt_bytes:i <- $eax
	.loc	4 115 27                        # crypto_stream/chacha20/ref/chacha20_ref.c:115:27
	cmpq	%rax, %rdi
.Ltmp118:
	.loc	4 115 13                        # crypto_stream/chacha20/ref/chacha20_ref.c:115:13
	ja	.LBB4_7
.Ltmp119:
.LBB4_8:                                #   in Loop: Header=BB4_1 Depth=1
	#DEBUG_VALUE: chacha20_encrypt_bytes:ctx <- [DW_OP_plus_uconst 120] [$rsp+0]
	#DEBUG_VALUE: chacha20_encrypt_bytes:m <- $rsi
	#DEBUG_VALUE: chacha20_encrypt_bytes:c <- $rbx
	#DEBUG_VALUE: chacha20_encrypt_bytes:bytes <- [DW_OP_plus_uconst 136, DW_OP_deref] $rsp
	#DEBUG_VALUE: chacha20_encrypt_bytes:ctarget <- [DW_OP_plus_uconst 40, DW_OP_deref] $rsp
	#DEBUG_VALUE: chacha20_encrypt_bytes:j0 <- [DW_OP_plus_uconst 100, DW_OP_deref] $rsp
	#DEBUG_VALUE: chacha20_encrypt_bytes:j9 <- [DW_OP_plus_uconst 36, DW_OP_deref] $rsp
	#DEBUG_VALUE: chacha20_encrypt_bytes:j10 <- [DW_OP_plus_uconst 32, DW_OP_deref] $rsp
	#DEBUG_VALUE: chacha20_encrypt_bytes:j11 <- [DW_OP_plus_uconst 28, DW_OP_deref] $rsp
	#DEBUG_VALUE: chacha20_encrypt_bytes:j12 <- [DW_OP_plus_uconst 12, DW_OP_deref] $rsp
	#DEBUG_VALUE: chacha20_encrypt_bytes:j13 <- $r8d
	#DEBUG_VALUE: chacha20_encrypt_bytes:j14 <- [DW_OP_plus_uconst 24, DW_OP_deref] $rsp
	#DEBUG_VALUE: chacha20_encrypt_bytes:j15 <- [DW_OP_plus_uconst 20, DW_OP_deref] $rsp
	.loc	4 0 13                          # crypto_stream/chacha20/ref/chacha20_ref.c:0:13
	leaq	144(%rsp), %rax
	movq	%rax, 48(%rsp)                  # 8-byte Spill
	movq	%rax, 56(%rsp)                  # 8-byte Spill
	movq	%rbx, 40(%rsp)                  # 8-byte Spill
.Ltmp120:
	#DEBUG_VALUE: chacha20_encrypt_bytes:c <- [DW_OP_plus_uconst 40, DW_OP_deref] $rsp
	#DEBUG_VALUE: chacha20_encrypt_bytes:ctarget <- undef
.LBB4_9:                                # %.loopexit314
                                        #   in Loop: Header=BB4_1 Depth=1
	#DEBUG_VALUE: chacha20_encrypt_bytes:ctx <- [DW_OP_plus_uconst 120] [$rsp+0]
	#DEBUG_VALUE: chacha20_encrypt_bytes:m <- $rsi
	#DEBUG_VALUE: chacha20_encrypt_bytes:c <- $rbx
	#DEBUG_VALUE: chacha20_encrypt_bytes:bytes <- [DW_OP_plus_uconst 136, DW_OP_deref] $rsp
	#DEBUG_VALUE: chacha20_encrypt_bytes:j0 <- [DW_OP_plus_uconst 100, DW_OP_deref] $rsp
	#DEBUG_VALUE: chacha20_encrypt_bytes:j9 <- [DW_OP_plus_uconst 36, DW_OP_deref] $rsp
	#DEBUG_VALUE: chacha20_encrypt_bytes:j10 <- [DW_OP_plus_uconst 32, DW_OP_deref] $rsp
	#DEBUG_VALUE: chacha20_encrypt_bytes:j11 <- [DW_OP_plus_uconst 28, DW_OP_deref] $rsp
	#DEBUG_VALUE: chacha20_encrypt_bytes:j12 <- [DW_OP_plus_uconst 12, DW_OP_deref] $rsp
	#DEBUG_VALUE: chacha20_encrypt_bytes:j13 <- $r8d
	#DEBUG_VALUE: chacha20_encrypt_bytes:j14 <- [DW_OP_plus_uconst 24, DW_OP_deref] $rsp
	#DEBUG_VALUE: chacha20_encrypt_bytes:j15 <- [DW_OP_plus_uconst 20, DW_OP_deref] $rsp
	movl	$-20, 108(%rsp)                 # 4-byte Folded Spill
.Ltmp121:
	#DEBUG_VALUE: chacha20_encrypt_bytes:ctarget <- [DW_OP_plus_uconst 40, DW_OP_deref] $rsp
	#DEBUG_VALUE: chacha20_encrypt_bytes:m <- [DW_OP_plus_uconst 56, DW_OP_deref] $rsp
	#DEBUG_VALUE: chacha20_encrypt_bytes:c <- [DW_OP_plus_uconst 48, DW_OP_deref] $rsp
	#DEBUG_VALUE: chacha20_encrypt_bytes:x0 <- [DW_OP_plus_uconst 100, DW_OP_deref] $rsp
	#DEBUG_VALUE: chacha20_encrypt_bytes:x1 <- undef
	#DEBUG_VALUE: chacha20_encrypt_bytes:x2 <- undef
	#DEBUG_VALUE: chacha20_encrypt_bytes:x3 <- undef
	#DEBUG_VALUE: chacha20_encrypt_bytes:x4 <- undef
	#DEBUG_VALUE: chacha20_encrypt_bytes:x5 <- undef
	#DEBUG_VALUE: chacha20_encrypt_bytes:x6 <- undef
	#DEBUG_VALUE: chacha20_encrypt_bytes:x7 <- undef
	#DEBUG_VALUE: chacha20_encrypt_bytes:x8 <- undef
	#DEBUG_VALUE: chacha20_encrypt_bytes:x9 <- [DW_OP_plus_uconst 36, DW_OP_deref] $rsp
	#DEBUG_VALUE: chacha20_encrypt_bytes:x10 <- [DW_OP_plus_uconst 32, DW_OP_deref] $rsp
	#DEBUG_VALUE: chacha20_encrypt_bytes:x11 <- [DW_OP_plus_uconst 28, DW_OP_deref] $rsp
	#DEBUG_VALUE: chacha20_encrypt_bytes:x12 <- [DW_OP_plus_uconst 12, DW_OP_deref] $rsp
	#DEBUG_VALUE: chacha20_encrypt_bytes:x13 <- $r8d
	#DEBUG_VALUE: chacha20_encrypt_bytes:x14 <- [DW_OP_plus_uconst 24, DW_OP_deref] $rsp
	#DEBUG_VALUE: chacha20_encrypt_bytes:x15 <- [DW_OP_plus_uconst 20, DW_OP_deref] $rsp
	#DEBUG_VALUE: chacha20_encrypt_bytes:i <- 20
	movl	%r9d, %r15d
	movl	96(%rsp), %r11d                 # 4-byte Reload
	movl	88(%rsp), %edx                  # 4-byte Reload
	movl	84(%rsp), %esi                  # 4-byte Reload
	movl	80(%rsp), %ebp                  # 4-byte Reload
	movl	92(%rsp), %r13d                 # 4-byte Reload
	movl	76(%rsp), %edi                  # 4-byte Reload
	movl	72(%rsp), %r10d                 # 4-byte Reload
	movl	68(%rsp), %r9d                  # 4-byte Reload
	movl	36(%rsp), %eax                  # 4-byte Reload
	movl	%eax, 8(%rsp)                   # 4-byte Spill
	movl	32(%rsp), %r14d                 # 4-byte Reload
	movl	20(%rsp), %ebx                  # 4-byte Reload
	movl	24(%rsp), %r12d                 # 4-byte Reload
	movl	%r8d, 104(%rsp)                 # 4-byte Spill
.Ltmp122:
	#DEBUG_VALUE: chacha20_encrypt_bytes:x13 <- [DW_OP_plus_uconst 104, DW_OP_deref] $rsp
	#DEBUG_VALUE: chacha20_encrypt_bytes:j13 <- [DW_OP_plus_uconst 104, DW_OP_deref] $rsp
	movl	12(%rsp), %eax                  # 4-byte Reload
	movl	28(%rsp), %ecx                  # 4-byte Reload
.Ltmp123:
	.p2align	4
.LBB4_10:                               #   Parent Loop BB4_1 Depth=1
                                        # =>  This Inner Loop Header: Depth=2
	#DEBUG_VALUE: chacha20_encrypt_bytes:ctx <- [DW_OP_plus_uconst 120] [$rsp+0]
	#DEBUG_VALUE: chacha20_encrypt_bytes:m <- [DW_OP_plus_uconst 56, DW_OP_deref] $rsp
	#DEBUG_VALUE: chacha20_encrypt_bytes:c <- [DW_OP_plus_uconst 48, DW_OP_deref] $rsp
	#DEBUG_VALUE: chacha20_encrypt_bytes:bytes <- [DW_OP_plus_uconst 136, DW_OP_deref] $rsp
	#DEBUG_VALUE: chacha20_encrypt_bytes:ctarget <- [DW_OP_plus_uconst 40, DW_OP_deref] $rsp
	#DEBUG_VALUE: chacha20_encrypt_bytes:j0 <- [DW_OP_plus_uconst 100, DW_OP_deref] $rsp
	#DEBUG_VALUE: chacha20_encrypt_bytes:j9 <- [DW_OP_plus_uconst 36, DW_OP_deref] $rsp
	#DEBUG_VALUE: chacha20_encrypt_bytes:j10 <- [DW_OP_plus_uconst 32, DW_OP_deref] $rsp
	#DEBUG_VALUE: chacha20_encrypt_bytes:j11 <- [DW_OP_plus_uconst 28, DW_OP_deref] $rsp
	#DEBUG_VALUE: chacha20_encrypt_bytes:j12 <- [DW_OP_plus_uconst 12, DW_OP_deref] $rsp
	#DEBUG_VALUE: chacha20_encrypt_bytes:j13 <- [DW_OP_plus_uconst 104, DW_OP_deref] $rsp
	#DEBUG_VALUE: chacha20_encrypt_bytes:j14 <- [DW_OP_plus_uconst 24, DW_OP_deref] $rsp
	#DEBUG_VALUE: chacha20_encrypt_bytes:j15 <- [DW_OP_plus_uconst 20, DW_OP_deref] $rsp
	#DEBUG_VALUE: chacha20_encrypt_bytes:x0 <- $r15d
	#DEBUG_VALUE: chacha20_encrypt_bytes:x9 <- [DW_OP_plus_uconst 8, DW_OP_deref] $rsp
	#DEBUG_VALUE: chacha20_encrypt_bytes:x10 <- $r14d
	#DEBUG_VALUE: chacha20_encrypt_bytes:x11 <- $ecx
	#DEBUG_VALUE: chacha20_encrypt_bytes:x12 <- $eax
	#DEBUG_VALUE: chacha20_encrypt_bytes:x13 <- $r8d
	#DEBUG_VALUE: chacha20_encrypt_bytes:x14 <- $r12d
	#DEBUG_VALUE: chacha20_encrypt_bytes:x15 <- $ebx
	#DEBUG_VALUE: chacha20_encrypt_bytes:i <- [DW_OP_plus_uconst 108, DW_OP_deref, DW_OP_consts 18446744073709551596, DW_OP_minus, DW_OP_consts 2, DW_OP_div, DW_OP_consts 18446744073709551614, DW_OP_mul, DW_OP_consts 20, DW_OP_plus, DW_OP_stack_value] $rsp
	#DEBUG_VALUE: chacha20_encrypt_bytes:x0 <- $r15d
	#DEBUG_VALUE: chacha20_encrypt_bytes:x1 <- $r11d
	#DEBUG_VALUE: chacha20_encrypt_bytes:x2 <- $edx
	#DEBUG_VALUE: chacha20_encrypt_bytes:x3 <- $esi
	#DEBUG_VALUE: chacha20_encrypt_bytes:x4 <- $ebp
	#DEBUG_VALUE: chacha20_encrypt_bytes:x5 <- $r13d
	#DEBUG_VALUE: chacha20_encrypt_bytes:x6 <- $edi
	#DEBUG_VALUE: chacha20_encrypt_bytes:x7 <- $r10d
	#DEBUG_VALUE: chacha20_encrypt_bytes:x8 <- $r9d
	#DEBUG_VALUE: chacha20_encrypt_bytes:x9 <- [DW_OP_plus_uconst 8, DW_OP_deref] $rsp
	#DEBUG_VALUE: chacha20_encrypt_bytes:x10 <- $r14d
	#DEBUG_VALUE: chacha20_encrypt_bytes:x15 <- $ebx
	#DEBUG_VALUE: chacha20_encrypt_bytes:x14 <- $r12d
	#DEBUG_VALUE: chacha20_encrypt_bytes:x13 <- $r8d
	#DEBUG_VALUE: chacha20_encrypt_bytes:x12 <- $eax
	#DEBUG_VALUE: chacha20_encrypt_bytes:x11 <- $ecx
	movl	%ecx, 16(%rsp)                  # 4-byte Spill
.Ltmp124:
	#DEBUG_VALUE: chacha20_encrypt_bytes:x11 <- [DW_OP_plus_uconst 16, DW_OP_deref] $rsp
	.loc	4 139 36 is_stmt 1              # crypto_stream/chacha20/ref/chacha20_ref.c:139:36
	addl	%ebp, %r15d
.Ltmp125:
	#DEBUG_VALUE: chacha20_encrypt_bytes:x0 <- $r15d
	.loc	4 139 84 is_stmt 0              # crypto_stream/chacha20/ref/chacha20_ref.c:139:84
	xorl	%r15d, %eax
.Ltmp126:
	#DEBUG_VALUE: rotl32:x <- $eax
	#DEBUG_VALUE: rotl32:b <- 16
	.loc	7 37 21 is_stmt 1               # ./include/sodium/private/common.h:37:21 @[ crypto_stream/chacha20/ref/chacha20_ref.c:139:69 ]
	roll	$16, %eax
.Ltmp127:
	#DEBUG_VALUE: chacha20_encrypt_bytes:x12 <- $eax
	.loc	4 139 125                       # crypto_stream/chacha20/ref/chacha20_ref.c:139:125
	addl	%eax, %r9d
.Ltmp128:
	#DEBUG_VALUE: chacha20_encrypt_bytes:x8 <- $r9d
	.loc	4 139 172 is_stmt 0             # crypto_stream/chacha20/ref/chacha20_ref.c:139:172
	xorl	%r9d, %ebp
.Ltmp129:
	#DEBUG_VALUE: rotl32:x <- $ebp
	#DEBUG_VALUE: rotl32:b <- 12
	.loc	7 37 21 is_stmt 1               # ./include/sodium/private/common.h:37:21 @[ crypto_stream/chacha20/ref/chacha20_ref.c:139:158 ]
	roll	$12, %ebp
.Ltmp130:
	#DEBUG_VALUE: chacha20_encrypt_bytes:x4 <- $ebp
	.loc	4 139 213                       # crypto_stream/chacha20/ref/chacha20_ref.c:139:213
	addl	%ebp, %r15d
.Ltmp131:
	#DEBUG_VALUE: chacha20_encrypt_bytes:x0 <- $r15d
	.loc	4 139 261 is_stmt 0             # crypto_stream/chacha20/ref/chacha20_ref.c:139:261
	xorl	%r15d, %eax
.Ltmp132:
	#DEBUG_VALUE: rotl32:x <- $eax
	#DEBUG_VALUE: rotl32:b <- 8
	.loc	7 37 21 is_stmt 1               # ./include/sodium/private/common.h:37:21 @[ crypto_stream/chacha20/ref/chacha20_ref.c:139:246 ]
	roll	$8, %eax
.Ltmp133:
	#DEBUG_VALUE: chacha20_encrypt_bytes:x12 <- $eax
	.loc	4 139 301                       # crypto_stream/chacha20/ref/chacha20_ref.c:139:301
	addl	%eax, %r9d
.Ltmp134:
	#DEBUG_VALUE: chacha20_encrypt_bytes:x8 <- $r9d
	.loc	4 139 348 is_stmt 0             # crypto_stream/chacha20/ref/chacha20_ref.c:139:348
	xorl	%r9d, %ebp
.Ltmp135:
	#DEBUG_VALUE: rotl32:x <- $ebp
	#DEBUG_VALUE: rotl32:b <- 7
	.loc	7 37 21 is_stmt 1               # ./include/sodium/private/common.h:37:21 @[ crypto_stream/chacha20/ref/chacha20_ref.c:139:334 ]
	roll	$7, %ebp
.Ltmp136:
	#DEBUG_VALUE: chacha20_encrypt_bytes:x4 <- $ebp
	.loc	4 140 36                        # crypto_stream/chacha20/ref/chacha20_ref.c:140:36
	addl	%r13d, %r11d
.Ltmp137:
	#DEBUG_VALUE: chacha20_encrypt_bytes:x1 <- $r11d
	.loc	4 140 84 is_stmt 0              # crypto_stream/chacha20/ref/chacha20_ref.c:140:84
	xorl	%r11d, %r8d
.Ltmp138:
	#DEBUG_VALUE: rotl32:x <- $r8d
	#DEBUG_VALUE: rotl32:b <- 16
	.loc	7 37 21 is_stmt 1               # ./include/sodium/private/common.h:37:21 @[ crypto_stream/chacha20/ref/chacha20_ref.c:140:69 ]
	roll	$16, %r8d
.Ltmp139:
	#DEBUG_VALUE: chacha20_encrypt_bytes:x13 <- $r8d
	.loc	7 0 21 is_stmt 0                # ./include/sodium/private/common.h:0:21
	movl	8(%rsp), %ecx                   # 4-byte Reload
.Ltmp140:
	.loc	4 140 125 is_stmt 1             # crypto_stream/chacha20/ref/chacha20_ref.c:140:125
	addl	%r8d, %ecx
.Ltmp141:
	#DEBUG_VALUE: chacha20_encrypt_bytes:x9 <- $ecx
	.loc	4 140 172 is_stmt 0             # crypto_stream/chacha20/ref/chacha20_ref.c:140:172
	xorl	%ecx, %r13d
.Ltmp142:
	#DEBUG_VALUE: rotl32:x <- $r13d
	#DEBUG_VALUE: rotl32:b <- 12
	.loc	7 37 21 is_stmt 1               # ./include/sodium/private/common.h:37:21 @[ crypto_stream/chacha20/ref/chacha20_ref.c:140:158 ]
	roll	$12, %r13d
.Ltmp143:
	#DEBUG_VALUE: chacha20_encrypt_bytes:x5 <- $r13d
	.loc	4 140 213                       # crypto_stream/chacha20/ref/chacha20_ref.c:140:213
	addl	%r13d, %r11d
.Ltmp144:
	#DEBUG_VALUE: chacha20_encrypt_bytes:x1 <- $r11d
	.loc	4 140 261 is_stmt 0             # crypto_stream/chacha20/ref/chacha20_ref.c:140:261
	xorl	%r11d, %r8d
.Ltmp145:
	#DEBUG_VALUE: rotl32:x <- $r8d
	#DEBUG_VALUE: rotl32:b <- 8
	.loc	7 37 21 is_stmt 1               # ./include/sodium/private/common.h:37:21 @[ crypto_stream/chacha20/ref/chacha20_ref.c:140:246 ]
	roll	$8, %r8d
.Ltmp146:
	#DEBUG_VALUE: chacha20_encrypt_bytes:x13 <- $r8d
	.loc	4 140 301                       # crypto_stream/chacha20/ref/chacha20_ref.c:140:301
	addl	%r8d, %ecx
.Ltmp147:
	#DEBUG_VALUE: chacha20_encrypt_bytes:x9 <- $ecx
	.loc	4 0 301 is_stmt 0               # crypto_stream/chacha20/ref/chacha20_ref.c:0:301
	movl	%ecx, 8(%rsp)                   # 4-byte Spill
.Ltmp148:
	#DEBUG_VALUE: chacha20_encrypt_bytes:x9 <- [DW_OP_plus_uconst 8, DW_OP_deref] $rsp
	.loc	4 140 348                       # crypto_stream/chacha20/ref/chacha20_ref.c:140:348
	xorl	%ecx, %r13d
.Ltmp149:
	#DEBUG_VALUE: rotl32:x <- $r13d
	#DEBUG_VALUE: rotl32:b <- 7
	.loc	4 0 348                         # crypto_stream/chacha20/ref/chacha20_ref.c:0:348
	movl	16(%rsp), %ecx                  # 4-byte Reload
.Ltmp150:
	.loc	7 37 21 is_stmt 1               # ./include/sodium/private/common.h:37:21 @[ crypto_stream/chacha20/ref/chacha20_ref.c:140:334 ]
	roll	$7, %r13d
.Ltmp151:
	#DEBUG_VALUE: chacha20_encrypt_bytes:x5 <- $r13d
	.loc	4 141 36                        # crypto_stream/chacha20/ref/chacha20_ref.c:141:36
	addl	%edi, %edx
.Ltmp152:
	#DEBUG_VALUE: chacha20_encrypt_bytes:x2 <- $edx
	.loc	4 141 84 is_stmt 0              # crypto_stream/chacha20/ref/chacha20_ref.c:141:84
	xorl	%edx, %r12d
.Ltmp153:
	#DEBUG_VALUE: rotl32:x <- $r12d
	#DEBUG_VALUE: rotl32:b <- 16
	.loc	7 37 21 is_stmt 1               # ./include/sodium/private/common.h:37:21 @[ crypto_stream/chacha20/ref/chacha20_ref.c:141:69 ]
	roll	$16, %r12d
.Ltmp154:
	#DEBUG_VALUE: chacha20_encrypt_bytes:x14 <- $r12d
	.loc	4 141 127                       # crypto_stream/chacha20/ref/chacha20_ref.c:141:127
	addl	%r12d, %r14d
.Ltmp155:
	#DEBUG_VALUE: chacha20_encrypt_bytes:x10 <- $r14d
	.loc	4 141 174 is_stmt 0             # crypto_stream/chacha20/ref/chacha20_ref.c:141:174
	xorl	%r14d, %edi
.Ltmp156:
	#DEBUG_VALUE: rotl32:x <- $edi
	#DEBUG_VALUE: rotl32:b <- 12
	.loc	7 37 21 is_stmt 1               # ./include/sodium/private/common.h:37:21 @[ crypto_stream/chacha20/ref/chacha20_ref.c:141:160 ]
	roll	$12, %edi
.Ltmp157:
	#DEBUG_VALUE: chacha20_encrypt_bytes:x6 <- $edi
	.loc	4 141 216                       # crypto_stream/chacha20/ref/chacha20_ref.c:141:216
	addl	%edi, %edx
.Ltmp158:
	#DEBUG_VALUE: chacha20_encrypt_bytes:x2 <- $edx
	.loc	4 141 264 is_stmt 0             # crypto_stream/chacha20/ref/chacha20_ref.c:141:264
	xorl	%edx, %r12d
.Ltmp159:
	#DEBUG_VALUE: rotl32:x <- $r12d
	#DEBUG_VALUE: rotl32:b <- 8
	.loc	7 37 21 is_stmt 1               # ./include/sodium/private/common.h:37:21 @[ crypto_stream/chacha20/ref/chacha20_ref.c:141:249 ]
	roll	$8, %r12d
.Ltmp160:
	#DEBUG_VALUE: chacha20_encrypt_bytes:x14 <- $r12d
	.loc	4 141 306                       # crypto_stream/chacha20/ref/chacha20_ref.c:141:306
	addl	%r12d, %r14d
.Ltmp161:
	#DEBUG_VALUE: chacha20_encrypt_bytes:x10 <- $r14d
	.loc	4 141 353 is_stmt 0             # crypto_stream/chacha20/ref/chacha20_ref.c:141:353
	xorl	%r14d, %edi
.Ltmp162:
	#DEBUG_VALUE: rotl32:x <- $edi
	#DEBUG_VALUE: rotl32:b <- 7
	.loc	7 37 21 is_stmt 1               # ./include/sodium/private/common.h:37:21 @[ crypto_stream/chacha20/ref/chacha20_ref.c:141:339 ]
	roll	$7, %edi
.Ltmp163:
	#DEBUG_VALUE: chacha20_encrypt_bytes:x6 <- $edi
	.loc	4 142 36                        # crypto_stream/chacha20/ref/chacha20_ref.c:142:36
	addl	%r10d, %esi
.Ltmp164:
	#DEBUG_VALUE: chacha20_encrypt_bytes:x3 <- $esi
	.loc	4 142 84 is_stmt 0              # crypto_stream/chacha20/ref/chacha20_ref.c:142:84
	xorl	%esi, %ebx
.Ltmp165:
	#DEBUG_VALUE: rotl32:x <- $ebx
	#DEBUG_VALUE: rotl32:b <- 16
	.loc	7 37 21 is_stmt 1               # ./include/sodium/private/common.h:37:21 @[ crypto_stream/chacha20/ref/chacha20_ref.c:142:69 ]
	roll	$16, %ebx
.Ltmp166:
	#DEBUG_VALUE: chacha20_encrypt_bytes:x15 <- $ebx
	.loc	4 142 127                       # crypto_stream/chacha20/ref/chacha20_ref.c:142:127
	addl	%ebx, %ecx
.Ltmp167:
	#DEBUG_VALUE: chacha20_encrypt_bytes:x11 <- $ecx
	.loc	4 142 174 is_stmt 0             # crypto_stream/chacha20/ref/chacha20_ref.c:142:174
	xorl	%ecx, %r10d
.Ltmp168:
	#DEBUG_VALUE: rotl32:x <- $r10d
	#DEBUG_VALUE: rotl32:b <- 12
	.loc	7 37 21 is_stmt 1               # ./include/sodium/private/common.h:37:21 @[ crypto_stream/chacha20/ref/chacha20_ref.c:142:160 ]
	roll	$12, %r10d
.Ltmp169:
	#DEBUG_VALUE: chacha20_encrypt_bytes:x7 <- $r10d
	.loc	4 142 216                       # crypto_stream/chacha20/ref/chacha20_ref.c:142:216
	addl	%r10d, %esi
.Ltmp170:
	#DEBUG_VALUE: chacha20_encrypt_bytes:x3 <- $esi
	.loc	4 142 264 is_stmt 0             # crypto_stream/chacha20/ref/chacha20_ref.c:142:264
	xorl	%esi, %ebx
.Ltmp171:
	#DEBUG_VALUE: rotl32:x <- $ebx
	#DEBUG_VALUE: rotl32:b <- 8
	.loc	7 37 21 is_stmt 1               # ./include/sodium/private/common.h:37:21 @[ crypto_stream/chacha20/ref/chacha20_ref.c:142:249 ]
	roll	$8, %ebx
.Ltmp172:
	#DEBUG_VALUE: chacha20_encrypt_bytes:x15 <- $ebx
	.loc	4 142 306                       # crypto_stream/chacha20/ref/chacha20_ref.c:142:306
	addl	%ebx, %ecx
.Ltmp173:
	#DEBUG_VALUE: chacha20_encrypt_bytes:x11 <- $ecx
	.loc	4 142 353 is_stmt 0             # crypto_stream/chacha20/ref/chacha20_ref.c:142:353
	xorl	%ecx, %r10d
.Ltmp174:
	#DEBUG_VALUE: rotl32:x <- $r10d
	#DEBUG_VALUE: rotl32:b <- 7
	.loc	7 37 21 is_stmt 1               # ./include/sodium/private/common.h:37:21 @[ crypto_stream/chacha20/ref/chacha20_ref.c:142:339 ]
	roll	$7, %r10d
.Ltmp175:
	#DEBUG_VALUE: chacha20_encrypt_bytes:x7 <- $r10d
	.loc	4 143 36                        # crypto_stream/chacha20/ref/chacha20_ref.c:143:36
	addl	%r13d, %r15d
.Ltmp176:
	#DEBUG_VALUE: chacha20_encrypt_bytes:x0 <- $r15d
	.loc	4 143 84 is_stmt 0              # crypto_stream/chacha20/ref/chacha20_ref.c:143:84
	xorl	%r15d, %ebx
.Ltmp177:
	#DEBUG_VALUE: rotl32:x <- $ebx
	#DEBUG_VALUE: rotl32:b <- 16
	.loc	7 37 21 is_stmt 1               # ./include/sodium/private/common.h:37:21 @[ crypto_stream/chacha20/ref/chacha20_ref.c:143:69 ]
	roll	$16, %ebx
.Ltmp178:
	#DEBUG_VALUE: chacha20_encrypt_bytes:x15 <- $ebx
	.loc	4 143 127                       # crypto_stream/chacha20/ref/chacha20_ref.c:143:127
	addl	%ebx, %r14d
.Ltmp179:
	#DEBUG_VALUE: chacha20_encrypt_bytes:x10 <- $r14d
	.loc	4 143 174 is_stmt 0             # crypto_stream/chacha20/ref/chacha20_ref.c:143:174
	xorl	%r14d, %r13d
.Ltmp180:
	#DEBUG_VALUE: rotl32:x <- $r13d
	#DEBUG_VALUE: rotl32:b <- 12
	.loc	7 37 21 is_stmt 1               # ./include/sodium/private/common.h:37:21 @[ crypto_stream/chacha20/ref/chacha20_ref.c:143:160 ]
	roll	$12, %r13d
.Ltmp181:
	#DEBUG_VALUE: chacha20_encrypt_bytes:x5 <- $r13d
	.loc	4 143 216                       # crypto_stream/chacha20/ref/chacha20_ref.c:143:216
	addl	%r13d, %r15d
.Ltmp182:
	#DEBUG_VALUE: chacha20_encrypt_bytes:x0 <- $r15d
	.loc	4 143 264 is_stmt 0             # crypto_stream/chacha20/ref/chacha20_ref.c:143:264
	xorl	%r15d, %ebx
.Ltmp183:
	#DEBUG_VALUE: rotl32:x <- $ebx
	#DEBUG_VALUE: rotl32:b <- 8
	.loc	7 37 21 is_stmt 1               # ./include/sodium/private/common.h:37:21 @[ crypto_stream/chacha20/ref/chacha20_ref.c:143:249 ]
	roll	$8, %ebx
.Ltmp184:
	#DEBUG_VALUE: chacha20_encrypt_bytes:x15 <- $ebx
	.loc	4 143 306                       # crypto_stream/chacha20/ref/chacha20_ref.c:143:306
	addl	%ebx, %r14d
.Ltmp185:
	#DEBUG_VALUE: chacha20_encrypt_bytes:x10 <- $r14d
	.loc	4 0 306 is_stmt 0               # crypto_stream/chacha20/ref/chacha20_ref.c:0:306
	movl	%r14d, 16(%rsp)                 # 4-byte Spill
.Ltmp186:
	#DEBUG_VALUE: chacha20_encrypt_bytes:x10 <- [DW_OP_plus_uconst 16, DW_OP_deref] $rsp
	.loc	4 143 353                       # crypto_stream/chacha20/ref/chacha20_ref.c:143:353
	xorl	%r14d, %r13d
.Ltmp187:
	#DEBUG_VALUE: rotl32:x <- $r13d
	#DEBUG_VALUE: rotl32:b <- 7
	.loc	7 37 21 is_stmt 1               # ./include/sodium/private/common.h:37:21 @[ crypto_stream/chacha20/ref/chacha20_ref.c:143:339 ]
	roll	$7, %r13d
.Ltmp188:
	#DEBUG_VALUE: chacha20_encrypt_bytes:x5 <- $r13d
	.loc	4 144 36                        # crypto_stream/chacha20/ref/chacha20_ref.c:144:36
	addl	%edi, %r11d
.Ltmp189:
	#DEBUG_VALUE: chacha20_encrypt_bytes:x1 <- $r11d
	.loc	4 144 84 is_stmt 0              # crypto_stream/chacha20/ref/chacha20_ref.c:144:84
	xorl	%r11d, %eax
.Ltmp190:
	#DEBUG_VALUE: rotl32:x <- $eax
	#DEBUG_VALUE: rotl32:b <- 16
	.loc	7 37 21 is_stmt 1               # ./include/sodium/private/common.h:37:21 @[ crypto_stream/chacha20/ref/chacha20_ref.c:144:69 ]
	roll	$16, %eax
.Ltmp191:
	#DEBUG_VALUE: chacha20_encrypt_bytes:x12 <- $eax
	.loc	4 144 127                       # crypto_stream/chacha20/ref/chacha20_ref.c:144:127
	addl	%eax, %ecx
.Ltmp192:
	#DEBUG_VALUE: chacha20_encrypt_bytes:x11 <- $ecx
	.loc	4 144 174 is_stmt 0             # crypto_stream/chacha20/ref/chacha20_ref.c:144:174
	xorl	%ecx, %edi
.Ltmp193:
	#DEBUG_VALUE: rotl32:x <- $edi
	#DEBUG_VALUE: rotl32:b <- 12
	.loc	7 37 21 is_stmt 1               # ./include/sodium/private/common.h:37:21 @[ crypto_stream/chacha20/ref/chacha20_ref.c:144:160 ]
	roll	$12, %edi
.Ltmp194:
	#DEBUG_VALUE: chacha20_encrypt_bytes:x6 <- $edi
	.loc	4 144 216                       # crypto_stream/chacha20/ref/chacha20_ref.c:144:216
	addl	%edi, %r11d
.Ltmp195:
	#DEBUG_VALUE: chacha20_encrypt_bytes:x1 <- $r11d
	.loc	4 144 264 is_stmt 0             # crypto_stream/chacha20/ref/chacha20_ref.c:144:264
	xorl	%r11d, %eax
.Ltmp196:
	#DEBUG_VALUE: rotl32:x <- $eax
	#DEBUG_VALUE: rotl32:b <- 8
	.loc	7 37 21 is_stmt 1               # ./include/sodium/private/common.h:37:21 @[ crypto_stream/chacha20/ref/chacha20_ref.c:144:249 ]
	roll	$8, %eax
.Ltmp197:
	#DEBUG_VALUE: chacha20_encrypt_bytes:x12 <- $eax
	.loc	4 144 306                       # crypto_stream/chacha20/ref/chacha20_ref.c:144:306
	addl	%eax, %ecx
.Ltmp198:
	#DEBUG_VALUE: chacha20_encrypt_bytes:x11 <- $ecx
	.loc	4 144 353 is_stmt 0             # crypto_stream/chacha20/ref/chacha20_ref.c:144:353
	xorl	%ecx, %edi
.Ltmp199:
	#DEBUG_VALUE: rotl32:x <- $edi
	#DEBUG_VALUE: rotl32:b <- 7
	.loc	7 37 21 is_stmt 1               # ./include/sodium/private/common.h:37:21 @[ crypto_stream/chacha20/ref/chacha20_ref.c:144:339 ]
	roll	$7, %edi
.Ltmp200:
	#DEBUG_VALUE: chacha20_encrypt_bytes:x6 <- $edi
	.loc	4 145 36                        # crypto_stream/chacha20/ref/chacha20_ref.c:145:36
	addl	%r10d, %edx
.Ltmp201:
	#DEBUG_VALUE: chacha20_encrypt_bytes:x2 <- $edx
	.loc	4 145 84 is_stmt 0              # crypto_stream/chacha20/ref/chacha20_ref.c:145:84
	xorl	%edx, %r8d
.Ltmp202:
	#DEBUG_VALUE: rotl32:x <- $r8d
	#DEBUG_VALUE: rotl32:b <- 16
	.loc	7 37 21 is_stmt 1               # ./include/sodium/private/common.h:37:21 @[ crypto_stream/chacha20/ref/chacha20_ref.c:145:69 ]
	roll	$16, %r8d
.Ltmp203:
	#DEBUG_VALUE: chacha20_encrypt_bytes:x13 <- $r8d
	.loc	4 145 125                       # crypto_stream/chacha20/ref/chacha20_ref.c:145:125
	addl	%r8d, %r9d
.Ltmp204:
	#DEBUG_VALUE: chacha20_encrypt_bytes:x8 <- $r9d
	.loc	4 145 172 is_stmt 0             # crypto_stream/chacha20/ref/chacha20_ref.c:145:172
	xorl	%r9d, %r10d
.Ltmp205:
	#DEBUG_VALUE: rotl32:x <- $r10d
	#DEBUG_VALUE: rotl32:b <- 12
	.loc	7 37 21 is_stmt 1               # ./include/sodium/private/common.h:37:21 @[ crypto_stream/chacha20/ref/chacha20_ref.c:145:158 ]
	roll	$12, %r10d
.Ltmp206:
	#DEBUG_VALUE: chacha20_encrypt_bytes:x7 <- $r10d
	.loc	4 145 213                       # crypto_stream/chacha20/ref/chacha20_ref.c:145:213
	addl	%r10d, %edx
.Ltmp207:
	#DEBUG_VALUE: chacha20_encrypt_bytes:x2 <- $edx
	.loc	4 145 261 is_stmt 0             # crypto_stream/chacha20/ref/chacha20_ref.c:145:261
	xorl	%edx, %r8d
.Ltmp208:
	#DEBUG_VALUE: rotl32:x <- $r8d
	#DEBUG_VALUE: rotl32:b <- 8
	.loc	7 37 21 is_stmt 1               # ./include/sodium/private/common.h:37:21 @[ crypto_stream/chacha20/ref/chacha20_ref.c:145:246 ]
	roll	$8, %r8d
.Ltmp209:
	#DEBUG_VALUE: chacha20_encrypt_bytes:x13 <- $r8d
	.loc	4 145 301                       # crypto_stream/chacha20/ref/chacha20_ref.c:145:301
	addl	%r8d, %r9d
.Ltmp210:
	#DEBUG_VALUE: chacha20_encrypt_bytes:x8 <- $r9d
	.loc	4 145 348 is_stmt 0             # crypto_stream/chacha20/ref/chacha20_ref.c:145:348
	xorl	%r9d, %r10d
.Ltmp211:
	#DEBUG_VALUE: rotl32:x <- $r10d
	#DEBUG_VALUE: rotl32:b <- 7
	.loc	7 37 21 is_stmt 1               # ./include/sodium/private/common.h:37:21 @[ crypto_stream/chacha20/ref/chacha20_ref.c:145:334 ]
	roll	$7, %r10d
.Ltmp212:
	#DEBUG_VALUE: chacha20_encrypt_bytes:x7 <- $r10d
	.loc	4 146 36                        # crypto_stream/chacha20/ref/chacha20_ref.c:146:36
	addl	%ebp, %esi
.Ltmp213:
	#DEBUG_VALUE: chacha20_encrypt_bytes:x3 <- $esi
	.loc	4 146 84 is_stmt 0              # crypto_stream/chacha20/ref/chacha20_ref.c:146:84
	xorl	%esi, %r12d
.Ltmp214:
	#DEBUG_VALUE: rotl32:x <- $r12d
	#DEBUG_VALUE: rotl32:b <- 16
	.loc	7 37 21 is_stmt 1               # ./include/sodium/private/common.h:37:21 @[ crypto_stream/chacha20/ref/chacha20_ref.c:146:69 ]
	roll	$16, %r12d
.Ltmp215:
	#DEBUG_VALUE: chacha20_encrypt_bytes:x14 <- $r12d
	.loc	7 0 21 is_stmt 0                # ./include/sodium/private/common.h:0:21
	movl	8(%rsp), %r14d                  # 4-byte Reload
.Ltmp216:
	.loc	4 146 125 is_stmt 1             # crypto_stream/chacha20/ref/chacha20_ref.c:146:125
	addl	%r12d, %r14d
.Ltmp217:
	#DEBUG_VALUE: chacha20_encrypt_bytes:x9 <- $r14d
	.loc	4 146 172 is_stmt 0             # crypto_stream/chacha20/ref/chacha20_ref.c:146:172
	xorl	%r14d, %ebp
.Ltmp218:
	#DEBUG_VALUE: rotl32:x <- $ebp
	#DEBUG_VALUE: rotl32:b <- 12
	.loc	7 37 21 is_stmt 1               # ./include/sodium/private/common.h:37:21 @[ crypto_stream/chacha20/ref/chacha20_ref.c:146:158 ]
	roll	$12, %ebp
.Ltmp219:
	#DEBUG_VALUE: chacha20_encrypt_bytes:x4 <- $ebp
	.loc	4 146 213                       # crypto_stream/chacha20/ref/chacha20_ref.c:146:213
	addl	%ebp, %esi
.Ltmp220:
	#DEBUG_VALUE: chacha20_encrypt_bytes:x3 <- $esi
	.loc	4 146 261 is_stmt 0             # crypto_stream/chacha20/ref/chacha20_ref.c:146:261
	xorl	%esi, %r12d
.Ltmp221:
	#DEBUG_VALUE: rotl32:x <- $r12d
	#DEBUG_VALUE: rotl32:b <- 8
	.loc	7 37 21 is_stmt 1               # ./include/sodium/private/common.h:37:21 @[ crypto_stream/chacha20/ref/chacha20_ref.c:146:246 ]
	roll	$8, %r12d
.Ltmp222:
	#DEBUG_VALUE: chacha20_encrypt_bytes:x14 <- $r12d
	.loc	4 146 301                       # crypto_stream/chacha20/ref/chacha20_ref.c:146:301
	addl	%r12d, %r14d
.Ltmp223:
	#DEBUG_VALUE: chacha20_encrypt_bytes:x9 <- $r14d
	.loc	4 0 301 is_stmt 0               # crypto_stream/chacha20/ref/chacha20_ref.c:0:301
	movl	%r14d, 8(%rsp)                  # 4-byte Spill
.Ltmp224:
	#DEBUG_VALUE: chacha20_encrypt_bytes:x9 <- [DW_OP_plus_uconst 8, DW_OP_deref] $rsp
	.loc	4 146 348                       # crypto_stream/chacha20/ref/chacha20_ref.c:146:348
	xorl	%r14d, %ebp
.Ltmp225:
	#DEBUG_VALUE: rotl32:x <- $ebp
	#DEBUG_VALUE: rotl32:b <- 7
	.loc	4 0 348                         # crypto_stream/chacha20/ref/chacha20_ref.c:0:348
	movl	16(%rsp), %r14d                 # 4-byte Reload
.Ltmp226:
	.loc	7 37 21 is_stmt 1               # ./include/sodium/private/common.h:37:21 @[ crypto_stream/chacha20/ref/chacha20_ref.c:146:334 ]
	roll	$7, %ebp
.Ltmp227:
	#DEBUG_VALUE: chacha20_encrypt_bytes:x4 <- $ebp
	#DEBUG_VALUE: chacha20_encrypt_bytes:i <- [DW_OP_plus_uconst 108, DW_OP_deref, DW_OP_consts 18446744073709551596, DW_OP_minus, DW_OP_consts 2, DW_OP_div, DW_OP_consts 18446744073709551614, DW_OP_mul, DW_OP_consts 18, DW_OP_plus, DW_OP_stack_value] $rsp
	.loc	4 138 24                        # crypto_stream/chacha20/ref/chacha20_ref.c:138:24
	addl	$2, 108(%rsp)                   # 4-byte Folded Spill
.Ltmp228:
	#DEBUG_VALUE: chacha20_encrypt_bytes:i <- [DW_OP_consts 18446744073709551596, DW_OP_minus, DW_OP_consts 2, DW_OP_div, DW_OP_consts 18446744073709551614, DW_OP_mul, DW_OP_consts 18, DW_OP_plus, DW_OP_stack_value] undef
	.loc	4 138 9 is_stmt 0               # crypto_stream/chacha20/ref/chacha20_ref.c:138:9
	jne	.LBB4_10
.Ltmp229:
# %bb.11:                               #   in Loop: Header=BB4_1 Depth=1
	#DEBUG_VALUE: chacha20_encrypt_bytes:ctx <- [DW_OP_plus_uconst 120] [$rsp+0]
	#DEBUG_VALUE: chacha20_encrypt_bytes:m <- [DW_OP_plus_uconst 56, DW_OP_deref] $rsp
	#DEBUG_VALUE: chacha20_encrypt_bytes:c <- [DW_OP_plus_uconst 48, DW_OP_deref] $rsp
	#DEBUG_VALUE: chacha20_encrypt_bytes:bytes <- [DW_OP_plus_uconst 136, DW_OP_deref] $rsp
	#DEBUG_VALUE: chacha20_encrypt_bytes:ctarget <- [DW_OP_plus_uconst 40, DW_OP_deref] $rsp
	#DEBUG_VALUE: chacha20_encrypt_bytes:j0 <- [DW_OP_plus_uconst 100, DW_OP_deref] $rsp
	#DEBUG_VALUE: chacha20_encrypt_bytes:j9 <- [DW_OP_plus_uconst 36, DW_OP_deref] $rsp
	#DEBUG_VALUE: chacha20_encrypt_bytes:j10 <- [DW_OP_plus_uconst 32, DW_OP_deref] $rsp
	#DEBUG_VALUE: chacha20_encrypt_bytes:j11 <- [DW_OP_plus_uconst 28, DW_OP_deref] $rsp
	#DEBUG_VALUE: chacha20_encrypt_bytes:j12 <- [DW_OP_plus_uconst 12, DW_OP_deref] $rsp
	#DEBUG_VALUE: chacha20_encrypt_bytes:j13 <- [DW_OP_plus_uconst 104, DW_OP_deref] $rsp
	#DEBUG_VALUE: chacha20_encrypt_bytes:j14 <- [DW_OP_plus_uconst 24, DW_OP_deref] $rsp
	#DEBUG_VALUE: chacha20_encrypt_bytes:j15 <- [DW_OP_plus_uconst 20, DW_OP_deref] $rsp
	#DEBUG_VALUE: chacha20_encrypt_bytes:x0 <- $r15d
	#DEBUG_VALUE: chacha20_encrypt_bytes:x1 <- $r11d
	#DEBUG_VALUE: chacha20_encrypt_bytes:x2 <- $edx
	#DEBUG_VALUE: chacha20_encrypt_bytes:x3 <- $esi
	#DEBUG_VALUE: chacha20_encrypt_bytes:x4 <- $ebp
	#DEBUG_VALUE: chacha20_encrypt_bytes:x5 <- $r13d
	#DEBUG_VALUE: chacha20_encrypt_bytes:x6 <- $edi
	#DEBUG_VALUE: chacha20_encrypt_bytes:x7 <- $r10d
	#DEBUG_VALUE: chacha20_encrypt_bytes:x8 <- $r9d
	#DEBUG_VALUE: chacha20_encrypt_bytes:x9 <- [DW_OP_plus_uconst 8, DW_OP_deref] $rsp
	#DEBUG_VALUE: chacha20_encrypt_bytes:x10 <- [DW_OP_plus_uconst 16, DW_OP_deref] $rsp
	#DEBUG_VALUE: chacha20_encrypt_bytes:x11 <- $ecx
	#DEBUG_VALUE: chacha20_encrypt_bytes:x12 <- $eax
	#DEBUG_VALUE: chacha20_encrypt_bytes:x13 <- $r8d
	#DEBUG_VALUE: chacha20_encrypt_bytes:x14 <- $r12d
	#DEBUG_VALUE: chacha20_encrypt_bytes:x15 <- $ebx
	#DEBUG_VALUE: chacha20_encrypt_bytes:x0 <- undef
	.loc	4 149 32 is_stmt 1              # crypto_stream/chacha20/ref/chacha20_ref.c:149:32
	movd	%ebp, %xmm5
	movd	%esi, %xmm4
	movd	%edx, %xmm6
	movd	%r11d, %xmm3
	.loc	4 153 32                        # crypto_stream/chacha20/ref/chacha20_ref.c:153:32
	movd	%r9d, %xmm9
	movd	%r10d, %xmm7
	movd	%edi, %xmm10
	movd	%r13d, %xmm8
	movl	100(%rsp), %r9d                 # 4-byte Reload
.Ltmp230:
	.loc	4 148 32                        # crypto_stream/chacha20/ref/chacha20_ref.c:148:32
	addl	%r9d, %r15d
.Ltmp231:
	#DEBUG_VALUE: chacha20_encrypt_bytes:x0 <- $r15d
	.loc	4 0 32 is_stmt 0                # crypto_stream/chacha20/ref/chacha20_ref.c:0:32
	movl	8(%rsp), %r11d                  # 4-byte Reload
.Ltmp232:
	.loc	4 157 32 is_stmt 1              # crypto_stream/chacha20/ref/chacha20_ref.c:157:32
	addl	36(%rsp), %r11d                 # 4-byte Folded Reload
.Ltmp233:
	#DEBUG_VALUE: chacha20_encrypt_bytes:x9 <- $r11d
	.loc	4 158 34                        # crypto_stream/chacha20/ref/chacha20_ref.c:158:34
	addl	32(%rsp), %r14d                 # 4-byte Folded Reload
.Ltmp234:
	#DEBUG_VALUE: chacha20_encrypt_bytes:x10 <- $r14d
	.loc	4 159 34                        # crypto_stream/chacha20/ref/chacha20_ref.c:159:34
	addl	28(%rsp), %ecx                  # 4-byte Folded Reload
.Ltmp235:
	#DEBUG_VALUE: chacha20_encrypt_bytes:x11 <- $ecx
	.loc	4 0 34 is_stmt 0                # crypto_stream/chacha20/ref/chacha20_ref.c:0:34
	movl	12(%rsp), %edx                  # 4-byte Reload
.Ltmp236:
	.loc	4 160 34 is_stmt 1              # crypto_stream/chacha20/ref/chacha20_ref.c:160:34
	addl	%edx, %eax
.Ltmp237:
	#DEBUG_VALUE: chacha20_encrypt_bytes:x12 <- $eax
	.loc	4 0 34 is_stmt 0                # crypto_stream/chacha20/ref/chacha20_ref.c:0:34
	movl	104(%rsp), %edi                 # 4-byte Reload
.Ltmp238:
	.loc	4 161 34 is_stmt 1              # crypto_stream/chacha20/ref/chacha20_ref.c:161:34
	addl	%edi, %r8d
.Ltmp239:
	#DEBUG_VALUE: chacha20_encrypt_bytes:x13 <- $r8d
	.loc	4 162 34                        # crypto_stream/chacha20/ref/chacha20_ref.c:162:34
	addl	24(%rsp), %r12d                 # 4-byte Folded Reload
.Ltmp240:
	#DEBUG_VALUE: chacha20_encrypt_bytes:x14 <- $r12d
	.loc	4 163 34                        # crypto_stream/chacha20/ref/chacha20_ref.c:163:34
	addl	20(%rsp), %ebx                  # 4-byte Folded Reload
.Ltmp241:
	#DEBUG_VALUE: chacha20_encrypt_bytes:x15 <- $ebx
	#DEBUG_VALUE: load32_le:w <- undef
	#DEBUG_VALUE: memcpy:__dest <- undef
	#DEBUG_VALUE: memcpy:__len <- 4
	.loc	4 0 34 is_stmt 0                # crypto_stream/chacha20/ref/chacha20_ref.c:0:34
	movq	56(%rsp), %rsi                  # 8-byte Reload
.Ltmp242:
	.loc	4 165 20 is_stmt 1              # crypto_stream/chacha20/ref/chacha20_ref.c:165:20
	xorl	(%rsi), %r15d
.Ltmp243:
	#DEBUG_VALUE: chacha20_encrypt_bytes:x0 <- $r15d
	#DEBUG_VALUE: load32_le:w <- undef
	#DEBUG_VALUE: memcpy:__dest <- undef
	#DEBUG_VALUE: memcpy:__len <- 4
	#DEBUG_VALUE: chacha20_encrypt_bytes:x1 <- undef
	#DEBUG_VALUE: load32_le:w <- undef
	#DEBUG_VALUE: memcpy:__dest <- undef
	#DEBUG_VALUE: memcpy:__len <- 4
	#DEBUG_VALUE: chacha20_encrypt_bytes:x2 <- undef
	#DEBUG_VALUE: load32_le:w <- undef
	#DEBUG_VALUE: memcpy:__dest <- undef
	#DEBUG_VALUE: memcpy:__len <- 4
	#DEBUG_VALUE: chacha20_encrypt_bytes:x3 <- undef
	#DEBUG_VALUE: load32_le:w <- undef
	#DEBUG_VALUE: memcpy:__dest <- undef
	#DEBUG_VALUE: memcpy:__len <- 4
	#DEBUG_VALUE: chacha20_encrypt_bytes:x4 <- undef
	#DEBUG_VALUE: load32_le:src <- [DW_OP_plus_uconst 56, DW_OP_deref, DW_OP_plus_uconst 4, DW_OP_stack_value] $rsp
	#DEBUG_VALUE: memcpy:__src <- [DW_OP_plus_uconst 56, DW_OP_deref, DW_OP_plus_uconst 4, DW_OP_stack_value] $rsp
	#DEBUG_VALUE: load32_le:w <- undef
	#DEBUG_VALUE: memcpy:__dest <- undef
	#DEBUG_VALUE: memcpy:__len <- 4
	#DEBUG_VALUE: chacha20_encrypt_bytes:x5 <- undef
	#DEBUG_VALUE: load32_le:w <- undef
	#DEBUG_VALUE: memcpy:__dest <- undef
	#DEBUG_VALUE: memcpy:__len <- 4
	#DEBUG_VALUE: chacha20_encrypt_bytes:x6 <- undef
	#DEBUG_VALUE: load32_le:w <- undef
	#DEBUG_VALUE: memcpy:__dest <- undef
	#DEBUG_VALUE: memcpy:__len <- 4
	#DEBUG_VALUE: chacha20_encrypt_bytes:x7 <- undef
	#DEBUG_VALUE: load32_le:w <- undef
	#DEBUG_VALUE: memcpy:__dest <- undef
	#DEBUG_VALUE: memcpy:__len <- 4
	#DEBUG_VALUE: chacha20_encrypt_bytes:x8 <- undef
	#DEBUG_VALUE: load32_le:src <- [DW_OP_plus_uconst 56, DW_OP_deref, DW_OP_plus_uconst 20, DW_OP_stack_value] $rsp
	#DEBUG_VALUE: memcpy:__src <- [DW_OP_plus_uconst 56, DW_OP_deref, DW_OP_plus_uconst 20, DW_OP_stack_value] $rsp
	#DEBUG_VALUE: load32_le:w <- undef
	#DEBUG_VALUE: load32_le:src <- undef
	#DEBUG_VALUE: memcpy:__dest <- undef
	#DEBUG_VALUE: memcpy:__src <- undef
	#DEBUG_VALUE: memcpy:__len <- 4
	.loc	4 174 20                        # crypto_stream/chacha20/ref/chacha20_ref.c:174:20
	xorl	36(%rsi), %r11d
.Ltmp244:
	#DEBUG_VALUE: chacha20_encrypt_bytes:x9 <- $r11d
	#DEBUG_VALUE: load32_le:w <- undef
	#DEBUG_VALUE: load32_le:src <- undef
	#DEBUG_VALUE: memcpy:__dest <- undef
	#DEBUG_VALUE: memcpy:__src <- undef
	#DEBUG_VALUE: memcpy:__len <- 4
	.loc	4 175 22                        # crypto_stream/chacha20/ref/chacha20_ref.c:175:22
	xorl	40(%rsi), %r14d
.Ltmp245:
	#DEBUG_VALUE: chacha20_encrypt_bytes:x10 <- $r14d
	#DEBUG_VALUE: load32_le:w <- undef
	#DEBUG_VALUE: load32_le:src <- undef
	#DEBUG_VALUE: memcpy:__dest <- undef
	#DEBUG_VALUE: memcpy:__src <- undef
	#DEBUG_VALUE: memcpy:__len <- 4
	.loc	4 176 22                        # crypto_stream/chacha20/ref/chacha20_ref.c:176:22
	xorl	44(%rsi), %ecx
.Ltmp246:
	#DEBUG_VALUE: chacha20_encrypt_bytes:x11 <- $ecx
	#DEBUG_VALUE: load32_le:w <- undef
	#DEBUG_VALUE: load32_le:src <- undef
	#DEBUG_VALUE: memcpy:__dest <- undef
	#DEBUG_VALUE: memcpy:__src <- undef
	#DEBUG_VALUE: memcpy:__len <- 4
	.loc	4 177 22                        # crypto_stream/chacha20/ref/chacha20_ref.c:177:22
	xorl	48(%rsi), %eax
.Ltmp247:
	#DEBUG_VALUE: chacha20_encrypt_bytes:x12 <- $eax
	#DEBUG_VALUE: load32_le:w <- undef
	#DEBUG_VALUE: load32_le:src <- undef
	#DEBUG_VALUE: memcpy:__dest <- undef
	#DEBUG_VALUE: memcpy:__src <- undef
	#DEBUG_VALUE: memcpy:__len <- 4
	.loc	4 178 22                        # crypto_stream/chacha20/ref/chacha20_ref.c:178:22
	xorl	52(%rsi), %r8d
.Ltmp248:
	#DEBUG_VALUE: chacha20_encrypt_bytes:x13 <- $r8d
	#DEBUG_VALUE: load32_le:w <- undef
	#DEBUG_VALUE: load32_le:src <- undef
	#DEBUG_VALUE: memcpy:__dest <- undef
	#DEBUG_VALUE: memcpy:__src <- undef
	#DEBUG_VALUE: memcpy:__len <- 4
	.loc	4 179 22                        # crypto_stream/chacha20/ref/chacha20_ref.c:179:22
	xorl	56(%rsi), %r12d
.Ltmp249:
	#DEBUG_VALUE: chacha20_encrypt_bytes:x14 <- $r12d
	#DEBUG_VALUE: load32_le:w <- undef
	#DEBUG_VALUE: load32_le:src <- undef
	#DEBUG_VALUE: memcpy:__dest <- undef
	#DEBUG_VALUE: memcpy:__src <- undef
	#DEBUG_VALUE: memcpy:__len <- 4
	.loc	4 180 22                        # crypto_stream/chacha20/ref/chacha20_ref.c:180:22
	xorl	60(%rsi), %ebx
.Ltmp250:
	#DEBUG_VALUE: chacha20_encrypt_bytes:x15 <- $ebx
	#DEBUG_VALUE: chacha20_encrypt_bytes:j12 <- undef
	#DEBUG_VALUE: chacha20_encrypt_bytes:j13 <- undef
	#DEBUG_VALUE: store32_le:dst <- [DW_OP_plus_uconst 48, DW_OP_deref] $rsp
	#DEBUG_VALUE: store32_le:w <- undef
	#DEBUG_VALUE: memcpy:__dest <- [DW_OP_plus_uconst 48, DW_OP_deref] $rsp
	#DEBUG_VALUE: memcpy:__src <- undef
	#DEBUG_VALUE: memcpy:__len <- 4
	#DEBUG_VALUE: store32_le:dst <- [DW_OP_plus_uconst 48, DW_OP_deref, DW_OP_plus_uconst 4, DW_OP_stack_value] $rsp
	#DEBUG_VALUE: memcpy:__dest <- [DW_OP_plus_uconst 48, DW_OP_deref, DW_OP_plus_uconst 4, DW_OP_stack_value] $rsp
	#DEBUG_VALUE: store32_le:w <- undef
	#DEBUG_VALUE: memcpy:__src <- undef
	#DEBUG_VALUE: memcpy:__len <- 4
	#DEBUG_VALUE: store32_le:w <- undef
	#DEBUG_VALUE: memcpy:__src <- undef
	#DEBUG_VALUE: memcpy:__len <- 4
	#DEBUG_VALUE: store32_le:w <- undef
	#DEBUG_VALUE: memcpy:__src <- undef
	#DEBUG_VALUE: memcpy:__len <- 4
	.loc	5 29 10                         # /usr/include/x86_64-linux-gnu/bits/string_fortified.h:29:10 @[ ./include/sodium/private/common.h:106:5 @[ crypto_stream/chacha20/ref/chacha20_ref.c:166:23 ] ]
	movdqu	4(%rsi), %xmm11
.Ltmp251:
	#DEBUG_VALUE: store32_le:w <- undef
	#DEBUG_VALUE: memcpy:__src <- undef
	#DEBUG_VALUE: memcpy:__len <- 4
	#DEBUG_VALUE: store32_le:w <- undef
	#DEBUG_VALUE: memcpy:__src <- undef
	#DEBUG_VALUE: memcpy:__len <- 4
	#DEBUG_VALUE: store32_le:w <- undef
	#DEBUG_VALUE: memcpy:__src <- undef
	#DEBUG_VALUE: memcpy:__len <- 4
	#DEBUG_VALUE: store32_le:w <- undef
	#DEBUG_VALUE: memcpy:__src <- undef
	#DEBUG_VALUE: memcpy:__len <- 4
	#DEBUG_VALUE: store32_le:dst <- [DW_OP_plus_uconst 48, DW_OP_deref, DW_OP_plus_uconst 20, DW_OP_stack_value] $rsp
	#DEBUG_VALUE: memcpy:__dest <- [DW_OP_plus_uconst 48, DW_OP_deref, DW_OP_plus_uconst 20, DW_OP_stack_value] $rsp
	.loc	5 29 10 is_stmt 0               # /usr/include/x86_64-linux-gnu/bits/string_fortified.h:29:10 @[ ./include/sodium/private/common.h:106:5 @[ crypto_stream/chacha20/ref/chacha20_ref.c:170:23 ] ]
	movdqu	20(%rsi), %xmm12
	movq	48(%rsp), %r10                  # 8-byte Reload
.Ltmp252:
	.loc	5 29 10                         # /usr/include/x86_64-linux-gnu/bits/string_fortified.h:29:10 @[ ./include/sodium/private/common.h:122:5 @[ crypto_stream/chacha20/ref/chacha20_ref.c:189:9 ] ]
	movl	%r15d, (%r10)
.Ltmp253:
	.loc	4 149 32 is_stmt 1              # crypto_stream/chacha20/ref/chacha20_ref.c:149:32
	punpckldq	%xmm5, %xmm4            # xmm4 = xmm4[0],xmm5[0],xmm4[1],xmm5[1]
	punpckldq	%xmm6, %xmm3            # xmm3 = xmm3[0],xmm6[0],xmm3[1],xmm6[1]
	punpcklqdq	%xmm4, %xmm3            # xmm3 = xmm3[0],xmm4[0]
	.loc	4 153 32                        # crypto_stream/chacha20/ref/chacha20_ref.c:153:32
	punpckldq	%xmm9, %xmm7            # xmm7 = xmm7[0],xmm9[0],xmm7[1],xmm9[1]
	punpckldq	%xmm10, %xmm8           # xmm8 = xmm8[0],xmm10[0],xmm8[1],xmm10[1]
	punpcklqdq	%xmm7, %xmm8            # xmm8 = xmm8[0],xmm7[0]
	.loc	4 149 32                        # crypto_stream/chacha20/ref/chacha20_ref.c:149:32
	paddd	%xmm0, %xmm3
	.loc	4 153 32                        # crypto_stream/chacha20/ref/chacha20_ref.c:153:32
	paddd	%xmm1, %xmm8
	.loc	4 166 20                        # crypto_stream/chacha20/ref/chacha20_ref.c:166:20
	pxor	%xmm3, %xmm11
	.loc	4 170 20                        # crypto_stream/chacha20/ref/chacha20_ref.c:170:20
	pxor	%xmm8, %xmm12
.Ltmp254:
	.loc	5 29 10                         # /usr/include/x86_64-linux-gnu/bits/string_fortified.h:29:10 @[ ./include/sodium/private/common.h:122:5 @[ crypto_stream/chacha20/ref/chacha20_ref.c:190:9 ] ]
	movdqu	%xmm11, 4(%r10)
.Ltmp255:
	#DEBUG_VALUE: store32_le:w <- undef
	#DEBUG_VALUE: memcpy:__src <- undef
	#DEBUG_VALUE: memcpy:__len <- 4
	.loc	5 29 10 is_stmt 0               # /usr/include/x86_64-linux-gnu/bits/string_fortified.h:29:10 @[ ./include/sodium/private/common.h:122:5 @[ crypto_stream/chacha20/ref/chacha20_ref.c:194:9 ] ]
	movdqu	%xmm12, 20(%r10)
.Ltmp256:
	#DEBUG_VALUE: store32_le:w <- undef
	#DEBUG_VALUE: memcpy:__src <- undef
	#DEBUG_VALUE: memcpy:__len <- 4
	#DEBUG_VALUE: store32_le:dst <- [DW_OP_plus_uconst 48, DW_OP_deref, DW_OP_plus_uconst 36, DW_OP_stack_value] $rsp
	#DEBUG_VALUE: memcpy:__dest <- [DW_OP_plus_uconst 48, DW_OP_deref, DW_OP_plus_uconst 36, DW_OP_stack_value] $rsp
	.loc	5 29 10                         # /usr/include/x86_64-linux-gnu/bits/string_fortified.h:29:10 @[ ./include/sodium/private/common.h:122:5 @[ crypto_stream/chacha20/ref/chacha20_ref.c:198:9 ] ]
	movl	%r11d, 36(%r10)
.Ltmp257:
	#DEBUG_VALUE: store32_le:w <- undef
	#DEBUG_VALUE: memcpy:__src <- undef
	#DEBUG_VALUE: memcpy:__len <- 4
	#DEBUG_VALUE: store32_le:dst <- [DW_OP_plus_uconst 48, DW_OP_deref, DW_OP_plus_uconst 40, DW_OP_stack_value] $rsp
	#DEBUG_VALUE: memcpy:__dest <- [DW_OP_plus_uconst 48, DW_OP_deref, DW_OP_plus_uconst 40, DW_OP_stack_value] $rsp
	.loc	5 29 10                         # /usr/include/x86_64-linux-gnu/bits/string_fortified.h:29:10 @[ ./include/sodium/private/common.h:122:5 @[ crypto_stream/chacha20/ref/chacha20_ref.c:199:9 ] ]
	movl	%r14d, 40(%r10)
.Ltmp258:
	#DEBUG_VALUE: store32_le:w <- undef
	#DEBUG_VALUE: memcpy:__src <- undef
	#DEBUG_VALUE: memcpy:__len <- 4
	#DEBUG_VALUE: store32_le:dst <- [DW_OP_plus_uconst 48, DW_OP_deref, DW_OP_plus_uconst 44, DW_OP_stack_value] $rsp
	#DEBUG_VALUE: memcpy:__dest <- [DW_OP_plus_uconst 48, DW_OP_deref, DW_OP_plus_uconst 44, DW_OP_stack_value] $rsp
	.loc	5 29 10                         # /usr/include/x86_64-linux-gnu/bits/string_fortified.h:29:10 @[ ./include/sodium/private/common.h:122:5 @[ crypto_stream/chacha20/ref/chacha20_ref.c:200:9 ] ]
	movl	%ecx, 44(%r10)
.Ltmp259:
	#DEBUG_VALUE: store32_le:w <- undef
	#DEBUG_VALUE: memcpy:__src <- undef
	#DEBUG_VALUE: memcpy:__len <- 4
	#DEBUG_VALUE: store32_le:dst <- [DW_OP_plus_uconst 48, DW_OP_deref, DW_OP_plus_uconst 48, DW_OP_stack_value] $rsp
	#DEBUG_VALUE: memcpy:__dest <- [DW_OP_plus_uconst 48, DW_OP_deref, DW_OP_plus_uconst 48, DW_OP_stack_value] $rsp
	.loc	5 29 10                         # /usr/include/x86_64-linux-gnu/bits/string_fortified.h:29:10 @[ ./include/sodium/private/common.h:122:5 @[ crypto_stream/chacha20/ref/chacha20_ref.c:201:9 ] ]
	movl	%eax, 48(%r10)
.Ltmp260:
	#DEBUG_VALUE: store32_le:w <- undef
	#DEBUG_VALUE: memcpy:__src <- undef
	#DEBUG_VALUE: memcpy:__len <- 4
	#DEBUG_VALUE: store32_le:dst <- [DW_OP_plus_uconst 48, DW_OP_deref, DW_OP_plus_uconst 52, DW_OP_stack_value] $rsp
	#DEBUG_VALUE: memcpy:__dest <- [DW_OP_plus_uconst 48, DW_OP_deref, DW_OP_plus_uconst 52, DW_OP_stack_value] $rsp
	.loc	5 29 10                         # /usr/include/x86_64-linux-gnu/bits/string_fortified.h:29:10 @[ ./include/sodium/private/common.h:122:5 @[ crypto_stream/chacha20/ref/chacha20_ref.c:202:9 ] ]
	movl	%r8d, 52(%r10)
.Ltmp261:
	#DEBUG_VALUE: store32_le:w <- undef
	#DEBUG_VALUE: memcpy:__src <- undef
	#DEBUG_VALUE: memcpy:__len <- 4
	#DEBUG_VALUE: store32_le:dst <- [DW_OP_plus_uconst 48, DW_OP_deref, DW_OP_plus_uconst 56, DW_OP_stack_value] $rsp
	#DEBUG_VALUE: memcpy:__dest <- [DW_OP_plus_uconst 48, DW_OP_deref, DW_OP_plus_uconst 56, DW_OP_stack_value] $rsp
	.loc	5 0 10                          # /usr/include/x86_64-linux-gnu/bits/string_fortified.h:0:10
	movl	%edi, %r8d
.Ltmp262:
	.loc	5 29 10                         # /usr/include/x86_64-linux-gnu/bits/string_fortified.h:29:10 @[ ./include/sodium/private/common.h:122:5 @[ crypto_stream/chacha20/ref/chacha20_ref.c:203:9 ] ]
	movl	%r12d, 56(%r10)
.Ltmp263:
	#DEBUG_VALUE: store32_le:w <- undef
	#DEBUG_VALUE: memcpy:__src <- undef
	#DEBUG_VALUE: memcpy:__len <- 4
	#DEBUG_VALUE: store32_le:dst <- [DW_OP_plus_uconst 48, DW_OP_deref, DW_OP_plus_uconst 60, DW_OP_stack_value] $rsp
	#DEBUG_VALUE: memcpy:__dest <- [DW_OP_plus_uconst 48, DW_OP_deref, DW_OP_plus_uconst 60, DW_OP_stack_value] $rsp
	.loc	5 29 10                         # /usr/include/x86_64-linux-gnu/bits/string_fortified.h:29:10 @[ ./include/sodium/private/common.h:122:5 @[ crypto_stream/chacha20/ref/chacha20_ref.c:204:9 ] ]
	movl	%ebx, 60(%r10)
.Ltmp264:
	.loc	4 182 37 is_stmt 1              # crypto_stream/chacha20/ref/chacha20_ref.c:182:37
	addl	$1, %edx
.Ltmp265:
	#DEBUG_VALUE: chacha20_encrypt_bytes:j12 <- $edx
	.loc	4 0 37 is_stmt 0                # crypto_stream/chacha20/ref/chacha20_ref.c:0:37
	movl	%edx, 12(%rsp)                  # 4-byte Spill
.Ltmp266:
	.loc	4 184 13 is_stmt 1              # crypto_stream/chacha20/ref/chacha20_ref.c:184:13
	adcl	$0, %r8d
.Ltmp267:
	#DEBUG_VALUE: chacha20_encrypt_bytes:j13 <- $r8d
	.loc	4 0 13 is_stmt 0                # crypto_stream/chacha20/ref/chacha20_ref.c:0:13
	movq	136(%rsp), %rdi                 # 8-byte Reload
.Ltmp268:
	.loc	4 206 19 is_stmt 1              # crypto_stream/chacha20/ref/chacha20_ref.c:206:19
	cmpq	$64, %rdi
	jbe	.LBB4_28
.Ltmp269:
# %bb.12:                               #   in Loop: Header=BB4_1 Depth=1
	#DEBUG_VALUE: chacha20_encrypt_bytes:ctx <- [DW_OP_plus_uconst 120] [$rsp+0]
	#DEBUG_VALUE: chacha20_encrypt_bytes:m <- [DW_OP_plus_uconst 56, DW_OP_deref] $rsp
	#DEBUG_VALUE: chacha20_encrypt_bytes:c <- [DW_OP_plus_uconst 48, DW_OP_deref] $rsp
	#DEBUG_VALUE: chacha20_encrypt_bytes:bytes <- [DW_OP_plus_uconst 136, DW_OP_deref] $rsp
	#DEBUG_VALUE: chacha20_encrypt_bytes:ctarget <- [DW_OP_plus_uconst 40, DW_OP_deref] $rsp
	#DEBUG_VALUE: chacha20_encrypt_bytes:j0 <- [DW_OP_plus_uconst 100, DW_OP_deref] $rsp
	#DEBUG_VALUE: chacha20_encrypt_bytes:j9 <- [DW_OP_plus_uconst 36, DW_OP_deref] $rsp
	#DEBUG_VALUE: chacha20_encrypt_bytes:j10 <- [DW_OP_plus_uconst 32, DW_OP_deref] $rsp
	#DEBUG_VALUE: chacha20_encrypt_bytes:j11 <- [DW_OP_plus_uconst 28, DW_OP_deref] $rsp
	#DEBUG_VALUE: chacha20_encrypt_bytes:j12 <- [DW_OP_plus_uconst 12, DW_OP_deref] $rsp
	#DEBUG_VALUE: chacha20_encrypt_bytes:j13 <- $r8d
	#DEBUG_VALUE: chacha20_encrypt_bytes:j14 <- [DW_OP_plus_uconst 24, DW_OP_deref] $rsp
	#DEBUG_VALUE: chacha20_encrypt_bytes:j15 <- [DW_OP_plus_uconst 20, DW_OP_deref] $rsp
	#DEBUG_VALUE: chacha20_encrypt_bytes:x0 <- $r15d
	#DEBUG_VALUE: chacha20_encrypt_bytes:x9 <- $r11d
	#DEBUG_VALUE: chacha20_encrypt_bytes:x10 <- $r14d
	#DEBUG_VALUE: chacha20_encrypt_bytes:x11 <- $ecx
	#DEBUG_VALUE: chacha20_encrypt_bytes:x12 <- $eax
	#DEBUG_VALUE: chacha20_encrypt_bytes:x14 <- $r12d
	#DEBUG_VALUE: chacha20_encrypt_bytes:x15 <- $ebx
	.loc	4 217 15                        # crypto_stream/chacha20/ref/chacha20_ref.c:217:15
	addq	$-64, %rdi
.Ltmp270:
	#DEBUG_VALUE: chacha20_encrypt_bytes:bytes <- $rdi
	.loc	4 218 11                        # crypto_stream/chacha20/ref/chacha20_ref.c:218:11
	addq	$64, %r10
.Ltmp271:
	#DEBUG_VALUE: chacha20_encrypt_bytes:c <- $r10
	.loc	4 219 11                        # crypto_stream/chacha20/ref/chacha20_ref.c:219:11
	addq	$64, %rsi
.Ltmp272:
	#DEBUG_VALUE: chacha20_encrypt_bytes:m <- $rsi
	.loc	4 0 11 is_stmt 0                # crypto_stream/chacha20/ref/chacha20_ref.c:0:11
	movq	128(%rsp), %r11                 # 8-byte Reload
.Ltmp273:
	.loc	4 112 5 is_stmt 1               # crypto_stream/chacha20/ref/chacha20_ref.c:112:5
	incq	%r11
	movq	%r10, %rbx
.Ltmp274:
	#DEBUG_VALUE: chacha20_encrypt_bytes:c <- $rbx
	jmp	.LBB4_1
.Ltmp275:
	.loc	4 0 5 is_stmt 0                 # :0:5
.Ltmp276:
	.p2align	4
.LBB4_13:                               # %vector.scevcheck
                                        #   in Loop: Header=BB4_1 Depth=1
	#DEBUG_VALUE: chacha20_encrypt_bytes:ctx <- [DW_OP_plus_uconst 120] [$rsp+0]
	#DEBUG_VALUE: chacha20_encrypt_bytes:m <- $rsi
	#DEBUG_VALUE: chacha20_encrypt_bytes:c <- $rbx
	#DEBUG_VALUE: chacha20_encrypt_bytes:bytes <- [DW_OP_plus_uconst 136, DW_OP_deref] $rsp
	#DEBUG_VALUE: chacha20_encrypt_bytes:ctarget <- [DW_OP_plus_uconst 40, DW_OP_deref] $rsp
	#DEBUG_VALUE: chacha20_encrypt_bytes:j0 <- [DW_OP_plus_uconst 100, DW_OP_deref] $rsp
	#DEBUG_VALUE: chacha20_encrypt_bytes:j9 <- [DW_OP_plus_uconst 36, DW_OP_deref] $rsp
	#DEBUG_VALUE: chacha20_encrypt_bytes:j10 <- [DW_OP_plus_uconst 32, DW_OP_deref] $rsp
	#DEBUG_VALUE: chacha20_encrypt_bytes:j11 <- [DW_OP_plus_uconst 28, DW_OP_deref] $rsp
	#DEBUG_VALUE: chacha20_encrypt_bytes:j12 <- [DW_OP_plus_uconst 12, DW_OP_deref] $rsp
	#DEBUG_VALUE: chacha20_encrypt_bytes:j13 <- $r8d
	#DEBUG_VALUE: chacha20_encrypt_bytes:j14 <- [DW_OP_plus_uconst 24, DW_OP_deref] $rsp
	#DEBUG_VALUE: chacha20_encrypt_bytes:j15 <- [DW_OP_plus_uconst 20, DW_OP_deref] $rsp
	#DEBUG_VALUE: chacha20_encrypt_bytes:i <- 0
	movq	%r11, %rcx
	shlq	$6, %rcx
	notq	%rcx
	addq	112(%rsp), %rcx                 # 8-byte Folded Reload
	xorl	%eax, %eax
.Ltmp277:
	.loc	4 115 13 is_stmt 1              # crypto_stream/chacha20/ref/chacha20_ref.c:115:13
	cmpl	$-1, %ecx
.Ltmp278:
	.loc	4 115 25 is_stmt 0              # crypto_stream/chacha20/ref/chacha20_ref.c:115:25
	je	.LBB4_5
.Ltmp279:
# %bb.14:                               # %vector.scevcheck
                                        #   in Loop: Header=BB4_1 Depth=1
	#DEBUG_VALUE: chacha20_encrypt_bytes:ctx <- [DW_OP_plus_uconst 120] [$rsp+0]
	#DEBUG_VALUE: chacha20_encrypt_bytes:m <- $rsi
	#DEBUG_VALUE: chacha20_encrypt_bytes:c <- $rbx
	#DEBUG_VALUE: chacha20_encrypt_bytes:bytes <- [DW_OP_plus_uconst 136, DW_OP_deref] $rsp
	#DEBUG_VALUE: chacha20_encrypt_bytes:ctarget <- [DW_OP_plus_uconst 40, DW_OP_deref] $rsp
	#DEBUG_VALUE: chacha20_encrypt_bytes:j0 <- [DW_OP_plus_uconst 100, DW_OP_deref] $rsp
	#DEBUG_VALUE: chacha20_encrypt_bytes:j9 <- [DW_OP_plus_uconst 36, DW_OP_deref] $rsp
	#DEBUG_VALUE: chacha20_encrypt_bytes:j10 <- [DW_OP_plus_uconst 32, DW_OP_deref] $rsp
	#DEBUG_VALUE: chacha20_encrypt_bytes:j11 <- [DW_OP_plus_uconst 28, DW_OP_deref] $rsp
	#DEBUG_VALUE: chacha20_encrypt_bytes:j12 <- [DW_OP_plus_uconst 12, DW_OP_deref] $rsp
	#DEBUG_VALUE: chacha20_encrypt_bytes:j13 <- $r8d
	#DEBUG_VALUE: chacha20_encrypt_bytes:j14 <- [DW_OP_plus_uconst 24, DW_OP_deref] $rsp
	#DEBUG_VALUE: chacha20_encrypt_bytes:j15 <- [DW_OP_plus_uconst 20, DW_OP_deref] $rsp
	#DEBUG_VALUE: chacha20_encrypt_bytes:i <- 0
	shrq	$32, %rcx
	jne	.LBB4_5
.Ltmp280:
# %bb.15:                               # %vector.scevcheck
                                        #   in Loop: Header=BB4_1 Depth=1
	#DEBUG_VALUE: chacha20_encrypt_bytes:ctx <- [DW_OP_plus_uconst 120] [$rsp+0]
	#DEBUG_VALUE: chacha20_encrypt_bytes:m <- $rsi
	#DEBUG_VALUE: chacha20_encrypt_bytes:c <- $rbx
	#DEBUG_VALUE: chacha20_encrypt_bytes:bytes <- [DW_OP_plus_uconst 136, DW_OP_deref] $rsp
	#DEBUG_VALUE: chacha20_encrypt_bytes:ctarget <- [DW_OP_plus_uconst 40, DW_OP_deref] $rsp
	#DEBUG_VALUE: chacha20_encrypt_bytes:j0 <- [DW_OP_plus_uconst 100, DW_OP_deref] $rsp
	#DEBUG_VALUE: chacha20_encrypt_bytes:j9 <- [DW_OP_plus_uconst 36, DW_OP_deref] $rsp
	#DEBUG_VALUE: chacha20_encrypt_bytes:j10 <- [DW_OP_plus_uconst 32, DW_OP_deref] $rsp
	#DEBUG_VALUE: chacha20_encrypt_bytes:j11 <- [DW_OP_plus_uconst 28, DW_OP_deref] $rsp
	#DEBUG_VALUE: chacha20_encrypt_bytes:j12 <- [DW_OP_plus_uconst 12, DW_OP_deref] $rsp
	#DEBUG_VALUE: chacha20_encrypt_bytes:j13 <- $r8d
	#DEBUG_VALUE: chacha20_encrypt_bytes:j14 <- [DW_OP_plus_uconst 24, DW_OP_deref] $rsp
	#DEBUG_VALUE: chacha20_encrypt_bytes:j15 <- [DW_OP_plus_uconst 20, DW_OP_deref] $rsp
	#DEBUG_VALUE: chacha20_encrypt_bytes:i <- 0
	.loc	4 0 25                          # crypto_stream/chacha20/ref/chacha20_ref.c:0:25
	leaq	144(%rsp), %rdx
	subq	%rsi, %rdx
	movl	$0, %ecx
	.loc	4 115 25                        # crypto_stream/chacha20/ref/chacha20_ref.c:115:25
	cmpq	$32, %rdx
	jb	.LBB4_6
.Ltmp281:
# %bb.16:                               # %vector.main.loop.iter.check
                                        #   in Loop: Header=BB4_1 Depth=1
	#DEBUG_VALUE: chacha20_encrypt_bytes:ctx <- [DW_OP_plus_uconst 120] [$rsp+0]
	#DEBUG_VALUE: chacha20_encrypt_bytes:m <- $rsi
	#DEBUG_VALUE: chacha20_encrypt_bytes:c <- $rbx
	#DEBUG_VALUE: chacha20_encrypt_bytes:bytes <- [DW_OP_plus_uconst 136, DW_OP_deref] $rsp
	#DEBUG_VALUE: chacha20_encrypt_bytes:ctarget <- [DW_OP_plus_uconst 40, DW_OP_deref] $rsp
	#DEBUG_VALUE: chacha20_encrypt_bytes:j0 <- [DW_OP_plus_uconst 100, DW_OP_deref] $rsp
	#DEBUG_VALUE: chacha20_encrypt_bytes:j9 <- [DW_OP_plus_uconst 36, DW_OP_deref] $rsp
	#DEBUG_VALUE: chacha20_encrypt_bytes:j10 <- [DW_OP_plus_uconst 32, DW_OP_deref] $rsp
	#DEBUG_VALUE: chacha20_encrypt_bytes:j11 <- [DW_OP_plus_uconst 28, DW_OP_deref] $rsp
	#DEBUG_VALUE: chacha20_encrypt_bytes:j12 <- [DW_OP_plus_uconst 12, DW_OP_deref] $rsp
	#DEBUG_VALUE: chacha20_encrypt_bytes:j13 <- $r8d
	#DEBUG_VALUE: chacha20_encrypt_bytes:j14 <- [DW_OP_plus_uconst 24, DW_OP_deref] $rsp
	#DEBUG_VALUE: chacha20_encrypt_bytes:j15 <- [DW_OP_plus_uconst 20, DW_OP_deref] $rsp
	#DEBUG_VALUE: chacha20_encrypt_bytes:i <- 0
	.loc	4 115 13                        # crypto_stream/chacha20/ref/chacha20_ref.c:115:13
	cmpq	$32, %rdi
	jae	.LBB4_18
.Ltmp282:
# %bb.17:                               #   in Loop: Header=BB4_1 Depth=1
	#DEBUG_VALUE: chacha20_encrypt_bytes:ctx <- [DW_OP_plus_uconst 120] [$rsp+0]
	#DEBUG_VALUE: chacha20_encrypt_bytes:m <- $rsi
	#DEBUG_VALUE: chacha20_encrypt_bytes:c <- $rbx
	#DEBUG_VALUE: chacha20_encrypt_bytes:bytes <- [DW_OP_plus_uconst 136, DW_OP_deref] $rsp
	#DEBUG_VALUE: chacha20_encrypt_bytes:ctarget <- [DW_OP_plus_uconst 40, DW_OP_deref] $rsp
	#DEBUG_VALUE: chacha20_encrypt_bytes:j0 <- [DW_OP_plus_uconst 100, DW_OP_deref] $rsp
	#DEBUG_VALUE: chacha20_encrypt_bytes:j9 <- [DW_OP_plus_uconst 36, DW_OP_deref] $rsp
	#DEBUG_VALUE: chacha20_encrypt_bytes:j10 <- [DW_OP_plus_uconst 32, DW_OP_deref] $rsp
	#DEBUG_VALUE: chacha20_encrypt_bytes:j11 <- [DW_OP_plus_uconst 28, DW_OP_deref] $rsp
	#DEBUG_VALUE: chacha20_encrypt_bytes:j12 <- [DW_OP_plus_uconst 12, DW_OP_deref] $rsp
	#DEBUG_VALUE: chacha20_encrypt_bytes:j13 <- $r8d
	#DEBUG_VALUE: chacha20_encrypt_bytes:j14 <- [DW_OP_plus_uconst 24, DW_OP_deref] $rsp
	#DEBUG_VALUE: chacha20_encrypt_bytes:j15 <- [DW_OP_plus_uconst 20, DW_OP_deref] $rsp
	#DEBUG_VALUE: chacha20_encrypt_bytes:i <- 0
	.loc	4 0 13                          # crypto_stream/chacha20/ref/chacha20_ref.c:0:13
	xorl	%eax, %eax
	jmp	.LBB4_22
.Ltmp283:
.LBB4_18:                               # %vector.ph
                                        #   in Loop: Header=BB4_1 Depth=1
	#DEBUG_VALUE: chacha20_encrypt_bytes:ctx <- [DW_OP_plus_uconst 120] [$rsp+0]
	#DEBUG_VALUE: chacha20_encrypt_bytes:m <- $rsi
	#DEBUG_VALUE: chacha20_encrypt_bytes:c <- $rbx
	#DEBUG_VALUE: chacha20_encrypt_bytes:bytes <- [DW_OP_plus_uconst 136, DW_OP_deref] $rsp
	#DEBUG_VALUE: chacha20_encrypt_bytes:ctarget <- [DW_OP_plus_uconst 40, DW_OP_deref] $rsp
	#DEBUG_VALUE: chacha20_encrypt_bytes:j0 <- [DW_OP_plus_uconst 100, DW_OP_deref] $rsp
	#DEBUG_VALUE: chacha20_encrypt_bytes:j9 <- [DW_OP_plus_uconst 36, DW_OP_deref] $rsp
	#DEBUG_VALUE: chacha20_encrypt_bytes:j10 <- [DW_OP_plus_uconst 32, DW_OP_deref] $rsp
	#DEBUG_VALUE: chacha20_encrypt_bytes:j11 <- [DW_OP_plus_uconst 28, DW_OP_deref] $rsp
	#DEBUG_VALUE: chacha20_encrypt_bytes:j12 <- [DW_OP_plus_uconst 12, DW_OP_deref] $rsp
	#DEBUG_VALUE: chacha20_encrypt_bytes:j13 <- $r8d
	#DEBUG_VALUE: chacha20_encrypt_bytes:j14 <- [DW_OP_plus_uconst 24, DW_OP_deref] $rsp
	#DEBUG_VALUE: chacha20_encrypt_bytes:j15 <- [DW_OP_plus_uconst 20, DW_OP_deref] $rsp
	#DEBUG_VALUE: chacha20_encrypt_bytes:i <- 0
	movl	%edi, %ecx
	andl	$32, %ecx
	.loc	4 115 13                        # crypto_stream/chacha20/ref/chacha20_ref.c:115:13
	movl	%edi, %eax
	andl	$32, %eax
	xorl	%edx, %edx
.Ltmp284:
	.loc	4 0 13                          # :0:13
.Ltmp285:
	.p2align	4
.LBB4_19:                               # %vector.body
                                        #   Parent Loop BB4_1 Depth=1
                                        # =>  This Inner Loop Header: Depth=2
	#DEBUG_VALUE: chacha20_encrypt_bytes:ctx <- [DW_OP_plus_uconst 120] [$rsp+0]
	#DEBUG_VALUE: chacha20_encrypt_bytes:m <- $rsi
	#DEBUG_VALUE: chacha20_encrypt_bytes:c <- $rbx
	#DEBUG_VALUE: chacha20_encrypt_bytes:bytes <- [DW_OP_plus_uconst 136, DW_OP_deref] $rsp
	#DEBUG_VALUE: chacha20_encrypt_bytes:ctarget <- [DW_OP_plus_uconst 40, DW_OP_deref] $rsp
	#DEBUG_VALUE: chacha20_encrypt_bytes:j0 <- [DW_OP_plus_uconst 100, DW_OP_deref] $rsp
	#DEBUG_VALUE: chacha20_encrypt_bytes:j9 <- [DW_OP_plus_uconst 36, DW_OP_deref] $rsp
	#DEBUG_VALUE: chacha20_encrypt_bytes:j10 <- [DW_OP_plus_uconst 32, DW_OP_deref] $rsp
	#DEBUG_VALUE: chacha20_encrypt_bytes:j11 <- [DW_OP_plus_uconst 28, DW_OP_deref] $rsp
	#DEBUG_VALUE: chacha20_encrypt_bytes:j12 <- [DW_OP_plus_uconst 12, DW_OP_deref] $rsp
	#DEBUG_VALUE: chacha20_encrypt_bytes:j13 <- $r8d
	#DEBUG_VALUE: chacha20_encrypt_bytes:j14 <- [DW_OP_plus_uconst 24, DW_OP_deref] $rsp
	#DEBUG_VALUE: chacha20_encrypt_bytes:j15 <- [DW_OP_plus_uconst 20, DW_OP_deref] $rsp
	#DEBUG_VALUE: chacha20_encrypt_bytes:i <- 0
	.loc	4 116 26 is_stmt 1              # crypto_stream/chacha20/ref/chacha20_ref.c:116:26
	movdqu	(%rsi,%rdx), %xmm3
	movdqu	16(%rsi,%rdx), %xmm4
	.loc	4 116 24 is_stmt 0              # crypto_stream/chacha20/ref/chacha20_ref.c:116:24
	movdqa	%xmm3, 144(%rsp,%rdx)
	movdqa	%xmm4, 160(%rsp,%rdx)
.Ltmp286:
	.loc	4 115 25 is_stmt 1              # crypto_stream/chacha20/ref/chacha20_ref.c:115:25
	addq	$32, %rdx
	cmpq	%rdx, %rcx
	jne	.LBB4_19
.Ltmp287:
# %bb.20:                               # %middle.block
                                        #   in Loop: Header=BB4_1 Depth=1
	#DEBUG_VALUE: chacha20_encrypt_bytes:ctx <- [DW_OP_plus_uconst 120] [$rsp+0]
	#DEBUG_VALUE: chacha20_encrypt_bytes:m <- $rsi
	#DEBUG_VALUE: chacha20_encrypt_bytes:c <- $rbx
	#DEBUG_VALUE: chacha20_encrypt_bytes:bytes <- [DW_OP_plus_uconst 136, DW_OP_deref] $rsp
	#DEBUG_VALUE: chacha20_encrypt_bytes:ctarget <- [DW_OP_plus_uconst 40, DW_OP_deref] $rsp
	#DEBUG_VALUE: chacha20_encrypt_bytes:j0 <- [DW_OP_plus_uconst 100, DW_OP_deref] $rsp
	#DEBUG_VALUE: chacha20_encrypt_bytes:j9 <- [DW_OP_plus_uconst 36, DW_OP_deref] $rsp
	#DEBUG_VALUE: chacha20_encrypt_bytes:j10 <- [DW_OP_plus_uconst 32, DW_OP_deref] $rsp
	#DEBUG_VALUE: chacha20_encrypt_bytes:j11 <- [DW_OP_plus_uconst 28, DW_OP_deref] $rsp
	#DEBUG_VALUE: chacha20_encrypt_bytes:j12 <- [DW_OP_plus_uconst 12, DW_OP_deref] $rsp
	#DEBUG_VALUE: chacha20_encrypt_bytes:j13 <- $r8d
	#DEBUG_VALUE: chacha20_encrypt_bytes:j14 <- [DW_OP_plus_uconst 24, DW_OP_deref] $rsp
	#DEBUG_VALUE: chacha20_encrypt_bytes:j15 <- [DW_OP_plus_uconst 20, DW_OP_deref] $rsp
	#DEBUG_VALUE: chacha20_encrypt_bytes:i <- 0
	.loc	4 115 13 is_stmt 0              # crypto_stream/chacha20/ref/chacha20_ref.c:115:13
	cmpq	%rax, %rdi
	je	.LBB4_8
.Ltmp288:
# %bb.21:                               # %vec.epilog.iter.check
                                        #   in Loop: Header=BB4_1 Depth=1
	#DEBUG_VALUE: chacha20_encrypt_bytes:ctx <- [DW_OP_plus_uconst 120] [$rsp+0]
	#DEBUG_VALUE: chacha20_encrypt_bytes:m <- $rsi
	#DEBUG_VALUE: chacha20_encrypt_bytes:c <- $rbx
	#DEBUG_VALUE: chacha20_encrypt_bytes:bytes <- [DW_OP_plus_uconst 136, DW_OP_deref] $rsp
	#DEBUG_VALUE: chacha20_encrypt_bytes:ctarget <- [DW_OP_plus_uconst 40, DW_OP_deref] $rsp
	#DEBUG_VALUE: chacha20_encrypt_bytes:j0 <- [DW_OP_plus_uconst 100, DW_OP_deref] $rsp
	#DEBUG_VALUE: chacha20_encrypt_bytes:j9 <- [DW_OP_plus_uconst 36, DW_OP_deref] $rsp
	#DEBUG_VALUE: chacha20_encrypt_bytes:j10 <- [DW_OP_plus_uconst 32, DW_OP_deref] $rsp
	#DEBUG_VALUE: chacha20_encrypt_bytes:j11 <- [DW_OP_plus_uconst 28, DW_OP_deref] $rsp
	#DEBUG_VALUE: chacha20_encrypt_bytes:j12 <- [DW_OP_plus_uconst 12, DW_OP_deref] $rsp
	#DEBUG_VALUE: chacha20_encrypt_bytes:j13 <- $r8d
	#DEBUG_VALUE: chacha20_encrypt_bytes:j14 <- [DW_OP_plus_uconst 24, DW_OP_deref] $rsp
	#DEBUG_VALUE: chacha20_encrypt_bytes:j15 <- [DW_OP_plus_uconst 20, DW_OP_deref] $rsp
	#DEBUG_VALUE: chacha20_encrypt_bytes:i <- 0
	testb	$28, %dil
	je	.LBB4_27
.Ltmp289:
.LBB4_22:                               # %vec.epilog.ph
                                        #   in Loop: Header=BB4_1 Depth=1
	#DEBUG_VALUE: chacha20_encrypt_bytes:ctx <- [DW_OP_plus_uconst 120] [$rsp+0]
	#DEBUG_VALUE: chacha20_encrypt_bytes:m <- $rsi
	#DEBUG_VALUE: chacha20_encrypt_bytes:c <- $rbx
	#DEBUG_VALUE: chacha20_encrypt_bytes:bytes <- [DW_OP_plus_uconst 136, DW_OP_deref] $rsp
	#DEBUG_VALUE: chacha20_encrypt_bytes:ctarget <- [DW_OP_plus_uconst 40, DW_OP_deref] $rsp
	#DEBUG_VALUE: chacha20_encrypt_bytes:j0 <- [DW_OP_plus_uconst 100, DW_OP_deref] $rsp
	#DEBUG_VALUE: chacha20_encrypt_bytes:j9 <- [DW_OP_plus_uconst 36, DW_OP_deref] $rsp
	#DEBUG_VALUE: chacha20_encrypt_bytes:j10 <- [DW_OP_plus_uconst 32, DW_OP_deref] $rsp
	#DEBUG_VALUE: chacha20_encrypt_bytes:j11 <- [DW_OP_plus_uconst 28, DW_OP_deref] $rsp
	#DEBUG_VALUE: chacha20_encrypt_bytes:j12 <- [DW_OP_plus_uconst 12, DW_OP_deref] $rsp
	#DEBUG_VALUE: chacha20_encrypt_bytes:j13 <- $r8d
	#DEBUG_VALUE: chacha20_encrypt_bytes:j14 <- [DW_OP_plus_uconst 24, DW_OP_deref] $rsp
	#DEBUG_VALUE: chacha20_encrypt_bytes:j15 <- [DW_OP_plus_uconst 20, DW_OP_deref] $rsp
	#DEBUG_VALUE: chacha20_encrypt_bytes:i <- 0
	.loc	4 0 13                          # crypto_stream/chacha20/ref/chacha20_ref.c:0:13
	movq	%rax, %rcx
	movl	%edi, %edx
	andl	$60, %edx
	.loc	4 115 13 is_stmt 1              # crypto_stream/chacha20/ref/chacha20_ref.c:115:13
	movl	%edi, %eax
	andl	$60, %eax
.Ltmp290:
	.loc	4 0 13 is_stmt 0                # :0:13
.Ltmp291:
	.p2align	4
.LBB4_23:                               # %vec.epilog.vector.body
                                        #   Parent Loop BB4_1 Depth=1
                                        # =>  This Inner Loop Header: Depth=2
	#DEBUG_VALUE: chacha20_encrypt_bytes:ctx <- [DW_OP_plus_uconst 120] [$rsp+0]
	#DEBUG_VALUE: chacha20_encrypt_bytes:m <- $rsi
	#DEBUG_VALUE: chacha20_encrypt_bytes:c <- $rbx
	#DEBUG_VALUE: chacha20_encrypt_bytes:bytes <- [DW_OP_plus_uconst 136, DW_OP_deref] $rsp
	#DEBUG_VALUE: chacha20_encrypt_bytes:ctarget <- [DW_OP_plus_uconst 40, DW_OP_deref] $rsp
	#DEBUG_VALUE: chacha20_encrypt_bytes:j0 <- [DW_OP_plus_uconst 100, DW_OP_deref] $rsp
	#DEBUG_VALUE: chacha20_encrypt_bytes:j9 <- [DW_OP_plus_uconst 36, DW_OP_deref] $rsp
	#DEBUG_VALUE: chacha20_encrypt_bytes:j10 <- [DW_OP_plus_uconst 32, DW_OP_deref] $rsp
	#DEBUG_VALUE: chacha20_encrypt_bytes:j11 <- [DW_OP_plus_uconst 28, DW_OP_deref] $rsp
	#DEBUG_VALUE: chacha20_encrypt_bytes:j12 <- [DW_OP_plus_uconst 12, DW_OP_deref] $rsp
	#DEBUG_VALUE: chacha20_encrypt_bytes:j13 <- $r8d
	#DEBUG_VALUE: chacha20_encrypt_bytes:j14 <- [DW_OP_plus_uconst 24, DW_OP_deref] $rsp
	#DEBUG_VALUE: chacha20_encrypt_bytes:j15 <- [DW_OP_plus_uconst 20, DW_OP_deref] $rsp
	#DEBUG_VALUE: chacha20_encrypt_bytes:i <- 0
	.loc	4 116 26 is_stmt 1              # crypto_stream/chacha20/ref/chacha20_ref.c:116:26
	movl	(%rsi,%rcx), %r10d
	.loc	4 116 24 is_stmt 0              # crypto_stream/chacha20/ref/chacha20_ref.c:116:24
	movl	%r10d, 144(%rsp,%rcx)
.Ltmp292:
	.loc	4 115 25 is_stmt 1              # crypto_stream/chacha20/ref/chacha20_ref.c:115:25
	addq	$4, %rcx
	cmpq	%rcx, %rdx
	jne	.LBB4_23
.Ltmp293:
# %bb.24:                               # %vec.epilog.middle.block
                                        #   in Loop: Header=BB4_1 Depth=1
	#DEBUG_VALUE: chacha20_encrypt_bytes:ctx <- [DW_OP_plus_uconst 120] [$rsp+0]
	#DEBUG_VALUE: chacha20_encrypt_bytes:m <- $rsi
	#DEBUG_VALUE: chacha20_encrypt_bytes:c <- $rbx
	#DEBUG_VALUE: chacha20_encrypt_bytes:bytes <- [DW_OP_plus_uconst 136, DW_OP_deref] $rsp
	#DEBUG_VALUE: chacha20_encrypt_bytes:ctarget <- [DW_OP_plus_uconst 40, DW_OP_deref] $rsp
	#DEBUG_VALUE: chacha20_encrypt_bytes:j0 <- [DW_OP_plus_uconst 100, DW_OP_deref] $rsp
	#DEBUG_VALUE: chacha20_encrypt_bytes:j9 <- [DW_OP_plus_uconst 36, DW_OP_deref] $rsp
	#DEBUG_VALUE: chacha20_encrypt_bytes:j10 <- [DW_OP_plus_uconst 32, DW_OP_deref] $rsp
	#DEBUG_VALUE: chacha20_encrypt_bytes:j11 <- [DW_OP_plus_uconst 28, DW_OP_deref] $rsp
	#DEBUG_VALUE: chacha20_encrypt_bytes:j12 <- [DW_OP_plus_uconst 12, DW_OP_deref] $rsp
	#DEBUG_VALUE: chacha20_encrypt_bytes:j13 <- $r8d
	#DEBUG_VALUE: chacha20_encrypt_bytes:j14 <- [DW_OP_plus_uconst 24, DW_OP_deref] $rsp
	#DEBUG_VALUE: chacha20_encrypt_bytes:j15 <- [DW_OP_plus_uconst 20, DW_OP_deref] $rsp
	#DEBUG_VALUE: chacha20_encrypt_bytes:i <- 0
	.loc	4 0 25 is_stmt 0                # crypto_stream/chacha20/ref/chacha20_ref.c:0:25
	movl	%eax, %ecx
	.loc	4 115 13                        # crypto_stream/chacha20/ref/chacha20_ref.c:115:13
	cmpq	%rax, %rdi
	jne	.LBB4_6
	jmp	.LBB4_8
.Ltmp294:
.LBB4_27:                               #   in Loop: Header=BB4_1 Depth=1
	#DEBUG_VALUE: chacha20_encrypt_bytes:ctx <- [DW_OP_plus_uconst 120] [$rsp+0]
	#DEBUG_VALUE: chacha20_encrypt_bytes:m <- $rsi
	#DEBUG_VALUE: chacha20_encrypt_bytes:c <- $rbx
	#DEBUG_VALUE: chacha20_encrypt_bytes:bytes <- [DW_OP_plus_uconst 136, DW_OP_deref] $rsp
	#DEBUG_VALUE: chacha20_encrypt_bytes:ctarget <- [DW_OP_plus_uconst 40, DW_OP_deref] $rsp
	#DEBUG_VALUE: chacha20_encrypt_bytes:j0 <- [DW_OP_plus_uconst 100, DW_OP_deref] $rsp
	#DEBUG_VALUE: chacha20_encrypt_bytes:j9 <- [DW_OP_plus_uconst 36, DW_OP_deref] $rsp
	#DEBUG_VALUE: chacha20_encrypt_bytes:j10 <- [DW_OP_plus_uconst 32, DW_OP_deref] $rsp
	#DEBUG_VALUE: chacha20_encrypt_bytes:j11 <- [DW_OP_plus_uconst 28, DW_OP_deref] $rsp
	#DEBUG_VALUE: chacha20_encrypt_bytes:j12 <- [DW_OP_plus_uconst 12, DW_OP_deref] $rsp
	#DEBUG_VALUE: chacha20_encrypt_bytes:j13 <- $r8d
	#DEBUG_VALUE: chacha20_encrypt_bytes:j14 <- [DW_OP_plus_uconst 24, DW_OP_deref] $rsp
	#DEBUG_VALUE: chacha20_encrypt_bytes:j15 <- [DW_OP_plus_uconst 20, DW_OP_deref] $rsp
	#DEBUG_VALUE: chacha20_encrypt_bytes:i <- 0
	.loc	4 0 13                          # crypto_stream/chacha20/ref/chacha20_ref.c:0:13
	movl	%eax, %ecx
	jmp	.LBB4_6
.Ltmp295:
.LBB4_28:
	#DEBUG_VALUE: chacha20_encrypt_bytes:ctx <- [DW_OP_plus_uconst 120] [$rsp+0]
	#DEBUG_VALUE: chacha20_encrypt_bytes:m <- [DW_OP_plus_uconst 56, DW_OP_deref] $rsp
	#DEBUG_VALUE: chacha20_encrypt_bytes:c <- [DW_OP_plus_uconst 48, DW_OP_deref] $rsp
	#DEBUG_VALUE: chacha20_encrypt_bytes:bytes <- [DW_OP_plus_uconst 136, DW_OP_deref] $rsp
	#DEBUG_VALUE: chacha20_encrypt_bytes:ctarget <- [DW_OP_plus_uconst 40, DW_OP_deref] $rsp
	#DEBUG_VALUE: chacha20_encrypt_bytes:j0 <- [DW_OP_plus_uconst 100, DW_OP_deref] $rsp
	#DEBUG_VALUE: chacha20_encrypt_bytes:j9 <- [DW_OP_plus_uconst 36, DW_OP_deref] $rsp
	#DEBUG_VALUE: chacha20_encrypt_bytes:j10 <- [DW_OP_plus_uconst 32, DW_OP_deref] $rsp
	#DEBUG_VALUE: chacha20_encrypt_bytes:j11 <- [DW_OP_plus_uconst 28, DW_OP_deref] $rsp
	#DEBUG_VALUE: chacha20_encrypt_bytes:j12 <- [DW_OP_plus_uconst 12, DW_OP_deref] $rsp
	#DEBUG_VALUE: chacha20_encrypt_bytes:j13 <- $r8d
	#DEBUG_VALUE: chacha20_encrypt_bytes:j14 <- [DW_OP_plus_uconst 24, DW_OP_deref] $rsp
	#DEBUG_VALUE: chacha20_encrypt_bytes:j15 <- [DW_OP_plus_uconst 20, DW_OP_deref] $rsp
	#DEBUG_VALUE: chacha20_encrypt_bytes:x0 <- $r15d
	#DEBUG_VALUE: chacha20_encrypt_bytes:x9 <- $r11d
	#DEBUG_VALUE: chacha20_encrypt_bytes:x10 <- $r14d
	#DEBUG_VALUE: chacha20_encrypt_bytes:x11 <- $ecx
	#DEBUG_VALUE: chacha20_encrypt_bytes:x12 <- $eax
	#DEBUG_VALUE: chacha20_encrypt_bytes:x14 <- $r12d
	#DEBUG_VALUE: chacha20_encrypt_bytes:x15 <- $ebx
	#DEBUG_VALUE: chacha20_encrypt_bytes:i <- 0
	.loc	4 207 23 is_stmt 1              # crypto_stream/chacha20/ref/chacha20_ref.c:207:23
	leaq	-64(%rdi), %rax
.Ltmp296:
	cmpq	$-63, %rax
	movq	40(%rsp), %r9                   # 8-byte Reload
	jb	.LBB4_41
.Ltmp297:
# %bb.29:                               # %iter.check410
	#DEBUG_VALUE: chacha20_encrypt_bytes:ctx <- [DW_OP_plus_uconst 120] [$rsp+0]
	#DEBUG_VALUE: chacha20_encrypt_bytes:m <- [DW_OP_plus_uconst 56, DW_OP_deref] $rsp
	#DEBUG_VALUE: chacha20_encrypt_bytes:c <- [DW_OP_plus_uconst 48, DW_OP_deref] $rsp
	#DEBUG_VALUE: chacha20_encrypt_bytes:bytes <- [DW_OP_plus_uconst 136, DW_OP_deref] $rsp
	#DEBUG_VALUE: chacha20_encrypt_bytes:ctarget <- [DW_OP_plus_uconst 40, DW_OP_deref] $rsp
	#DEBUG_VALUE: chacha20_encrypt_bytes:j0 <- [DW_OP_plus_uconst 100, DW_OP_deref] $rsp
	#DEBUG_VALUE: chacha20_encrypt_bytes:j9 <- [DW_OP_plus_uconst 36, DW_OP_deref] $rsp
	#DEBUG_VALUE: chacha20_encrypt_bytes:j10 <- [DW_OP_plus_uconst 32, DW_OP_deref] $rsp
	#DEBUG_VALUE: chacha20_encrypt_bytes:j11 <- [DW_OP_plus_uconst 28, DW_OP_deref] $rsp
	#DEBUG_VALUE: chacha20_encrypt_bytes:j12 <- [DW_OP_plus_uconst 12, DW_OP_deref] $rsp
	#DEBUG_VALUE: chacha20_encrypt_bytes:j13 <- $r8d
	#DEBUG_VALUE: chacha20_encrypt_bytes:j14 <- [DW_OP_plus_uconst 24, DW_OP_deref] $rsp
	#DEBUG_VALUE: chacha20_encrypt_bytes:j15 <- [DW_OP_plus_uconst 20, DW_OP_deref] $rsp
	#DEBUG_VALUE: chacha20_encrypt_bytes:i <- 0
	#DEBUG_VALUE: chacha20_encrypt_bytes:x0 <- $r15d
	#DEBUG_VALUE: chacha20_encrypt_bytes:x9 <- $r11d
	#DEBUG_VALUE: chacha20_encrypt_bytes:x10 <- $r14d
	#DEBUG_VALUE: chacha20_encrypt_bytes:x11 <- $ecx
	#DEBUG_VALUE: chacha20_encrypt_bytes:x14 <- $r12d
	#DEBUG_VALUE: chacha20_encrypt_bytes:x15 <- $ebx
	.loc	4 0 23 is_stmt 0                # crypto_stream/chacha20/ref/chacha20_ref.c:0:23
	xorl	%eax, %eax
	movq	112(%rsp), %rdx                 # 8-byte Reload
.Ltmp298:
	.loc	4 208 17 is_stmt 1              # crypto_stream/chacha20/ref/chacha20_ref.c:208:17
	movq	%rdx, %rcx
.Ltmp299:
	subq	$64, %rcx
	cmovbq	%rax, %rcx
	addq	$63, %rcx
	andq	$-64, %rcx
	subq	%rcx, %rdx
	cmpq	$1, %rdx
	movq	%rdx, %rcx
	adcq	$0, %rcx
	cmpq	$4, %rdx
	jb	.LBB4_40
.Ltmp300:
# %bb.30:                               # %iter.check410
	#DEBUG_VALUE: chacha20_encrypt_bytes:ctx <- [DW_OP_plus_uconst 120] [$rsp+0]
	#DEBUG_VALUE: chacha20_encrypt_bytes:m <- [DW_OP_plus_uconst 56, DW_OP_deref] $rsp
	#DEBUG_VALUE: chacha20_encrypt_bytes:c <- [DW_OP_plus_uconst 48, DW_OP_deref] $rsp
	#DEBUG_VALUE: chacha20_encrypt_bytes:bytes <- [DW_OP_plus_uconst 136, DW_OP_deref] $rsp
	#DEBUG_VALUE: chacha20_encrypt_bytes:ctarget <- [DW_OP_plus_uconst 40, DW_OP_deref] $rsp
	#DEBUG_VALUE: chacha20_encrypt_bytes:j0 <- [DW_OP_plus_uconst 100, DW_OP_deref] $rsp
	#DEBUG_VALUE: chacha20_encrypt_bytes:j9 <- [DW_OP_plus_uconst 36, DW_OP_deref] $rsp
	#DEBUG_VALUE: chacha20_encrypt_bytes:j10 <- [DW_OP_plus_uconst 32, DW_OP_deref] $rsp
	#DEBUG_VALUE: chacha20_encrypt_bytes:j11 <- [DW_OP_plus_uconst 28, DW_OP_deref] $rsp
	#DEBUG_VALUE: chacha20_encrypt_bytes:j12 <- [DW_OP_plus_uconst 12, DW_OP_deref] $rsp
	#DEBUG_VALUE: chacha20_encrypt_bytes:j13 <- $r8d
	#DEBUG_VALUE: chacha20_encrypt_bytes:j14 <- [DW_OP_plus_uconst 24, DW_OP_deref] $rsp
	#DEBUG_VALUE: chacha20_encrypt_bytes:j15 <- [DW_OP_plus_uconst 20, DW_OP_deref] $rsp
	#DEBUG_VALUE: chacha20_encrypt_bytes:i <- 0
	#DEBUG_VALUE: chacha20_encrypt_bytes:x0 <- $r15d
	#DEBUG_VALUE: chacha20_encrypt_bytes:x9 <- $r11d
	#DEBUG_VALUE: chacha20_encrypt_bytes:x10 <- $r14d
	#DEBUG_VALUE: chacha20_encrypt_bytes:x14 <- $r12d
	#DEBUG_VALUE: chacha20_encrypt_bytes:x15 <- $ebx
	.loc	4 0 17 is_stmt 0                # crypto_stream/chacha20/ref/chacha20_ref.c:0:17
	movq	%rdx, %rsi
	.loc	4 208 17                        # crypto_stream/chacha20/ref/chacha20_ref.c:208:17
	movq	%r9, %rdx
	subq	%r10, %rdx
	cmpq	$32, %rdx
	jb	.LBB4_40
.Ltmp301:
# %bb.31:                               # %vector.main.loop.iter.check412
	#DEBUG_VALUE: chacha20_encrypt_bytes:ctx <- [DW_OP_plus_uconst 120] [$rsp+0]
	#DEBUG_VALUE: chacha20_encrypt_bytes:m <- [DW_OP_plus_uconst 56, DW_OP_deref] $rsp
	#DEBUG_VALUE: chacha20_encrypt_bytes:c <- [DW_OP_plus_uconst 48, DW_OP_deref] $rsp
	#DEBUG_VALUE: chacha20_encrypt_bytes:bytes <- [DW_OP_plus_uconst 136, DW_OP_deref] $rsp
	#DEBUG_VALUE: chacha20_encrypt_bytes:ctarget <- [DW_OP_plus_uconst 40, DW_OP_deref] $rsp
	#DEBUG_VALUE: chacha20_encrypt_bytes:j0 <- [DW_OP_plus_uconst 100, DW_OP_deref] $rsp
	#DEBUG_VALUE: chacha20_encrypt_bytes:j9 <- [DW_OP_plus_uconst 36, DW_OP_deref] $rsp
	#DEBUG_VALUE: chacha20_encrypt_bytes:j10 <- [DW_OP_plus_uconst 32, DW_OP_deref] $rsp
	#DEBUG_VALUE: chacha20_encrypt_bytes:j11 <- [DW_OP_plus_uconst 28, DW_OP_deref] $rsp
	#DEBUG_VALUE: chacha20_encrypt_bytes:j12 <- [DW_OP_plus_uconst 12, DW_OP_deref] $rsp
	#DEBUG_VALUE: chacha20_encrypt_bytes:j13 <- $r8d
	#DEBUG_VALUE: chacha20_encrypt_bytes:j14 <- [DW_OP_plus_uconst 24, DW_OP_deref] $rsp
	#DEBUG_VALUE: chacha20_encrypt_bytes:j15 <- [DW_OP_plus_uconst 20, DW_OP_deref] $rsp
	#DEBUG_VALUE: chacha20_encrypt_bytes:i <- 0
	#DEBUG_VALUE: chacha20_encrypt_bytes:x0 <- $r15d
	#DEBUG_VALUE: chacha20_encrypt_bytes:x9 <- $r11d
	#DEBUG_VALUE: chacha20_encrypt_bytes:x10 <- $r14d
	#DEBUG_VALUE: chacha20_encrypt_bytes:x14 <- $r12d
	#DEBUG_VALUE: chacha20_encrypt_bytes:x15 <- $ebx
	cmpq	$32, %rsi
	jae	.LBB4_33
.Ltmp302:
# %bb.32:
	#DEBUG_VALUE: chacha20_encrypt_bytes:ctx <- [DW_OP_plus_uconst 120] [$rsp+0]
	#DEBUG_VALUE: chacha20_encrypt_bytes:m <- [DW_OP_plus_uconst 56, DW_OP_deref] $rsp
	#DEBUG_VALUE: chacha20_encrypt_bytes:c <- [DW_OP_plus_uconst 48, DW_OP_deref] $rsp
	#DEBUG_VALUE: chacha20_encrypt_bytes:bytes <- [DW_OP_plus_uconst 136, DW_OP_deref] $rsp
	#DEBUG_VALUE: chacha20_encrypt_bytes:ctarget <- [DW_OP_plus_uconst 40, DW_OP_deref] $rsp
	#DEBUG_VALUE: chacha20_encrypt_bytes:j0 <- [DW_OP_plus_uconst 100, DW_OP_deref] $rsp
	#DEBUG_VALUE: chacha20_encrypt_bytes:j9 <- [DW_OP_plus_uconst 36, DW_OP_deref] $rsp
	#DEBUG_VALUE: chacha20_encrypt_bytes:j10 <- [DW_OP_plus_uconst 32, DW_OP_deref] $rsp
	#DEBUG_VALUE: chacha20_encrypt_bytes:j11 <- [DW_OP_plus_uconst 28, DW_OP_deref] $rsp
	#DEBUG_VALUE: chacha20_encrypt_bytes:j12 <- [DW_OP_plus_uconst 12, DW_OP_deref] $rsp
	#DEBUG_VALUE: chacha20_encrypt_bytes:j13 <- $r8d
	#DEBUG_VALUE: chacha20_encrypt_bytes:j14 <- [DW_OP_plus_uconst 24, DW_OP_deref] $rsp
	#DEBUG_VALUE: chacha20_encrypt_bytes:j15 <- [DW_OP_plus_uconst 20, DW_OP_deref] $rsp
	#DEBUG_VALUE: chacha20_encrypt_bytes:i <- 0
	#DEBUG_VALUE: chacha20_encrypt_bytes:x0 <- $r15d
	#DEBUG_VALUE: chacha20_encrypt_bytes:x9 <- $r11d
	#DEBUG_VALUE: chacha20_encrypt_bytes:x10 <- $r14d
	#DEBUG_VALUE: chacha20_encrypt_bytes:x14 <- $r12d
	#DEBUG_VALUE: chacha20_encrypt_bytes:x15 <- $ebx
	.loc	4 0 17                          # crypto_stream/chacha20/ref/chacha20_ref.c:0:17
	xorl	%eax, %eax
	.loc	4 208 17                        # crypto_stream/chacha20/ref/chacha20_ref.c:208:17
	jmp	.LBB4_37
.Ltmp303:
.LBB4_33:                               # %vector.ph413
	#DEBUG_VALUE: chacha20_encrypt_bytes:ctx <- [DW_OP_plus_uconst 120] [$rsp+0]
	#DEBUG_VALUE: chacha20_encrypt_bytes:m <- [DW_OP_plus_uconst 56, DW_OP_deref] $rsp
	#DEBUG_VALUE: chacha20_encrypt_bytes:c <- [DW_OP_plus_uconst 48, DW_OP_deref] $rsp
	#DEBUG_VALUE: chacha20_encrypt_bytes:bytes <- [DW_OP_plus_uconst 136, DW_OP_deref] $rsp
	#DEBUG_VALUE: chacha20_encrypt_bytes:ctarget <- [DW_OP_plus_uconst 40, DW_OP_deref] $rsp
	#DEBUG_VALUE: chacha20_encrypt_bytes:j0 <- [DW_OP_plus_uconst 100, DW_OP_deref] $rsp
	#DEBUG_VALUE: chacha20_encrypt_bytes:j9 <- [DW_OP_plus_uconst 36, DW_OP_deref] $rsp
	#DEBUG_VALUE: chacha20_encrypt_bytes:j10 <- [DW_OP_plus_uconst 32, DW_OP_deref] $rsp
	#DEBUG_VALUE: chacha20_encrypt_bytes:j11 <- [DW_OP_plus_uconst 28, DW_OP_deref] $rsp
	#DEBUG_VALUE: chacha20_encrypt_bytes:j12 <- [DW_OP_plus_uconst 12, DW_OP_deref] $rsp
	#DEBUG_VALUE: chacha20_encrypt_bytes:j13 <- $r8d
	#DEBUG_VALUE: chacha20_encrypt_bytes:j14 <- [DW_OP_plus_uconst 24, DW_OP_deref] $rsp
	#DEBUG_VALUE: chacha20_encrypt_bytes:j15 <- [DW_OP_plus_uconst 20, DW_OP_deref] $rsp
	#DEBUG_VALUE: chacha20_encrypt_bytes:i <- 0
	#DEBUG_VALUE: chacha20_encrypt_bytes:x0 <- $r15d
	#DEBUG_VALUE: chacha20_encrypt_bytes:x9 <- $r11d
	#DEBUG_VALUE: chacha20_encrypt_bytes:x10 <- $r14d
	#DEBUG_VALUE: chacha20_encrypt_bytes:x14 <- $r12d
	#DEBUG_VALUE: chacha20_encrypt_bytes:x15 <- $ebx
	movq	%rcx, %rax
	andq	$-32, %rax
	xorl	%edx, %edx
.Ltmp304:
	.loc	4 0 17                          # :0:17
.Ltmp305:
	.p2align	4
.LBB4_34:                               # %vector.body416
                                        # =>This Inner Loop Header: Depth=1
	#DEBUG_VALUE: chacha20_encrypt_bytes:ctx <- [DW_OP_plus_uconst 120] [$rsp+0]
	#DEBUG_VALUE: chacha20_encrypt_bytes:m <- [DW_OP_plus_uconst 56, DW_OP_deref] $rsp
	#DEBUG_VALUE: chacha20_encrypt_bytes:c <- [DW_OP_plus_uconst 48, DW_OP_deref] $rsp
	#DEBUG_VALUE: chacha20_encrypt_bytes:bytes <- [DW_OP_plus_uconst 136, DW_OP_deref] $rsp
	#DEBUG_VALUE: chacha20_encrypt_bytes:ctarget <- [DW_OP_plus_uconst 40, DW_OP_deref] $rsp
	#DEBUG_VALUE: chacha20_encrypt_bytes:j0 <- [DW_OP_plus_uconst 100, DW_OP_deref] $rsp
	#DEBUG_VALUE: chacha20_encrypt_bytes:j9 <- [DW_OP_plus_uconst 36, DW_OP_deref] $rsp
	#DEBUG_VALUE: chacha20_encrypt_bytes:j10 <- [DW_OP_plus_uconst 32, DW_OP_deref] $rsp
	#DEBUG_VALUE: chacha20_encrypt_bytes:j11 <- [DW_OP_plus_uconst 28, DW_OP_deref] $rsp
	#DEBUG_VALUE: chacha20_encrypt_bytes:j12 <- [DW_OP_plus_uconst 12, DW_OP_deref] $rsp
	#DEBUG_VALUE: chacha20_encrypt_bytes:j13 <- $r8d
	#DEBUG_VALUE: chacha20_encrypt_bytes:j14 <- [DW_OP_plus_uconst 24, DW_OP_deref] $rsp
	#DEBUG_VALUE: chacha20_encrypt_bytes:j15 <- [DW_OP_plus_uconst 20, DW_OP_deref] $rsp
	#DEBUG_VALUE: chacha20_encrypt_bytes:i <- 0
	#DEBUG_VALUE: chacha20_encrypt_bytes:x0 <- $r15d
	#DEBUG_VALUE: chacha20_encrypt_bytes:x9 <- $r11d
	#DEBUG_VALUE: chacha20_encrypt_bytes:x10 <- $r14d
	#DEBUG_VALUE: chacha20_encrypt_bytes:x14 <- $r12d
	#DEBUG_VALUE: chacha20_encrypt_bytes:x15 <- $ebx
	.loc	4 209 34 is_stmt 1              # crypto_stream/chacha20/ref/chacha20_ref.c:209:34
	movdqu	(%r10,%rdx), %xmm0
	movdqu	16(%r10,%rdx), %xmm1
	.loc	4 209 32 is_stmt 0              # crypto_stream/chacha20/ref/chacha20_ref.c:209:32
	movdqu	%xmm0, (%r9,%rdx)
	movdqu	%xmm1, 16(%r9,%rdx)
.Ltmp306:
	.loc	4 208 55 is_stmt 1              # crypto_stream/chacha20/ref/chacha20_ref.c:208:55
	addq	$32, %rdx
	cmpq	%rdx, %rax
	jne	.LBB4_34
.Ltmp307:
# %bb.35:                               # %middle.block421
	#DEBUG_VALUE: chacha20_encrypt_bytes:ctx <- [DW_OP_plus_uconst 120] [$rsp+0]
	#DEBUG_VALUE: chacha20_encrypt_bytes:m <- [DW_OP_plus_uconst 56, DW_OP_deref] $rsp
	#DEBUG_VALUE: chacha20_encrypt_bytes:c <- [DW_OP_plus_uconst 48, DW_OP_deref] $rsp
	#DEBUG_VALUE: chacha20_encrypt_bytes:bytes <- [DW_OP_plus_uconst 136, DW_OP_deref] $rsp
	#DEBUG_VALUE: chacha20_encrypt_bytes:ctarget <- [DW_OP_plus_uconst 40, DW_OP_deref] $rsp
	#DEBUG_VALUE: chacha20_encrypt_bytes:j0 <- [DW_OP_plus_uconst 100, DW_OP_deref] $rsp
	#DEBUG_VALUE: chacha20_encrypt_bytes:j9 <- [DW_OP_plus_uconst 36, DW_OP_deref] $rsp
	#DEBUG_VALUE: chacha20_encrypt_bytes:j10 <- [DW_OP_plus_uconst 32, DW_OP_deref] $rsp
	#DEBUG_VALUE: chacha20_encrypt_bytes:j11 <- [DW_OP_plus_uconst 28, DW_OP_deref] $rsp
	#DEBUG_VALUE: chacha20_encrypt_bytes:j12 <- [DW_OP_plus_uconst 12, DW_OP_deref] $rsp
	#DEBUG_VALUE: chacha20_encrypt_bytes:j13 <- $r8d
	#DEBUG_VALUE: chacha20_encrypt_bytes:j14 <- [DW_OP_plus_uconst 24, DW_OP_deref] $rsp
	#DEBUG_VALUE: chacha20_encrypt_bytes:j15 <- [DW_OP_plus_uconst 20, DW_OP_deref] $rsp
	#DEBUG_VALUE: chacha20_encrypt_bytes:i <- 0
	#DEBUG_VALUE: chacha20_encrypt_bytes:x0 <- $r15d
	#DEBUG_VALUE: chacha20_encrypt_bytes:x9 <- $r11d
	#DEBUG_VALUE: chacha20_encrypt_bytes:x10 <- $r14d
	#DEBUG_VALUE: chacha20_encrypt_bytes:x14 <- $r12d
	#DEBUG_VALUE: chacha20_encrypt_bytes:x15 <- $ebx
	.loc	4 208 17 is_stmt 0              # crypto_stream/chacha20/ref/chacha20_ref.c:208:17
	cmpq	%rax, %rsi
	je	.LBB4_41
.Ltmp308:
# %bb.36:                               # %vec.epilog.iter.check426
	#DEBUG_VALUE: chacha20_encrypt_bytes:ctx <- [DW_OP_plus_uconst 120] [$rsp+0]
	#DEBUG_VALUE: chacha20_encrypt_bytes:m <- [DW_OP_plus_uconst 56, DW_OP_deref] $rsp
	#DEBUG_VALUE: chacha20_encrypt_bytes:c <- [DW_OP_plus_uconst 48, DW_OP_deref] $rsp
	#DEBUG_VALUE: chacha20_encrypt_bytes:bytes <- [DW_OP_plus_uconst 136, DW_OP_deref] $rsp
	#DEBUG_VALUE: chacha20_encrypt_bytes:ctarget <- [DW_OP_plus_uconst 40, DW_OP_deref] $rsp
	#DEBUG_VALUE: chacha20_encrypt_bytes:j0 <- [DW_OP_plus_uconst 100, DW_OP_deref] $rsp
	#DEBUG_VALUE: chacha20_encrypt_bytes:j9 <- [DW_OP_plus_uconst 36, DW_OP_deref] $rsp
	#DEBUG_VALUE: chacha20_encrypt_bytes:j10 <- [DW_OP_plus_uconst 32, DW_OP_deref] $rsp
	#DEBUG_VALUE: chacha20_encrypt_bytes:j11 <- [DW_OP_plus_uconst 28, DW_OP_deref] $rsp
	#DEBUG_VALUE: chacha20_encrypt_bytes:j12 <- [DW_OP_plus_uconst 12, DW_OP_deref] $rsp
	#DEBUG_VALUE: chacha20_encrypt_bytes:j13 <- $r8d
	#DEBUG_VALUE: chacha20_encrypt_bytes:j14 <- [DW_OP_plus_uconst 24, DW_OP_deref] $rsp
	#DEBUG_VALUE: chacha20_encrypt_bytes:j15 <- [DW_OP_plus_uconst 20, DW_OP_deref] $rsp
	#DEBUG_VALUE: chacha20_encrypt_bytes:i <- 0
	#DEBUG_VALUE: chacha20_encrypt_bytes:x0 <- $r15d
	#DEBUG_VALUE: chacha20_encrypt_bytes:x9 <- $r11d
	#DEBUG_VALUE: chacha20_encrypt_bytes:x10 <- $r14d
	#DEBUG_VALUE: chacha20_encrypt_bytes:x14 <- $r12d
	#DEBUG_VALUE: chacha20_encrypt_bytes:x15 <- $ebx
	testb	$28, %cl
	je	.LBB4_40
.Ltmp309:
.LBB4_37:                               # %vec.epilog.ph425
	#DEBUG_VALUE: chacha20_encrypt_bytes:ctx <- [DW_OP_plus_uconst 120] [$rsp+0]
	#DEBUG_VALUE: chacha20_encrypt_bytes:m <- [DW_OP_plus_uconst 56, DW_OP_deref] $rsp
	#DEBUG_VALUE: chacha20_encrypt_bytes:c <- [DW_OP_plus_uconst 48, DW_OP_deref] $rsp
	#DEBUG_VALUE: chacha20_encrypt_bytes:bytes <- [DW_OP_plus_uconst 136, DW_OP_deref] $rsp
	#DEBUG_VALUE: chacha20_encrypt_bytes:ctarget <- [DW_OP_plus_uconst 40, DW_OP_deref] $rsp
	#DEBUG_VALUE: chacha20_encrypt_bytes:j0 <- [DW_OP_plus_uconst 100, DW_OP_deref] $rsp
	#DEBUG_VALUE: chacha20_encrypt_bytes:j9 <- [DW_OP_plus_uconst 36, DW_OP_deref] $rsp
	#DEBUG_VALUE: chacha20_encrypt_bytes:j10 <- [DW_OP_plus_uconst 32, DW_OP_deref] $rsp
	#DEBUG_VALUE: chacha20_encrypt_bytes:j11 <- [DW_OP_plus_uconst 28, DW_OP_deref] $rsp
	#DEBUG_VALUE: chacha20_encrypt_bytes:j12 <- [DW_OP_plus_uconst 12, DW_OP_deref] $rsp
	#DEBUG_VALUE: chacha20_encrypt_bytes:j13 <- $r8d
	#DEBUG_VALUE: chacha20_encrypt_bytes:j14 <- [DW_OP_plus_uconst 24, DW_OP_deref] $rsp
	#DEBUG_VALUE: chacha20_encrypt_bytes:j15 <- [DW_OP_plus_uconst 20, DW_OP_deref] $rsp
	#DEBUG_VALUE: chacha20_encrypt_bytes:i <- 0
	#DEBUG_VALUE: chacha20_encrypt_bytes:x0 <- $r15d
	#DEBUG_VALUE: chacha20_encrypt_bytes:x9 <- $r11d
	#DEBUG_VALUE: chacha20_encrypt_bytes:x10 <- $r14d
	#DEBUG_VALUE: chacha20_encrypt_bytes:x14 <- $r12d
	#DEBUG_VALUE: chacha20_encrypt_bytes:x15 <- $ebx
	andq	$-4, %rcx
.Ltmp310:
	.loc	4 0 17                          # :0:17
.Ltmp311:
	.p2align	4
.LBB4_38:                               # %vec.epilog.vector.body431
                                        # =>This Inner Loop Header: Depth=1
	#DEBUG_VALUE: chacha20_encrypt_bytes:ctx <- [DW_OP_plus_uconst 120] [$rsp+0]
	#DEBUG_VALUE: chacha20_encrypt_bytes:m <- [DW_OP_plus_uconst 56, DW_OP_deref] $rsp
	#DEBUG_VALUE: chacha20_encrypt_bytes:c <- [DW_OP_plus_uconst 48, DW_OP_deref] $rsp
	#DEBUG_VALUE: chacha20_encrypt_bytes:bytes <- [DW_OP_plus_uconst 136, DW_OP_deref] $rsp
	#DEBUG_VALUE: chacha20_encrypt_bytes:ctarget <- [DW_OP_plus_uconst 40, DW_OP_deref] $rsp
	#DEBUG_VALUE: chacha20_encrypt_bytes:j0 <- [DW_OP_plus_uconst 100, DW_OP_deref] $rsp
	#DEBUG_VALUE: chacha20_encrypt_bytes:j9 <- [DW_OP_plus_uconst 36, DW_OP_deref] $rsp
	#DEBUG_VALUE: chacha20_encrypt_bytes:j10 <- [DW_OP_plus_uconst 32, DW_OP_deref] $rsp
	#DEBUG_VALUE: chacha20_encrypt_bytes:j11 <- [DW_OP_plus_uconst 28, DW_OP_deref] $rsp
	#DEBUG_VALUE: chacha20_encrypt_bytes:j12 <- [DW_OP_plus_uconst 12, DW_OP_deref] $rsp
	#DEBUG_VALUE: chacha20_encrypt_bytes:j13 <- $r8d
	#DEBUG_VALUE: chacha20_encrypt_bytes:j14 <- [DW_OP_plus_uconst 24, DW_OP_deref] $rsp
	#DEBUG_VALUE: chacha20_encrypt_bytes:j15 <- [DW_OP_plus_uconst 20, DW_OP_deref] $rsp
	#DEBUG_VALUE: chacha20_encrypt_bytes:i <- 0
	#DEBUG_VALUE: chacha20_encrypt_bytes:x0 <- $r15d
	#DEBUG_VALUE: chacha20_encrypt_bytes:x9 <- $r11d
	#DEBUG_VALUE: chacha20_encrypt_bytes:x10 <- $r14d
	#DEBUG_VALUE: chacha20_encrypt_bytes:x14 <- $r12d
	#DEBUG_VALUE: chacha20_encrypt_bytes:x15 <- $ebx
	.loc	4 209 34 is_stmt 1              # crypto_stream/chacha20/ref/chacha20_ref.c:209:34
	movl	(%r10,%rax), %edx
	.loc	4 209 32 is_stmt 0              # crypto_stream/chacha20/ref/chacha20_ref.c:209:32
	movl	%edx, (%r9,%rax)
.Ltmp312:
	.loc	4 208 55 is_stmt 1              # crypto_stream/chacha20/ref/chacha20_ref.c:208:55
	addq	$4, %rax
	cmpq	%rax, %rcx
	jne	.LBB4_38
.Ltmp313:
# %bb.39:                               # %vec.epilog.middle.block435
	#DEBUG_VALUE: chacha20_encrypt_bytes:ctx <- [DW_OP_plus_uconst 120] [$rsp+0]
	#DEBUG_VALUE: chacha20_encrypt_bytes:m <- [DW_OP_plus_uconst 56, DW_OP_deref] $rsp
	#DEBUG_VALUE: chacha20_encrypt_bytes:c <- [DW_OP_plus_uconst 48, DW_OP_deref] $rsp
	#DEBUG_VALUE: chacha20_encrypt_bytes:bytes <- [DW_OP_plus_uconst 136, DW_OP_deref] $rsp
	#DEBUG_VALUE: chacha20_encrypt_bytes:ctarget <- [DW_OP_plus_uconst 40, DW_OP_deref] $rsp
	#DEBUG_VALUE: chacha20_encrypt_bytes:j0 <- [DW_OP_plus_uconst 100, DW_OP_deref] $rsp
	#DEBUG_VALUE: chacha20_encrypt_bytes:j9 <- [DW_OP_plus_uconst 36, DW_OP_deref] $rsp
	#DEBUG_VALUE: chacha20_encrypt_bytes:j10 <- [DW_OP_plus_uconst 32, DW_OP_deref] $rsp
	#DEBUG_VALUE: chacha20_encrypt_bytes:j11 <- [DW_OP_plus_uconst 28, DW_OP_deref] $rsp
	#DEBUG_VALUE: chacha20_encrypt_bytes:j12 <- [DW_OP_plus_uconst 12, DW_OP_deref] $rsp
	#DEBUG_VALUE: chacha20_encrypt_bytes:j13 <- $r8d
	#DEBUG_VALUE: chacha20_encrypt_bytes:j14 <- [DW_OP_plus_uconst 24, DW_OP_deref] $rsp
	#DEBUG_VALUE: chacha20_encrypt_bytes:j15 <- [DW_OP_plus_uconst 20, DW_OP_deref] $rsp
	#DEBUG_VALUE: chacha20_encrypt_bytes:i <- 0
	#DEBUG_VALUE: chacha20_encrypt_bytes:x0 <- $r15d
	#DEBUG_VALUE: chacha20_encrypt_bytes:x9 <- $r11d
	#DEBUG_VALUE: chacha20_encrypt_bytes:x10 <- $r14d
	#DEBUG_VALUE: chacha20_encrypt_bytes:x14 <- $r12d
	#DEBUG_VALUE: chacha20_encrypt_bytes:x15 <- $ebx
	.loc	4 0 55 is_stmt 0                # crypto_stream/chacha20/ref/chacha20_ref.c:0:55
	movq	%rcx, %rax
	.loc	4 208 17                        # crypto_stream/chacha20/ref/chacha20_ref.c:208:17
	cmpq	%rcx, %rsi
	je	.LBB4_41
.Ltmp314:
	.loc	4 0 17                          # :0:17
.Ltmp315:
	.p2align	4
.LBB4_40:                               # %.lr.ph335
                                        # =>This Inner Loop Header: Depth=1
	#DEBUG_VALUE: chacha20_encrypt_bytes:ctx <- [DW_OP_plus_uconst 120] [$rsp+0]
	#DEBUG_VALUE: chacha20_encrypt_bytes:m <- [DW_OP_plus_uconst 56, DW_OP_deref] $rsp
	#DEBUG_VALUE: chacha20_encrypt_bytes:c <- [DW_OP_plus_uconst 48, DW_OP_deref] $rsp
	#DEBUG_VALUE: chacha20_encrypt_bytes:bytes <- [DW_OP_plus_uconst 136, DW_OP_deref] $rsp
	#DEBUG_VALUE: chacha20_encrypt_bytes:ctarget <- [DW_OP_plus_uconst 40, DW_OP_deref] $rsp
	#DEBUG_VALUE: chacha20_encrypt_bytes:j0 <- [DW_OP_plus_uconst 100, DW_OP_deref] $rsp
	#DEBUG_VALUE: chacha20_encrypt_bytes:j9 <- [DW_OP_plus_uconst 36, DW_OP_deref] $rsp
	#DEBUG_VALUE: chacha20_encrypt_bytes:j10 <- [DW_OP_plus_uconst 32, DW_OP_deref] $rsp
	#DEBUG_VALUE: chacha20_encrypt_bytes:j11 <- [DW_OP_plus_uconst 28, DW_OP_deref] $rsp
	#DEBUG_VALUE: chacha20_encrypt_bytes:j12 <- [DW_OP_plus_uconst 12, DW_OP_deref] $rsp
	#DEBUG_VALUE: chacha20_encrypt_bytes:j13 <- $r8d
	#DEBUG_VALUE: chacha20_encrypt_bytes:j14 <- [DW_OP_plus_uconst 24, DW_OP_deref] $rsp
	#DEBUG_VALUE: chacha20_encrypt_bytes:j15 <- [DW_OP_plus_uconst 20, DW_OP_deref] $rsp
	#DEBUG_VALUE: chacha20_encrypt_bytes:x0 <- $r15d
	#DEBUG_VALUE: chacha20_encrypt_bytes:x9 <- $r11d
	#DEBUG_VALUE: chacha20_encrypt_bytes:x10 <- $r14d
	#DEBUG_VALUE: chacha20_encrypt_bytes:x14 <- $r12d
	#DEBUG_VALUE: chacha20_encrypt_bytes:x15 <- $ebx
	#DEBUG_VALUE: chacha20_encrypt_bytes:i <- $rax
	.loc	4 209 34 is_stmt 1              # crypto_stream/chacha20/ref/chacha20_ref.c:209:34
	movzbl	(%r10,%rax), %ecx
	.loc	4 209 32 is_stmt 0              # crypto_stream/chacha20/ref/chacha20_ref.c:209:32
	movb	%cl, (%r9,%rax)
.Ltmp316:
	.loc	4 208 55 is_stmt 1              # crypto_stream/chacha20/ref/chacha20_ref.c:208:55
	incq	%rax
.Ltmp317:
	#DEBUG_VALUE: chacha20_encrypt_bytes:i <- $rax
	.loc	4 208 31 is_stmt 0              # crypto_stream/chacha20/ref/chacha20_ref.c:208:31
	cmpq	%rdi, %rax
.Ltmp318:
	.loc	4 208 17                        # crypto_stream/chacha20/ref/chacha20_ref.c:208:17
	jb	.LBB4_40
.Ltmp319:
.LBB4_41:                               # %.loopexit
	#DEBUG_VALUE: chacha20_encrypt_bytes:ctx <- [DW_OP_plus_uconst 120] [$rsp+0]
	#DEBUG_VALUE: chacha20_encrypt_bytes:m <- [DW_OP_plus_uconst 56, DW_OP_deref] $rsp
	#DEBUG_VALUE: chacha20_encrypt_bytes:c <- [DW_OP_plus_uconst 48, DW_OP_deref] $rsp
	#DEBUG_VALUE: chacha20_encrypt_bytes:bytes <- [DW_OP_plus_uconst 136, DW_OP_deref] $rsp
	#DEBUG_VALUE: chacha20_encrypt_bytes:ctarget <- [DW_OP_plus_uconst 40, DW_OP_deref] $rsp
	#DEBUG_VALUE: chacha20_encrypt_bytes:j0 <- [DW_OP_plus_uconst 100, DW_OP_deref] $rsp
	#DEBUG_VALUE: chacha20_encrypt_bytes:j9 <- [DW_OP_plus_uconst 36, DW_OP_deref] $rsp
	#DEBUG_VALUE: chacha20_encrypt_bytes:j10 <- [DW_OP_plus_uconst 32, DW_OP_deref] $rsp
	#DEBUG_VALUE: chacha20_encrypt_bytes:j11 <- [DW_OP_plus_uconst 28, DW_OP_deref] $rsp
	#DEBUG_VALUE: chacha20_encrypt_bytes:j12 <- [DW_OP_plus_uconst 12, DW_OP_deref] $rsp
	#DEBUG_VALUE: chacha20_encrypt_bytes:j13 <- $r8d
	#DEBUG_VALUE: chacha20_encrypt_bytes:j14 <- [DW_OP_plus_uconst 24, DW_OP_deref] $rsp
	#DEBUG_VALUE: chacha20_encrypt_bytes:j15 <- [DW_OP_plus_uconst 20, DW_OP_deref] $rsp
	#DEBUG_VALUE: chacha20_encrypt_bytes:x0 <- $r15d
	#DEBUG_VALUE: chacha20_encrypt_bytes:x9 <- $r11d
	#DEBUG_VALUE: chacha20_encrypt_bytes:x10 <- $r14d
	#DEBUG_VALUE: chacha20_encrypt_bytes:x14 <- $r12d
	#DEBUG_VALUE: chacha20_encrypt_bytes:x15 <- $ebx
	.loc	4 0 17                          # crypto_stream/chacha20/ref/chacha20_ref.c:0:17
	movq	120(%rsp), %rax                 # 8-byte Reload
	movl	12(%rsp), %ecx                  # 4-byte Reload
	.loc	4 212 28 is_stmt 1              # crypto_stream/chacha20/ref/chacha20_ref.c:212:28
	movl	%ecx, 48(%rax)
	.loc	4 213 28                        # crypto_stream/chacha20/ref/chacha20_ref.c:213:28
	movl	%r8d, 52(%rax)
.Ltmp320:
	.loc	4 221 1                         # crypto_stream/chacha20/ref/chacha20_ref.c:221:1
	movq	%fs:40, %rax
	cmpq	208(%rsp), %rax
	jne	.LBB4_43
.Ltmp321:
# %bb.42:                               # %SP_return
	#DEBUG_VALUE: chacha20_encrypt_bytes:ctx <- [DW_OP_plus_uconst 120] [$rsp+0]
	#DEBUG_VALUE: chacha20_encrypt_bytes:m <- [DW_OP_plus_uconst 56, DW_OP_deref] $rsp
	#DEBUG_VALUE: chacha20_encrypt_bytes:c <- [DW_OP_plus_uconst 48, DW_OP_deref] $rsp
	#DEBUG_VALUE: chacha20_encrypt_bytes:bytes <- [DW_OP_plus_uconst 136, DW_OP_deref] $rsp
	#DEBUG_VALUE: chacha20_encrypt_bytes:ctarget <- [DW_OP_plus_uconst 40, DW_OP_deref] $rsp
	#DEBUG_VALUE: chacha20_encrypt_bytes:j0 <- [DW_OP_plus_uconst 100, DW_OP_deref] $rsp
	#DEBUG_VALUE: chacha20_encrypt_bytes:j9 <- [DW_OP_plus_uconst 36, DW_OP_deref] $rsp
	#DEBUG_VALUE: chacha20_encrypt_bytes:j10 <- [DW_OP_plus_uconst 32, DW_OP_deref] $rsp
	#DEBUG_VALUE: chacha20_encrypt_bytes:j11 <- [DW_OP_plus_uconst 28, DW_OP_deref] $rsp
	#DEBUG_VALUE: chacha20_encrypt_bytes:j12 <- [DW_OP_plus_uconst 12, DW_OP_deref] $rsp
	#DEBUG_VALUE: chacha20_encrypt_bytes:j13 <- $r8d
	#DEBUG_VALUE: chacha20_encrypt_bytes:j14 <- [DW_OP_plus_uconst 24, DW_OP_deref] $rsp
	#DEBUG_VALUE: chacha20_encrypt_bytes:j15 <- [DW_OP_plus_uconst 20, DW_OP_deref] $rsp
	#DEBUG_VALUE: chacha20_encrypt_bytes:x0 <- $r15d
	#DEBUG_VALUE: chacha20_encrypt_bytes:x9 <- $r11d
	#DEBUG_VALUE: chacha20_encrypt_bytes:x10 <- $r14d
	#DEBUG_VALUE: chacha20_encrypt_bytes:x14 <- $r12d
	#DEBUG_VALUE: chacha20_encrypt_bytes:x15 <- $ebx
	.loc	4 221 1 epilogue_begin is_stmt 0 # crypto_stream/chacha20/ref/chacha20_ref.c:221:1
	addq	$216, %rsp
	.cfi_def_cfa_offset 56
	popq	%rbx
.Ltmp322:
	.cfi_def_cfa_offset 48
	popq	%r12
.Ltmp323:
	.cfi_def_cfa_offset 40
	popq	%r13
	.cfi_def_cfa_offset 32
	popq	%r14
.Ltmp324:
	.cfi_def_cfa_offset 24
	popq	%r15
.Ltmp325:
	.cfi_def_cfa_offset 16
	popq	%rbp
	.cfi_def_cfa_offset 8
	retq
.Ltmp326:
.LBB4_43:                               # %CallStackCheckFailBlk
	.cfi_def_cfa_offset 272
	#DEBUG_VALUE: chacha20_encrypt_bytes:ctx <- [DW_OP_plus_uconst 120] [$rsp+0]
	#DEBUG_VALUE: chacha20_encrypt_bytes:m <- [DW_OP_plus_uconst 56, DW_OP_deref] $rsp
	#DEBUG_VALUE: chacha20_encrypt_bytes:c <- [DW_OP_plus_uconst 48, DW_OP_deref] $rsp
	#DEBUG_VALUE: chacha20_encrypt_bytes:bytes <- [DW_OP_plus_uconst 136, DW_OP_deref] $rsp
	#DEBUG_VALUE: chacha20_encrypt_bytes:ctarget <- [DW_OP_plus_uconst 40, DW_OP_deref] $rsp
	#DEBUG_VALUE: chacha20_encrypt_bytes:j0 <- [DW_OP_plus_uconst 100, DW_OP_deref] $rsp
	#DEBUG_VALUE: chacha20_encrypt_bytes:j9 <- [DW_OP_plus_uconst 36, DW_OP_deref] $rsp
	#DEBUG_VALUE: chacha20_encrypt_bytes:j10 <- [DW_OP_plus_uconst 32, DW_OP_deref] $rsp
	#DEBUG_VALUE: chacha20_encrypt_bytes:j11 <- [DW_OP_plus_uconst 28, DW_OP_deref] $rsp
	#DEBUG_VALUE: chacha20_encrypt_bytes:j12 <- [DW_OP_plus_uconst 12, DW_OP_deref] $rsp
	#DEBUG_VALUE: chacha20_encrypt_bytes:j13 <- $r8d
	#DEBUG_VALUE: chacha20_encrypt_bytes:j14 <- [DW_OP_plus_uconst 24, DW_OP_deref] $rsp
	#DEBUG_VALUE: chacha20_encrypt_bytes:j15 <- [DW_OP_plus_uconst 20, DW_OP_deref] $rsp
	#DEBUG_VALUE: chacha20_encrypt_bytes:x0 <- $r15d
	#DEBUG_VALUE: chacha20_encrypt_bytes:x9 <- $r11d
	#DEBUG_VALUE: chacha20_encrypt_bytes:x10 <- $r14d
	#DEBUG_VALUE: chacha20_encrypt_bytes:x14 <- $r12d
	#DEBUG_VALUE: chacha20_encrypt_bytes:x15 <- $ebx
	.loc	4 0 0                           # crypto_stream/chacha20/ref/chacha20_ref.c:0
	callq	__stack_chk_fail@PLT
.Ltmp327:
.Lfunc_end4:
	.size	chacha20_encrypt_bytes, .Lfunc_end4-chacha20_encrypt_bytes
	.cfi_endproc
                                        # -- End function
	.hidden	crypto_stream_chacha20_ref_implementation # @crypto_stream_chacha20_ref_implementation
	.type	crypto_stream_chacha20_ref_implementation,@object
	.data
	.globl	crypto_stream_chacha20_ref_implementation
	.p2align	3, 0x0
crypto_stream_chacha20_ref_implementation:
	.quad	stream_ref
	.quad	stream_ietf_ext_ref
	.quad	stream_ref_xor_ic
	.quad	stream_ietf_ext_ref_xor_ic
	.size	crypto_stream_chacha20_ref_implementation, 32

	.section	".note.GNU-stack","",@progbits
	.addrsig
	.addrsig_sym stream_ref
	.addrsig_sym stream_ietf_ext_ref
	.addrsig_sym stream_ref_xor_ic
	.addrsig_sym stream_ietf_ext_ref_xor_ic
	.addrsig_sym __stack_chk_fail