	.file	"chacha20_dolbeau-ssse3.c"
	.file	0 "/home/leizhenyuu/opt/Anonymous_Repo/libsodium_o2_attr_inline/src/libsodium" "chacha20_dolbeau-ssse3.c" md5 0xa2e1533be49a19351d81615602cc1819
	.file	1 "crypto_stream/chacha20/dolbeau/.." "stream_chacha20.h"
	.file	2 "/usr/include/x86_64-linux-gnu/bits" "types.h"
	.file	3 "/usr/include/x86_64-linux-gnu/bits" "stdint-uintn.h"
	.file	4 "crypto_stream/chacha20/dolbeau" "chacha20_dolbeau-ssse3.c"
	.file	5 "/home/leizhenyuu/opt/Anonymous_Repo" "llvm-project/build/lib/clang/21/include/emmintrin.h"
	.file	6 "/home/leizhenyuu/opt/Anonymous_Repo" "llvm-project/build/lib/clang/21/include/xmmintrin.h"
	.section	.rodata.cst16,"aM",@progbits,16
	.p2align	4, 0x0                          # -- Begin function stream_ref
.LCPI0_0:
	.long	1634760805                      # 0x61707865
	.long	857760878                       # 0x3320646e
	.long	2036477234                      # 0x79622d32
	.long	1797285236                      # 0x6b206574
	.text
	.p2align	4
	.type	stream_ref,@function
stream_ref:                             # @stream_ref
.Lfunc_begin0:
	.cfi_startproc
# %bb.0:
	#DEBUG_VALUE: stream_ref:c <- $rdi
	#DEBUG_VALUE: stream_ref:clen <- $rsi
	#DEBUG_VALUE: stream_ref:n <- $rdx
	#DEBUG_VALUE: stream_ref:k <- $rcx
	#DEBUG_VALUE: stream_ref:ctx <- [DW_OP_deref] $rsp
	.loc	4 87 10 prologue_end            # crypto_stream/chacha20/dolbeau/chacha20_dolbeau-ssse3.c:87:10
	testq	%rsi, %rsi
	.loc	4 87 9 is_stmt 0                # crypto_stream/chacha20/dolbeau/chacha20_dolbeau-ssse3.c:87:9
	je	.LBB0_2
.Ltmp0:
# %bb.1:
	#DEBUG_VALUE: stream_ref:c <- $rdi
	#DEBUG_VALUE: stream_ref:clen <- $rsi
	#DEBUG_VALUE: stream_ref:n <- $rdx
	#DEBUG_VALUE: stream_ref:k <- $rcx
	#DEBUG_VALUE: stream_ref:ctx <- [DW_OP_deref] $rsp
	pushq	%r15
	.cfi_def_cfa_offset 16
	pushq	%r14
	.cfi_def_cfa_offset 24
	pushq	%rbx
	.cfi_def_cfa_offset 32
	subq	$64, %rsp
	.cfi_def_cfa_offset 96
	.cfi_offset %rbx, -32
	.cfi_offset %r14, -24
	.cfi_offset %r15, -16
	movq	%rsi, %rbx
.Ltmp1:
	#DEBUG_VALUE: chacha_keysetup:ctx <- $rsp
	#DEBUG_VALUE: chacha_keysetup:k <- $rcx
	#DEBUG_VALUE: stream_ref:ctx <- [DW_OP_LLVM_fragment 0 32] 1634760805
	#DEBUG_VALUE: stream_ref:ctx <- [DW_OP_LLVM_fragment 32 32] 857760878
	#DEBUG_VALUE: stream_ref:ctx <- [DW_OP_LLVM_fragment 64 32] 2036477234
	#DEBUG_VALUE: stream_ref:ctx <- [DW_OP_plus_uconst 12, DW_OP_deref, DW_OP_LLVM_fragment 96 416] $rsp
	.loc	4 35 19 is_stmt 1               # crypto_stream/chacha20/dolbeau/chacha20_dolbeau-ssse3.c:35:19 @[ crypto_stream/chacha20/dolbeau/chacha20_dolbeau-ssse3.c:91:5 ]
	movaps	.LCPI0_0(%rip), %xmm0           # xmm0 = [1634760805,857760878,2036477234,1797285236]
	movaps	%xmm0, (%rsp)
.Ltmp2:
	#DEBUG_VALUE: stream_ref:ctx <- [DW_OP_plus_uconst 8, DW_OP_deref, DW_OP_LLVM_fragment 64 448] $rsp
	#DEBUG_VALUE: load32_le:w <- undef
	#DEBUG_VALUE: load32_le:src <- $rcx
	#DEBUG_VALUE: memcpy:__dest <- undef
	#DEBUG_VALUE: memcpy:__src <- $rcx
	#DEBUG_VALUE: memcpy:__len <- 4
	#DEBUG_VALUE: stream_ref:ctx <- [DW_OP_LLVM_fragment 128 32] undef
	#DEBUG_VALUE: stream_ref:ctx <- [DW_OP_plus_uconst 8, DW_OP_deref, DW_OP_LLVM_fragment 64 64] $rsp
	#DEBUG_VALUE: load32_le:w <- undef
	#DEBUG_VALUE: memcpy:__dest <- undef
	#DEBUG_VALUE: memcpy:__len <- 4
	#DEBUG_VALUE: stream_ref:ctx <- [DW_OP_LLVM_fragment 160 32] undef
	#DEBUG_VALUE: load32_le:w <- undef
	#DEBUG_VALUE: memcpy:__dest <- undef
	#DEBUG_VALUE: memcpy:__len <- 4
	#DEBUG_VALUE: stream_ref:ctx <- [DW_OP_LLVM_fragment 192 32] undef
	#DEBUG_VALUE: stream_ref:ctx <- [DW_OP_plus_uconst 28, DW_OP_deref, DW_OP_LLVM_fragment 224 288] $rsp
	#DEBUG_VALUE: load32_le:w <- undef
	#DEBUG_VALUE: memcpy:__dest <- undef
	#DEBUG_VALUE: memcpy:__len <- 4
	.file	7 "/usr/include/x86_64-linux-gnu/bits" "string_fortified.h"
	.loc	7 29 10                         # /usr/include/x86_64-linux-gnu/bits/string_fortified.h:29:10 @[ ./include/sodium/private/common.h:106:5 @[ crypto_stream/chacha20/dolbeau/chacha20_dolbeau-ssse3.c:39:21 @[ crypto_stream/chacha20/dolbeau/chacha20_dolbeau-ssse3.c:91:5 ] ] ]
	movups	(%rcx), %xmm0
.Ltmp3:
	.loc	4 39 19                         # crypto_stream/chacha20/dolbeau/chacha20_dolbeau-ssse3.c:39:19 @[ crypto_stream/chacha20/dolbeau/chacha20_dolbeau-ssse3.c:91:5 ]
	movaps	%xmm0, 16(%rsp)
.Ltmp4:
	#DEBUG_VALUE: stream_ref:ctx <- [DW_OP_plus_uconst 24, DW_OP_deref, DW_OP_LLVM_fragment 192 320] $rsp
	#DEBUG_VALUE: load32_le:w <- undef
	#DEBUG_VALUE: memcpy:__dest <- undef
	#DEBUG_VALUE: memcpy:__len <- 4
	#DEBUG_VALUE: load32_le:src <- [DW_OP_plus_uconst 16, DW_OP_stack_value] $rcx
	#DEBUG_VALUE: memcpy:__src <- [DW_OP_plus_uconst 16, DW_OP_stack_value] $rcx
	#DEBUG_VALUE: stream_ref:ctx <- [DW_OP_LLVM_fragment 256 32] undef
	#DEBUG_VALUE: stream_ref:ctx <- [DW_OP_plus_uconst 24, DW_OP_deref, DW_OP_LLVM_fragment 192 64] $rsp
	#DEBUG_VALUE: load32_le:w <- undef
	#DEBUG_VALUE: memcpy:__dest <- undef
	#DEBUG_VALUE: memcpy:__len <- 4
	#DEBUG_VALUE: stream_ref:ctx <- [DW_OP_LLVM_fragment 288 32] undef
	#DEBUG_VALUE: load32_le:w <- undef
	#DEBUG_VALUE: memcpy:__dest <- undef
	#DEBUG_VALUE: memcpy:__len <- 4
	#DEBUG_VALUE: stream_ref:ctx <- [DW_OP_LLVM_fragment 320 32] undef
	#DEBUG_VALUE: stream_ref:ctx <- [DW_OP_plus_uconst 44, DW_OP_deref, DW_OP_LLVM_fragment 352 160] $rsp
	#DEBUG_VALUE: load32_le:w <- undef
	#DEBUG_VALUE: memcpy:__dest <- undef
	#DEBUG_VALUE: memcpy:__len <- 4
	.loc	7 29 10                         # /usr/include/x86_64-linux-gnu/bits/string_fortified.h:29:10 @[ ./include/sodium/private/common.h:106:5 @[ crypto_stream/chacha20/dolbeau/chacha20_dolbeau-ssse3.c:43:21 @[ crypto_stream/chacha20/dolbeau/chacha20_dolbeau-ssse3.c:91:5 ] ] ]
	movups	16(%rcx), %xmm0
.Ltmp5:
	.loc	4 43 19                         # crypto_stream/chacha20/dolbeau/chacha20_dolbeau-ssse3.c:43:19 @[ crypto_stream/chacha20/dolbeau/chacha20_dolbeau-ssse3.c:91:5 ]
	movaps	%xmm0, 32(%rsp)
.Ltmp6:
	#DEBUG_VALUE: stream_ref:ctx <- [DW_OP_plus_uconst 40, DW_OP_deref, DW_OP_LLVM_fragment 320 192] $rsp
	#DEBUG_VALUE: chacha_ivsetup:ctx <- $rsp
	#DEBUG_VALUE: chacha_ivsetup:iv <- $rdx
	#DEBUG_VALUE: chacha_ivsetup:counter <- 0
	.loc	4 52 20                         # crypto_stream/chacha20/dolbeau/chacha20_dolbeau-ssse3.c:52:20 @[ crypto_stream/chacha20/dolbeau/chacha20_dolbeau-ssse3.c:92:5 ]
	movq	$0, 48(%rsp)
.Ltmp7:
	#DEBUG_VALUE: load32_le:w <- undef
	#DEBUG_VALUE: load32_le:src <- $rdx
	#DEBUG_VALUE: memcpy:__dest <- undef
	#DEBUG_VALUE: memcpy:__src <- $rdx
	#DEBUG_VALUE: memcpy:__len <- 4
	#DEBUG_VALUE: stream_ref:ctx <- [DW_OP_LLVM_fragment 448 32] undef
	#DEBUG_VALUE: stream_ref:ctx <- [DW_OP_plus_uconst 40, DW_OP_deref, DW_OP_LLVM_fragment 320 128] $rsp
	#DEBUG_VALUE: stream_ref:ctx <- [DW_OP_plus_uconst 60, DW_OP_deref, DW_OP_LLVM_fragment 480 32] $rsp
	#DEBUG_VALUE: load32_le:w <- undef
	#DEBUG_VALUE: memcpy:__dest <- undef
	#DEBUG_VALUE: memcpy:__len <- 4
	.loc	7 29 10                         # /usr/include/x86_64-linux-gnu/bits/string_fortified.h:29:10 @[ ./include/sodium/private/common.h:106:5 @[ crypto_stream/chacha20/dolbeau/chacha20_dolbeau-ssse3.c:54:22 @[ crypto_stream/chacha20/dolbeau/chacha20_dolbeau-ssse3.c:92:5 ] ] ]
	movq	(%rdx), %rax
.Ltmp8:
	.loc	4 54 20                         # crypto_stream/chacha20/dolbeau/chacha20_dolbeau-ssse3.c:54:20 @[ crypto_stream/chacha20/dolbeau/chacha20_dolbeau-ssse3.c:92:5 ]
	movq	%rax, 56(%rsp)
.Ltmp9:
	#DEBUG_VALUE: stream_ref:ctx <- [DW_OP_plus_uconst 40, DW_OP_deref, DW_OP_LLVM_fragment 320 192] $rsp
	#DEBUG_VALUE: memset:__dest <- $rdi
	#DEBUG_VALUE: memset:__ch <- 0
	#DEBUG_VALUE: memset:__len <- $rbx
	.loc	4 0 20 is_stmt 0                # crypto_stream/chacha20/dolbeau/chacha20_dolbeau-ssse3.c:0:20
	movq	%rdi, %r14
.Ltmp10:
	.loc	7 59 10 is_stmt 1               # /usr/include/x86_64-linux-gnu/bits/string_fortified.h:59:10 @[ crypto_stream/chacha20/dolbeau/chacha20_dolbeau-ssse3.c:93:5 ]
	xorl	%esi, %esi
.Ltmp11:
	#DEBUG_VALUE: stream_ref:clen <- $rbx
	movq	%rbx, %rdx
.Ltmp12:
	#DEBUG_VALUE: stream_ref:n <- [DW_OP_LLVM_entry_value 1] $rdx
	callq	memset@PLT
.Ltmp13:
	#DEBUG_VALUE: stream_ref:k <- [DW_OP_LLVM_entry_value 1] $rcx
	#DEBUG_VALUE: memset:__dest <- $r14
	#DEBUG_VALUE: stream_ref:c <- $r14
	.loc	7 0 10 is_stmt 0                # /usr/include/x86_64-linux-gnu/bits/string_fortified.h:0:10
	movq	%rsp, %r15
.Ltmp14:
	.loc	4 94 5 is_stmt 1                # crypto_stream/chacha20/dolbeau/chacha20_dolbeau-ssse3.c:94:5
	movq	%r15, %rdi
	movq	%r14, %rsi
	movq	%r14, %rdx
	movq	%rbx, %rcx
	callq	chacha20_encrypt_bytes
.Ltmp15:
	.loc	4 95 5                          # crypto_stream/chacha20/dolbeau/chacha20_dolbeau-ssse3.c:95:5
	movl	$64, %esi
	movq	%r15, %rdi
	callq	sodium_memzero@PLT
.Ltmp16:
	.loc	4 0 5 is_stmt 0                 # crypto_stream/chacha20/dolbeau/chacha20_dolbeau-ssse3.c:0:5
	addq	$64, %rsp
.Ltmp17:
	#DEBUG_VALUE: chacha_ivsetup:ctx <- $r15
	#DEBUG_VALUE: chacha_keysetup:ctx <- $r15
	#DEBUG_VALUE: stream_ref:ctx <- [DW_OP_plus_uconst 60, DW_OP_deref, DW_OP_LLVM_fragment 480 32] $r15
	#DEBUG_VALUE: stream_ref:ctx <- [DW_OP_plus_uconst 40, DW_OP_deref, DW_OP_LLVM_fragment 320 128] $r15
	#DEBUG_VALUE: stream_ref:ctx <- [DW_OP_plus_uconst 40, DW_OP_deref, DW_OP_LLVM_fragment 320 192] $r15
	#DEBUG_VALUE: stream_ref:ctx <- [DW_OP_plus_uconst 44, DW_OP_deref, DW_OP_LLVM_fragment 352 160] $r15
	#DEBUG_VALUE: stream_ref:ctx <- [DW_OP_plus_uconst 24, DW_OP_deref, DW_OP_LLVM_fragment 192 64] $r15
	#DEBUG_VALUE: stream_ref:ctx <- [DW_OP_plus_uconst 24, DW_OP_deref, DW_OP_LLVM_fragment 192 320] $r15
	#DEBUG_VALUE: stream_ref:ctx <- [DW_OP_plus_uconst 28, DW_OP_deref, DW_OP_LLVM_fragment 224 288] $r15
	#DEBUG_VALUE: stream_ref:ctx <- [DW_OP_plus_uconst 8, DW_OP_deref, DW_OP_LLVM_fragment 64 64] $r15
	#DEBUG_VALUE: stream_ref:ctx <- [DW_OP_plus_uconst 8, DW_OP_deref, DW_OP_LLVM_fragment 64 448] $r15
	#DEBUG_VALUE: stream_ref:ctx <- [DW_OP_plus_uconst 12, DW_OP_deref, DW_OP_LLVM_fragment 96 416] $r15
	.cfi_def_cfa_offset 32
	popq	%rbx
.Ltmp18:
	#DEBUG_VALUE: stream_ref:clen <- [DW_OP_LLVM_entry_value 1] $rsi
	.cfi_def_cfa_offset 24
	popq	%r14
.Ltmp19:
	#DEBUG_VALUE: stream_ref:c <- [DW_OP_LLVM_entry_value 1] $rdi
	.cfi_def_cfa_offset 16
	popq	%r15
.Ltmp20:
	.cfi_def_cfa_offset 8
	.cfi_restore %rbx
	.cfi_restore %r14
	.cfi_restore %r15
.LBB0_2:
	#DEBUG_VALUE: stream_ref:c <- [DW_OP_LLVM_entry_value 1] $rdi
	#DEBUG_VALUE: stream_ref:clen <- [DW_OP_LLVM_entry_value 1] $rsi
	#DEBUG_VALUE: stream_ref:n <- [DW_OP_LLVM_entry_value 1] $rdx
	#DEBUG_VALUE: stream_ref:k <- [DW_OP_LLVM_entry_value 1] $rcx
	.loc	4 98 1 is_stmt 1                # crypto_stream/chacha20/dolbeau/chacha20_dolbeau-ssse3.c:98:1
	xorl	%eax, %eax
	retq
.Ltmp21:
.Lfunc_end0:
	.size	stream_ref, .Lfunc_end0-stream_ref
	.cfi_endproc
	.file	8 "/home/leizhenyuu/opt/Anonymous_Repo" "llvm-project/build/lib/clang/21/include/__stddef_size_t.h"
	.file	9 "./include/sodium/private" "common.h"
	.file	10 "./include/sodium" "utils.h"
                                        # -- End function
	.section	.rodata.cst16,"aM",@progbits,16
	.p2align	4, 0x0                          # -- Begin function stream_ietf_ext_ref
.LCPI1_0:
	.long	1634760805                      # 0x61707865
	.long	857760878                       # 0x3320646e
	.long	2036477234                      # 0x79622d32
	.long	1797285236                      # 0x6b206574
	.text
	.p2align	4
	.type	stream_ietf_ext_ref,@function
stream_ietf_ext_ref:                    # @stream_ietf_ext_ref
.Lfunc_begin1:
	.cfi_startproc
# %bb.0:
	#DEBUG_VALUE: stream_ietf_ext_ref:c <- $rdi
	#DEBUG_VALUE: stream_ietf_ext_ref:clen <- $rsi
	#DEBUG_VALUE: stream_ietf_ext_ref:n <- $rdx
	#DEBUG_VALUE: stream_ietf_ext_ref:k <- $rcx
	#DEBUG_VALUE: stream_ietf_ext_ref:ctx <- [DW_OP_deref] $rsp
	.loc	4 106 10 prologue_end           # crypto_stream/chacha20/dolbeau/chacha20_dolbeau-ssse3.c:106:10
	testq	%rsi, %rsi
	.loc	4 106 9 is_stmt 0               # crypto_stream/chacha20/dolbeau/chacha20_dolbeau-ssse3.c:106:9
	je	.LBB1_2
.Ltmp22:
# %bb.1:
	#DEBUG_VALUE: stream_ietf_ext_ref:c <- $rdi
	#DEBUG_VALUE: stream_ietf_ext_ref:clen <- $rsi
	#DEBUG_VALUE: stream_ietf_ext_ref:n <- $rdx
	#DEBUG_VALUE: stream_ietf_ext_ref:k <- $rcx
	#DEBUG_VALUE: stream_ietf_ext_ref:ctx <- [DW_OP_deref] $rsp
	pushq	%r15
	.cfi_def_cfa_offset 16
	pushq	%r14
	.cfi_def_cfa_offset 24
	pushq	%rbx
	.cfi_def_cfa_offset 32
	subq	$64, %rsp
	.cfi_def_cfa_offset 96
	.cfi_offset %rbx, -32
	.cfi_offset %r14, -24
	.cfi_offset %r15, -16
	movq	%rsi, %rbx
.Ltmp23:
	#DEBUG_VALUE: chacha_keysetup:ctx <- $rsp
	#DEBUG_VALUE: chacha_keysetup:k <- $rcx
	#DEBUG_VALUE: stream_ietf_ext_ref:ctx <- [DW_OP_LLVM_fragment 0 32] 1634760805
	#DEBUG_VALUE: stream_ietf_ext_ref:ctx <- [DW_OP_LLVM_fragment 32 32] 857760878
	#DEBUG_VALUE: stream_ietf_ext_ref:ctx <- [DW_OP_LLVM_fragment 64 32] 2036477234
	#DEBUG_VALUE: stream_ietf_ext_ref:ctx <- [DW_OP_plus_uconst 12, DW_OP_deref, DW_OP_LLVM_fragment 96 416] $rsp
	.loc	4 35 19 is_stmt 1               # crypto_stream/chacha20/dolbeau/chacha20_dolbeau-ssse3.c:35:19 @[ crypto_stream/chacha20/dolbeau/chacha20_dolbeau-ssse3.c:110:5 ]
	movaps	.LCPI1_0(%rip), %xmm0           # xmm0 = [1634760805,857760878,2036477234,1797285236]
	movaps	%xmm0, (%rsp)
.Ltmp24:
	#DEBUG_VALUE: stream_ietf_ext_ref:ctx <- [DW_OP_plus_uconst 8, DW_OP_deref, DW_OP_LLVM_fragment 64 448] $rsp
	#DEBUG_VALUE: load32_le:w <- undef
	#DEBUG_VALUE: load32_le:src <- $rcx
	#DEBUG_VALUE: memcpy:__dest <- undef
	#DEBUG_VALUE: memcpy:__src <- $rcx
	#DEBUG_VALUE: memcpy:__len <- 4
	#DEBUG_VALUE: stream_ietf_ext_ref:ctx <- [DW_OP_LLVM_fragment 128 32] undef
	#DEBUG_VALUE: stream_ietf_ext_ref:ctx <- [DW_OP_plus_uconst 8, DW_OP_deref, DW_OP_LLVM_fragment 64 64] $rsp
	#DEBUG_VALUE: load32_le:w <- undef
	#DEBUG_VALUE: memcpy:__dest <- undef
	#DEBUG_VALUE: memcpy:__len <- 4
	#DEBUG_VALUE: stream_ietf_ext_ref:ctx <- [DW_OP_LLVM_fragment 160 32] undef
	#DEBUG_VALUE: load32_le:w <- undef
	#DEBUG_VALUE: memcpy:__dest <- undef
	#DEBUG_VALUE: memcpy:__len <- 4
	#DEBUG_VALUE: stream_ietf_ext_ref:ctx <- [DW_OP_LLVM_fragment 192 32] undef
	#DEBUG_VALUE: stream_ietf_ext_ref:ctx <- [DW_OP_plus_uconst 28, DW_OP_deref, DW_OP_LLVM_fragment 224 288] $rsp
	#DEBUG_VALUE: load32_le:w <- undef
	#DEBUG_VALUE: memcpy:__dest <- undef
	#DEBUG_VALUE: memcpy:__len <- 4
	.loc	7 29 10                         # /usr/include/x86_64-linux-gnu/bits/string_fortified.h:29:10 @[ ./include/sodium/private/common.h:106:5 @[ crypto_stream/chacha20/dolbeau/chacha20_dolbeau-ssse3.c:39:21 @[ crypto_stream/chacha20/dolbeau/chacha20_dolbeau-ssse3.c:110:5 ] ] ]
	movups	(%rcx), %xmm0
.Ltmp25:
	.loc	4 39 19                         # crypto_stream/chacha20/dolbeau/chacha20_dolbeau-ssse3.c:39:19 @[ crypto_stream/chacha20/dolbeau/chacha20_dolbeau-ssse3.c:110:5 ]
	movaps	%xmm0, 16(%rsp)
.Ltmp26:
	#DEBUG_VALUE: stream_ietf_ext_ref:ctx <- [DW_OP_plus_uconst 24, DW_OP_deref, DW_OP_LLVM_fragment 192 320] $rsp
	#DEBUG_VALUE: load32_le:w <- undef
	#DEBUG_VALUE: memcpy:__dest <- undef
	#DEBUG_VALUE: memcpy:__len <- 4
	#DEBUG_VALUE: load32_le:src <- [DW_OP_plus_uconst 16, DW_OP_stack_value] $rcx
	#DEBUG_VALUE: memcpy:__src <- [DW_OP_plus_uconst 16, DW_OP_stack_value] $rcx
	#DEBUG_VALUE: stream_ietf_ext_ref:ctx <- [DW_OP_LLVM_fragment 256 32] undef
	#DEBUG_VALUE: stream_ietf_ext_ref:ctx <- [DW_OP_plus_uconst 24, DW_OP_deref, DW_OP_LLVM_fragment 192 64] $rsp
	#DEBUG_VALUE: load32_le:w <- undef
	#DEBUG_VALUE: memcpy:__dest <- undef
	#DEBUG_VALUE: memcpy:__len <- 4
	#DEBUG_VALUE: stream_ietf_ext_ref:ctx <- [DW_OP_LLVM_fragment 288 32] undef
	#DEBUG_VALUE: load32_le:w <- undef
	#DEBUG_VALUE: memcpy:__dest <- undef
	#DEBUG_VALUE: memcpy:__len <- 4
	#DEBUG_VALUE: stream_ietf_ext_ref:ctx <- [DW_OP_LLVM_fragment 320 32] undef
	#DEBUG_VALUE: stream_ietf_ext_ref:ctx <- [DW_OP_plus_uconst 44, DW_OP_deref, DW_OP_LLVM_fragment 352 160] $rsp
	#DEBUG_VALUE: load32_le:w <- undef
	#DEBUG_VALUE: memcpy:__dest <- undef
	#DEBUG_VALUE: memcpy:__len <- 4
	.loc	7 29 10                         # /usr/include/x86_64-linux-gnu/bits/string_fortified.h:29:10 @[ ./include/sodium/private/common.h:106:5 @[ crypto_stream/chacha20/dolbeau/chacha20_dolbeau-ssse3.c:43:21 @[ crypto_stream/chacha20/dolbeau/chacha20_dolbeau-ssse3.c:110:5 ] ] ]
	movups	16(%rcx), %xmm0
.Ltmp27:
	.loc	4 43 19                         # crypto_stream/chacha20/dolbeau/chacha20_dolbeau-ssse3.c:43:19 @[ crypto_stream/chacha20/dolbeau/chacha20_dolbeau-ssse3.c:110:5 ]
	movaps	%xmm0, 32(%rsp)
.Ltmp28:
	#DEBUG_VALUE: stream_ietf_ext_ref:ctx <- [DW_OP_plus_uconst 40, DW_OP_deref, DW_OP_LLVM_fragment 320 192] $rsp
	#DEBUG_VALUE: chacha_ietf_ivsetup:ctx <- $rsp
	#DEBUG_VALUE: chacha_ietf_ivsetup:iv <- $rdx
	#DEBUG_VALUE: chacha_ietf_ivsetup:counter <- 0
	.loc	4 61 20                         # crypto_stream/chacha20/dolbeau/chacha20_dolbeau-ssse3.c:61:20 @[ crypto_stream/chacha20/dolbeau/chacha20_dolbeau-ssse3.c:111:5 ]
	movl	$0, 48(%rsp)
.Ltmp29:
	#DEBUG_VALUE: load32_le:w <- undef
	#DEBUG_VALUE: load32_le:src <- $rdx
	#DEBUG_VALUE: memcpy:__dest <- undef
	#DEBUG_VALUE: memcpy:__src <- $rdx
	#DEBUG_VALUE: memcpy:__len <- 4
	#DEBUG_VALUE: stream_ietf_ext_ref:ctx <- [DW_OP_LLVM_fragment 416 32] undef
	#DEBUG_VALUE: stream_ietf_ext_ref:ctx <- [DW_OP_plus_uconst 40, DW_OP_deref, DW_OP_LLVM_fragment 320 96] $rsp
	#DEBUG_VALUE: stream_ietf_ext_ref:ctx <- [DW_OP_plus_uconst 56, DW_OP_deref, DW_OP_LLVM_fragment 448 64] $rsp
	#DEBUG_VALUE: load32_le:w <- undef
	#DEBUG_VALUE: memcpy:__dest <- undef
	#DEBUG_VALUE: memcpy:__len <- 4
	.loc	7 29 10                         # /usr/include/x86_64-linux-gnu/bits/string_fortified.h:29:10 @[ ./include/sodium/private/common.h:106:5 @[ crypto_stream/chacha20/dolbeau/chacha20_dolbeau-ssse3.c:62:22 @[ crypto_stream/chacha20/dolbeau/chacha20_dolbeau-ssse3.c:111:5 ] ] ]
	movq	(%rdx), %rax
.Ltmp30:
	.loc	4 62 20                         # crypto_stream/chacha20/dolbeau/chacha20_dolbeau-ssse3.c:62:20 @[ crypto_stream/chacha20/dolbeau/chacha20_dolbeau-ssse3.c:111:5 ]
	movq	%rax, 52(%rsp)
.Ltmp31:
	#DEBUG_VALUE: stream_ietf_ext_ref:ctx <- [DW_OP_plus_uconst 40, DW_OP_deref, DW_OP_LLVM_fragment 320 192] $rsp
	#DEBUG_VALUE: load32_le:w <- undef
	#DEBUG_VALUE: memcpy:__dest <- undef
	#DEBUG_VALUE: memcpy:__len <- 4
	#DEBUG_VALUE: load32_le:src <- [DW_OP_plus_uconst 8, DW_OP_stack_value] $rdx
	#DEBUG_VALUE: memcpy:__src <- [DW_OP_plus_uconst 8, DW_OP_stack_value] $rdx
	.loc	7 29 10                         # /usr/include/x86_64-linux-gnu/bits/string_fortified.h:29:10 @[ ./include/sodium/private/common.h:106:5 @[ crypto_stream/chacha20/dolbeau/chacha20_dolbeau-ssse3.c:64:22 @[ crypto_stream/chacha20/dolbeau/chacha20_dolbeau-ssse3.c:111:5 ] ] ]
	movl	8(%rdx), %eax
.Ltmp32:
	.loc	4 64 20                         # crypto_stream/chacha20/dolbeau/chacha20_dolbeau-ssse3.c:64:20 @[ crypto_stream/chacha20/dolbeau/chacha20_dolbeau-ssse3.c:111:5 ]
	movl	%eax, 60(%rsp)
.Ltmp33:
	#DEBUG_VALUE: memset:__dest <- $rdi
	#DEBUG_VALUE: memset:__ch <- 0
	#DEBUG_VALUE: memset:__len <- $rbx
	.loc	4 0 20 is_stmt 0                # crypto_stream/chacha20/dolbeau/chacha20_dolbeau-ssse3.c:0:20
	movq	%rdi, %r14
.Ltmp34:
	.loc	7 59 10 is_stmt 1               # /usr/include/x86_64-linux-gnu/bits/string_fortified.h:59:10 @[ crypto_stream/chacha20/dolbeau/chacha20_dolbeau-ssse3.c:112:5 ]
	xorl	%esi, %esi
.Ltmp35:
	#DEBUG_VALUE: stream_ietf_ext_ref:clen <- $rbx
	movq	%rbx, %rdx
.Ltmp36:
	#DEBUG_VALUE: stream_ietf_ext_ref:n <- [DW_OP_LLVM_entry_value 1] $rdx
	callq	memset@PLT
.Ltmp37:
	#DEBUG_VALUE: stream_ietf_ext_ref:k <- [DW_OP_LLVM_entry_value 1] $rcx
	#DEBUG_VALUE: memset:__dest <- $r14
	#DEBUG_VALUE: stream_ietf_ext_ref:c <- $r14
	.loc	7 0 10 is_stmt 0                # /usr/include/x86_64-linux-gnu/bits/string_fortified.h:0:10
	movq	%rsp, %r15
.Ltmp38:
	.loc	4 113 5 is_stmt 1               # crypto_stream/chacha20/dolbeau/chacha20_dolbeau-ssse3.c:113:5
	movq	%r15, %rdi
	movq	%r14, %rsi
	movq	%r14, %rdx
	movq	%rbx, %rcx
	callq	chacha20_encrypt_bytes
.Ltmp39:
	.loc	4 114 5                         # crypto_stream/chacha20/dolbeau/chacha20_dolbeau-ssse3.c:114:5
	movl	$64, %esi
	movq	%r15, %rdi
	callq	sodium_memzero@PLT
.Ltmp40:
	.loc	4 0 5 is_stmt 0                 # crypto_stream/chacha20/dolbeau/chacha20_dolbeau-ssse3.c:0:5
	addq	$64, %rsp
.Ltmp41:
	#DEBUG_VALUE: chacha_ietf_ivsetup:ctx <- $r15
	#DEBUG_VALUE: chacha_keysetup:ctx <- $r15
	#DEBUG_VALUE: stream_ietf_ext_ref:ctx <- [DW_OP_plus_uconst 56, DW_OP_deref, DW_OP_LLVM_fragment 448 64] $r15
	#DEBUG_VALUE: stream_ietf_ext_ref:ctx <- [DW_OP_plus_uconst 40, DW_OP_deref, DW_OP_LLVM_fragment 320 96] $r15
	#DEBUG_VALUE: stream_ietf_ext_ref:ctx <- [DW_OP_plus_uconst 40, DW_OP_deref, DW_OP_LLVM_fragment 320 192] $r15
	#DEBUG_VALUE: stream_ietf_ext_ref:ctx <- [DW_OP_plus_uconst 44, DW_OP_deref, DW_OP_LLVM_fragment 352 160] $r15
	#DEBUG_VALUE: stream_ietf_ext_ref:ctx <- [DW_OP_plus_uconst 24, DW_OP_deref, DW_OP_LLVM_fragment 192 64] $r15
	#DEBUG_VALUE: stream_ietf_ext_ref:ctx <- [DW_OP_plus_uconst 24, DW_OP_deref, DW_OP_LLVM_fragment 192 320] $r15
	#DEBUG_VALUE: stream_ietf_ext_ref:ctx <- [DW_OP_plus_uconst 28, DW_OP_deref, DW_OP_LLVM_fragment 224 288] $r15
	#DEBUG_VALUE: stream_ietf_ext_ref:ctx <- [DW_OP_plus_uconst 8, DW_OP_deref, DW_OP_LLVM_fragment 64 64] $r15
	#DEBUG_VALUE: stream_ietf_ext_ref:ctx <- [DW_OP_plus_uconst 8, DW_OP_deref, DW_OP_LLVM_fragment 64 448] $r15
	#DEBUG_VALUE: stream_ietf_ext_ref:ctx <- [DW_OP_plus_uconst 12, DW_OP_deref, DW_OP_LLVM_fragment 96 416] $r15
	.cfi_def_cfa_offset 32
	popq	%rbx
.Ltmp42:
	#DEBUG_VALUE: stream_ietf_ext_ref:clen <- [DW_OP_LLVM_entry_value 1] $rsi
	.cfi_def_cfa_offset 24
	popq	%r14
.Ltmp43:
	#DEBUG_VALUE: stream_ietf_ext_ref:c <- [DW_OP_LLVM_entry_value 1] $rdi
	.cfi_def_cfa_offset 16
	popq	%r15
.Ltmp44:
	.cfi_def_cfa_offset 8
	.cfi_restore %rbx
	.cfi_restore %r14
	.cfi_restore %r15
.LBB1_2:
	#DEBUG_VALUE: stream_ietf_ext_ref:c <- [DW_OP_LLVM_entry_value 1] $rdi
	#DEBUG_VALUE: stream_ietf_ext_ref:clen <- [DW_OP_LLVM_entry_value 1] $rsi
	#DEBUG_VALUE: stream_ietf_ext_ref:n <- [DW_OP_LLVM_entry_value 1] $rdx
	#DEBUG_VALUE: stream_ietf_ext_ref:k <- [DW_OP_LLVM_entry_value 1] $rcx
	.loc	4 117 1 is_stmt 1               # crypto_stream/chacha20/dolbeau/chacha20_dolbeau-ssse3.c:117:1
	xorl	%eax, %eax
	retq
.Ltmp45:
.Lfunc_end1:
	.size	stream_ietf_ext_ref, .Lfunc_end1-stream_ietf_ext_ref
	.cfi_endproc
                                        # -- End function
	.section	.rodata.cst16,"aM",@progbits,16
	.p2align	4, 0x0                          # -- Begin function stream_ref_xor_ic
.LCPI2_0:
	.long	1634760805                      # 0x61707865
	.long	857760878                       # 0x3320646e
	.long	2036477234                      # 0x79622d32
	.long	1797285236                      # 0x6b206574
	.text
	.p2align	4
	.type	stream_ref_xor_ic,@function
stream_ref_xor_ic:                      # @stream_ref_xor_ic
.Lfunc_begin2:
	.loc	4 123 0                         # crypto_stream/chacha20/dolbeau/chacha20_dolbeau-ssse3.c:123:0
	.cfi_startproc
# %bb.0:
	#DEBUG_VALUE: stream_ref_xor_ic:c <- $rdi
	#DEBUG_VALUE: stream_ref_xor_ic:m <- $rsi
	#DEBUG_VALUE: stream_ref_xor_ic:mlen <- $rdx
	#DEBUG_VALUE: stream_ref_xor_ic:n <- $rcx
	#DEBUG_VALUE: stream_ref_xor_ic:ic <- $r8
	#DEBUG_VALUE: stream_ref_xor_ic:k <- $r9
	movq	%rdx, %rax
.Ltmp46:
	#DEBUG_VALUE: stream_ref_xor_ic:ctx <- [DW_OP_deref] $rsp
	.loc	4 129 10 prologue_end           # crypto_stream/chacha20/dolbeau/chacha20_dolbeau-ssse3.c:129:10
	testq	%rdx, %rdx
	.loc	4 129 9 is_stmt 0               # crypto_stream/chacha20/dolbeau/chacha20_dolbeau-ssse3.c:129:9
	je	.LBB2_2
.Ltmp47:
# %bb.1:
	#DEBUG_VALUE: stream_ref_xor_ic:c <- $rdi
	#DEBUG_VALUE: stream_ref_xor_ic:m <- $rsi
	#DEBUG_VALUE: stream_ref_xor_ic:mlen <- $rdx
	#DEBUG_VALUE: stream_ref_xor_ic:n <- $rcx
	#DEBUG_VALUE: stream_ref_xor_ic:ic <- $r8
	#DEBUG_VALUE: stream_ref_xor_ic:k <- $r9
	#DEBUG_VALUE: stream_ref_xor_ic:ctx <- [DW_OP_deref] $rsp
	pushq	%rbx
	.cfi_def_cfa_offset 16
	subq	$64, %rsp
	.cfi_def_cfa_offset 80
	.cfi_offset %rbx, -16
	movq	%rdi, %rdx
.Ltmp48:
	#DEBUG_VALUE: stream_ref_xor_ic:mlen <- $rax
	.loc	4 132 30 is_stmt 1              # crypto_stream/chacha20/dolbeau/chacha20_dolbeau-ssse3.c:132:30
	movq	%r8, %rdi
.Ltmp49:
	#DEBUG_VALUE: stream_ref_xor_ic:c <- $rdx
	shrq	$32, %rdi
.Ltmp50:
	#DEBUG_VALUE: stream_ref_xor_ic:ic_high <- $edi
	#DEBUG_VALUE: stream_ref_xor_ic:ic_low <- $r8d
	#DEBUG_VALUE: stream_ref_xor_ic:ic_bytes <- [DW_OP_LLVM_fragment 0 32] $r8d
	#DEBUG_VALUE: memcpy:__dest <- undef
	#DEBUG_VALUE: memcpy:__src <- undef
	#DEBUG_VALUE: memcpy:__len <- 4
	#DEBUG_VALUE: memcpy:__dest <- undef
	#DEBUG_VALUE: memcpy:__src <- undef
	#DEBUG_VALUE: memcpy:__len <- 4
	#DEBUG_VALUE: stream_ref_xor_ic:ic_bytes <- [DW_OP_LLVM_fragment 32 32] $edi
	#DEBUG_VALUE: chacha_keysetup:ctx <- $rsp
	#DEBUG_VALUE: chacha_keysetup:k <- $r9
	#DEBUG_VALUE: stream_ref_xor_ic:ctx <- [DW_OP_LLVM_fragment 0 32] 1634760805
	#DEBUG_VALUE: stream_ref_xor_ic:ctx <- [DW_OP_LLVM_fragment 32 32] 857760878
	#DEBUG_VALUE: stream_ref_xor_ic:ctx <- [DW_OP_LLVM_fragment 64 32] 2036477234
	#DEBUG_VALUE: stream_ref_xor_ic:ctx <- [DW_OP_plus_uconst 12, DW_OP_deref, DW_OP_LLVM_fragment 96 416] $rsp
	.loc	4 35 19                         # crypto_stream/chacha20/dolbeau/chacha20_dolbeau-ssse3.c:35:19 @[ crypto_stream/chacha20/dolbeau/chacha20_dolbeau-ssse3.c:136:5 ]
	movaps	.LCPI2_0(%rip), %xmm0           # xmm0 = [1634760805,857760878,2036477234,1797285236]
	movaps	%xmm0, (%rsp)
.Ltmp51:
	#DEBUG_VALUE: stream_ref_xor_ic:ctx <- [DW_OP_plus_uconst 8, DW_OP_deref, DW_OP_LLVM_fragment 64 448] $rsp
	#DEBUG_VALUE: load32_le:w <- undef
	#DEBUG_VALUE: load32_le:src <- $r9
	#DEBUG_VALUE: memcpy:__dest <- undef
	#DEBUG_VALUE: memcpy:__src <- $r9
	#DEBUG_VALUE: memcpy:__len <- 4
	#DEBUG_VALUE: stream_ref_xor_ic:ctx <- [DW_OP_LLVM_fragment 128 32] undef
	#DEBUG_VALUE: stream_ref_xor_ic:ctx <- [DW_OP_plus_uconst 8, DW_OP_deref, DW_OP_LLVM_fragment 64 64] $rsp
	#DEBUG_VALUE: load32_le:w <- undef
	#DEBUG_VALUE: memcpy:__dest <- undef
	#DEBUG_VALUE: memcpy:__len <- 4
	#DEBUG_VALUE: stream_ref_xor_ic:ctx <- [DW_OP_LLVM_fragment 160 32] undef
	#DEBUG_VALUE: load32_le:w <- undef
	#DEBUG_VALUE: memcpy:__dest <- undef
	#DEBUG_VALUE: memcpy:__len <- 4
	#DEBUG_VALUE: stream_ref_xor_ic:ctx <- [DW_OP_LLVM_fragment 192 32] undef
	#DEBUG_VALUE: stream_ref_xor_ic:ctx <- [DW_OP_plus_uconst 28, DW_OP_deref, DW_OP_LLVM_fragment 224 288] $rsp
	#DEBUG_VALUE: load32_le:w <- undef
	#DEBUG_VALUE: memcpy:__dest <- undef
	#DEBUG_VALUE: memcpy:__len <- 4
	.loc	7 29 10                         # /usr/include/x86_64-linux-gnu/bits/string_fortified.h:29:10 @[ ./include/sodium/private/common.h:106:5 @[ crypto_stream/chacha20/dolbeau/chacha20_dolbeau-ssse3.c:39:21 @[ crypto_stream/chacha20/dolbeau/chacha20_dolbeau-ssse3.c:136:5 ] ] ]
	movups	(%r9), %xmm0
.Ltmp52:
	.loc	4 39 19                         # crypto_stream/chacha20/dolbeau/chacha20_dolbeau-ssse3.c:39:19 @[ crypto_stream/chacha20/dolbeau/chacha20_dolbeau-ssse3.c:136:5 ]
	movaps	%xmm0, 16(%rsp)
.Ltmp53:
	#DEBUG_VALUE: stream_ref_xor_ic:ctx <- [DW_OP_plus_uconst 24, DW_OP_deref, DW_OP_LLVM_fragment 192 320] $rsp
	#DEBUG_VALUE: load32_le:w <- undef
	#DEBUG_VALUE: memcpy:__dest <- undef
	#DEBUG_VALUE: memcpy:__len <- 4
	#DEBUG_VALUE: load32_le:src <- [DW_OP_plus_uconst 16, DW_OP_stack_value] $r9
	#DEBUG_VALUE: memcpy:__src <- [DW_OP_plus_uconst 16, DW_OP_stack_value] $r9
	#DEBUG_VALUE: stream_ref_xor_ic:ctx <- [DW_OP_LLVM_fragment 256 32] undef
	#DEBUG_VALUE: stream_ref_xor_ic:ctx <- [DW_OP_plus_uconst 24, DW_OP_deref, DW_OP_LLVM_fragment 192 64] $rsp
	#DEBUG_VALUE: load32_le:w <- undef
	#DEBUG_VALUE: memcpy:__dest <- undef
	#DEBUG_VALUE: memcpy:__len <- 4
	#DEBUG_VALUE: stream_ref_xor_ic:ctx <- [DW_OP_LLVM_fragment 288 32] undef
	#DEBUG_VALUE: load32_le:w <- undef
	#DEBUG_VALUE: memcpy:__dest <- undef
	#DEBUG_VALUE: memcpy:__len <- 4
	#DEBUG_VALUE: stream_ref_xor_ic:ctx <- [DW_OP_LLVM_fragment 320 32] undef
	#DEBUG_VALUE: stream_ref_xor_ic:ctx <- [DW_OP_plus_uconst 44, DW_OP_deref, DW_OP_LLVM_fragment 352 160] $rsp
	#DEBUG_VALUE: load32_le:w <- undef
	#DEBUG_VALUE: memcpy:__dest <- undef
	#DEBUG_VALUE: memcpy:__len <- 4
	.loc	7 29 10                         # /usr/include/x86_64-linux-gnu/bits/string_fortified.h:29:10 @[ ./include/sodium/private/common.h:106:5 @[ crypto_stream/chacha20/dolbeau/chacha20_dolbeau-ssse3.c:43:21 @[ crypto_stream/chacha20/dolbeau/chacha20_dolbeau-ssse3.c:136:5 ] ] ]
	movups	16(%r9), %xmm0
.Ltmp54:
	.loc	4 43 19                         # crypto_stream/chacha20/dolbeau/chacha20_dolbeau-ssse3.c:43:19 @[ crypto_stream/chacha20/dolbeau/chacha20_dolbeau-ssse3.c:136:5 ]
	movaps	%xmm0, 32(%rsp)
.Ltmp55:
	#DEBUG_VALUE: stream_ref_xor_ic:ctx <- [DW_OP_plus_uconst 40, DW_OP_deref, DW_OP_LLVM_fragment 320 192] $rsp
	#DEBUG_VALUE: chacha_ivsetup:ctx <- $rsp
	#DEBUG_VALUE: chacha_ivsetup:iv <- $rcx
	#DEBUG_VALUE: chacha_ivsetup:counter <- undef
	#DEBUG_VALUE: load32_le:w <- undef
	#DEBUG_VALUE: load32_le:src <- undef
	#DEBUG_VALUE: memcpy:__dest <- undef
	#DEBUG_VALUE: memcpy:__src <- undef
	#DEBUG_VALUE: memcpy:__len <- 4
	.loc	4 52 20                         # crypto_stream/chacha20/dolbeau/chacha20_dolbeau-ssse3.c:52:20 @[ crypto_stream/chacha20/dolbeau/chacha20_dolbeau-ssse3.c:137:5 ]
	movl	%r8d, 48(%rsp)
.Ltmp56:
	#DEBUG_VALUE: load32_le:w <- undef
	#DEBUG_VALUE: load32_le:src <- undef
	#DEBUG_VALUE: memcpy:__dest <- undef
	#DEBUG_VALUE: memcpy:__src <- undef
	#DEBUG_VALUE: memcpy:__len <- 4
	.loc	4 53 20                         # crypto_stream/chacha20/dolbeau/chacha20_dolbeau-ssse3.c:53:20 @[ crypto_stream/chacha20/dolbeau/chacha20_dolbeau-ssse3.c:137:5 ]
	movl	%edi, 52(%rsp)
.Ltmp57:
	#DEBUG_VALUE: load32_le:w <- undef
	#DEBUG_VALUE: load32_le:src <- $rcx
	#DEBUG_VALUE: memcpy:__dest <- undef
	#DEBUG_VALUE: memcpy:__src <- $rcx
	#DEBUG_VALUE: memcpy:__len <- 4
	#DEBUG_VALUE: stream_ref_xor_ic:ctx <- [DW_OP_LLVM_fragment 448 32] undef
	#DEBUG_VALUE: stream_ref_xor_ic:ctx <- [DW_OP_plus_uconst 40, DW_OP_deref, DW_OP_LLVM_fragment 320 128] $rsp
	#DEBUG_VALUE: stream_ref_xor_ic:ctx <- [DW_OP_plus_uconst 60, DW_OP_deref, DW_OP_LLVM_fragment 480 32] $rsp
	#DEBUG_VALUE: load32_le:w <- undef
	#DEBUG_VALUE: memcpy:__dest <- undef
	#DEBUG_VALUE: memcpy:__len <- 4
	.loc	7 29 10                         # /usr/include/x86_64-linux-gnu/bits/string_fortified.h:29:10 @[ ./include/sodium/private/common.h:106:5 @[ crypto_stream/chacha20/dolbeau/chacha20_dolbeau-ssse3.c:54:22 @[ crypto_stream/chacha20/dolbeau/chacha20_dolbeau-ssse3.c:137:5 ] ] ]
	movq	(%rcx), %rcx
.Ltmp58:
	#DEBUG_VALUE: stream_ref_xor_ic:n <- [DW_OP_LLVM_entry_value 1] $rcx
	.loc	4 54 20                         # crypto_stream/chacha20/dolbeau/chacha20_dolbeau-ssse3.c:54:20 @[ crypto_stream/chacha20/dolbeau/chacha20_dolbeau-ssse3.c:137:5 ]
	movq	%rcx, 56(%rsp)
.Ltmp59:
	#DEBUG_VALUE: stream_ref_xor_ic:ctx <- [DW_OP_plus_uconst 40, DW_OP_deref, DW_OP_LLVM_fragment 320 192] $rsp
	.loc	4 0 20 is_stmt 0                # crypto_stream/chacha20/dolbeau/chacha20_dolbeau-ssse3.c:0:20
	movq	%rsp, %rbx
.Ltmp60:
	.loc	4 138 5 is_stmt 1               # crypto_stream/chacha20/dolbeau/chacha20_dolbeau-ssse3.c:138:5
	movq	%rbx, %rdi
.Ltmp61:
	movq	%rax, %rcx
	callq	chacha20_encrypt_bytes
.Ltmp62:
	#DEBUG_VALUE: stream_ref_xor_ic:mlen <- [DW_OP_LLVM_entry_value 1] $rdx
	#DEBUG_VALUE: stream_ref_xor_ic:c <- [DW_OP_LLVM_entry_value 1] $rdi
	#DEBUG_VALUE: stream_ref_xor_ic:m <- [DW_OP_LLVM_entry_value 1] $rsi
	#DEBUG_VALUE: stream_ref_xor_ic:ic <- [DW_OP_LLVM_entry_value 1] $r8
	#DEBUG_VALUE: stream_ref_xor_ic:k <- [DW_OP_LLVM_entry_value 1] $r9
	.loc	4 139 5                         # crypto_stream/chacha20/dolbeau/chacha20_dolbeau-ssse3.c:139:5
	movl	$64, %esi
	movq	%rbx, %rdi
	callq	sodium_memzero@PLT
.Ltmp63:
	.loc	4 0 5 is_stmt 0                 # crypto_stream/chacha20/dolbeau/chacha20_dolbeau-ssse3.c:0:5
	addq	$64, %rsp
.Ltmp64:
	#DEBUG_VALUE: chacha_ivsetup:ctx <- $rbx
	#DEBUG_VALUE: chacha_keysetup:ctx <- $rbx
	#DEBUG_VALUE: stream_ref_xor_ic:ctx <- [DW_OP_plus_uconst 60, DW_OP_deref, DW_OP_LLVM_fragment 480 32] $rbx
	#DEBUG_VALUE: stream_ref_xor_ic:ctx <- [DW_OP_plus_uconst 40, DW_OP_deref, DW_OP_LLVM_fragment 320 128] $rbx
	#DEBUG_VALUE: stream_ref_xor_ic:ctx <- [DW_OP_plus_uconst 40, DW_OP_deref, DW_OP_LLVM_fragment 320 192] $rbx
	#DEBUG_VALUE: stream_ref_xor_ic:ctx <- [DW_OP_plus_uconst 44, DW_OP_deref, DW_OP_LLVM_fragment 352 160] $rbx
	#DEBUG_VALUE: stream_ref_xor_ic:ctx <- [DW_OP_plus_uconst 24, DW_OP_deref, DW_OP_LLVM_fragment 192 64] $rbx
	#DEBUG_VALUE: stream_ref_xor_ic:ctx <- [DW_OP_plus_uconst 24, DW_OP_deref, DW_OP_LLVM_fragment 192 320] $rbx
	#DEBUG_VALUE: stream_ref_xor_ic:ctx <- [DW_OP_plus_uconst 28, DW_OP_deref, DW_OP_LLVM_fragment 224 288] $rbx
	#DEBUG_VALUE: stream_ref_xor_ic:ctx <- [DW_OP_plus_uconst 8, DW_OP_deref, DW_OP_LLVM_fragment 64 64] $rbx
	#DEBUG_VALUE: stream_ref_xor_ic:ctx <- [DW_OP_plus_uconst 8, DW_OP_deref, DW_OP_LLVM_fragment 64 448] $rbx
	#DEBUG_VALUE: stream_ref_xor_ic:ctx <- [DW_OP_plus_uconst 12, DW_OP_deref, DW_OP_LLVM_fragment 96 416] $rbx
	.cfi_def_cfa_offset 16
	popq	%rbx
.Ltmp65:
	.cfi_def_cfa_offset 8
	.cfi_restore %rbx
.LBB2_2:
	#DEBUG_VALUE: stream_ref_xor_ic:c <- [DW_OP_LLVM_entry_value 1] $rdi
	#DEBUG_VALUE: stream_ref_xor_ic:m <- [DW_OP_LLVM_entry_value 1] $rsi
	#DEBUG_VALUE: stream_ref_xor_ic:mlen <- [DW_OP_LLVM_entry_value 1] $rdx
	#DEBUG_VALUE: stream_ref_xor_ic:n <- [DW_OP_LLVM_entry_value 1] $rcx
	#DEBUG_VALUE: stream_ref_xor_ic:ic <- [DW_OP_LLVM_entry_value 1] $r8
	#DEBUG_VALUE: stream_ref_xor_ic:k <- [DW_OP_LLVM_entry_value 1] $r9
	.loc	4 142 1 is_stmt 1               # crypto_stream/chacha20/dolbeau/chacha20_dolbeau-ssse3.c:142:1
	xorl	%eax, %eax
	retq
.Ltmp66:
.Lfunc_end2:
	.size	stream_ref_xor_ic, .Lfunc_end2-stream_ref_xor_ic
	.cfi_endproc
                                        # -- End function
	.section	.rodata.cst16,"aM",@progbits,16
	.p2align	4, 0x0                          # -- Begin function stream_ietf_ext_ref_xor_ic
.LCPI3_0:
	.long	1634760805                      # 0x61707865
	.long	857760878                       # 0x3320646e
	.long	2036477234                      # 0x79622d32
	.long	1797285236                      # 0x6b206574
	.text
	.p2align	4
	.type	stream_ietf_ext_ref_xor_ic,@function
stream_ietf_ext_ref_xor_ic:             # @stream_ietf_ext_ref_xor_ic
.Lfunc_begin3:
	.loc	4 148 0                         # crypto_stream/chacha20/dolbeau/chacha20_dolbeau-ssse3.c:148:0
	.cfi_startproc
# %bb.0:
	#DEBUG_VALUE: stream_ietf_ext_ref_xor_ic:c <- $rdi
	#DEBUG_VALUE: stream_ietf_ext_ref_xor_ic:m <- $rsi
	#DEBUG_VALUE: stream_ietf_ext_ref_xor_ic:mlen <- $rdx
	#DEBUG_VALUE: stream_ietf_ext_ref_xor_ic:n <- $rcx
	#DEBUG_VALUE: stream_ietf_ext_ref_xor_ic:ic <- $r8d
	#DEBUG_VALUE: stream_ietf_ext_ref_xor_ic:k <- $r9
	movq	%rdx, %rax
.Ltmp67:
	#DEBUG_VALUE: stream_ietf_ext_ref_xor_ic:ctx <- [DW_OP_deref] $rsp
	.loc	4 152 10 prologue_end           # crypto_stream/chacha20/dolbeau/chacha20_dolbeau-ssse3.c:152:10
	testq	%rdx, %rdx
	.loc	4 152 9 is_stmt 0               # crypto_stream/chacha20/dolbeau/chacha20_dolbeau-ssse3.c:152:9
	je	.LBB3_2
.Ltmp68:
# %bb.1:
	#DEBUG_VALUE: stream_ietf_ext_ref_xor_ic:c <- $rdi
	#DEBUG_VALUE: stream_ietf_ext_ref_xor_ic:m <- $rsi
	#DEBUG_VALUE: stream_ietf_ext_ref_xor_ic:mlen <- $rdx
	#DEBUG_VALUE: stream_ietf_ext_ref_xor_ic:n <- $rcx
	#DEBUG_VALUE: stream_ietf_ext_ref_xor_ic:ic <- $r8d
	#DEBUG_VALUE: stream_ietf_ext_ref_xor_ic:k <- $r9
	#DEBUG_VALUE: stream_ietf_ext_ref_xor_ic:ctx <- [DW_OP_deref] $rsp
	pushq	%rbx
	.cfi_def_cfa_offset 16
	subq	$64, %rsp
	.cfi_def_cfa_offset 80
	.cfi_offset %rbx, -16
	movq	%rdi, %rdx
.Ltmp69:
	#DEBUG_VALUE: stream_ietf_ext_ref_xor_ic:mlen <- $rax
	#DEBUG_VALUE: memcpy:__dest <- undef
	#DEBUG_VALUE: memcpy:__src <- undef
	#DEBUG_VALUE: memcpy:__len <- 4
	#DEBUG_VALUE: stream_ietf_ext_ref_xor_ic:ic_bytes <- $r8d
	#DEBUG_VALUE: chacha_keysetup:ctx <- $rsp
	#DEBUG_VALUE: chacha_keysetup:k <- $r9
	#DEBUG_VALUE: stream_ietf_ext_ref_xor_ic:ctx <- [DW_OP_LLVM_fragment 0 32] 1634760805
	#DEBUG_VALUE: stream_ietf_ext_ref_xor_ic:ctx <- [DW_OP_LLVM_fragment 32 32] 857760878
	#DEBUG_VALUE: stream_ietf_ext_ref_xor_ic:ctx <- [DW_OP_LLVM_fragment 64 32] 2036477234
	#DEBUG_VALUE: stream_ietf_ext_ref_xor_ic:ctx <- [DW_OP_plus_uconst 12, DW_OP_deref, DW_OP_LLVM_fragment 96 416] $rsp
	.loc	4 35 19 is_stmt 1               # crypto_stream/chacha20/dolbeau/chacha20_dolbeau-ssse3.c:35:19 @[ crypto_stream/chacha20/dolbeau/chacha20_dolbeau-ssse3.c:156:5 ]
	movaps	.LCPI3_0(%rip), %xmm0           # xmm0 = [1634760805,857760878,2036477234,1797285236]
	movaps	%xmm0, (%rsp)
.Ltmp70:
	#DEBUG_VALUE: stream_ietf_ext_ref_xor_ic:ctx <- [DW_OP_plus_uconst 8, DW_OP_deref, DW_OP_LLVM_fragment 64 448] $rsp
	#DEBUG_VALUE: load32_le:w <- undef
	#DEBUG_VALUE: load32_le:src <- $r9
	#DEBUG_VALUE: memcpy:__dest <- undef
	#DEBUG_VALUE: memcpy:__src <- $r9
	#DEBUG_VALUE: memcpy:__len <- 4
	#DEBUG_VALUE: stream_ietf_ext_ref_xor_ic:ctx <- [DW_OP_LLVM_fragment 128 32] undef
	#DEBUG_VALUE: stream_ietf_ext_ref_xor_ic:ctx <- [DW_OP_plus_uconst 8, DW_OP_deref, DW_OP_LLVM_fragment 64 64] $rsp
	#DEBUG_VALUE: load32_le:w <- undef
	#DEBUG_VALUE: memcpy:__dest <- undef
	#DEBUG_VALUE: memcpy:__len <- 4
	#DEBUG_VALUE: stream_ietf_ext_ref_xor_ic:ctx <- [DW_OP_LLVM_fragment 160 32] undef
	#DEBUG_VALUE: load32_le:w <- undef
	#DEBUG_VALUE: memcpy:__dest <- undef
	#DEBUG_VALUE: memcpy:__len <- 4
	#DEBUG_VALUE: stream_ietf_ext_ref_xor_ic:ctx <- [DW_OP_LLVM_fragment 192 32] undef
	#DEBUG_VALUE: stream_ietf_ext_ref_xor_ic:ctx <- [DW_OP_plus_uconst 28, DW_OP_deref, DW_OP_LLVM_fragment 224 288] $rsp
	#DEBUG_VALUE: load32_le:w <- undef
	#DEBUG_VALUE: memcpy:__dest <- undef
	#DEBUG_VALUE: memcpy:__len <- 4
	.loc	7 29 10                         # /usr/include/x86_64-linux-gnu/bits/string_fortified.h:29:10 @[ ./include/sodium/private/common.h:106:5 @[ crypto_stream/chacha20/dolbeau/chacha20_dolbeau-ssse3.c:39:21 @[ crypto_stream/chacha20/dolbeau/chacha20_dolbeau-ssse3.c:156:5 ] ] ]
	movups	(%r9), %xmm0
.Ltmp71:
	.loc	4 39 19                         # crypto_stream/chacha20/dolbeau/chacha20_dolbeau-ssse3.c:39:19 @[ crypto_stream/chacha20/dolbeau/chacha20_dolbeau-ssse3.c:156:5 ]
	movaps	%xmm0, 16(%rsp)
.Ltmp72:
	#DEBUG_VALUE: stream_ietf_ext_ref_xor_ic:ctx <- [DW_OP_plus_uconst 24, DW_OP_deref, DW_OP_LLVM_fragment 192 320] $rsp
	#DEBUG_VALUE: load32_le:w <- undef
	#DEBUG_VALUE: memcpy:__dest <- undef
	#DEBUG_VALUE: memcpy:__len <- 4
	#DEBUG_VALUE: load32_le:src <- [DW_OP_plus_uconst 16, DW_OP_stack_value] $r9
	#DEBUG_VALUE: memcpy:__src <- [DW_OP_plus_uconst 16, DW_OP_stack_value] $r9
	#DEBUG_VALUE: stream_ietf_ext_ref_xor_ic:ctx <- [DW_OP_LLVM_fragment 256 32] undef
	#DEBUG_VALUE: stream_ietf_ext_ref_xor_ic:ctx <- [DW_OP_plus_uconst 24, DW_OP_deref, DW_OP_LLVM_fragment 192 64] $rsp
	#DEBUG_VALUE: load32_le:w <- undef
	#DEBUG_VALUE: memcpy:__dest <- undef
	#DEBUG_VALUE: memcpy:__len <- 4
	#DEBUG_VALUE: stream_ietf_ext_ref_xor_ic:ctx <- [DW_OP_LLVM_fragment 288 32] undef
	#DEBUG_VALUE: load32_le:w <- undef
	#DEBUG_VALUE: memcpy:__dest <- undef
	#DEBUG_VALUE: memcpy:__len <- 4
	#DEBUG_VALUE: stream_ietf_ext_ref_xor_ic:ctx <- [DW_OP_LLVM_fragment 320 32] undef
	#DEBUG_VALUE: stream_ietf_ext_ref_xor_ic:ctx <- [DW_OP_plus_uconst 44, DW_OP_deref, DW_OP_LLVM_fragment 352 160] $rsp
	#DEBUG_VALUE: load32_le:w <- undef
	#DEBUG_VALUE: memcpy:__dest <- undef
	#DEBUG_VALUE: memcpy:__len <- 4
	.loc	7 29 10                         # /usr/include/x86_64-linux-gnu/bits/string_fortified.h:29:10 @[ ./include/sodium/private/common.h:106:5 @[ crypto_stream/chacha20/dolbeau/chacha20_dolbeau-ssse3.c:43:21 @[ crypto_stream/chacha20/dolbeau/chacha20_dolbeau-ssse3.c:156:5 ] ] ]
	movups	16(%r9), %xmm0
.Ltmp73:
	.loc	4 43 19                         # crypto_stream/chacha20/dolbeau/chacha20_dolbeau-ssse3.c:43:19 @[ crypto_stream/chacha20/dolbeau/chacha20_dolbeau-ssse3.c:156:5 ]
	movaps	%xmm0, 32(%rsp)
.Ltmp74:
	#DEBUG_VALUE: stream_ietf_ext_ref_xor_ic:ctx <- [DW_OP_plus_uconst 40, DW_OP_deref, DW_OP_LLVM_fragment 320 192] $rsp
	#DEBUG_VALUE: chacha_ietf_ivsetup:ctx <- $rsp
	#DEBUG_VALUE: chacha_ietf_ivsetup:iv <- $rcx
	#DEBUG_VALUE: chacha_ietf_ivsetup:counter <- undef
	#DEBUG_VALUE: load32_le:w <- undef
	#DEBUG_VALUE: load32_le:src <- undef
	#DEBUG_VALUE: memcpy:__dest <- undef
	#DEBUG_VALUE: memcpy:__src <- undef
	#DEBUG_VALUE: memcpy:__len <- 4
	.loc	4 61 20                         # crypto_stream/chacha20/dolbeau/chacha20_dolbeau-ssse3.c:61:20 @[ crypto_stream/chacha20/dolbeau/chacha20_dolbeau-ssse3.c:157:5 ]
	movl	%r8d, 48(%rsp)
.Ltmp75:
	#DEBUG_VALUE: load32_le:w <- undef
	#DEBUG_VALUE: load32_le:src <- $rcx
	#DEBUG_VALUE: memcpy:__dest <- undef
	#DEBUG_VALUE: memcpy:__src <- $rcx
	#DEBUG_VALUE: memcpy:__len <- 4
	#DEBUG_VALUE: stream_ietf_ext_ref_xor_ic:ctx <- [DW_OP_LLVM_fragment 416 32] undef
	#DEBUG_VALUE: stream_ietf_ext_ref_xor_ic:ctx <- [DW_OP_plus_uconst 40, DW_OP_deref, DW_OP_LLVM_fragment 320 96] $rsp
	#DEBUG_VALUE: stream_ietf_ext_ref_xor_ic:ctx <- [DW_OP_plus_uconst 56, DW_OP_deref, DW_OP_LLVM_fragment 448 64] $rsp
	#DEBUG_VALUE: load32_le:w <- undef
	#DEBUG_VALUE: memcpy:__dest <- undef
	#DEBUG_VALUE: memcpy:__len <- 4
	.loc	7 29 10                         # /usr/include/x86_64-linux-gnu/bits/string_fortified.h:29:10 @[ ./include/sodium/private/common.h:106:5 @[ crypto_stream/chacha20/dolbeau/chacha20_dolbeau-ssse3.c:62:22 @[ crypto_stream/chacha20/dolbeau/chacha20_dolbeau-ssse3.c:157:5 ] ] ]
	movq	(%rcx), %rdi
.Ltmp76:
	#DEBUG_VALUE: stream_ietf_ext_ref_xor_ic:c <- $rdx
	.loc	4 62 20                         # crypto_stream/chacha20/dolbeau/chacha20_dolbeau-ssse3.c:62:20 @[ crypto_stream/chacha20/dolbeau/chacha20_dolbeau-ssse3.c:157:5 ]
	movq	%rdi, 52(%rsp)
.Ltmp77:
	#DEBUG_VALUE: stream_ietf_ext_ref_xor_ic:ctx <- [DW_OP_plus_uconst 40, DW_OP_deref, DW_OP_LLVM_fragment 320 192] $rsp
	#DEBUG_VALUE: load32_le:w <- undef
	#DEBUG_VALUE: memcpy:__dest <- undef
	#DEBUG_VALUE: memcpy:__len <- 4
	#DEBUG_VALUE: load32_le:src <- [DW_OP_plus_uconst 8, DW_OP_stack_value] $rcx
	#DEBUG_VALUE: memcpy:__src <- [DW_OP_plus_uconst 8, DW_OP_stack_value] $rcx
	.loc	7 29 10                         # /usr/include/x86_64-linux-gnu/bits/string_fortified.h:29:10 @[ ./include/sodium/private/common.h:106:5 @[ crypto_stream/chacha20/dolbeau/chacha20_dolbeau-ssse3.c:64:22 @[ crypto_stream/chacha20/dolbeau/chacha20_dolbeau-ssse3.c:157:5 ] ] ]
	movl	8(%rcx), %ecx
.Ltmp78:
	#DEBUG_VALUE: stream_ietf_ext_ref_xor_ic:n <- [DW_OP_LLVM_entry_value 1] $rcx
	.loc	4 64 20                         # crypto_stream/chacha20/dolbeau/chacha20_dolbeau-ssse3.c:64:20 @[ crypto_stream/chacha20/dolbeau/chacha20_dolbeau-ssse3.c:157:5 ]
	movl	%ecx, 60(%rsp)
	movq	%rsp, %rbx
.Ltmp79:
	.loc	4 158 5                         # crypto_stream/chacha20/dolbeau/chacha20_dolbeau-ssse3.c:158:5
	movq	%rbx, %rdi
	movq	%rax, %rcx
	callq	chacha20_encrypt_bytes
.Ltmp80:
	#DEBUG_VALUE: stream_ietf_ext_ref_xor_ic:mlen <- [DW_OP_LLVM_entry_value 1] $rdx
	#DEBUG_VALUE: stream_ietf_ext_ref_xor_ic:c <- [DW_OP_LLVM_entry_value 1] $rdi
	#DEBUG_VALUE: stream_ietf_ext_ref_xor_ic:m <- [DW_OP_LLVM_entry_value 1] $rsi
	#DEBUG_VALUE: stream_ietf_ext_ref_xor_ic:ic <- [DW_OP_LLVM_entry_value 1] $r8d
	#DEBUG_VALUE: stream_ietf_ext_ref_xor_ic:k <- [DW_OP_LLVM_entry_value 1] $r9
	.loc	4 159 5                         # crypto_stream/chacha20/dolbeau/chacha20_dolbeau-ssse3.c:159:5
	movl	$64, %esi
	movq	%rbx, %rdi
	callq	sodium_memzero@PLT
.Ltmp81:
	.loc	4 0 5 is_stmt 0                 # crypto_stream/chacha20/dolbeau/chacha20_dolbeau-ssse3.c:0:5
	addq	$64, %rsp
.Ltmp82:
	#DEBUG_VALUE: chacha_ietf_ivsetup:ctx <- $rbx
	#DEBUG_VALUE: chacha_keysetup:ctx <- $rbx
	#DEBUG_VALUE: stream_ietf_ext_ref_xor_ic:ctx <- [DW_OP_plus_uconst 56, DW_OP_deref, DW_OP_LLVM_fragment 448 64] $rbx
	#DEBUG_VALUE: stream_ietf_ext_ref_xor_ic:ctx <- [DW_OP_plus_uconst 40, DW_OP_deref, DW_OP_LLVM_fragment 320 96] $rbx
	#DEBUG_VALUE: stream_ietf_ext_ref_xor_ic:ctx <- [DW_OP_plus_uconst 40, DW_OP_deref, DW_OP_LLVM_fragment 320 192] $rbx
	#DEBUG_VALUE: stream_ietf_ext_ref_xor_ic:ctx <- [DW_OP_plus_uconst 44, DW_OP_deref, DW_OP_LLVM_fragment 352 160] $rbx
	#DEBUG_VALUE: stream_ietf_ext_ref_xor_ic:ctx <- [DW_OP_plus_uconst 24, DW_OP_deref, DW_OP_LLVM_fragment 192 64] $rbx
	#DEBUG_VALUE: stream_ietf_ext_ref_xor_ic:ctx <- [DW_OP_plus_uconst 24, DW_OP_deref, DW_OP_LLVM_fragment 192 320] $rbx
	#DEBUG_VALUE: stream_ietf_ext_ref_xor_ic:ctx <- [DW_OP_plus_uconst 28, DW_OP_deref, DW_OP_LLVM_fragment 224 288] $rbx
	#DEBUG_VALUE: stream_ietf_ext_ref_xor_ic:ctx <- [DW_OP_plus_uconst 8, DW_OP_deref, DW_OP_LLVM_fragment 64 64] $rbx
	#DEBUG_VALUE: stream_ietf_ext_ref_xor_ic:ctx <- [DW_OP_plus_uconst 8, DW_OP_deref, DW_OP_LLVM_fragment 64 448] $rbx
	#DEBUG_VALUE: stream_ietf_ext_ref_xor_ic:ctx <- [DW_OP_plus_uconst 12, DW_OP_deref, DW_OP_LLVM_fragment 96 416] $rbx
	.cfi_def_cfa_offset 16
	popq	%rbx
.Ltmp83:
	.cfi_def_cfa_offset 8
	.cfi_restore %rbx
.LBB3_2:
	#DEBUG_VALUE: stream_ietf_ext_ref_xor_ic:c <- [DW_OP_LLVM_entry_value 1] $rdi
	#DEBUG_VALUE: stream_ietf_ext_ref_xor_ic:m <- [DW_OP_LLVM_entry_value 1] $rsi
	#DEBUG_VALUE: stream_ietf_ext_ref_xor_ic:mlen <- [DW_OP_LLVM_entry_value 1] $rdx
	#DEBUG_VALUE: stream_ietf_ext_ref_xor_ic:n <- [DW_OP_LLVM_entry_value 1] $rcx
	#DEBUG_VALUE: stream_ietf_ext_ref_xor_ic:ic <- [DW_OP_LLVM_entry_value 1] $r8d
	#DEBUG_VALUE: stream_ietf_ext_ref_xor_ic:k <- [DW_OP_LLVM_entry_value 1] $r9
	.loc	4 162 1 is_stmt 1               # crypto_stream/chacha20/dolbeau/chacha20_dolbeau-ssse3.c:162:1
	xorl	%eax, %eax
	retq
.Ltmp84:
.Lfunc_end3:
	.size	stream_ietf_ext_ref_xor_ic, .Lfunc_end3-stream_ietf_ext_ref_xor_ic
	.cfi_endproc
                                        # -- End function
	.section	.rodata.cst16,"aM",@progbits,16
	.p2align	4, 0x0                          # -- Begin function chacha20_encrypt_bytes
.LCPI4_0:
	.byte	0                               # 0x0
	.byte	0                               # 0x0
	.byte	0                               # 0x0
	.byte	0                               # 0x0
	.byte	0                               # 0x0
	.byte	0                               # 0x0
	.byte	0                               # 0x0
	.byte	0                               # 0x0
	.byte	1                               # 0x1
	.byte	0                               # 0x0
	.byte	0                               # 0x0
	.byte	0                               # 0x0
	.byte	0                               # 0x0
	.byte	0                               # 0x0
	.byte	0                               # 0x0
	.byte	0                               # 0x0
.LCPI4_1:
	.quad	2                               # 0x2
	.quad	3                               # 0x3
.LCPI4_2:
	.byte	3                               # 0x3
	.byte	0                               # 0x0
	.byte	1                               # 0x1
	.byte	2                               # 0x2
	.byte	7                               # 0x7
	.byte	4                               # 0x4
	.byte	5                               # 0x5
	.byte	6                               # 0x6
	.byte	11                              # 0xb
	.byte	8                               # 0x8
	.byte	9                               # 0x9
	.byte	10                              # 0xa
	.byte	15                              # 0xf
	.byte	12                              # 0xc
	.byte	13                              # 0xd
	.byte	14                              # 0xe
.LCPI4_3:
	.byte	10                              # 0xa
	.byte	11                              # 0xb
	.byte	8                               # 0x8
	.byte	9                               # 0x9
	.byte	14                              # 0xe
	.byte	15                              # 0xf
	.byte	12                              # 0xc
	.byte	13                              # 0xd
	.byte	2                               # 0x2
	.byte	3                               # 0x3
	.byte	0                               # 0x0
	.byte	1                               # 0x1
	.byte	6                               # 0x6
	.byte	7                               # 0x7
	.byte	4                               # 0x4
	.byte	5                               # 0x5
	.text
	.p2align	4
	.type	chacha20_encrypt_bytes,@function
chacha20_encrypt_bytes:                 # @chacha20_encrypt_bytes
.Lfunc_begin4:
	.loc	4 70 0                          # crypto_stream/chacha20/dolbeau/chacha20_dolbeau-ssse3.c:70:0
	.cfi_startproc
# %bb.0:
	#DEBUG_VALUE: chacha20_encrypt_bytes:ctx <- $rdi
	#DEBUG_VALUE: chacha20_encrypt_bytes:m <- $rsi
	#DEBUG_VALUE: chacha20_encrypt_bytes:c <- $rdx
	#DEBUG_VALUE: chacha20_encrypt_bytes:bytes <- $rcx
	subq	$376, %rsp                      # imm = 0x178
	.cfi_def_cfa_offset 384
	movq	%fs:40, %rax
	movq	%rax, 368(%rsp)
.Ltmp85:
	#DEBUG_VALUE: chacha20_encrypt_bytes:x <- undef
	.file	11 "crypto_stream/chacha20/dolbeau" "u4.h"
	.loc	11 23 11 prologue_end           # crypto_stream/chacha20/dolbeau/u4.h:23:11
	cmpq	$256, %rcx                      # imm = 0x100
	jb	.LBB4_5
.Ltmp86:
# %bb.1:
	#DEBUG_VALUE: chacha20_encrypt_bytes:ctx <- $rdi
	#DEBUG_VALUE: chacha20_encrypt_bytes:m <- $rsi
	#DEBUG_VALUE: chacha20_encrypt_bytes:c <- $rdx
	#DEBUG_VALUE: chacha20_encrypt_bytes:bytes <- $rcx
	.loc	11 30 19                        # crypto_stream/chacha20/dolbeau/u4.h:30:19
	movd	(%rdi), %xmm0                   # xmm0 = mem[0],zero,zero,zero
	pshufd	$0, %xmm0, %xmm2                # xmm2 = xmm0[0,0,0,0]
.Ltmp87:
	#DEBUG_VALUE: x_0 <- $xmm2
	#DEBUG_VALUE: orig0 <- $xmm2
	.loc	11 31 19                        # crypto_stream/chacha20/dolbeau/u4.h:31:19
	movd	4(%rdi), %xmm0                  # xmm0 = mem[0],zero,zero,zero
	pshufd	$0, %xmm0, %xmm3                # xmm3 = xmm0[0,0,0,0]
.Ltmp88:
	#DEBUG_VALUE: x_1 <- $xmm3
	#DEBUG_VALUE: orig1 <- $xmm3
	.loc	11 32 19                        # crypto_stream/chacha20/dolbeau/u4.h:32:19
	movd	8(%rdi), %xmm0                  # xmm0 = mem[0],zero,zero,zero
	pshufd	$0, %xmm0, %xmm4                # xmm4 = xmm0[0,0,0,0]
.Ltmp89:
	#DEBUG_VALUE: x_2 <- $xmm4
	#DEBUG_VALUE: orig2 <- $xmm4
	.loc	11 33 19                        # crypto_stream/chacha20/dolbeau/u4.h:33:19
	movd	12(%rdi), %xmm0                 # xmm0 = mem[0],zero,zero,zero
	pshufd	$0, %xmm0, %xmm12               # xmm12 = xmm0[0,0,0,0]
.Ltmp90:
	#DEBUG_VALUE: x_3 <- $xmm12
	#DEBUG_VALUE: orig3 <- $xmm12
	.loc	11 34 19                        # crypto_stream/chacha20/dolbeau/u4.h:34:19
	movd	16(%rdi), %xmm0                 # xmm0 = mem[0],zero,zero,zero
	pshufd	$0, %xmm0, %xmm1                # xmm1 = xmm0[0,0,0,0]
.Ltmp91:
	#DEBUG_VALUE: x_4 <- $xmm1
	#DEBUG_VALUE: orig4 <- $xmm1
	.loc	11 35 19                        # crypto_stream/chacha20/dolbeau/u4.h:35:19
	movd	20(%rdi), %xmm0                 # xmm0 = mem[0],zero,zero,zero
	pshufd	$0, %xmm0, %xmm5                # xmm5 = xmm0[0,0,0,0]
.Ltmp92:
	#DEBUG_VALUE: x_5 <- $xmm5
	#DEBUG_VALUE: orig5 <- $xmm5
	.loc	11 36 19                        # crypto_stream/chacha20/dolbeau/u4.h:36:19
	movd	24(%rdi), %xmm0                 # xmm0 = mem[0],zero,zero,zero
	pshufd	$0, %xmm0, %xmm7                # xmm7 = xmm0[0,0,0,0]
.Ltmp93:
	#DEBUG_VALUE: x_6 <- $xmm7
	#DEBUG_VALUE: orig6 <- $xmm7
	.loc	11 37 19                        # crypto_stream/chacha20/dolbeau/u4.h:37:19
	movd	28(%rdi), %xmm0                 # xmm0 = mem[0],zero,zero,zero
	pshufd	$0, %xmm0, %xmm13               # xmm13 = xmm0[0,0,0,0]
.Ltmp94:
	#DEBUG_VALUE: x_7 <- $xmm13
	#DEBUG_VALUE: orig7 <- $xmm13
	.loc	11 38 19                        # crypto_stream/chacha20/dolbeau/u4.h:38:19
	movd	32(%rdi), %xmm0                 # xmm0 = mem[0],zero,zero,zero
	pshufd	$0, %xmm0, %xmm8                # xmm8 = xmm0[0,0,0,0]
.Ltmp95:
	#DEBUG_VALUE: x_8 <- $xmm8
	#DEBUG_VALUE: orig8 <- $xmm8
	.loc	11 39 19                        # crypto_stream/chacha20/dolbeau/u4.h:39:19
	movd	36(%rdi), %xmm0                 # xmm0 = mem[0],zero,zero,zero
	pshufd	$0, %xmm0, %xmm9                # xmm9 = xmm0[0,0,0,0]
.Ltmp96:
	#DEBUG_VALUE: x_9 <- $xmm9
	#DEBUG_VALUE: orig9 <- $xmm9
	.loc	11 40 20                        # crypto_stream/chacha20/dolbeau/u4.h:40:20
	movd	40(%rdi), %xmm0                 # xmm0 = mem[0],zero,zero,zero
	pshufd	$0, %xmm0, %xmm10               # xmm10 = xmm0[0,0,0,0]
.Ltmp97:
	#DEBUG_VALUE: x_10 <- $xmm10
	#DEBUG_VALUE: orig10 <- $xmm10
	.loc	11 41 20                        # crypto_stream/chacha20/dolbeau/u4.h:41:20
	movd	44(%rdi), %xmm0                 # xmm0 = mem[0],zero,zero,zero
	pshufd	$0, %xmm0, %xmm11               # xmm11 = xmm0[0,0,0,0]
.Ltmp98:
	#DEBUG_VALUE: x_11 <- $xmm11
	#DEBUG_VALUE: orig11 <- $xmm11
	.loc	11 44 20                        # crypto_stream/chacha20/dolbeau/u4.h:44:20
	movd	56(%rdi), %xmm0                 # xmm0 = mem[0],zero,zero,zero
	pshufd	$0, %xmm0, %xmm6                # xmm6 = xmm0[0,0,0,0]
.Ltmp99:
	#DEBUG_VALUE: x_14 <- $xmm6
	#DEBUG_VALUE: orig14 <- $xmm6
	.loc	11 45 20                        # crypto_stream/chacha20/dolbeau/u4.h:45:20
	movd	60(%rdi), %xmm0                 # xmm0 = mem[0],zero,zero,zero
	pshufd	$0, %xmm0, %xmm14               # xmm14 = xmm0[0,0,0,0]
.Ltmp100:
	#DEBUG_VALUE: x_15 <- $xmm14
	#DEBUG_VALUE: orig15 <- $xmm14
	#DEBUG_VALUE: rot16 <- undef
	#DEBUG_VALUE: rot8 <- undef
	#DEBUG_VALUE: chacha20_encrypt_bytes:m <- undef
	#DEBUG_VALUE: chacha20_encrypt_bytes:c <- undef
	#DEBUG_VALUE: chacha20_encrypt_bytes:bytes <- undef
	.loc	11 0 20 is_stmt 0               # crypto_stream/chacha20/dolbeau/u4.h:0:20
	movdqa	%xmm2, 128(%rsp)                # 16-byte Spill
.Ltmp101:
	#DEBUG_VALUE: orig0 <- [DW_OP_plus_uconst 128, DW_OP_deref] $rsp
	#DEBUG_VALUE: x_0 <- [DW_OP_plus_uconst 128, DW_OP_deref] $rsp
	movdqa	%xmm3, 112(%rsp)                # 16-byte Spill
.Ltmp102:
	#DEBUG_VALUE: orig1 <- [DW_OP_plus_uconst 112, DW_OP_deref] $rsp
	#DEBUG_VALUE: x_1 <- [DW_OP_plus_uconst 112, DW_OP_deref] $rsp
	movdqa	%xmm4, 96(%rsp)                 # 16-byte Spill
.Ltmp103:
	#DEBUG_VALUE: orig2 <- [DW_OP_plus_uconst 96, DW_OP_deref] $rsp
	#DEBUG_VALUE: x_2 <- [DW_OP_plus_uconst 96, DW_OP_deref] $rsp
	movdqa	%xmm12, 80(%rsp)                # 16-byte Spill
.Ltmp104:
	#DEBUG_VALUE: orig3 <- [DW_OP_plus_uconst 80, DW_OP_deref] $rsp
	#DEBUG_VALUE: x_3 <- [DW_OP_plus_uconst 80, DW_OP_deref] $rsp
	movdqa	%xmm1, 64(%rsp)                 # 16-byte Spill
.Ltmp105:
	#DEBUG_VALUE: orig4 <- [DW_OP_plus_uconst 64, DW_OP_deref] $rsp
	#DEBUG_VALUE: x_4 <- [DW_OP_plus_uconst 64, DW_OP_deref] $rsp
	movdqa	%xmm5, 256(%rsp)                # 16-byte Spill
.Ltmp106:
	#DEBUG_VALUE: orig5 <- [DW_OP_plus_uconst 256, DW_OP_deref] $rsp
	#DEBUG_VALUE: x_5 <- [DW_OP_plus_uconst 256, DW_OP_deref] $rsp
	movdqa	%xmm7, 240(%rsp)                # 16-byte Spill
.Ltmp107:
	#DEBUG_VALUE: orig6 <- [DW_OP_plus_uconst 240, DW_OP_deref] $rsp
	#DEBUG_VALUE: x_6 <- [DW_OP_plus_uconst 240, DW_OP_deref] $rsp
	movdqa	%xmm13, 224(%rsp)               # 16-byte Spill
.Ltmp108:
	#DEBUG_VALUE: orig7 <- [DW_OP_plus_uconst 224, DW_OP_deref] $rsp
	#DEBUG_VALUE: x_7 <- [DW_OP_plus_uconst 224, DW_OP_deref] $rsp
	movdqa	%xmm8, 208(%rsp)                # 16-byte Spill
.Ltmp109:
	#DEBUG_VALUE: orig8 <- [DW_OP_plus_uconst 208, DW_OP_deref] $rsp
	#DEBUG_VALUE: x_8 <- [DW_OP_plus_uconst 208, DW_OP_deref] $rsp
	movdqa	%xmm9, 192(%rsp)                # 16-byte Spill
.Ltmp110:
	#DEBUG_VALUE: orig9 <- [DW_OP_plus_uconst 192, DW_OP_deref] $rsp
	#DEBUG_VALUE: x_9 <- [DW_OP_plus_uconst 192, DW_OP_deref] $rsp
	movdqa	%xmm10, 176(%rsp)               # 16-byte Spill
.Ltmp111:
	#DEBUG_VALUE: orig10 <- [DW_OP_plus_uconst 176, DW_OP_deref] $rsp
	#DEBUG_VALUE: x_10 <- [DW_OP_plus_uconst 176, DW_OP_deref] $rsp
	movdqa	%xmm11, 160(%rsp)               # 16-byte Spill
.Ltmp112:
	#DEBUG_VALUE: orig11 <- [DW_OP_plus_uconst 160, DW_OP_deref] $rsp
	#DEBUG_VALUE: x_11 <- [DW_OP_plus_uconst 160, DW_OP_deref] $rsp
	movdqa	%xmm6, 144(%rsp)                # 16-byte Spill
.Ltmp113:
	#DEBUG_VALUE: orig14 <- [DW_OP_plus_uconst 144, DW_OP_deref] $rsp
	#DEBUG_VALUE: x_14 <- [DW_OP_plus_uconst 144, DW_OP_deref] $rsp
	movdqa	%xmm14, 48(%rsp)                # 16-byte Spill
.Ltmp114:
	#DEBUG_VALUE: orig15 <- [DW_OP_plus_uconst 48, DW_OP_deref] $rsp
	#DEBUG_VALUE: x_15 <- [DW_OP_plus_uconst 48, DW_OP_deref] $rsp
	.p2align	4
.LBB4_2:                                # =>This Loop Header: Depth=1
                                        #     Child Loop BB4_3 Depth 2
	#DEBUG_VALUE: chacha20_encrypt_bytes:ctx <- $rdi
	#DEBUG_VALUE: orig0 <- [DW_OP_plus_uconst 128, DW_OP_deref] $rsp
	#DEBUG_VALUE: orig1 <- [DW_OP_plus_uconst 112, DW_OP_deref] $rsp
	#DEBUG_VALUE: orig2 <- [DW_OP_plus_uconst 96, DW_OP_deref] $rsp
	#DEBUG_VALUE: orig3 <- [DW_OP_plus_uconst 80, DW_OP_deref] $rsp
	#DEBUG_VALUE: orig4 <- [DW_OP_plus_uconst 64, DW_OP_deref] $rsp
	#DEBUG_VALUE: orig5 <- [DW_OP_plus_uconst 256, DW_OP_deref] $rsp
	#DEBUG_VALUE: orig6 <- [DW_OP_plus_uconst 240, DW_OP_deref] $rsp
	#DEBUG_VALUE: orig7 <- [DW_OP_plus_uconst 224, DW_OP_deref] $rsp
	#DEBUG_VALUE: orig8 <- [DW_OP_plus_uconst 208, DW_OP_deref] $rsp
	#DEBUG_VALUE: orig9 <- [DW_OP_plus_uconst 192, DW_OP_deref] $rsp
	#DEBUG_VALUE: orig10 <- [DW_OP_plus_uconst 176, DW_OP_deref] $rsp
	#DEBUG_VALUE: orig11 <- [DW_OP_plus_uconst 160, DW_OP_deref] $rsp
	#DEBUG_VALUE: orig14 <- [DW_OP_plus_uconst 144, DW_OP_deref] $rsp
	#DEBUG_VALUE: orig15 <- [DW_OP_plus_uconst 48, DW_OP_deref] $rsp
	#DEBUG_VALUE: chacha20_encrypt_bytes:m <- $rsi
	#DEBUG_VALUE: chacha20_encrypt_bytes:c <- $rdx
	#DEBUG_VALUE: chacha20_encrypt_bytes:bytes <- $rcx
	#DEBUG_VALUE: x_0 <- [DW_OP_plus_uconst 128, DW_OP_deref] $rsp
	#DEBUG_VALUE: x_1 <- [DW_OP_plus_uconst 112, DW_OP_deref] $rsp
	#DEBUG_VALUE: x_2 <- [DW_OP_plus_uconst 96, DW_OP_deref] $rsp
	#DEBUG_VALUE: x_3 <- [DW_OP_plus_uconst 80, DW_OP_deref] $rsp
	#DEBUG_VALUE: x_4 <- [DW_OP_plus_uconst 64, DW_OP_deref] $rsp
	#DEBUG_VALUE: x_5 <- [DW_OP_plus_uconst 256, DW_OP_deref] $rsp
	#DEBUG_VALUE: x_6 <- [DW_OP_plus_uconst 240, DW_OP_deref] $rsp
	#DEBUG_VALUE: x_7 <- [DW_OP_plus_uconst 224, DW_OP_deref] $rsp
	#DEBUG_VALUE: x_8 <- [DW_OP_plus_uconst 208, DW_OP_deref] $rsp
	#DEBUG_VALUE: x_9 <- [DW_OP_plus_uconst 192, DW_OP_deref] $rsp
	#DEBUG_VALUE: x_10 <- [DW_OP_plus_uconst 176, DW_OP_deref] $rsp
	#DEBUG_VALUE: x_11 <- [DW_OP_plus_uconst 160, DW_OP_deref] $rsp
	#DEBUG_VALUE: x_14 <- [DW_OP_plus_uconst 144, DW_OP_deref] $rsp
	#DEBUG_VALUE: x_15 <- [DW_OP_plus_uconst 48, DW_OP_deref] $rsp
	#DEBUG_VALUE: in12 <- undef
	#DEBUG_VALUE: in13 <- undef
	.loc	11 91 36 is_stmt 1              # crypto_stream/chacha20/dolbeau/u4.h:91:36
	movq	48(%rdi), %rax
.Ltmp115:
	#DEBUG_VALUE: in1213 <- $rax
	.loc	11 92 15                        # crypto_stream/chacha20/dolbeau/u4.h:92:15
	movq	%rax, %xmm0
	pshufd	$68, %xmm0, %xmm0               # xmm0 = xmm0[0,1,0,1]
.Ltmp116:
	#DEBUG_VALUE: t12 <- $xmm0
	#DEBUG_VALUE: t13 <- $xmm0
	.loc	11 95 16                        # crypto_stream/chacha20/dolbeau/u4.h:95:16
	movdqa	%xmm0, %xmm14
	paddq	.LCPI4_0(%rip), %xmm14
.Ltmp117:
	#DEBUG_VALUE: x_12 <- undef
	#DEBUG_VALUE: addv12 <- undef
	.loc	11 96 16                        # crypto_stream/chacha20/dolbeau/u4.h:96:16
	paddq	.LCPI4_1(%rip), %xmm0
.Ltmp118:
	#DEBUG_VALUE: x_13 <- undef
	#DEBUG_VALUE: addv13 <- undef
	#DEBUG_VALUE: t12 <- undef
	#DEBUG_VALUE: t13 <- undef
	.loc	11 101 16                       # crypto_stream/chacha20/dolbeau/u4.h:101:16
	movdqa	%xmm14, %xmm15
	shufps	$136, %xmm0, %xmm15             # xmm15 = xmm15[0,2],xmm0[0,2]
.Ltmp119:
	#DEBUG_VALUE: x_12 <- $xmm15
	.loc	11 102 16                       # crypto_stream/chacha20/dolbeau/u4.h:102:16
	shufps	$221, %xmm0, %xmm14             # xmm14 = xmm14[1,3],xmm0[1,3]
.Ltmp120:
	#DEBUG_VALUE: x_13 <- $xmm14
	#DEBUG_VALUE: orig13 <- $xmm14
	#DEBUG_VALUE: orig12 <- $xmm15
	.loc	11 107 16                       # crypto_stream/chacha20/dolbeau/u4.h:107:16
	addq	$4, %rax
.Ltmp121:
	#DEBUG_VALUE: in1213 <- $rax
	.loc	11 110 15                       # crypto_stream/chacha20/dolbeau/u4.h:110:15
	movq	%rax, 48(%rdi)
	movl	$-2, %eax
.Ltmp122:
	#DEBUG_VALUE: i <- 0
	#DEBUG_VALUE: x_0 <- undef
	#DEBUG_VALUE: x_1 <- undef
	#DEBUG_VALUE: x_2 <- undef
	#DEBUG_VALUE: x_3 <- undef
	#DEBUG_VALUE: x_8 <- undef
	#DEBUG_VALUE: x_9 <- undef
	#DEBUG_VALUE: x_10 <- undef
	#DEBUG_VALUE: x_11 <- undef
	.loc	11 0 15 is_stmt 0               # crypto_stream/chacha20/dolbeau/u4.h:0:15
	movdqa	%xmm6, %xmm0
	movdqa	%xmm1, %xmm6
	movdqa	%xmm13, %xmm1
	movaps	%xmm15, 288(%rsp)               # 16-byte Spill
.Ltmp123:
	#DEBUG_VALUE: orig12 <- [DW_OP_plus_uconst 288, DW_OP_deref] $rsp
	#DEBUG_VALUE: x_12 <- [DW_OP_plus_uconst 288, DW_OP_deref] $rsp
	movaps	%xmm14, 272(%rsp)               # 16-byte Spill
.Ltmp124:
	#DEBUG_VALUE: orig13 <- [DW_OP_plus_uconst 272, DW_OP_deref] $rsp
	#DEBUG_VALUE: x_13 <- [DW_OP_plus_uconst 272, DW_OP_deref] $rsp
	movaps	48(%rsp), %xmm13                # 16-byte Reload
	movaps	%xmm13, 16(%rsp)                # 16-byte Spill
.Ltmp125:
	.p2align	4
.LBB4_3:                                #   Parent Loop BB4_2 Depth=1
                                        # =>  This Inner Loop Header: Depth=2
	#DEBUG_VALUE: chacha20_encrypt_bytes:ctx <- $rdi
	#DEBUG_VALUE: chacha20_encrypt_bytes:m <- $rsi
	#DEBUG_VALUE: chacha20_encrypt_bytes:c <- $rdx
	#DEBUG_VALUE: chacha20_encrypt_bytes:bytes <- $rcx
	#DEBUG_VALUE: orig0 <- [DW_OP_plus_uconst 128, DW_OP_deref] $rsp
	#DEBUG_VALUE: orig1 <- [DW_OP_plus_uconst 112, DW_OP_deref] $rsp
	#DEBUG_VALUE: orig2 <- [DW_OP_plus_uconst 96, DW_OP_deref] $rsp
	#DEBUG_VALUE: orig3 <- [DW_OP_plus_uconst 80, DW_OP_deref] $rsp
	#DEBUG_VALUE: orig4 <- [DW_OP_plus_uconst 64, DW_OP_deref] $rsp
	#DEBUG_VALUE: orig5 <- [DW_OP_plus_uconst 256, DW_OP_deref] $rsp
	#DEBUG_VALUE: orig6 <- [DW_OP_plus_uconst 240, DW_OP_deref] $rsp
	#DEBUG_VALUE: orig7 <- [DW_OP_plus_uconst 224, DW_OP_deref] $rsp
	#DEBUG_VALUE: orig8 <- [DW_OP_plus_uconst 208, DW_OP_deref] $rsp
	#DEBUG_VALUE: orig9 <- [DW_OP_plus_uconst 192, DW_OP_deref] $rsp
	#DEBUG_VALUE: orig10 <- [DW_OP_plus_uconst 176, DW_OP_deref] $rsp
	#DEBUG_VALUE: orig11 <- [DW_OP_plus_uconst 160, DW_OP_deref] $rsp
	#DEBUG_VALUE: orig14 <- [DW_OP_plus_uconst 144, DW_OP_deref] $rsp
	#DEBUG_VALUE: x_15 <- [DW_OP_plus_uconst 16, DW_OP_deref] $rsp
	#DEBUG_VALUE: orig15 <- [DW_OP_plus_uconst 48, DW_OP_deref] $rsp
	#DEBUG_VALUE: x_12 <- $xmm15
	#DEBUG_VALUE: x_13 <- $xmm14
	#DEBUG_VALUE: orig13 <- [DW_OP_plus_uconst 272, DW_OP_deref] $rsp
	#DEBUG_VALUE: orig12 <- [DW_OP_plus_uconst 288, DW_OP_deref] $rsp
	#DEBUG_VALUE: x_4 <- $xmm6
	#DEBUG_VALUE: x_5 <- $xmm5
	#DEBUG_VALUE: x_6 <- $xmm7
	#DEBUG_VALUE: x_7 <- $xmm1
	#DEBUG_VALUE: x_12 <- $xmm15
	#DEBUG_VALUE: x_13 <- $xmm14
	#DEBUG_VALUE: x_14 <- $xmm0
	#DEBUG_VALUE: x_15 <- [DW_OP_plus_uconst 16, DW_OP_deref] $rsp
	#DEBUG_VALUE: i <- [DW_OP_plus_uconst 2, DW_OP_stack_value] $eax
	movdqa	%xmm10, (%rsp)                  # 16-byte Spill
.Ltmp126:
	.loc	11 113 19 is_stmt 1             # crypto_stream/chacha20/dolbeau/u4.h:113:19
	paddd	%xmm6, %xmm2
.Ltmp127:
	#DEBUG_VALUE: x_0 <- $xmm2
	.loc	11 113 50 is_stmt 0             # crypto_stream/chacha20/dolbeau/u4.h:113:50
	xorps	%xmm2, %xmm15
.Ltmp128:
	#DEBUG_VALUE: t_0 <- $xmm15
	.loc	11 113 83                       # crypto_stream/chacha20/dolbeau/u4.h:113:83
	pshuflw	$177, %xmm15, %xmm15            # xmm15 = xmm15[1,0,3,2,4,5,6,7]
.Ltmp129:
	pshufhw	$177, %xmm15, %xmm10            # xmm10 = xmm15[0,1,2,3,5,4,7,6]
.Ltmp130:
	#DEBUG_VALUE: x_12 <- $xmm10
	.loc	11 0 83                         # crypto_stream/chacha20/dolbeau/u4.h:0:83
	movdqa	%xmm10, 32(%rsp)                # 16-byte Spill
.Ltmp131:
	#DEBUG_VALUE: x_12 <- [DW_OP_plus_uconst 32, DW_OP_deref] $rsp
	.loc	11 113 119                      # crypto_stream/chacha20/dolbeau/u4.h:113:119
	paddd	%xmm10, %xmm8
.Ltmp132:
	#DEBUG_VALUE: x_8 <- $xmm8
	#DEBUG_VALUE: t_8 <- [DW_OP_LLVM_arg 0, DW_OP_LLVM_arg 1, DW_OP_xor, DW_OP_stack_value] $xmm6, $xmm8
	.loc	11 113 195                      # crypto_stream/chacha20/dolbeau/u4.h:113:195
	pxor	%xmm8, %xmm6
.Ltmp133:
	.loc	11 113 182                      # crypto_stream/chacha20/dolbeau/u4.h:113:182
	movdqa	%xmm6, %xmm13
	psrld	$20, %xmm13
	pslld	$12, %xmm6
	por	%xmm13, %xmm6
.Ltmp134:
	#DEBUG_VALUE: x_4 <- undef
	.loc	11 113 259                      # crypto_stream/chacha20/dolbeau/u4.h:113:259
	paddd	%xmm6, %xmm2
.Ltmp135:
	#DEBUG_VALUE: x_0 <- $xmm2
	#DEBUG_VALUE: t_0 <- [DW_OP_LLVM_arg 0, DW_OP_plus_uconst 32, DW_OP_deref, DW_OP_LLVM_arg 1, DW_OP_xor, DW_OP_stack_value] $rsp, $xmm2
	.loc	11 113 323                      # crypto_stream/chacha20/dolbeau/u4.h:113:323
	movdqa	%xmm2, %xmm13
	movdqa	.LCPI4_2(%rip), %xmm15          # xmm15 = [3,0,1,2,7,4,5,6,11,8,9,10,15,12,13,14]
	pshufb	%xmm15, %xmm13
	movdqa	%xmm8, %xmm10
	movdqa	32(%rsp), %xmm8                 # 16-byte Reload
.Ltmp136:
	pshufb	%xmm15, %xmm8
	pxor	%xmm13, %xmm8
.Ltmp137:
	#DEBUG_VALUE: x_12 <- $xmm8
	.loc	11 0 323                        # crypto_stream/chacha20/dolbeau/u4.h:0:323
	movdqa	%xmm8, 32(%rsp)                 # 16-byte Spill
.Ltmp138:
	#DEBUG_VALUE: x_12 <- [DW_OP_plus_uconst 32, DW_OP_deref] $rsp
	#DEBUG_VALUE: t_0 <- [DW_OP_LLVM_arg 0, DW_OP_LLVM_arg 1, DW_OP_xor, DW_OP_stack_value] undef, undef
	.loc	11 113 358                      # crypto_stream/chacha20/dolbeau/u4.h:113:358
	paddd	%xmm8, %xmm10
.Ltmp139:
	#DEBUG_VALUE: x_8 <- $xmm10
	.loc	11 0 358                        # crypto_stream/chacha20/dolbeau/u4.h:0:358
	movdqa	%xmm10, %xmm8
	movdqa	(%rsp), %xmm10                  # 16-byte Reload
.Ltmp140:
	.loc	11 113 390                      # crypto_stream/chacha20/dolbeau/u4.h:113:390
	pxor	%xmm8, %xmm6
.Ltmp141:
	#DEBUG_VALUE: t_8 <- $xmm6
	.loc	11 113 421                      # crypto_stream/chacha20/dolbeau/u4.h:113:421
	movdqa	%xmm6, %xmm13
	psrld	$25, %xmm13
	pslld	$7, %xmm6
.Ltmp142:
	por	%xmm13, %xmm6
	.loc	11 114 19 is_stmt 1             # crypto_stream/chacha20/dolbeau/u4.h:114:19
	paddd	%xmm5, %xmm3
.Ltmp143:
	#DEBUG_VALUE: x_1 <- $xmm3
	.loc	11 114 50 is_stmt 0             # crypto_stream/chacha20/dolbeau/u4.h:114:50
	xorps	%xmm3, %xmm14
.Ltmp144:
	#DEBUG_VALUE: t_1 <- $xmm14
	.loc	11 114 83                       # crypto_stream/chacha20/dolbeau/u4.h:114:83
	pshuflw	$177, %xmm14, %xmm13            # xmm13 = xmm14[1,0,3,2,4,5,6,7]
	pshufhw	$177, %xmm13, %xmm14            # xmm14 = xmm13[0,1,2,3,5,4,7,6]
.Ltmp145:
	#DEBUG_VALUE: x_13 <- $xmm14
	.loc	11 114 119                      # crypto_stream/chacha20/dolbeau/u4.h:114:119
	paddd	%xmm14, %xmm9
.Ltmp146:
	#DEBUG_VALUE: x_9 <- $xmm9
	#DEBUG_VALUE: t_9 <- [DW_OP_LLVM_arg 0, DW_OP_LLVM_arg 1, DW_OP_xor, DW_OP_stack_value] $xmm5, $xmm9
	.loc	11 114 195                      # crypto_stream/chacha20/dolbeau/u4.h:114:195
	pxor	%xmm9, %xmm5
.Ltmp147:
	.loc	11 114 182                      # crypto_stream/chacha20/dolbeau/u4.h:114:182
	movdqa	%xmm5, %xmm13
	psrld	$20, %xmm13
	pslld	$12, %xmm5
	por	%xmm13, %xmm5
.Ltmp148:
	#DEBUG_VALUE: x_5 <- undef
	.loc	11 114 259                      # crypto_stream/chacha20/dolbeau/u4.h:114:259
	paddd	%xmm5, %xmm3
.Ltmp149:
	#DEBUG_VALUE: x_1 <- $xmm3
	#DEBUG_VALUE: t_1 <- [DW_OP_LLVM_arg 0, DW_OP_LLVM_arg 1, DW_OP_xor, DW_OP_stack_value] $xmm14, $xmm3
	.loc	11 114 323                      # crypto_stream/chacha20/dolbeau/u4.h:114:323
	movdqa	%xmm3, %xmm13
	pshufb	%xmm15, %xmm13
	pshufb	%xmm15, %xmm14
.Ltmp150:
	pxor	%xmm13, %xmm14
.Ltmp151:
	#DEBUG_VALUE: x_13 <- $xmm14
	.loc	11 114 358                      # crypto_stream/chacha20/dolbeau/u4.h:114:358
	paddd	%xmm14, %xmm9
.Ltmp152:
	#DEBUG_VALUE: x_9 <- $xmm9
	.loc	11 114 390                      # crypto_stream/chacha20/dolbeau/u4.h:114:390
	pxor	%xmm9, %xmm5
.Ltmp153:
	#DEBUG_VALUE: t_9 <- $xmm5
	.loc	11 114 421                      # crypto_stream/chacha20/dolbeau/u4.h:114:421
	movdqa	%xmm5, %xmm13
	psrld	$25, %xmm13
	pslld	$7, %xmm5
.Ltmp154:
	por	%xmm13, %xmm5
	.loc	11 115 19 is_stmt 1             # crypto_stream/chacha20/dolbeau/u4.h:115:19
	paddd	%xmm7, %xmm4
.Ltmp155:
	#DEBUG_VALUE: x_2 <- $xmm4
	.loc	11 115 50 is_stmt 0             # crypto_stream/chacha20/dolbeau/u4.h:115:50
	pxor	%xmm4, %xmm0
.Ltmp156:
	#DEBUG_VALUE: t_2 <- $xmm0
	.loc	11 115 83                       # crypto_stream/chacha20/dolbeau/u4.h:115:83
	pshuflw	$177, %xmm0, %xmm0              # xmm0 = xmm0[1,0,3,2,4,5,6,7]
.Ltmp157:
	pshufhw	$177, %xmm0, %xmm0              # xmm0 = xmm0[0,1,2,3,5,4,7,6]
.Ltmp158:
	#DEBUG_VALUE: x_14 <- $xmm0
	.loc	11 115 120                      # crypto_stream/chacha20/dolbeau/u4.h:115:120
	paddd	%xmm0, %xmm10
.Ltmp159:
	#DEBUG_VALUE: x_10 <- $xmm10
	#DEBUG_VALUE: t_10 <- [DW_OP_LLVM_arg 0, DW_OP_LLVM_arg 1, DW_OP_xor, DW_OP_stack_value] $xmm7, $xmm10
	.loc	11 115 199                      # crypto_stream/chacha20/dolbeau/u4.h:115:199
	pxor	%xmm10, %xmm7
.Ltmp160:
	.loc	11 115 186                      # crypto_stream/chacha20/dolbeau/u4.h:115:186
	movdqa	%xmm7, %xmm13
	psrld	$20, %xmm13
	pslld	$12, %xmm7
	por	%xmm13, %xmm7
.Ltmp161:
	#DEBUG_VALUE: x_6 <- undef
	.loc	11 115 265                      # crypto_stream/chacha20/dolbeau/u4.h:115:265
	paddd	%xmm7, %xmm4
.Ltmp162:
	#DEBUG_VALUE: x_2 <- $xmm4
	#DEBUG_VALUE: t_2 <- [DW_OP_LLVM_arg 0, DW_OP_LLVM_arg 1, DW_OP_xor, DW_OP_stack_value] $xmm0, $xmm4
	.loc	11 115 329                      # crypto_stream/chacha20/dolbeau/u4.h:115:329
	movdqa	%xmm4, %xmm13
	pshufb	%xmm15, %xmm13
	pshufb	%xmm15, %xmm0
.Ltmp163:
	pxor	%xmm13, %xmm0
.Ltmp164:
	#DEBUG_VALUE: x_14 <- $xmm0
	.loc	11 0 329                        # crypto_stream/chacha20/dolbeau/u4.h:0:329
	movdqa	%xmm0, (%rsp)                   # 16-byte Spill
.Ltmp165:
	#DEBUG_VALUE: x_14 <- [DW_OP_deref] $rsp
	.loc	11 115 365                      # crypto_stream/chacha20/dolbeau/u4.h:115:365
	paddd	%xmm0, %xmm10
.Ltmp166:
	#DEBUG_VALUE: x_10 <- $xmm10
	.loc	11 115 399                      # crypto_stream/chacha20/dolbeau/u4.h:115:399
	pxor	%xmm10, %xmm7
.Ltmp167:
	#DEBUG_VALUE: t_10 <- $xmm7
	.loc	11 115 431                      # crypto_stream/chacha20/dolbeau/u4.h:115:431
	movdqa	%xmm7, %xmm13
	psrld	$25, %xmm13
	pslld	$7, %xmm7
.Ltmp168:
	por	%xmm13, %xmm7
	.loc	11 116 19 is_stmt 1             # crypto_stream/chacha20/dolbeau/u4.h:116:19
	paddd	%xmm1, %xmm12
.Ltmp169:
	#DEBUG_VALUE: x_3 <- $xmm12
	.loc	11 0 19 is_stmt 0               # crypto_stream/chacha20/dolbeau/u4.h:0:19
	movdqa	16(%rsp), %xmm0                 # 16-byte Reload
	.loc	11 116 50                       # crypto_stream/chacha20/dolbeau/u4.h:116:50
	pxor	%xmm12, %xmm0
.Ltmp170:
	#DEBUG_VALUE: t_3 <- $xmm0
	.loc	11 116 83                       # crypto_stream/chacha20/dolbeau/u4.h:116:83
	pshuflw	$177, %xmm0, %xmm13             # xmm13 = xmm0[1,0,3,2,4,5,6,7]
	pshufhw	$177, %xmm13, %xmm13            # xmm13 = xmm13[0,1,2,3,5,4,7,6]
.Ltmp171:
	#DEBUG_VALUE: x_15 <- $xmm13
	.loc	11 116 120                      # crypto_stream/chacha20/dolbeau/u4.h:116:120
	paddd	%xmm13, %xmm11
.Ltmp172:
	#DEBUG_VALUE: x_11 <- $xmm11
	#DEBUG_VALUE: t_11 <- [DW_OP_LLVM_arg 0, DW_OP_LLVM_arg 1, DW_OP_xor, DW_OP_stack_value] $xmm1, $xmm11
	.loc	11 116 199                      # crypto_stream/chacha20/dolbeau/u4.h:116:199
	pxor	%xmm11, %xmm1
.Ltmp173:
	.loc	11 116 186                      # crypto_stream/chacha20/dolbeau/u4.h:116:186
	movdqa	%xmm1, %xmm0
.Ltmp174:
	psrld	$20, %xmm0
	pslld	$12, %xmm1
	por	%xmm0, %xmm1
.Ltmp175:
	#DEBUG_VALUE: x_7 <- undef
	.loc	11 116 265                      # crypto_stream/chacha20/dolbeau/u4.h:116:265
	paddd	%xmm1, %xmm12
.Ltmp176:
	#DEBUG_VALUE: x_3 <- $xmm12
	#DEBUG_VALUE: t_3 <- [DW_OP_LLVM_arg 0, DW_OP_LLVM_arg 1, DW_OP_xor, DW_OP_stack_value] $xmm13, $xmm12
	.loc	11 116 329                      # crypto_stream/chacha20/dolbeau/u4.h:116:329
	movdqa	%xmm12, %xmm0
	pshufb	%xmm15, %xmm0
	pshufb	%xmm15, %xmm13
.Ltmp177:
	pxor	%xmm0, %xmm13
.Ltmp178:
	#DEBUG_VALUE: x_15 <- $xmm13
	.loc	11 116 365                      # crypto_stream/chacha20/dolbeau/u4.h:116:365
	paddd	%xmm13, %xmm11
.Ltmp179:
	#DEBUG_VALUE: x_11 <- $xmm11
	.loc	11 116 399                      # crypto_stream/chacha20/dolbeau/u4.h:116:399
	pxor	%xmm11, %xmm1
.Ltmp180:
	#DEBUG_VALUE: t_11 <- $xmm1
	.loc	11 116 431                      # crypto_stream/chacha20/dolbeau/u4.h:116:431
	movdqa	%xmm1, %xmm0
	psrld	$25, %xmm0
	pslld	$7, %xmm1
.Ltmp181:
	por	%xmm0, %xmm1
	.loc	11 117 19 is_stmt 1             # crypto_stream/chacha20/dolbeau/u4.h:117:19
	paddd	%xmm5, %xmm2
.Ltmp182:
	#DEBUG_VALUE: x_0 <- $xmm2
	#DEBUG_VALUE: t_0 <- [DW_OP_LLVM_arg 0, DW_OP_LLVM_arg 1, DW_OP_xor, DW_OP_stack_value] $xmm13, $xmm2
	.loc	11 117 83 is_stmt 0             # crypto_stream/chacha20/dolbeau/u4.h:117:83
	pxor	%xmm2, %xmm13
.Ltmp183:
	pshuflw	$177, %xmm13, %xmm0             # xmm0 = xmm13[1,0,3,2,4,5,6,7]
	pshufhw	$177, %xmm0, %xmm13             # xmm13 = xmm0[0,1,2,3,5,4,7,6]
.Ltmp184:
	#DEBUG_VALUE: x_15 <- $xmm13
	.loc	11 117 120                      # crypto_stream/chacha20/dolbeau/u4.h:117:120
	paddd	%xmm13, %xmm10
.Ltmp185:
	#DEBUG_VALUE: x_10 <- $xmm10
	.loc	11 117 154                      # crypto_stream/chacha20/dolbeau/u4.h:117:154
	pxor	%xmm10, %xmm5
.Ltmp186:
	#DEBUG_VALUE: t_10 <- $xmm5
	.loc	11 117 186                      # crypto_stream/chacha20/dolbeau/u4.h:117:186
	movdqa	%xmm5, %xmm0
	psrld	$20, %xmm0
	pslld	$12, %xmm5
.Ltmp187:
	por	%xmm0, %xmm5
	.loc	11 117 265                      # crypto_stream/chacha20/dolbeau/u4.h:117:265
	paddd	%xmm5, %xmm2
.Ltmp188:
	#DEBUG_VALUE: x_0 <- $xmm2
	#DEBUG_VALUE: t_0 <- [DW_OP_LLVM_arg 0, DW_OP_LLVM_arg 1, DW_OP_xor, DW_OP_stack_value] $xmm13, $xmm2
	.loc	11 117 329                      # crypto_stream/chacha20/dolbeau/u4.h:117:329
	movdqa	%xmm2, %xmm0
	pshufb	%xmm15, %xmm0
	pshufb	%xmm15, %xmm13
.Ltmp189:
	pxor	%xmm0, %xmm13
.Ltmp190:
	#DEBUG_VALUE: x_15 <- $xmm13
	.loc	11 0 329                        # crypto_stream/chacha20/dolbeau/u4.h:0:329
	movdqa	%xmm13, 16(%rsp)                # 16-byte Spill
.Ltmp191:
	#DEBUG_VALUE: x_15 <- [DW_OP_plus_uconst 16, DW_OP_deref] $rsp
	.loc	11 117 365                      # crypto_stream/chacha20/dolbeau/u4.h:117:365
	paddd	%xmm13, %xmm10
.Ltmp192:
	#DEBUG_VALUE: x_10 <- $xmm10
	.loc	11 117 399                      # crypto_stream/chacha20/dolbeau/u4.h:117:399
	pxor	%xmm10, %xmm5
.Ltmp193:
	#DEBUG_VALUE: t_10 <- $xmm5
	.loc	11 117 431                      # crypto_stream/chacha20/dolbeau/u4.h:117:431
	movdqa	%xmm5, %xmm0
	psrld	$25, %xmm0
	pslld	$7, %xmm5
.Ltmp194:
	por	%xmm0, %xmm5
	.loc	11 118 19 is_stmt 1             # crypto_stream/chacha20/dolbeau/u4.h:118:19
	paddd	%xmm7, %xmm3
.Ltmp195:
	#DEBUG_VALUE: x_1 <- $xmm3
	#DEBUG_VALUE: t_1 <- [DW_OP_LLVM_arg 0, DW_OP_plus_uconst 32, DW_OP_deref, DW_OP_LLVM_arg 1, DW_OP_xor, DW_OP_stack_value] $rsp, $xmm3
	.loc	11 0 19 is_stmt 0               # crypto_stream/chacha20/dolbeau/u4.h:0:19
	movdqa	32(%rsp), %xmm0                 # 16-byte Reload
	.loc	11 118 83                       # crypto_stream/chacha20/dolbeau/u4.h:118:83
	pxor	%xmm3, %xmm0
	pshuflw	$177, %xmm0, %xmm0              # xmm0 = xmm0[1,0,3,2,4,5,6,7]
	pshufhw	$177, %xmm0, %xmm15             # xmm15 = xmm0[0,1,2,3,5,4,7,6]
.Ltmp196:
	#DEBUG_VALUE: x_12 <- $xmm15
	.loc	11 118 120                      # crypto_stream/chacha20/dolbeau/u4.h:118:120
	paddd	%xmm15, %xmm11
.Ltmp197:
	#DEBUG_VALUE: x_11 <- $xmm11
	.loc	11 118 154                      # crypto_stream/chacha20/dolbeau/u4.h:118:154
	pxor	%xmm11, %xmm7
.Ltmp198:
	#DEBUG_VALUE: t_11 <- $xmm7
	.loc	11 118 186                      # crypto_stream/chacha20/dolbeau/u4.h:118:186
	movdqa	%xmm7, %xmm0
	psrld	$20, %xmm0
	pslld	$12, %xmm7
.Ltmp199:
	por	%xmm0, %xmm7
	.loc	11 118 265                      # crypto_stream/chacha20/dolbeau/u4.h:118:265
	paddd	%xmm7, %xmm3
.Ltmp200:
	#DEBUG_VALUE: x_1 <- $xmm3
	#DEBUG_VALUE: t_1 <- [DW_OP_LLVM_arg 0, DW_OP_LLVM_arg 1, DW_OP_xor, DW_OP_stack_value] $xmm15, $xmm3
	.loc	11 118 329                      # crypto_stream/chacha20/dolbeau/u4.h:118:329
	movdqa	%xmm3, %xmm0
	movdqa	.LCPI4_2(%rip), %xmm13          # xmm13 = [3,0,1,2,7,4,5,6,11,8,9,10,15,12,13,14]
	pshufb	%xmm13, %xmm0
	pshufb	%xmm13, %xmm15
.Ltmp201:
	pxor	%xmm0, %xmm15
.Ltmp202:
	#DEBUG_VALUE: x_12 <- $xmm15
	.loc	11 118 365                      # crypto_stream/chacha20/dolbeau/u4.h:118:365
	paddd	%xmm15, %xmm11
.Ltmp203:
	#DEBUG_VALUE: x_11 <- $xmm11
	.loc	11 118 399                      # crypto_stream/chacha20/dolbeau/u4.h:118:399
	pxor	%xmm11, %xmm7
.Ltmp204:
	#DEBUG_VALUE: t_11 <- $xmm7
	.loc	11 118 431                      # crypto_stream/chacha20/dolbeau/u4.h:118:431
	movdqa	%xmm7, %xmm0
	psrld	$25, %xmm0
	pslld	$7, %xmm7
.Ltmp205:
	por	%xmm0, %xmm7
	.loc	11 119 19 is_stmt 1             # crypto_stream/chacha20/dolbeau/u4.h:119:19
	paddd	%xmm1, %xmm4
.Ltmp206:
	#DEBUG_VALUE: x_2 <- $xmm4
	#DEBUG_VALUE: t_2 <- [DW_OP_LLVM_arg 0, DW_OP_LLVM_arg 1, DW_OP_xor, DW_OP_stack_value] $xmm14, $xmm4
	.loc	11 119 83 is_stmt 0             # crypto_stream/chacha20/dolbeau/u4.h:119:83
	pxor	%xmm4, %xmm14
.Ltmp207:
	pshuflw	$177, %xmm14, %xmm0             # xmm0 = xmm14[1,0,3,2,4,5,6,7]
	pshufhw	$177, %xmm0, %xmm14             # xmm14 = xmm0[0,1,2,3,5,4,7,6]
.Ltmp208:
	#DEBUG_VALUE: x_13 <- $xmm14
	.loc	11 119 119                      # crypto_stream/chacha20/dolbeau/u4.h:119:119
	paddd	%xmm14, %xmm8
.Ltmp209:
	#DEBUG_VALUE: x_8 <- $xmm8
	.loc	11 119 151                      # crypto_stream/chacha20/dolbeau/u4.h:119:151
	pxor	%xmm8, %xmm1
.Ltmp210:
	#DEBUG_VALUE: t_8 <- $xmm1
	.loc	11 119 182                      # crypto_stream/chacha20/dolbeau/u4.h:119:182
	movdqa	%xmm1, %xmm0
	psrld	$20, %xmm0
	pslld	$12, %xmm1
.Ltmp211:
	por	%xmm0, %xmm1
	.loc	11 119 259                      # crypto_stream/chacha20/dolbeau/u4.h:119:259
	paddd	%xmm1, %xmm4
.Ltmp212:
	#DEBUG_VALUE: x_2 <- $xmm4
	#DEBUG_VALUE: t_2 <- [DW_OP_LLVM_arg 0, DW_OP_LLVM_arg 1, DW_OP_xor, DW_OP_stack_value] $xmm14, $xmm4
	.loc	11 119 323                      # crypto_stream/chacha20/dolbeau/u4.h:119:323
	movdqa	%xmm4, %xmm0
	pshufb	%xmm13, %xmm0
	pshufb	%xmm13, %xmm14
.Ltmp213:
	pxor	%xmm0, %xmm14
.Ltmp214:
	#DEBUG_VALUE: x_13 <- $xmm14
	.loc	11 119 358                      # crypto_stream/chacha20/dolbeau/u4.h:119:358
	paddd	%xmm14, %xmm8
.Ltmp215:
	#DEBUG_VALUE: x_8 <- $xmm8
	.loc	11 119 390                      # crypto_stream/chacha20/dolbeau/u4.h:119:390
	pxor	%xmm8, %xmm1
.Ltmp216:
	#DEBUG_VALUE: t_8 <- $xmm1
	.loc	11 119 421                      # crypto_stream/chacha20/dolbeau/u4.h:119:421
	movdqa	%xmm1, %xmm0
	psrld	$25, %xmm0
	pslld	$7, %xmm1
.Ltmp217:
	por	%xmm0, %xmm1
	.loc	11 120 19 is_stmt 1             # crypto_stream/chacha20/dolbeau/u4.h:120:19
	paddd	%xmm6, %xmm12
.Ltmp218:
	#DEBUG_VALUE: x_3 <- $xmm12
	#DEBUG_VALUE: t_3 <- [DW_OP_LLVM_arg 0, DW_OP_deref, DW_OP_LLVM_arg 1, DW_OP_xor, DW_OP_stack_value] $rsp, $xmm12
	.loc	11 0 19 is_stmt 0               # crypto_stream/chacha20/dolbeau/u4.h:0:19
	movdqa	(%rsp), %xmm0                   # 16-byte Reload
	.loc	11 120 83                       # crypto_stream/chacha20/dolbeau/u4.h:120:83
	pxor	%xmm12, %xmm0
	pshuflw	$177, %xmm0, %xmm0              # xmm0 = xmm0[1,0,3,2,4,5,6,7]
	pshufhw	$177, %xmm0, %xmm0              # xmm0 = xmm0[0,1,2,3,5,4,7,6]
.Ltmp219:
	#DEBUG_VALUE: x_14 <- $xmm0
	.loc	11 120 119                      # crypto_stream/chacha20/dolbeau/u4.h:120:119
	paddd	%xmm0, %xmm9
.Ltmp220:
	#DEBUG_VALUE: x_9 <- $xmm9
	.loc	11 120 151                      # crypto_stream/chacha20/dolbeau/u4.h:120:151
	pxor	%xmm9, %xmm6
.Ltmp221:
	#DEBUG_VALUE: t_9 <- $xmm6
	.loc	11 120 182                      # crypto_stream/chacha20/dolbeau/u4.h:120:182
	movdqa	%xmm6, %xmm13
	psrld	$20, %xmm13
	pslld	$12, %xmm6
.Ltmp222:
	por	%xmm13, %xmm6
	.loc	11 120 259                      # crypto_stream/chacha20/dolbeau/u4.h:120:259
	paddd	%xmm6, %xmm12
.Ltmp223:
	#DEBUG_VALUE: x_3 <- $xmm12
	#DEBUG_VALUE: t_3 <- [DW_OP_LLVM_arg 0, DW_OP_LLVM_arg 1, DW_OP_xor, DW_OP_stack_value] $xmm0, $xmm12
	.loc	11 120 323                      # crypto_stream/chacha20/dolbeau/u4.h:120:323
	movdqa	%xmm12, %xmm13
	pshufb	.LCPI4_2(%rip), %xmm13          # xmm13 = xmm13[3,0,1,2,7,4,5,6,11,8,9,10,15,12,13,14]
	pshufb	.LCPI4_2(%rip), %xmm0           # xmm0 = xmm0[3,0,1,2,7,4,5,6,11,8,9,10,15,12,13,14]
.Ltmp224:
	pxor	%xmm13, %xmm0
.Ltmp225:
	#DEBUG_VALUE: x_14 <- $xmm0
	.loc	11 120 358                      # crypto_stream/chacha20/dolbeau/u4.h:120:358
	paddd	%xmm0, %xmm9
.Ltmp226:
	#DEBUG_VALUE: x_9 <- $xmm9
	.loc	11 120 390                      # crypto_stream/chacha20/dolbeau/u4.h:120:390
	pxor	%xmm9, %xmm6
.Ltmp227:
	#DEBUG_VALUE: t_9 <- $xmm6
	.loc	11 120 421                      # crypto_stream/chacha20/dolbeau/u4.h:120:421
	movdqa	%xmm6, %xmm13
	psrld	$25, %xmm13
	pslld	$7, %xmm6
.Ltmp228:
	por	%xmm13, %xmm6
.Ltmp229:
	#DEBUG_VALUE: x_0 <- undef
	#DEBUG_VALUE: x_1 <- undef
	#DEBUG_VALUE: x_2 <- undef
	#DEBUG_VALUE: x_3 <- undef
	#DEBUG_VALUE: x_8 <- undef
	#DEBUG_VALUE: x_9 <- undef
	#DEBUG_VALUE: x_10 <- undef
	#DEBUG_VALUE: x_11 <- undef
	#DEBUG_VALUE: i <- [DW_OP_plus_uconst 4, DW_OP_stack_value] $eax
	.loc	11 112 23 is_stmt 1             # crypto_stream/chacha20/dolbeau/u4.h:112:23
	addl	$2, %eax
.Ltmp230:
	cmpl	$18, %eax
.Ltmp231:
	.loc	11 112 9 is_stmt 0              # crypto_stream/chacha20/dolbeau/u4.h:112:9
	jb	.LBB4_3
.Ltmp232:
# %bb.4:                                #   in Loop: Header=BB4_2 Depth=1
	#DEBUG_VALUE: chacha20_encrypt_bytes:ctx <- $rdi
	#DEBUG_VALUE: chacha20_encrypt_bytes:m <- $rsi
	#DEBUG_VALUE: chacha20_encrypt_bytes:c <- $rdx
	#DEBUG_VALUE: chacha20_encrypt_bytes:bytes <- $rcx
	#DEBUG_VALUE: orig0 <- [DW_OP_plus_uconst 128, DW_OP_deref] $rsp
	#DEBUG_VALUE: orig1 <- [DW_OP_plus_uconst 112, DW_OP_deref] $rsp
	#DEBUG_VALUE: orig2 <- [DW_OP_plus_uconst 96, DW_OP_deref] $rsp
	#DEBUG_VALUE: orig3 <- [DW_OP_plus_uconst 80, DW_OP_deref] $rsp
	#DEBUG_VALUE: orig4 <- [DW_OP_plus_uconst 64, DW_OP_deref] $rsp
	#DEBUG_VALUE: orig5 <- [DW_OP_plus_uconst 256, DW_OP_deref] $rsp
	#DEBUG_VALUE: orig6 <- [DW_OP_plus_uconst 240, DW_OP_deref] $rsp
	#DEBUG_VALUE: orig7 <- [DW_OP_plus_uconst 224, DW_OP_deref] $rsp
	#DEBUG_VALUE: orig8 <- [DW_OP_plus_uconst 208, DW_OP_deref] $rsp
	#DEBUG_VALUE: orig9 <- [DW_OP_plus_uconst 192, DW_OP_deref] $rsp
	#DEBUG_VALUE: orig10 <- [DW_OP_plus_uconst 176, DW_OP_deref] $rsp
	#DEBUG_VALUE: orig11 <- [DW_OP_plus_uconst 160, DW_OP_deref] $rsp
	#DEBUG_VALUE: x_14 <- $xmm0
	#DEBUG_VALUE: orig14 <- [DW_OP_plus_uconst 144, DW_OP_deref] $rsp
	#DEBUG_VALUE: x_15 <- [DW_OP_plus_uconst 16, DW_OP_deref] $rsp
	#DEBUG_VALUE: orig15 <- [DW_OP_plus_uconst 48, DW_OP_deref] $rsp
	#DEBUG_VALUE: x_12 <- $xmm15
	#DEBUG_VALUE: x_13 <- $xmm14
	#DEBUG_VALUE: orig13 <- [DW_OP_plus_uconst 272, DW_OP_deref] $rsp
	#DEBUG_VALUE: orig12 <- [DW_OP_plus_uconst 288, DW_OP_deref] $rsp
	#DEBUG_VALUE: x_4 <- $xmm6
	#DEBUG_VALUE: x_7 <- $xmm1
	#DEBUG_VALUE: x_6 <- $xmm7
	#DEBUG_VALUE: x_5 <- $xmm5
	.loc	11 154 41 is_stmt 1             # crypto_stream/chacha20/dolbeau/u4.h:154:41
	paddd	128(%rsp), %xmm2                # 16-byte Folded Reload
.Ltmp233:
	#DEBUG_VALUE: x_0 <- $xmm2
	.loc	11 154 74 is_stmt 0             # crypto_stream/chacha20/dolbeau/u4.h:154:74
	paddd	112(%rsp), %xmm3                # 16-byte Folded Reload
.Ltmp234:
	#DEBUG_VALUE: x_1 <- $xmm3
	#DEBUG_VALUE: x_2 <- undef
	#DEBUG_VALUE: x_3 <- undef
	.loc	11 154 173                      # crypto_stream/chacha20/dolbeau/u4.h:154:173
	movdqa	%xmm2, %xmm13
	punpckldq	%xmm3, %xmm13           # xmm13 = xmm13[0],xmm3[0],xmm13[1],xmm3[1]
.Ltmp235:
	#DEBUG_VALUE: t_0 <- $xmm13
	#DEBUG_VALUE: t_1 <- undef
	.loc	11 154 245                      # crypto_stream/chacha20/dolbeau/u4.h:154:245
	punpckhdq	%xmm3, %xmm2            # xmm2 = xmm2[2],xmm3[2],xmm2[3],xmm3[3]
.Ltmp236:
	#DEBUG_VALUE: t_2 <- $xmm2
	.loc	11 154 107                      # crypto_stream/chacha20/dolbeau/u4.h:154:107
	paddd	96(%rsp), %xmm4                 # 16-byte Folded Reload
.Ltmp237:
	#DEBUG_VALUE: x_2 <- $xmm4
	.loc	11 154 140                      # crypto_stream/chacha20/dolbeau/u4.h:154:140
	paddd	80(%rsp), %xmm12                # 16-byte Folded Reload
.Ltmp238:
	#DEBUG_VALUE: x_3 <- $xmm12
	.loc	11 154 209                      # crypto_stream/chacha20/dolbeau/u4.h:154:209
	movdqa	%xmm4, %xmm3
.Ltmp239:
	punpckldq	%xmm12, %xmm3           # xmm3 = xmm3[0],xmm12[0],xmm3[1],xmm12[1]
.Ltmp240:
	#DEBUG_VALUE: t_1 <- $xmm3
	.loc	11 154 281                      # crypto_stream/chacha20/dolbeau/u4.h:154:281
	punpckhdq	%xmm12, %xmm4           # xmm4 = xmm4[2],xmm12[2],xmm4[3],xmm12[3]
.Ltmp241:
	#DEBUG_VALUE: t_3 <- $xmm4
	.loc	11 154 317                      # crypto_stream/chacha20/dolbeau/u4.h:154:317
	movdqa	%xmm13, %xmm12
.Ltmp242:
	punpcklqdq	%xmm3, %xmm12           # xmm12 = xmm12[0],xmm3[0]
.Ltmp243:
	#DEBUG_VALUE: x_0 <- $xmm12
	.loc	11 154 353                      # crypto_stream/chacha20/dolbeau/u4.h:154:353
	punpckhqdq	%xmm3, %xmm13           # xmm13 = xmm13[1],xmm3[1]
.Ltmp244:
	#DEBUG_VALUE: x_1 <- $xmm13
	.loc	11 154 389                      # crypto_stream/chacha20/dolbeau/u4.h:154:389
	movdqa	%xmm2, %xmm3
.Ltmp245:
	punpcklqdq	%xmm4, %xmm3            # xmm3 = xmm3[0],xmm4[0]
.Ltmp246:
	#DEBUG_VALUE: x_2 <- $xmm3
	.loc	11 154 425                      # crypto_stream/chacha20/dolbeau/u4.h:154:425
	punpckhqdq	%xmm4, %xmm2            # xmm2 = xmm2[1],xmm4[1]
.Ltmp247:
	#DEBUG_VALUE: x_3 <- $xmm2
	.loc	11 154 479                      # crypto_stream/chacha20/dolbeau/u4.h:154:479
	movdqu	(%rsi), %xmm4
.Ltmp248:
	.loc	11 154 460                      # crypto_stream/chacha20/dolbeau/u4.h:154:460
	pxor	%xmm12, %xmm4
.Ltmp249:
	#DEBUG_VALUE: t0 <- $xmm4
	.loc	11 154 523                      # crypto_stream/chacha20/dolbeau/u4.h:154:523
	movdqu	%xmm4, (%rdx)
	.loc	11 154 589                      # crypto_stream/chacha20/dolbeau/u4.h:154:589
	movdqu	64(%rsi), %xmm4
.Ltmp250:
	.loc	11 154 570                      # crypto_stream/chacha20/dolbeau/u4.h:154:570
	pxor	%xmm13, %xmm4
.Ltmp251:
	#DEBUG_VALUE: t1 <- $xmm4
	.loc	11 154 634                      # crypto_stream/chacha20/dolbeau/u4.h:154:634
	movdqu	%xmm4, 64(%rdx)
	.loc	11 154 701                      # crypto_stream/chacha20/dolbeau/u4.h:154:701
	movdqu	128(%rsi), %xmm4
.Ltmp252:
	.loc	11 154 682                      # crypto_stream/chacha20/dolbeau/u4.h:154:682
	pxor	%xmm3, %xmm4
.Ltmp253:
	#DEBUG_VALUE: t2 <- $xmm4
	.loc	11 154 747                      # crypto_stream/chacha20/dolbeau/u4.h:154:747
	movdqu	%xmm4, 128(%rdx)
	.loc	11 154 815                      # crypto_stream/chacha20/dolbeau/u4.h:154:815
	movdqu	192(%rsi), %xmm3
.Ltmp254:
	.loc	11 154 796                      # crypto_stream/chacha20/dolbeau/u4.h:154:796
	pxor	%xmm2, %xmm3
.Ltmp255:
	#DEBUG_VALUE: t3 <- $xmm3
	.loc	11 154 861                      # crypto_stream/chacha20/dolbeau/u4.h:154:861
	movdqu	%xmm3, 192(%rdx)
.Ltmp256:
	#DEBUG_VALUE: chacha20_encrypt_bytes:m <- [DW_OP_plus_uconst 16, DW_OP_stack_value] $rsi
	#DEBUG_VALUE: chacha20_encrypt_bytes:c <- [DW_OP_plus_uconst 16, DW_OP_stack_value] $rdx
	.loc	11 157 41 is_stmt 1             # crypto_stream/chacha20/dolbeau/u4.h:157:41
	paddd	64(%rsp), %xmm6                 # 16-byte Folded Reload
.Ltmp257:
	#DEBUG_VALUE: x_4 <- $xmm6
	.loc	11 0 41 is_stmt 0               # crypto_stream/chacha20/dolbeau/u4.h:0:41
	movdqa	256(%rsp), %xmm3                # 16-byte Reload
.Ltmp258:
	.loc	11 157 74                       # crypto_stream/chacha20/dolbeau/u4.h:157:74
	paddd	%xmm3, %xmm5
.Ltmp259:
	#DEBUG_VALUE: x_5 <- $xmm5
	.loc	11 0 74                         # crypto_stream/chacha20/dolbeau/u4.h:0:74
	movdqa	240(%rsp), %xmm4                # 16-byte Reload
.Ltmp260:
	.loc	11 157 107                      # crypto_stream/chacha20/dolbeau/u4.h:157:107
	paddd	%xmm4, %xmm7
.Ltmp261:
	#DEBUG_VALUE: x_6 <- $xmm7
	.loc	11 0 107                        # crypto_stream/chacha20/dolbeau/u4.h:0:107
	movdqa	224(%rsp), %xmm12               # 16-byte Reload
.Ltmp262:
	.loc	11 157 140                      # crypto_stream/chacha20/dolbeau/u4.h:157:140
	paddd	%xmm12, %xmm1
.Ltmp263:
	#DEBUG_VALUE: x_7 <- $xmm1
	.loc	11 157 173                      # crypto_stream/chacha20/dolbeau/u4.h:157:173
	movdqa	%xmm6, %xmm2
.Ltmp264:
	punpckldq	%xmm5, %xmm2            # xmm2 = xmm2[0],xmm5[0],xmm2[1],xmm5[1]
.Ltmp265:
	#DEBUG_VALUE: t_4 <- $xmm2
	#DEBUG_VALUE: t_5 <- undef
	.loc	11 157 245                      # crypto_stream/chacha20/dolbeau/u4.h:157:245
	punpckhdq	%xmm5, %xmm6            # xmm6 = xmm6[2],xmm5[2],xmm6[3],xmm5[3]
.Ltmp266:
	#DEBUG_VALUE: t_6 <- $xmm6
	.loc	11 0 245                        # crypto_stream/chacha20/dolbeau/u4.h:0:245
	movdqa	%xmm3, %xmm5
.Ltmp267:
	.loc	11 157 209                      # crypto_stream/chacha20/dolbeau/u4.h:157:209
	movdqa	%xmm7, %xmm3
	punpckldq	%xmm1, %xmm3            # xmm3 = xmm3[0],xmm1[0],xmm3[1],xmm1[1]
.Ltmp268:
	#DEBUG_VALUE: t_5 <- $xmm3
	.loc	11 157 281                      # crypto_stream/chacha20/dolbeau/u4.h:157:281
	punpckhdq	%xmm1, %xmm7            # xmm7 = xmm7[2],xmm1[2],xmm7[3],xmm1[3]
.Ltmp269:
	#DEBUG_VALUE: t_7 <- $xmm7
	.loc	11 157 317                      # crypto_stream/chacha20/dolbeau/u4.h:157:317
	movdqa	%xmm2, %xmm1
.Ltmp270:
	punpcklqdq	%xmm3, %xmm1            # xmm1 = xmm1[0],xmm3[0]
.Ltmp271:
	#DEBUG_VALUE: x_4 <- $xmm1
	.loc	11 157 353                      # crypto_stream/chacha20/dolbeau/u4.h:157:353
	punpckhqdq	%xmm3, %xmm2            # xmm2 = xmm2[1],xmm3[1]
.Ltmp272:
	#DEBUG_VALUE: x_5 <- $xmm2
	.loc	11 157 389                      # crypto_stream/chacha20/dolbeau/u4.h:157:389
	movdqa	%xmm6, %xmm3
.Ltmp273:
	punpcklqdq	%xmm7, %xmm3            # xmm3 = xmm3[0],xmm7[0]
.Ltmp274:
	#DEBUG_VALUE: x_6 <- $xmm3
	.loc	11 157 425                      # crypto_stream/chacha20/dolbeau/u4.h:157:425
	punpckhqdq	%xmm7, %xmm6            # xmm6 = xmm6[1],xmm7[1]
.Ltmp275:
	#DEBUG_VALUE: x_7 <- $xmm6
	.loc	11 0 425                        # crypto_stream/chacha20/dolbeau/u4.h:0:425
	movdqa	%xmm4, %xmm7
.Ltmp276:
	.loc	11 157 479                      # crypto_stream/chacha20/dolbeau/u4.h:157:479
	movdqu	16(%rsi), %xmm4
	.loc	11 157 460                      # crypto_stream/chacha20/dolbeau/u4.h:157:460
	pxor	%xmm1, %xmm4
.Ltmp277:
	#DEBUG_VALUE: t0 <- $xmm4
	.loc	11 157 523                      # crypto_stream/chacha20/dolbeau/u4.h:157:523
	movdqu	%xmm4, 16(%rdx)
	.loc	11 157 589                      # crypto_stream/chacha20/dolbeau/u4.h:157:589
	movdqu	80(%rsi), %xmm1
.Ltmp278:
	.loc	11 157 570                      # crypto_stream/chacha20/dolbeau/u4.h:157:570
	pxor	%xmm2, %xmm1
.Ltmp279:
	#DEBUG_VALUE: t1 <- $xmm1
	.loc	11 157 634                      # crypto_stream/chacha20/dolbeau/u4.h:157:634
	movdqu	%xmm1, 80(%rdx)
	.loc	11 157 701                      # crypto_stream/chacha20/dolbeau/u4.h:157:701
	movdqu	144(%rsi), %xmm1
.Ltmp280:
	.loc	11 157 682                      # crypto_stream/chacha20/dolbeau/u4.h:157:682
	pxor	%xmm3, %xmm1
.Ltmp281:
	#DEBUG_VALUE: t2 <- $xmm1
	.loc	11 157 747                      # crypto_stream/chacha20/dolbeau/u4.h:157:747
	movdqu	%xmm1, 144(%rdx)
	.loc	11 157 815                      # crypto_stream/chacha20/dolbeau/u4.h:157:815
	movdqu	208(%rsi), %xmm1
.Ltmp282:
	.loc	11 157 796                      # crypto_stream/chacha20/dolbeau/u4.h:157:796
	pxor	%xmm6, %xmm1
.Ltmp283:
	#DEBUG_VALUE: t3 <- $xmm1
	.loc	11 157 861                      # crypto_stream/chacha20/dolbeau/u4.h:157:861
	movdqu	%xmm1, 208(%rdx)
.Ltmp284:
	#DEBUG_VALUE: chacha20_encrypt_bytes:m <- [DW_OP_plus_uconst 32, DW_OP_stack_value] $rsi
	#DEBUG_VALUE: chacha20_encrypt_bytes:c <- [DW_OP_plus_uconst 32, DW_OP_stack_value] $rdx
	.loc	11 0 861                        # crypto_stream/chacha20/dolbeau/u4.h:0:861
	movdqa	208(%rsp), %xmm6                # 16-byte Reload
.Ltmp285:
	.loc	11 160 41 is_stmt 1             # crypto_stream/chacha20/dolbeau/u4.h:160:41
	paddd	%xmm6, %xmm8
.Ltmp286:
	#DEBUG_VALUE: x_8 <- $xmm8
	.loc	11 0 41 is_stmt 0               # crypto_stream/chacha20/dolbeau/u4.h:0:41
	movdqa	192(%rsp), %xmm2                # 16-byte Reload
.Ltmp287:
	.loc	11 160 74                       # crypto_stream/chacha20/dolbeau/u4.h:160:74
	paddd	%xmm2, %xmm9
.Ltmp288:
	#DEBUG_VALUE: x_9 <- $xmm9
	.loc	11 0 74                         # crypto_stream/chacha20/dolbeau/u4.h:0:74
	movdqa	176(%rsp), %xmm4                # 16-byte Reload
.Ltmp289:
	.loc	11 160 108                      # crypto_stream/chacha20/dolbeau/u4.h:160:108
	paddd	%xmm4, %xmm10
.Ltmp290:
	#DEBUG_VALUE: x_10 <- $xmm10
	.loc	11 0 108                        # crypto_stream/chacha20/dolbeau/u4.h:0:108
	movdqa	160(%rsp), %xmm3                # 16-byte Reload
.Ltmp291:
	.loc	11 160 144                      # crypto_stream/chacha20/dolbeau/u4.h:160:144
	paddd	%xmm3, %xmm11
.Ltmp292:
	#DEBUG_VALUE: x_11 <- $xmm11
	.loc	11 160 179                      # crypto_stream/chacha20/dolbeau/u4.h:160:179
	movdqa	%xmm8, %xmm1
.Ltmp293:
	punpckldq	%xmm9, %xmm1            # xmm1 = xmm1[0],xmm9[0],xmm1[1],xmm9[1]
.Ltmp294:
	#DEBUG_VALUE: t_8 <- $xmm1
	#DEBUG_VALUE: t_9 <- undef
	.loc	11 160 254                      # crypto_stream/chacha20/dolbeau/u4.h:160:254
	punpckhdq	%xmm9, %xmm8            # xmm8 = xmm8[2],xmm9[2],xmm8[3],xmm9[3]
.Ltmp295:
	#DEBUG_VALUE: t_10 <- $xmm8
	.loc	11 0 254                        # crypto_stream/chacha20/dolbeau/u4.h:0:254
	movdqa	%xmm2, %xmm9
.Ltmp296:
	.loc	11 160 215                      # crypto_stream/chacha20/dolbeau/u4.h:160:215
	movdqa	%xmm10, %xmm2
	punpckldq	%xmm11, %xmm2           # xmm2 = xmm2[0],xmm11[0],xmm2[1],xmm11[1]
.Ltmp297:
	#DEBUG_VALUE: t_9 <- $xmm2
	.loc	11 160 291                      # crypto_stream/chacha20/dolbeau/u4.h:160:291
	punpckhdq	%xmm11, %xmm10          # xmm10 = xmm10[2],xmm11[2],xmm10[3],xmm11[3]
.Ltmp298:
	#DEBUG_VALUE: t_11 <- $xmm10
	.loc	11 0 291                        # crypto_stream/chacha20/dolbeau/u4.h:0:291
	movdqa	%xmm3, %xmm11
.Ltmp299:
	.loc	11 160 329                      # crypto_stream/chacha20/dolbeau/u4.h:160:329
	movdqa	%xmm1, %xmm3
	punpcklqdq	%xmm2, %xmm3            # xmm3 = xmm3[0],xmm2[0]
.Ltmp300:
	#DEBUG_VALUE: x_8 <- $xmm3
	.loc	11 160 365                      # crypto_stream/chacha20/dolbeau/u4.h:160:365
	punpckhqdq	%xmm2, %xmm1            # xmm1 = xmm1[1],xmm2[1]
.Ltmp301:
	#DEBUG_VALUE: x_9 <- $xmm1
	.loc	11 160 402                      # crypto_stream/chacha20/dolbeau/u4.h:160:402
	movdqa	%xmm8, %xmm2
.Ltmp302:
	punpcklqdq	%xmm10, %xmm2           # xmm2 = xmm2[0],xmm10[0]
.Ltmp303:
	#DEBUG_VALUE: x_10 <- $xmm2
	.loc	11 160 441                      # crypto_stream/chacha20/dolbeau/u4.h:160:441
	punpckhqdq	%xmm10, %xmm8           # xmm8 = xmm8[1],xmm10[1]
.Ltmp304:
	#DEBUG_VALUE: x_11 <- $xmm8
	.loc	11 0 441                        # crypto_stream/chacha20/dolbeau/u4.h:0:441
	movdqa	%xmm4, %xmm10
.Ltmp305:
	.loc	11 160 497                      # crypto_stream/chacha20/dolbeau/u4.h:160:497
	movdqu	32(%rsi), %xmm4
	.loc	11 160 478                      # crypto_stream/chacha20/dolbeau/u4.h:160:478
	pxor	%xmm3, %xmm4
.Ltmp306:
	#DEBUG_VALUE: t0 <- $xmm4
	.loc	11 160 541                      # crypto_stream/chacha20/dolbeau/u4.h:160:541
	movdqu	%xmm4, 32(%rdx)
	movdqa	96(%rsp), %xmm4                 # 16-byte Reload
.Ltmp307:
	.loc	11 160 607                      # crypto_stream/chacha20/dolbeau/u4.h:160:607
	movdqu	96(%rsi), %xmm3
.Ltmp308:
	.loc	11 160 588                      # crypto_stream/chacha20/dolbeau/u4.h:160:588
	pxor	%xmm1, %xmm3
.Ltmp309:
	#DEBUG_VALUE: t1 <- $xmm3
	.loc	11 160 652                      # crypto_stream/chacha20/dolbeau/u4.h:160:652
	movdqu	%xmm3, 96(%rdx)
	.loc	11 160 720                      # crypto_stream/chacha20/dolbeau/u4.h:160:720
	movdqu	160(%rsi), %xmm1
.Ltmp310:
	.loc	11 160 700                      # crypto_stream/chacha20/dolbeau/u4.h:160:700
	pxor	%xmm2, %xmm1
.Ltmp311:
	#DEBUG_VALUE: t2 <- $xmm1
	.loc	11 160 766                      # crypto_stream/chacha20/dolbeau/u4.h:160:766
	movdqu	%xmm1, 160(%rdx)
	.loc	11 160 835                      # crypto_stream/chacha20/dolbeau/u4.h:160:835
	movdqu	224(%rsi), %xmm1
.Ltmp312:
	.loc	11 160 815                      # crypto_stream/chacha20/dolbeau/u4.h:160:815
	pxor	%xmm8, %xmm1
.Ltmp313:
	#DEBUG_VALUE: t3 <- $xmm1
	.loc	11 0 815                        # crypto_stream/chacha20/dolbeau/u4.h:0:815
	movdqa	%xmm6, %xmm8
.Ltmp314:
	.loc	11 160 881                      # crypto_stream/chacha20/dolbeau/u4.h:160:881
	movdqu	%xmm1, 224(%rdx)
.Ltmp315:
	#DEBUG_VALUE: chacha20_encrypt_bytes:m <- [DW_OP_plus_uconst 48, DW_OP_stack_value] $rsi
	#DEBUG_VALUE: chacha20_encrypt_bytes:c <- [DW_OP_plus_uconst 48, DW_OP_stack_value] $rdx
	.loc	11 0 881                        # crypto_stream/chacha20/dolbeau/u4.h:0:881
	movdqa	288(%rsp), %xmm1                # 16-byte Reload
.Ltmp316:
	.loc	11 163 42 is_stmt 1             # crypto_stream/chacha20/dolbeau/u4.h:163:42
	paddd	%xmm15, %xmm1
.Ltmp317:
	#DEBUG_VALUE: x_12 <- $xmm1
	.loc	11 0 42 is_stmt 0               # crypto_stream/chacha20/dolbeau/u4.h:0:42
	movdqa	272(%rsp), %xmm2                # 16-byte Reload
.Ltmp318:
	.loc	11 163 78                       # crypto_stream/chacha20/dolbeau/u4.h:163:78
	paddd	%xmm14, %xmm2
.Ltmp319:
	#DEBUG_VALUE: x_13 <- $xmm2
	.loc	11 0 78                         # crypto_stream/chacha20/dolbeau/u4.h:0:78
	movdqa	144(%rsp), %xmm6                # 16-byte Reload
	.loc	11 163 114                      # crypto_stream/chacha20/dolbeau/u4.h:163:114
	paddd	%xmm6, %xmm0
.Ltmp320:
	#DEBUG_VALUE: x_14 <- $xmm0
	.loc	11 0 114                        # crypto_stream/chacha20/dolbeau/u4.h:0:114
	movdqa	48(%rsp), %xmm14                # 16-byte Reload
	movdqa	16(%rsp), %xmm3                 # 16-byte Reload
.Ltmp321:
	.loc	11 163 150                      # crypto_stream/chacha20/dolbeau/u4.h:163:150
	paddd	%xmm14, %xmm3
.Ltmp322:
	#DEBUG_VALUE: x_15 <- $xmm3
	.loc	11 163 186                      # crypto_stream/chacha20/dolbeau/u4.h:163:186
	movdqa	%xmm1, %xmm13
.Ltmp323:
	punpckldq	%xmm2, %xmm13           # xmm13 = xmm13[0],xmm2[0],xmm13[1],xmm2[1]
.Ltmp324:
	#DEBUG_VALUE: t_12 <- $xmm13
	#DEBUG_VALUE: t_13 <- undef
	.loc	11 163 264                      # crypto_stream/chacha20/dolbeau/u4.h:163:264
	punpckhdq	%xmm2, %xmm1            # xmm1 = xmm1[2],xmm2[2],xmm1[3],xmm2[3]
.Ltmp325:
	#DEBUG_VALUE: t_14 <- $xmm1
	.loc	11 163 225                      # crypto_stream/chacha20/dolbeau/u4.h:163:225
	movdqa	%xmm0, %xmm2
.Ltmp326:
	punpckldq	%xmm3, %xmm2            # xmm2 = xmm2[0],xmm3[0],xmm2[1],xmm3[1]
.Ltmp327:
	#DEBUG_VALUE: t_13 <- $xmm2
	.loc	11 163 303                      # crypto_stream/chacha20/dolbeau/u4.h:163:303
	punpckhdq	%xmm3, %xmm0            # xmm0 = xmm0[2],xmm3[2],xmm0[3],xmm3[3]
.Ltmp328:
	#DEBUG_VALUE: t_15 <- $xmm0
	.loc	11 163 342                      # crypto_stream/chacha20/dolbeau/u4.h:163:342
	movdqa	%xmm13, %xmm3
.Ltmp329:
	punpcklqdq	%xmm2, %xmm3            # xmm3 = xmm3[0],xmm2[0]
.Ltmp330:
	#DEBUG_VALUE: x_12 <- $xmm3
	.loc	11 163 381                      # crypto_stream/chacha20/dolbeau/u4.h:163:381
	punpckhqdq	%xmm2, %xmm13           # xmm13 = xmm13[1],xmm2[1]
.Ltmp331:
	#DEBUG_VALUE: x_13 <- $xmm13
	.loc	11 163 420                      # crypto_stream/chacha20/dolbeau/u4.h:163:420
	movdqa	%xmm1, %xmm2
.Ltmp332:
	punpcklqdq	%xmm0, %xmm2            # xmm2 = xmm2[0],xmm0[0]
.Ltmp333:
	#DEBUG_VALUE: x_14 <- $xmm2
	.loc	11 163 459                      # crypto_stream/chacha20/dolbeau/u4.h:163:459
	punpckhqdq	%xmm0, %xmm1            # xmm1 = xmm1[1],xmm0[1]
.Ltmp334:
	#DEBUG_VALUE: x_15 <- $xmm1
	.loc	11 163 516                      # crypto_stream/chacha20/dolbeau/u4.h:163:516
	movdqu	48(%rsi), %xmm0
.Ltmp335:
	.loc	11 163 496                      # crypto_stream/chacha20/dolbeau/u4.h:163:496
	pxor	%xmm3, %xmm0
.Ltmp336:
	#DEBUG_VALUE: t0 <- $xmm0
	.loc	11 0 496                        # crypto_stream/chacha20/dolbeau/u4.h:0:496
	movdqa	112(%rsp), %xmm3                # 16-byte Reload
.Ltmp337:
	.loc	11 163 560                      # crypto_stream/chacha20/dolbeau/u4.h:163:560
	movdqu	%xmm0, 48(%rdx)
	.loc	11 163 627                      # crypto_stream/chacha20/dolbeau/u4.h:163:627
	movdqu	112(%rsi), %xmm0
.Ltmp338:
	.loc	11 163 607                      # crypto_stream/chacha20/dolbeau/u4.h:163:607
	pxor	%xmm13, %xmm0
.Ltmp339:
	#DEBUG_VALUE: t1 <- $xmm0
	.loc	11 0 607                        # crypto_stream/chacha20/dolbeau/u4.h:0:607
	movdqa	%xmm12, %xmm13
.Ltmp340:
	movdqa	80(%rsp), %xmm12                # 16-byte Reload
	.loc	11 163 672                      # crypto_stream/chacha20/dolbeau/u4.h:163:672
	movdqu	%xmm0, 112(%rdx)
	.loc	11 163 740                      # crypto_stream/chacha20/dolbeau/u4.h:163:740
	movdqu	176(%rsi), %xmm0
.Ltmp341:
	.loc	11 163 720                      # crypto_stream/chacha20/dolbeau/u4.h:163:720
	pxor	%xmm2, %xmm0
.Ltmp342:
	#DEBUG_VALUE: t2 <- $xmm0
	.loc	11 0 720                        # crypto_stream/chacha20/dolbeau/u4.h:0:720
	movdqa	128(%rsp), %xmm2                # 16-byte Reload
.Ltmp343:
	.loc	11 163 786                      # crypto_stream/chacha20/dolbeau/u4.h:163:786
	movdqu	%xmm0, 176(%rdx)
	.loc	11 163 855                      # crypto_stream/chacha20/dolbeau/u4.h:163:855
	movdqu	240(%rsi), %xmm0
.Ltmp344:
	.loc	11 163 835                      # crypto_stream/chacha20/dolbeau/u4.h:163:835
	pxor	%xmm1, %xmm0
.Ltmp345:
	#DEBUG_VALUE: t3 <- $xmm0
	.loc	11 0 835                        # crypto_stream/chacha20/dolbeau/u4.h:0:835
	movdqa	64(%rsp), %xmm1                 # 16-byte Reload
.Ltmp346:
	.loc	11 163 901                      # crypto_stream/chacha20/dolbeau/u4.h:163:901
	movdqu	%xmm0, 240(%rdx)
.Ltmp347:
	#DEBUG_VALUE: chacha20_encrypt_bytes:m <- $rsi
	#DEBUG_VALUE: chacha20_encrypt_bytes:c <- $rdx
	.loc	11 170 15 is_stmt 1             # crypto_stream/chacha20/dolbeau/u4.h:170:15
	addq	$-256, %rcx
.Ltmp348:
	#DEBUG_VALUE: chacha20_encrypt_bytes:bytes <- $rcx
	.loc	11 171 11                       # crypto_stream/chacha20/dolbeau/u4.h:171:11
	addq	$256, %rdx                      # imm = 0x100
.Ltmp349:
	#DEBUG_VALUE: chacha20_encrypt_bytes:c <- $rdx
	.loc	11 172 11                       # crypto_stream/chacha20/dolbeau/u4.h:172:11
	addq	$256, %rsi                      # imm = 0x100
.Ltmp350:
	#DEBUG_VALUE: chacha20_encrypt_bytes:m <- $rsi
	.loc	11 68 18                        # crypto_stream/chacha20/dolbeau/u4.h:68:18
	cmpq	$255, %rcx
	.loc	11 68 5 is_stmt 0               # crypto_stream/chacha20/dolbeau/u4.h:68:5
	ja	.LBB4_2
.Ltmp351:
.LBB4_5:                                # %.loopexit
	#DEBUG_VALUE: chacha20_encrypt_bytes:ctx <- $rdi
	#DEBUG_VALUE: chacha20_encrypt_bytes:m <- $rsi
	#DEBUG_VALUE: chacha20_encrypt_bytes:c <- $rdx
	#DEBUG_VALUE: chacha20_encrypt_bytes:bytes <- $rcx
	#DEBUG_VALUE: chacha20_encrypt_bytes:m <- $rsi
	#DEBUG_VALUE: chacha20_encrypt_bytes:c <- $rdx
	#DEBUG_VALUE: chacha20_encrypt_bytes:bytes <- $rcx
	.file	12 "crypto_stream/chacha20/dolbeau" "u1.h"
	.loc	12 1 14 is_stmt 1               # crypto_stream/chacha20/dolbeau/u1.h:1:14
	cmpq	$64, %rcx
	.loc	12 1 1 is_stmt 0                # crypto_stream/chacha20/dolbeau/u1.h:1:1
	jb	.LBB4_10
.Ltmp352:
# %bb.6:                                # %.lr.ph
	#DEBUG_VALUE: chacha20_encrypt_bytes:ctx <- $rdi
	#DEBUG_VALUE: chacha20_encrypt_bytes:m <- $rsi
	#DEBUG_VALUE: chacha20_encrypt_bytes:c <- $rdx
	#DEBUG_VALUE: chacha20_encrypt_bytes:bytes <- $rcx
	.loc	12 0 1                          # crypto_stream/chacha20/dolbeau/u1.h:0:1
	movdqa	.LCPI4_2(%rip), %xmm0           # xmm0 = [3,0,1,2,7,4,5,6,11,8,9,10,15,12,13,14]
	movdqa	.LCPI4_3(%rip), %xmm1           # xmm1 = [10,11,8,9,14,15,12,13,2,3,0,1,6,7,4,5]
.Ltmp353:
	.p2align	4
.LBB4_7:                                # =>This Loop Header: Depth=1
                                        #     Child Loop BB4_8 Depth 2
	#DEBUG_VALUE: chacha20_encrypt_bytes:ctx <- $rdi
	#DEBUG_VALUE: chacha20_encrypt_bytes:m <- $rsi
	#DEBUG_VALUE: chacha20_encrypt_bytes:c <- $rdx
	#DEBUG_VALUE: chacha20_encrypt_bytes:bytes <- $rcx
	#DEBUG_VALUE: chacha20_encrypt_bytes:m <- $rsi
	#DEBUG_VALUE: chacha20_encrypt_bytes:c <- $rdx
	#DEBUG_VALUE: chacha20_encrypt_bytes:bytes <- $rcx
	.loc	12 13 11 is_stmt 1              # crypto_stream/chacha20/dolbeau/u1.h:13:11
	movdqu	(%rdi), %xmm6
.Ltmp354:
	#DEBUG_VALUE: x_0 <- undef
	.loc	12 14 11                        # crypto_stream/chacha20/dolbeau/u1.h:14:11
	movdqu	16(%rdi), %xmm5
.Ltmp355:
	#DEBUG_VALUE: x_1 <- undef
	.loc	12 15 11                        # crypto_stream/chacha20/dolbeau/u1.h:15:11
	movdqu	32(%rdi), %xmm4
.Ltmp356:
	#DEBUG_VALUE: x_2 <- undef
	.loc	12 16 11                        # crypto_stream/chacha20/dolbeau/u1.h:16:11
	movdqu	48(%rdi), %xmm3
.Ltmp357:
	#DEBUG_VALUE: x_3 <- $xmm3
	.loc	12 0 11 is_stmt 0               # crypto_stream/chacha20/dolbeau/u1.h:0:11
	movl	$-2, %eax
.Ltmp358:
	#DEBUG_VALUE: i <- 0
	#DEBUG_VALUE: rot16 <- undef
	#DEBUG_VALUE: rot8 <- undef
	movdqa	%xmm3, %xmm9
	movdqa	%xmm4, %xmm7
	movdqa	%xmm5, %xmm2
	movdqa	%xmm6, %xmm8
.Ltmp359:
	.p2align	4
.LBB4_8:                                #   Parent Loop BB4_7 Depth=1
                                        # =>  This Inner Loop Header: Depth=2
	#DEBUG_VALUE: chacha20_encrypt_bytes:ctx <- $rdi
	#DEBUG_VALUE: chacha20_encrypt_bytes:m <- $rsi
	#DEBUG_VALUE: chacha20_encrypt_bytes:c <- $rdx
	#DEBUG_VALUE: chacha20_encrypt_bytes:bytes <- $rcx
	#DEBUG_VALUE: i <- [DW_OP_plus_uconst 2, DW_OP_stack_value] $eax
	#DEBUG_VALUE: x_3 <- $xmm9
	#DEBUG_VALUE: x_1 <- undef
	.loc	12 19 15 is_stmt 1              # crypto_stream/chacha20/dolbeau/u1.h:19:15
	paddd	%xmm2, %xmm8
.Ltmp360:
	#DEBUG_VALUE: x_0 <- $xmm8
	.loc	12 20 15                        # crypto_stream/chacha20/dolbeau/u1.h:20:15
	pxor	%xmm8, %xmm9
.Ltmp361:
	#DEBUG_VALUE: x_3 <- $xmm9
	.loc	12 21 15                        # crypto_stream/chacha20/dolbeau/u1.h:21:15
	pshuflw	$177, %xmm9, %xmm9              # xmm9 = xmm9[1,0,3,2,4,5,6,7]
.Ltmp362:
	pshufhw	$177, %xmm9, %xmm9              # xmm9 = xmm9[0,1,2,3,5,4,7,6]
.Ltmp363:
	#DEBUG_VALUE: x_3 <- $xmm9
	.loc	12 23 15                        # crypto_stream/chacha20/dolbeau/u1.h:23:15
	paddd	%xmm9, %xmm7
.Ltmp364:
	#DEBUG_VALUE: x_2 <- $xmm7
	#DEBUG_VALUE: t_1 <- undef
	.loc	12 27 15                        # crypto_stream/chacha20/dolbeau/u1.h:27:15
	pxor	%xmm7, %xmm2
.Ltmp365:
	#DEBUG_VALUE: x_1 <- [DW_OP_LLVM_arg 0, DW_OP_LLVM_arg 0, DW_OP_shl, DW_OP_stack_value] undef
	#DEBUG_VALUE: t_1 <- [DW_OP_LLVM_arg 0, DW_OP_LLVM_arg 0, DW_OP_shr, DW_OP_stack_value] undef
	.loc	12 29 15                        # crypto_stream/chacha20/dolbeau/u1.h:29:15
	movdqa	%xmm2, %xmm10
	psrld	$20, %xmm10
	pslld	$12, %xmm2
	por	%xmm10, %xmm2
.Ltmp366:
	#DEBUG_VALUE: x_1 <- undef
	.loc	12 31 15                        # crypto_stream/chacha20/dolbeau/u1.h:31:15
	paddd	%xmm2, %xmm8
.Ltmp367:
	#DEBUG_VALUE: x_0 <- $xmm8
	#DEBUG_VALUE: x_3 <- [DW_OP_LLVM_arg 0, DW_OP_LLVM_arg 1, DW_OP_xor, DW_OP_stack_value] $xmm9, $xmm8
	.loc	12 33 25                        # crypto_stream/chacha20/dolbeau/u1.h:33:25
	pshufd	$147, %xmm8, %xmm10             # xmm10 = xmm8[3,0,1,2]
.Ltmp368:
	#DEBUG_VALUE: x_0 <- $xmm10
	.loc	12 34 15                        # crypto_stream/chacha20/dolbeau/u1.h:34:15
	pshufb	%xmm0, %xmm8
.Ltmp369:
	pshufb	%xmm0, %xmm9
	pxor	%xmm8, %xmm9
.Ltmp370:
	#DEBUG_VALUE: x_3 <- $xmm9
	.loc	12 36 15                        # crypto_stream/chacha20/dolbeau/u1.h:36:15
	paddd	%xmm9, %xmm7
.Ltmp371:
	#DEBUG_VALUE: x_2 <- $xmm7
	#DEBUG_VALUE: x_3 <- undef
	.loc	12 38 15                        # crypto_stream/chacha20/dolbeau/u1.h:38:15
	pxor	%xmm7, %xmm2
.Ltmp372:
	#DEBUG_VALUE: x_1 <- $xmm2
	.loc	12 39 25                        # crypto_stream/chacha20/dolbeau/u1.h:39:25
	pshufd	$57, %xmm7, %xmm7               # xmm7 = xmm7[1,2,3,0]
.Ltmp373:
	#DEBUG_VALUE: x_1 <- [DW_OP_LLVM_arg 0, DW_OP_LLVM_arg 0, DW_OP_shl, DW_OP_stack_value] undef
	#DEBUG_VALUE: t_1 <- [DW_OP_LLVM_arg 0, DW_OP_LLVM_arg 0, DW_OP_shr, DW_OP_stack_value] undef
	#DEBUG_VALUE: x_2 <- $xmm7
	.loc	12 44 15                        # crypto_stream/chacha20/dolbeau/u1.h:44:15
	movdqa	%xmm2, %xmm8
	psrld	$25, %xmm8
	pslld	$7, %xmm2
	por	%xmm8, %xmm2
.Ltmp374:
	#DEBUG_VALUE: x_1 <- undef
	.loc	12 46 15                        # crypto_stream/chacha20/dolbeau/u1.h:46:15
	paddd	%xmm2, %xmm10
.Ltmp375:
	#DEBUG_VALUE: x_0 <- $xmm10
	.loc	12 48 15                        # crypto_stream/chacha20/dolbeau/u1.h:48:15
	pshuflw	$177, %xmm10, %xmm8             # xmm8 = xmm10[1,0,3,2,4,5,6,7]
	pshufhw	$177, %xmm8, %xmm8              # xmm8 = xmm8[0,1,2,3,5,4,7,6]
	pshufb	%xmm1, %xmm9
	pxor	%xmm8, %xmm9
.Ltmp376:
	#DEBUG_VALUE: x_3 <- $xmm9
	.loc	12 50 15                        # crypto_stream/chacha20/dolbeau/u1.h:50:15
	paddd	%xmm9, %xmm7
.Ltmp377:
	#DEBUG_VALUE: x_2 <- $xmm7
	.loc	12 51 15                        # crypto_stream/chacha20/dolbeau/u1.h:51:15
	pxor	%xmm7, %xmm2
	#DEBUG_VALUE: t_1 <- [DW_OP_LLVM_arg 0, DW_OP_LLVM_arg 0, DW_OP_shr, DW_OP_stack_value] undef
	.loc	12 56 15                        # crypto_stream/chacha20/dolbeau/u1.h:56:15
	movdqa	%xmm2, %xmm8
	psrld	$20, %xmm8
	pslld	$12, %xmm2
	por	%xmm8, %xmm2
	.loc	12 58 15                        # crypto_stream/chacha20/dolbeau/u1.h:58:15
	paddd	%xmm2, %xmm10
.Ltmp378:
	#DEBUG_VALUE: x_0 <- $xmm10
	#DEBUG_VALUE: x_3 <- [DW_OP_LLVM_arg 0, DW_OP_LLVM_arg 1, DW_OP_xor, DW_OP_stack_value] $xmm9, $xmm10
	.loc	12 60 25                        # crypto_stream/chacha20/dolbeau/u1.h:60:25
	pshufd	$57, %xmm10, %xmm8              # xmm8 = xmm10[1,2,3,0]
.Ltmp379:
	#DEBUG_VALUE: x_0 <- $xmm8
	.loc	12 61 15                        # crypto_stream/chacha20/dolbeau/u1.h:61:15
	pxor	%xmm9, %xmm10
.Ltmp380:
	pshufb	%xmm0, %xmm10
.Ltmp381:
	#DEBUG_VALUE: x_3 <- $xmm10
	.loc	12 63 15                        # crypto_stream/chacha20/dolbeau/u1.h:63:15
	paddd	%xmm10, %xmm7
.Ltmp382:
	#DEBUG_VALUE: x_2 <- $xmm7
	.loc	12 64 25                        # crypto_stream/chacha20/dolbeau/u1.h:64:25
	pshufd	$78, %xmm10, %xmm9              # xmm9 = xmm10[2,3,0,1]
.Ltmp383:
	#DEBUG_VALUE: x_3 <- $xmm9
	.loc	12 65 15                        # crypto_stream/chacha20/dolbeau/u1.h:65:15
	pxor	%xmm7, %xmm2
.Ltmp384:
	#DEBUG_VALUE: x_1 <- $xmm2
	.loc	12 66 25                        # crypto_stream/chacha20/dolbeau/u1.h:66:25
	pshufd	$147, %xmm7, %xmm7              # xmm7 = xmm7[3,0,1,2]
.Ltmp385:
	#DEBUG_VALUE: t_1 <- [DW_OP_LLVM_arg 0, DW_OP_LLVM_arg 0, DW_OP_shr, DW_OP_stack_value] undef
	#DEBUG_VALUE: x_2 <- $xmm7
	.loc	12 71 15                        # crypto_stream/chacha20/dolbeau/u1.h:71:15
	movdqa	%xmm2, %xmm10
	psrld	$25, %xmm10
	pslld	$7, %xmm2
.Ltmp386:
	por	%xmm10, %xmm2
.Ltmp387:
	#DEBUG_VALUE: i <- [DW_OP_plus_uconst 4, DW_OP_stack_value] $eax
	#DEBUG_VALUE: x_2 <- undef
	#DEBUG_VALUE: x_0 <- undef
	.loc	12 18 19                        # crypto_stream/chacha20/dolbeau/u1.h:18:19
	addl	$2, %eax
.Ltmp388:
	cmpl	$18, %eax
.Ltmp389:
	.loc	12 18 5 is_stmt 0               # crypto_stream/chacha20/dolbeau/u1.h:18:5
	jb	.LBB4_8
.Ltmp390:
# %bb.9:                                #   in Loop: Header=BB4_7 Depth=1
	#DEBUG_VALUE: chacha20_encrypt_bytes:ctx <- $rdi
	#DEBUG_VALUE: chacha20_encrypt_bytes:m <- $rsi
	#DEBUG_VALUE: chacha20_encrypt_bytes:c <- $rdx
	#DEBUG_VALUE: chacha20_encrypt_bytes:bytes <- $rcx
	#DEBUG_VALUE: x_3 <- $xmm9
	#DEBUG_VALUE: x_1 <- $xmm2
	.loc	12 73 11 is_stmt 1              # crypto_stream/chacha20/dolbeau/u1.h:73:11
	paddd	%xmm6, %xmm8
.Ltmp391:
	#DEBUG_VALUE: x_0 <- $xmm8
	.loc	12 74 11                        # crypto_stream/chacha20/dolbeau/u1.h:74:11
	paddd	%xmm5, %xmm2
.Ltmp392:
	#DEBUG_VALUE: x_1 <- $xmm2
	.loc	12 75 11                        # crypto_stream/chacha20/dolbeau/u1.h:75:11
	paddd	%xmm4, %xmm7
.Ltmp393:
	#DEBUG_VALUE: x_2 <- $xmm7
	.loc	12 76 11                        # crypto_stream/chacha20/dolbeau/u1.h:76:11
	paddd	%xmm3, %xmm9
.Ltmp394:
	#DEBUG_VALUE: x_3 <- $xmm9
	.loc	12 77 30                        # crypto_stream/chacha20/dolbeau/u1.h:77:30
	movdqu	(%rsi), %xmm3
	.loc	12 77 11 is_stmt 0              # crypto_stream/chacha20/dolbeau/u1.h:77:11
	pxor	%xmm8, %xmm3
	.loc	12 78 30 is_stmt 1              # crypto_stream/chacha20/dolbeau/u1.h:78:30
	movdqu	16(%rsi), %xmm4
	.loc	12 78 11 is_stmt 0              # crypto_stream/chacha20/dolbeau/u1.h:78:11
	pxor	%xmm2, %xmm4
	.loc	12 79 30 is_stmt 1              # crypto_stream/chacha20/dolbeau/u1.h:79:30
	movdqu	32(%rsi), %xmm2
.Ltmp395:
	.loc	12 79 11 is_stmt 0              # crypto_stream/chacha20/dolbeau/u1.h:79:11
	pxor	%xmm7, %xmm2
	.loc	12 80 30 is_stmt 1              # crypto_stream/chacha20/dolbeau/u1.h:80:30
	movdqu	48(%rsi), %xmm5
.Ltmp396:
	#DEBUG_VALUE: x_0 <- $xmm3
	#DEBUG_VALUE: x_1 <- $xmm4
	#DEBUG_VALUE: x_2 <- $xmm2
	.loc	12 80 11 is_stmt 0              # crypto_stream/chacha20/dolbeau/u1.h:80:11
	pxor	%xmm9, %xmm5
.Ltmp397:
	#DEBUG_VALUE: x_3 <- $xmm5
	.loc	12 81 5 is_stmt 1               # crypto_stream/chacha20/dolbeau/u1.h:81:5
	movdqu	%xmm3, (%rdx)
	.loc	12 82 5                         # crypto_stream/chacha20/dolbeau/u1.h:82:5
	movdqu	%xmm4, 16(%rdx)
	.loc	12 83 5                         # crypto_stream/chacha20/dolbeau/u1.h:83:5
	movdqu	%xmm2, 32(%rdx)
	.loc	12 84 5                         # crypto_stream/chacha20/dolbeau/u1.h:84:5
	movdqu	%xmm5, 48(%rdx)
.Ltmp398:
	#DEBUG_VALUE: in12 <- undef
	#DEBUG_VALUE: in13 <- undef
	.loc	12 92 11                        # crypto_stream/chacha20/dolbeau/u1.h:92:11
	addl	$1, 48(%rdi)
	.loc	12 93 11                        # crypto_stream/chacha20/dolbeau/u1.h:93:11
	adcl	$0, 52(%rdi)
	.loc	12 95 11                        # crypto_stream/chacha20/dolbeau/u1.h:95:11
	addq	$-64, %rcx
.Ltmp399:
	#DEBUG_VALUE: chacha20_encrypt_bytes:bytes <- $rcx
	.loc	12 96 7                         # crypto_stream/chacha20/dolbeau/u1.h:96:7
	addq	$64, %rdx
.Ltmp400:
	#DEBUG_VALUE: chacha20_encrypt_bytes:c <- $rdx
	.loc	12 97 7                         # crypto_stream/chacha20/dolbeau/u1.h:97:7
	addq	$64, %rsi
.Ltmp401:
	#DEBUG_VALUE: chacha20_encrypt_bytes:m <- $rsi
	.loc	12 1 14                         # crypto_stream/chacha20/dolbeau/u1.h:1:14
	cmpq	$63, %rcx
	.loc	12 1 1 is_stmt 0                # crypto_stream/chacha20/dolbeau/u1.h:1:1
	ja	.LBB4_7
.Ltmp402:
.LBB4_10:                               # %._crit_edge
	#DEBUG_VALUE: chacha20_encrypt_bytes:ctx <- $rdi
	#DEBUG_VALUE: chacha20_encrypt_bytes:m <- $rsi
	#DEBUG_VALUE: chacha20_encrypt_bytes:c <- $rdx
	#DEBUG_VALUE: chacha20_encrypt_bytes:bytes <- $rcx
	.file	13 "crypto_stream/chacha20/dolbeau" "u0.h"
	.loc	13 1 11                         # crypto_stream/chacha20/dolbeau/u0.h:1:11
	testq	%rcx, %rcx
	je	.LBB4_33
.Ltmp403:
# %bb.11:
	#DEBUG_VALUE: chacha20_encrypt_bytes:ctx <- $rdi
	#DEBUG_VALUE: chacha20_encrypt_bytes:m <- $rsi
	#DEBUG_VALUE: chacha20_encrypt_bytes:c <- $rdx
	#DEBUG_VALUE: chacha20_encrypt_bytes:bytes <- $rcx
	.loc	13 12 11 is_stmt 1              # crypto_stream/chacha20/dolbeau/u0.h:12:11
	movdqu	(%rdi), %xmm3
.Ltmp404:
	#DEBUG_VALUE: x_0 <- undef
	.loc	13 13 11                        # crypto_stream/chacha20/dolbeau/u0.h:13:11
	movdqu	16(%rdi), %xmm2
.Ltmp405:
	#DEBUG_VALUE: x_1 <- undef
	.loc	13 14 11                        # crypto_stream/chacha20/dolbeau/u0.h:14:11
	movdqu	32(%rdi), %xmm1
.Ltmp406:
	#DEBUG_VALUE: x_2 <- undef
	.loc	13 15 11                        # crypto_stream/chacha20/dolbeau/u0.h:15:11
	movdqu	48(%rdi), %xmm0
.Ltmp407:
	#DEBUG_VALUE: x_3 <- $xmm0
	.loc	13 0 11 is_stmt 0               # crypto_stream/chacha20/dolbeau/u0.h:0:11
	movl	$-2, %eax
.Ltmp408:
	#DEBUG_VALUE: i <- 0
	#DEBUG_VALUE: rot16 <- undef
	#DEBUG_VALUE: rot8 <- undef
	movdqa	.LCPI4_2(%rip), %xmm5           # xmm5 = [3,0,1,2,7,4,5,6,11,8,9,10,15,12,13,14]
	movdqa	.LCPI4_3(%rip), %xmm6           # xmm6 = [10,11,8,9,14,15,12,13,2,3,0,1,6,7,4,5]
	movdqa	%xmm0, %xmm9
	movdqa	%xmm1, %xmm8
	movdqa	%xmm2, %xmm4
	movdqa	%xmm3, %xmm7
.Ltmp409:
	.p2align	4
.LBB4_12:                               # =>This Inner Loop Header: Depth=1
	#DEBUG_VALUE: chacha20_encrypt_bytes:ctx <- $rdi
	#DEBUG_VALUE: chacha20_encrypt_bytes:m <- $rsi
	#DEBUG_VALUE: chacha20_encrypt_bytes:c <- $rdx
	#DEBUG_VALUE: chacha20_encrypt_bytes:bytes <- $rcx
	#DEBUG_VALUE: i <- [DW_OP_plus_uconst 2, DW_OP_stack_value] $eax
	#DEBUG_VALUE: x_3 <- $xmm9
	#DEBUG_VALUE: x_1 <- undef
	.loc	13 18 15 is_stmt 1              # crypto_stream/chacha20/dolbeau/u0.h:18:15
	paddd	%xmm4, %xmm7
.Ltmp410:
	#DEBUG_VALUE: x_0 <- $xmm7
	.loc	13 19 15                        # crypto_stream/chacha20/dolbeau/u0.h:19:15
	pxor	%xmm7, %xmm9
.Ltmp411:
	#DEBUG_VALUE: x_3 <- $xmm9
	.loc	13 20 15                        # crypto_stream/chacha20/dolbeau/u0.h:20:15
	pshuflw	$177, %xmm9, %xmm9              # xmm9 = xmm9[1,0,3,2,4,5,6,7]
.Ltmp412:
	pshufhw	$177, %xmm9, %xmm9              # xmm9 = xmm9[0,1,2,3,5,4,7,6]
.Ltmp413:
	#DEBUG_VALUE: x_3 <- $xmm9
	.loc	13 22 15                        # crypto_stream/chacha20/dolbeau/u0.h:22:15
	paddd	%xmm9, %xmm8
.Ltmp414:
	#DEBUG_VALUE: x_2 <- $xmm8
	#DEBUG_VALUE: t_1 <- undef
	.loc	13 26 15                        # crypto_stream/chacha20/dolbeau/u0.h:26:15
	pxor	%xmm8, %xmm4
.Ltmp415:
	#DEBUG_VALUE: x_1 <- [DW_OP_LLVM_arg 0, DW_OP_LLVM_arg 0, DW_OP_shl, DW_OP_stack_value] undef
	#DEBUG_VALUE: t_1 <- [DW_OP_LLVM_arg 0, DW_OP_LLVM_arg 0, DW_OP_shr, DW_OP_stack_value] undef
	.loc	13 28 15                        # crypto_stream/chacha20/dolbeau/u0.h:28:15
	movdqa	%xmm4, %xmm10
	psrld	$20, %xmm10
	pslld	$12, %xmm4
	por	%xmm10, %xmm4
.Ltmp416:
	#DEBUG_VALUE: x_1 <- undef
	.loc	13 30 15                        # crypto_stream/chacha20/dolbeau/u0.h:30:15
	paddd	%xmm4, %xmm7
.Ltmp417:
	#DEBUG_VALUE: x_0 <- $xmm7
	#DEBUG_VALUE: x_3 <- [DW_OP_LLVM_arg 0, DW_OP_LLVM_arg 1, DW_OP_xor, DW_OP_stack_value] $xmm9, $xmm7
	.loc	13 32 25                        # crypto_stream/chacha20/dolbeau/u0.h:32:25
	pshufd	$147, %xmm7, %xmm10             # xmm10 = xmm7[3,0,1,2]
.Ltmp418:
	#DEBUG_VALUE: x_0 <- $xmm10
	.loc	13 33 15                        # crypto_stream/chacha20/dolbeau/u0.h:33:15
	pshufb	%xmm5, %xmm7
.Ltmp419:
	pshufb	%xmm5, %xmm9
	pxor	%xmm7, %xmm9
.Ltmp420:
	#DEBUG_VALUE: x_3 <- $xmm9
	.loc	13 35 15                        # crypto_stream/chacha20/dolbeau/u0.h:35:15
	paddd	%xmm9, %xmm8
.Ltmp421:
	#DEBUG_VALUE: x_2 <- $xmm8
	#DEBUG_VALUE: x_3 <- undef
	.loc	13 37 15                        # crypto_stream/chacha20/dolbeau/u0.h:37:15
	pxor	%xmm8, %xmm4
.Ltmp422:
	#DEBUG_VALUE: x_1 <- $xmm4
	.loc	13 38 25                        # crypto_stream/chacha20/dolbeau/u0.h:38:25
	pshufd	$57, %xmm8, %xmm8               # xmm8 = xmm8[1,2,3,0]
.Ltmp423:
	#DEBUG_VALUE: x_1 <- [DW_OP_LLVM_arg 0, DW_OP_LLVM_arg 0, DW_OP_shl, DW_OP_stack_value] undef
	#DEBUG_VALUE: t_1 <- [DW_OP_LLVM_arg 0, DW_OP_LLVM_arg 0, DW_OP_shr, DW_OP_stack_value] undef
	#DEBUG_VALUE: x_2 <- $xmm8
	.loc	13 43 15                        # crypto_stream/chacha20/dolbeau/u0.h:43:15
	movdqa	%xmm4, %xmm7
	psrld	$25, %xmm7
	pslld	$7, %xmm4
	por	%xmm7, %xmm4
.Ltmp424:
	#DEBUG_VALUE: x_1 <- undef
	.loc	13 45 15                        # crypto_stream/chacha20/dolbeau/u0.h:45:15
	paddd	%xmm4, %xmm10
.Ltmp425:
	#DEBUG_VALUE: x_0 <- $xmm10
	.loc	13 47 15                        # crypto_stream/chacha20/dolbeau/u0.h:47:15
	pshuflw	$177, %xmm10, %xmm7             # xmm7 = xmm10[1,0,3,2,4,5,6,7]
	pshufhw	$177, %xmm7, %xmm7              # xmm7 = xmm7[0,1,2,3,5,4,7,6]
	pshufb	%xmm6, %xmm9
	pxor	%xmm7, %xmm9
.Ltmp426:
	#DEBUG_VALUE: x_3 <- $xmm9
	.loc	13 49 15                        # crypto_stream/chacha20/dolbeau/u0.h:49:15
	paddd	%xmm9, %xmm8
.Ltmp427:
	#DEBUG_VALUE: x_2 <- $xmm8
	.loc	13 50 15                        # crypto_stream/chacha20/dolbeau/u0.h:50:15
	pxor	%xmm8, %xmm4
	#DEBUG_VALUE: t_1 <- [DW_OP_LLVM_arg 0, DW_OP_LLVM_arg 0, DW_OP_shr, DW_OP_stack_value] undef
	.loc	13 55 15                        # crypto_stream/chacha20/dolbeau/u0.h:55:15
	movdqa	%xmm4, %xmm7
	psrld	$20, %xmm7
	pslld	$12, %xmm4
	por	%xmm7, %xmm4
	.loc	13 57 15                        # crypto_stream/chacha20/dolbeau/u0.h:57:15
	paddd	%xmm4, %xmm10
.Ltmp428:
	#DEBUG_VALUE: x_0 <- $xmm10
	#DEBUG_VALUE: x_3 <- [DW_OP_LLVM_arg 0, DW_OP_LLVM_arg 1, DW_OP_xor, DW_OP_stack_value] $xmm9, $xmm10
	.loc	13 59 25                        # crypto_stream/chacha20/dolbeau/u0.h:59:25
	pshufd	$57, %xmm10, %xmm7              # xmm7 = xmm10[1,2,3,0]
.Ltmp429:
	#DEBUG_VALUE: x_0 <- $xmm7
	.loc	13 60 15                        # crypto_stream/chacha20/dolbeau/u0.h:60:15
	pxor	%xmm9, %xmm10
.Ltmp430:
	pshufb	%xmm5, %xmm10
.Ltmp431:
	#DEBUG_VALUE: x_3 <- $xmm10
	.loc	13 62 15                        # crypto_stream/chacha20/dolbeau/u0.h:62:15
	paddd	%xmm10, %xmm8
.Ltmp432:
	#DEBUG_VALUE: x_2 <- $xmm8
	.loc	13 63 25                        # crypto_stream/chacha20/dolbeau/u0.h:63:25
	pshufd	$78, %xmm10, %xmm9              # xmm9 = xmm10[2,3,0,1]
.Ltmp433:
	#DEBUG_VALUE: x_3 <- $xmm9
	.loc	13 64 15                        # crypto_stream/chacha20/dolbeau/u0.h:64:15
	pxor	%xmm8, %xmm4
.Ltmp434:
	#DEBUG_VALUE: x_1 <- $xmm4
	.loc	13 65 25                        # crypto_stream/chacha20/dolbeau/u0.h:65:25
	pshufd	$147, %xmm8, %xmm8              # xmm8 = xmm8[3,0,1,2]
.Ltmp435:
	#DEBUG_VALUE: t_1 <- [DW_OP_LLVM_arg 0, DW_OP_LLVM_arg 0, DW_OP_shr, DW_OP_stack_value] undef
	#DEBUG_VALUE: x_2 <- $xmm8
	.loc	13 70 15                        # crypto_stream/chacha20/dolbeau/u0.h:70:15
	movdqa	%xmm4, %xmm10
	psrld	$25, %xmm10
	pslld	$7, %xmm4
.Ltmp436:
	por	%xmm10, %xmm4
.Ltmp437:
	#DEBUG_VALUE: i <- [DW_OP_plus_uconst 4, DW_OP_stack_value] $eax
	#DEBUG_VALUE: x_2 <- undef
	#DEBUG_VALUE: x_0 <- undef
	.loc	13 17 19                        # crypto_stream/chacha20/dolbeau/u0.h:17:19
	addl	$2, %eax
.Ltmp438:
	cmpl	$18, %eax
.Ltmp439:
	.loc	13 17 5 is_stmt 0               # crypto_stream/chacha20/dolbeau/u0.h:17:5
	jb	.LBB4_12
.Ltmp440:
# %bb.13:                               # %iter.check
	#DEBUG_VALUE: chacha20_encrypt_bytes:ctx <- $rdi
	#DEBUG_VALUE: chacha20_encrypt_bytes:m <- $rsi
	#DEBUG_VALUE: chacha20_encrypt_bytes:c <- $rdx
	#DEBUG_VALUE: chacha20_encrypt_bytes:bytes <- $rcx
	#DEBUG_VALUE: x_3 <- $xmm9
	#DEBUG_VALUE: x_1 <- $xmm4
	.loc	13 72 11 is_stmt 1              # crypto_stream/chacha20/dolbeau/u0.h:72:11
	paddd	%xmm3, %xmm7
.Ltmp441:
	#DEBUG_VALUE: x_0 <- $xmm7
	.loc	13 73 11                        # crypto_stream/chacha20/dolbeau/u0.h:73:11
	paddd	%xmm2, %xmm4
.Ltmp442:
	#DEBUG_VALUE: x_1 <- $xmm4
	.loc	13 74 11                        # crypto_stream/chacha20/dolbeau/u0.h:74:11
	paddd	%xmm1, %xmm8
.Ltmp443:
	#DEBUG_VALUE: x_2 <- $xmm8
	.loc	13 75 11                        # crypto_stream/chacha20/dolbeau/u0.h:75:11
	paddd	%xmm0, %xmm9
.Ltmp444:
	#DEBUG_VALUE: x_3 <- $xmm9
	.loc	13 76 5                         # crypto_stream/chacha20/dolbeau/u0.h:76:5
	movdqa	%xmm7, 304(%rsp)
	.loc	13 77 5                         # crypto_stream/chacha20/dolbeau/u0.h:77:5
	movdqa	%xmm4, 320(%rsp)
	.loc	13 78 5                         # crypto_stream/chacha20/dolbeau/u0.h:78:5
	movdqa	%xmm8, 336(%rsp)
	.loc	13 79 5                         # crypto_stream/chacha20/dolbeau/u0.h:79:5
	movdqa	%xmm9, 352(%rsp)
.Ltmp445:
	#DEBUG_VALUE: i <- 0
	.loc	13 81 5                         # crypto_stream/chacha20/dolbeau/u0.h:81:5
	cmpq	$4, %rcx
	jb	.LBB4_14
.Ltmp446:
# %bb.15:                               # %vector.memcheck
	#DEBUG_VALUE: chacha20_encrypt_bytes:ctx <- $rdi
	#DEBUG_VALUE: chacha20_encrypt_bytes:m <- $rsi
	#DEBUG_VALUE: chacha20_encrypt_bytes:c <- $rdx
	#DEBUG_VALUE: chacha20_encrypt_bytes:bytes <- $rcx
	#DEBUG_VALUE: x_0 <- $xmm7
	#DEBUG_VALUE: x_1 <- $xmm4
	#DEBUG_VALUE: x_2 <- $xmm8
	#DEBUG_VALUE: x_3 <- $xmm9
	#DEBUG_VALUE: i <- 0
	movq	%rdx, %rax
	subq	%rsi, %rax
	cmpq	$16, %rax
	setb	%al
	leaq	304(%rsp), %rdi
.Ltmp447:
	#DEBUG_VALUE: chacha20_encrypt_bytes:ctx <- [DW_OP_LLVM_entry_value 1] $rdi
	movq	%rdx, %r8
	subq	%rdi, %r8
	cmpq	$16, %r8
	setb	%dil
	orb	%al, %dil
.Ltmp448:
	.loc	13 81 29 is_stmt 0              # crypto_stream/chacha20/dolbeau/u0.h:81:29
	je	.LBB4_17
.Ltmp449:
.LBB4_14:
	#DEBUG_VALUE: chacha20_encrypt_bytes:ctx <- [DW_OP_LLVM_entry_value 1] $rdi
	#DEBUG_VALUE: chacha20_encrypt_bytes:m <- $rsi
	#DEBUG_VALUE: chacha20_encrypt_bytes:c <- $rdx
	#DEBUG_VALUE: chacha20_encrypt_bytes:bytes <- $rcx
	#DEBUG_VALUE: x_0 <- $xmm7
	#DEBUG_VALUE: x_1 <- $xmm4
	#DEBUG_VALUE: x_2 <- $xmm8
	#DEBUG_VALUE: x_3 <- $xmm9
	#DEBUG_VALUE: i <- 0
	.loc	13 0 29                         # crypto_stream/chacha20/dolbeau/u0.h:0:29
	xorl	%eax, %eax
.Ltmp450:
.LBB4_27:                               # %vec.epilog.scalar.ph.preheader
	#DEBUG_VALUE: chacha20_encrypt_bytes:ctx <- [DW_OP_LLVM_entry_value 1] $rdi
	#DEBUG_VALUE: chacha20_encrypt_bytes:m <- $rsi
	#DEBUG_VALUE: chacha20_encrypt_bytes:c <- $rdx
	#DEBUG_VALUE: chacha20_encrypt_bytes:bytes <- $rcx
	#DEBUG_VALUE: x_0 <- $xmm7
	#DEBUG_VALUE: x_1 <- $xmm4
	#DEBUG_VALUE: x_2 <- $xmm8
	#DEBUG_VALUE: x_3 <- $xmm9
	#DEBUG_VALUE: i <- 0
	.loc	13 81 5 is_stmt 1               # crypto_stream/chacha20/dolbeau/u0.h:81:5
	movq	%rcx, %r8
	movq	%rax, %rdi
	andq	$3, %r8
	je	.LBB4_30
.Ltmp451:
# %bb.28:                               # %vec.epilog.scalar.ph.prol.preheader
	#DEBUG_VALUE: chacha20_encrypt_bytes:ctx <- [DW_OP_LLVM_entry_value 1] $rdi
	#DEBUG_VALUE: chacha20_encrypt_bytes:m <- $rsi
	#DEBUG_VALUE: chacha20_encrypt_bytes:c <- $rdx
	#DEBUG_VALUE: chacha20_encrypt_bytes:bytes <- $rcx
	#DEBUG_VALUE: x_0 <- $xmm7
	#DEBUG_VALUE: x_1 <- $xmm4
	#DEBUG_VALUE: x_2 <- $xmm8
	#DEBUG_VALUE: x_3 <- $xmm9
	#DEBUG_VALUE: i <- 0
	.loc	13 0 5 is_stmt 0                # crypto_stream/chacha20/dolbeau/u0.h:0:5
	movq	%rax, %rdi
.Ltmp452:
	.p2align	4
.LBB4_29:                               # %vec.epilog.scalar.ph.prol
                                        # =>This Inner Loop Header: Depth=1
	#DEBUG_VALUE: chacha20_encrypt_bytes:ctx <- [DW_OP_LLVM_entry_value 1] $rdi
	#DEBUG_VALUE: chacha20_encrypt_bytes:m <- $rsi
	#DEBUG_VALUE: chacha20_encrypt_bytes:c <- $rdx
	#DEBUG_VALUE: chacha20_encrypt_bytes:bytes <- $rcx
	#DEBUG_VALUE: x_0 <- $xmm7
	#DEBUG_VALUE: x_1 <- $xmm4
	#DEBUG_VALUE: x_2 <- $xmm8
	#DEBUG_VALUE: x_3 <- $xmm9
	#DEBUG_VALUE: i <- $rdi
	.loc	13 82 23 is_stmt 1              # crypto_stream/chacha20/dolbeau/u0.h:82:23
	movzbl	304(%rsp,%rdi), %r9d
	.loc	13 82 21 is_stmt 0              # crypto_stream/chacha20/dolbeau/u0.h:82:21
	xorb	(%rsi,%rdi), %r9b
	.loc	13 82 14                        # crypto_stream/chacha20/dolbeau/u0.h:82:14
	movb	%r9b, (%rdx,%rdi)
.Ltmp453:
	.loc	13 81 29 is_stmt 1              # crypto_stream/chacha20/dolbeau/u0.h:81:29
	incq	%rdi
.Ltmp454:
	#DEBUG_VALUE: i <- $rdi
	.loc	13 81 5 is_stmt 0               # crypto_stream/chacha20/dolbeau/u0.h:81:5
	decq	%r8
	jne	.LBB4_29
.Ltmp455:
.LBB4_30:                               # %vec.epilog.scalar.ph.prol.loopexit
	#DEBUG_VALUE: chacha20_encrypt_bytes:ctx <- [DW_OP_LLVM_entry_value 1] $rdi
	#DEBUG_VALUE: chacha20_encrypt_bytes:m <- $rsi
	#DEBUG_VALUE: chacha20_encrypt_bytes:c <- $rdx
	#DEBUG_VALUE: chacha20_encrypt_bytes:bytes <- $rcx
	#DEBUG_VALUE: x_0 <- $xmm7
	#DEBUG_VALUE: x_1 <- $xmm4
	#DEBUG_VALUE: x_2 <- $xmm8
	#DEBUG_VALUE: x_3 <- $xmm9
	subq	%rcx, %rax
	cmpq	$-4, %rax
	ja	.LBB4_32
.Ltmp456:
	.loc	13 0 5                          # :0:5
.Ltmp457:
	.p2align	4
.LBB4_31:                               # %vec.epilog.scalar.ph
                                        # =>This Inner Loop Header: Depth=1
	#DEBUG_VALUE: chacha20_encrypt_bytes:ctx <- [DW_OP_LLVM_entry_value 1] $rdi
	#DEBUG_VALUE: chacha20_encrypt_bytes:m <- $rsi
	#DEBUG_VALUE: chacha20_encrypt_bytes:c <- $rdx
	#DEBUG_VALUE: chacha20_encrypt_bytes:bytes <- $rcx
	#DEBUG_VALUE: x_0 <- $xmm7
	#DEBUG_VALUE: x_1 <- $xmm4
	#DEBUG_VALUE: x_2 <- $xmm8
	#DEBUG_VALUE: x_3 <- $xmm9
	#DEBUG_VALUE: i <- $rdi
	.loc	13 82 23 is_stmt 1              # crypto_stream/chacha20/dolbeau/u0.h:82:23
	movzbl	304(%rsp,%rdi), %eax
	.loc	13 82 21 is_stmt 0              # crypto_stream/chacha20/dolbeau/u0.h:82:21
	xorb	(%rsi,%rdi), %al
	.loc	13 82 14                        # crypto_stream/chacha20/dolbeau/u0.h:82:14
	movb	%al, (%rdx,%rdi)
.Ltmp458:
	#DEBUG_VALUE: i <- [DW_OP_plus_uconst 1, DW_OP_stack_value] $rdi
	.loc	13 82 23                        # crypto_stream/chacha20/dolbeau/u0.h:82:23
	movzbl	305(%rsp,%rdi), %eax
	.loc	13 82 21                        # crypto_stream/chacha20/dolbeau/u0.h:82:21
	xorb	1(%rsi,%rdi), %al
	.loc	13 82 14                        # crypto_stream/chacha20/dolbeau/u0.h:82:14
	movb	%al, 1(%rdx,%rdi)
.Ltmp459:
	#DEBUG_VALUE: i <- [DW_OP_plus_uconst 2, DW_OP_stack_value] $rdi
	.loc	13 82 23                        # crypto_stream/chacha20/dolbeau/u0.h:82:23
	movzbl	306(%rsp,%rdi), %eax
	.loc	13 82 21                        # crypto_stream/chacha20/dolbeau/u0.h:82:21
	xorb	2(%rsi,%rdi), %al
	.loc	13 82 14                        # crypto_stream/chacha20/dolbeau/u0.h:82:14
	movb	%al, 2(%rdx,%rdi)
.Ltmp460:
	#DEBUG_VALUE: i <- [DW_OP_plus_uconst 3, DW_OP_stack_value] $rdi
	.loc	13 82 23                        # crypto_stream/chacha20/dolbeau/u0.h:82:23
	movzbl	307(%rsp,%rdi), %eax
	.loc	13 82 21                        # crypto_stream/chacha20/dolbeau/u0.h:82:21
	xorb	3(%rsi,%rdi), %al
	.loc	13 82 14                        # crypto_stream/chacha20/dolbeau/u0.h:82:14
	movb	%al, 3(%rdx,%rdi)
.Ltmp461:
	.loc	13 81 29 is_stmt 1              # crypto_stream/chacha20/dolbeau/u0.h:81:29
	addq	$4, %rdi
.Ltmp462:
	#DEBUG_VALUE: i <- $rdi
	.loc	13 81 19 is_stmt 0              # crypto_stream/chacha20/dolbeau/u0.h:81:19
	cmpq	%rdi, %rcx
.Ltmp463:
	.loc	13 81 5                         # crypto_stream/chacha20/dolbeau/u0.h:81:5
	jne	.LBB4_31
.Ltmp464:
.LBB4_32:                               # %.loopexit811
	#DEBUG_VALUE: chacha20_encrypt_bytes:ctx <- [DW_OP_LLVM_entry_value 1] $rdi
	#DEBUG_VALUE: chacha20_encrypt_bytes:m <- $rsi
	#DEBUG_VALUE: chacha20_encrypt_bytes:c <- $rdx
	#DEBUG_VALUE: chacha20_encrypt_bytes:bytes <- $rcx
	#DEBUG_VALUE: x_0 <- $xmm7
	#DEBUG_VALUE: x_1 <- $xmm4
	#DEBUG_VALUE: x_2 <- $xmm8
	#DEBUG_VALUE: x_3 <- $xmm9
	.loc	13 0 5                          # crypto_stream/chacha20/dolbeau/u0.h:0:5
	leaq	304(%rsp), %rdi
	.loc	13 85 5 is_stmt 1               # crypto_stream/chacha20/dolbeau/u0.h:85:5
	movl	$64, %esi
.Ltmp465:
	callq	sodium_memzero@PLT
.Ltmp466:
.LBB4_33:
	#DEBUG_VALUE: chacha20_encrypt_bytes:ctx <- [DW_OP_LLVM_entry_value 1] $rdi
	.loc	4 79 1                          # crypto_stream/chacha20/dolbeau/chacha20_dolbeau-ssse3.c:79:1
	movq	%fs:40, %rax
	cmpq	368(%rsp), %rax
	jne	.LBB4_35
.Ltmp467:
# %bb.34:                               # %SP_return
	#DEBUG_VALUE: chacha20_encrypt_bytes:ctx <- [DW_OP_LLVM_entry_value 1] $rdi
	.loc	4 79 1 epilogue_begin is_stmt 0 # crypto_stream/chacha20/dolbeau/chacha20_dolbeau-ssse3.c:79:1
	addq	$376, %rsp                      # imm = 0x178
	.cfi_def_cfa_offset 8
	retq
.Ltmp468:
.LBB4_17:                               # %vector.main.loop.iter.check
	.cfi_def_cfa_offset 384
	#DEBUG_VALUE: chacha20_encrypt_bytes:ctx <- [DW_OP_LLVM_entry_value 1] $rdi
	#DEBUG_VALUE: chacha20_encrypt_bytes:m <- $rsi
	#DEBUG_VALUE: chacha20_encrypt_bytes:c <- $rdx
	#DEBUG_VALUE: chacha20_encrypt_bytes:bytes <- $rcx
	#DEBUG_VALUE: x_0 <- $xmm7
	#DEBUG_VALUE: x_1 <- $xmm4
	#DEBUG_VALUE: x_2 <- $xmm8
	#DEBUG_VALUE: x_3 <- $xmm9
	#DEBUG_VALUE: i <- 0
	.loc	13 81 5 is_stmt 1               # crypto_stream/chacha20/dolbeau/u0.h:81:5
	cmpq	$16, %rcx
	jae	.LBB4_19
.Ltmp469:
# %bb.18:
	#DEBUG_VALUE: chacha20_encrypt_bytes:ctx <- [DW_OP_LLVM_entry_value 1] $rdi
	#DEBUG_VALUE: chacha20_encrypt_bytes:m <- $rsi
	#DEBUG_VALUE: chacha20_encrypt_bytes:c <- $rdx
	#DEBUG_VALUE: chacha20_encrypt_bytes:bytes <- $rcx
	#DEBUG_VALUE: x_0 <- $xmm7
	#DEBUG_VALUE: x_1 <- $xmm4
	#DEBUG_VALUE: x_2 <- $xmm8
	#DEBUG_VALUE: x_3 <- $xmm9
	#DEBUG_VALUE: i <- 0
	.loc	13 0 5 is_stmt 0                # crypto_stream/chacha20/dolbeau/u0.h:0:5
	xorl	%eax, %eax
	.loc	13 81 5                         # crypto_stream/chacha20/dolbeau/u0.h:81:5
	jmp	.LBB4_24
.Ltmp470:
.LBB4_19:                               # %vector.ph
	#DEBUG_VALUE: chacha20_encrypt_bytes:ctx <- [DW_OP_LLVM_entry_value 1] $rdi
	#DEBUG_VALUE: chacha20_encrypt_bytes:m <- $rsi
	#DEBUG_VALUE: chacha20_encrypt_bytes:c <- $rdx
	#DEBUG_VALUE: chacha20_encrypt_bytes:bytes <- $rcx
	#DEBUG_VALUE: x_0 <- $xmm7
	#DEBUG_VALUE: x_1 <- $xmm4
	#DEBUG_VALUE: x_2 <- $xmm8
	#DEBUG_VALUE: x_3 <- $xmm9
	#DEBUG_VALUE: i <- 0
	movl	%ecx, %eax
	andl	$48, %eax
.Ltmp471:
	.loc	13 82 23 is_stmt 1              # crypto_stream/chacha20/dolbeau/u0.h:82:23
	movq	304(%rsp), %rdi
	.loc	13 82 21 is_stmt 0              # crypto_stream/chacha20/dolbeau/u0.h:82:21
	xorq	(%rsi), %rdi
	.loc	13 82 23                        # crypto_stream/chacha20/dolbeau/u0.h:82:23
	movq	312(%rsp), %r8
	.loc	13 82 21                        # crypto_stream/chacha20/dolbeau/u0.h:82:21
	xorq	8(%rsi), %r8
	.loc	13 82 14                        # crypto_stream/chacha20/dolbeau/u0.h:82:14
	movq	%r8, %xmm0
	movq	%rdi, %xmm1
	punpcklqdq	%xmm0, %xmm1            # xmm1 = xmm1[0],xmm0[0]
	movdqu	%xmm1, (%rdx)
.Ltmp472:
	.loc	13 81 29 is_stmt 1              # crypto_stream/chacha20/dolbeau/u0.h:81:29
	cmpq	$16, %rax
	je	.LBB4_22
.Ltmp473:
# %bb.20:                               # %vector.body.1
	#DEBUG_VALUE: chacha20_encrypt_bytes:ctx <- [DW_OP_LLVM_entry_value 1] $rdi
	#DEBUG_VALUE: chacha20_encrypt_bytes:m <- $rsi
	#DEBUG_VALUE: chacha20_encrypt_bytes:c <- $rdx
	#DEBUG_VALUE: chacha20_encrypt_bytes:bytes <- $rcx
	#DEBUG_VALUE: x_0 <- $xmm7
	#DEBUG_VALUE: x_1 <- $xmm4
	#DEBUG_VALUE: x_2 <- $xmm8
	#DEBUG_VALUE: x_3 <- $xmm9
	#DEBUG_VALUE: i <- 0
	.loc	13 82 23                        # crypto_stream/chacha20/dolbeau/u0.h:82:23
	movq	320(%rsp), %rdi
	.loc	13 82 21 is_stmt 0              # crypto_stream/chacha20/dolbeau/u0.h:82:21
	xorq	16(%rsi), %rdi
	.loc	13 82 23                        # crypto_stream/chacha20/dolbeau/u0.h:82:23
	movq	328(%rsp), %r8
	.loc	13 82 21                        # crypto_stream/chacha20/dolbeau/u0.h:82:21
	xorq	24(%rsi), %r8
	.loc	13 82 14                        # crypto_stream/chacha20/dolbeau/u0.h:82:14
	movq	%r8, %xmm0
	movq	%rdi, %xmm1
	punpcklqdq	%xmm0, %xmm1            # xmm1 = xmm1[0],xmm0[0]
	movdqu	%xmm1, 16(%rdx)
.Ltmp474:
	.loc	13 81 29 is_stmt 1              # crypto_stream/chacha20/dolbeau/u0.h:81:29
	cmpl	$32, %eax
	je	.LBB4_22
.Ltmp475:
# %bb.21:                               # %vector.body.2
	#DEBUG_VALUE: chacha20_encrypt_bytes:ctx <- [DW_OP_LLVM_entry_value 1] $rdi
	#DEBUG_VALUE: chacha20_encrypt_bytes:m <- $rsi
	#DEBUG_VALUE: chacha20_encrypt_bytes:c <- $rdx
	#DEBUG_VALUE: chacha20_encrypt_bytes:bytes <- $rcx
	#DEBUG_VALUE: x_0 <- $xmm7
	#DEBUG_VALUE: x_1 <- $xmm4
	#DEBUG_VALUE: x_2 <- $xmm8
	#DEBUG_VALUE: x_3 <- $xmm9
	#DEBUG_VALUE: i <- 0
	.loc	13 82 23                        # crypto_stream/chacha20/dolbeau/u0.h:82:23
	movq	336(%rsp), %rdi
	movq	344(%rsp), %r8
	.loc	13 82 21 is_stmt 0              # crypto_stream/chacha20/dolbeau/u0.h:82:21
	xorq	32(%rsi), %rdi
	xorq	40(%rsi), %r8
	.loc	13 82 14                        # crypto_stream/chacha20/dolbeau/u0.h:82:14
	movq	%r8, %xmm0
	movq	%rdi, %xmm1
	punpcklqdq	%xmm0, %xmm1            # xmm1 = xmm1[0],xmm0[0]
	movdqu	%xmm1, 32(%rdx)
.Ltmp476:
.LBB4_22:                               # %middle.block
	#DEBUG_VALUE: chacha20_encrypt_bytes:ctx <- [DW_OP_LLVM_entry_value 1] $rdi
	#DEBUG_VALUE: chacha20_encrypt_bytes:m <- $rsi
	#DEBUG_VALUE: chacha20_encrypt_bytes:c <- $rdx
	#DEBUG_VALUE: chacha20_encrypt_bytes:bytes <- $rcx
	#DEBUG_VALUE: x_0 <- $xmm7
	#DEBUG_VALUE: x_1 <- $xmm4
	#DEBUG_VALUE: x_2 <- $xmm8
	#DEBUG_VALUE: x_3 <- $xmm9
	#DEBUG_VALUE: i <- 0
	.loc	13 81 5 is_stmt 1               # crypto_stream/chacha20/dolbeau/u0.h:81:5
	cmpq	%rax, %rcx
	je	.LBB4_32
.Ltmp477:
# %bb.23:                               # %vec.epilog.iter.check
	#DEBUG_VALUE: chacha20_encrypt_bytes:ctx <- [DW_OP_LLVM_entry_value 1] $rdi
	#DEBUG_VALUE: chacha20_encrypt_bytes:m <- $rsi
	#DEBUG_VALUE: chacha20_encrypt_bytes:c <- $rdx
	#DEBUG_VALUE: chacha20_encrypt_bytes:bytes <- $rcx
	#DEBUG_VALUE: x_0 <- $xmm7
	#DEBUG_VALUE: x_1 <- $xmm4
	#DEBUG_VALUE: x_2 <- $xmm8
	#DEBUG_VALUE: x_3 <- $xmm9
	#DEBUG_VALUE: i <- 0
	testb	$12, %cl
	je	.LBB4_27
.Ltmp478:
.LBB4_24:                               # %vec.epilog.ph
	#DEBUG_VALUE: chacha20_encrypt_bytes:ctx <- [DW_OP_LLVM_entry_value 1] $rdi
	#DEBUG_VALUE: chacha20_encrypt_bytes:m <- $rsi
	#DEBUG_VALUE: chacha20_encrypt_bytes:c <- $rdx
	#DEBUG_VALUE: chacha20_encrypt_bytes:bytes <- $rcx
	#DEBUG_VALUE: x_0 <- $xmm7
	#DEBUG_VALUE: x_1 <- $xmm4
	#DEBUG_VALUE: x_2 <- $xmm8
	#DEBUG_VALUE: x_3 <- $xmm9
	#DEBUG_VALUE: i <- 0
	.loc	13 0 5 is_stmt 0                # crypto_stream/chacha20/dolbeau/u0.h:0:5
	movq	%rax, %rdi
	.loc	13 81 5                         # crypto_stream/chacha20/dolbeau/u0.h:81:5
	movl	%ecx, %eax
	andl	$60, %eax
.Ltmp479:
	.loc	13 0 5                          # :0:5
.Ltmp480:
	.p2align	4
.LBB4_25:                               # %vec.epilog.vector.body
                                        # =>This Inner Loop Header: Depth=1
	#DEBUG_VALUE: chacha20_encrypt_bytes:ctx <- [DW_OP_LLVM_entry_value 1] $rdi
	#DEBUG_VALUE: chacha20_encrypt_bytes:m <- $rsi
	#DEBUG_VALUE: chacha20_encrypt_bytes:c <- $rdx
	#DEBUG_VALUE: chacha20_encrypt_bytes:bytes <- $rcx
	#DEBUG_VALUE: x_0 <- $xmm7
	#DEBUG_VALUE: x_1 <- $xmm4
	#DEBUG_VALUE: x_2 <- $xmm8
	#DEBUG_VALUE: x_3 <- $xmm9
	#DEBUG_VALUE: i <- 0
	.loc	13 82 23 is_stmt 1              # crypto_stream/chacha20/dolbeau/u0.h:82:23
	movl	304(%rsp,%rdi), %r8d
	.loc	13 82 21 is_stmt 0              # crypto_stream/chacha20/dolbeau/u0.h:82:21
	xorl	(%rsi,%rdi), %r8d
	.loc	13 82 14                        # crypto_stream/chacha20/dolbeau/u0.h:82:14
	movl	%r8d, (%rdx,%rdi)
.Ltmp481:
	.loc	13 81 29 is_stmt 1              # crypto_stream/chacha20/dolbeau/u0.h:81:29
	addq	$4, %rdi
	cmpq	%rdi, %rax
	jne	.LBB4_25
.Ltmp482:
# %bb.26:                               # %vec.epilog.middle.block
	#DEBUG_VALUE: chacha20_encrypt_bytes:ctx <- [DW_OP_LLVM_entry_value 1] $rdi
	#DEBUG_VALUE: chacha20_encrypt_bytes:m <- $rsi
	#DEBUG_VALUE: chacha20_encrypt_bytes:c <- $rdx
	#DEBUG_VALUE: chacha20_encrypt_bytes:bytes <- $rcx
	#DEBUG_VALUE: x_0 <- $xmm7
	#DEBUG_VALUE: x_1 <- $xmm4
	#DEBUG_VALUE: x_2 <- $xmm8
	#DEBUG_VALUE: x_3 <- $xmm9
	#DEBUG_VALUE: i <- 0
	.loc	13 81 5 is_stmt 0               # crypto_stream/chacha20/dolbeau/u0.h:81:5
	cmpq	%rax, %rcx
	je	.LBB4_32
	jmp	.LBB4_27
.Ltmp483:
.LBB4_35:                               # %CallStackCheckFailBlk
	#DEBUG_VALUE: chacha20_encrypt_bytes:ctx <- [DW_OP_LLVM_entry_value 1] $rdi
	.loc	4 0 0                           # crypto_stream/chacha20/dolbeau/chacha20_dolbeau-ssse3.c:0
	callq	__stack_chk_fail@PLT
.Ltmp484:
.Lfunc_end4:
	.size	chacha20_encrypt_bytes, .Lfunc_end4-chacha20_encrypt_bytes
	.cfi_endproc
                                        # -- End function
	.hidden	crypto_stream_chacha20_dolbeau_ssse3_implementation # @crypto_stream_chacha20_dolbeau_ssse3_implementation
	.type	crypto_stream_chacha20_dolbeau_ssse3_implementation,@object
	.data
	.globl	crypto_stream_chacha20_dolbeau_ssse3_implementation
	.p2align	3, 0x0
crypto_stream_chacha20_dolbeau_ssse3_implementation:
	.quad	stream_ref
	.quad	stream_ietf_ext_ref
	.quad	stream_ref_xor_ic
	.quad	stream_ietf_ext_ref_xor_ic
	.size	crypto_stream_chacha20_dolbeau_ssse3_implementation, 32

	.section	".note.GNU-stack","",@progbits
	.addrsig
	.addrsig_sym stream_ref
	.addrsig_sym stream_ietf_ext_ref
	.addrsig_sym stream_ref_xor_ic
	.addrsig_sym stream_ietf_ext_ref_xor_ic
	.addrsig_sym __stack_chk_fail