	.file	"core_salsa_ref.c"
	.file	0 "/home/leizhenyuu/opt/Anonymous_Repo/libsodium_o2_attr_inline/src/libsodium" "core_salsa_ref.c" md5 0xbde91fc16988592900f37fe3d0a955da
	.text
	.globl	crypto_core_salsa20             # -- Begin function crypto_core_salsa20
	.p2align	4
	.type	crypto_core_salsa20,@function
crypto_core_salsa20:                    # @crypto_core_salsa20
.Lfunc_begin0:
	.file	1 "crypto_core/salsa/ref" "core_salsa_ref.c"
	.loc	1 100 0                         # crypto_core/salsa/ref/core_salsa_ref.c:100:0
	.cfi_startproc
# %bb.0:
	#DEBUG_VALUE: crypto_core_salsa20:out <- $rdi
	#DEBUG_VALUE: crypto_core_salsa20:in <- $rsi
	#DEBUG_VALUE: crypto_core_salsa20:k <- $rdx
	#DEBUG_VALUE: crypto_core_salsa20:c <- $rcx
	pushq	%rax
	.cfi_def_cfa_offset 16
.Ltmp0:
	.loc	1 101 5 prologue_end            # crypto_core/salsa/ref/core_salsa_ref.c:101:5
	movl	$20, %r8d
	callq	crypto_core_salsa
.Ltmp1:
	#DEBUG_VALUE: crypto_core_salsa20:c <- [DW_OP_LLVM_entry_value 1] $rcx
	#DEBUG_VALUE: crypto_core_salsa20:k <- [DW_OP_LLVM_entry_value 1] $rdx
	#DEBUG_VALUE: crypto_core_salsa20:in <- [DW_OP_LLVM_entry_value 1] $rsi
	#DEBUG_VALUE: crypto_core_salsa20:out <- [DW_OP_LLVM_entry_value 1] $rdi
	.loc	1 102 5                         # crypto_core/salsa/ref/core_salsa_ref.c:102:5
	xorl	%eax, %eax
	.loc	1 102 5 epilogue_begin is_stmt 0 # crypto_core/salsa/ref/core_salsa_ref.c:102:5
	popq	%rcx
	.cfi_def_cfa_offset 8
	retq
.Ltmp2:
.Lfunc_end0:
	.size	crypto_core_salsa20, .Lfunc_end0-crypto_core_salsa20
	.cfi_endproc
                                        # -- End function
	.p2align	4                               # -- Begin function crypto_core_salsa
	.type	crypto_core_salsa,@function
crypto_core_salsa:                      # @crypto_core_salsa
.Lfunc_begin1:
	.loc	1 14 0 is_stmt 1                # crypto_core/salsa/ref/core_salsa_ref.c:14:0
	.cfi_startproc
# %bb.0:
	#DEBUG_VALUE: crypto_core_salsa:out <- $rdi
	#DEBUG_VALUE: crypto_core_salsa:in <- $rsi
	#DEBUG_VALUE: crypto_core_salsa:k <- $rdx
	#DEBUG_VALUE: crypto_core_salsa:c <- $rcx
	#DEBUG_VALUE: crypto_core_salsa:rounds <- $r8d
	pushq	%rbp
	.cfi_def_cfa_offset 16
	pushq	%r15
	.cfi_def_cfa_offset 24
	pushq	%r14
	.cfi_def_cfa_offset 32
	pushq	%r13
	.cfi_def_cfa_offset 40
	pushq	%r12
	.cfi_def_cfa_offset 48
	pushq	%rbx
	.cfi_def_cfa_offset 56
	subq	$32, %rsp
	.cfi_def_cfa_offset 88
	.cfi_offset %rbx, -56
	.cfi_offset %r12, -48
	.cfi_offset %r13, -40
	.cfi_offset %r14, -32
	.cfi_offset %r15, -24
	.cfi_offset %rbp, -16
	movq	%rdi, -40(%rsp)                 # 8-byte Spill
.Ltmp3:
	#DEBUG_VALUE: crypto_core_salsa:out <- [DW_OP_constu 40, DW_OP_minus] [$rsp+0]
	#DEBUG_VALUE: crypto_core_salsa:x0 <- 1634760805
	#DEBUG_VALUE: crypto_core_salsa:j0 <- 1634760805
	#DEBUG_VALUE: crypto_core_salsa:x5 <- 857760878
	#DEBUG_VALUE: crypto_core_salsa:j5 <- 857760878
	#DEBUG_VALUE: crypto_core_salsa:x10 <- 2036477234
	#DEBUG_VALUE: crypto_core_salsa:j10 <- 2036477234
	#DEBUG_VALUE: crypto_core_salsa:x15 <- 1797285236
	#DEBUG_VALUE: crypto_core_salsa:j15 <- 1797285236
	.loc	1 25 11 prologue_end            # crypto_core/salsa/ref/core_salsa_ref.c:25:11
	testq	%rcx, %rcx
	movl	%r8d, -44(%rsp)                 # 4-byte Spill
.Ltmp4:
	#DEBUG_VALUE: crypto_core_salsa:rounds <- [DW_OP_constu 44, DW_OP_minus] [$rsp+0]
	je	.LBB1_1
.Ltmp5:
# %bb.2:
	#DEBUG_VALUE: crypto_core_salsa:out <- [DW_OP_constu 40, DW_OP_minus] [$rsp+0]
	#DEBUG_VALUE: crypto_core_salsa:in <- $rsi
	#DEBUG_VALUE: crypto_core_salsa:k <- $rdx
	#DEBUG_VALUE: crypto_core_salsa:c <- $rcx
	#DEBUG_VALUE: crypto_core_salsa:rounds <- [DW_OP_constu 44, DW_OP_minus] [$rsp+0]
	#DEBUG_VALUE: crypto_core_salsa:x0 <- 1634760805
	#DEBUG_VALUE: crypto_core_salsa:j0 <- 1634760805
	#DEBUG_VALUE: crypto_core_salsa:x5 <- 857760878
	#DEBUG_VALUE: crypto_core_salsa:j5 <- 857760878
	#DEBUG_VALUE: crypto_core_salsa:x10 <- 2036477234
	#DEBUG_VALUE: crypto_core_salsa:j10 <- 2036477234
	#DEBUG_VALUE: crypto_core_salsa:x15 <- 1797285236
	#DEBUG_VALUE: crypto_core_salsa:j15 <- 1797285236
	#DEBUG_VALUE: load32_le:w <- undef
	#DEBUG_VALUE: load32_le:src <- $rcx
	#DEBUG_VALUE: memcpy:__dest <- undef
	#DEBUG_VALUE: memcpy:__src <- $rcx
	#DEBUG_VALUE: memcpy:__len <- 4
	.file	2 "/usr/include/x86_64-linux-gnu/bits" "string_fortified.h"
	.loc	2 29 10                         # /usr/include/x86_64-linux-gnu/bits/string_fortified.h:29:10 @[ ./include/sodium/private/common.h:106:5 @[ crypto_core/salsa/ref/core_salsa_ref.c:26:19 ] ]
	movl	(%rcx), %r8d
.Ltmp6:
	#DEBUG_VALUE: crypto_core_salsa:x0 <- $r8d
	#DEBUG_VALUE: crypto_core_salsa:j0 <- $r8d
	#DEBUG_VALUE: load32_le:w <- undef
	#DEBUG_VALUE: memcpy:__dest <- undef
	#DEBUG_VALUE: memcpy:__len <- 4
	#DEBUG_VALUE: load32_le:src <- [DW_OP_plus_uconst 4, DW_OP_stack_value] $rcx
	#DEBUG_VALUE: memcpy:__src <- [DW_OP_plus_uconst 4, DW_OP_stack_value] $rcx
	.loc	2 29 10 is_stmt 0               # /usr/include/x86_64-linux-gnu/bits/string_fortified.h:29:10 @[ ./include/sodium/private/common.h:106:5 @[ crypto_core/salsa/ref/core_salsa_ref.c:27:19 ] ]
	movl	4(%rcx), %eax
.Ltmp7:
	#DEBUG_VALUE: crypto_core_salsa:x5 <- $eax
	#DEBUG_VALUE: crypto_core_salsa:j5 <- $eax
	#DEBUG_VALUE: load32_le:w <- undef
	#DEBUG_VALUE: memcpy:__dest <- undef
	#DEBUG_VALUE: memcpy:__len <- 4
	#DEBUG_VALUE: load32_le:src <- [DW_OP_plus_uconst 8, DW_OP_stack_value] $rcx
	#DEBUG_VALUE: memcpy:__src <- [DW_OP_plus_uconst 8, DW_OP_stack_value] $rcx
	.loc	2 29 10                         # /usr/include/x86_64-linux-gnu/bits/string_fortified.h:29:10 @[ ./include/sodium/private/common.h:106:5 @[ crypto_core/salsa/ref/core_salsa_ref.c:28:21 ] ]
	movl	8(%rcx), %edi
.Ltmp8:
	#DEBUG_VALUE: crypto_core_salsa:x10 <- $edi
	#DEBUG_VALUE: crypto_core_salsa:j10 <- $edi
	#DEBUG_VALUE: load32_le:w <- undef
	#DEBUG_VALUE: memcpy:__dest <- undef
	#DEBUG_VALUE: memcpy:__len <- 4
	#DEBUG_VALUE: load32_le:src <- [DW_OP_plus_uconst 12, DW_OP_stack_value] $rcx
	#DEBUG_VALUE: memcpy:__src <- [DW_OP_plus_uconst 12, DW_OP_stack_value] $rcx
	.loc	2 0 10                          # /usr/include/x86_64-linux-gnu/bits/string_fortified.h:0:10
	movl	%edi, -128(%rsp)                # 4-byte Spill
.Ltmp9:
	#DEBUG_VALUE: crypto_core_salsa:j10 <- [DW_OP_constu 128, DW_OP_minus, DW_OP_deref] $rsp
	#DEBUG_VALUE: crypto_core_salsa:x10 <- [DW_OP_constu 128, DW_OP_minus, DW_OP_deref] $rsp
	.loc	2 29 10                         # /usr/include/x86_64-linux-gnu/bits/string_fortified.h:29:10 @[ ./include/sodium/private/common.h:106:5 @[ crypto_core/salsa/ref/core_salsa_ref.c:29:21 ] ]
	movl	12(%rcx), %ecx
.Ltmp10:
	#DEBUG_VALUE: crypto_core_salsa:c <- [DW_OP_LLVM_entry_value 1] $rcx
	#DEBUG_VALUE: crypto_core_salsa:x15 <- $ecx
	#DEBUG_VALUE: crypto_core_salsa:j15 <- $ecx
	.loc	2 0 10                          # /usr/include/x86_64-linux-gnu/bits/string_fortified.h:0:10
	movl	%ecx, -124(%rsp)                # 4-byte Spill
.Ltmp11:
	#DEBUG_VALUE: crypto_core_salsa:j15 <- [DW_OP_constu 124, DW_OP_minus, DW_OP_deref] $rsp
	#DEBUG_VALUE: crypto_core_salsa:x15 <- [DW_OP_constu 124, DW_OP_minus, DW_OP_deref] $rsp
	jmp	.LBB1_3
.Ltmp12:
.LBB1_1:
	#DEBUG_VALUE: crypto_core_salsa:out <- [DW_OP_constu 40, DW_OP_minus] [$rsp+0]
	#DEBUG_VALUE: crypto_core_salsa:in <- $rsi
	#DEBUG_VALUE: crypto_core_salsa:k <- $rdx
	#DEBUG_VALUE: crypto_core_salsa:c <- $rcx
	#DEBUG_VALUE: crypto_core_salsa:rounds <- [DW_OP_constu 44, DW_OP_minus] [$rsp+0]
	#DEBUG_VALUE: crypto_core_salsa:x0 <- 1634760805
	#DEBUG_VALUE: crypto_core_salsa:j0 <- 1634760805
	#DEBUG_VALUE: crypto_core_salsa:x5 <- 857760878
	#DEBUG_VALUE: crypto_core_salsa:j5 <- 857760878
	#DEBUG_VALUE: crypto_core_salsa:x10 <- 2036477234
	#DEBUG_VALUE: crypto_core_salsa:j10 <- 2036477234
	#DEBUG_VALUE: crypto_core_salsa:x15 <- 1797285236
	#DEBUG_VALUE: crypto_core_salsa:j15 <- 1797285236
	movl	$1797285236, -124(%rsp)         # 4-byte Folded Spill
                                        # imm = 0x6B206574
	movl	$1634760805, %r8d               # imm = 0x61707865
	movl	$2036477234, -128(%rsp)         # 4-byte Folded Spill
                                        # imm = 0x79622D32
	movl	$857760878, %eax                # imm = 0x3320646E
.Ltmp13:
.LBB1_3:
	#DEBUG_VALUE: crypto_core_salsa:out <- [DW_OP_constu 40, DW_OP_minus] [$rsp+0]
	#DEBUG_VALUE: crypto_core_salsa:in <- $rsi
	#DEBUG_VALUE: crypto_core_salsa:k <- $rdx
	#DEBUG_VALUE: crypto_core_salsa:c <- [DW_OP_LLVM_entry_value 1] $rcx
	#DEBUG_VALUE: crypto_core_salsa:rounds <- [DW_OP_constu 44, DW_OP_minus] [$rsp+0]
	#DEBUG_VALUE: crypto_core_salsa:j15 <- [DW_OP_constu 124, DW_OP_minus, DW_OP_deref] $rsp
	#DEBUG_VALUE: crypto_core_salsa:x0 <- $r8d
	#DEBUG_VALUE: crypto_core_salsa:j10 <- [DW_OP_constu 128, DW_OP_minus, DW_OP_deref] $rsp
	#DEBUG_VALUE: crypto_core_salsa:x5 <- $eax
	#DEBUG_VALUE: crypto_core_salsa:j5 <- $eax
	#DEBUG_VALUE: crypto_core_salsa:x10 <- [DW_OP_constu 128, DW_OP_minus, DW_OP_deref] $rsp
	#DEBUG_VALUE: crypto_core_salsa:j0 <- $r8d
	#DEBUG_VALUE: crypto_core_salsa:x15 <- [DW_OP_constu 124, DW_OP_minus, DW_OP_deref] $rsp
	#DEBUG_VALUE: load32_le:w <- undef
	#DEBUG_VALUE: load32_le:src <- $rdx
	#DEBUG_VALUE: memcpy:__dest <- undef
	#DEBUG_VALUE: memcpy:__src <- $rdx
	#DEBUG_VALUE: memcpy:__len <- 4
	.loc	2 29 10 is_stmt 1               # /usr/include/x86_64-linux-gnu/bits/string_fortified.h:29:10 @[ ./include/sodium/private/common.h:106:5 @[ crypto_core/salsa/ref/core_salsa_ref.c:31:15 ] ]
	movl	(%rdx), %r13d
.Ltmp14:
	#DEBUG_VALUE: crypto_core_salsa:x1 <- $r13d
	#DEBUG_VALUE: crypto_core_salsa:j1 <- $r13d
	#DEBUG_VALUE: load32_le:w <- undef
	#DEBUG_VALUE: memcpy:__dest <- undef
	#DEBUG_VALUE: memcpy:__len <- 4
	#DEBUG_VALUE: load32_le:src <- [DW_OP_plus_uconst 4, DW_OP_stack_value] $rdx
	#DEBUG_VALUE: memcpy:__src <- [DW_OP_plus_uconst 4, DW_OP_stack_value] $rdx
	.loc	2 29 10 is_stmt 0               # /usr/include/x86_64-linux-gnu/bits/string_fortified.h:29:10 @[ ./include/sodium/private/common.h:106:5 @[ crypto_core/salsa/ref/core_salsa_ref.c:32:15 ] ]
	movl	4(%rdx), %r14d
.Ltmp15:
	#DEBUG_VALUE: crypto_core_salsa:x2 <- $r14d
	#DEBUG_VALUE: crypto_core_salsa:j2 <- $r14d
	#DEBUG_VALUE: load32_le:w <- undef
	#DEBUG_VALUE: memcpy:__dest <- undef
	#DEBUG_VALUE: memcpy:__len <- 4
	#DEBUG_VALUE: load32_le:src <- [DW_OP_plus_uconst 8, DW_OP_stack_value] $rdx
	#DEBUG_VALUE: memcpy:__src <- [DW_OP_plus_uconst 8, DW_OP_stack_value] $rdx
	.loc	2 29 10                         # /usr/include/x86_64-linux-gnu/bits/string_fortified.h:29:10 @[ ./include/sodium/private/common.h:106:5 @[ crypto_core/salsa/ref/core_salsa_ref.c:33:15 ] ]
	movl	8(%rdx), %r12d
.Ltmp16:
	#DEBUG_VALUE: crypto_core_salsa:x3 <- $r12d
	#DEBUG_VALUE: crypto_core_salsa:j3 <- $r12d
	#DEBUG_VALUE: load32_le:w <- undef
	#DEBUG_VALUE: memcpy:__dest <- undef
	#DEBUG_VALUE: memcpy:__len <- 4
	#DEBUG_VALUE: load32_le:src <- [DW_OP_plus_uconst 12, DW_OP_stack_value] $rdx
	#DEBUG_VALUE: memcpy:__src <- [DW_OP_plus_uconst 12, DW_OP_stack_value] $rdx
	.loc	2 29 10                         # /usr/include/x86_64-linux-gnu/bits/string_fortified.h:29:10 @[ ./include/sodium/private/common.h:106:5 @[ crypto_core/salsa/ref/core_salsa_ref.c:34:15 ] ]
	movl	12(%rdx), %r15d
.Ltmp17:
	#DEBUG_VALUE: crypto_core_salsa:x4 <- $r15d
	#DEBUG_VALUE: crypto_core_salsa:j4 <- $r15d
	#DEBUG_VALUE: load32_le:w <- undef
	#DEBUG_VALUE: memcpy:__dest <- undef
	#DEBUG_VALUE: memcpy:__len <- 4
	#DEBUG_VALUE: load32_le:src <- [DW_OP_plus_uconst 16, DW_OP_stack_value] $rdx
	#DEBUG_VALUE: memcpy:__src <- [DW_OP_plus_uconst 16, DW_OP_stack_value] $rdx
	.loc	2 29 10                         # /usr/include/x86_64-linux-gnu/bits/string_fortified.h:29:10 @[ ./include/sodium/private/common.h:106:5 @[ crypto_core/salsa/ref/core_salsa_ref.c:35:17 ] ]
	movl	16(%rdx), %ebp
.Ltmp18:
	#DEBUG_VALUE: crypto_core_salsa:x11 <- $ebp
	#DEBUG_VALUE: crypto_core_salsa:j11 <- $ebp
	#DEBUG_VALUE: load32_le:w <- undef
	#DEBUG_VALUE: memcpy:__dest <- undef
	#DEBUG_VALUE: memcpy:__len <- 4
	#DEBUG_VALUE: load32_le:src <- [DW_OP_plus_uconst 20, DW_OP_stack_value] $rdx
	#DEBUG_VALUE: memcpy:__src <- [DW_OP_plus_uconst 20, DW_OP_stack_value] $rdx
	.loc	2 29 10                         # /usr/include/x86_64-linux-gnu/bits/string_fortified.h:29:10 @[ ./include/sodium/private/common.h:106:5 @[ crypto_core/salsa/ref/core_salsa_ref.c:36:17 ] ]
	movl	20(%rdx), %ecx
.Ltmp19:
	#DEBUG_VALUE: crypto_core_salsa:x12 <- $ecx
	#DEBUG_VALUE: crypto_core_salsa:j12 <- $ecx
	#DEBUG_VALUE: load32_le:w <- undef
	#DEBUG_VALUE: memcpy:__dest <- undef
	#DEBUG_VALUE: memcpy:__len <- 4
	#DEBUG_VALUE: load32_le:src <- [DW_OP_plus_uconst 24, DW_OP_stack_value] $rdx
	#DEBUG_VALUE: memcpy:__src <- [DW_OP_plus_uconst 24, DW_OP_stack_value] $rdx
	.loc	2 0 10                          # /usr/include/x86_64-linux-gnu/bits/string_fortified.h:0:10
	movl	%ecx, -120(%rsp)                # 4-byte Spill
.Ltmp20:
	#DEBUG_VALUE: crypto_core_salsa:j12 <- [DW_OP_constu 120, DW_OP_minus, DW_OP_deref] $rsp
	#DEBUG_VALUE: crypto_core_salsa:x12 <- [DW_OP_constu 120, DW_OP_minus, DW_OP_deref] $rsp
	.loc	2 29 10                         # /usr/include/x86_64-linux-gnu/bits/string_fortified.h:29:10 @[ ./include/sodium/private/common.h:106:5 @[ crypto_core/salsa/ref/core_salsa_ref.c:37:17 ] ]
	movl	24(%rdx), %r11d
.Ltmp21:
	#DEBUG_VALUE: crypto_core_salsa:x13 <- $r11d
	#DEBUG_VALUE: crypto_core_salsa:j13 <- $r11d
	#DEBUG_VALUE: load32_le:w <- undef
	#DEBUG_VALUE: memcpy:__dest <- undef
	#DEBUG_VALUE: memcpy:__len <- 4
	#DEBUG_VALUE: load32_le:src <- [DW_OP_plus_uconst 28, DW_OP_stack_value] $rdx
	#DEBUG_VALUE: memcpy:__src <- [DW_OP_plus_uconst 28, DW_OP_stack_value] $rdx
	.loc	2 29 10                         # /usr/include/x86_64-linux-gnu/bits/string_fortified.h:29:10 @[ ./include/sodium/private/common.h:106:5 @[ crypto_core/salsa/ref/core_salsa_ref.c:38:17 ] ]
	movl	28(%rdx), %edi
.Ltmp22:
	#DEBUG_VALUE: crypto_core_salsa:x14 <- $edi
	#DEBUG_VALUE: crypto_core_salsa:j14 <- $edi
	#DEBUG_VALUE: load32_le:w <- undef
	#DEBUG_VALUE: load32_le:src <- $rsi
	#DEBUG_VALUE: memcpy:__dest <- undef
	#DEBUG_VALUE: memcpy:__src <- $rsi
	#DEBUG_VALUE: memcpy:__len <- 4
	.loc	2 29 10                         # /usr/include/x86_64-linux-gnu/bits/string_fortified.h:29:10 @[ ./include/sodium/private/common.h:106:5 @[ crypto_core/salsa/ref/core_salsa_ref.c:40:15 ] ]
	movl	(%rsi), %ebx
.Ltmp23:
	#DEBUG_VALUE: crypto_core_salsa:x6 <- $ebx
	#DEBUG_VALUE: crypto_core_salsa:j6 <- $ebx
	#DEBUG_VALUE: load32_le:w <- undef
	#DEBUG_VALUE: memcpy:__dest <- undef
	#DEBUG_VALUE: memcpy:__len <- 4
	#DEBUG_VALUE: load32_le:src <- [DW_OP_plus_uconst 4, DW_OP_stack_value] $rsi
	#DEBUG_VALUE: memcpy:__src <- [DW_OP_plus_uconst 4, DW_OP_stack_value] $rsi
	.loc	2 29 10                         # /usr/include/x86_64-linux-gnu/bits/string_fortified.h:29:10 @[ ./include/sodium/private/common.h:106:5 @[ crypto_core/salsa/ref/core_salsa_ref.c:41:15 ] ]
	movl	4(%rsi), %r10d
.Ltmp24:
	#DEBUG_VALUE: crypto_core_salsa:x7 <- $r10d
	#DEBUG_VALUE: crypto_core_salsa:j7 <- $r10d
	#DEBUG_VALUE: load32_le:w <- undef
	#DEBUG_VALUE: memcpy:__dest <- undef
	#DEBUG_VALUE: memcpy:__len <- 4
	#DEBUG_VALUE: load32_le:src <- [DW_OP_plus_uconst 8, DW_OP_stack_value] $rsi
	#DEBUG_VALUE: memcpy:__src <- [DW_OP_plus_uconst 8, DW_OP_stack_value] $rsi
	.loc	2 29 10                         # /usr/include/x86_64-linux-gnu/bits/string_fortified.h:29:10 @[ ./include/sodium/private/common.h:106:5 @[ crypto_core/salsa/ref/core_salsa_ref.c:42:15 ] ]
	movl	8(%rsi), %ecx
.Ltmp25:
	#DEBUG_VALUE: crypto_core_salsa:x8 <- $ecx
	#DEBUG_VALUE: crypto_core_salsa:j8 <- $ecx
	#DEBUG_VALUE: load32_le:w <- undef
	#DEBUG_VALUE: memcpy:__dest <- undef
	#DEBUG_VALUE: memcpy:__len <- 4
	#DEBUG_VALUE: load32_le:src <- [DW_OP_plus_uconst 12, DW_OP_stack_value] $rsi
	#DEBUG_VALUE: memcpy:__src <- [DW_OP_plus_uconst 12, DW_OP_stack_value] $rsi
	.loc	2 29 10                         # /usr/include/x86_64-linux-gnu/bits/string_fortified.h:29:10 @[ ./include/sodium/private/common.h:106:5 @[ crypto_core/salsa/ref/core_salsa_ref.c:43:15 ] ]
	movl	12(%rsi), %edx
.Ltmp26:
	#DEBUG_VALUE: crypto_core_salsa:k <- [DW_OP_LLVM_entry_value 1] $rdx
	#DEBUG_VALUE: crypto_core_salsa:x9 <- $edx
	#DEBUG_VALUE: crypto_core_salsa:j9 <- $edx
	.loc	2 0 10                          # /usr/include/x86_64-linux-gnu/bits/string_fortified.h:0:10
	movl	$0, -116(%rsp)                  # 4-byte Folded Spill
.Ltmp27:
	#DEBUG_VALUE: crypto_core_salsa:i <- 0
	movl	%r8d, -64(%rsp)                 # 4-byte Spill
.Ltmp28:
	#DEBUG_VALUE: crypto_core_salsa:j0 <- [DW_OP_constu 64, DW_OP_minus, DW_OP_deref] $rsp
	#DEBUG_VALUE: crypto_core_salsa:x0 <- [DW_OP_constu 64, DW_OP_minus, DW_OP_deref] $rsp
	movl	%r8d, %r9d
	movl	%r13d, -96(%rsp)                # 4-byte Spill
.Ltmp29:
	#DEBUG_VALUE: crypto_core_salsa:j1 <- [DW_OP_constu 96, DW_OP_minus, DW_OP_deref] $rsp
	#DEBUG_VALUE: crypto_core_salsa:x1 <- [DW_OP_constu 96, DW_OP_minus, DW_OP_deref] $rsp
                                        # kill: def $r13d killed $r13d def $r13
	movl	%r14d, -92(%rsp)                # 4-byte Spill
.Ltmp30:
	#DEBUG_VALUE: crypto_core_salsa:j2 <- [DW_OP_constu 92, DW_OP_minus, DW_OP_deref] $rsp
	#DEBUG_VALUE: crypto_core_salsa:x2 <- [DW_OP_constu 92, DW_OP_minus, DW_OP_deref] $rsp
                                        # kill: def $r14d killed $r14d def $r14
	movl	%r12d, -88(%rsp)                # 4-byte Spill
.Ltmp31:
	#DEBUG_VALUE: crypto_core_salsa:j3 <- [DW_OP_constu 88, DW_OP_minus, DW_OP_deref] $rsp
	#DEBUG_VALUE: crypto_core_salsa:x3 <- [DW_OP_constu 88, DW_OP_minus, DW_OP_deref] $rsp
	movl	%r12d, %esi
.Ltmp32:
	#DEBUG_VALUE: crypto_core_salsa:in <- [DW_OP_LLVM_entry_value 1] $rsi
	movq	%rsi, -104(%rsp)                # 8-byte Spill
	movl	%r15d, -84(%rsp)                # 4-byte Spill
.Ltmp33:
	#DEBUG_VALUE: crypto_core_salsa:j4 <- [DW_OP_constu 84, DW_OP_minus, DW_OP_deref] $rsp
	#DEBUG_VALUE: crypto_core_salsa:x4 <- [DW_OP_constu 84, DW_OP_minus, DW_OP_deref] $rsp
	movl	%r15d, %r8d
	movl	%eax, -56(%rsp)                 # 4-byte Spill
.Ltmp34:
	#DEBUG_VALUE: crypto_core_salsa:j5 <- [DW_OP_constu 56, DW_OP_minus, DW_OP_deref] $rsp
	#DEBUG_VALUE: crypto_core_salsa:x5 <- [DW_OP_constu 56, DW_OP_minus, DW_OP_deref] $rsp
                                        # kill: def $eax killed $eax def $rax
	movl	%ebx, -80(%rsp)                 # 4-byte Spill
.Ltmp35:
	#DEBUG_VALUE: crypto_core_salsa:j6 <- [DW_OP_constu 80, DW_OP_minus, DW_OP_deref] $rsp
	#DEBUG_VALUE: crypto_core_salsa:x6 <- [DW_OP_constu 80, DW_OP_minus, DW_OP_deref] $rsp
	movl	%ebx, %r15d
	movl	%r10d, -76(%rsp)                # 4-byte Spill
.Ltmp36:
	#DEBUG_VALUE: crypto_core_salsa:j7 <- [DW_OP_constu 76, DW_OP_minus, DW_OP_deref] $rsp
	#DEBUG_VALUE: crypto_core_salsa:x7 <- [DW_OP_constu 76, DW_OP_minus, DW_OP_deref] $rsp
	movl	%r10d, %esi
.Ltmp37:
	#DEBUG_VALUE: memcpy:__src <- [DW_OP_constu 104, DW_OP_minus, DW_OP_deref, DW_OP_plus_uconst 12, DW_OP_stack_value] $rsp
	#DEBUG_VALUE: load32_le:src <- [DW_OP_constu 104, DW_OP_minus, DW_OP_deref, DW_OP_plus_uconst 12, DW_OP_stack_value] $rsp
	#DEBUG_VALUE: memcpy:__src <- [DW_OP_constu 104, DW_OP_minus, DW_OP_deref, DW_OP_plus_uconst 8, DW_OP_stack_value] $rsp
	#DEBUG_VALUE: load32_le:src <- [DW_OP_constu 104, DW_OP_minus, DW_OP_deref, DW_OP_plus_uconst 8, DW_OP_stack_value] $rsp
	#DEBUG_VALUE: memcpy:__src <- [DW_OP_constu 104, DW_OP_minus, DW_OP_deref, DW_OP_plus_uconst 4, DW_OP_stack_value] $rsp
	#DEBUG_VALUE: load32_le:src <- [DW_OP_constu 104, DW_OP_minus, DW_OP_deref, DW_OP_plus_uconst 4, DW_OP_stack_value] $rsp
	#DEBUG_VALUE: memcpy:__src <- [DW_OP_constu 104, DW_OP_minus, DW_OP_deref] $rsp
	#DEBUG_VALUE: load32_le:src <- [DW_OP_constu 104, DW_OP_minus, DW_OP_deref] $rsp
	#DEBUG_VALUE: crypto_core_salsa:in <- [DW_OP_constu 104, DW_OP_minus] [$rsp+0]
	movq	%rsi, -112(%rsp)                # 8-byte Spill
	movl	%ecx, -72(%rsp)                 # 4-byte Spill
.Ltmp38:
	#DEBUG_VALUE: crypto_core_salsa:j8 <- [DW_OP_constu 72, DW_OP_minus, DW_OP_deref] $rsp
	#DEBUG_VALUE: crypto_core_salsa:x8 <- [DW_OP_constu 72, DW_OP_minus, DW_OP_deref] $rsp
                                        # kill: def $ecx killed $ecx def $rcx
	movl	%edx, -68(%rsp)                 # 4-byte Spill
.Ltmp39:
	#DEBUG_VALUE: crypto_core_salsa:j9 <- [DW_OP_constu 68, DW_OP_minus, DW_OP_deref] $rsp
	#DEBUG_VALUE: crypto_core_salsa:x9 <- [DW_OP_constu 68, DW_OP_minus, DW_OP_deref] $rsp
	movl	%edx, %r10d
	movl	-128(%rsp), %edx                # 4-byte Reload
	movl	%edx, %r12d
	movl	%ebp, -60(%rsp)                 # 4-byte Spill
.Ltmp40:
	#DEBUG_VALUE: crypto_core_salsa:j11 <- [DW_OP_constu 60, DW_OP_minus, DW_OP_deref] $rsp
	#DEBUG_VALUE: crypto_core_salsa:x11 <- [DW_OP_constu 60, DW_OP_minus, DW_OP_deref] $rsp
                                        # kill: def $ebp killed $ebp def $rbp
	movl	-124(%rsp), %edx                # 4-byte Reload
                                        # kill: def $edx killed $edx def $rdx
	movl	%edi, -48(%rsp)                 # 4-byte Spill
.Ltmp41:
	#DEBUG_VALUE: crypto_core_salsa:j14 <- [DW_OP_constu 48, DW_OP_minus, DW_OP_deref] $rsp
	#DEBUG_VALUE: crypto_core_salsa:x14 <- [DW_OP_constu 48, DW_OP_minus, DW_OP_deref] $rsp
                                        # kill: def $edi killed $edi def $rdi
	movl	%r11d, -52(%rsp)                # 4-byte Spill
.Ltmp42:
	#DEBUG_VALUE: crypto_core_salsa:j13 <- [DW_OP_constu 52, DW_OP_minus, DW_OP_deref] $rsp
	#DEBUG_VALUE: crypto_core_salsa:x13 <- [DW_OP_constu 52, DW_OP_minus, DW_OP_deref] $rsp
	movl	%r11d, %esi
	movl	-120(%rsp), %r11d               # 4-byte Reload
.Ltmp43:
                                        # kill: def $r11d killed $r11d def $r11
	.p2align	4
.LBB1_4:                                # =>This Inner Loop Header: Depth=1
	#DEBUG_VALUE: crypto_core_salsa:out <- [DW_OP_constu 40, DW_OP_minus] [$rsp+0]
	#DEBUG_VALUE: crypto_core_salsa:in <- [DW_OP_LLVM_entry_value 1] $rsi
	#DEBUG_VALUE: crypto_core_salsa:k <- [DW_OP_LLVM_entry_value 1] $rdx
	#DEBUG_VALUE: crypto_core_salsa:c <- [DW_OP_LLVM_entry_value 1] $rcx
	#DEBUG_VALUE: crypto_core_salsa:rounds <- [DW_OP_constu 44, DW_OP_minus] [$rsp+0]
	#DEBUG_VALUE: crypto_core_salsa:x0 <- $r9d
	#DEBUG_VALUE: crypto_core_salsa:j0 <- [DW_OP_constu 64, DW_OP_minus, DW_OP_deref] $rsp
	#DEBUG_VALUE: crypto_core_salsa:x5 <- $eax
	#DEBUG_VALUE: crypto_core_salsa:j5 <- [DW_OP_constu 56, DW_OP_minus, DW_OP_deref] $rsp
	#DEBUG_VALUE: crypto_core_salsa:x10 <- $r12d
	#DEBUG_VALUE: crypto_core_salsa:j10 <- [DW_OP_constu 128, DW_OP_minus, DW_OP_deref] $rsp
	#DEBUG_VALUE: crypto_core_salsa:x15 <- $edx
	#DEBUG_VALUE: crypto_core_salsa:j15 <- [DW_OP_constu 124, DW_OP_minus, DW_OP_deref] $rsp
	#DEBUG_VALUE: crypto_core_salsa:x1 <- $r13d
	#DEBUG_VALUE: crypto_core_salsa:j1 <- [DW_OP_constu 96, DW_OP_minus, DW_OP_deref] $rsp
	#DEBUG_VALUE: crypto_core_salsa:x2 <- $r14d
	#DEBUG_VALUE: crypto_core_salsa:j2 <- [DW_OP_constu 92, DW_OP_minus, DW_OP_deref] $rsp
	#DEBUG_VALUE: crypto_core_salsa:x3 <- [DW_OP_constu 104, DW_OP_minus, DW_OP_deref] $rsp
	#DEBUG_VALUE: crypto_core_salsa:j3 <- [DW_OP_constu 88, DW_OP_minus, DW_OP_deref] $rsp
	#DEBUG_VALUE: crypto_core_salsa:x4 <- $r8d
	#DEBUG_VALUE: crypto_core_salsa:j4 <- [DW_OP_constu 84, DW_OP_minus, DW_OP_deref] $rsp
	#DEBUG_VALUE: crypto_core_salsa:x11 <- $ebp
	#DEBUG_VALUE: crypto_core_salsa:j11 <- [DW_OP_constu 60, DW_OP_minus, DW_OP_deref] $rsp
	#DEBUG_VALUE: crypto_core_salsa:x12 <- $r11d
	#DEBUG_VALUE: crypto_core_salsa:j12 <- [DW_OP_constu 120, DW_OP_minus, DW_OP_deref] $rsp
	#DEBUG_VALUE: crypto_core_salsa:x13 <- $esi
	#DEBUG_VALUE: crypto_core_salsa:j13 <- [DW_OP_constu 52, DW_OP_minus, DW_OP_deref] $rsp
	#DEBUG_VALUE: crypto_core_salsa:x14 <- $edi
	#DEBUG_VALUE: crypto_core_salsa:j14 <- [DW_OP_constu 48, DW_OP_minus, DW_OP_deref] $rsp
	#DEBUG_VALUE: crypto_core_salsa:x6 <- $r15d
	#DEBUG_VALUE: crypto_core_salsa:j6 <- [DW_OP_constu 80, DW_OP_minus, DW_OP_deref] $rsp
	#DEBUG_VALUE: crypto_core_salsa:x7 <- [DW_OP_constu 112, DW_OP_minus, DW_OP_deref] $rsp
	#DEBUG_VALUE: crypto_core_salsa:j7 <- [DW_OP_constu 76, DW_OP_minus, DW_OP_deref] $rsp
	#DEBUG_VALUE: crypto_core_salsa:x8 <- $ecx
	#DEBUG_VALUE: crypto_core_salsa:j8 <- [DW_OP_constu 72, DW_OP_minus, DW_OP_deref] $rsp
	#DEBUG_VALUE: crypto_core_salsa:x9 <- $r10d
	#DEBUG_VALUE: crypto_core_salsa:j9 <- [DW_OP_constu 68, DW_OP_minus, DW_OP_deref] $rsp
	#DEBUG_VALUE: crypto_core_salsa:i <- [DW_OP_constu 116, DW_OP_minus, DW_OP_deref] $rsp
	#DEBUG_VALUE: crypto_core_salsa:x0 <- $r9d
	#DEBUG_VALUE: crypto_core_salsa:x1 <- $r13d
	#DEBUG_VALUE: crypto_core_salsa:x2 <- $r14d
	#DEBUG_VALUE: crypto_core_salsa:x3 <- [DW_OP_constu 104, DW_OP_minus, DW_OP_deref] $rsp
	#DEBUG_VALUE: crypto_core_salsa:x4 <- $r8d
	#DEBUG_VALUE: crypto_core_salsa:x5 <- $eax
	#DEBUG_VALUE: crypto_core_salsa:x6 <- $r15d
	#DEBUG_VALUE: crypto_core_salsa:x7 <- [DW_OP_constu 112, DW_OP_minus, DW_OP_deref] $rsp
	#DEBUG_VALUE: crypto_core_salsa:x8 <- $ecx
	#DEBUG_VALUE: crypto_core_salsa:x9 <- $r10d
	#DEBUG_VALUE: crypto_core_salsa:x10 <- $r12d
	#DEBUG_VALUE: crypto_core_salsa:x11 <- $ebp
	#DEBUG_VALUE: crypto_core_salsa:x15 <- $edx
	#DEBUG_VALUE: crypto_core_salsa:x14 <- $edi
	#DEBUG_VALUE: crypto_core_salsa:x13 <- $esi
	#DEBUG_VALUE: crypto_core_salsa:x12 <- $r11d
	.loc	1 46 26 is_stmt 1               # crypto_core/salsa/ref/core_salsa_ref.c:46:26
	leal	(%r9,%r11), %ebx
.Ltmp44:
	#DEBUG_VALUE: rotl32:x <- $ebx
	#DEBUG_VALUE: rotl32:b <- 7
	.file	3 "./include/sodium/private" "common.h"
	.loc	3 37 21                         # ./include/sodium/private/common.h:37:21 @[ crypto_core/salsa/ref/core_salsa_ref.c:46:15 ]
	roll	$7, %ebx
.Ltmp45:
	.loc	1 46 12                         # crypto_core/salsa/ref/core_salsa_ref.c:46:12
	xorl	%r8d, %ebx
.Ltmp46:
	#DEBUG_VALUE: crypto_core_salsa:x4 <- $ebx
	.loc	1 0 12 is_stmt 0                # crypto_core/salsa/ref/core_salsa_ref.c:0:12
	movq	%rbx, -16(%rsp)                 # 8-byte Spill
.Ltmp47:
	#DEBUG_VALUE: crypto_core_salsa:x4 <- [DW_OP_constu 16, DW_OP_minus, DW_OP_deref] $rsp
	.loc	1 47 26 is_stmt 1               # crypto_core/salsa/ref/core_salsa_ref.c:47:26
	leal	(%rbx,%r9), %r8d
.Ltmp48:
	#DEBUG_VALUE: rotl32:x <- $r8d
	#DEBUG_VALUE: rotl32:b <- 9
	.loc	3 37 21                         # ./include/sodium/private/common.h:37:21 @[ crypto_core/salsa/ref/core_salsa_ref.c:47:15 ]
	roll	$9, %r8d
.Ltmp49:
	.loc	1 47 12                         # crypto_core/salsa/ref/core_salsa_ref.c:47:12
	xorl	%ecx, %r8d
.Ltmp50:
	#DEBUG_VALUE: crypto_core_salsa:x8 <- $r8d
	.loc	1 0 12 is_stmt 0                # crypto_core/salsa/ref/core_salsa_ref.c:0:12
	movq	%r8, 8(%rsp)                    # 8-byte Spill
.Ltmp51:
	#DEBUG_VALUE: crypto_core_salsa:x8 <- [DW_OP_plus_uconst 8, DW_OP_deref] $rsp
	.loc	1 48 27 is_stmt 1               # crypto_core/salsa/ref/core_salsa_ref.c:48:27
	leal	(%r8,%rbx), %ecx
.Ltmp52:
	#DEBUG_VALUE: rotl32:x <- $ecx
	#DEBUG_VALUE: rotl32:b <- 13
	.loc	3 37 21                         # ./include/sodium/private/common.h:37:21 @[ crypto_core/salsa/ref/core_salsa_ref.c:48:16 ]
	roll	$13, %ecx
.Ltmp53:
	.loc	1 48 13                         # crypto_core/salsa/ref/core_salsa_ref.c:48:13
	xorl	%r11d, %ecx
.Ltmp54:
	#DEBUG_VALUE: crypto_core_salsa:x12 <- $ecx
	.loc	1 0 13 is_stmt 0                # crypto_core/salsa/ref/core_salsa_ref.c:0:13
	movq	%rcx, 24(%rsp)                  # 8-byte Spill
.Ltmp55:
	#DEBUG_VALUE: crypto_core_salsa:x12 <- [DW_OP_plus_uconst 24, DW_OP_deref] $rsp
	.loc	1 49 27 is_stmt 1               # crypto_core/salsa/ref/core_salsa_ref.c:49:27
	leal	(%rcx,%r8), %ebx
.Ltmp56:
	#DEBUG_VALUE: rotl32:x <- $ebx
	#DEBUG_VALUE: rotl32:b <- 18
	.loc	3 37 21                         # ./include/sodium/private/common.h:37:21 @[ crypto_core/salsa/ref/core_salsa_ref.c:49:15 ]
	roll	$18, %ebx
.Ltmp57:
	#DEBUG_VALUE: crypto_core_salsa:x0 <- undef
	.loc	1 50 26                         # crypto_core/salsa/ref/core_salsa_ref.c:50:26
	leal	(%rax,%r13), %r11d
.Ltmp58:
	#DEBUG_VALUE: rotl32:x <- $r11d
	#DEBUG_VALUE: rotl32:b <- 7
	.loc	3 37 21                         # ./include/sodium/private/common.h:37:21 @[ crypto_core/salsa/ref/core_salsa_ref.c:50:15 ]
	roll	$7, %r11d
.Ltmp59:
	.loc	1 50 12                         # crypto_core/salsa/ref/core_salsa_ref.c:50:12
	xorl	%r10d, %r11d
.Ltmp60:
	#DEBUG_VALUE: crypto_core_salsa:x9 <- $r11d
	.loc	1 51 27                         # crypto_core/salsa/ref/core_salsa_ref.c:51:27
	leal	(%r11,%rax), %r8d
.Ltmp61:
	#DEBUG_VALUE: rotl32:x <- $r8d
	#DEBUG_VALUE: rotl32:b <- 9
	.loc	1 0 27 is_stmt 0                # crypto_core/salsa/ref/core_salsa_ref.c:0:27
	movq	%r11, (%rsp)                    # 8-byte Spill
.Ltmp62:
	#DEBUG_VALUE: crypto_core_salsa:x9 <- [DW_OP_deref] $rsp
	.loc	3 37 21 is_stmt 1               # ./include/sodium/private/common.h:37:21 @[ crypto_core/salsa/ref/core_salsa_ref.c:51:16 ]
	roll	$9, %r8d
.Ltmp63:
	.loc	1 51 13                         # crypto_core/salsa/ref/core_salsa_ref.c:51:13
	xorl	%esi, %r8d
.Ltmp64:
	#DEBUG_VALUE: crypto_core_salsa:x13 <- $r8d
	.loc	1 0 13 is_stmt 0                # crypto_core/salsa/ref/core_salsa_ref.c:0:13
	movq	%r8, 16(%rsp)                   # 8-byte Spill
.Ltmp65:
	#DEBUG_VALUE: crypto_core_salsa:x13 <- [DW_OP_plus_uconst 16, DW_OP_deref] $rsp
	.loc	1 52 27 is_stmt 1               # crypto_core/salsa/ref/core_salsa_ref.c:52:27
	leal	(%r8,%r11), %ecx
.Ltmp66:
	#DEBUG_VALUE: rotl32:x <- $ecx
	#DEBUG_VALUE: rotl32:b <- 13
	.loc	3 37 21                         # ./include/sodium/private/common.h:37:21 @[ crypto_core/salsa/ref/core_salsa_ref.c:52:15 ]
	roll	$13, %ecx
.Ltmp67:
	.loc	1 52 12                         # crypto_core/salsa/ref/core_salsa_ref.c:52:12
	xorl	%r13d, %ecx
.Ltmp68:
	#DEBUG_VALUE: crypto_core_salsa:x1 <- $ecx
	.loc	1 53 26                         # crypto_core/salsa/ref/core_salsa_ref.c:53:26
	leal	(%rcx,%r8), %r10d
.Ltmp69:
	#DEBUG_VALUE: rotl32:x <- $r10d
	#DEBUG_VALUE: rotl32:b <- 18
	.loc	3 37 21                         # ./include/sodium/private/common.h:37:21 @[ crypto_core/salsa/ref/core_salsa_ref.c:53:15 ]
	roll	$18, %r10d
.Ltmp70:
	#DEBUG_VALUE: crypto_core_salsa:x5 <- undef
	.loc	1 49 12                         # crypto_core/salsa/ref/core_salsa_ref.c:49:12
	xorl	%r9d, %ebx
.Ltmp71:
	#DEBUG_VALUE: crypto_core_salsa:x0 <- $ebx
	.loc	1 54 28                         # crypto_core/salsa/ref/core_salsa_ref.c:54:28
	leal	(%r15,%r12), %esi
.Ltmp72:
	#DEBUG_VALUE: rotl32:x <- $esi
	#DEBUG_VALUE: rotl32:b <- 7
	.loc	3 37 21                         # ./include/sodium/private/common.h:37:21 @[ crypto_core/salsa/ref/core_salsa_ref.c:54:16 ]
	roll	$7, %esi
.Ltmp73:
	.loc	1 54 13                         # crypto_core/salsa/ref/core_salsa_ref.c:54:13
	xorl	%edi, %esi
.Ltmp74:
	#DEBUG_VALUE: crypto_core_salsa:x14 <- $esi
	.loc	1 0 13 is_stmt 0                # crypto_core/salsa/ref/core_salsa_ref.c:0:13
	movq	%rsi, -8(%rsp)                  # 8-byte Spill
.Ltmp75:
	#DEBUG_VALUE: crypto_core_salsa:x14 <- [DW_OP_constu 8, DW_OP_minus, DW_OP_deref] $rsp
	.loc	1 55 27 is_stmt 1               # crypto_core/salsa/ref/core_salsa_ref.c:55:27
	leal	(%rsi,%r12), %r8d
.Ltmp76:
	#DEBUG_VALUE: rotl32:x <- $r8d
	#DEBUG_VALUE: rotl32:b <- 9
	.loc	3 37 21                         # ./include/sodium/private/common.h:37:21 @[ crypto_core/salsa/ref/core_salsa_ref.c:55:15 ]
	roll	$9, %r8d
.Ltmp77:
	.loc	1 55 12                         # crypto_core/salsa/ref/core_salsa_ref.c:55:12
	xorl	%r14d, %r8d
.Ltmp78:
	#DEBUG_VALUE: crypto_core_salsa:x2 <- $r8d
	.loc	1 56 26                         # crypto_core/salsa/ref/core_salsa_ref.c:56:26
	addl	%r8d, %esi
.Ltmp79:
	#DEBUG_VALUE: rotl32:x <- $esi
	#DEBUG_VALUE: rotl32:b <- 13
	.loc	3 37 21                         # ./include/sodium/private/common.h:37:21 @[ crypto_core/salsa/ref/core_salsa_ref.c:56:15 ]
	roll	$13, %esi
.Ltmp80:
	.loc	1 56 12                         # crypto_core/salsa/ref/core_salsa_ref.c:56:12
	xorl	%r15d, %esi
.Ltmp81:
	#DEBUG_VALUE: crypto_core_salsa:x6 <- $esi
	.loc	1 57 27                         # crypto_core/salsa/ref/core_salsa_ref.c:57:27
	leal	(%rsi,%r8), %r11d
.Ltmp82:
	#DEBUG_VALUE: rotl32:x <- $r11d
	#DEBUG_VALUE: rotl32:b <- 18
	.loc	3 37 21                         # ./include/sodium/private/common.h:37:21 @[ crypto_core/salsa/ref/core_salsa_ref.c:57:16 ]
	roll	$18, %r11d
.Ltmp83:
	#DEBUG_VALUE: crypto_core_salsa:x10 <- undef
	.loc	1 53 12                         # crypto_core/salsa/ref/core_salsa_ref.c:53:12
	xorl	%eax, %r10d
.Ltmp84:
	#DEBUG_VALUE: crypto_core_salsa:x5 <- $r10d
	.loc	1 58 27                         # crypto_core/salsa/ref/core_salsa_ref.c:58:27
	leal	(%rdx,%rbp), %r9d
.Ltmp85:
	#DEBUG_VALUE: rotl32:x <- $r9d
	#DEBUG_VALUE: rotl32:b <- 7
	.loc	3 37 21                         # ./include/sodium/private/common.h:37:21 @[ crypto_core/salsa/ref/core_salsa_ref.c:58:15 ]
	roll	$7, %r9d
.Ltmp86:
	.loc	1 58 12                         # crypto_core/salsa/ref/core_salsa_ref.c:58:12
	xorl	-104(%rsp), %r9d                # 4-byte Folded Reload
.Ltmp87:
	#DEBUG_VALUE: crypto_core_salsa:x3 <- $r9d
	.loc	1 59 26                         # crypto_core/salsa/ref/core_salsa_ref.c:59:26
	leal	(%r9,%rdx), %eax
.Ltmp88:
	#DEBUG_VALUE: rotl32:x <- $eax
	#DEBUG_VALUE: rotl32:b <- 9
	.loc	3 37 21                         # ./include/sodium/private/common.h:37:21 @[ crypto_core/salsa/ref/core_salsa_ref.c:59:15 ]
	roll	$9, %eax
.Ltmp89:
	.loc	1 59 12                         # crypto_core/salsa/ref/core_salsa_ref.c:59:12
	xorl	-112(%rsp), %eax                # 4-byte Folded Reload
.Ltmp90:
	#DEBUG_VALUE: crypto_core_salsa:x7 <- $eax
	.loc	1 60 27                         # crypto_core/salsa/ref/core_salsa_ref.c:60:27
	leal	(%rax,%r9), %edi
.Ltmp91:
	#DEBUG_VALUE: rotl32:x <- $edi
	#DEBUG_VALUE: rotl32:b <- 13
	.loc	3 37 21                         # ./include/sodium/private/common.h:37:21 @[ crypto_core/salsa/ref/core_salsa_ref.c:60:16 ]
	roll	$13, %edi
.Ltmp92:
	.loc	1 60 13                         # crypto_core/salsa/ref/core_salsa_ref.c:60:13
	xorl	%ebp, %edi
.Ltmp93:
	#DEBUG_VALUE: crypto_core_salsa:x11 <- $edi
	.loc	1 61 28                         # crypto_core/salsa/ref/core_salsa_ref.c:61:28
	leal	(%rdi,%rax), %r14d
.Ltmp94:
	#DEBUG_VALUE: rotl32:x <- $r14d
	#DEBUG_VALUE: rotl32:b <- 18
	.loc	3 37 21                         # ./include/sodium/private/common.h:37:21 @[ crypto_core/salsa/ref/core_salsa_ref.c:61:16 ]
	roll	$18, %r14d
.Ltmp95:
	#DEBUG_VALUE: crypto_core_salsa:x15 <- undef
	.loc	3 0 21 is_stmt 0                # ./include/sodium/private/common.h:0:21
	movq	%r14, %r15
.Ltmp96:
	.loc	1 57 13 is_stmt 1               # crypto_core/salsa/ref/core_salsa_ref.c:57:13
	xorl	%r12d, %r11d
.Ltmp97:
	#DEBUG_VALUE: crypto_core_salsa:x10 <- $r11d
	.loc	1 62 26                         # crypto_core/salsa/ref/core_salsa_ref.c:62:26
	leal	(%rbx,%r9), %r13d
.Ltmp98:
	#DEBUG_VALUE: rotl32:x <- $r13d
	#DEBUG_VALUE: rotl32:b <- 7
	.loc	3 37 21                         # ./include/sodium/private/common.h:37:21 @[ crypto_core/salsa/ref/core_salsa_ref.c:62:15 ]
	roll	$7, %r13d
.Ltmp99:
	.loc	1 62 12                         # crypto_core/salsa/ref/core_salsa_ref.c:62:12
	xorl	%ecx, %r13d
.Ltmp100:
	#DEBUG_VALUE: crypto_core_salsa:x1 <- $r13d
	.loc	1 63 26                         # crypto_core/salsa/ref/core_salsa_ref.c:63:26
	leal	(%rbx,%r13), %r14d
.Ltmp101:
	#DEBUG_VALUE: rotl32:x <- $r14d
	#DEBUG_VALUE: rotl32:b <- 9
	.loc	1 0 26 is_stmt 0                # crypto_core/salsa/ref/core_salsa_ref.c:0:26
	movq	%rbx, %r12
.Ltmp102:
	.loc	3 37 21 is_stmt 1               # ./include/sodium/private/common.h:37:21 @[ crypto_core/salsa/ref/core_salsa_ref.c:63:15 ]
	roll	$9, %r14d
.Ltmp103:
	.loc	1 63 12                         # crypto_core/salsa/ref/core_salsa_ref.c:63:12
	xorl	%r8d, %r14d
.Ltmp104:
	#DEBUG_VALUE: crypto_core_salsa:x2 <- $r14d
	.loc	1 64 26                         # crypto_core/salsa/ref/core_salsa_ref.c:64:26
	leal	(%r14,%r13), %ecx
.Ltmp105:
	#DEBUG_VALUE: rotl32:x <- $ecx
	#DEBUG_VALUE: rotl32:b <- 13
	.loc	3 37 21                         # ./include/sodium/private/common.h:37:21 @[ crypto_core/salsa/ref/core_salsa_ref.c:64:15 ]
	roll	$13, %ecx
.Ltmp106:
	.loc	1 64 12                         # crypto_core/salsa/ref/core_salsa_ref.c:64:12
	xorl	%r9d, %ecx
.Ltmp107:
	#DEBUG_VALUE: crypto_core_salsa:x3 <- $ecx
	.loc	1 0 12 is_stmt 0                # crypto_core/salsa/ref/core_salsa_ref.c:0:12
	movq	%rcx, -104(%rsp)                # 8-byte Spill
.Ltmp108:
	#DEBUG_VALUE: crypto_core_salsa:x3 <- [DW_OP_constu 104, DW_OP_minus, DW_OP_deref] $rsp
	.loc	1 65 26 is_stmt 1               # crypto_core/salsa/ref/core_salsa_ref.c:65:26
	leal	(%rcx,%r14), %r9d
.Ltmp109:
	#DEBUG_VALUE: rotl32:x <- $r9d
	#DEBUG_VALUE: rotl32:b <- 18
	.loc	3 37 21                         # ./include/sodium/private/common.h:37:21 @[ crypto_core/salsa/ref/core_salsa_ref.c:65:15 ]
	roll	$18, %r9d
.Ltmp110:
	#DEBUG_VALUE: crypto_core_salsa:x0 <- undef
	.loc	1 61 13                         # crypto_core/salsa/ref/core_salsa_ref.c:61:13
	xorl	%edx, %r15d
.Ltmp111:
	#DEBUG_VALUE: crypto_core_salsa:x15 <- $r15d
	.loc	1 0 13 is_stmt 0                # crypto_core/salsa/ref/core_salsa_ref.c:0:13
	movq	%r15, -24(%rsp)                 # 8-byte Spill
	movq	-16(%rsp), %rbx                 # 8-byte Reload
	.loc	1 66 26 is_stmt 1               # crypto_core/salsa/ref/core_salsa_ref.c:66:26
	leal	(%r10,%rbx), %r15d
.Ltmp112:
	#DEBUG_VALUE: rotl32:x <- $r15d
	#DEBUG_VALUE: rotl32:b <- 7
	.loc	3 37 21                         # ./include/sodium/private/common.h:37:21 @[ crypto_core/salsa/ref/core_salsa_ref.c:66:15 ]
	roll	$7, %r15d
.Ltmp113:
	.loc	1 66 12                         # crypto_core/salsa/ref/core_salsa_ref.c:66:12
	xorl	%esi, %r15d
.Ltmp114:
	#DEBUG_VALUE: crypto_core_salsa:x6 <- $r15d
	.loc	1 67 26                         # crypto_core/salsa/ref/core_salsa_ref.c:67:26
	leal	(%r15,%r10), %ecx
.Ltmp115:
	#DEBUG_VALUE: rotl32:x <- $ecx
	#DEBUG_VALUE: rotl32:b <- 9
	.loc	1 0 26 is_stmt 0                # crypto_core/salsa/ref/core_salsa_ref.c:0:26
	movq	%r10, %rdx
.Ltmp116:
	.loc	3 37 21 is_stmt 1               # ./include/sodium/private/common.h:37:21 @[ crypto_core/salsa/ref/core_salsa_ref.c:67:15 ]
	roll	$9, %ecx
.Ltmp117:
	.loc	1 67 12                         # crypto_core/salsa/ref/core_salsa_ref.c:67:12
	xorl	%eax, %ecx
.Ltmp118:
	#DEBUG_VALUE: crypto_core_salsa:x7 <- $ecx
	.loc	1 0 12 is_stmt 0                # crypto_core/salsa/ref/core_salsa_ref.c:0:12
	movq	%rcx, -112(%rsp)                # 8-byte Spill
.Ltmp119:
	#DEBUG_VALUE: crypto_core_salsa:x7 <- [DW_OP_constu 112, DW_OP_minus, DW_OP_deref] $rsp
	.loc	1 68 26 is_stmt 1               # crypto_core/salsa/ref/core_salsa_ref.c:68:26
	leal	(%rcx,%r15), %r8d
.Ltmp120:
	#DEBUG_VALUE: rotl32:x <- $r8d
	#DEBUG_VALUE: rotl32:b <- 13
	.loc	3 37 21                         # ./include/sodium/private/common.h:37:21 @[ crypto_core/salsa/ref/core_salsa_ref.c:68:15 ]
	roll	$13, %r8d
.Ltmp121:
	.loc	1 68 12                         # crypto_core/salsa/ref/core_salsa_ref.c:68:12
	xorl	%ebx, %r8d
.Ltmp122:
	#DEBUG_VALUE: crypto_core_salsa:x4 <- $r8d
	.loc	1 69 26                         # crypto_core/salsa/ref/core_salsa_ref.c:69:26
	leal	(%r8,%rcx), %eax
.Ltmp123:
	#DEBUG_VALUE: rotl32:x <- $eax
	#DEBUG_VALUE: rotl32:b <- 18
	.loc	3 37 21                         # ./include/sodium/private/common.h:37:21 @[ crypto_core/salsa/ref/core_salsa_ref.c:69:15 ]
	roll	$18, %eax
.Ltmp124:
	#DEBUG_VALUE: crypto_core_salsa:x5 <- undef
	.loc	1 65 12                         # crypto_core/salsa/ref/core_salsa_ref.c:65:12
	xorl	%r12d, %r9d
.Ltmp125:
	#DEBUG_VALUE: crypto_core_salsa:x0 <- $r9d
	.loc	1 0 12 is_stmt 0                # crypto_core/salsa/ref/core_salsa_ref.c:0:12
	movq	%r11, -32(%rsp)                 # 8-byte Spill
	movq	(%rsp), %rsi                    # 8-byte Reload
	.loc	1 70 28 is_stmt 1               # crypto_core/salsa/ref/core_salsa_ref.c:70:28
	leal	(%r11,%rsi), %ebp
.Ltmp126:
	#DEBUG_VALUE: rotl32:x <- $ebp
	#DEBUG_VALUE: rotl32:b <- 7
	.loc	3 37 21                         # ./include/sodium/private/common.h:37:21 @[ crypto_core/salsa/ref/core_salsa_ref.c:70:16 ]
	roll	$7, %ebp
.Ltmp127:
	.loc	1 70 13                         # crypto_core/salsa/ref/core_salsa_ref.c:70:13
	xorl	%edi, %ebp
.Ltmp128:
	#DEBUG_VALUE: crypto_core_salsa:x11 <- $ebp
	.loc	1 71 27                         # crypto_core/salsa/ref/core_salsa_ref.c:71:27
	leal	(%r11,%rbp), %ecx
.Ltmp129:
	#DEBUG_VALUE: rotl32:x <- $ecx
	#DEBUG_VALUE: rotl32:b <- 9
	.loc	3 37 21                         # ./include/sodium/private/common.h:37:21 @[ crypto_core/salsa/ref/core_salsa_ref.c:71:15 ]
	roll	$9, %ecx
.Ltmp130:
	.loc	1 71 12                         # crypto_core/salsa/ref/core_salsa_ref.c:71:12
	xorl	8(%rsp), %ecx                   # 4-byte Folded Reload
.Ltmp131:
	#DEBUG_VALUE: crypto_core_salsa:x8 <- $ecx
	.loc	1 72 26                         # crypto_core/salsa/ref/core_salsa_ref.c:72:26
	leal	(%rcx,%rbp), %r10d
.Ltmp132:
	#DEBUG_VALUE: rotl32:x <- $r10d
	#DEBUG_VALUE: rotl32:b <- 13
	.loc	3 37 21                         # ./include/sodium/private/common.h:37:21 @[ crypto_core/salsa/ref/core_salsa_ref.c:72:15 ]
	roll	$13, %r10d
.Ltmp133:
	.loc	1 72 12                         # crypto_core/salsa/ref/core_salsa_ref.c:72:12
	xorl	%esi, %r10d
.Ltmp134:
	#DEBUG_VALUE: crypto_core_salsa:x9 <- $r10d
	.loc	1 73 27                         # crypto_core/salsa/ref/core_salsa_ref.c:73:27
	leal	(%r10,%rcx), %r12d
.Ltmp135:
	#DEBUG_VALUE: rotl32:x <- $r12d
	#DEBUG_VALUE: rotl32:b <- 18
	.loc	3 37 21                         # ./include/sodium/private/common.h:37:21 @[ crypto_core/salsa/ref/core_salsa_ref.c:73:16 ]
	roll	$18, %r12d
.Ltmp136:
	#DEBUG_VALUE: crypto_core_salsa:x10 <- undef
	.loc	1 69 12                         # crypto_core/salsa/ref/core_salsa_ref.c:69:12
	xorl	%edx, %eax
.Ltmp137:
	#DEBUG_VALUE: crypto_core_salsa:x5 <- $eax
	.loc	1 0 12 is_stmt 0                # crypto_core/salsa/ref/core_salsa_ref.c:0:12
	movq	-8(%rsp), %rdx                  # 8-byte Reload
	movq	-24(%rsp), %rbx                 # 8-byte Reload
	.loc	1 74 28 is_stmt 1               # crypto_core/salsa/ref/core_salsa_ref.c:74:28
	leal	(%rbx,%rdx), %r11d
.Ltmp138:
	#DEBUG_VALUE: rotl32:x <- $r11d
	#DEBUG_VALUE: rotl32:b <- 7
	.loc	3 37 21                         # ./include/sodium/private/common.h:37:21 @[ crypto_core/salsa/ref/core_salsa_ref.c:74:16 ]
	roll	$7, %r11d
.Ltmp139:
	.loc	1 74 13                         # crypto_core/salsa/ref/core_salsa_ref.c:74:13
	xorl	24(%rsp), %r11d                 # 4-byte Folded Reload
.Ltmp140:
	#DEBUG_VALUE: crypto_core_salsa:x12 <- $r11d
	.loc	1 75 28                         # crypto_core/salsa/ref/core_salsa_ref.c:75:28
	leal	(%r11,%rbx), %esi
.Ltmp141:
	#DEBUG_VALUE: rotl32:x <- $esi
	#DEBUG_VALUE: rotl32:b <- 9
	.loc	3 37 21                         # ./include/sodium/private/common.h:37:21 @[ crypto_core/salsa/ref/core_salsa_ref.c:75:16 ]
	roll	$9, %esi
.Ltmp142:
	.loc	1 75 13                         # crypto_core/salsa/ref/core_salsa_ref.c:75:13
	xorl	16(%rsp), %esi                  # 4-byte Folded Reload
.Ltmp143:
	#DEBUG_VALUE: crypto_core_salsa:x13 <- $esi
	.loc	1 76 28                         # crypto_core/salsa/ref/core_salsa_ref.c:76:28
	leal	(%rsi,%r11), %edi
.Ltmp144:
	#DEBUG_VALUE: rotl32:x <- $edi
	#DEBUG_VALUE: rotl32:b <- 13
	.loc	3 37 21                         # ./include/sodium/private/common.h:37:21 @[ crypto_core/salsa/ref/core_salsa_ref.c:76:16 ]
	roll	$13, %edi
.Ltmp145:
	.loc	1 76 13                         # crypto_core/salsa/ref/core_salsa_ref.c:76:13
	xorl	%edx, %edi
.Ltmp146:
	#DEBUG_VALUE: crypto_core_salsa:x14 <- $edi
	.loc	1 77 28                         # crypto_core/salsa/ref/core_salsa_ref.c:77:28
	leal	(%rdi,%rsi), %edx
.Ltmp147:
	#DEBUG_VALUE: rotl32:x <- $edx
	#DEBUG_VALUE: rotl32:b <- 18
	.loc	3 37 21                         # ./include/sodium/private/common.h:37:21 @[ crypto_core/salsa/ref/core_salsa_ref.c:77:16 ]
	roll	$18, %edx
.Ltmp148:
	.loc	1 73 13                         # crypto_core/salsa/ref/core_salsa_ref.c:73:13
	xorl	-32(%rsp), %r12d                # 4-byte Folded Reload
.Ltmp149:
	#DEBUG_VALUE: crypto_core_salsa:x10 <- $r12d
	.loc	1 77 13                         # crypto_core/salsa/ref/core_salsa_ref.c:77:13
	xorl	%ebx, %edx
.Ltmp150:
	#DEBUG_VALUE: crypto_core_salsa:x15 <- $edx
	.loc	1 0 13 is_stmt 0                # crypto_core/salsa/ref/core_salsa_ref.c:0:13
	movl	-116(%rsp), %ebx                # 4-byte Reload
.Ltmp151:
	.loc	1 45 31 is_stmt 1               # crypto_core/salsa/ref/core_salsa_ref.c:45:31
	addl	$2, %ebx
.Ltmp152:
	#DEBUG_VALUE: crypto_core_salsa:i <- $ebx
	.loc	1 0 31 is_stmt 0                # crypto_core/salsa/ref/core_salsa_ref.c:0:31
	movl	%ebx, -116(%rsp)                # 4-byte Spill
.Ltmp153:
	#DEBUG_VALUE: crypto_core_salsa:i <- [DW_OP_constu 116, DW_OP_minus, DW_OP_deref] $rsp
	.loc	1 45 19                         # crypto_core/salsa/ref/core_salsa_ref.c:45:19
	cmpl	-44(%rsp), %ebx                 # 4-byte Folded Reload
.Ltmp154:
	.loc	1 45 5                          # crypto_core/salsa/ref/core_salsa_ref.c:45:5
	jb	.LBB1_4
.Ltmp155:
# %bb.5:
	#DEBUG_VALUE: crypto_core_salsa:out <- [DW_OP_constu 40, DW_OP_minus] [$rsp+0]
	#DEBUG_VALUE: crypto_core_salsa:in <- [DW_OP_LLVM_entry_value 1] $rsi
	#DEBUG_VALUE: crypto_core_salsa:k <- [DW_OP_LLVM_entry_value 1] $rdx
	#DEBUG_VALUE: crypto_core_salsa:c <- [DW_OP_LLVM_entry_value 1] $rcx
	#DEBUG_VALUE: crypto_core_salsa:rounds <- [DW_OP_constu 44, DW_OP_minus] [$rsp+0]
	#DEBUG_VALUE: crypto_core_salsa:x0 <- $r9d
	#DEBUG_VALUE: crypto_core_salsa:j0 <- [DW_OP_constu 64, DW_OP_minus, DW_OP_deref] $rsp
	#DEBUG_VALUE: crypto_core_salsa:x5 <- $eax
	#DEBUG_VALUE: crypto_core_salsa:j5 <- [DW_OP_constu 56, DW_OP_minus, DW_OP_deref] $rsp
	#DEBUG_VALUE: crypto_core_salsa:x10 <- $r12d
	#DEBUG_VALUE: crypto_core_salsa:j10 <- [DW_OP_constu 128, DW_OP_minus, DW_OP_deref] $rsp
	#DEBUG_VALUE: crypto_core_salsa:x15 <- $edx
	#DEBUG_VALUE: crypto_core_salsa:j15 <- [DW_OP_constu 124, DW_OP_minus, DW_OP_deref] $rsp
	#DEBUG_VALUE: crypto_core_salsa:x1 <- $r13d
	#DEBUG_VALUE: crypto_core_salsa:j1 <- [DW_OP_constu 96, DW_OP_minus, DW_OP_deref] $rsp
	#DEBUG_VALUE: crypto_core_salsa:x2 <- $r14d
	#DEBUG_VALUE: crypto_core_salsa:j2 <- [DW_OP_constu 92, DW_OP_minus, DW_OP_deref] $rsp
	#DEBUG_VALUE: crypto_core_salsa:x3 <- [DW_OP_constu 104, DW_OP_minus, DW_OP_deref] $rsp
	#DEBUG_VALUE: crypto_core_salsa:j3 <- [DW_OP_constu 88, DW_OP_minus, DW_OP_deref] $rsp
	#DEBUG_VALUE: crypto_core_salsa:x4 <- $r8d
	#DEBUG_VALUE: crypto_core_salsa:j4 <- [DW_OP_constu 84, DW_OP_minus, DW_OP_deref] $rsp
	#DEBUG_VALUE: crypto_core_salsa:x11 <- $ebp
	#DEBUG_VALUE: crypto_core_salsa:j11 <- [DW_OP_constu 60, DW_OP_minus, DW_OP_deref] $rsp
	#DEBUG_VALUE: crypto_core_salsa:x12 <- $r11d
	#DEBUG_VALUE: crypto_core_salsa:j12 <- [DW_OP_constu 120, DW_OP_minus, DW_OP_deref] $rsp
	#DEBUG_VALUE: crypto_core_salsa:x13 <- $esi
	#DEBUG_VALUE: crypto_core_salsa:j13 <- [DW_OP_constu 52, DW_OP_minus, DW_OP_deref] $rsp
	#DEBUG_VALUE: crypto_core_salsa:x14 <- $edi
	#DEBUG_VALUE: crypto_core_salsa:j14 <- [DW_OP_constu 48, DW_OP_minus, DW_OP_deref] $rsp
	#DEBUG_VALUE: crypto_core_salsa:x6 <- $r15d
	#DEBUG_VALUE: crypto_core_salsa:j6 <- [DW_OP_constu 80, DW_OP_minus, DW_OP_deref] $rsp
	#DEBUG_VALUE: crypto_core_salsa:x7 <- [DW_OP_constu 112, DW_OP_minus, DW_OP_deref] $rsp
	#DEBUG_VALUE: crypto_core_salsa:j7 <- [DW_OP_constu 76, DW_OP_minus, DW_OP_deref] $rsp
	#DEBUG_VALUE: crypto_core_salsa:x8 <- $ecx
	#DEBUG_VALUE: crypto_core_salsa:j8 <- [DW_OP_constu 72, DW_OP_minus, DW_OP_deref] $rsp
	#DEBUG_VALUE: crypto_core_salsa:x9 <- $r10d
	#DEBUG_VALUE: crypto_core_salsa:j9 <- [DW_OP_constu 68, DW_OP_minus, DW_OP_deref] $rsp
	#DEBUG_VALUE: crypto_core_salsa:i <- [DW_OP_constu 116, DW_OP_minus, DW_OP_deref] $rsp
	.loc	1 79 31 is_stmt 1               # crypto_core/salsa/ref/core_salsa_ref.c:79:31
	addl	-64(%rsp), %r9d                 # 4-byte Folded Reload
.Ltmp156:
	#DEBUG_VALUE: store32_le:dst <- [DW_OP_constu 40, DW_OP_minus, DW_OP_deref] $rsp
	#DEBUG_VALUE: store32_le:w <- undef
	#DEBUG_VALUE: memcpy:__dest <- [DW_OP_constu 40, DW_OP_minus, DW_OP_deref] $rsp
	#DEBUG_VALUE: memcpy:__src <- undef
	#DEBUG_VALUE: memcpy:__len <- 4
	.loc	1 0 31 is_stmt 0                # crypto_core/salsa/ref/core_salsa_ref.c:0:31
	movq	-40(%rsp), %rbx                 # 8-byte Reload
.Ltmp157:
	.loc	2 29 10 is_stmt 1               # /usr/include/x86_64-linux-gnu/bits/string_fortified.h:29:10 @[ ./include/sodium/private/common.h:122:5 @[ crypto_core/salsa/ref/core_salsa_ref.c:79:5 ] ]
	movl	%r9d, (%rbx)
.Ltmp158:
	.loc	1 80 31                         # crypto_core/salsa/ref/core_salsa_ref.c:80:31
	addl	-96(%rsp), %r13d                # 4-byte Folded Reload
.Ltmp159:
	#DEBUG_VALUE: store32_le:w <- undef
	#DEBUG_VALUE: memcpy:__src <- undef
	#DEBUG_VALUE: memcpy:__len <- 4
	#DEBUG_VALUE: store32_le:dst <- [DW_OP_constu 40, DW_OP_minus, DW_OP_deref, DW_OP_plus_uconst 4, DW_OP_stack_value] $rsp
	#DEBUG_VALUE: memcpy:__dest <- [DW_OP_constu 40, DW_OP_minus, DW_OP_deref, DW_OP_plus_uconst 4, DW_OP_stack_value] $rsp
	.loc	2 29 10                         # /usr/include/x86_64-linux-gnu/bits/string_fortified.h:29:10 @[ ./include/sodium/private/common.h:122:5 @[ crypto_core/salsa/ref/core_salsa_ref.c:80:5 ] ]
	movl	%r13d, 4(%rbx)
.Ltmp160:
	.loc	1 81 31                         # crypto_core/salsa/ref/core_salsa_ref.c:81:31
	addl	-92(%rsp), %r14d                # 4-byte Folded Reload
.Ltmp161:
	#DEBUG_VALUE: store32_le:w <- undef
	#DEBUG_VALUE: memcpy:__src <- undef
	#DEBUG_VALUE: memcpy:__len <- 4
	#DEBUG_VALUE: store32_le:dst <- [DW_OP_constu 40, DW_OP_minus, DW_OP_deref, DW_OP_plus_uconst 8, DW_OP_stack_value] $rsp
	#DEBUG_VALUE: memcpy:__dest <- [DW_OP_constu 40, DW_OP_minus, DW_OP_deref, DW_OP_plus_uconst 8, DW_OP_stack_value] $rsp
	.loc	2 29 10                         # /usr/include/x86_64-linux-gnu/bits/string_fortified.h:29:10 @[ ./include/sodium/private/common.h:122:5 @[ crypto_core/salsa/ref/core_salsa_ref.c:81:5 ] ]
	movl	%r14d, 8(%rbx)
	movq	-104(%rsp), %r9                 # 8-byte Reload
.Ltmp162:
	.loc	1 82 32                         # crypto_core/salsa/ref/core_salsa_ref.c:82:32
	addl	-88(%rsp), %r9d                 # 4-byte Folded Reload
.Ltmp163:
	#DEBUG_VALUE: store32_le:w <- undef
	#DEBUG_VALUE: memcpy:__src <- undef
	#DEBUG_VALUE: memcpy:__len <- 4
	#DEBUG_VALUE: store32_le:dst <- [DW_OP_constu 40, DW_OP_minus, DW_OP_deref, DW_OP_plus_uconst 12, DW_OP_stack_value] $rsp
	#DEBUG_VALUE: memcpy:__dest <- [DW_OP_constu 40, DW_OP_minus, DW_OP_deref, DW_OP_plus_uconst 12, DW_OP_stack_value] $rsp
	.loc	2 29 10                         # /usr/include/x86_64-linux-gnu/bits/string_fortified.h:29:10 @[ ./include/sodium/private/common.h:122:5 @[ crypto_core/salsa/ref/core_salsa_ref.c:82:5 ] ]
	movl	%r9d, 12(%rbx)
.Ltmp164:
	.loc	1 83 32                         # crypto_core/salsa/ref/core_salsa_ref.c:83:32
	addl	-84(%rsp), %r8d                 # 4-byte Folded Reload
.Ltmp165:
	#DEBUG_VALUE: store32_le:w <- undef
	#DEBUG_VALUE: memcpy:__src <- undef
	#DEBUG_VALUE: memcpy:__len <- 4
	#DEBUG_VALUE: store32_le:dst <- [DW_OP_constu 40, DW_OP_minus, DW_OP_deref, DW_OP_plus_uconst 16, DW_OP_stack_value] $rsp
	#DEBUG_VALUE: memcpy:__dest <- [DW_OP_constu 40, DW_OP_minus, DW_OP_deref, DW_OP_plus_uconst 16, DW_OP_stack_value] $rsp
	.loc	2 29 10                         # /usr/include/x86_64-linux-gnu/bits/string_fortified.h:29:10 @[ ./include/sodium/private/common.h:122:5 @[ crypto_core/salsa/ref/core_salsa_ref.c:83:5 ] ]
	movl	%r8d, 16(%rbx)
.Ltmp166:
	.loc	1 84 32                         # crypto_core/salsa/ref/core_salsa_ref.c:84:32
	addl	-56(%rsp), %eax                 # 4-byte Folded Reload
.Ltmp167:
	#DEBUG_VALUE: store32_le:w <- undef
	#DEBUG_VALUE: memcpy:__src <- undef
	#DEBUG_VALUE: memcpy:__len <- 4
	#DEBUG_VALUE: store32_le:dst <- [DW_OP_constu 40, DW_OP_minus, DW_OP_deref, DW_OP_plus_uconst 20, DW_OP_stack_value] $rsp
	#DEBUG_VALUE: memcpy:__dest <- [DW_OP_constu 40, DW_OP_minus, DW_OP_deref, DW_OP_plus_uconst 20, DW_OP_stack_value] $rsp
	.loc	2 29 10                         # /usr/include/x86_64-linux-gnu/bits/string_fortified.h:29:10 @[ ./include/sodium/private/common.h:122:5 @[ crypto_core/salsa/ref/core_salsa_ref.c:84:5 ] ]
	movl	%eax, 20(%rbx)
.Ltmp168:
	.loc	1 85 32                         # crypto_core/salsa/ref/core_salsa_ref.c:85:32
	addl	-80(%rsp), %r15d                # 4-byte Folded Reload
.Ltmp169:
	#DEBUG_VALUE: store32_le:w <- undef
	#DEBUG_VALUE: memcpy:__src <- undef
	#DEBUG_VALUE: memcpy:__len <- 4
	#DEBUG_VALUE: store32_le:dst <- [DW_OP_constu 40, DW_OP_minus, DW_OP_deref, DW_OP_plus_uconst 24, DW_OP_stack_value] $rsp
	#DEBUG_VALUE: memcpy:__dest <- [DW_OP_constu 40, DW_OP_minus, DW_OP_deref, DW_OP_plus_uconst 24, DW_OP_stack_value] $rsp
	.loc	2 29 10                         # /usr/include/x86_64-linux-gnu/bits/string_fortified.h:29:10 @[ ./include/sodium/private/common.h:122:5 @[ crypto_core/salsa/ref/core_salsa_ref.c:85:5 ] ]
	movl	%r15d, 24(%rbx)
	movq	-112(%rsp), %rax                # 8-byte Reload
.Ltmp170:
	.loc	1 86 32                         # crypto_core/salsa/ref/core_salsa_ref.c:86:32
	addl	-76(%rsp), %eax                 # 4-byte Folded Reload
.Ltmp171:
	#DEBUG_VALUE: store32_le:w <- undef
	#DEBUG_VALUE: memcpy:__src <- undef
	#DEBUG_VALUE: memcpy:__len <- 4
	#DEBUG_VALUE: store32_le:dst <- [DW_OP_constu 40, DW_OP_minus, DW_OP_deref, DW_OP_plus_uconst 28, DW_OP_stack_value] $rsp
	#DEBUG_VALUE: memcpy:__dest <- [DW_OP_constu 40, DW_OP_minus, DW_OP_deref, DW_OP_plus_uconst 28, DW_OP_stack_value] $rsp
	.loc	2 29 10                         # /usr/include/x86_64-linux-gnu/bits/string_fortified.h:29:10 @[ ./include/sodium/private/common.h:122:5 @[ crypto_core/salsa/ref/core_salsa_ref.c:86:5 ] ]
	movl	%eax, 28(%rbx)
.Ltmp172:
	.loc	1 87 32                         # crypto_core/salsa/ref/core_salsa_ref.c:87:32
	addl	-72(%rsp), %ecx                 # 4-byte Folded Reload
.Ltmp173:
	#DEBUG_VALUE: store32_le:w <- undef
	#DEBUG_VALUE: memcpy:__src <- undef
	#DEBUG_VALUE: memcpy:__len <- 4
	#DEBUG_VALUE: store32_le:dst <- [DW_OP_constu 40, DW_OP_minus, DW_OP_deref, DW_OP_plus_uconst 32, DW_OP_stack_value] $rsp
	#DEBUG_VALUE: memcpy:__dest <- [DW_OP_constu 40, DW_OP_minus, DW_OP_deref, DW_OP_plus_uconst 32, DW_OP_stack_value] $rsp
	.loc	2 29 10                         # /usr/include/x86_64-linux-gnu/bits/string_fortified.h:29:10 @[ ./include/sodium/private/common.h:122:5 @[ crypto_core/salsa/ref/core_salsa_ref.c:87:5 ] ]
	movl	%ecx, 32(%rbx)
.Ltmp174:
	.loc	1 88 32                         # crypto_core/salsa/ref/core_salsa_ref.c:88:32
	addl	-68(%rsp), %r10d                # 4-byte Folded Reload
.Ltmp175:
	#DEBUG_VALUE: store32_le:w <- undef
	#DEBUG_VALUE: memcpy:__src <- undef
	#DEBUG_VALUE: memcpy:__len <- 4
	#DEBUG_VALUE: store32_le:dst <- [DW_OP_constu 40, DW_OP_minus, DW_OP_deref, DW_OP_plus_uconst 36, DW_OP_stack_value] $rsp
	#DEBUG_VALUE: memcpy:__dest <- [DW_OP_constu 40, DW_OP_minus, DW_OP_deref, DW_OP_plus_uconst 36, DW_OP_stack_value] $rsp
	.loc	2 29 10                         # /usr/include/x86_64-linux-gnu/bits/string_fortified.h:29:10 @[ ./include/sodium/private/common.h:122:5 @[ crypto_core/salsa/ref/core_salsa_ref.c:88:5 ] ]
	movl	%r10d, 36(%rbx)
.Ltmp176:
	.loc	1 89 33                         # crypto_core/salsa/ref/core_salsa_ref.c:89:33
	addl	-128(%rsp), %r12d               # 4-byte Folded Reload
.Ltmp177:
	#DEBUG_VALUE: store32_le:w <- undef
	#DEBUG_VALUE: memcpy:__src <- undef
	#DEBUG_VALUE: memcpy:__len <- 4
	#DEBUG_VALUE: store32_le:dst <- [DW_OP_constu 40, DW_OP_minus, DW_OP_deref, DW_OP_plus_uconst 40, DW_OP_stack_value] $rsp
	#DEBUG_VALUE: memcpy:__dest <- [DW_OP_constu 40, DW_OP_minus, DW_OP_deref, DW_OP_plus_uconst 40, DW_OP_stack_value] $rsp
	.loc	2 29 10                         # /usr/include/x86_64-linux-gnu/bits/string_fortified.h:29:10 @[ ./include/sodium/private/common.h:122:5 @[ crypto_core/salsa/ref/core_salsa_ref.c:89:5 ] ]
	movl	%r12d, 40(%rbx)
.Ltmp178:
	.loc	1 90 33                         # crypto_core/salsa/ref/core_salsa_ref.c:90:33
	addl	-60(%rsp), %ebp                 # 4-byte Folded Reload
.Ltmp179:
	#DEBUG_VALUE: store32_le:w <- undef
	#DEBUG_VALUE: memcpy:__src <- undef
	#DEBUG_VALUE: memcpy:__len <- 4
	#DEBUG_VALUE: store32_le:dst <- [DW_OP_constu 40, DW_OP_minus, DW_OP_deref, DW_OP_plus_uconst 44, DW_OP_stack_value] $rsp
	#DEBUG_VALUE: memcpy:__dest <- [DW_OP_constu 40, DW_OP_minus, DW_OP_deref, DW_OP_plus_uconst 44, DW_OP_stack_value] $rsp
	.loc	2 29 10                         # /usr/include/x86_64-linux-gnu/bits/string_fortified.h:29:10 @[ ./include/sodium/private/common.h:122:5 @[ crypto_core/salsa/ref/core_salsa_ref.c:90:5 ] ]
	movl	%ebp, 44(%rbx)
.Ltmp180:
	.loc	1 91 33                         # crypto_core/salsa/ref/core_salsa_ref.c:91:33
	addl	-120(%rsp), %r11d               # 4-byte Folded Reload
.Ltmp181:
	#DEBUG_VALUE: store32_le:w <- undef
	#DEBUG_VALUE: memcpy:__src <- undef
	#DEBUG_VALUE: memcpy:__len <- 4
	#DEBUG_VALUE: store32_le:dst <- [DW_OP_constu 40, DW_OP_minus, DW_OP_deref, DW_OP_plus_uconst 48, DW_OP_stack_value] $rsp
	#DEBUG_VALUE: memcpy:__dest <- [DW_OP_constu 40, DW_OP_minus, DW_OP_deref, DW_OP_plus_uconst 48, DW_OP_stack_value] $rsp
	.loc	2 29 10                         # /usr/include/x86_64-linux-gnu/bits/string_fortified.h:29:10 @[ ./include/sodium/private/common.h:122:5 @[ crypto_core/salsa/ref/core_salsa_ref.c:91:5 ] ]
	movl	%r11d, 48(%rbx)
.Ltmp182:
	.loc	1 92 33                         # crypto_core/salsa/ref/core_salsa_ref.c:92:33
	addl	-52(%rsp), %esi                 # 4-byte Folded Reload
.Ltmp183:
	#DEBUG_VALUE: store32_le:w <- undef
	#DEBUG_VALUE: memcpy:__src <- undef
	#DEBUG_VALUE: memcpy:__len <- 4
	#DEBUG_VALUE: store32_le:dst <- [DW_OP_constu 40, DW_OP_minus, DW_OP_deref, DW_OP_plus_uconst 52, DW_OP_stack_value] $rsp
	#DEBUG_VALUE: memcpy:__dest <- [DW_OP_constu 40, DW_OP_minus, DW_OP_deref, DW_OP_plus_uconst 52, DW_OP_stack_value] $rsp
	.loc	2 29 10                         # /usr/include/x86_64-linux-gnu/bits/string_fortified.h:29:10 @[ ./include/sodium/private/common.h:122:5 @[ crypto_core/salsa/ref/core_salsa_ref.c:92:5 ] ]
	movl	%esi, 52(%rbx)
.Ltmp184:
	.loc	1 93 33                         # crypto_core/salsa/ref/core_salsa_ref.c:93:33
	addl	-48(%rsp), %edi                 # 4-byte Folded Reload
.Ltmp185:
	#DEBUG_VALUE: store32_le:w <- undef
	#DEBUG_VALUE: memcpy:__src <- undef
	#DEBUG_VALUE: memcpy:__len <- 4
	#DEBUG_VALUE: store32_le:dst <- [DW_OP_constu 40, DW_OP_minus, DW_OP_deref, DW_OP_plus_uconst 56, DW_OP_stack_value] $rsp
	#DEBUG_VALUE: memcpy:__dest <- [DW_OP_constu 40, DW_OP_minus, DW_OP_deref, DW_OP_plus_uconst 56, DW_OP_stack_value] $rsp
	.loc	2 29 10                         # /usr/include/x86_64-linux-gnu/bits/string_fortified.h:29:10 @[ ./include/sodium/private/common.h:122:5 @[ crypto_core/salsa/ref/core_salsa_ref.c:93:5 ] ]
	movl	%edi, 56(%rbx)
.Ltmp186:
	.loc	1 94 33                         # crypto_core/salsa/ref/core_salsa_ref.c:94:33
	addl	-124(%rsp), %edx                # 4-byte Folded Reload
.Ltmp187:
	#DEBUG_VALUE: store32_le:w <- undef
	#DEBUG_VALUE: memcpy:__src <- undef
	#DEBUG_VALUE: memcpy:__len <- 4
	#DEBUG_VALUE: store32_le:dst <- [DW_OP_constu 40, DW_OP_minus, DW_OP_deref, DW_OP_plus_uconst 60, DW_OP_stack_value] $rsp
	#DEBUG_VALUE: memcpy:__dest <- [DW_OP_constu 40, DW_OP_minus, DW_OP_deref, DW_OP_plus_uconst 60, DW_OP_stack_value] $rsp
	.loc	2 29 10                         # /usr/include/x86_64-linux-gnu/bits/string_fortified.h:29:10 @[ ./include/sodium/private/common.h:122:5 @[ crypto_core/salsa/ref/core_salsa_ref.c:94:5 ] ]
	movl	%edx, 60(%rbx)
.Ltmp188:
	.loc	1 95 1 epilogue_begin           # crypto_core/salsa/ref/core_salsa_ref.c:95:1
	addq	$32, %rsp
	.cfi_def_cfa_offset 56
	popq	%rbx
	.cfi_def_cfa_offset 48
	popq	%r12
	.cfi_def_cfa_offset 40
	popq	%r13
	.cfi_def_cfa_offset 32
	popq	%r14
	.cfi_def_cfa_offset 24
	popq	%r15
	.cfi_def_cfa_offset 16
	popq	%rbp
	.cfi_def_cfa_offset 8
	retq
.Ltmp189:
.Lfunc_end1:
	.size	crypto_core_salsa, .Lfunc_end1-crypto_core_salsa
	.cfi_endproc
	.file	4 "/home/leizhenyuu/opt/Anonymous_Repo" "llvm-project/build/lib/clang/21/include/__stddef_size_t.h"
	.file	5 "/usr/include/x86_64-linux-gnu/bits" "types.h"
	.file	6 "/usr/include/x86_64-linux-gnu/bits" "stdint-uintn.h"
                                        # -- End function
	.globl	crypto_core_salsa20_outputbytes # -- Begin function crypto_core_salsa20_outputbytes
	.p2align	4
	.type	crypto_core_salsa20_outputbytes,@function
crypto_core_salsa20_outputbytes:        # @crypto_core_salsa20_outputbytes
.Lfunc_begin2:
	.cfi_startproc
# %bb.0:
	.loc	1 108 5 prologue_end            # crypto_core/salsa/ref/core_salsa_ref.c:108:5
	movl	$64, %eax
	retq
.Ltmp190:
.Lfunc_end2:
	.size	crypto_core_salsa20_outputbytes, .Lfunc_end2-crypto_core_salsa20_outputbytes
	.cfi_endproc
                                        # -- End function
	.globl	crypto_core_salsa20_inputbytes  # -- Begin function crypto_core_salsa20_inputbytes
	.p2align	4
	.type	crypto_core_salsa20_inputbytes,@function
crypto_core_salsa20_inputbytes:         # @crypto_core_salsa20_inputbytes
.Lfunc_begin3:
	.cfi_startproc
# %bb.0:
	.loc	1 114 5 prologue_end            # crypto_core/salsa/ref/core_salsa_ref.c:114:5
	movl	$16, %eax
	retq
.Ltmp191:
.Lfunc_end3:
	.size	crypto_core_salsa20_inputbytes, .Lfunc_end3-crypto_core_salsa20_inputbytes
	.cfi_endproc
                                        # -- End function
	.globl	crypto_core_salsa20_keybytes    # -- Begin function crypto_core_salsa20_keybytes
	.p2align	4
	.type	crypto_core_salsa20_keybytes,@function
crypto_core_salsa20_keybytes:           # @crypto_core_salsa20_keybytes
.Lfunc_begin4:
	.cfi_startproc
# %bb.0:
	.loc	1 120 5 prologue_end            # crypto_core/salsa/ref/core_salsa_ref.c:120:5
	movl	$32, %eax
	retq
.Ltmp192:
.Lfunc_end4:
	.size	crypto_core_salsa20_keybytes, .Lfunc_end4-crypto_core_salsa20_keybytes
	.cfi_endproc
                                        # -- End function
	.globl	crypto_core_salsa20_constbytes  # -- Begin function crypto_core_salsa20_constbytes
	.p2align	4
	.type	crypto_core_salsa20_constbytes,@function
crypto_core_salsa20_constbytes:         # @crypto_core_salsa20_constbytes
.Lfunc_begin5:
	.cfi_startproc
# %bb.0:
	.loc	1 126 5 prologue_end            # crypto_core/salsa/ref/core_salsa_ref.c:126:5
	movl	$16, %eax
	retq
.Ltmp193:
.Lfunc_end5:
	.size	crypto_core_salsa20_constbytes, .Lfunc_end5-crypto_core_salsa20_constbytes
	.cfi_endproc
                                        # -- End function
	.globl	crypto_core_salsa2012           # -- Begin function crypto_core_salsa2012
	.p2align	4
	.type	crypto_core_salsa2012,@function
crypto_core_salsa2012:                  # @crypto_core_salsa2012
.Lfunc_begin6:
	.loc	1 134 0                         # crypto_core/salsa/ref/core_salsa_ref.c:134:0
	.cfi_startproc
# %bb.0:
	#DEBUG_VALUE: crypto_core_salsa2012:out <- $rdi
	#DEBUG_VALUE: crypto_core_salsa2012:in <- $rsi
	#DEBUG_VALUE: crypto_core_salsa2012:k <- $rdx
	#DEBUG_VALUE: crypto_core_salsa2012:c <- $rcx
	pushq	%rax
	.cfi_def_cfa_offset 16
.Ltmp194:
	.loc	1 135 5 prologue_end            # crypto_core/salsa/ref/core_salsa_ref.c:135:5
	movl	$12, %r8d
	callq	crypto_core_salsa
.Ltmp195:
	#DEBUG_VALUE: crypto_core_salsa2012:c <- [DW_OP_LLVM_entry_value 1] $rcx
	#DEBUG_VALUE: crypto_core_salsa2012:k <- [DW_OP_LLVM_entry_value 1] $rdx
	#DEBUG_VALUE: crypto_core_salsa2012:in <- [DW_OP_LLVM_entry_value 1] $rsi
	#DEBUG_VALUE: crypto_core_salsa2012:out <- [DW_OP_LLVM_entry_value 1] $rdi
	.loc	1 136 5                         # crypto_core/salsa/ref/core_salsa_ref.c:136:5
	xorl	%eax, %eax
	.loc	1 136 5 epilogue_begin is_stmt 0 # crypto_core/salsa/ref/core_salsa_ref.c:136:5
	popq	%rcx
	.cfi_def_cfa_offset 8
	retq
.Ltmp196:
.Lfunc_end6:
	.size	crypto_core_salsa2012, .Lfunc_end6-crypto_core_salsa2012
	.cfi_endproc
                                        # -- End function
	.globl	crypto_core_salsa2012_outputbytes # -- Begin function crypto_core_salsa2012_outputbytes
	.p2align	4
	.type	crypto_core_salsa2012_outputbytes,@function
crypto_core_salsa2012_outputbytes:      # @crypto_core_salsa2012_outputbytes
.Lfunc_begin7:
	.cfi_startproc
# %bb.0:
	.loc	1 142 5 prologue_end is_stmt 1  # crypto_core/salsa/ref/core_salsa_ref.c:142:5
	movl	$64, %eax
	retq
.Ltmp197:
.Lfunc_end7:
	.size	crypto_core_salsa2012_outputbytes, .Lfunc_end7-crypto_core_salsa2012_outputbytes
	.cfi_endproc
                                        # -- End function
	.globl	crypto_core_salsa2012_inputbytes # -- Begin function crypto_core_salsa2012_inputbytes
	.p2align	4
	.type	crypto_core_salsa2012_inputbytes,@function
crypto_core_salsa2012_inputbytes:       # @crypto_core_salsa2012_inputbytes
.Lfunc_begin8:
	.cfi_startproc
# %bb.0:
	.loc	1 148 5 prologue_end            # crypto_core/salsa/ref/core_salsa_ref.c:148:5
	movl	$16, %eax
	retq
.Ltmp198:
.Lfunc_end8:
	.size	crypto_core_salsa2012_inputbytes, .Lfunc_end8-crypto_core_salsa2012_inputbytes
	.cfi_endproc
                                        # -- End function
	.globl	crypto_core_salsa2012_keybytes  # -- Begin function crypto_core_salsa2012_keybytes
	.p2align	4
	.type	crypto_core_salsa2012_keybytes,@function
crypto_core_salsa2012_keybytes:         # @crypto_core_salsa2012_keybytes
.Lfunc_begin9:
	.cfi_startproc
# %bb.0:
	.loc	1 154 5 prologue_end            # crypto_core/salsa/ref/core_salsa_ref.c:154:5
	movl	$32, %eax
	retq
.Ltmp199:
.Lfunc_end9:
	.size	crypto_core_salsa2012_keybytes, .Lfunc_end9-crypto_core_salsa2012_keybytes
	.cfi_endproc
                                        # -- End function
	.globl	crypto_core_salsa2012_constbytes # -- Begin function crypto_core_salsa2012_constbytes
	.p2align	4
	.type	crypto_core_salsa2012_constbytes,@function
crypto_core_salsa2012_constbytes:       # @crypto_core_salsa2012_constbytes
.Lfunc_begin10:
	.cfi_startproc
# %bb.0:
	.loc	1 160 5 prologue_end            # crypto_core/salsa/ref/core_salsa_ref.c:160:5
	movl	$16, %eax
	retq
.Ltmp200:
.Lfunc_end10:
	.size	crypto_core_salsa2012_constbytes, .Lfunc_end10-crypto_core_salsa2012_constbytes
	.cfi_endproc
                                        # -- End function
	.globl	crypto_core_salsa208            # -- Begin function crypto_core_salsa208
	.p2align	4
	.type	crypto_core_salsa208,@function
crypto_core_salsa208:                   # @crypto_core_salsa208
.Lfunc_begin11:
	.loc	1 166 0                         # crypto_core/salsa/ref/core_salsa_ref.c:166:0
	.cfi_startproc
# %bb.0:
	#DEBUG_VALUE: crypto_core_salsa208:out <- $rdi
	#DEBUG_VALUE: crypto_core_salsa208:in <- $rsi
	#DEBUG_VALUE: crypto_core_salsa208:k <- $rdx
	#DEBUG_VALUE: crypto_core_salsa208:c <- $rcx
	pushq	%rax
	.cfi_def_cfa_offset 16
.Ltmp201:
	.loc	1 167 5 prologue_end            # crypto_core/salsa/ref/core_salsa_ref.c:167:5
	movl	$8, %r8d
	callq	crypto_core_salsa
.Ltmp202:
	#DEBUG_VALUE: crypto_core_salsa208:c <- [DW_OP_LLVM_entry_value 1] $rcx
	#DEBUG_VALUE: crypto_core_salsa208:k <- [DW_OP_LLVM_entry_value 1] $rdx
	#DEBUG_VALUE: crypto_core_salsa208:in <- [DW_OP_LLVM_entry_value 1] $rsi
	#DEBUG_VALUE: crypto_core_salsa208:out <- [DW_OP_LLVM_entry_value 1] $rdi
	.loc	1 168 5                         # crypto_core/salsa/ref/core_salsa_ref.c:168:5
	xorl	%eax, %eax
	.loc	1 168 5 epilogue_begin is_stmt 0 # crypto_core/salsa/ref/core_salsa_ref.c:168:5
	popq	%rcx
	.cfi_def_cfa_offset 8
	retq
.Ltmp203:
.Lfunc_end11:
	.size	crypto_core_salsa208, .Lfunc_end11-crypto_core_salsa208
	.cfi_endproc
                                        # -- End function
	.globl	crypto_core_salsa208_outputbytes # -- Begin function crypto_core_salsa208_outputbytes
	.p2align	4
	.type	crypto_core_salsa208_outputbytes,@function
crypto_core_salsa208_outputbytes:       # @crypto_core_salsa208_outputbytes
.Lfunc_begin12:
	.cfi_startproc
# %bb.0:
	.loc	1 174 5 prologue_end is_stmt 1  # crypto_core/salsa/ref/core_salsa_ref.c:174:5
	movl	$64, %eax
	retq
.Ltmp204:
.Lfunc_end12:
	.size	crypto_core_salsa208_outputbytes, .Lfunc_end12-crypto_core_salsa208_outputbytes
	.cfi_endproc
                                        # -- End function
	.globl	crypto_core_salsa208_inputbytes # -- Begin function crypto_core_salsa208_inputbytes
	.p2align	4
	.type	crypto_core_salsa208_inputbytes,@function
crypto_core_salsa208_inputbytes:        # @crypto_core_salsa208_inputbytes
.Lfunc_begin13:
	.cfi_startproc
# %bb.0:
	.loc	1 180 5 prologue_end            # crypto_core/salsa/ref/core_salsa_ref.c:180:5
	movl	$16, %eax
	retq
.Ltmp205:
.Lfunc_end13:
	.size	crypto_core_salsa208_inputbytes, .Lfunc_end13-crypto_core_salsa208_inputbytes
	.cfi_endproc
                                        # -- End function
	.globl	crypto_core_salsa208_keybytes   # -- Begin function crypto_core_salsa208_keybytes
	.p2align	4
	.type	crypto_core_salsa208_keybytes,@function
crypto_core_salsa208_keybytes:          # @crypto_core_salsa208_keybytes
.Lfunc_begin14:
	.cfi_startproc
# %bb.0:
	.loc	1 186 5 prologue_end            # crypto_core/salsa/ref/core_salsa_ref.c:186:5
	movl	$32, %eax
	retq
.Ltmp206:
.Lfunc_end14:
	.size	crypto_core_salsa208_keybytes, .Lfunc_end14-crypto_core_salsa208_keybytes
	.cfi_endproc
                                        # -- End function
	.globl	crypto_core_salsa208_constbytes # -- Begin function crypto_core_salsa208_constbytes
	.p2align	4
	.type	crypto_core_salsa208_constbytes,@function
crypto_core_salsa208_constbytes:        # @crypto_core_salsa208_constbytes
.Lfunc_begin15:
	.cfi_startproc
# %bb.0:
	.loc	1 192 5 prologue_end            # crypto_core/salsa/ref/core_salsa_ref.c:192:5
	movl	$16, %eax
	retq
.Ltmp207:
.Lfunc_end15:
	.size	crypto_core_salsa208_constbytes, .Lfunc_end15-crypto_core_salsa208_constbytes
	.cfi_endproc
                                        # -- End function
	.section	".note.GNU-stack","",@progbits
	.addrsig