	.file	"core_hsalsa20_ref2.c"
	.file	0 "/home/leizhenyuu/opt/Anonymous_Repo/libsodium_o2_attr_inline/src/libsodium" "core_hsalsa20_ref2.c" md5 0x1bf5f9d4d3540364e36f43e2ff474235
	.text
	.globl	crypto_core_hsalsa20            # -- Begin function crypto_core_hsalsa20
	.p2align	4
	.type	crypto_core_hsalsa20,@function
crypto_core_hsalsa20:                   # @crypto_core_hsalsa20
.Lfunc_begin0:
	.file	1 "crypto_core/hsalsa20/ref2" "core_hsalsa20_ref2.c"
	.loc	1 21 0                          # crypto_core/hsalsa20/ref2/core_hsalsa20_ref2.c:21:0
	.cfi_startproc
# %bb.0:
	#DEBUG_VALUE: crypto_core_hsalsa20:out <- $rdi
	#DEBUG_VALUE: crypto_core_hsalsa20:in <- $rsi
	#DEBUG_VALUE: crypto_core_hsalsa20:k <- $rdx
	#DEBUG_VALUE: crypto_core_hsalsa20:c <- $rcx
	pushq	%rbp
	.cfi_def_cfa_offset 16
	pushq	%r15
	.cfi_def_cfa_offset 24
	pushq	%r14
	.cfi_def_cfa_offset 32
	pushq	%r13
	.cfi_def_cfa_offset 40
	pushq	%r12
	.cfi_def_cfa_offset 48
	pushq	%rbx
	.cfi_def_cfa_offset 56
	.cfi_offset %rbx, -56
	.cfi_offset %r12, -48
	.cfi_offset %r13, -40
	.cfi_offset %r14, -32
	.cfi_offset %r15, -24
	.cfi_offset %rbp, -16
	movq	%rsi, %r13
	movq	%rdi, -72(%rsp)                 # 8-byte Spill
.Ltmp0:
	#DEBUG_VALUE: crypto_core_hsalsa20:out <- [DW_OP_constu 72, DW_OP_minus] [$rsp+0]
	.loc	1 26 11 prologue_end            # crypto_core/hsalsa20/ref2/core_hsalsa20_ref2.c:26:11
	testq	%rcx, %rcx
	je	.LBB0_1
.Ltmp1:
# %bb.2:
	#DEBUG_VALUE: crypto_core_hsalsa20:out <- [DW_OP_constu 72, DW_OP_minus] [$rsp+0]
	#DEBUG_VALUE: crypto_core_hsalsa20:in <- $r13
	#DEBUG_VALUE: crypto_core_hsalsa20:k <- $rdx
	#DEBUG_VALUE: crypto_core_hsalsa20:c <- $rcx
	#DEBUG_VALUE: load32_le:w <- undef
	#DEBUG_VALUE: load32_le:src <- $rcx
	#DEBUG_VALUE: memcpy:__dest <- undef
	#DEBUG_VALUE: memcpy:__src <- $rcx
	#DEBUG_VALUE: memcpy:__len <- 4
	.file	2 "/usr/include/x86_64-linux-gnu/bits" "string_fortified.h"
	.loc	2 29 10                         # /usr/include/x86_64-linux-gnu/bits/string_fortified.h:29:10 @[ ./include/sodium/private/common.h:106:5 @[ crypto_core/hsalsa20/ref2/core_hsalsa20_ref2.c:32:14 ] ]
	movl	(%rcx), %ebx
.Ltmp2:
	#DEBUG_VALUE: crypto_core_hsalsa20:x0 <- $ebx
	#DEBUG_VALUE: load32_le:w <- undef
	#DEBUG_VALUE: memcpy:__dest <- undef
	#DEBUG_VALUE: memcpy:__len <- 4
	#DEBUG_VALUE: load32_le:src <- [DW_OP_plus_uconst 4, DW_OP_stack_value] $rcx
	#DEBUG_VALUE: memcpy:__src <- [DW_OP_plus_uconst 4, DW_OP_stack_value] $rcx
	.loc	2 29 10 is_stmt 0               # /usr/include/x86_64-linux-gnu/bits/string_fortified.h:29:10 @[ ./include/sodium/private/common.h:106:5 @[ crypto_core/hsalsa20/ref2/core_hsalsa20_ref2.c:33:14 ] ]
	movl	4(%rcx), %r11d
.Ltmp3:
	#DEBUG_VALUE: crypto_core_hsalsa20:x5 <- $r11d
	#DEBUG_VALUE: load32_le:w <- undef
	#DEBUG_VALUE: memcpy:__dest <- undef
	#DEBUG_VALUE: memcpy:__len <- 4
	#DEBUG_VALUE: load32_le:src <- [DW_OP_plus_uconst 8, DW_OP_stack_value] $rcx
	#DEBUG_VALUE: memcpy:__src <- [DW_OP_plus_uconst 8, DW_OP_stack_value] $rcx
	.loc	2 29 10                         # /usr/include/x86_64-linux-gnu/bits/string_fortified.h:29:10 @[ ./include/sodium/private/common.h:106:5 @[ crypto_core/hsalsa20/ref2/core_hsalsa20_ref2.c:34:15 ] ]
	movl	8(%rcx), %r10d
.Ltmp4:
	#DEBUG_VALUE: crypto_core_hsalsa20:x10 <- $r10d
	#DEBUG_VALUE: load32_le:w <- undef
	#DEBUG_VALUE: memcpy:__dest <- undef
	#DEBUG_VALUE: memcpy:__len <- 4
	#DEBUG_VALUE: load32_le:src <- [DW_OP_plus_uconst 12, DW_OP_stack_value] $rcx
	#DEBUG_VALUE: memcpy:__src <- [DW_OP_plus_uconst 12, DW_OP_stack_value] $rcx
	.loc	2 29 10                         # /usr/include/x86_64-linux-gnu/bits/string_fortified.h:29:10 @[ ./include/sodium/private/common.h:106:5 @[ crypto_core/hsalsa20/ref2/core_hsalsa20_ref2.c:35:15 ] ]
	movl	12(%rcx), %r9d
.Ltmp5:
	#DEBUG_VALUE: crypto_core_hsalsa20:x15 <- $r9d
	.loc	2 0 10                          # /usr/include/x86_64-linux-gnu/bits/string_fortified.h:0:10
	jmp	.LBB0_3
.Ltmp6:
.LBB0_1:
	#DEBUG_VALUE: crypto_core_hsalsa20:out <- [DW_OP_constu 72, DW_OP_minus] [$rsp+0]
	#DEBUG_VALUE: crypto_core_hsalsa20:in <- $r13
	#DEBUG_VALUE: crypto_core_hsalsa20:k <- $rdx
	#DEBUG_VALUE: crypto_core_hsalsa20:c <- $rcx
	movl	$1797285236, %r9d               # imm = 0x6B206574
	movl	$2036477234, %r10d              # imm = 0x79622D32
	movl	$857760878, %r11d               # imm = 0x3320646E
	movl	$1634760805, %ebx               # imm = 0x61707865
.Ltmp7:
.LBB0_3:
	#DEBUG_VALUE: crypto_core_hsalsa20:out <- [DW_OP_constu 72, DW_OP_minus] [$rsp+0]
	#DEBUG_VALUE: crypto_core_hsalsa20:in <- $r13
	#DEBUG_VALUE: crypto_core_hsalsa20:k <- $rdx
	#DEBUG_VALUE: crypto_core_hsalsa20:c <- $rcx
	#DEBUG_VALUE: crypto_core_hsalsa20:x15 <- $r9d
	#DEBUG_VALUE: crypto_core_hsalsa20:x10 <- $r10d
	#DEBUG_VALUE: crypto_core_hsalsa20:x5 <- $r11d
	#DEBUG_VALUE: crypto_core_hsalsa20:x0 <- $ebx
	#DEBUG_VALUE: load32_le:w <- undef
	#DEBUG_VALUE: load32_le:src <- $rdx
	#DEBUG_VALUE: memcpy:__dest <- undef
	#DEBUG_VALUE: memcpy:__src <- $rdx
	#DEBUG_VALUE: memcpy:__len <- 4
	.loc	2 29 10 is_stmt 1               # /usr/include/x86_64-linux-gnu/bits/string_fortified.h:29:10 @[ ./include/sodium/private/common.h:106:5 @[ crypto_core/hsalsa20/ref2/core_hsalsa20_ref2.c:37:10 ] ]
	movl	(%rdx), %r14d
.Ltmp8:
	#DEBUG_VALUE: crypto_core_hsalsa20:x1 <- $r14d
	#DEBUG_VALUE: load32_le:w <- undef
	#DEBUG_VALUE: memcpy:__dest <- undef
	#DEBUG_VALUE: memcpy:__len <- 4
	#DEBUG_VALUE: load32_le:src <- [DW_OP_plus_uconst 4, DW_OP_stack_value] $rdx
	#DEBUG_VALUE: memcpy:__src <- [DW_OP_plus_uconst 4, DW_OP_stack_value] $rdx
	.loc	2 29 10 is_stmt 0               # /usr/include/x86_64-linux-gnu/bits/string_fortified.h:29:10 @[ ./include/sodium/private/common.h:106:5 @[ crypto_core/hsalsa20/ref2/core_hsalsa20_ref2.c:38:10 ] ]
	movl	4(%rdx), %eax
.Ltmp9:
	#DEBUG_VALUE: crypto_core_hsalsa20:x2 <- $eax
	#DEBUG_VALUE: load32_le:w <- undef
	#DEBUG_VALUE: memcpy:__dest <- undef
	#DEBUG_VALUE: memcpy:__len <- 4
	#DEBUG_VALUE: load32_le:src <- [DW_OP_plus_uconst 8, DW_OP_stack_value] $rdx
	#DEBUG_VALUE: memcpy:__src <- [DW_OP_plus_uconst 8, DW_OP_stack_value] $rdx
	.loc	2 0 10                          # /usr/include/x86_64-linux-gnu/bits/string_fortified.h:0:10
	movq	%rax, -80(%rsp)                 # 8-byte Spill
.Ltmp10:
	#DEBUG_VALUE: crypto_core_hsalsa20:x2 <- [DW_OP_constu 80, DW_OP_minus, DW_OP_deref] $rsp
	.loc	2 29 10                         # /usr/include/x86_64-linux-gnu/bits/string_fortified.h:29:10 @[ ./include/sodium/private/common.h:106:5 @[ crypto_core/hsalsa20/ref2/core_hsalsa20_ref2.c:39:10 ] ]
	movl	8(%rdx), %eax
.Ltmp11:
	#DEBUG_VALUE: crypto_core_hsalsa20:x3 <- $eax
	#DEBUG_VALUE: load32_le:w <- undef
	#DEBUG_VALUE: memcpy:__dest <- undef
	#DEBUG_VALUE: memcpy:__len <- 4
	#DEBUG_VALUE: load32_le:src <- [DW_OP_plus_uconst 12, DW_OP_stack_value] $rdx
	#DEBUG_VALUE: memcpy:__src <- [DW_OP_plus_uconst 12, DW_OP_stack_value] $rdx
	.loc	2 0 10                          # /usr/include/x86_64-linux-gnu/bits/string_fortified.h:0:10
	movq	%rax, -88(%rsp)                 # 8-byte Spill
.Ltmp12:
	#DEBUG_VALUE: crypto_core_hsalsa20:x3 <- [DW_OP_constu 88, DW_OP_minus, DW_OP_deref] $rsp
	.loc	2 29 10                         # /usr/include/x86_64-linux-gnu/bits/string_fortified.h:29:10 @[ ./include/sodium/private/common.h:106:5 @[ crypto_core/hsalsa20/ref2/core_hsalsa20_ref2.c:40:10 ] ]
	movl	12(%rdx), %ebp
.Ltmp13:
	#DEBUG_VALUE: crypto_core_hsalsa20:x4 <- $ebp
	#DEBUG_VALUE: load32_le:w <- undef
	#DEBUG_VALUE: memcpy:__dest <- undef
	#DEBUG_VALUE: memcpy:__len <- 4
	#DEBUG_VALUE: load32_le:src <- [DW_OP_plus_uconst 16, DW_OP_stack_value] $rdx
	#DEBUG_VALUE: memcpy:__src <- [DW_OP_plus_uconst 16, DW_OP_stack_value] $rdx
	.loc	2 29 10                         # /usr/include/x86_64-linux-gnu/bits/string_fortified.h:29:10 @[ ./include/sodium/private/common.h:106:5 @[ crypto_core/hsalsa20/ref2/core_hsalsa20_ref2.c:41:11 ] ]
	movl	16(%rdx), %r12d
.Ltmp14:
	#DEBUG_VALUE: crypto_core_hsalsa20:x11 <- $r12d
	#DEBUG_VALUE: load32_le:w <- undef
	#DEBUG_VALUE: memcpy:__dest <- undef
	#DEBUG_VALUE: memcpy:__len <- 4
	#DEBUG_VALUE: load32_le:src <- [DW_OP_plus_uconst 20, DW_OP_stack_value] $rdx
	#DEBUG_VALUE: memcpy:__src <- [DW_OP_plus_uconst 20, DW_OP_stack_value] $rdx
	.loc	2 29 10                         # /usr/include/x86_64-linux-gnu/bits/string_fortified.h:29:10 @[ ./include/sodium/private/common.h:106:5 @[ crypto_core/hsalsa20/ref2/core_hsalsa20_ref2.c:42:11 ] ]
	movl	20(%rdx), %esi
.Ltmp15:
	#DEBUG_VALUE: crypto_core_hsalsa20:x12 <- $esi
	#DEBUG_VALUE: load32_le:w <- undef
	#DEBUG_VALUE: memcpy:__dest <- undef
	#DEBUG_VALUE: memcpy:__len <- 4
	#DEBUG_VALUE: load32_le:src <- [DW_OP_plus_uconst 24, DW_OP_stack_value] $rdx
	#DEBUG_VALUE: memcpy:__src <- [DW_OP_plus_uconst 24, DW_OP_stack_value] $rdx
	.loc	2 29 10                         # /usr/include/x86_64-linux-gnu/bits/string_fortified.h:29:10 @[ ./include/sodium/private/common.h:106:5 @[ crypto_core/hsalsa20/ref2/core_hsalsa20_ref2.c:43:11 ] ]
	movl	24(%rdx), %ecx
.Ltmp16:
	#DEBUG_VALUE: crypto_core_hsalsa20:c <- [DW_OP_LLVM_entry_value 1] $rcx
	#DEBUG_VALUE: crypto_core_hsalsa20:x13 <- $ecx
	#DEBUG_VALUE: load32_le:w <- undef
	#DEBUG_VALUE: memcpy:__dest <- undef
	#DEBUG_VALUE: memcpy:__len <- 4
	#DEBUG_VALUE: load32_le:src <- [DW_OP_plus_uconst 28, DW_OP_stack_value] $rdx
	#DEBUG_VALUE: memcpy:__src <- [DW_OP_plus_uconst 28, DW_OP_stack_value] $rdx
	.loc	2 29 10                         # /usr/include/x86_64-linux-gnu/bits/string_fortified.h:29:10 @[ ./include/sodium/private/common.h:106:5 @[ crypto_core/hsalsa20/ref2/core_hsalsa20_ref2.c:44:11 ] ]
	movl	28(%rdx), %edi
.Ltmp17:
	#DEBUG_VALUE: crypto_core_hsalsa20:x14 <- $edi
	#DEBUG_VALUE: load32_le:w <- undef
	#DEBUG_VALUE: load32_le:src <- $r13
	#DEBUG_VALUE: memcpy:__dest <- undef
	#DEBUG_VALUE: memcpy:__src <- $r13
	#DEBUG_VALUE: memcpy:__len <- 4
	.loc	2 29 10                         # /usr/include/x86_64-linux-gnu/bits/string_fortified.h:29:10 @[ ./include/sodium/private/common.h:106:5 @[ crypto_core/hsalsa20/ref2/core_hsalsa20_ref2.c:45:10 ] ]
	movl	(%r13), %r15d
.Ltmp18:
	#DEBUG_VALUE: crypto_core_hsalsa20:x6 <- $r15d
	#DEBUG_VALUE: load32_le:w <- undef
	#DEBUG_VALUE: memcpy:__dest <- undef
	#DEBUG_VALUE: memcpy:__len <- 4
	#DEBUG_VALUE: load32_le:src <- [DW_OP_plus_uconst 4, DW_OP_stack_value] $r13
	#DEBUG_VALUE: memcpy:__src <- [DW_OP_plus_uconst 4, DW_OP_stack_value] $r13
	.loc	2 29 10                         # /usr/include/x86_64-linux-gnu/bits/string_fortified.h:29:10 @[ ./include/sodium/private/common.h:106:5 @[ crypto_core/hsalsa20/ref2/core_hsalsa20_ref2.c:46:10 ] ]
	movl	4(%r13), %edx
.Ltmp19:
	#DEBUG_VALUE: crypto_core_hsalsa20:k <- [DW_OP_LLVM_entry_value 1] $rdx
	#DEBUG_VALUE: crypto_core_hsalsa20:x7 <- $edx
	#DEBUG_VALUE: load32_le:w <- undef
	#DEBUG_VALUE: memcpy:__dest <- undef
	#DEBUG_VALUE: memcpy:__len <- 4
	#DEBUG_VALUE: load32_le:src <- [DW_OP_plus_uconst 8, DW_OP_stack_value] $r13
	#DEBUG_VALUE: memcpy:__src <- [DW_OP_plus_uconst 8, DW_OP_stack_value] $r13
	.loc	2 29 10                         # /usr/include/x86_64-linux-gnu/bits/string_fortified.h:29:10 @[ ./include/sodium/private/common.h:106:5 @[ crypto_core/hsalsa20/ref2/core_hsalsa20_ref2.c:47:10 ] ]
	movl	8(%r13), %eax
.Ltmp20:
	#DEBUG_VALUE: crypto_core_hsalsa20:x8 <- $eax
	#DEBUG_VALUE: load32_le:w <- undef
	#DEBUG_VALUE: memcpy:__dest <- undef
	#DEBUG_VALUE: memcpy:__len <- 4
	#DEBUG_VALUE: load32_le:src <- [DW_OP_plus_uconst 12, DW_OP_stack_value] $r13
	#DEBUG_VALUE: memcpy:__src <- [DW_OP_plus_uconst 12, DW_OP_stack_value] $r13
	.loc	2 29 10                         # /usr/include/x86_64-linux-gnu/bits/string_fortified.h:29:10 @[ ./include/sodium/private/common.h:106:5 @[ crypto_core/hsalsa20/ref2/core_hsalsa20_ref2.c:48:10 ] ]
	movl	12(%r13), %r13d
.Ltmp21:
	#DEBUG_VALUE: crypto_core_hsalsa20:in <- [DW_OP_LLVM_entry_value 1] $rsi
	#DEBUG_VALUE: crypto_core_hsalsa20:x9 <- $r13d
	.loc	2 0 10                          # /usr/include/x86_64-linux-gnu/bits/string_fortified.h:0:10
	movl	$22, -92(%rsp)                  # 4-byte Folded Spill
.Ltmp22:
	#DEBUG_VALUE: crypto_core_hsalsa20:i <- 20
	.p2align	4
.LBB0_4:                                # =>This Inner Loop Header: Depth=1
	#DEBUG_VALUE: crypto_core_hsalsa20:out <- [DW_OP_constu 72, DW_OP_minus] [$rsp+0]
	#DEBUG_VALUE: crypto_core_hsalsa20:in <- [DW_OP_LLVM_entry_value 1] $rsi
	#DEBUG_VALUE: crypto_core_hsalsa20:k <- [DW_OP_LLVM_entry_value 1] $rdx
	#DEBUG_VALUE: crypto_core_hsalsa20:c <- [DW_OP_LLVM_entry_value 1] $rcx
	#DEBUG_VALUE: crypto_core_hsalsa20:x0 <- $ebx
	#DEBUG_VALUE: crypto_core_hsalsa20:x5 <- $r11d
	#DEBUG_VALUE: crypto_core_hsalsa20:x10 <- $r10d
	#DEBUG_VALUE: crypto_core_hsalsa20:x15 <- $r9d
	#DEBUG_VALUE: crypto_core_hsalsa20:x1 <- $r14d
	#DEBUG_VALUE: crypto_core_hsalsa20:x2 <- [DW_OP_constu 80, DW_OP_minus, DW_OP_deref] $rsp
	#DEBUG_VALUE: crypto_core_hsalsa20:x3 <- [DW_OP_constu 88, DW_OP_minus, DW_OP_deref] $rsp
	#DEBUG_VALUE: crypto_core_hsalsa20:x4 <- $ebp
	#DEBUG_VALUE: crypto_core_hsalsa20:x11 <- $r12d
	#DEBUG_VALUE: crypto_core_hsalsa20:x12 <- $esi
	#DEBUG_VALUE: crypto_core_hsalsa20:x13 <- $ecx
	#DEBUG_VALUE: crypto_core_hsalsa20:x14 <- $edi
	#DEBUG_VALUE: crypto_core_hsalsa20:x6 <- $r15d
	#DEBUG_VALUE: crypto_core_hsalsa20:x7 <- $edx
	#DEBUG_VALUE: crypto_core_hsalsa20:x8 <- $eax
	#DEBUG_VALUE: crypto_core_hsalsa20:x9 <- $r13d
	#DEBUG_VALUE: crypto_core_hsalsa20:i <- [DW_OP_constu 92, DW_OP_minus, DW_OP_deref, DW_OP_constu 2, DW_OP_minus, DW_OP_stack_value] $rsp
	#DEBUG_VALUE: crypto_core_hsalsa20:x15 <- $r9d
	#DEBUG_VALUE: crypto_core_hsalsa20:x14 <- $edi
	#DEBUG_VALUE: crypto_core_hsalsa20:x13 <- $ecx
	#DEBUG_VALUE: crypto_core_hsalsa20:x12 <- $esi
	#DEBUG_VALUE: crypto_core_hsalsa20:x11 <- $r12d
	#DEBUG_VALUE: crypto_core_hsalsa20:x10 <- $r10d
	#DEBUG_VALUE: crypto_core_hsalsa20:x9 <- $r13d
	#DEBUG_VALUE: crypto_core_hsalsa20:x8 <- $eax
	#DEBUG_VALUE: crypto_core_hsalsa20:x7 <- $edx
	#DEBUG_VALUE: crypto_core_hsalsa20:x6 <- $r15d
	#DEBUG_VALUE: crypto_core_hsalsa20:x5 <- $r11d
	#DEBUG_VALUE: crypto_core_hsalsa20:x4 <- $ebp
	#DEBUG_VALUE: crypto_core_hsalsa20:x3 <- [DW_OP_constu 88, DW_OP_minus, DW_OP_deref] $rsp
	#DEBUG_VALUE: crypto_core_hsalsa20:x2 <- [DW_OP_constu 80, DW_OP_minus, DW_OP_deref] $rsp
	#DEBUG_VALUE: crypto_core_hsalsa20:x1 <- $r14d
	#DEBUG_VALUE: crypto_core_hsalsa20:x0 <- $ebx
	.loc	1 51 26 is_stmt 1               # crypto_core/hsalsa20/ref2/core_hsalsa20_ref2.c:51:26
	leal	(%rsi,%rbx), %r8d
.Ltmp23:
	#DEBUG_VALUE: rotl32:x <- $r8d
	#DEBUG_VALUE: rotl32:b <- 7
	.file	3 "./include/sodium/private" "common.h"
	.loc	3 37 21                         # ./include/sodium/private/common.h:37:21 @[ crypto_core/hsalsa20/ref2/core_hsalsa20_ref2.c:51:15 ]
	roll	$7, %r8d
.Ltmp24:
	.loc	1 51 12                         # crypto_core/hsalsa20/ref2/core_hsalsa20_ref2.c:51:12
	xorl	%ebp, %r8d
.Ltmp25:
	#DEBUG_VALUE: crypto_core_hsalsa20:x4 <- $r8d
	.loc	1 0 12 is_stmt 0                # crypto_core/hsalsa20/ref2/core_hsalsa20_ref2.c:0:12
	movq	%r8, -48(%rsp)                  # 8-byte Spill
.Ltmp26:
	#DEBUG_VALUE: crypto_core_hsalsa20:x4 <- [DW_OP_constu 48, DW_OP_minus, DW_OP_deref] $rsp
	.loc	1 52 26 is_stmt 1               # crypto_core/hsalsa20/ref2/core_hsalsa20_ref2.c:52:26
	leal	(%r8,%rbx), %ebp
.Ltmp27:
	#DEBUG_VALUE: rotl32:x <- $ebp
	#DEBUG_VALUE: rotl32:b <- 9
	.loc	3 37 21                         # ./include/sodium/private/common.h:37:21 @[ crypto_core/hsalsa20/ref2/core_hsalsa20_ref2.c:52:15 ]
	roll	$9, %ebp
.Ltmp28:
	.loc	1 52 12                         # crypto_core/hsalsa20/ref2/core_hsalsa20_ref2.c:52:12
	xorl	%eax, %ebp
.Ltmp29:
	#DEBUG_VALUE: crypto_core_hsalsa20:x8 <- $ebp
	.loc	1 0 12 is_stmt 0                # crypto_core/hsalsa20/ref2/core_hsalsa20_ref2.c:0:12
	movq	%rbp, -24(%rsp)                 # 8-byte Spill
.Ltmp30:
	#DEBUG_VALUE: crypto_core_hsalsa20:x8 <- [DW_OP_constu 24, DW_OP_minus, DW_OP_deref] $rsp
	.loc	1 53 27 is_stmt 1               # crypto_core/hsalsa20/ref2/core_hsalsa20_ref2.c:53:27
	leal	(%r8,%rbp), %eax
.Ltmp31:
	#DEBUG_VALUE: rotl32:x <- $eax
	#DEBUG_VALUE: rotl32:b <- 13
	.loc	3 37 21                         # ./include/sodium/private/common.h:37:21 @[ crypto_core/hsalsa20/ref2/core_hsalsa20_ref2.c:53:16 ]
	roll	$13, %eax
.Ltmp32:
	.loc	1 53 13                         # crypto_core/hsalsa20/ref2/core_hsalsa20_ref2.c:53:13
	xorl	%esi, %eax
.Ltmp33:
	#DEBUG_VALUE: crypto_core_hsalsa20:x12 <- $eax
	.loc	1 0 13 is_stmt 0                # crypto_core/hsalsa20/ref2/core_hsalsa20_ref2.c:0:13
	movq	%rax, -8(%rsp)                  # 8-byte Spill
.Ltmp34:
	#DEBUG_VALUE: crypto_core_hsalsa20:x12 <- [DW_OP_constu 8, DW_OP_minus, DW_OP_deref] $rsp
	.loc	1 54 27 is_stmt 1               # crypto_core/hsalsa20/ref2/core_hsalsa20_ref2.c:54:27
	leal	(%rax,%rbp), %r8d
.Ltmp35:
	#DEBUG_VALUE: rotl32:x <- $r8d
	#DEBUG_VALUE: rotl32:b <- 18
	.loc	3 37 21                         # ./include/sodium/private/common.h:37:21 @[ crypto_core/hsalsa20/ref2/core_hsalsa20_ref2.c:54:15 ]
	roll	$18, %r8d
.Ltmp36:
	#DEBUG_VALUE: crypto_core_hsalsa20:x0 <- undef
	.loc	1 55 26                         # crypto_core/hsalsa20/ref2/core_hsalsa20_ref2.c:55:26
	leal	(%r11,%r14), %eax
.Ltmp37:
	#DEBUG_VALUE: rotl32:x <- $eax
	#DEBUG_VALUE: rotl32:b <- 7
	.loc	3 37 21                         # ./include/sodium/private/common.h:37:21 @[ crypto_core/hsalsa20/ref2/core_hsalsa20_ref2.c:55:15 ]
	roll	$7, %eax
.Ltmp38:
	.loc	1 55 12                         # crypto_core/hsalsa20/ref2/core_hsalsa20_ref2.c:55:12
	xorl	%r13d, %eax
.Ltmp39:
	#DEBUG_VALUE: crypto_core_hsalsa20:x9 <- $eax
	.loc	1 0 12 is_stmt 0                # crypto_core/hsalsa20/ref2/core_hsalsa20_ref2.c:0:12
	movq	%rax, -32(%rsp)                 # 8-byte Spill
.Ltmp40:
	#DEBUG_VALUE: crypto_core_hsalsa20:x9 <- [DW_OP_constu 32, DW_OP_minus, DW_OP_deref] $rsp
	.loc	1 56 27 is_stmt 1               # crypto_core/hsalsa20/ref2/core_hsalsa20_ref2.c:56:27
	leal	(%rax,%r11), %esi
.Ltmp41:
	#DEBUG_VALUE: rotl32:x <- $esi
	#DEBUG_VALUE: rotl32:b <- 9
	.loc	3 37 21                         # ./include/sodium/private/common.h:37:21 @[ crypto_core/hsalsa20/ref2/core_hsalsa20_ref2.c:56:16 ]
	roll	$9, %esi
.Ltmp42:
	.loc	1 56 13                         # crypto_core/hsalsa20/ref2/core_hsalsa20_ref2.c:56:13
	xorl	%ecx, %esi
.Ltmp43:
	#DEBUG_VALUE: crypto_core_hsalsa20:x13 <- $esi
	.loc	1 0 13 is_stmt 0                # crypto_core/hsalsa20/ref2/core_hsalsa20_ref2.c:0:13
	movq	%rsi, -16(%rsp)                 # 8-byte Spill
.Ltmp44:
	#DEBUG_VALUE: crypto_core_hsalsa20:x13 <- [DW_OP_constu 16, DW_OP_minus, DW_OP_deref] $rsp
	.loc	1 57 27 is_stmt 1               # crypto_core/hsalsa20/ref2/core_hsalsa20_ref2.c:57:27
	addl	%esi, %eax
.Ltmp45:
	#DEBUG_VALUE: rotl32:x <- $eax
	#DEBUG_VALUE: rotl32:b <- 13
	.loc	3 37 21                         # ./include/sodium/private/common.h:37:21 @[ crypto_core/hsalsa20/ref2/core_hsalsa20_ref2.c:57:15 ]
	roll	$13, %eax
.Ltmp46:
	.loc	1 57 12                         # crypto_core/hsalsa20/ref2/core_hsalsa20_ref2.c:57:12
	xorl	%r14d, %eax
.Ltmp47:
	#DEBUG_VALUE: crypto_core_hsalsa20:x1 <- $eax
	.loc	1 58 26                         # crypto_core/hsalsa20/ref2/core_hsalsa20_ref2.c:58:26
	leal	(%rax,%rsi), %r13d
.Ltmp48:
	#DEBUG_VALUE: rotl32:x <- $r13d
	#DEBUG_VALUE: rotl32:b <- 18
	.loc	3 37 21                         # ./include/sodium/private/common.h:37:21 @[ crypto_core/hsalsa20/ref2/core_hsalsa20_ref2.c:58:15 ]
	roll	$18, %r13d
.Ltmp49:
	#DEBUG_VALUE: crypto_core_hsalsa20:x5 <- undef
	.loc	1 54 12                         # crypto_core/hsalsa20/ref2/core_hsalsa20_ref2.c:54:12
	xorl	%ebx, %r8d
.Ltmp50:
	#DEBUG_VALUE: crypto_core_hsalsa20:x0 <- $r8d
	.loc	1 59 28                         # crypto_core/hsalsa20/ref2/core_hsalsa20_ref2.c:59:28
	leal	(%r10,%r15), %ecx
.Ltmp51:
	#DEBUG_VALUE: rotl32:x <- $ecx
	#DEBUG_VALUE: rotl32:b <- 7
	.loc	3 37 21                         # ./include/sodium/private/common.h:37:21 @[ crypto_core/hsalsa20/ref2/core_hsalsa20_ref2.c:59:16 ]
	roll	$7, %ecx
.Ltmp52:
	.loc	1 59 13                         # crypto_core/hsalsa20/ref2/core_hsalsa20_ref2.c:59:13
	xorl	%edi, %ecx
.Ltmp53:
	#DEBUG_VALUE: crypto_core_hsalsa20:x14 <- $ecx
	.loc	1 0 13 is_stmt 0                # crypto_core/hsalsa20/ref2/core_hsalsa20_ref2.c:0:13
	movq	%rcx, -40(%rsp)                 # 8-byte Spill
.Ltmp54:
	#DEBUG_VALUE: crypto_core_hsalsa20:x14 <- [DW_OP_constu 40, DW_OP_minus, DW_OP_deref] $rsp
	.loc	1 60 27 is_stmt 1               # crypto_core/hsalsa20/ref2/core_hsalsa20_ref2.c:60:27
	leal	(%rcx,%r10), %edi
.Ltmp55:
	#DEBUG_VALUE: rotl32:x <- $edi
	#DEBUG_VALUE: rotl32:b <- 9
	.loc	3 37 21                         # ./include/sodium/private/common.h:37:21 @[ crypto_core/hsalsa20/ref2/core_hsalsa20_ref2.c:60:15 ]
	roll	$9, %edi
.Ltmp56:
	.loc	1 60 12                         # crypto_core/hsalsa20/ref2/core_hsalsa20_ref2.c:60:12
	xorl	-80(%rsp), %edi                 # 4-byte Folded Reload
.Ltmp57:
	#DEBUG_VALUE: crypto_core_hsalsa20:x2 <- $edi
	.loc	1 61 26                         # crypto_core/hsalsa20/ref2/core_hsalsa20_ref2.c:61:26
	addl	%edi, %ecx
.Ltmp58:
	#DEBUG_VALUE: rotl32:x <- $ecx
	#DEBUG_VALUE: rotl32:b <- 13
	.loc	3 37 21                         # ./include/sodium/private/common.h:37:21 @[ crypto_core/hsalsa20/ref2/core_hsalsa20_ref2.c:61:15 ]
	roll	$13, %ecx
.Ltmp59:
	.loc	1 61 12                         # crypto_core/hsalsa20/ref2/core_hsalsa20_ref2.c:61:12
	xorl	%r15d, %ecx
.Ltmp60:
	#DEBUG_VALUE: crypto_core_hsalsa20:x6 <- $ecx
	.loc	1 62 27                         # crypto_core/hsalsa20/ref2/core_hsalsa20_ref2.c:62:27
	leal	(%rcx,%rdi), %esi
.Ltmp61:
	#DEBUG_VALUE: rotl32:x <- $esi
	#DEBUG_VALUE: rotl32:b <- 18
	.loc	3 37 21                         # ./include/sodium/private/common.h:37:21 @[ crypto_core/hsalsa20/ref2/core_hsalsa20_ref2.c:62:16 ]
	roll	$18, %esi
.Ltmp62:
	#DEBUG_VALUE: crypto_core_hsalsa20:x10 <- undef
	.loc	3 0 21 is_stmt 0                # ./include/sodium/private/common.h:0:21
	movq	%rsi, %r14
.Ltmp63:
	.loc	1 58 12 is_stmt 1               # crypto_core/hsalsa20/ref2/core_hsalsa20_ref2.c:58:12
	xorl	%r11d, %r13d
.Ltmp64:
	#DEBUG_VALUE: crypto_core_hsalsa20:x5 <- $r13d
	.loc	1 63 27                         # crypto_core/hsalsa20/ref2/core_hsalsa20_ref2.c:63:27
	leal	(%r9,%r12), %ebx
.Ltmp65:
	#DEBUG_VALUE: rotl32:x <- $ebx
	#DEBUG_VALUE: rotl32:b <- 7
	.loc	3 37 21                         # ./include/sodium/private/common.h:37:21 @[ crypto_core/hsalsa20/ref2/core_hsalsa20_ref2.c:63:15 ]
	roll	$7, %ebx
.Ltmp66:
	.loc	1 63 12                         # crypto_core/hsalsa20/ref2/core_hsalsa20_ref2.c:63:12
	xorl	-88(%rsp), %ebx                 # 4-byte Folded Reload
.Ltmp67:
	#DEBUG_VALUE: crypto_core_hsalsa20:x3 <- $ebx
	.loc	1 64 26                         # crypto_core/hsalsa20/ref2/core_hsalsa20_ref2.c:64:26
	leal	(%rbx,%r9), %r11d
.Ltmp68:
	#DEBUG_VALUE: rotl32:x <- $r11d
	#DEBUG_VALUE: rotl32:b <- 9
	.loc	3 37 21                         # ./include/sodium/private/common.h:37:21 @[ crypto_core/hsalsa20/ref2/core_hsalsa20_ref2.c:64:15 ]
	roll	$9, %r11d
.Ltmp69:
	.loc	1 64 12                         # crypto_core/hsalsa20/ref2/core_hsalsa20_ref2.c:64:12
	xorl	%edx, %r11d
.Ltmp70:
	#DEBUG_VALUE: crypto_core_hsalsa20:x7 <- $r11d
	.loc	1 65 27                         # crypto_core/hsalsa20/ref2/core_hsalsa20_ref2.c:65:27
	leal	(%r11,%rbx), %esi
.Ltmp71:
	#DEBUG_VALUE: rotl32:x <- $esi
	#DEBUG_VALUE: rotl32:b <- 13
	.loc	3 37 21                         # ./include/sodium/private/common.h:37:21 @[ crypto_core/hsalsa20/ref2/core_hsalsa20_ref2.c:65:16 ]
	roll	$13, %esi
.Ltmp72:
	.loc	1 65 13                         # crypto_core/hsalsa20/ref2/core_hsalsa20_ref2.c:65:13
	xorl	%r12d, %esi
.Ltmp73:
	#DEBUG_VALUE: crypto_core_hsalsa20:x11 <- $esi
	.loc	1 66 28                         # crypto_core/hsalsa20/ref2/core_hsalsa20_ref2.c:66:28
	leal	(%rsi,%r11), %edx
.Ltmp74:
	#DEBUG_VALUE: rotl32:x <- $edx
	#DEBUG_VALUE: rotl32:b <- 18
	.loc	3 37 21                         # ./include/sodium/private/common.h:37:21 @[ crypto_core/hsalsa20/ref2/core_hsalsa20_ref2.c:66:16 ]
	roll	$18, %edx
.Ltmp75:
	#DEBUG_VALUE: crypto_core_hsalsa20:x15 <- undef
	.loc	3 0 21 is_stmt 0                # ./include/sodium/private/common.h:0:21
	movq	%rdx, %r15
.Ltmp76:
	.loc	1 62 13 is_stmt 1               # crypto_core/hsalsa20/ref2/core_hsalsa20_ref2.c:62:13
	xorl	%r10d, %r14d
.Ltmp77:
	#DEBUG_VALUE: crypto_core_hsalsa20:x10 <- $r14d
	.loc	1 0 13 is_stmt 0                # crypto_core/hsalsa20/ref2/core_hsalsa20_ref2.c:0:13
	movq	%r14, %r10
	.loc	1 67 26 is_stmt 1               # crypto_core/hsalsa20/ref2/core_hsalsa20_ref2.c:67:26
	leal	(%r8,%rbx), %r14d
.Ltmp78:
	#DEBUG_VALUE: rotl32:x <- $r14d
	#DEBUG_VALUE: rotl32:b <- 7
	.loc	3 37 21                         # ./include/sodium/private/common.h:37:21 @[ crypto_core/hsalsa20/ref2/core_hsalsa20_ref2.c:67:15 ]
	roll	$7, %r14d
.Ltmp79:
	.loc	1 67 12                         # crypto_core/hsalsa20/ref2/core_hsalsa20_ref2.c:67:12
	xorl	%eax, %r14d
.Ltmp80:
	#DEBUG_VALUE: crypto_core_hsalsa20:x1 <- $r14d
	.loc	1 68 26                         # crypto_core/hsalsa20/ref2/core_hsalsa20_ref2.c:68:26
	leal	(%r14,%r8), %eax
.Ltmp81:
	#DEBUG_VALUE: rotl32:x <- $eax
	#DEBUG_VALUE: rotl32:b <- 9
	.loc	3 37 21                         # ./include/sodium/private/common.h:37:21 @[ crypto_core/hsalsa20/ref2/core_hsalsa20_ref2.c:68:15 ]
	roll	$9, %eax
.Ltmp82:
	.loc	1 68 12                         # crypto_core/hsalsa20/ref2/core_hsalsa20_ref2.c:68:12
	xorl	%edi, %eax
.Ltmp83:
	#DEBUG_VALUE: crypto_core_hsalsa20:x2 <- $eax
	.loc	1 69 26                         # crypto_core/hsalsa20/ref2/core_hsalsa20_ref2.c:69:26
	leal	(%rax,%r14), %edx
.Ltmp84:
	#DEBUG_VALUE: rotl32:x <- $edx
	#DEBUG_VALUE: rotl32:b <- 13
	.loc	3 37 21                         # ./include/sodium/private/common.h:37:21 @[ crypto_core/hsalsa20/ref2/core_hsalsa20_ref2.c:69:15 ]
	roll	$13, %edx
.Ltmp85:
	.loc	1 69 12                         # crypto_core/hsalsa20/ref2/core_hsalsa20_ref2.c:69:12
	xorl	%ebx, %edx
.Ltmp86:
	#DEBUG_VALUE: crypto_core_hsalsa20:x3 <- $edx
	.loc	1 0 12 is_stmt 0                # crypto_core/hsalsa20/ref2/core_hsalsa20_ref2.c:0:12
	movq	%rdx, -88(%rsp)                 # 8-byte Spill
.Ltmp87:
	#DEBUG_VALUE: crypto_core_hsalsa20:x3 <- [DW_OP_constu 88, DW_OP_minus, DW_OP_deref] $rsp
	movq	%rax, -80(%rsp)                 # 8-byte Spill
.Ltmp88:
	#DEBUG_VALUE: crypto_core_hsalsa20:x2 <- [DW_OP_constu 80, DW_OP_minus, DW_OP_deref] $rsp
	.loc	1 70 26 is_stmt 1               # crypto_core/hsalsa20/ref2/core_hsalsa20_ref2.c:70:26
	leal	(%rdx,%rax), %ebx
.Ltmp89:
	#DEBUG_VALUE: rotl32:x <- $ebx
	#DEBUG_VALUE: rotl32:b <- 18
	.loc	3 37 21                         # ./include/sodium/private/common.h:37:21 @[ crypto_core/hsalsa20/ref2/core_hsalsa20_ref2.c:70:15 ]
	roll	$18, %ebx
.Ltmp90:
	#DEBUG_VALUE: crypto_core_hsalsa20:x0 <- undef
	.loc	1 66 13                         # crypto_core/hsalsa20/ref2/core_hsalsa20_ref2.c:66:13
	xorl	%r9d, %r15d
.Ltmp91:
	#DEBUG_VALUE: crypto_core_hsalsa20:x15 <- $r15d
	.loc	1 0 13 is_stmt 0                # crypto_core/hsalsa20/ref2/core_hsalsa20_ref2.c:0:13
	movq	%r15, %r9
	movq	-48(%rsp), %rax                 # 8-byte Reload
	.loc	1 71 26 is_stmt 1               # crypto_core/hsalsa20/ref2/core_hsalsa20_ref2.c:71:26
	leal	(%rax,%r13), %r15d
.Ltmp92:
	#DEBUG_VALUE: rotl32:x <- $r15d
	#DEBUG_VALUE: rotl32:b <- 7
	.loc	3 37 21                         # ./include/sodium/private/common.h:37:21 @[ crypto_core/hsalsa20/ref2/core_hsalsa20_ref2.c:71:15 ]
	roll	$7, %r15d
.Ltmp93:
	.loc	1 71 12                         # crypto_core/hsalsa20/ref2/core_hsalsa20_ref2.c:71:12
	xorl	%ecx, %r15d
.Ltmp94:
	#DEBUG_VALUE: crypto_core_hsalsa20:x6 <- $r15d
	.loc	1 72 26                         # crypto_core/hsalsa20/ref2/core_hsalsa20_ref2.c:72:26
	leal	(%r15,%r13), %edx
.Ltmp95:
	#DEBUG_VALUE: rotl32:x <- $edx
	#DEBUG_VALUE: rotl32:b <- 9
	.loc	1 0 26 is_stmt 0                # crypto_core/hsalsa20/ref2/core_hsalsa20_ref2.c:0:26
	movq	%r13, %rcx
.Ltmp96:
	.loc	3 37 21 is_stmt 1               # ./include/sodium/private/common.h:37:21 @[ crypto_core/hsalsa20/ref2/core_hsalsa20_ref2.c:72:15 ]
	roll	$9, %edx
.Ltmp97:
	.loc	1 72 12                         # crypto_core/hsalsa20/ref2/core_hsalsa20_ref2.c:72:12
	xorl	%r11d, %edx
.Ltmp98:
	#DEBUG_VALUE: crypto_core_hsalsa20:x7 <- $edx
	.loc	1 73 26                         # crypto_core/hsalsa20/ref2/core_hsalsa20_ref2.c:73:26
	leal	(%rdx,%r15), %ebp
.Ltmp99:
	#DEBUG_VALUE: rotl32:x <- $ebp
	#DEBUG_VALUE: rotl32:b <- 13
	.loc	3 37 21                         # ./include/sodium/private/common.h:37:21 @[ crypto_core/hsalsa20/ref2/core_hsalsa20_ref2.c:73:15 ]
	roll	$13, %ebp
.Ltmp100:
	.loc	1 73 12                         # crypto_core/hsalsa20/ref2/core_hsalsa20_ref2.c:73:12
	xorl	%eax, %ebp
.Ltmp101:
	#DEBUG_VALUE: crypto_core_hsalsa20:x4 <- $ebp
	.loc	1 74 26                         # crypto_core/hsalsa20/ref2/core_hsalsa20_ref2.c:74:26
	leal	(%rdx,%rbp), %r11d
.Ltmp102:
	#DEBUG_VALUE: rotl32:x <- $r11d
	#DEBUG_VALUE: rotl32:b <- 18
	.loc	3 37 21                         # ./include/sodium/private/common.h:37:21 @[ crypto_core/hsalsa20/ref2/core_hsalsa20_ref2.c:74:15 ]
	roll	$18, %r11d
.Ltmp103:
	#DEBUG_VALUE: crypto_core_hsalsa20:x5 <- undef
	.loc	1 70 12                         # crypto_core/hsalsa20/ref2/core_hsalsa20_ref2.c:70:12
	xorl	%r8d, %ebx
.Ltmp104:
	#DEBUG_VALUE: crypto_core_hsalsa20:x0 <- $ebx
	.loc	1 0 12 is_stmt 0                # crypto_core/hsalsa20/ref2/core_hsalsa20_ref2.c:0:12
	movq	%r10, -56(%rsp)                 # 8-byte Spill
	movq	-32(%rsp), %rdi                 # 8-byte Reload
	.loc	1 75 28 is_stmt 1               # crypto_core/hsalsa20/ref2/core_hsalsa20_ref2.c:75:28
	leal	(%r10,%rdi), %r12d
.Ltmp105:
	#DEBUG_VALUE: rotl32:x <- $r12d
	#DEBUG_VALUE: rotl32:b <- 7
	.loc	3 37 21                         # ./include/sodium/private/common.h:37:21 @[ crypto_core/hsalsa20/ref2/core_hsalsa20_ref2.c:75:16 ]
	roll	$7, %r12d
.Ltmp106:
	.loc	1 75 13                         # crypto_core/hsalsa20/ref2/core_hsalsa20_ref2.c:75:13
	xorl	%esi, %r12d
.Ltmp107:
	#DEBUG_VALUE: crypto_core_hsalsa20:x11 <- $r12d
	.loc	1 76 27                         # crypto_core/hsalsa20/ref2/core_hsalsa20_ref2.c:76:27
	leal	(%r12,%r10), %eax
.Ltmp108:
	#DEBUG_VALUE: rotl32:x <- $eax
	#DEBUG_VALUE: rotl32:b <- 9
	.loc	3 37 21                         # ./include/sodium/private/common.h:37:21 @[ crypto_core/hsalsa20/ref2/core_hsalsa20_ref2.c:76:15 ]
	roll	$9, %eax
.Ltmp109:
	.loc	1 76 12                         # crypto_core/hsalsa20/ref2/core_hsalsa20_ref2.c:76:12
	xorl	-24(%rsp), %eax                 # 4-byte Folded Reload
.Ltmp110:
	#DEBUG_VALUE: crypto_core_hsalsa20:x8 <- $eax
	.loc	1 77 26                         # crypto_core/hsalsa20/ref2/core_hsalsa20_ref2.c:77:26
	leal	(%rax,%r12), %r13d
.Ltmp111:
	#DEBUG_VALUE: rotl32:x <- $r13d
	#DEBUG_VALUE: rotl32:b <- 13
	.loc	3 37 21                         # ./include/sodium/private/common.h:37:21 @[ crypto_core/hsalsa20/ref2/core_hsalsa20_ref2.c:77:15 ]
	roll	$13, %r13d
.Ltmp112:
	.loc	1 77 12                         # crypto_core/hsalsa20/ref2/core_hsalsa20_ref2.c:77:12
	xorl	%edi, %r13d
.Ltmp113:
	#DEBUG_VALUE: crypto_core_hsalsa20:x9 <- $r13d
	.loc	1 78 27                         # crypto_core/hsalsa20/ref2/core_hsalsa20_ref2.c:78:27
	leal	(%rax,%r13), %r10d
.Ltmp114:
	#DEBUG_VALUE: rotl32:x <- $r10d
	#DEBUG_VALUE: rotl32:b <- 18
	.loc	3 37 21                         # ./include/sodium/private/common.h:37:21 @[ crypto_core/hsalsa20/ref2/core_hsalsa20_ref2.c:78:16 ]
	roll	$18, %r10d
.Ltmp115:
	#DEBUG_VALUE: crypto_core_hsalsa20:x10 <- undef
	.loc	1 74 12                         # crypto_core/hsalsa20/ref2/core_hsalsa20_ref2.c:74:12
	xorl	%ecx, %r11d
.Ltmp116:
	#DEBUG_VALUE: crypto_core_hsalsa20:x5 <- $r11d
	.loc	1 0 12 is_stmt 0                # crypto_core/hsalsa20/ref2/core_hsalsa20_ref2.c:0:12
	movq	-40(%rsp), %r8                  # 8-byte Reload
	movq	%r9, -64(%rsp)                  # 8-byte Spill
	.loc	1 79 28 is_stmt 1               # crypto_core/hsalsa20/ref2/core_hsalsa20_ref2.c:79:28
	leal	(%r9,%r8), %esi
.Ltmp117:
	#DEBUG_VALUE: rotl32:x <- $esi
	#DEBUG_VALUE: rotl32:b <- 7
	.loc	3 37 21                         # ./include/sodium/private/common.h:37:21 @[ crypto_core/hsalsa20/ref2/core_hsalsa20_ref2.c:79:16 ]
	roll	$7, %esi
.Ltmp118:
	.loc	1 79 13                         # crypto_core/hsalsa20/ref2/core_hsalsa20_ref2.c:79:13
	xorl	-8(%rsp), %esi                  # 4-byte Folded Reload
.Ltmp119:
	#DEBUG_VALUE: crypto_core_hsalsa20:x12 <- $esi
	.loc	1 80 28                         # crypto_core/hsalsa20/ref2/core_hsalsa20_ref2.c:80:28
	leal	(%rsi,%r9), %ecx
.Ltmp120:
	#DEBUG_VALUE: rotl32:x <- $ecx
	#DEBUG_VALUE: rotl32:b <- 9
	.loc	3 37 21                         # ./include/sodium/private/common.h:37:21 @[ crypto_core/hsalsa20/ref2/core_hsalsa20_ref2.c:80:16 ]
	roll	$9, %ecx
.Ltmp121:
	.loc	1 80 13                         # crypto_core/hsalsa20/ref2/core_hsalsa20_ref2.c:80:13
	xorl	-16(%rsp), %ecx                 # 4-byte Folded Reload
.Ltmp122:
	#DEBUG_VALUE: crypto_core_hsalsa20:x13 <- $ecx
	.loc	1 81 28                         # crypto_core/hsalsa20/ref2/core_hsalsa20_ref2.c:81:28
	leal	(%rcx,%rsi), %edi
.Ltmp123:
	#DEBUG_VALUE: rotl32:x <- $edi
	#DEBUG_VALUE: rotl32:b <- 13
	.loc	3 37 21                         # ./include/sodium/private/common.h:37:21 @[ crypto_core/hsalsa20/ref2/core_hsalsa20_ref2.c:81:16 ]
	roll	$13, %edi
.Ltmp124:
	.loc	1 81 13                         # crypto_core/hsalsa20/ref2/core_hsalsa20_ref2.c:81:13
	xorl	%r8d, %edi
.Ltmp125:
	#DEBUG_VALUE: crypto_core_hsalsa20:x14 <- $edi
	.loc	1 82 28                         # crypto_core/hsalsa20/ref2/core_hsalsa20_ref2.c:82:28
	leal	(%rdi,%rcx), %r9d
.Ltmp126:
	#DEBUG_VALUE: rotl32:x <- $r9d
	#DEBUG_VALUE: rotl32:b <- 18
	.loc	3 37 21                         # ./include/sodium/private/common.h:37:21 @[ crypto_core/hsalsa20/ref2/core_hsalsa20_ref2.c:82:16 ]
	roll	$18, %r9d
.Ltmp127:
	.loc	1 78 13                         # crypto_core/hsalsa20/ref2/core_hsalsa20_ref2.c:78:13
	xorl	-56(%rsp), %r10d                # 4-byte Folded Reload
.Ltmp128:
	#DEBUG_VALUE: crypto_core_hsalsa20:x10 <- $r10d
	.loc	1 82 13                         # crypto_core/hsalsa20/ref2/core_hsalsa20_ref2.c:82:13
	xorl	-64(%rsp), %r9d                 # 4-byte Folded Reload
.Ltmp129:
	#DEBUG_VALUE: crypto_core_hsalsa20:x15 <- $r9d
	#DEBUG_VALUE: crypto_core_hsalsa20:i <- [DW_OP_constu 92, DW_OP_minus, DW_OP_deref, DW_OP_constu 4, DW_OP_minus, DW_OP_stack_value] $rsp
	.loc	1 0 13 is_stmt 0                # crypto_core/hsalsa20/ref2/core_hsalsa20_ref2.c:0:13
	movl	-92(%rsp), %r8d                 # 4-byte Reload
.Ltmp130:
	.loc	1 50 20 is_stmt 1               # crypto_core/hsalsa20/ref2/core_hsalsa20_ref2.c:50:20
	addl	$-2, %r8d
	movl	%r8d, -92(%rsp)                 # 4-byte Spill
.Ltmp131:
	#DEBUG_VALUE: crypto_core_hsalsa20:i <- [DW_OP_constu 4, DW_OP_minus, DW_OP_stack_value] undef
	cmpl	$2, %r8d
.Ltmp132:
	.loc	1 50 5 is_stmt 0                # crypto_core/hsalsa20/ref2/core_hsalsa20_ref2.c:50:5
	ja	.LBB0_4
.Ltmp133:
# %bb.5:
	#DEBUG_VALUE: crypto_core_hsalsa20:out <- [DW_OP_constu 72, DW_OP_minus] [$rsp+0]
	#DEBUG_VALUE: crypto_core_hsalsa20:in <- [DW_OP_LLVM_entry_value 1] $rsi
	#DEBUG_VALUE: crypto_core_hsalsa20:k <- [DW_OP_LLVM_entry_value 1] $rdx
	#DEBUG_VALUE: crypto_core_hsalsa20:c <- [DW_OP_LLVM_entry_value 1] $rcx
	#DEBUG_VALUE: crypto_core_hsalsa20:x0 <- $ebx
	#DEBUG_VALUE: crypto_core_hsalsa20:x5 <- $r11d
	#DEBUG_VALUE: crypto_core_hsalsa20:x10 <- $r10d
	#DEBUG_VALUE: crypto_core_hsalsa20:x15 <- $r9d
	#DEBUG_VALUE: crypto_core_hsalsa20:x1 <- $r14d
	#DEBUG_VALUE: crypto_core_hsalsa20:x2 <- [DW_OP_constu 80, DW_OP_minus, DW_OP_deref] $rsp
	#DEBUG_VALUE: crypto_core_hsalsa20:x3 <- [DW_OP_constu 88, DW_OP_minus, DW_OP_deref] $rsp
	#DEBUG_VALUE: crypto_core_hsalsa20:x4 <- $ebp
	#DEBUG_VALUE: crypto_core_hsalsa20:x11 <- $r12d
	#DEBUG_VALUE: crypto_core_hsalsa20:x12 <- $esi
	#DEBUG_VALUE: crypto_core_hsalsa20:x13 <- $ecx
	#DEBUG_VALUE: crypto_core_hsalsa20:x14 <- $edi
	#DEBUG_VALUE: crypto_core_hsalsa20:x6 <- $r15d
	#DEBUG_VALUE: crypto_core_hsalsa20:x7 <- $edx
	#DEBUG_VALUE: crypto_core_hsalsa20:x8 <- $eax
	#DEBUG_VALUE: crypto_core_hsalsa20:x9 <- $r13d
	#DEBUG_VALUE: store32_le:dst <- [DW_OP_constu 72, DW_OP_minus, DW_OP_deref] $rsp
	#DEBUG_VALUE: store32_le:w <- undef
	#DEBUG_VALUE: memcpy:__dest <- [DW_OP_constu 72, DW_OP_minus, DW_OP_deref] $rsp
	#DEBUG_VALUE: memcpy:__src <- undef
	#DEBUG_VALUE: memcpy:__len <- 4
	.loc	1 0 5                           # crypto_core/hsalsa20/ref2/core_hsalsa20_ref2.c:0:5
	movq	-72(%rsp), %rcx                 # 8-byte Reload
.Ltmp134:
	.loc	2 29 10 is_stmt 1               # /usr/include/x86_64-linux-gnu/bits/string_fortified.h:29:10 @[ ./include/sodium/private/common.h:122:5 @[ crypto_core/hsalsa20/ref2/core_hsalsa20_ref2.c:85:5 ] ]
	movl	%ebx, (%rcx)
.Ltmp135:
	#DEBUG_VALUE: store32_le:w <- undef
	#DEBUG_VALUE: memcpy:__src <- undef
	#DEBUG_VALUE: memcpy:__len <- 4
	#DEBUG_VALUE: store32_le:dst <- [DW_OP_constu 72, DW_OP_minus, DW_OP_deref, DW_OP_plus_uconst 4, DW_OP_stack_value] $rsp
	#DEBUG_VALUE: memcpy:__dest <- [DW_OP_constu 72, DW_OP_minus, DW_OP_deref, DW_OP_plus_uconst 4, DW_OP_stack_value] $rsp
	.loc	2 29 10 is_stmt 0               # /usr/include/x86_64-linux-gnu/bits/string_fortified.h:29:10 @[ ./include/sodium/private/common.h:122:5 @[ crypto_core/hsalsa20/ref2/core_hsalsa20_ref2.c:86:5 ] ]
	movl	%r11d, 4(%rcx)
.Ltmp136:
	#DEBUG_VALUE: store32_le:w <- undef
	#DEBUG_VALUE: memcpy:__src <- undef
	#DEBUG_VALUE: memcpy:__len <- 4
	#DEBUG_VALUE: store32_le:dst <- [DW_OP_constu 72, DW_OP_minus, DW_OP_deref, DW_OP_plus_uconst 8, DW_OP_stack_value] $rsp
	#DEBUG_VALUE: memcpy:__dest <- [DW_OP_constu 72, DW_OP_minus, DW_OP_deref, DW_OP_plus_uconst 8, DW_OP_stack_value] $rsp
	.loc	2 29 10                         # /usr/include/x86_64-linux-gnu/bits/string_fortified.h:29:10 @[ ./include/sodium/private/common.h:122:5 @[ crypto_core/hsalsa20/ref2/core_hsalsa20_ref2.c:87:5 ] ]
	movl	%r10d, 8(%rcx)
.Ltmp137:
	#DEBUG_VALUE: store32_le:w <- undef
	#DEBUG_VALUE: memcpy:__src <- undef
	#DEBUG_VALUE: memcpy:__len <- 4
	#DEBUG_VALUE: store32_le:dst <- [DW_OP_constu 72, DW_OP_minus, DW_OP_deref, DW_OP_plus_uconst 12, DW_OP_stack_value] $rsp
	#DEBUG_VALUE: memcpy:__dest <- [DW_OP_constu 72, DW_OP_minus, DW_OP_deref, DW_OP_plus_uconst 12, DW_OP_stack_value] $rsp
	.loc	2 29 10                         # /usr/include/x86_64-linux-gnu/bits/string_fortified.h:29:10 @[ ./include/sodium/private/common.h:122:5 @[ crypto_core/hsalsa20/ref2/core_hsalsa20_ref2.c:88:5 ] ]
	movl	%r9d, 12(%rcx)
.Ltmp138:
	#DEBUG_VALUE: store32_le:w <- undef
	#DEBUG_VALUE: memcpy:__src <- undef
	#DEBUG_VALUE: memcpy:__len <- 4
	#DEBUG_VALUE: store32_le:dst <- [DW_OP_constu 72, DW_OP_minus, DW_OP_deref, DW_OP_plus_uconst 16, DW_OP_stack_value] $rsp
	#DEBUG_VALUE: memcpy:__dest <- [DW_OP_constu 72, DW_OP_minus, DW_OP_deref, DW_OP_plus_uconst 16, DW_OP_stack_value] $rsp
	.loc	2 29 10                         # /usr/include/x86_64-linux-gnu/bits/string_fortified.h:29:10 @[ ./include/sodium/private/common.h:122:5 @[ crypto_core/hsalsa20/ref2/core_hsalsa20_ref2.c:89:5 ] ]
	movl	%r15d, 16(%rcx)
.Ltmp139:
	#DEBUG_VALUE: store32_le:w <- undef
	#DEBUG_VALUE: memcpy:__src <- undef
	#DEBUG_VALUE: memcpy:__len <- 4
	#DEBUG_VALUE: store32_le:dst <- [DW_OP_constu 72, DW_OP_minus, DW_OP_deref, DW_OP_plus_uconst 20, DW_OP_stack_value] $rsp
	#DEBUG_VALUE: memcpy:__dest <- [DW_OP_constu 72, DW_OP_minus, DW_OP_deref, DW_OP_plus_uconst 20, DW_OP_stack_value] $rsp
	.loc	2 29 10                         # /usr/include/x86_64-linux-gnu/bits/string_fortified.h:29:10 @[ ./include/sodium/private/common.h:122:5 @[ crypto_core/hsalsa20/ref2/core_hsalsa20_ref2.c:90:5 ] ]
	movl	%edx, 20(%rcx)
.Ltmp140:
	#DEBUG_VALUE: store32_le:w <- undef
	#DEBUG_VALUE: memcpy:__src <- undef
	#DEBUG_VALUE: memcpy:__len <- 4
	#DEBUG_VALUE: store32_le:dst <- [DW_OP_constu 72, DW_OP_minus, DW_OP_deref, DW_OP_plus_uconst 24, DW_OP_stack_value] $rsp
	#DEBUG_VALUE: memcpy:__dest <- [DW_OP_constu 72, DW_OP_minus, DW_OP_deref, DW_OP_plus_uconst 24, DW_OP_stack_value] $rsp
	.loc	2 29 10                         # /usr/include/x86_64-linux-gnu/bits/string_fortified.h:29:10 @[ ./include/sodium/private/common.h:122:5 @[ crypto_core/hsalsa20/ref2/core_hsalsa20_ref2.c:91:5 ] ]
	movl	%eax, 24(%rcx)
.Ltmp141:
	#DEBUG_VALUE: store32_le:w <- undef
	#DEBUG_VALUE: memcpy:__src <- undef
	#DEBUG_VALUE: memcpy:__len <- 4
	#DEBUG_VALUE: store32_le:dst <- [DW_OP_constu 72, DW_OP_minus, DW_OP_deref, DW_OP_plus_uconst 28, DW_OP_stack_value] $rsp
	#DEBUG_VALUE: memcpy:__dest <- [DW_OP_constu 72, DW_OP_minus, DW_OP_deref, DW_OP_plus_uconst 28, DW_OP_stack_value] $rsp
	.loc	2 29 10                         # /usr/include/x86_64-linux-gnu/bits/string_fortified.h:29:10 @[ ./include/sodium/private/common.h:122:5 @[ crypto_core/hsalsa20/ref2/core_hsalsa20_ref2.c:92:5 ] ]
	movl	%r13d, 28(%rcx)
.Ltmp142:
	.loc	1 94 5 is_stmt 1                # crypto_core/hsalsa20/ref2/core_hsalsa20_ref2.c:94:5
	xorl	%eax, %eax
.Ltmp143:
	.loc	1 94 5 epilogue_begin is_stmt 0 # crypto_core/hsalsa20/ref2/core_hsalsa20_ref2.c:94:5
	popq	%rbx
.Ltmp144:
	.cfi_def_cfa_offset 48
	popq	%r12
.Ltmp145:
	.cfi_def_cfa_offset 40
	popq	%r13
.Ltmp146:
	.cfi_def_cfa_offset 32
	popq	%r14
.Ltmp147:
	.cfi_def_cfa_offset 24
	popq	%r15
.Ltmp148:
	.cfi_def_cfa_offset 16
	popq	%rbp
.Ltmp149:
	.cfi_def_cfa_offset 8
	retq
.Ltmp150:
.Lfunc_end0:
	.size	crypto_core_hsalsa20, .Lfunc_end0-crypto_core_hsalsa20
	.cfi_endproc
	.file	4 "/home/leizhenyuu/opt/Anonymous_Repo" "llvm-project/build/lib/clang/21/include/__stddef_size_t.h"
	.file	5 "/usr/include/x86_64-linux-gnu/bits" "types.h"
	.file	6 "/usr/include/x86_64-linux-gnu/bits" "stdint-uintn.h"
                                        # -- End function
	.section	".note.GNU-stack","",@progbits
	.addrsig