	.file	"core_ed25519.c"
	.file	0 "/home/leizhenyuu/opt/Anonymous_Repo/libsodium_o2_attr_inline/src/libsodium" "core_ed25519.c" md5 0xa24db4257d8afeab5e9ad14099d74867
	.file	1 "crypto_core/ed25519" "core_ed25519.c"
	.text
	.globl	crypto_core_ed25519_is_valid_point # -- Begin function crypto_core_ed25519_is_valid_point
	.p2align	4
	.type	crypto_core_ed25519_is_valid_point,@function
crypto_core_ed25519_is_valid_point:     # @crypto_core_ed25519_is_valid_point
.Lfunc_begin0:
	.loc	1 12 0                          # crypto_core/ed25519/core_ed25519.c:12:0
	.cfi_startproc
# %bb.0:
	#DEBUG_VALUE: crypto_core_ed25519_is_valid_point:p <- $rdi
	pushq	%r14
	.cfi_def_cfa_offset 16
	pushq	%rbx
	.cfi_def_cfa_offset 24
	subq	$168, %rsp
	.cfi_def_cfa_offset 192
	.cfi_offset %rbx, -24
	.cfi_offset %r14, -16
	movq	%rdi, %r14
.Ltmp0:
	.loc	1 15 9 prologue_end             # crypto_core/ed25519/core_ed25519.c:15:9
	callq	ge25519_is_canonical@PLT
.Ltmp1:
	#DEBUG_VALUE: crypto_core_ed25519_is_valid_point:p <- $r14
	.loc	1 0 9 is_stmt 0                 # crypto_core/ed25519/core_ed25519.c:0:9
	xorl	%ebx, %ebx
	.loc	1 15 33                         # crypto_core/ed25519/core_ed25519.c:15:33
	testl	%eax, %eax
	.loc	1 15 38                         # crypto_core/ed25519/core_ed25519.c:15:38
	je	.LBB0_5
.Ltmp2:
# %bb.1:
	#DEBUG_VALUE: crypto_core_ed25519_is_valid_point:p <- $r14
	.loc	1 16 9 is_stmt 1                # crypto_core/ed25519/core_ed25519.c:16:9
	movq	%r14, %rdi
	callq	ge25519_has_small_order@PLT
.Ltmp3:
	.loc	1 16 36 is_stmt 0               # crypto_core/ed25519/core_ed25519.c:16:36
	testl	%eax, %eax
	.loc	1 16 41                         # crypto_core/ed25519/core_ed25519.c:16:41
	jne	.LBB0_5
.Ltmp4:
# %bb.2:
	#DEBUG_VALUE: crypto_core_ed25519_is_valid_point:p <- $r14
	.loc	1 0 41                          # crypto_core/ed25519/core_ed25519.c:0:41
	leaq	8(%rsp), %rdi
	.loc	1 17 9 is_stmt 1                # crypto_core/ed25519/core_ed25519.c:17:9
	movq	%r14, %rsi
	callq	ge25519_frombytes@PLT
.Ltmp5:
	.loc	1 17 37 is_stmt 0               # crypto_core/ed25519/core_ed25519.c:17:37
	testl	%eax, %eax
	.loc	1 17 42                         # crypto_core/ed25519/core_ed25519.c:17:42
	jne	.LBB0_5
.Ltmp6:
# %bb.3:
	#DEBUG_VALUE: crypto_core_ed25519_is_valid_point:p <- $r14
	.loc	1 0 42                          # crypto_core/ed25519/core_ed25519.c:0:42
	leaq	8(%rsp), %rdi
	.loc	1 18 9 is_stmt 1                # crypto_core/ed25519/core_ed25519.c:18:9
	callq	ge25519_is_on_curve@PLT
.Ltmp7:
	.loc	1 18 36 is_stmt 0               # crypto_core/ed25519/core_ed25519.c:18:36
	testl	%eax, %eax
	.loc	1 18 41                         # crypto_core/ed25519/core_ed25519.c:18:41
	je	.LBB0_5
.Ltmp8:
# %bb.4:
	#DEBUG_VALUE: crypto_core_ed25519_is_valid_point:p <- $r14
	.loc	1 0 41                          # crypto_core/ed25519/core_ed25519.c:0:41
	leaq	8(%rsp), %rdi
	.loc	1 19 9 is_stmt 1                # crypto_core/ed25519/core_ed25519.c:19:9
	callq	ge25519_is_on_main_subgroup@PLT
.Ltmp9:
	.loc	1 19 44 is_stmt 0               # crypto_core/ed25519/core_ed25519.c:19:44
	xorl	%ebx, %ebx
	testl	%eax, %eax
	setne	%bl
.Ltmp10:
.LBB0_5:
	#DEBUG_VALUE: crypto_core_ed25519_is_valid_point:p <- $r14
	.loc	1 23 1 is_stmt 1                # crypto_core/ed25519/core_ed25519.c:23:1
	movl	%ebx, %eax
	.loc	1 23 1 epilogue_begin is_stmt 0 # crypto_core/ed25519/core_ed25519.c:23:1
	addq	$168, %rsp
	.cfi_def_cfa_offset 24
	popq	%rbx
	.cfi_def_cfa_offset 16
	popq	%r14
.Ltmp11:
	#DEBUG_VALUE: crypto_core_ed25519_is_valid_point:p <- [DW_OP_LLVM_entry_value 1] $rdi
	.cfi_def_cfa_offset 8
	retq
.Ltmp12:
.Lfunc_end0:
	.size	crypto_core_ed25519_is_valid_point, .Lfunc_end0-crypto_core_ed25519_is_valid_point
	.cfi_endproc
	.file	2 "./include/sodium/private" "ed25519_ref10.h"
	.file	3 "/usr/include/x86_64-linux-gnu/bits" "types.h"
	.file	4 "/usr/include/x86_64-linux-gnu/bits" "stdint-uintn.h"
                                        # -- End function
	.globl	crypto_core_ed25519_add         # -- Begin function crypto_core_ed25519_add
	.p2align	4
	.type	crypto_core_ed25519_add,@function
crypto_core_ed25519_add:                # @crypto_core_ed25519_add
.Lfunc_begin1:
	.loc	1 28 0 is_stmt 1                # crypto_core/ed25519/core_ed25519.c:28:0
	.cfi_startproc
# %bb.0:
	#DEBUG_VALUE: crypto_core_ed25519_add:r <- $rdi
	#DEBUG_VALUE: crypto_core_ed25519_add:p <- $rsi
	#DEBUG_VALUE: crypto_core_ed25519_add:q <- $rdx
	pushq	%rbp
	.cfi_def_cfa_offset 16
	pushq	%r15
	.cfi_def_cfa_offset 24
	pushq	%r14
	.cfi_def_cfa_offset 32
	pushq	%rbx
	.cfi_def_cfa_offset 40
	subq	$808, %rsp                      # imm = 0x328
	.cfi_def_cfa_offset 848
	.cfi_offset %rbx, -40
	.cfi_offset %r14, -32
	.cfi_offset %r15, -24
	.cfi_offset %rbp, -16
	movq	%rdx, %r14
	movq	%rdi, %rbx
	leaq	168(%rsp), %rdi
.Ltmp13:
	#DEBUG_VALUE: crypto_core_ed25519_add:r <- $rbx
	.loc	1 33 9 prologue_end             # crypto_core/ed25519/core_ed25519.c:33:9
	callq	ge25519_frombytes@PLT
.Ltmp14:
	#DEBUG_VALUE: crypto_core_ed25519_add:q <- $r14
	#DEBUG_VALUE: crypto_core_ed25519_add:p <- [DW_OP_LLVM_entry_value 1] $rsi
	.loc	1 0 9 is_stmt 0                 # crypto_core/ed25519/core_ed25519.c:0:9
	movl	$-1, %ebp
	.loc	1 33 37                         # crypto_core/ed25519/core_ed25519.c:33:37
	testl	%eax, %eax
	.loc	1 33 42                         # crypto_core/ed25519/core_ed25519.c:33:42
	je	.LBB1_1
.Ltmp15:
.LBB1_5:
	#DEBUG_VALUE: crypto_core_ed25519_add:r <- $rbx
	#DEBUG_VALUE: crypto_core_ed25519_add:p <- [DW_OP_LLVM_entry_value 1] $rsi
	#DEBUG_VALUE: crypto_core_ed25519_add:q <- [DW_OP_LLVM_entry_value 1] $rdx
	.loc	1 43 1 is_stmt 1                # crypto_core/ed25519/core_ed25519.c:43:1
	movl	%ebp, %eax
	.loc	1 43 1 epilogue_begin is_stmt 0 # crypto_core/ed25519/core_ed25519.c:43:1
	addq	$808, %rsp                      # imm = 0x328
	.cfi_def_cfa_offset 40
	popq	%rbx
.Ltmp16:
	#DEBUG_VALUE: crypto_core_ed25519_add:r <- [DW_OP_LLVM_entry_value 1] $rdi
	.cfi_def_cfa_offset 32
	popq	%r14
	.cfi_def_cfa_offset 24
	popq	%r15
	.cfi_def_cfa_offset 16
	popq	%rbp
	.cfi_def_cfa_offset 8
	retq
.Ltmp17:
.LBB1_1:
	.cfi_def_cfa_offset 848
	#DEBUG_VALUE: crypto_core_ed25519_add:r <- $rbx
	#DEBUG_VALUE: crypto_core_ed25519_add:p <- [DW_OP_LLVM_entry_value 1] $rsi
	#DEBUG_VALUE: crypto_core_ed25519_add:q <- $r14
	.loc	1 0 1                           # crypto_core/ed25519/core_ed25519.c:0:1
	leaq	168(%rsp), %rdi
.Ltmp18:
	.loc	1 33 45 is_stmt 1               # crypto_core/ed25519/core_ed25519.c:33:45
	callq	ge25519_is_on_curve@PLT
.Ltmp19:
	.loc	1 33 72 is_stmt 0               # crypto_core/ed25519/core_ed25519.c:33:72
	testl	%eax, %eax
	.loc	1 33 77                         # crypto_core/ed25519/core_ed25519.c:33:77
	je	.LBB1_5
.Ltmp20:
# %bb.2:
	#DEBUG_VALUE: crypto_core_ed25519_add:r <- $rbx
	#DEBUG_VALUE: crypto_core_ed25519_add:p <- [DW_OP_LLVM_entry_value 1] $rsi
	#DEBUG_VALUE: crypto_core_ed25519_add:q <- $r14
	.loc	1 0 77                          # crypto_core/ed25519/core_ed25519.c:0:77
	leaq	8(%rsp), %rdi
	.loc	1 34 9 is_stmt 1                # crypto_core/ed25519/core_ed25519.c:34:9
	movq	%r14, %rsi
	callq	ge25519_frombytes@PLT
.Ltmp21:
	.loc	1 34 37 is_stmt 0               # crypto_core/ed25519/core_ed25519.c:34:37
	testl	%eax, %eax
	.loc	1 34 42                         # crypto_core/ed25519/core_ed25519.c:34:42
	jne	.LBB1_5
.Ltmp22:
# %bb.3:
	#DEBUG_VALUE: crypto_core_ed25519_add:r <- $rbx
	#DEBUG_VALUE: crypto_core_ed25519_add:p <- [DW_OP_LLVM_entry_value 1] $rsi
	#DEBUG_VALUE: crypto_core_ed25519_add:q <- $r14
	.loc	1 0 42                          # crypto_core/ed25519/core_ed25519.c:0:42
	leaq	8(%rsp), %rdi
	.loc	1 34 45                         # crypto_core/ed25519/core_ed25519.c:34:45
	callq	ge25519_is_on_curve@PLT
.Ltmp23:
	.loc	1 34 72                         # crypto_core/ed25519/core_ed25519.c:34:72
	testl	%eax, %eax
	.loc	1 34 42                         # crypto_core/ed25519/core_ed25519.c:34:42
	je	.LBB1_5
.Ltmp24:
# %bb.4:
	#DEBUG_VALUE: crypto_core_ed25519_add:r <- $rbx
	#DEBUG_VALUE: crypto_core_ed25519_add:p <- [DW_OP_LLVM_entry_value 1] $rsi
	#DEBUG_VALUE: crypto_core_ed25519_add:q <- $r14
	.loc	1 0 42                          # crypto_core/ed25519/core_ed25519.c:0:42
	leaq	328(%rsp), %r14
.Ltmp25:
	#DEBUG_VALUE: crypto_core_ed25519_add:q <- [DW_OP_LLVM_entry_value 1] $rdx
	leaq	8(%rsp), %rsi
	.loc	1 37 5 is_stmt 1                # crypto_core/ed25519/core_ed25519.c:37:5
	movq	%r14, %rdi
	callq	ge25519_p3_to_cached@PLT
.Ltmp26:
	.loc	1 0 5 is_stmt 0                 # crypto_core/ed25519/core_ed25519.c:0:5
	leaq	488(%rsp), %r15
	leaq	168(%rsp), %rsi
	.loc	1 38 5 is_stmt 1                # crypto_core/ed25519/core_ed25519.c:38:5
	movq	%r15, %rdi
	movq	%r14, %rdx
	callq	ge25519_add@PLT
.Ltmp27:
	.loc	1 0 5 is_stmt 0                 # crypto_core/ed25519/core_ed25519.c:0:5
	leaq	648(%rsp), %r14
	.loc	1 39 5 is_stmt 1                # crypto_core/ed25519/core_ed25519.c:39:5
	movq	%r14, %rdi
	movq	%r15, %rsi
	callq	ge25519_p1p1_to_p3@PLT
.Ltmp28:
	.loc	1 40 5                          # crypto_core/ed25519/core_ed25519.c:40:5
	movq	%rbx, %rdi
	movq	%r14, %rsi
	callq	ge25519_p3_tobytes@PLT
.Ltmp29:
	.loc	1 0 5 is_stmt 0                 # crypto_core/ed25519/core_ed25519.c:0:5
	xorl	%ebp, %ebp
	jmp	.LBB1_5
.Ltmp30:
.Lfunc_end1:
	.size	crypto_core_ed25519_add, .Lfunc_end1-crypto_core_ed25519_add
	.cfi_endproc
                                        # -- End function
	.globl	crypto_core_ed25519_sub         # -- Begin function crypto_core_ed25519_sub
	.p2align	4
	.type	crypto_core_ed25519_sub,@function
crypto_core_ed25519_sub:                # @crypto_core_ed25519_sub
.Lfunc_begin2:
	.loc	1 48 0 is_stmt 1                # crypto_core/ed25519/core_ed25519.c:48:0
	.cfi_startproc
# %bb.0:
	#DEBUG_VALUE: crypto_core_ed25519_sub:r <- $rdi
	#DEBUG_VALUE: crypto_core_ed25519_sub:p <- $rsi
	#DEBUG_VALUE: crypto_core_ed25519_sub:q <- $rdx
	pushq	%rbp
	.cfi_def_cfa_offset 16
	pushq	%r15
	.cfi_def_cfa_offset 24
	pushq	%r14
	.cfi_def_cfa_offset 32
	pushq	%rbx
	.cfi_def_cfa_offset 40
	subq	$808, %rsp                      # imm = 0x328
	.cfi_def_cfa_offset 848
	.cfi_offset %rbx, -40
	.cfi_offset %r14, -32
	.cfi_offset %r15, -24
	.cfi_offset %rbp, -16
	movq	%rdx, %r14
	movq	%rdi, %rbx
	leaq	168(%rsp), %rdi
.Ltmp31:
	#DEBUG_VALUE: crypto_core_ed25519_sub:r <- $rbx
	.loc	1 53 9 prologue_end             # crypto_core/ed25519/core_ed25519.c:53:9
	callq	ge25519_frombytes@PLT
.Ltmp32:
	#DEBUG_VALUE: crypto_core_ed25519_sub:q <- $r14
	#DEBUG_VALUE: crypto_core_ed25519_sub:p <- [DW_OP_LLVM_entry_value 1] $rsi
	.loc	1 0 9 is_stmt 0                 # crypto_core/ed25519/core_ed25519.c:0:9
	movl	$-1, %ebp
	.loc	1 53 37                         # crypto_core/ed25519/core_ed25519.c:53:37
	testl	%eax, %eax
	.loc	1 53 42                         # crypto_core/ed25519/core_ed25519.c:53:42
	je	.LBB2_1
.Ltmp33:
.LBB2_5:
	#DEBUG_VALUE: crypto_core_ed25519_sub:r <- $rbx
	#DEBUG_VALUE: crypto_core_ed25519_sub:p <- [DW_OP_LLVM_entry_value 1] $rsi
	#DEBUG_VALUE: crypto_core_ed25519_sub:q <- [DW_OP_LLVM_entry_value 1] $rdx
	.loc	1 63 1 is_stmt 1                # crypto_core/ed25519/core_ed25519.c:63:1
	movl	%ebp, %eax
	.loc	1 63 1 epilogue_begin is_stmt 0 # crypto_core/ed25519/core_ed25519.c:63:1
	addq	$808, %rsp                      # imm = 0x328
	.cfi_def_cfa_offset 40
	popq	%rbx
.Ltmp34:
	#DEBUG_VALUE: crypto_core_ed25519_sub:r <- [DW_OP_LLVM_entry_value 1] $rdi
	.cfi_def_cfa_offset 32
	popq	%r14
	.cfi_def_cfa_offset 24
	popq	%r15
	.cfi_def_cfa_offset 16
	popq	%rbp
	.cfi_def_cfa_offset 8
	retq
.Ltmp35:
.LBB2_1:
	.cfi_def_cfa_offset 848
	#DEBUG_VALUE: crypto_core_ed25519_sub:r <- $rbx
	#DEBUG_VALUE: crypto_core_ed25519_sub:p <- [DW_OP_LLVM_entry_value 1] $rsi
	#DEBUG_VALUE: crypto_core_ed25519_sub:q <- $r14
	.loc	1 0 1                           # crypto_core/ed25519/core_ed25519.c:0:1
	leaq	168(%rsp), %rdi
.Ltmp36:
	.loc	1 53 45 is_stmt 1               # crypto_core/ed25519/core_ed25519.c:53:45
	callq	ge25519_is_on_curve@PLT
.Ltmp37:
	.loc	1 53 72 is_stmt 0               # crypto_core/ed25519/core_ed25519.c:53:72
	testl	%eax, %eax
	.loc	1 53 77                         # crypto_core/ed25519/core_ed25519.c:53:77
	je	.LBB2_5
.Ltmp38:
# %bb.2:
	#DEBUG_VALUE: crypto_core_ed25519_sub:r <- $rbx
	#DEBUG_VALUE: crypto_core_ed25519_sub:p <- [DW_OP_LLVM_entry_value 1] $rsi
	#DEBUG_VALUE: crypto_core_ed25519_sub:q <- $r14
	.loc	1 0 77                          # crypto_core/ed25519/core_ed25519.c:0:77
	leaq	8(%rsp), %rdi
	.loc	1 54 9 is_stmt 1                # crypto_core/ed25519/core_ed25519.c:54:9
	movq	%r14, %rsi
	callq	ge25519_frombytes@PLT
.Ltmp39:
	.loc	1 54 37 is_stmt 0               # crypto_core/ed25519/core_ed25519.c:54:37
	testl	%eax, %eax
	.loc	1 54 42                         # crypto_core/ed25519/core_ed25519.c:54:42
	jne	.LBB2_5
.Ltmp40:
# %bb.3:
	#DEBUG_VALUE: crypto_core_ed25519_sub:r <- $rbx
	#DEBUG_VALUE: crypto_core_ed25519_sub:p <- [DW_OP_LLVM_entry_value 1] $rsi
	#DEBUG_VALUE: crypto_core_ed25519_sub:q <- $r14
	.loc	1 0 42                          # crypto_core/ed25519/core_ed25519.c:0:42
	leaq	8(%rsp), %rdi
	.loc	1 54 45                         # crypto_core/ed25519/core_ed25519.c:54:45
	callq	ge25519_is_on_curve@PLT
.Ltmp41:
	.loc	1 54 72                         # crypto_core/ed25519/core_ed25519.c:54:72
	testl	%eax, %eax
	.loc	1 54 42                         # crypto_core/ed25519/core_ed25519.c:54:42
	je	.LBB2_5
.Ltmp42:
# %bb.4:
	#DEBUG_VALUE: crypto_core_ed25519_sub:r <- $rbx
	#DEBUG_VALUE: crypto_core_ed25519_sub:p <- [DW_OP_LLVM_entry_value 1] $rsi
	#DEBUG_VALUE: crypto_core_ed25519_sub:q <- $r14
	.loc	1 0 42                          # crypto_core/ed25519/core_ed25519.c:0:42
	leaq	328(%rsp), %r14
.Ltmp43:
	#DEBUG_VALUE: crypto_core_ed25519_sub:q <- [DW_OP_LLVM_entry_value 1] $rdx
	leaq	8(%rsp), %rsi
	.loc	1 57 5 is_stmt 1                # crypto_core/ed25519/core_ed25519.c:57:5
	movq	%r14, %rdi
	callq	ge25519_p3_to_cached@PLT
.Ltmp44:
	.loc	1 0 5 is_stmt 0                 # crypto_core/ed25519/core_ed25519.c:0:5
	leaq	488(%rsp), %r15
	leaq	168(%rsp), %rsi
	.loc	1 58 5 is_stmt 1                # crypto_core/ed25519/core_ed25519.c:58:5
	movq	%r15, %rdi
	movq	%r14, %rdx
	callq	ge25519_sub@PLT
.Ltmp45:
	.loc	1 0 5 is_stmt 0                 # crypto_core/ed25519/core_ed25519.c:0:5
	leaq	648(%rsp), %r14
	.loc	1 59 5 is_stmt 1                # crypto_core/ed25519/core_ed25519.c:59:5
	movq	%r14, %rdi
	movq	%r15, %rsi
	callq	ge25519_p1p1_to_p3@PLT
.Ltmp46:
	.loc	1 60 5                          # crypto_core/ed25519/core_ed25519.c:60:5
	movq	%rbx, %rdi
	movq	%r14, %rsi
	callq	ge25519_p3_tobytes@PLT
.Ltmp47:
	.loc	1 0 5 is_stmt 0                 # crypto_core/ed25519/core_ed25519.c:0:5
	xorl	%ebp, %ebp
	jmp	.LBB2_5
.Ltmp48:
.Lfunc_end2:
	.size	crypto_core_ed25519_sub, .Lfunc_end2-crypto_core_ed25519_sub
	.cfi_endproc
                                        # -- End function
	.globl	crypto_core_ed25519_from_uniform # -- Begin function crypto_core_ed25519_from_uniform
	.p2align	4
	.type	crypto_core_ed25519_from_uniform,@function
crypto_core_ed25519_from_uniform:       # @crypto_core_ed25519_from_uniform
.Lfunc_begin3:
	.loc	1 67 0 is_stmt 1                # crypto_core/ed25519/core_ed25519.c:67:0
	.cfi_startproc
# %bb.0:
	#DEBUG_VALUE: crypto_core_ed25519_from_uniform:p <- $rdi
	#DEBUG_VALUE: crypto_core_ed25519_from_uniform:r <- $rsi
	pushq	%rax
	.cfi_def_cfa_offset 16
.Ltmp49:
	.loc	1 68 5 prologue_end             # crypto_core/ed25519/core_ed25519.c:68:5
	callq	ge25519_from_uniform@PLT
.Ltmp50:
	#DEBUG_VALUE: crypto_core_ed25519_from_uniform:r <- [DW_OP_LLVM_entry_value 1] $rsi
	#DEBUG_VALUE: crypto_core_ed25519_from_uniform:p <- [DW_OP_LLVM_entry_value 1] $rdi
	.loc	1 70 5                          # crypto_core/ed25519/core_ed25519.c:70:5
	xorl	%eax, %eax
	.loc	1 70 5 epilogue_begin is_stmt 0 # crypto_core/ed25519/core_ed25519.c:70:5
	popq	%rcx
	.cfi_def_cfa_offset 8
	retq
.Ltmp51:
.Lfunc_end3:
	.size	crypto_core_ed25519_from_uniform, .Lfunc_end3-crypto_core_ed25519_from_uniform
	.cfi_endproc
                                        # -- End function
	.globl	crypto_core_ed25519_from_hash   # -- Begin function crypto_core_ed25519_from_hash
	.p2align	4
	.type	crypto_core_ed25519_from_hash,@function
crypto_core_ed25519_from_hash:          # @crypto_core_ed25519_from_hash
.Lfunc_begin4:
	.loc	1 75 0 is_stmt 1                # crypto_core/ed25519/core_ed25519.c:75:0
	.cfi_startproc
# %bb.0:
	#DEBUG_VALUE: crypto_core_ed25519_from_hash:p <- $rdi
	#DEBUG_VALUE: crypto_core_ed25519_from_hash:h <- $rsi
	pushq	%rax
	.cfi_def_cfa_offset 16
.Ltmp52:
	.loc	1 76 5 prologue_end             # crypto_core/ed25519/core_ed25519.c:76:5
	callq	ge25519_from_hash@PLT
.Ltmp53:
	#DEBUG_VALUE: crypto_core_ed25519_from_hash:h <- [DW_OP_LLVM_entry_value 1] $rsi
	#DEBUG_VALUE: crypto_core_ed25519_from_hash:p <- [DW_OP_LLVM_entry_value 1] $rdi
	.loc	1 78 5                          # crypto_core/ed25519/core_ed25519.c:78:5
	xorl	%eax, %eax
	.loc	1 78 5 epilogue_begin is_stmt 0 # crypto_core/ed25519/core_ed25519.c:78:5
	popq	%rcx
	.cfi_def_cfa_offset 8
	retq
.Ltmp54:
.Lfunc_end4:
	.size	crypto_core_ed25519_from_hash, .Lfunc_end4-crypto_core_ed25519_from_hash
	.cfi_endproc
                                        # -- End function
	.globl	crypto_core_ed25519_random      # -- Begin function crypto_core_ed25519_random
	.p2align	4
	.type	crypto_core_ed25519_random,@function
crypto_core_ed25519_random:             # @crypto_core_ed25519_random
.Lfunc_begin5:
	.loc	1 83 0 is_stmt 1                # crypto_core/ed25519/core_ed25519.c:83:0
	.cfi_startproc
# %bb.0:
	#DEBUG_VALUE: crypto_core_ed25519_random:p <- $rdi
	pushq	%r14
	.cfi_def_cfa_offset 16
	pushq	%rbx
	.cfi_def_cfa_offset 24
	subq	$40, %rsp
	.cfi_def_cfa_offset 64
	.cfi_offset %rbx, -24
	.cfi_offset %r14, -16
	movq	%rdi, %rbx
	movq	%fs:40, %rax
	movq	%rax, 32(%rsp)
	movq	%rsp, %r14
.Ltmp55:
	.loc	1 86 5 prologue_end             # crypto_core/ed25519/core_ed25519.c:86:5
	movl	$32, %esi
	movq	%r14, %rdi
.Ltmp56:
	#DEBUG_VALUE: crypto_core_ed25519_random:p <- $rbx
	callq	randombytes_buf@PLT
.Ltmp57:
	#DEBUG_VALUE: crypto_core_ed25519_from_uniform:p <- $rbx
	#DEBUG_VALUE: crypto_core_ed25519_from_uniform:r <- $rsp
	.loc	1 68 5                          # crypto_core/ed25519/core_ed25519.c:68:5 @[ crypto_core/ed25519/core_ed25519.c:87:12 ]
	movq	%rbx, %rdi
	movq	%r14, %rsi
	callq	ge25519_from_uniform@PLT
.Ltmp58:
	.loc	1 88 1                          # crypto_core/ed25519/core_ed25519.c:88:1
	movq	%fs:40, %rax
	cmpq	32(%rsp), %rax
	jne	.LBB5_2
.Ltmp59:
# %bb.1:                                # %SP_return
	#DEBUG_VALUE: crypto_core_ed25519_random:p <- $rbx
	.loc	1 88 1 epilogue_begin is_stmt 0 # crypto_core/ed25519/core_ed25519.c:88:1
	addq	$40, %rsp
	.cfi_def_cfa_offset 24
	popq	%rbx
.Ltmp60:
	#DEBUG_VALUE: crypto_core_ed25519_random:p <- [DW_OP_LLVM_entry_value 1] $rdi
	.cfi_def_cfa_offset 16
	popq	%r14
	.cfi_def_cfa_offset 8
	retq
.Ltmp61:
.LBB5_2:                                # %CallStackCheckFailBlk
	.cfi_def_cfa_offset 64
	#DEBUG_VALUE: crypto_core_ed25519_random:p <- $rbx
	#DEBUG_VALUE: crypto_core_ed25519_from_uniform:p <- $rbx
	#DEBUG_VALUE: crypto_core_ed25519_from_uniform:r <- $r14
	.loc	1 0 0                           # crypto_core/ed25519/core_ed25519.c:0
	callq	__stack_chk_fail@PLT
.Ltmp62:
.Lfunc_end5:
	.size	crypto_core_ed25519_random, .Lfunc_end5-crypto_core_ed25519_random
	.cfi_endproc
	.file	5 "./include/sodium" "randombytes.h"
	.file	6 "/home/leizhenyuu/opt/Anonymous_Repo" "llvm-project/build/lib/clang/21/include/__stddef_size_t.h"
                                        # -- End function
	.globl	crypto_core_ed25519_scalar_random # -- Begin function crypto_core_ed25519_scalar_random
	.p2align	4
	.type	crypto_core_ed25519_scalar_random,@function
crypto_core_ed25519_scalar_random:      # @crypto_core_ed25519_scalar_random
.Lfunc_begin6:
	.loc	1 92 0 is_stmt 1                # crypto_core/ed25519/core_ed25519.c:92:0
	.cfi_startproc
# %bb.0:
	#DEBUG_VALUE: crypto_core_ed25519_scalar_random:r <- $rdi
	pushq	%rbx
	.cfi_def_cfa_offset 16
	.cfi_offset %rbx, -16
	movq	%rdi, %rbx
.Ltmp63:
	.loc	1 0 0 is_stmt 0                 # :0:0
.Ltmp64:
	.p2align	4
.LBB6_1:                                # %.critedge
                                        # =>This Inner Loop Header: Depth=1
	#DEBUG_VALUE: crypto_core_ed25519_scalar_random:r <- $rbx
	.loc	1 94 9 prologue_end is_stmt 1   # crypto_core/ed25519/core_ed25519.c:94:9
	movl	$32, %esi
	movq	%rbx, %rdi
	callq	randombytes_buf@PLT
.Ltmp65:
	.loc	1 95 19                         # crypto_core/ed25519/core_ed25519.c:95:19
	andb	$31, 31(%rbx)
.Ltmp66:
	.loc	1 96 14                         # crypto_core/ed25519/core_ed25519.c:96:14
	movq	%rbx, %rdi
	callq	sc25519_is_canonical@PLT
.Ltmp67:
	.loc	1 96 38 is_stmt 0               # crypto_core/ed25519/core_ed25519.c:96:38
	testl	%eax, %eax
	.loc	1 96 43                         # crypto_core/ed25519/core_ed25519.c:96:43
	je	.LBB6_1
.Ltmp68:
# %bb.2:                                #   in Loop: Header=BB6_1 Depth=1
	#DEBUG_VALUE: crypto_core_ed25519_scalar_random:r <- $rbx
	.loc	1 97 14 is_stmt 1               # crypto_core/ed25519/core_ed25519.c:97:14
	movl	$32, %esi
	movq	%rbx, %rdi
	callq	sodium_is_zero@PLT
.Ltmp69:
	.loc	1 96 43                         # crypto_core/ed25519/core_ed25519.c:96:43
	testl	%eax, %eax
.Ltmp70:
	.loc	1 96 5 is_stmt 0                # crypto_core/ed25519/core_ed25519.c:96:5
	jne	.LBB6_1
.Ltmp71:
# %bb.3:
	#DEBUG_VALUE: crypto_core_ed25519_scalar_random:r <- $rbx
	.loc	1 98 1 epilogue_begin is_stmt 1 # crypto_core/ed25519/core_ed25519.c:98:1
	popq	%rbx
.Ltmp72:
	#DEBUG_VALUE: crypto_core_ed25519_scalar_random:r <- [DW_OP_LLVM_entry_value 1] $rdi
	.cfi_def_cfa_offset 8
	retq
.Ltmp73:
.Lfunc_end6:
	.size	crypto_core_ed25519_scalar_random, .Lfunc_end6-crypto_core_ed25519_scalar_random
	.cfi_endproc
	.file	7 "./include/sodium" "utils.h"
                                        # -- End function
	.globl	crypto_core_ed25519_scalar_invert # -- Begin function crypto_core_ed25519_scalar_invert
	.p2align	4
	.type	crypto_core_ed25519_scalar_invert,@function
crypto_core_ed25519_scalar_invert:      # @crypto_core_ed25519_scalar_invert
.Lfunc_begin7:
	.loc	1 102 0                         # crypto_core/ed25519/core_ed25519.c:102:0
	.cfi_startproc
# %bb.0:
	#DEBUG_VALUE: crypto_core_ed25519_scalar_invert:recip <- $rdi
	#DEBUG_VALUE: crypto_core_ed25519_scalar_invert:s <- $rsi
	pushq	%rbx
	.cfi_def_cfa_offset 16
	.cfi_offset %rbx, -16
	movq	%rsi, %rbx
.Ltmp74:
	.loc	1 103 5 prologue_end            # crypto_core/ed25519/core_ed25519.c:103:5
	callq	sc25519_invert@PLT
.Ltmp75:
	#DEBUG_VALUE: crypto_core_ed25519_scalar_invert:s <- $rbx
	#DEBUG_VALUE: crypto_core_ed25519_scalar_invert:recip <- [DW_OP_LLVM_entry_value 1] $rdi
	.loc	1 105 14                        # crypto_core/ed25519/core_ed25519.c:105:14
	movl	$32, %esi
	movq	%rbx, %rdi
	callq	sodium_is_zero@PLT
.Ltmp76:
	.loc	1 105 12 is_stmt 0              # crypto_core/ed25519/core_ed25519.c:105:12
	negl	%eax
	.loc	1 105 5 epilogue_begin          # crypto_core/ed25519/core_ed25519.c:105:5
	popq	%rbx
.Ltmp77:
	#DEBUG_VALUE: crypto_core_ed25519_scalar_invert:s <- [DW_OP_LLVM_entry_value 1] $rsi
	.cfi_def_cfa_offset 8
	retq
.Ltmp78:
.Lfunc_end7:
	.size	crypto_core_ed25519_scalar_invert, .Lfunc_end7-crypto_core_ed25519_scalar_invert
	.cfi_endproc
                                        # -- End function
	.globl	crypto_core_ed25519_scalar_negate # -- Begin function crypto_core_ed25519_scalar_negate
	.p2align	4
	.type	crypto_core_ed25519_scalar_negate,@function
crypto_core_ed25519_scalar_negate:      # @crypto_core_ed25519_scalar_negate
.Lfunc_begin8:
	.loc	1 117 0 is_stmt 1               # crypto_core/ed25519/core_ed25519.c:117:0
	.cfi_startproc
# %bb.0:
	#DEBUG_VALUE: crypto_core_ed25519_scalar_negate:neg <- $rdi
	#DEBUG_VALUE: crypto_core_ed25519_scalar_negate:s <- $rsi
	pushq	%r14
	.cfi_def_cfa_offset 16
	pushq	%rbx
	.cfi_def_cfa_offset 24
	subq	$136, %rsp
	.cfi_def_cfa_offset 160
	.cfi_offset %rbx, -24
	.cfi_offset %r14, -16
	movq	%rdi, %rbx
	movq	%fs:40, %rax
	movq	%rax, 128(%rsp)
.Ltmp79:
	#DEBUG_VALUE: memset:__dest <- [DW_OP_plus_uconst 64, DW_OP_stack_value] $rsp
	#DEBUG_VALUE: memset:__ch <- 0
	#DEBUG_VALUE: memset:__len <- 64
	.file	8 "/usr/include/x86_64-linux-gnu/bits" "string_fortified.h"
	.loc	8 59 10 prologue_end            # /usr/include/x86_64-linux-gnu/bits/string_fortified.h:59:10 @[ crypto_core/ed25519/core_ed25519.c:123:5 ]
	xorps	%xmm0, %xmm0
	movaps	%xmm0, 64(%rsp)
	movaps	%xmm0, 80(%rsp)
.Ltmp80:
	#DEBUG_VALUE: memset:__dest <- $rsp
	#DEBUG_VALUE: memset:__ch <- 0
	#DEBUG_VALUE: memset:__len <- 64
	#DEBUG_VALUE: memcpy:__len <- 32
	#DEBUG_VALUE: memcpy:__dest <- [DW_OP_plus_uconst 64, DW_OP_plus_uconst 32, DW_OP_stack_value] $rsp
	.loc	8 29 10                         # /usr/include/x86_64-linux-gnu/bits/string_fortified.h:29:10 @[ crypto_core/ed25519/core_ed25519.c:125:5 ]
	movaps	L(%rip), %xmm1
	movaps	%xmm1, 96(%rsp)
	movaps	L+16(%rip), %xmm1
	movaps	%xmm1, 112(%rsp)
.Ltmp81:
	#DEBUG_VALUE: memcpy:__dest <- $rsp
	#DEBUG_VALUE: memcpy:__src <- $rsi
	#DEBUG_VALUE: memcpy:__len <- 32
	#DEBUG_VALUE: memcpy:__src <- undef
	.loc	8 59 10                         # /usr/include/x86_64-linux-gnu/bits/string_fortified.h:59:10 @[ crypto_core/ed25519/core_ed25519.c:124:5 ]
	movaps	%xmm0, 32(%rsp)
	movaps	%xmm0, 48(%rsp)
.Ltmp82:
	.loc	8 29 10                         # /usr/include/x86_64-linux-gnu/bits/string_fortified.h:29:10 @[ crypto_core/ed25519/core_ed25519.c:127:5 ]
	movups	(%rsi), %xmm0
	movups	16(%rsi), %xmm1
	movaps	%xmm0, (%rsp)
	movaps	%xmm1, 16(%rsp)
	leaq	64(%rsp), %r14
	movq	%rsp, %rsi
.Ltmp83:
	#DEBUG_VALUE: crypto_core_ed25519_scalar_negate:s <- [DW_OP_LLVM_entry_value 1] $rsi
	.loc	1 128 5                         # crypto_core/ed25519/core_ed25519.c:128:5
	movl	$64, %edx
	movq	%r14, %rdi
.Ltmp84:
	#DEBUG_VALUE: crypto_core_ed25519_scalar_negate:neg <- $rbx
	callq	sodium_sub@PLT
.Ltmp85:
	.loc	1 129 5                         # crypto_core/ed25519/core_ed25519.c:129:5
	movq	%r14, %rdi
	callq	sc25519_reduce@PLT
.Ltmp86:
	#DEBUG_VALUE: memcpy:__dest <- $rbx
	#DEBUG_VALUE: memcpy:__src <- [DW_OP_plus_uconst 64, DW_OP_stack_value] $rsp
	#DEBUG_VALUE: memcpy:__len <- 32
	.loc	8 29 10                         # /usr/include/x86_64-linux-gnu/bits/string_fortified.h:29:10 @[ crypto_core/ed25519/core_ed25519.c:130:5 ]
	movaps	64(%rsp), %xmm0
	movaps	80(%rsp), %xmm1
	movups	%xmm1, 16(%rbx)
	movups	%xmm0, (%rbx)
.Ltmp87:
	.loc	1 131 1                         # crypto_core/ed25519/core_ed25519.c:131:1
	movq	%fs:40, %rax
	cmpq	128(%rsp), %rax
	jne	.LBB8_2
.Ltmp88:
# %bb.1:                                # %SP_return
	#DEBUG_VALUE: crypto_core_ed25519_scalar_negate:neg <- $rbx
	#DEBUG_VALUE: crypto_core_ed25519_scalar_negate:s <- [DW_OP_LLVM_entry_value 1] $rsi
	.loc	1 131 1 epilogue_begin is_stmt 0 # crypto_core/ed25519/core_ed25519.c:131:1
	addq	$136, %rsp
	.cfi_def_cfa_offset 24
	popq	%rbx
.Ltmp89:
	#DEBUG_VALUE: crypto_core_ed25519_scalar_negate:neg <- [DW_OP_LLVM_entry_value 1] $rdi
	.cfi_def_cfa_offset 16
	popq	%r14
	.cfi_def_cfa_offset 8
	retq
.Ltmp90:
.LBB8_2:                                # %CallStackCheckFailBlk
	.cfi_def_cfa_offset 160
	#DEBUG_VALUE: crypto_core_ed25519_scalar_negate:neg <- $rbx
	#DEBUG_VALUE: crypto_core_ed25519_scalar_negate:s <- [DW_OP_LLVM_entry_value 1] $rsi
	#DEBUG_VALUE: memset:__dest <- [DW_OP_plus_uconst 64, DW_OP_stack_value] $rsp
	#DEBUG_VALUE: memset:__ch <- 0
	#DEBUG_VALUE: memset:__len <- 64
	#DEBUG_VALUE: memset:__dest <- $rsp
	#DEBUG_VALUE: memset:__ch <- 0
	#DEBUG_VALUE: memset:__len <- 64
	#DEBUG_VALUE: memcpy:__len <- 32
	#DEBUG_VALUE: memcpy:__dest <- [DW_OP_plus_uconst 64, DW_OP_plus_uconst 32, DW_OP_stack_value] $rsp
	#DEBUG_VALUE: memcpy:__dest <- $rsp
	#DEBUG_VALUE: memcpy:__len <- 32
	#DEBUG_VALUE: memcpy:__dest <- $rbx
	#DEBUG_VALUE: memcpy:__src <- [DW_OP_plus_uconst 64, DW_OP_stack_value] $rsp
	#DEBUG_VALUE: memcpy:__len <- 32
	.loc	1 0 0                           # crypto_core/ed25519/core_ed25519.c:0
	callq	__stack_chk_fail@PLT
.Ltmp91:
.Lfunc_end8:
	.size	crypto_core_ed25519_scalar_negate, .Lfunc_end8-crypto_core_ed25519_scalar_negate
	.cfi_endproc
                                        # -- End function
	.globl	crypto_core_ed25519_scalar_complement # -- Begin function crypto_core_ed25519_scalar_complement
	.p2align	4
	.type	crypto_core_ed25519_scalar_complement,@function
crypto_core_ed25519_scalar_complement:  # @crypto_core_ed25519_scalar_complement
.Lfunc_begin9:
	.loc	1 136 0 is_stmt 1               # crypto_core/ed25519/core_ed25519.c:136:0
	.cfi_startproc
# %bb.0:
	#DEBUG_VALUE: crypto_core_ed25519_scalar_complement:comp <- $rdi
	#DEBUG_VALUE: crypto_core_ed25519_scalar_complement:s <- $rsi
	pushq	%r14
	.cfi_def_cfa_offset 16
	pushq	%rbx
	.cfi_def_cfa_offset 24
	subq	$136, %rsp
	.cfi_def_cfa_offset 160
	.cfi_offset %rbx, -24
	.cfi_offset %r14, -16
	movq	%rdi, %rbx
	movq	%fs:40, %rax
	movq	%rax, 128(%rsp)
.Ltmp92:
	#DEBUG_VALUE: memset:__dest <- [DW_OP_plus_uconst 64, DW_OP_stack_value] $rsp
	#DEBUG_VALUE: memset:__ch <- 0
	#DEBUG_VALUE: memset:__len <- 64
	.loc	8 59 10 prologue_end            # /usr/include/x86_64-linux-gnu/bits/string_fortified.h:59:10 @[ crypto_core/ed25519/core_ed25519.c:142:5 ]
	xorps	%xmm0, %xmm0
	movaps	%xmm0, 64(%rsp)
	movaps	%xmm0, 80(%rsp)
.Ltmp93:
	#DEBUG_VALUE: memset:__dest <- $rsp
	#DEBUG_VALUE: memset:__ch <- 0
	#DEBUG_VALUE: memset:__len <- 64
	.loc	1 144 10                        # crypto_core/ed25519/core_ed25519.c:144:10
	movb	$1, 64(%rsp)
.Ltmp94:
	#DEBUG_VALUE: memcpy:__len <- 32
	#DEBUG_VALUE: memcpy:__dest <- [DW_OP_plus_uconst 64, DW_OP_plus_uconst 32, DW_OP_stack_value] $rsp
	.loc	8 29 10                         # /usr/include/x86_64-linux-gnu/bits/string_fortified.h:29:10 @[ crypto_core/ed25519/core_ed25519.c:145:5 ]
	movaps	L(%rip), %xmm1
	movaps	%xmm1, 96(%rsp)
	movaps	L+16(%rip), %xmm1
	movaps	%xmm1, 112(%rsp)
.Ltmp95:
	#DEBUG_VALUE: memcpy:__dest <- $rsp
	#DEBUG_VALUE: memcpy:__src <- $rsi
	#DEBUG_VALUE: memcpy:__len <- 32
	#DEBUG_VALUE: memcpy:__src <- undef
	.loc	8 59 10                         # /usr/include/x86_64-linux-gnu/bits/string_fortified.h:59:10 @[ crypto_core/ed25519/core_ed25519.c:143:5 ]
	movaps	%xmm0, 32(%rsp)
	movaps	%xmm0, 48(%rsp)
.Ltmp96:
	.loc	8 29 10                         # /usr/include/x86_64-linux-gnu/bits/string_fortified.h:29:10 @[ crypto_core/ed25519/core_ed25519.c:147:5 ]
	movups	(%rsi), %xmm0
	movups	16(%rsi), %xmm1
	movaps	%xmm0, (%rsp)
	movaps	%xmm1, 16(%rsp)
	leaq	64(%rsp), %r14
	movq	%rsp, %rsi
.Ltmp97:
	#DEBUG_VALUE: crypto_core_ed25519_scalar_complement:s <- [DW_OP_LLVM_entry_value 1] $rsi
	.loc	1 148 5                         # crypto_core/ed25519/core_ed25519.c:148:5
	movl	$64, %edx
	movq	%r14, %rdi
.Ltmp98:
	#DEBUG_VALUE: crypto_core_ed25519_scalar_complement:comp <- $rbx
	callq	sodium_sub@PLT
.Ltmp99:
	.loc	1 149 5                         # crypto_core/ed25519/core_ed25519.c:149:5
	movq	%r14, %rdi
	callq	sc25519_reduce@PLT
.Ltmp100:
	#DEBUG_VALUE: memcpy:__dest <- $rbx
	#DEBUG_VALUE: memcpy:__src <- [DW_OP_plus_uconst 64, DW_OP_stack_value] $rsp
	#DEBUG_VALUE: memcpy:__len <- 32
	.loc	8 29 10                         # /usr/include/x86_64-linux-gnu/bits/string_fortified.h:29:10 @[ crypto_core/ed25519/core_ed25519.c:150:5 ]
	movaps	64(%rsp), %xmm0
	movaps	80(%rsp), %xmm1
	movups	%xmm1, 16(%rbx)
	movups	%xmm0, (%rbx)
.Ltmp101:
	.loc	1 151 1                         # crypto_core/ed25519/core_ed25519.c:151:1
	movq	%fs:40, %rax
	cmpq	128(%rsp), %rax
	jne	.LBB9_2
.Ltmp102:
# %bb.1:                                # %SP_return
	#DEBUG_VALUE: crypto_core_ed25519_scalar_complement:comp <- $rbx
	#DEBUG_VALUE: crypto_core_ed25519_scalar_complement:s <- [DW_OP_LLVM_entry_value 1] $rsi
	.loc	1 151 1 epilogue_begin is_stmt 0 # crypto_core/ed25519/core_ed25519.c:151:1
	addq	$136, %rsp
	.cfi_def_cfa_offset 24
	popq	%rbx
.Ltmp103:
	#DEBUG_VALUE: crypto_core_ed25519_scalar_complement:comp <- [DW_OP_LLVM_entry_value 1] $rdi
	.cfi_def_cfa_offset 16
	popq	%r14
	.cfi_def_cfa_offset 8
	retq
.Ltmp104:
.LBB9_2:                                # %CallStackCheckFailBlk
	.cfi_def_cfa_offset 160
	#DEBUG_VALUE: crypto_core_ed25519_scalar_complement:comp <- $rbx
	#DEBUG_VALUE: crypto_core_ed25519_scalar_complement:s <- [DW_OP_LLVM_entry_value 1] $rsi
	#DEBUG_VALUE: memset:__dest <- [DW_OP_plus_uconst 64, DW_OP_stack_value] $rsp
	#DEBUG_VALUE: memset:__ch <- 0
	#DEBUG_VALUE: memset:__len <- 64
	#DEBUG_VALUE: memset:__dest <- $rsp
	#DEBUG_VALUE: memset:__ch <- 0
	#DEBUG_VALUE: memset:__len <- 64
	#DEBUG_VALUE: memcpy:__len <- 32
	#DEBUG_VALUE: memcpy:__dest <- [DW_OP_plus_uconst 64, DW_OP_plus_uconst 32, DW_OP_stack_value] $rsp
	#DEBUG_VALUE: memcpy:__dest <- $rsp
	#DEBUG_VALUE: memcpy:__len <- 32
	#DEBUG_VALUE: memcpy:__dest <- $rbx
	#DEBUG_VALUE: memcpy:__src <- [DW_OP_plus_uconst 64, DW_OP_stack_value] $rsp
	#DEBUG_VALUE: memcpy:__len <- 32
	.loc	1 0 0                           # crypto_core/ed25519/core_ed25519.c:0
	callq	__stack_chk_fail@PLT
.Ltmp105:
.Lfunc_end9:
	.size	crypto_core_ed25519_scalar_complement, .Lfunc_end9-crypto_core_ed25519_scalar_complement
	.cfi_endproc
                                        # -- End function
	.globl	crypto_core_ed25519_scalar_add  # -- Begin function crypto_core_ed25519_scalar_add
	.p2align	4
	.type	crypto_core_ed25519_scalar_add,@function
crypto_core_ed25519_scalar_add:         # @crypto_core_ed25519_scalar_add
.Lfunc_begin10:
	.loc	1 156 0 is_stmt 1               # crypto_core/ed25519/core_ed25519.c:156:0
	.cfi_startproc
# %bb.0:
	#DEBUG_VALUE: crypto_core_ed25519_scalar_add:z <- $rdi
	#DEBUG_VALUE: crypto_core_ed25519_scalar_add:x <- $rsi
	#DEBUG_VALUE: crypto_core_ed25519_scalar_add:y <- $rdx
	pushq	%r14
	.cfi_def_cfa_offset 16
	pushq	%rbx
	.cfi_def_cfa_offset 24
	subq	$200, %rsp
	.cfi_def_cfa_offset 224
	.cfi_offset %rbx, -24
	.cfi_offset %r14, -16
	movq	%rdi, %rbx
	movq	%fs:40, %rax
	movq	%rax, 192(%rsp)
.Ltmp106:
	#DEBUG_VALUE: memset:__dest <- [DW_OP_plus_uconst 64, DW_OP_stack_value] $rsp
	#DEBUG_VALUE: memset:__ch <- 0
	#DEBUG_VALUE: memset:__len <- 64
	#DEBUG_VALUE: memset:__dest <- $rsp
	#DEBUG_VALUE: memset:__ch <- 0
	#DEBUG_VALUE: memset:__len <- 64
	#DEBUG_VALUE: memcpy:__dest <- [DW_OP_plus_uconst 64, DW_OP_stack_value] $rsp
	#DEBUG_VALUE: memcpy:__src <- $rsi
	#DEBUG_VALUE: memcpy:__len <- 32
	.loc	8 59 10 prologue_end            # /usr/include/x86_64-linux-gnu/bits/string_fortified.h:59:10 @[ crypto_core/ed25519/core_ed25519.c:160:5 ]
	xorps	%xmm0, %xmm0
	movaps	%xmm0, 96(%rsp)
	movaps	%xmm0, 112(%rsp)
.Ltmp107:
	.loc	8 29 10                         # /usr/include/x86_64-linux-gnu/bits/string_fortified.h:29:10 @[ crypto_core/ed25519/core_ed25519.c:162:5 ]
	movups	(%rsi), %xmm1
	movups	16(%rsi), %xmm2
	movaps	%xmm1, 64(%rsp)
	movaps	%xmm2, 80(%rsp)
.Ltmp108:
	#DEBUG_VALUE: memcpy:__dest <- $rsp
	#DEBUG_VALUE: memcpy:__src <- $rdx
	#DEBUG_VALUE: memcpy:__len <- 32
	.loc	8 59 10                         # /usr/include/x86_64-linux-gnu/bits/string_fortified.h:59:10 @[ crypto_core/ed25519/core_ed25519.c:161:5 ]
	movaps	%xmm0, 32(%rsp)
	movaps	%xmm0, 48(%rsp)
.Ltmp109:
	.loc	8 29 10                         # /usr/include/x86_64-linux-gnu/bits/string_fortified.h:29:10 @[ crypto_core/ed25519/core_ed25519.c:163:5 ]
	movups	(%rdx), %xmm0
	movups	16(%rdx), %xmm1
	movaps	%xmm0, (%rsp)
	movaps	%xmm1, 16(%rsp)
	leaq	64(%rsp), %rdi
.Ltmp110:
	#DEBUG_VALUE: crypto_core_ed25519_scalar_add:z <- $rbx
	.loc	8 0 10 is_stmt 0                # /usr/include/x86_64-linux-gnu/bits/string_fortified.h:0:10
	movq	%rsp, %rsi
.Ltmp111:
	#DEBUG_VALUE: crypto_core_ed25519_scalar_add:x <- [DW_OP_LLVM_entry_value 1] $rsi
	.loc	1 164 5 is_stmt 1               # crypto_core/ed25519/core_ed25519.c:164:5
	movl	$32, %edx
.Ltmp112:
	#DEBUG_VALUE: crypto_core_ed25519_scalar_add:y <- [DW_OP_LLVM_entry_value 1] $rdx
	callq	sodium_add@PLT
.Ltmp113:
	#DEBUG_VALUE: crypto_core_ed25519_scalar_reduce:t <- [DW_OP_plus_uconst 128, DW_OP_deref] $rsp
	#DEBUG_VALUE: crypto_core_ed25519_scalar_reduce:r <- $rbx
	#DEBUG_VALUE: crypto_core_ed25519_scalar_reduce:s <- [DW_OP_plus_uconst 64, DW_OP_stack_value] $rsp
	#DEBUG_VALUE: memcpy:__dest <- [DW_OP_plus_uconst 128, DW_OP_stack_value] $rsp
	#DEBUG_VALUE: memcpy:__src <- [DW_OP_plus_uconst 64, DW_OP_stack_value] $rsp
	#DEBUG_VALUE: memcpy:__len <- 64
	.loc	8 29 10                         # /usr/include/x86_64-linux-gnu/bits/string_fortified.h:29:10 @[ crypto_core/ed25519/core_ed25519.c:191:5 @[ crypto_core/ed25519/core_ed25519.c:165:5 ] ]
	movaps	64(%rsp), %xmm0
	movaps	80(%rsp), %xmm1
	movaps	96(%rsp), %xmm2
	movaps	112(%rsp), %xmm3
	movaps	%xmm3, 176(%rsp)
	movaps	%xmm2, 160(%rsp)
	movaps	%xmm1, 144(%rsp)
	movaps	%xmm0, 128(%rsp)
	leaq	128(%rsp), %r14
.Ltmp114:
	.loc	1 192 5                         # crypto_core/ed25519/core_ed25519.c:192:5 @[ crypto_core/ed25519/core_ed25519.c:165:5 ]
	movq	%r14, %rdi
	callq	sc25519_reduce@PLT
.Ltmp115:
	#DEBUG_VALUE: memcpy:__dest <- $rbx
	#DEBUG_VALUE: memcpy:__src <- [DW_OP_plus_uconst 128, DW_OP_stack_value] $rsp
	#DEBUG_VALUE: memcpy:__len <- 32
	.loc	8 29 10                         # /usr/include/x86_64-linux-gnu/bits/string_fortified.h:29:10 @[ crypto_core/ed25519/core_ed25519.c:193:5 @[ crypto_core/ed25519/core_ed25519.c:165:5 ] ]
	movaps	128(%rsp), %xmm0
	movaps	144(%rsp), %xmm1
	movups	%xmm1, 16(%rbx)
	movups	%xmm0, (%rbx)
.Ltmp116:
	.loc	1 194 5                         # crypto_core/ed25519/core_ed25519.c:194:5 @[ crypto_core/ed25519/core_ed25519.c:165:5 ]
	movl	$64, %esi
	movq	%r14, %rdi
	callq	sodium_memzero@PLT
.Ltmp117:
	.loc	1 166 1                         # crypto_core/ed25519/core_ed25519.c:166:1
	movq	%fs:40, %rax
	cmpq	192(%rsp), %rax
	jne	.LBB10_2
.Ltmp118:
# %bb.1:                                # %SP_return
	#DEBUG_VALUE: crypto_core_ed25519_scalar_add:z <- $rbx
	#DEBUG_VALUE: crypto_core_ed25519_scalar_add:x <- [DW_OP_LLVM_entry_value 1] $rsi
	#DEBUG_VALUE: crypto_core_ed25519_scalar_add:y <- [DW_OP_LLVM_entry_value 1] $rdx
	.loc	1 166 1 epilogue_begin is_stmt 0 # crypto_core/ed25519/core_ed25519.c:166:1
	addq	$200, %rsp
	.cfi_def_cfa_offset 24
	popq	%rbx
.Ltmp119:
	#DEBUG_VALUE: crypto_core_ed25519_scalar_add:z <- [DW_OP_LLVM_entry_value 1] $rdi
	.cfi_def_cfa_offset 16
	popq	%r14
	.cfi_def_cfa_offset 8
	retq
.Ltmp120:
.LBB10_2:                               # %CallStackCheckFailBlk
	.cfi_def_cfa_offset 224
	#DEBUG_VALUE: crypto_core_ed25519_scalar_add:z <- $rbx
	#DEBUG_VALUE: crypto_core_ed25519_scalar_add:x <- [DW_OP_LLVM_entry_value 1] $rsi
	#DEBUG_VALUE: crypto_core_ed25519_scalar_add:y <- [DW_OP_LLVM_entry_value 1] $rdx
	#DEBUG_VALUE: memset:__dest <- [DW_OP_plus_uconst 64, DW_OP_stack_value] $rsp
	#DEBUG_VALUE: memset:__ch <- 0
	#DEBUG_VALUE: memset:__len <- 64
	#DEBUG_VALUE: memset:__dest <- $rsp
	#DEBUG_VALUE: memset:__ch <- 0
	#DEBUG_VALUE: memset:__len <- 64
	#DEBUG_VALUE: memcpy:__dest <- [DW_OP_plus_uconst 64, DW_OP_stack_value] $rsp
	#DEBUG_VALUE: memcpy:__len <- 32
	#DEBUG_VALUE: memcpy:__dest <- $rsp
	#DEBUG_VALUE: memcpy:__len <- 32
	#DEBUG_VALUE: crypto_core_ed25519_scalar_reduce:t <- [DW_OP_plus_uconst 128, DW_OP_deref] $rsp
	#DEBUG_VALUE: crypto_core_ed25519_scalar_reduce:r <- $rbx
	#DEBUG_VALUE: crypto_core_ed25519_scalar_reduce:s <- [DW_OP_plus_uconst 64, DW_OP_stack_value] $rsp
	#DEBUG_VALUE: memcpy:__dest <- [DW_OP_plus_uconst 128, DW_OP_stack_value] $rsp
	#DEBUG_VALUE: memcpy:__src <- [DW_OP_plus_uconst 64, DW_OP_stack_value] $rsp
	#DEBUG_VALUE: memcpy:__len <- 64
	#DEBUG_VALUE: memcpy:__dest <- $rbx
	#DEBUG_VALUE: memcpy:__src <- [DW_OP_plus_uconst 128, DW_OP_stack_value] $rsp
	#DEBUG_VALUE: memcpy:__len <- 32
	.loc	1 0 0                           # crypto_core/ed25519/core_ed25519.c:0
	callq	__stack_chk_fail@PLT
.Ltmp121:
.Lfunc_end10:
	.size	crypto_core_ed25519_scalar_add, .Lfunc_end10-crypto_core_ed25519_scalar_add
	.cfi_endproc
                                        # -- End function
	.globl	crypto_core_ed25519_scalar_reduce # -- Begin function crypto_core_ed25519_scalar_reduce
	.p2align	4
	.type	crypto_core_ed25519_scalar_reduce,@function
crypto_core_ed25519_scalar_reduce:      # @crypto_core_ed25519_scalar_reduce
.Lfunc_begin11:
	.loc	1 188 0 is_stmt 1               # crypto_core/ed25519/core_ed25519.c:188:0
	.cfi_startproc
# %bb.0:
	#DEBUG_VALUE: crypto_core_ed25519_scalar_reduce:r <- $rdi
	#DEBUG_VALUE: crypto_core_ed25519_scalar_reduce:s <- $rsi
	pushq	%r14
	.cfi_def_cfa_offset 16
	pushq	%rbx
	.cfi_def_cfa_offset 24
	subq	$72, %rsp
	.cfi_def_cfa_offset 96
	.cfi_offset %rbx, -24
	.cfi_offset %r14, -16
	movq	%rdi, %rbx
	movq	%fs:40, %rax
	movq	%rax, 64(%rsp)
.Ltmp122:
	#DEBUG_VALUE: memcpy:__dest <- $rsp
	#DEBUG_VALUE: memcpy:__src <- $rsi
	#DEBUG_VALUE: memcpy:__len <- 64
	.loc	8 29 10 prologue_end            # /usr/include/x86_64-linux-gnu/bits/string_fortified.h:29:10 @[ crypto_core/ed25519/core_ed25519.c:191:5 ]
	movups	(%rsi), %xmm0
	movups	16(%rsi), %xmm1
	movups	32(%rsi), %xmm2
	movups	48(%rsi), %xmm3
	movaps	%xmm3, 48(%rsp)
	movaps	%xmm2, 32(%rsp)
	movaps	%xmm1, 16(%rsp)
	movaps	%xmm0, (%rsp)
	movq	%rsp, %r14
.Ltmp123:
	.loc	1 192 5                         # crypto_core/ed25519/core_ed25519.c:192:5
	movq	%r14, %rdi
.Ltmp124:
	#DEBUG_VALUE: crypto_core_ed25519_scalar_reduce:r <- $rbx
	callq	sc25519_reduce@PLT
.Ltmp125:
	#DEBUG_VALUE: crypto_core_ed25519_scalar_reduce:s <- [DW_OP_LLVM_entry_value 1] $rsi
	#DEBUG_VALUE: memcpy:__dest <- $rbx
	#DEBUG_VALUE: memcpy:__src <- $rsp
	#DEBUG_VALUE: memcpy:__len <- 32
	.loc	8 29 10                         # /usr/include/x86_64-linux-gnu/bits/string_fortified.h:29:10 @[ crypto_core/ed25519/core_ed25519.c:193:5 ]
	movaps	(%rsp), %xmm0
	movaps	16(%rsp), %xmm1
	movups	%xmm1, 16(%rbx)
	movups	%xmm0, (%rbx)
.Ltmp126:
	.loc	1 194 5                         # crypto_core/ed25519/core_ed25519.c:194:5
	movl	$64, %esi
	movq	%r14, %rdi
	callq	sodium_memzero@PLT
.Ltmp127:
	.loc	1 195 1                         # crypto_core/ed25519/core_ed25519.c:195:1
	movq	%fs:40, %rax
	cmpq	64(%rsp), %rax
	jne	.LBB11_2
.Ltmp128:
# %bb.1:                                # %SP_return
	#DEBUG_VALUE: crypto_core_ed25519_scalar_reduce:r <- $rbx
	#DEBUG_VALUE: crypto_core_ed25519_scalar_reduce:s <- [DW_OP_LLVM_entry_value 1] $rsi
	.loc	1 195 1 epilogue_begin is_stmt 0 # crypto_core/ed25519/core_ed25519.c:195:1
	addq	$72, %rsp
	.cfi_def_cfa_offset 24
	popq	%rbx
.Ltmp129:
	#DEBUG_VALUE: crypto_core_ed25519_scalar_reduce:r <- [DW_OP_LLVM_entry_value 1] $rdi
	.cfi_def_cfa_offset 16
	popq	%r14
	.cfi_def_cfa_offset 8
	retq
.Ltmp130:
.LBB11_2:                               # %CallStackCheckFailBlk
	.cfi_def_cfa_offset 96
	#DEBUG_VALUE: crypto_core_ed25519_scalar_reduce:r <- $rbx
	#DEBUG_VALUE: crypto_core_ed25519_scalar_reduce:s <- [DW_OP_LLVM_entry_value 1] $rsi
	#DEBUG_VALUE: memcpy:__dest <- $r14
	#DEBUG_VALUE: memcpy:__len <- 64
	#DEBUG_VALUE: memcpy:__dest <- $rbx
	#DEBUG_VALUE: memcpy:__src <- $r14
	#DEBUG_VALUE: memcpy:__len <- 32
	.loc	1 0 0                           # crypto_core/ed25519/core_ed25519.c:0
	callq	__stack_chk_fail@PLT
.Ltmp131:
.Lfunc_end11:
	.size	crypto_core_ed25519_scalar_reduce, .Lfunc_end11-crypto_core_ed25519_scalar_reduce
	.cfi_endproc
                                        # -- End function
	.globl	crypto_core_ed25519_scalar_sub  # -- Begin function crypto_core_ed25519_scalar_sub
	.p2align	4
	.type	crypto_core_ed25519_scalar_sub,@function
crypto_core_ed25519_scalar_sub:         # @crypto_core_ed25519_scalar_sub
.Lfunc_begin12:
	.loc	1 171 0 is_stmt 1               # crypto_core/ed25519/core_ed25519.c:171:0
	.cfi_startproc
# %bb.0:
	#DEBUG_VALUE: crypto_core_ed25519_scalar_sub:z <- $rdi
	#DEBUG_VALUE: crypto_core_ed25519_scalar_sub:x <- $rsi
	#DEBUG_VALUE: crypto_core_ed25519_scalar_sub:y <- $rdx
	pushq	%r15
	.cfi_def_cfa_offset 16
	pushq	%r14
	.cfi_def_cfa_offset 24
	pushq	%rbx
	.cfi_def_cfa_offset 32
	subq	$208, %rsp
	.cfi_def_cfa_offset 240
	.cfi_offset %rbx, -32
	.cfi_offset %r14, -24
	.cfi_offset %r15, -16
	movq	%rsi, %r14
	movq	%rdi, %rbx
	movq	%fs:40, %rax
	movq	%rax, 200(%rsp)
.Ltmp132:
	#DEBUG_VALUE: crypto_core_ed25519_scalar_negate:s <- $rdx
	#DEBUG_VALUE: memset:__dest <- [DW_OP_plus_uconst 128, DW_OP_stack_value] $rsp
	#DEBUG_VALUE: memset:__ch <- 0
	#DEBUG_VALUE: memset:__len <- 64
	.loc	8 59 10 prologue_end            # /usr/include/x86_64-linux-gnu/bits/string_fortified.h:59:10 @[ crypto_core/ed25519/core_ed25519.c:123:5 @[ crypto_core/ed25519/core_ed25519.c:174:5 ] ]
	xorps	%xmm1, %xmm1
	movaps	%xmm1, 128(%rsp)
	movaps	%xmm1, 144(%rsp)
.Ltmp133:
	#DEBUG_VALUE: memset:__dest <- [DW_OP_plus_uconst 64, DW_OP_stack_value] $rsp
	#DEBUG_VALUE: memset:__ch <- 0
	#DEBUG_VALUE: memset:__len <- 64
	#DEBUG_VALUE: memcpy:__len <- 32
	#DEBUG_VALUE: memcpy:__dest <- [DW_OP_plus_uconst 128, DW_OP_plus_uconst 32, DW_OP_stack_value] $rsp
	.loc	8 29 10                         # /usr/include/x86_64-linux-gnu/bits/string_fortified.h:29:10 @[ crypto_core/ed25519/core_ed25519.c:125:5 @[ crypto_core/ed25519/core_ed25519.c:174:5 ] ]
	movaps	L(%rip), %xmm0
	movaps	%xmm0, 160(%rsp)
	movaps	L+16(%rip), %xmm0
	movaps	%xmm0, 176(%rsp)
.Ltmp134:
	#DEBUG_VALUE: memcpy:__dest <- [DW_OP_plus_uconst 64, DW_OP_stack_value] $rsp
	#DEBUG_VALUE: memcpy:__src <- $rdx
	#DEBUG_VALUE: memcpy:__len <- 32
	#DEBUG_VALUE: memcpy:__src <- undef
	.loc	8 59 10                         # /usr/include/x86_64-linux-gnu/bits/string_fortified.h:59:10 @[ crypto_core/ed25519/core_ed25519.c:124:5 @[ crypto_core/ed25519/core_ed25519.c:174:5 ] ]
	movaps	%xmm1, 96(%rsp)
	movaps	%xmm1, 112(%rsp)
.Ltmp135:
	.loc	8 29 10                         # /usr/include/x86_64-linux-gnu/bits/string_fortified.h:29:10 @[ crypto_core/ed25519/core_ed25519.c:127:5 @[ crypto_core/ed25519/core_ed25519.c:174:5 ] ]
	movups	(%rdx), %xmm0
	movups	16(%rdx), %xmm1
	movaps	%xmm0, 64(%rsp)
	movaps	%xmm1, 80(%rsp)
	leaq	128(%rsp), %r15
	leaq	64(%rsp), %rsi
.Ltmp136:
	#DEBUG_VALUE: crypto_core_ed25519_scalar_sub:x <- $r14
	.loc	1 128 5                         # crypto_core/ed25519/core_ed25519.c:128:5 @[ crypto_core/ed25519/core_ed25519.c:174:5 ]
	movl	$64, %edx
.Ltmp137:
	#DEBUG_VALUE: crypto_core_ed25519_scalar_sub:y <- [DW_OP_LLVM_entry_value 1] $rdx
	movq	%r15, %rdi
.Ltmp138:
	#DEBUG_VALUE: crypto_core_ed25519_scalar_sub:z <- $rbx
	callq	sodium_sub@PLT
.Ltmp139:
	.loc	1 129 5                         # crypto_core/ed25519/core_ed25519.c:129:5 @[ crypto_core/ed25519/core_ed25519.c:174:5 ]
	movq	%r15, %rdi
	callq	sc25519_reduce@PLT
.Ltmp140:
	#DEBUG_VALUE: memcpy:__src <- [DW_OP_plus_uconst 128, DW_OP_stack_value] $rsp
	#DEBUG_VALUE: memcpy:__len <- 32
	.loc	8 29 10                         # /usr/include/x86_64-linux-gnu/bits/string_fortified.h:29:10 @[ crypto_core/ed25519/core_ed25519.c:130:5 @[ crypto_core/ed25519/core_ed25519.c:174:5 ] ]
	movaps	128(%rsp), %xmm0
	movaps	144(%rsp), %xmm1
	movaps	%xmm1, 16(%rsp)
	movaps	%xmm0, (%rsp)
.Ltmp141:
	#DEBUG_VALUE: crypto_core_ed25519_scalar_add:y_ <- [DW_OP_deref, DW_OP_LLVM_fragment 0 256] $rsp
	#DEBUG_VALUE: crypto_core_ed25519_scalar_add:y_ <- undef
	#DEBUG_VALUE: crypto_core_ed25519_scalar_add:z <- $rbx
	#DEBUG_VALUE: crypto_core_ed25519_scalar_add:x <- $r14
	#DEBUG_VALUE: memset:__dest <- [DW_OP_plus_uconst 64, DW_OP_stack_value] $rsp
	#DEBUG_VALUE: memset:__ch <- 0
	#DEBUG_VALUE: memset:__len <- 64
	#DEBUG_VALUE: memset:__dest <- $rsp
	#DEBUG_VALUE: memset:__ch <- 0
	#DEBUG_VALUE: memset:__len <- 64
	#DEBUG_VALUE: memcpy:__dest <- [DW_OP_plus_uconst 64, DW_OP_stack_value] $rsp
	#DEBUG_VALUE: memcpy:__src <- $r14
	#DEBUG_VALUE: memcpy:__len <- 32
	.loc	8 59 10                         # /usr/include/x86_64-linux-gnu/bits/string_fortified.h:59:10 @[ crypto_core/ed25519/core_ed25519.c:123:5 @[ crypto_core/ed25519/core_ed25519.c:174:5 ] ]
	xorps	%xmm2, %xmm2
.Ltmp142:
	.loc	8 59 10 is_stmt 0               # /usr/include/x86_64-linux-gnu/bits/string_fortified.h:59:10 @[ crypto_core/ed25519/core_ed25519.c:160:5 @[ crypto_core/ed25519/core_ed25519.c:175:5 ] ]
	movaps	%xmm2, 112(%rsp)
	movaps	%xmm2, 96(%rsp)
.Ltmp143:
	.loc	8 29 10 is_stmt 1               # /usr/include/x86_64-linux-gnu/bits/string_fortified.h:29:10 @[ crypto_core/ed25519/core_ed25519.c:162:5 @[ crypto_core/ed25519/core_ed25519.c:175:5 ] ]
	movups	(%r14), %xmm0
	movups	16(%r14), %xmm1
	movaps	%xmm0, 64(%rsp)
	movaps	%xmm1, 80(%rsp)
.Ltmp144:
	#DEBUG_VALUE: memcpy:__dest <- $rsp
	#DEBUG_VALUE: memcpy:__len <- 32
	.loc	8 59 10                         # /usr/include/x86_64-linux-gnu/bits/string_fortified.h:59:10 @[ crypto_core/ed25519/core_ed25519.c:161:5 @[ crypto_core/ed25519/core_ed25519.c:175:5 ] ]
	movaps	%xmm2, 32(%rsp)
	movaps	%xmm2, 48(%rsp)
.Ltmp145:
	#DEBUG_VALUE: crypto_core_ed25519_scalar_add:y_ <- [DW_OP_plus_uconst 32, DW_OP_deref, DW_OP_LLVM_fragment 256 256] $rsp
	.loc	8 0 10 is_stmt 0                # /usr/include/x86_64-linux-gnu/bits/string_fortified.h:0:10
	leaq	64(%rsp), %rdi
	movq	%rsp, %rsi
.Ltmp146:
	.loc	1 164 5 is_stmt 1               # crypto_core/ed25519/core_ed25519.c:164:5 @[ crypto_core/ed25519/core_ed25519.c:175:5 ]
	movl	$32, %edx
	callq	sodium_add@PLT
.Ltmp147:
	#DEBUG_VALUE: crypto_core_ed25519_scalar_reduce:t <- [DW_OP_plus_uconst 128, DW_OP_deref] $rsp
	#DEBUG_VALUE: crypto_core_ed25519_scalar_reduce:r <- $rbx
	#DEBUG_VALUE: crypto_core_ed25519_scalar_reduce:s <- [DW_OP_plus_uconst 64, DW_OP_stack_value] $rsp
	#DEBUG_VALUE: memcpy:__dest <- [DW_OP_plus_uconst 128, DW_OP_stack_value] $rsp
	#DEBUG_VALUE: memcpy:__src <- [DW_OP_plus_uconst 64, DW_OP_stack_value] $rsp
	#DEBUG_VALUE: memcpy:__len <- 64
	.loc	8 29 10                         # /usr/include/x86_64-linux-gnu/bits/string_fortified.h:29:10 @[ crypto_core/ed25519/core_ed25519.c:191:5 @[ crypto_core/ed25519/core_ed25519.c:165:5 @[ crypto_core/ed25519/core_ed25519.c:175:5 ] ] ]
	movaps	64(%rsp), %xmm0
	movaps	80(%rsp), %xmm1
	movaps	96(%rsp), %xmm2
	movaps	112(%rsp), %xmm3
	movaps	%xmm3, 176(%rsp)
	movaps	%xmm2, 160(%rsp)
	movaps	%xmm1, 144(%rsp)
	movaps	%xmm0, 128(%rsp)
	leaq	128(%rsp), %r14
.Ltmp148:
	#DEBUG_VALUE: crypto_core_ed25519_scalar_sub:x <- [DW_OP_LLVM_entry_value 1] $rsi
	.loc	1 192 5                         # crypto_core/ed25519/core_ed25519.c:192:5 @[ crypto_core/ed25519/core_ed25519.c:165:5 @[ crypto_core/ed25519/core_ed25519.c:175:5 ] ]
	movq	%r14, %rdi
	callq	sc25519_reduce@PLT
.Ltmp149:
	#DEBUG_VALUE: memcpy:__dest <- $rbx
	#DEBUG_VALUE: memcpy:__src <- [DW_OP_plus_uconst 128, DW_OP_stack_value] $rsp
	#DEBUG_VALUE: memcpy:__len <- 32
	.loc	8 29 10                         # /usr/include/x86_64-linux-gnu/bits/string_fortified.h:29:10 @[ crypto_core/ed25519/core_ed25519.c:193:5 @[ crypto_core/ed25519/core_ed25519.c:165:5 @[ crypto_core/ed25519/core_ed25519.c:175:5 ] ] ]
	movaps	128(%rsp), %xmm0
	movaps	144(%rsp), %xmm1
	movups	%xmm1, 16(%rbx)
	movups	%xmm0, (%rbx)
.Ltmp150:
	.loc	1 194 5                         # crypto_core/ed25519/core_ed25519.c:194:5 @[ crypto_core/ed25519/core_ed25519.c:165:5 @[ crypto_core/ed25519/core_ed25519.c:175:5 ] ]
	movl	$64, %esi
	movq	%r14, %rdi
	callq	sodium_memzero@PLT
.Ltmp151:
	.loc	1 176 1                         # crypto_core/ed25519/core_ed25519.c:176:1
	movq	%fs:40, %rax
	cmpq	200(%rsp), %rax
	jne	.LBB12_2
.Ltmp152:
# %bb.1:                                # %SP_return
	#DEBUG_VALUE: crypto_core_ed25519_scalar_sub:z <- $rbx
	#DEBUG_VALUE: crypto_core_ed25519_scalar_sub:x <- [DW_OP_LLVM_entry_value 1] $rsi
	#DEBUG_VALUE: crypto_core_ed25519_scalar_sub:y <- [DW_OP_LLVM_entry_value 1] $rdx
	.loc	1 176 1 epilogue_begin is_stmt 0 # crypto_core/ed25519/core_ed25519.c:176:1
	addq	$208, %rsp
	.cfi_def_cfa_offset 32
	popq	%rbx
.Ltmp153:
	#DEBUG_VALUE: crypto_core_ed25519_scalar_sub:z <- [DW_OP_LLVM_entry_value 1] $rdi
	.cfi_def_cfa_offset 24
	popq	%r14
	.cfi_def_cfa_offset 16
	popq	%r15
	.cfi_def_cfa_offset 8
	retq
.Ltmp154:
.LBB12_2:                               # %CallStackCheckFailBlk
	.cfi_def_cfa_offset 240
	#DEBUG_VALUE: crypto_core_ed25519_scalar_sub:z <- $rbx
	#DEBUG_VALUE: crypto_core_ed25519_scalar_sub:x <- [DW_OP_LLVM_entry_value 1] $rsi
	#DEBUG_VALUE: crypto_core_ed25519_scalar_sub:y <- [DW_OP_LLVM_entry_value 1] $rdx
	#DEBUG_VALUE: memset:__dest <- [DW_OP_plus_uconst 128, DW_OP_stack_value] $rsp
	#DEBUG_VALUE: memset:__ch <- 0
	#DEBUG_VALUE: memset:__len <- 64
	#DEBUG_VALUE: memset:__dest <- [DW_OP_plus_uconst 64, DW_OP_stack_value] $rsp
	#DEBUG_VALUE: memset:__ch <- 0
	#DEBUG_VALUE: memset:__len <- 64
	#DEBUG_VALUE: memcpy:__len <- 32
	#DEBUG_VALUE: memcpy:__dest <- [DW_OP_plus_uconst 128, DW_OP_plus_uconst 32, DW_OP_stack_value] $rsp
	#DEBUG_VALUE: memcpy:__dest <- [DW_OP_plus_uconst 64, DW_OP_stack_value] $rsp
	#DEBUG_VALUE: memcpy:__len <- 32
	#DEBUG_VALUE: memcpy:__src <- [DW_OP_plus_uconst 128, DW_OP_stack_value] $rsp
	#DEBUG_VALUE: memcpy:__len <- 32
	#DEBUG_VALUE: crypto_core_ed25519_scalar_add:y_ <- [DW_OP_plus_uconst 32, DW_OP_deref, DW_OP_LLVM_fragment 256 256] $rsp
	#DEBUG_VALUE: crypto_core_ed25519_scalar_add:z <- $rbx
	#DEBUG_VALUE: memset:__dest <- [DW_OP_plus_uconst 64, DW_OP_stack_value] $rsp
	#DEBUG_VALUE: memset:__ch <- 0
	#DEBUG_VALUE: memset:__len <- 64
	#DEBUG_VALUE: memset:__dest <- $rsp
	#DEBUG_VALUE: memset:__ch <- 0
	#DEBUG_VALUE: memset:__len <- 64
	#DEBUG_VALUE: memcpy:__dest <- [DW_OP_plus_uconst 64, DW_OP_stack_value] $rsp
	#DEBUG_VALUE: memcpy:__len <- 32
	#DEBUG_VALUE: crypto_core_ed25519_scalar_reduce:t <- [DW_OP_plus_uconst 128, DW_OP_deref] $rsp
	#DEBUG_VALUE: crypto_core_ed25519_scalar_reduce:r <- $rbx
	#DEBUG_VALUE: crypto_core_ed25519_scalar_reduce:s <- [DW_OP_plus_uconst 64, DW_OP_stack_value] $rsp
	#DEBUG_VALUE: memcpy:__dest <- [DW_OP_plus_uconst 128, DW_OP_stack_value] $rsp
	#DEBUG_VALUE: memcpy:__src <- [DW_OP_plus_uconst 64, DW_OP_stack_value] $rsp
	#DEBUG_VALUE: memcpy:__len <- 64
	#DEBUG_VALUE: memcpy:__dest <- $rbx
	#DEBUG_VALUE: memcpy:__src <- [DW_OP_plus_uconst 128, DW_OP_stack_value] $rsp
	#DEBUG_VALUE: memcpy:__len <- 32
	.loc	1 0 0                           # crypto_core/ed25519/core_ed25519.c:0
	callq	__stack_chk_fail@PLT
.Ltmp155:
.Lfunc_end12:
	.size	crypto_core_ed25519_scalar_sub, .Lfunc_end12-crypto_core_ed25519_scalar_sub
	.cfi_endproc
                                        # -- End function
	.globl	crypto_core_ed25519_scalar_mul  # -- Begin function crypto_core_ed25519_scalar_mul
	.p2align	4
	.type	crypto_core_ed25519_scalar_mul,@function
crypto_core_ed25519_scalar_mul:         # @crypto_core_ed25519_scalar_mul
.Lfunc_begin13:
	.cfi_startproc
# %bb.0:
	#DEBUG_VALUE: crypto_core_ed25519_scalar_mul:z <- $rdi
	#DEBUG_VALUE: crypto_core_ed25519_scalar_mul:x <- $rsi
	#DEBUG_VALUE: crypto_core_ed25519_scalar_mul:y <- $rdx
	.loc	1 182 5 prologue_end is_stmt 1  # crypto_core/ed25519/core_ed25519.c:182:5
	jmp	sc25519_mul@PLT                 # TAILCALL
.Ltmp156:
.Lfunc_end13:
	.size	crypto_core_ed25519_scalar_mul, .Lfunc_end13-crypto_core_ed25519_scalar_mul
	.cfi_endproc
                                        # -- End function
	.globl	crypto_core_ed25519_bytes       # -- Begin function crypto_core_ed25519_bytes
	.p2align	4
	.type	crypto_core_ed25519_bytes,@function
crypto_core_ed25519_bytes:              # @crypto_core_ed25519_bytes
.Lfunc_begin14:
	.cfi_startproc
# %bb.0:
	.loc	1 200 5 prologue_end            # crypto_core/ed25519/core_ed25519.c:200:5
	movl	$32, %eax
	retq
.Ltmp157:
.Lfunc_end14:
	.size	crypto_core_ed25519_bytes, .Lfunc_end14-crypto_core_ed25519_bytes
	.cfi_endproc
                                        # -- End function
	.globl	crypto_core_ed25519_nonreducedscalarbytes # -- Begin function crypto_core_ed25519_nonreducedscalarbytes
	.p2align	4
	.type	crypto_core_ed25519_nonreducedscalarbytes,@function
crypto_core_ed25519_nonreducedscalarbytes: # @crypto_core_ed25519_nonreducedscalarbytes
.Lfunc_begin15:
	.cfi_startproc
# %bb.0:
	.loc	1 206 5 prologue_end            # crypto_core/ed25519/core_ed25519.c:206:5
	movl	$64, %eax
	retq
.Ltmp158:
.Lfunc_end15:
	.size	crypto_core_ed25519_nonreducedscalarbytes, .Lfunc_end15-crypto_core_ed25519_nonreducedscalarbytes
	.cfi_endproc
                                        # -- End function
	.globl	crypto_core_ed25519_uniformbytes # -- Begin function crypto_core_ed25519_uniformbytes
	.p2align	4
	.type	crypto_core_ed25519_uniformbytes,@function
crypto_core_ed25519_uniformbytes:       # @crypto_core_ed25519_uniformbytes
.Lfunc_begin16:
	.cfi_startproc
# %bb.0:
	.loc	1 212 5 prologue_end            # crypto_core/ed25519/core_ed25519.c:212:5
	movl	$32, %eax
	retq
.Ltmp159:
.Lfunc_end16:
	.size	crypto_core_ed25519_uniformbytes, .Lfunc_end16-crypto_core_ed25519_uniformbytes
	.cfi_endproc
                                        # -- End function
	.globl	crypto_core_ed25519_hashbytes   # -- Begin function crypto_core_ed25519_hashbytes
	.p2align	4
	.type	crypto_core_ed25519_hashbytes,@function
crypto_core_ed25519_hashbytes:          # @crypto_core_ed25519_hashbytes
.Lfunc_begin17:
	.cfi_startproc
# %bb.0:
	.loc	1 218 5 prologue_end            # crypto_core/ed25519/core_ed25519.c:218:5
	movl	$64, %eax
	retq
.Ltmp160:
.Lfunc_end17:
	.size	crypto_core_ed25519_hashbytes, .Lfunc_end17-crypto_core_ed25519_hashbytes
	.cfi_endproc
                                        # -- End function
	.globl	crypto_core_ed25519_scalarbytes # -- Begin function crypto_core_ed25519_scalarbytes
	.p2align	4
	.type	crypto_core_ed25519_scalarbytes,@function
crypto_core_ed25519_scalarbytes:        # @crypto_core_ed25519_scalarbytes
.Lfunc_begin18:
	.cfi_startproc
# %bb.0:
	.loc	1 224 5 prologue_end            # crypto_core/ed25519/core_ed25519.c:224:5
	movl	$32, %eax
	retq
.Ltmp161:
.Lfunc_end18:
	.size	crypto_core_ed25519_scalarbytes, .Lfunc_end18-crypto_core_ed25519_scalarbytes
	.cfi_endproc
                                        # -- End function
	.type	L,@object                       # @L
	.section	.rodata.cst32,"aM",@progbits,32
	.p2align	4, 0x0
L:
	.ascii	"\355\323\365\\\032c\022X\326\234\367\242\336\371\336\024\000\000\000\000\000\000\000\000\000\000\000\000\000\000\000\020"
	.size	L, 32

	.section	".note.GNU-stack","",@progbits
	.addrsig
	.addrsig_sym __stack_chk_fail