	.file	"core_ristretto255.c"
	.text
	.globl	crypto_core_ristretto255_is_valid_point # -- Begin function crypto_core_ristretto255_is_valid_point
	.p2align	4
	.type	crypto_core_ristretto255_is_valid_point,@function
crypto_core_ristretto255_is_valid_point: # @crypto_core_ristretto255_is_valid_point
.Lfunc_begin0:
	.file	0 "/home/leizhenyuu/opt/Anonymous_Repo/libsodium_o2_attr_inline/src/libsodium" "core_ristretto255.c" md5 0x3904e7ea0847ad9410ebc562f84bb496
	.file	1 "crypto_core/ed25519" "core_ristretto255.c"
	.loc	1 13 0                          # crypto_core/ed25519/core_ristretto255.c:13:0
	.cfi_startproc
# %bb.0:
	#DEBUG_VALUE: crypto_core_ristretto255_is_valid_point:p <- $rdi
	subq	$168, %rsp
	.cfi_def_cfa_offset 176
	movq	%rdi, %rsi
	leaq	8(%rsp), %rdi
.Ltmp0:
	#DEBUG_VALUE: crypto_core_ristretto255_is_valid_point:p <- $rsi
	.loc	1 16 9 prologue_end             # crypto_core/ed25519/core_ristretto255.c:16:9
	callq	ristretto255_frombytes@PLT
.Ltmp1:
	#DEBUG_VALUE: crypto_core_ristretto255_is_valid_point:p <- [DW_OP_LLVM_entry_value 1] $rdi
	.loc	1 16 42 is_stmt 0               # crypto_core/ed25519/core_ristretto255.c:16:42
	xorl	%ecx, %ecx
	testl	%eax, %eax
	sete	%cl
.Ltmp2:
	.loc	1 20 1 is_stmt 1                # crypto_core/ed25519/core_ristretto255.c:20:1
	movl	%ecx, %eax
	.loc	1 20 1 epilogue_begin is_stmt 0 # crypto_core/ed25519/core_ristretto255.c:20:1
	addq	$168, %rsp
	.cfi_def_cfa_offset 8
	retq
.Ltmp3:
.Lfunc_end0:
	.size	crypto_core_ristretto255_is_valid_point, .Lfunc_end0-crypto_core_ristretto255_is_valid_point
	.cfi_endproc
	.file	2 "./include/sodium/private" "ed25519_ref10.h"
	.file	3 "/usr/include/x86_64-linux-gnu/bits" "types.h"
	.file	4 "/usr/include/x86_64-linux-gnu/bits" "stdint-uintn.h"
                                        # -- End function
	.globl	crypto_core_ristretto255_add    # -- Begin function crypto_core_ristretto255_add
	.p2align	4
	.type	crypto_core_ristretto255_add,@function
crypto_core_ristretto255_add:           # @crypto_core_ristretto255_add
.Lfunc_begin1:
	.loc	1 25 0 is_stmt 1                # crypto_core/ed25519/core_ristretto255.c:25:0
	.cfi_startproc
# %bb.0:
	#DEBUG_VALUE: crypto_core_ristretto255_add:r <- $rdi
	#DEBUG_VALUE: crypto_core_ristretto255_add:p <- $rsi
	#DEBUG_VALUE: crypto_core_ristretto255_add:q <- $rdx
	pushq	%rbp
	.cfi_def_cfa_offset 16
	pushq	%r15
	.cfi_def_cfa_offset 24
	pushq	%r14
	.cfi_def_cfa_offset 32
	pushq	%rbx
	.cfi_def_cfa_offset 40
	subq	$808, %rsp                      # imm = 0x328
	.cfi_def_cfa_offset 848
	.cfi_offset %rbx, -40
	.cfi_offset %r14, -32
	.cfi_offset %r15, -24
	.cfi_offset %rbp, -16
	movq	%rdx, %r14
	movq	%rdi, %rbx
	leaq	168(%rsp), %rdi
.Ltmp4:
	#DEBUG_VALUE: crypto_core_ristretto255_add:r <- $rbx
	.loc	1 30 9 prologue_end             # crypto_core/ed25519/core_ristretto255.c:30:9
	callq	ristretto255_frombytes@PLT
.Ltmp5:
	#DEBUG_VALUE: crypto_core_ristretto255_add:q <- $r14
	#DEBUG_VALUE: crypto_core_ristretto255_add:p <- [DW_OP_LLVM_entry_value 1] $rsi
	.loc	1 0 9 is_stmt 0                 # crypto_core/ed25519/core_ristretto255.c:0:9
	movl	$-1, %ebp
	.loc	1 30 42                         # crypto_core/ed25519/core_ristretto255.c:30:42
	testl	%eax, %eax
	.loc	1 30 47                         # crypto_core/ed25519/core_ristretto255.c:30:47
	jne	.LBB1_3
.Ltmp6:
# %bb.1:
	#DEBUG_VALUE: crypto_core_ristretto255_add:r <- $rbx
	#DEBUG_VALUE: crypto_core_ristretto255_add:p <- [DW_OP_LLVM_entry_value 1] $rsi
	#DEBUG_VALUE: crypto_core_ristretto255_add:q <- $r14
	.loc	1 0 47                          # crypto_core/ed25519/core_ristretto255.c:0:47
	leaq	8(%rsp), %rdi
	.loc	1 31 9 is_stmt 1                # crypto_core/ed25519/core_ristretto255.c:31:9
	movq	%r14, %rsi
	callq	ristretto255_frombytes@PLT
.Ltmp7:
	.loc	1 31 42 is_stmt 0               # crypto_core/ed25519/core_ristretto255.c:31:42
	testl	%eax, %eax
	.loc	1 30 47 is_stmt 1               # crypto_core/ed25519/core_ristretto255.c:30:47
	jne	.LBB1_3
.Ltmp8:
# %bb.2:
	#DEBUG_VALUE: crypto_core_ristretto255_add:r <- $rbx
	#DEBUG_VALUE: crypto_core_ristretto255_add:p <- [DW_OP_LLVM_entry_value 1] $rsi
	#DEBUG_VALUE: crypto_core_ristretto255_add:q <- $r14
	.loc	1 0 47 is_stmt 0                # crypto_core/ed25519/core_ristretto255.c:0:47
	leaq	328(%rsp), %r14
.Ltmp9:
	#DEBUG_VALUE: crypto_core_ristretto255_add:q <- [DW_OP_LLVM_entry_value 1] $rdx
	leaq	8(%rsp), %rsi
	.loc	1 34 5 is_stmt 1                # crypto_core/ed25519/core_ristretto255.c:34:5
	movq	%r14, %rdi
	callq	ge25519_p3_to_cached@PLT
.Ltmp10:
	.loc	1 0 5 is_stmt 0                 # crypto_core/ed25519/core_ristretto255.c:0:5
	leaq	488(%rsp), %r15
	leaq	168(%rsp), %rsi
	.loc	1 35 5 is_stmt 1                # crypto_core/ed25519/core_ristretto255.c:35:5
	movq	%r15, %rdi
	movq	%r14, %rdx
	callq	ge25519_add@PLT
.Ltmp11:
	.loc	1 0 5 is_stmt 0                 # crypto_core/ed25519/core_ristretto255.c:0:5
	leaq	648(%rsp), %r14
	.loc	1 36 5 is_stmt 1                # crypto_core/ed25519/core_ristretto255.c:36:5
	movq	%r14, %rdi
	movq	%r15, %rsi
	callq	ge25519_p1p1_to_p3@PLT
.Ltmp12:
	.loc	1 37 5                          # crypto_core/ed25519/core_ristretto255.c:37:5
	movq	%rbx, %rdi
	movq	%r14, %rsi
	callq	ristretto255_p3_tobytes@PLT
.Ltmp13:
	.loc	1 0 5 is_stmt 0                 # crypto_core/ed25519/core_ristretto255.c:0:5
	xorl	%ebp, %ebp
.Ltmp14:
.LBB1_3:
	#DEBUG_VALUE: crypto_core_ristretto255_add:r <- $rbx
	#DEBUG_VALUE: crypto_core_ristretto255_add:p <- [DW_OP_LLVM_entry_value 1] $rsi
	#DEBUG_VALUE: crypto_core_ristretto255_add:q <- [DW_OP_LLVM_entry_value 1] $rdx
	.loc	1 40 1 is_stmt 1                # crypto_core/ed25519/core_ristretto255.c:40:1
	movl	%ebp, %eax
	.loc	1 40 1 epilogue_begin is_stmt 0 # crypto_core/ed25519/core_ristretto255.c:40:1
	addq	$808, %rsp                      # imm = 0x328
	.cfi_def_cfa_offset 40
	popq	%rbx
.Ltmp15:
	#DEBUG_VALUE: crypto_core_ristretto255_add:r <- [DW_OP_LLVM_entry_value 1] $rdi
	.cfi_def_cfa_offset 32
	popq	%r14
	.cfi_def_cfa_offset 24
	popq	%r15
	.cfi_def_cfa_offset 16
	popq	%rbp
	.cfi_def_cfa_offset 8
	retq
.Ltmp16:
.Lfunc_end1:
	.size	crypto_core_ristretto255_add, .Lfunc_end1-crypto_core_ristretto255_add
	.cfi_endproc
                                        # -- End function
	.globl	crypto_core_ristretto255_sub    # -- Begin function crypto_core_ristretto255_sub
	.p2align	4
	.type	crypto_core_ristretto255_sub,@function
crypto_core_ristretto255_sub:           # @crypto_core_ristretto255_sub
.Lfunc_begin2:
	.loc	1 45 0 is_stmt 1                # crypto_core/ed25519/core_ristretto255.c:45:0
	.cfi_startproc
# %bb.0:
	#DEBUG_VALUE: crypto_core_ristretto255_sub:r <- $rdi
	#DEBUG_VALUE: crypto_core_ristretto255_sub:p <- $rsi
	#DEBUG_VALUE: crypto_core_ristretto255_sub:q <- $rdx
	pushq	%rbp
	.cfi_def_cfa_offset 16
	pushq	%r15
	.cfi_def_cfa_offset 24
	pushq	%r14
	.cfi_def_cfa_offset 32
	pushq	%rbx
	.cfi_def_cfa_offset 40
	subq	$808, %rsp                      # imm = 0x328
	.cfi_def_cfa_offset 848
	.cfi_offset %rbx, -40
	.cfi_offset %r14, -32
	.cfi_offset %r15, -24
	.cfi_offset %rbp, -16
	movq	%rdx, %r14
	movq	%rdi, %rbx
	leaq	168(%rsp), %rdi
.Ltmp17:
	#DEBUG_VALUE: crypto_core_ristretto255_sub:r <- $rbx
	.loc	1 50 9 prologue_end             # crypto_core/ed25519/core_ristretto255.c:50:9
	callq	ristretto255_frombytes@PLT
.Ltmp18:
	#DEBUG_VALUE: crypto_core_ristretto255_sub:q <- $r14
	#DEBUG_VALUE: crypto_core_ristretto255_sub:p <- [DW_OP_LLVM_entry_value 1] $rsi
	.loc	1 0 9 is_stmt 0                 # crypto_core/ed25519/core_ristretto255.c:0:9
	movl	$-1, %ebp
	.loc	1 50 42                         # crypto_core/ed25519/core_ristretto255.c:50:42
	testl	%eax, %eax
	.loc	1 50 47                         # crypto_core/ed25519/core_ristretto255.c:50:47
	jne	.LBB2_3
.Ltmp19:
# %bb.1:
	#DEBUG_VALUE: crypto_core_ristretto255_sub:r <- $rbx
	#DEBUG_VALUE: crypto_core_ristretto255_sub:p <- [DW_OP_LLVM_entry_value 1] $rsi
	#DEBUG_VALUE: crypto_core_ristretto255_sub:q <- $r14
	.loc	1 0 47                          # crypto_core/ed25519/core_ristretto255.c:0:47
	leaq	8(%rsp), %rdi
	.loc	1 51 9 is_stmt 1                # crypto_core/ed25519/core_ristretto255.c:51:9
	movq	%r14, %rsi
	callq	ristretto255_frombytes@PLT
.Ltmp20:
	.loc	1 51 42 is_stmt 0               # crypto_core/ed25519/core_ristretto255.c:51:42
	testl	%eax, %eax
	.loc	1 50 47 is_stmt 1               # crypto_core/ed25519/core_ristretto255.c:50:47
	jne	.LBB2_3
.Ltmp21:
# %bb.2:
	#DEBUG_VALUE: crypto_core_ristretto255_sub:r <- $rbx
	#DEBUG_VALUE: crypto_core_ristretto255_sub:p <- [DW_OP_LLVM_entry_value 1] $rsi
	#DEBUG_VALUE: crypto_core_ristretto255_sub:q <- $r14
	.loc	1 0 47 is_stmt 0                # crypto_core/ed25519/core_ristretto255.c:0:47
	leaq	328(%rsp), %r14
.Ltmp22:
	#DEBUG_VALUE: crypto_core_ristretto255_sub:q <- [DW_OP_LLVM_entry_value 1] $rdx
	leaq	8(%rsp), %rsi
	.loc	1 54 5 is_stmt 1                # crypto_core/ed25519/core_ristretto255.c:54:5
	movq	%r14, %rdi
	callq	ge25519_p3_to_cached@PLT
.Ltmp23:
	.loc	1 0 5 is_stmt 0                 # crypto_core/ed25519/core_ristretto255.c:0:5
	leaq	488(%rsp), %r15
	leaq	168(%rsp), %rsi
	.loc	1 55 5 is_stmt 1                # crypto_core/ed25519/core_ristretto255.c:55:5
	movq	%r15, %rdi
	movq	%r14, %rdx
	callq	ge25519_sub@PLT
.Ltmp24:
	.loc	1 0 5 is_stmt 0                 # crypto_core/ed25519/core_ristretto255.c:0:5
	leaq	648(%rsp), %r14
	.loc	1 56 5 is_stmt 1                # crypto_core/ed25519/core_ristretto255.c:56:5
	movq	%r14, %rdi
	movq	%r15, %rsi
	callq	ge25519_p1p1_to_p3@PLT
.Ltmp25:
	.loc	1 57 5                          # crypto_core/ed25519/core_ristretto255.c:57:5
	movq	%rbx, %rdi
	movq	%r14, %rsi
	callq	ristretto255_p3_tobytes@PLT
.Ltmp26:
	.loc	1 0 5 is_stmt 0                 # crypto_core/ed25519/core_ristretto255.c:0:5
	xorl	%ebp, %ebp
.Ltmp27:
.LBB2_3:
	#DEBUG_VALUE: crypto_core_ristretto255_sub:r <- $rbx
	#DEBUG_VALUE: crypto_core_ristretto255_sub:p <- [DW_OP_LLVM_entry_value 1] $rsi
	#DEBUG_VALUE: crypto_core_ristretto255_sub:q <- [DW_OP_LLVM_entry_value 1] $rdx
	.loc	1 60 1 is_stmt 1                # crypto_core/ed25519/core_ristretto255.c:60:1
	movl	%ebp, %eax
	.loc	1 60 1 epilogue_begin is_stmt 0 # crypto_core/ed25519/core_ristretto255.c:60:1
	addq	$808, %rsp                      # imm = 0x328
	.cfi_def_cfa_offset 40
	popq	%rbx
.Ltmp28:
	#DEBUG_VALUE: crypto_core_ristretto255_sub:r <- [DW_OP_LLVM_entry_value 1] $rdi
	.cfi_def_cfa_offset 32
	popq	%r14
	.cfi_def_cfa_offset 24
	popq	%r15
	.cfi_def_cfa_offset 16
	popq	%rbp
	.cfi_def_cfa_offset 8
	retq
.Ltmp29:
.Lfunc_end2:
	.size	crypto_core_ristretto255_sub, .Lfunc_end2-crypto_core_ristretto255_sub
	.cfi_endproc
                                        # -- End function
	.globl	crypto_core_ristretto255_from_hash # -- Begin function crypto_core_ristretto255_from_hash
	.p2align	4
	.type	crypto_core_ristretto255_from_hash,@function
crypto_core_ristretto255_from_hash:     # @crypto_core_ristretto255_from_hash
.Lfunc_begin3:
	.loc	1 64 0 is_stmt 1                # crypto_core/ed25519/core_ristretto255.c:64:0
	.cfi_startproc
# %bb.0:
	#DEBUG_VALUE: crypto_core_ristretto255_from_hash:p <- $rdi
	#DEBUG_VALUE: crypto_core_ristretto255_from_hash:r <- $rsi
	pushq	%rax
	.cfi_def_cfa_offset 16
.Ltmp30:
	.loc	1 65 5 prologue_end             # crypto_core/ed25519/core_ristretto255.c:65:5
	callq	ristretto255_from_hash@PLT
.Ltmp31:
	#DEBUG_VALUE: crypto_core_ristretto255_from_hash:r <- [DW_OP_LLVM_entry_value 1] $rsi
	#DEBUG_VALUE: crypto_core_ristretto255_from_hash:p <- [DW_OP_LLVM_entry_value 1] $rdi
	.loc	1 67 5                          # crypto_core/ed25519/core_ristretto255.c:67:5
	xorl	%eax, %eax
	.loc	1 67 5 epilogue_begin is_stmt 0 # crypto_core/ed25519/core_ristretto255.c:67:5
	popq	%rcx
	.cfi_def_cfa_offset 8
	retq
.Ltmp32:
.Lfunc_end3:
	.size	crypto_core_ristretto255_from_hash, .Lfunc_end3-crypto_core_ristretto255_from_hash
	.cfi_endproc
                                        # -- End function
	.globl	crypto_core_ristretto255_random # -- Begin function crypto_core_ristretto255_random
	.p2align	4
	.type	crypto_core_ristretto255_random,@function
crypto_core_ristretto255_random:        # @crypto_core_ristretto255_random
.Lfunc_begin4:
	.loc	1 72 0 is_stmt 1                # crypto_core/ed25519/core_ristretto255.c:72:0
	.cfi_startproc
# %bb.0:
	#DEBUG_VALUE: crypto_core_ristretto255_random:p <- $rdi
	pushq	%r14
	.cfi_def_cfa_offset 16
	pushq	%rbx
	.cfi_def_cfa_offset 24
	subq	$72, %rsp
	.cfi_def_cfa_offset 96
	.cfi_offset %rbx, -24
	.cfi_offset %r14, -16
	movq	%rdi, %rbx
	movq	%fs:40, %rax
	movq	%rax, 64(%rsp)
	movq	%rsp, %r14
.Ltmp33:
	.loc	1 75 5 prologue_end             # crypto_core/ed25519/core_ristretto255.c:75:5
	movl	$64, %esi
	movq	%r14, %rdi
.Ltmp34:
	#DEBUG_VALUE: crypto_core_ristretto255_random:p <- $rbx
	callq	randombytes_buf@PLT
.Ltmp35:
	#DEBUG_VALUE: crypto_core_ristretto255_from_hash:p <- $rbx
	#DEBUG_VALUE: crypto_core_ristretto255_from_hash:r <- $rsp
	.loc	1 65 5                          # crypto_core/ed25519/core_ristretto255.c:65:5 @[ crypto_core/ed25519/core_ristretto255.c:76:12 ]
	movq	%rbx, %rdi
	movq	%r14, %rsi
	callq	ristretto255_from_hash@PLT
.Ltmp36:
	.loc	1 77 1                          # crypto_core/ed25519/core_ristretto255.c:77:1
	movq	%fs:40, %rax
	cmpq	64(%rsp), %rax
	jne	.LBB4_2
.Ltmp37:
# %bb.1:                                # %SP_return
	#DEBUG_VALUE: crypto_core_ristretto255_random:p <- $rbx
	.loc	1 77 1 epilogue_begin is_stmt 0 # crypto_core/ed25519/core_ristretto255.c:77:1
	addq	$72, %rsp
	.cfi_def_cfa_offset 24
	popq	%rbx
.Ltmp38:
	#DEBUG_VALUE: crypto_core_ristretto255_random:p <- [DW_OP_LLVM_entry_value 1] $rdi
	.cfi_def_cfa_offset 16
	popq	%r14
	.cfi_def_cfa_offset 8
	retq
.Ltmp39:
.LBB4_2:                                # %CallStackCheckFailBlk
	.cfi_def_cfa_offset 96
	#DEBUG_VALUE: crypto_core_ristretto255_random:p <- $rbx
	#DEBUG_VALUE: crypto_core_ristretto255_from_hash:p <- $rbx
	#DEBUG_VALUE: crypto_core_ristretto255_from_hash:r <- $r14
	.loc	1 0 0                           # crypto_core/ed25519/core_ristretto255.c:0
	callq	__stack_chk_fail@PLT
.Ltmp40:
.Lfunc_end4:
	.size	crypto_core_ristretto255_random, .Lfunc_end4-crypto_core_ristretto255_random
	.cfi_endproc
	.file	5 "./include/sodium" "randombytes.h"
	.file	6 "/home/leizhenyuu/opt/Anonymous_Repo" "llvm-project/build/lib/clang/21/include/__stddef_size_t.h"
                                        # -- End function
	.globl	crypto_core_ristretto255_scalar_random # -- Begin function crypto_core_ristretto255_scalar_random
	.p2align	4
	.type	crypto_core_ristretto255_scalar_random,@function
crypto_core_ristretto255_scalar_random: # @crypto_core_ristretto255_scalar_random
.Lfunc_begin5:
	.cfi_startproc
# %bb.0:
	#DEBUG_VALUE: crypto_core_ristretto255_scalar_random:r <- $rdi
	.loc	1 82 5 prologue_end is_stmt 1   # crypto_core/ed25519/core_ristretto255.c:82:5
	jmp	crypto_core_ed25519_scalar_random@PLT # TAILCALL
.Ltmp41:
.Lfunc_end5:
	.size	crypto_core_ristretto255_scalar_random, .Lfunc_end5-crypto_core_ristretto255_scalar_random
	.cfi_endproc
	.file	7 "./include/sodium" "crypto_core_ed25519.h"
                                        # -- End function
	.globl	crypto_core_ristretto255_scalar_invert # -- Begin function crypto_core_ristretto255_scalar_invert
	.p2align	4
	.type	crypto_core_ristretto255_scalar_invert,@function
crypto_core_ristretto255_scalar_invert: # @crypto_core_ristretto255_scalar_invert
.Lfunc_begin6:
	.cfi_startproc
# %bb.0:
	#DEBUG_VALUE: crypto_core_ristretto255_scalar_invert:recip <- $rdi
	#DEBUG_VALUE: crypto_core_ristretto255_scalar_invert:s <- $rsi
	.loc	1 89 12 prologue_end            # crypto_core/ed25519/core_ristretto255.c:89:12
	jmp	crypto_core_ed25519_scalar_invert@PLT # TAILCALL
.Ltmp42:
.Lfunc_end6:
	.size	crypto_core_ristretto255_scalar_invert, .Lfunc_end6-crypto_core_ristretto255_scalar_invert
	.cfi_endproc
                                        # -- End function
	.globl	crypto_core_ristretto255_scalar_negate # -- Begin function crypto_core_ristretto255_scalar_negate
	.p2align	4
	.type	crypto_core_ristretto255_scalar_negate,@function
crypto_core_ristretto255_scalar_negate: # @crypto_core_ristretto255_scalar_negate
.Lfunc_begin7:
	.cfi_startproc
# %bb.0:
	#DEBUG_VALUE: crypto_core_ristretto255_scalar_negate:neg <- $rdi
	#DEBUG_VALUE: crypto_core_ristretto255_scalar_negate:s <- $rsi
	.loc	1 96 5 prologue_end             # crypto_core/ed25519/core_ristretto255.c:96:5
	jmp	crypto_core_ed25519_scalar_negate@PLT # TAILCALL
.Ltmp43:
.Lfunc_end7:
	.size	crypto_core_ristretto255_scalar_negate, .Lfunc_end7-crypto_core_ristretto255_scalar_negate
	.cfi_endproc
                                        # -- End function
	.globl	crypto_core_ristretto255_scalar_complement # -- Begin function crypto_core_ristretto255_scalar_complement
	.p2align	4
	.type	crypto_core_ristretto255_scalar_complement,@function
crypto_core_ristretto255_scalar_complement: # @crypto_core_ristretto255_scalar_complement
.Lfunc_begin8:
	.cfi_startproc
# %bb.0:
	#DEBUG_VALUE: crypto_core_ristretto255_scalar_complement:comp <- $rdi
	#DEBUG_VALUE: crypto_core_ristretto255_scalar_complement:s <- $rsi
	.loc	1 103 5 prologue_end            # crypto_core/ed25519/core_ristretto255.c:103:5
	jmp	crypto_core_ed25519_scalar_complement@PLT # TAILCALL
.Ltmp44:
.Lfunc_end8:
	.size	crypto_core_ristretto255_scalar_complement, .Lfunc_end8-crypto_core_ristretto255_scalar_complement
	.cfi_endproc
                                        # -- End function
	.globl	crypto_core_ristretto255_scalar_add # -- Begin function crypto_core_ristretto255_scalar_add
	.p2align	4
	.type	crypto_core_ristretto255_scalar_add,@function
crypto_core_ristretto255_scalar_add:    # @crypto_core_ristretto255_scalar_add
.Lfunc_begin9:
	.cfi_startproc
# %bb.0:
	#DEBUG_VALUE: crypto_core_ristretto255_scalar_add:z <- $rdi
	#DEBUG_VALUE: crypto_core_ristretto255_scalar_add:x <- $rsi
	#DEBUG_VALUE: crypto_core_ristretto255_scalar_add:y <- $rdx
	.loc	1 110 5 prologue_end            # crypto_core/ed25519/core_ristretto255.c:110:5
	jmp	crypto_core_ed25519_scalar_add@PLT # TAILCALL
.Ltmp45:
.Lfunc_end9:
	.size	crypto_core_ristretto255_scalar_add, .Lfunc_end9-crypto_core_ristretto255_scalar_add
	.cfi_endproc
                                        # -- End function
	.globl	crypto_core_ristretto255_scalar_sub # -- Begin function crypto_core_ristretto255_scalar_sub
	.p2align	4
	.type	crypto_core_ristretto255_scalar_sub,@function
crypto_core_ristretto255_scalar_sub:    # @crypto_core_ristretto255_scalar_sub
.Lfunc_begin10:
	.cfi_startproc
# %bb.0:
	#DEBUG_VALUE: crypto_core_ristretto255_scalar_sub:z <- $rdi
	#DEBUG_VALUE: crypto_core_ristretto255_scalar_sub:x <- $rsi
	#DEBUG_VALUE: crypto_core_ristretto255_scalar_sub:y <- $rdx
	.loc	1 117 5 prologue_end            # crypto_core/ed25519/core_ristretto255.c:117:5
	jmp	crypto_core_ed25519_scalar_sub@PLT # TAILCALL
.Ltmp46:
.Lfunc_end10:
	.size	crypto_core_ristretto255_scalar_sub, .Lfunc_end10-crypto_core_ristretto255_scalar_sub
	.cfi_endproc
                                        # -- End function
	.globl	crypto_core_ristretto255_scalar_mul # -- Begin function crypto_core_ristretto255_scalar_mul
	.p2align	4
	.type	crypto_core_ristretto255_scalar_mul,@function
crypto_core_ristretto255_scalar_mul:    # @crypto_core_ristretto255_scalar_mul
.Lfunc_begin11:
	.cfi_startproc
# %bb.0:
	#DEBUG_VALUE: crypto_core_ristretto255_scalar_mul:z <- $rdi
	#DEBUG_VALUE: crypto_core_ristretto255_scalar_mul:x <- $rsi
	#DEBUG_VALUE: crypto_core_ristretto255_scalar_mul:y <- $rdx
	.loc	1 124 5 prologue_end            # crypto_core/ed25519/core_ristretto255.c:124:5
	jmp	sc25519_mul@PLT                 # TAILCALL
.Ltmp47:
.Lfunc_end11:
	.size	crypto_core_ristretto255_scalar_mul, .Lfunc_end11-crypto_core_ristretto255_scalar_mul
	.cfi_endproc
                                        # -- End function
	.globl	crypto_core_ristretto255_scalar_reduce # -- Begin function crypto_core_ristretto255_scalar_reduce
	.p2align	4
	.type	crypto_core_ristretto255_scalar_reduce,@function
crypto_core_ristretto255_scalar_reduce: # @crypto_core_ristretto255_scalar_reduce
.Lfunc_begin12:
	.cfi_startproc
# %bb.0:
	#DEBUG_VALUE: crypto_core_ristretto255_scalar_reduce:r <- $rdi
	#DEBUG_VALUE: crypto_core_ristretto255_scalar_reduce:s <- $rsi
	.loc	1 131 5 prologue_end            # crypto_core/ed25519/core_ristretto255.c:131:5
	jmp	crypto_core_ed25519_scalar_reduce@PLT # TAILCALL
.Ltmp48:
.Lfunc_end12:
	.size	crypto_core_ristretto255_scalar_reduce, .Lfunc_end12-crypto_core_ristretto255_scalar_reduce
	.cfi_endproc
                                        # -- End function
	.globl	crypto_core_ristretto255_bytes  # -- Begin function crypto_core_ristretto255_bytes
	.p2align	4
	.type	crypto_core_ristretto255_bytes,@function
crypto_core_ristretto255_bytes:         # @crypto_core_ristretto255_bytes
.Lfunc_begin13:
	.cfi_startproc
# %bb.0:
	.loc	1 137 5 prologue_end            # crypto_core/ed25519/core_ristretto255.c:137:5
	movl	$32, %eax
	retq
.Ltmp49:
.Lfunc_end13:
	.size	crypto_core_ristretto255_bytes, .Lfunc_end13-crypto_core_ristretto255_bytes
	.cfi_endproc
                                        # -- End function
	.globl	crypto_core_ristretto255_nonreducedscalarbytes # -- Begin function crypto_core_ristretto255_nonreducedscalarbytes
	.p2align	4
	.type	crypto_core_ristretto255_nonreducedscalarbytes,@function
crypto_core_ristretto255_nonreducedscalarbytes: # @crypto_core_ristretto255_nonreducedscalarbytes
.Lfunc_begin14:
	.cfi_startproc
# %bb.0:
	.loc	1 143 5 prologue_end            # crypto_core/ed25519/core_ristretto255.c:143:5
	movl	$64, %eax
	retq
.Ltmp50:
.Lfunc_end14:
	.size	crypto_core_ristretto255_nonreducedscalarbytes, .Lfunc_end14-crypto_core_ristretto255_nonreducedscalarbytes
	.cfi_endproc
                                        # -- End function
	.globl	crypto_core_ristretto255_hashbytes # -- Begin function crypto_core_ristretto255_hashbytes
	.p2align	4
	.type	crypto_core_ristretto255_hashbytes,@function
crypto_core_ristretto255_hashbytes:     # @crypto_core_ristretto255_hashbytes
.Lfunc_begin15:
	.cfi_startproc
# %bb.0:
	.loc	1 149 5 prologue_end            # crypto_core/ed25519/core_ristretto255.c:149:5
	movl	$64, %eax
	retq
.Ltmp51:
.Lfunc_end15:
	.size	crypto_core_ristretto255_hashbytes, .Lfunc_end15-crypto_core_ristretto255_hashbytes
	.cfi_endproc
                                        # -- End function
	.globl	crypto_core_ristretto255_scalarbytes # -- Begin function crypto_core_ristretto255_scalarbytes
	.p2align	4
	.type	crypto_core_ristretto255_scalarbytes,@function
crypto_core_ristretto255_scalarbytes:   # @crypto_core_ristretto255_scalarbytes
.Lfunc_begin16:
	.cfi_startproc
# %bb.0:
	.loc	1 155 5 prologue_end            # crypto_core/ed25519/core_ristretto255.c:155:5
	movl	$32, %eax
	retq
.Ltmp52:
.Lfunc_end16:
	.size	crypto_core_ristretto255_scalarbytes, .Lfunc_end16-crypto_core_ristretto255_scalarbytes
	.cfi_endproc
                                        # -- End function
	.section	".note.GNU-stack","",@progbits
	.addrsig
	.addrsig_sym __stack_chk_fail