	.file	"core_hchacha20.c"
	.file	0 "/home/leizhenyuu/opt/Anonymous_Repo/libsodium_o2_attr_inline/src/libsodium" "core_hchacha20.c" md5 0x9aeb9d73d3becea48490b3449828bf2c
	.text
	.globl	crypto_core_hchacha20           # -- Begin function crypto_core_hchacha20
	.p2align	4
	.type	crypto_core_hchacha20,@function
crypto_core_hchacha20:                  # @crypto_core_hchacha20
.Lfunc_begin0:
	.file	1 "crypto_core/hchacha20" "core_hchacha20.c"
	.loc	1 19 0                          # crypto_core/hchacha20/core_hchacha20.c:19:0
	.cfi_startproc
# %bb.0:
	#DEBUG_VALUE: crypto_core_hchacha20:out <- $rdi
	#DEBUG_VALUE: crypto_core_hchacha20:in <- $rsi
	#DEBUG_VALUE: crypto_core_hchacha20:k <- $rdx
	#DEBUG_VALUE: crypto_core_hchacha20:c <- $rcx
	pushq	%rbp
	.cfi_def_cfa_offset 16
	pushq	%r15
	.cfi_def_cfa_offset 24
	pushq	%r14
	.cfi_def_cfa_offset 32
	pushq	%r13
	.cfi_def_cfa_offset 40
	pushq	%r12
	.cfi_def_cfa_offset 48
	pushq	%rbx
	.cfi_def_cfa_offset 56
	.cfi_offset %rbx, -56
	.cfi_offset %r12, -48
	.cfi_offset %r13, -40
	.cfi_offset %r14, -32
	.cfi_offset %r15, -24
	.cfi_offset %rbp, -16
	movq	%rdi, -8(%rsp)                  # 8-byte Spill
.Ltmp0:
	#DEBUG_VALUE: crypto_core_hchacha20:out <- [DW_OP_constu 8, DW_OP_minus] [$rsp+0]
	.loc	1 24 11 prologue_end            # crypto_core/hchacha20/core_hchacha20.c:24:11
	testq	%rcx, %rcx
	je	.LBB0_1
.Ltmp1:
# %bb.2:
	#DEBUG_VALUE: crypto_core_hchacha20:out <- [DW_OP_constu 8, DW_OP_minus] [$rsp+0]
	#DEBUG_VALUE: crypto_core_hchacha20:in <- $rsi
	#DEBUG_VALUE: crypto_core_hchacha20:k <- $rdx
	#DEBUG_VALUE: crypto_core_hchacha20:c <- $rcx
	#DEBUG_VALUE: load32_le:w <- undef
	#DEBUG_VALUE: load32_le:src <- $rcx
	#DEBUG_VALUE: memcpy:__dest <- undef
	#DEBUG_VALUE: memcpy:__src <- $rcx
	#DEBUG_VALUE: memcpy:__len <- 4
	.file	2 "/usr/include/x86_64-linux-gnu/bits" "string_fortified.h"
	.loc	2 29 10                         # /usr/include/x86_64-linux-gnu/bits/string_fortified.h:29:10 @[ ./include/sodium/private/common.h:106:5 @[ crypto_core/hchacha20/core_hchacha20.c:30:14 ] ]
	movl	(%rcx), %eax
.Ltmp2:
	#DEBUG_VALUE: crypto_core_hchacha20:x0 <- $eax
	#DEBUG_VALUE: load32_le:w <- undef
	#DEBUG_VALUE: memcpy:__dest <- undef
	#DEBUG_VALUE: memcpy:__len <- 4
	#DEBUG_VALUE: load32_le:src <- [DW_OP_plus_uconst 4, DW_OP_stack_value] $rcx
	#DEBUG_VALUE: memcpy:__src <- [DW_OP_plus_uconst 4, DW_OP_stack_value] $rcx
	.loc	2 0 10 is_stmt 0                # /usr/include/x86_64-linux-gnu/bits/string_fortified.h:0:10
	movl	%eax, -24(%rsp)                 # 4-byte Spill
.Ltmp3:
	#DEBUG_VALUE: crypto_core_hchacha20:x0 <- [DW_OP_constu 24, DW_OP_minus, DW_OP_deref] $rsp
	.loc	2 29 10                         # /usr/include/x86_64-linux-gnu/bits/string_fortified.h:29:10 @[ ./include/sodium/private/common.h:106:5 @[ crypto_core/hchacha20/core_hchacha20.c:31:14 ] ]
	movl	4(%rcx), %r10d
.Ltmp4:
	#DEBUG_VALUE: crypto_core_hchacha20:x1 <- $r10d
	#DEBUG_VALUE: load32_le:w <- undef
	#DEBUG_VALUE: memcpy:__dest <- undef
	#DEBUG_VALUE: memcpy:__len <- 4
	#DEBUG_VALUE: load32_le:src <- [DW_OP_plus_uconst 8, DW_OP_stack_value] $rcx
	#DEBUG_VALUE: memcpy:__src <- [DW_OP_plus_uconst 8, DW_OP_stack_value] $rcx
	.loc	2 29 10                         # /usr/include/x86_64-linux-gnu/bits/string_fortified.h:29:10 @[ ./include/sodium/private/common.h:106:5 @[ crypto_core/hchacha20/core_hchacha20.c:32:14 ] ]
	movl	8(%rcx), %r9d
.Ltmp5:
	#DEBUG_VALUE: crypto_core_hchacha20:x2 <- $r9d
	#DEBUG_VALUE: load32_le:w <- undef
	#DEBUG_VALUE: memcpy:__dest <- undef
	#DEBUG_VALUE: memcpy:__len <- 4
	#DEBUG_VALUE: load32_le:src <- [DW_OP_plus_uconst 12, DW_OP_stack_value] $rcx
	#DEBUG_VALUE: memcpy:__src <- [DW_OP_plus_uconst 12, DW_OP_stack_value] $rcx
	.loc	2 29 10                         # /usr/include/x86_64-linux-gnu/bits/string_fortified.h:29:10 @[ ./include/sodium/private/common.h:106:5 @[ crypto_core/hchacha20/core_hchacha20.c:33:14 ] ]
	movl	12(%rcx), %r8d
.Ltmp6:
	#DEBUG_VALUE: crypto_core_hchacha20:x3 <- $r8d
	.loc	2 0 10                          # /usr/include/x86_64-linux-gnu/bits/string_fortified.h:0:10
	jmp	.LBB0_3
.Ltmp7:
.LBB0_1:
	#DEBUG_VALUE: crypto_core_hchacha20:out <- [DW_OP_constu 8, DW_OP_minus] [$rsp+0]
	#DEBUG_VALUE: crypto_core_hchacha20:in <- $rsi
	#DEBUG_VALUE: crypto_core_hchacha20:k <- $rdx
	#DEBUG_VALUE: crypto_core_hchacha20:c <- $rcx
	movl	$1797285236, %r8d               # imm = 0x6B206574
	movl	$2036477234, %r9d               # imm = 0x79622D32
	movl	$857760878, %r10d               # imm = 0x3320646E
	movl	$1634760805, -24(%rsp)          # 4-byte Folded Spill
                                        # imm = 0x61707865
.Ltmp8:
.LBB0_3:
	#DEBUG_VALUE: crypto_core_hchacha20:out <- [DW_OP_constu 8, DW_OP_minus] [$rsp+0]
	#DEBUG_VALUE: crypto_core_hchacha20:in <- $rsi
	#DEBUG_VALUE: crypto_core_hchacha20:k <- $rdx
	#DEBUG_VALUE: crypto_core_hchacha20:c <- $rcx
	#DEBUG_VALUE: crypto_core_hchacha20:x3 <- $r8d
	#DEBUG_VALUE: crypto_core_hchacha20:x2 <- $r9d
	#DEBUG_VALUE: crypto_core_hchacha20:x1 <- $r10d
	#DEBUG_VALUE: crypto_core_hchacha20:x0 <- [DW_OP_constu 24, DW_OP_minus, DW_OP_deref] $rsp
	#DEBUG_VALUE: load32_le:w <- undef
	#DEBUG_VALUE: load32_le:src <- $rdx
	#DEBUG_VALUE: memcpy:__dest <- undef
	#DEBUG_VALUE: memcpy:__src <- $rdx
	#DEBUG_VALUE: memcpy:__len <- 4
	.loc	2 29 10 is_stmt 1               # /usr/include/x86_64-linux-gnu/bits/string_fortified.h:29:10 @[ ./include/sodium/private/common.h:106:5 @[ crypto_core/hchacha20/core_hchacha20.c:35:10 ] ]
	movl	(%rdx), %ecx
.Ltmp9:
	#DEBUG_VALUE: crypto_core_hchacha20:c <- [DW_OP_LLVM_entry_value 1] $rcx
	#DEBUG_VALUE: crypto_core_hchacha20:x4 <- $ecx
	#DEBUG_VALUE: load32_le:w <- undef
	#DEBUG_VALUE: memcpy:__dest <- undef
	#DEBUG_VALUE: memcpy:__len <- 4
	#DEBUG_VALUE: load32_le:src <- [DW_OP_plus_uconst 4, DW_OP_stack_value] $rdx
	#DEBUG_VALUE: memcpy:__src <- [DW_OP_plus_uconst 4, DW_OP_stack_value] $rdx
	.loc	2 29 10 is_stmt 0               # /usr/include/x86_64-linux-gnu/bits/string_fortified.h:29:10 @[ ./include/sodium/private/common.h:106:5 @[ crypto_core/hchacha20/core_hchacha20.c:36:10 ] ]
	movl	4(%rdx), %r11d
.Ltmp10:
	#DEBUG_VALUE: crypto_core_hchacha20:x5 <- $r11d
	#DEBUG_VALUE: load32_le:w <- undef
	#DEBUG_VALUE: memcpy:__dest <- undef
	#DEBUG_VALUE: memcpy:__len <- 4
	#DEBUG_VALUE: load32_le:src <- [DW_OP_plus_uconst 8, DW_OP_stack_value] $rdx
	#DEBUG_VALUE: memcpy:__src <- [DW_OP_plus_uconst 8, DW_OP_stack_value] $rdx
	.loc	2 29 10                         # /usr/include/x86_64-linux-gnu/bits/string_fortified.h:29:10 @[ ./include/sodium/private/common.h:106:5 @[ crypto_core/hchacha20/core_hchacha20.c:37:10 ] ]
	movl	8(%rdx), %ebx
.Ltmp11:
	#DEBUG_VALUE: crypto_core_hchacha20:x6 <- $ebx
	#DEBUG_VALUE: load32_le:w <- undef
	#DEBUG_VALUE: memcpy:__dest <- undef
	#DEBUG_VALUE: memcpy:__len <- 4
	#DEBUG_VALUE: load32_le:src <- [DW_OP_plus_uconst 12, DW_OP_stack_value] $rdx
	#DEBUG_VALUE: memcpy:__src <- [DW_OP_plus_uconst 12, DW_OP_stack_value] $rdx
	.loc	2 29 10                         # /usr/include/x86_64-linux-gnu/bits/string_fortified.h:29:10 @[ ./include/sodium/private/common.h:106:5 @[ crypto_core/hchacha20/core_hchacha20.c:38:10 ] ]
	movl	12(%rdx), %r12d
.Ltmp12:
	#DEBUG_VALUE: crypto_core_hchacha20:x7 <- $r12d
	#DEBUG_VALUE: load32_le:w <- undef
	#DEBUG_VALUE: memcpy:__dest <- undef
	#DEBUG_VALUE: memcpy:__len <- 4
	#DEBUG_VALUE: load32_le:src <- [DW_OP_plus_uconst 16, DW_OP_stack_value] $rdx
	#DEBUG_VALUE: memcpy:__src <- [DW_OP_plus_uconst 16, DW_OP_stack_value] $rdx
	.loc	2 29 10                         # /usr/include/x86_64-linux-gnu/bits/string_fortified.h:29:10 @[ ./include/sodium/private/common.h:106:5 @[ crypto_core/hchacha20/core_hchacha20.c:39:10 ] ]
	movl	16(%rdx), %eax
.Ltmp13:
	#DEBUG_VALUE: crypto_core_hchacha20:x8 <- $eax
	#DEBUG_VALUE: load32_le:w <- undef
	#DEBUG_VALUE: memcpy:__dest <- undef
	#DEBUG_VALUE: memcpy:__len <- 4
	#DEBUG_VALUE: load32_le:src <- [DW_OP_plus_uconst 20, DW_OP_stack_value] $rdx
	#DEBUG_VALUE: memcpy:__src <- [DW_OP_plus_uconst 20, DW_OP_stack_value] $rdx
	.loc	2 0 10                          # /usr/include/x86_64-linux-gnu/bits/string_fortified.h:0:10
	movl	%eax, -20(%rsp)                 # 4-byte Spill
.Ltmp14:
	#DEBUG_VALUE: crypto_core_hchacha20:x8 <- [DW_OP_constu 20, DW_OP_minus, DW_OP_deref] $rsp
	.loc	2 29 10                         # /usr/include/x86_64-linux-gnu/bits/string_fortified.h:29:10 @[ ./include/sodium/private/common.h:106:5 @[ crypto_core/hchacha20/core_hchacha20.c:40:10 ] ]
	movl	20(%rdx), %eax
.Ltmp15:
	#DEBUG_VALUE: crypto_core_hchacha20:x9 <- $eax
	#DEBUG_VALUE: load32_le:w <- undef
	#DEBUG_VALUE: memcpy:__dest <- undef
	#DEBUG_VALUE: memcpy:__len <- 4
	#DEBUG_VALUE: load32_le:src <- [DW_OP_plus_uconst 24, DW_OP_stack_value] $rdx
	#DEBUG_VALUE: memcpy:__src <- [DW_OP_plus_uconst 24, DW_OP_stack_value] $rdx
	.loc	2 29 10                         # /usr/include/x86_64-linux-gnu/bits/string_fortified.h:29:10 @[ ./include/sodium/private/common.h:106:5 @[ crypto_core/hchacha20/core_hchacha20.c:41:11 ] ]
	movl	24(%rdx), %edi
.Ltmp16:
	#DEBUG_VALUE: crypto_core_hchacha20:x10 <- $edi
	#DEBUG_VALUE: load32_le:w <- undef
	#DEBUG_VALUE: memcpy:__dest <- undef
	#DEBUG_VALUE: memcpy:__len <- 4
	#DEBUG_VALUE: load32_le:src <- [DW_OP_plus_uconst 28, DW_OP_stack_value] $rdx
	#DEBUG_VALUE: memcpy:__src <- [DW_OP_plus_uconst 28, DW_OP_stack_value] $rdx
	.loc	2 29 10                         # /usr/include/x86_64-linux-gnu/bits/string_fortified.h:29:10 @[ ./include/sodium/private/common.h:106:5 @[ crypto_core/hchacha20/core_hchacha20.c:42:11 ] ]
	movl	28(%rdx), %r13d
.Ltmp17:
	#DEBUG_VALUE: crypto_core_hchacha20:x11 <- $r13d
	#DEBUG_VALUE: load32_le:w <- undef
	#DEBUG_VALUE: load32_le:src <- $rsi
	#DEBUG_VALUE: memcpy:__dest <- undef
	#DEBUG_VALUE: memcpy:__src <- $rsi
	#DEBUG_VALUE: memcpy:__len <- 4
	.loc	2 29 10                         # /usr/include/x86_64-linux-gnu/bits/string_fortified.h:29:10 @[ ./include/sodium/private/common.h:106:5 @[ crypto_core/hchacha20/core_hchacha20.c:43:11 ] ]
	movl	(%rsi), %r15d
.Ltmp18:
	#DEBUG_VALUE: crypto_core_hchacha20:x12 <- $r15d
	#DEBUG_VALUE: load32_le:w <- undef
	#DEBUG_VALUE: memcpy:__dest <- undef
	#DEBUG_VALUE: memcpy:__len <- 4
	#DEBUG_VALUE: load32_le:src <- [DW_OP_plus_uconst 4, DW_OP_stack_value] $rsi
	#DEBUG_VALUE: memcpy:__src <- [DW_OP_plus_uconst 4, DW_OP_stack_value] $rsi
	.loc	2 29 10                         # /usr/include/x86_64-linux-gnu/bits/string_fortified.h:29:10 @[ ./include/sodium/private/common.h:106:5 @[ crypto_core/hchacha20/core_hchacha20.c:44:11 ] ]
	movl	4(%rsi), %r14d
.Ltmp19:
	#DEBUG_VALUE: crypto_core_hchacha20:x13 <- $r14d
	#DEBUG_VALUE: load32_le:w <- undef
	#DEBUG_VALUE: memcpy:__dest <- undef
	#DEBUG_VALUE: memcpy:__len <- 4
	#DEBUG_VALUE: load32_le:src <- [DW_OP_plus_uconst 8, DW_OP_stack_value] $rsi
	#DEBUG_VALUE: memcpy:__src <- [DW_OP_plus_uconst 8, DW_OP_stack_value] $rsi
	.loc	2 29 10                         # /usr/include/x86_64-linux-gnu/bits/string_fortified.h:29:10 @[ ./include/sodium/private/common.h:106:5 @[ crypto_core/hchacha20/core_hchacha20.c:45:11 ] ]
	movl	8(%rsi), %ebp
.Ltmp20:
	#DEBUG_VALUE: crypto_core_hchacha20:x14 <- $ebp
	#DEBUG_VALUE: load32_le:w <- undef
	#DEBUG_VALUE: memcpy:__dest <- undef
	#DEBUG_VALUE: memcpy:__len <- 4
	#DEBUG_VALUE: load32_le:src <- [DW_OP_plus_uconst 12, DW_OP_stack_value] $rsi
	#DEBUG_VALUE: memcpy:__src <- [DW_OP_plus_uconst 12, DW_OP_stack_value] $rsi
	.loc	2 29 10                         # /usr/include/x86_64-linux-gnu/bits/string_fortified.h:29:10 @[ ./include/sodium/private/common.h:106:5 @[ crypto_core/hchacha20/core_hchacha20.c:46:11 ] ]
	movl	12(%rsi), %edx
.Ltmp21:
	#DEBUG_VALUE: crypto_core_hchacha20:k <- [DW_OP_LLVM_entry_value 1] $rdx
	#DEBUG_VALUE: crypto_core_hchacha20:x15 <- $edx
	.loc	2 0 10                          # /usr/include/x86_64-linux-gnu/bits/string_fortified.h:0:10
	movl	%r13d, %esi
.Ltmp22:
	#DEBUG_VALUE: crypto_core_hchacha20:in <- [DW_OP_LLVM_entry_value 1] $rsi
	movl	$10, -16(%rsp)                  # 4-byte Folded Spill
.Ltmp23:
	#DEBUG_VALUE: crypto_core_hchacha20:i <- 0
	movl	-24(%rsp), %r13d                # 4-byte Reload
.Ltmp24:
	.p2align	4
.LBB0_4:                                # =>This Inner Loop Header: Depth=1
	#DEBUG_VALUE: crypto_core_hchacha20:out <- [DW_OP_constu 8, DW_OP_minus] [$rsp+0]
	#DEBUG_VALUE: crypto_core_hchacha20:in <- [DW_OP_LLVM_entry_value 1] $rsi
	#DEBUG_VALUE: crypto_core_hchacha20:k <- [DW_OP_LLVM_entry_value 1] $rdx
	#DEBUG_VALUE: crypto_core_hchacha20:c <- [DW_OP_LLVM_entry_value 1] $rcx
	#DEBUG_VALUE: crypto_core_hchacha20:x0 <- $r13d
	#DEBUG_VALUE: crypto_core_hchacha20:x1 <- $r10d
	#DEBUG_VALUE: crypto_core_hchacha20:x2 <- $r9d
	#DEBUG_VALUE: crypto_core_hchacha20:x3 <- $r8d
	#DEBUG_VALUE: crypto_core_hchacha20:x4 <- $ecx
	#DEBUG_VALUE: crypto_core_hchacha20:x5 <- $r11d
	#DEBUG_VALUE: crypto_core_hchacha20:x6 <- $ebx
	#DEBUG_VALUE: crypto_core_hchacha20:x7 <- $r12d
	#DEBUG_VALUE: crypto_core_hchacha20:x8 <- [DW_OP_constu 20, DW_OP_minus, DW_OP_deref] $rsp
	#DEBUG_VALUE: crypto_core_hchacha20:x9 <- $eax
	#DEBUG_VALUE: crypto_core_hchacha20:x10 <- $edi
	#DEBUG_VALUE: crypto_core_hchacha20:x11 <- $esi
	#DEBUG_VALUE: crypto_core_hchacha20:x12 <- $r15d
	#DEBUG_VALUE: crypto_core_hchacha20:x13 <- $r14d
	#DEBUG_VALUE: crypto_core_hchacha20:x14 <- $ebp
	#DEBUG_VALUE: crypto_core_hchacha20:x15 <- $edx
	#DEBUG_VALUE: crypto_core_hchacha20:x15 <- $edx
	#DEBUG_VALUE: crypto_core_hchacha20:x14 <- $ebp
	#DEBUG_VALUE: crypto_core_hchacha20:x13 <- $r14d
	#DEBUG_VALUE: crypto_core_hchacha20:x12 <- $r15d
	#DEBUG_VALUE: crypto_core_hchacha20:x11 <- $esi
	#DEBUG_VALUE: crypto_core_hchacha20:x10 <- $edi
	#DEBUG_VALUE: crypto_core_hchacha20:x9 <- $eax
	#DEBUG_VALUE: crypto_core_hchacha20:x8 <- [DW_OP_constu 20, DW_OP_minus, DW_OP_deref] $rsp
	#DEBUG_VALUE: crypto_core_hchacha20:x7 <- $r12d
	#DEBUG_VALUE: crypto_core_hchacha20:x6 <- $ebx
	#DEBUG_VALUE: crypto_core_hchacha20:x5 <- $r11d
	#DEBUG_VALUE: crypto_core_hchacha20:x4 <- $ecx
	#DEBUG_VALUE: crypto_core_hchacha20:x3 <- $r8d
	#DEBUG_VALUE: crypto_core_hchacha20:x2 <- $r9d
	#DEBUG_VALUE: crypto_core_hchacha20:x1 <- $r10d
	#DEBUG_VALUE: crypto_core_hchacha20:x0 <- $r13d
	#DEBUG_VALUE: crypto_core_hchacha20:i <- [DW_OP_constu 16, DW_OP_minus, DW_OP_deref, DW_OP_consts 10, DW_OP_minus, DW_OP_consts 18446744073709551615, DW_OP_div, DW_OP_stack_value] $rsp
	movl	%edi, -12(%rsp)                 # 4-byte Spill
.Ltmp25:
	#DEBUG_VALUE: crypto_core_hchacha20:x10 <- [DW_OP_constu 12, DW_OP_minus, DW_OP_deref] $rsp
	.loc	1 49 17 is_stmt 1               # crypto_core/hchacha20/core_hchacha20.c:49:17
	addl	%ecx, %r13d
.Ltmp26:
	#DEBUG_VALUE: crypto_core_hchacha20:x0 <- $r13d
	.loc	1 49 42 is_stmt 0               # crypto_core/hchacha20/core_hchacha20.c:49:42
	xorl	%r13d, %r15d
.Ltmp27:
	#DEBUG_VALUE: rotl32:x <- $r15d
	#DEBUG_VALUE: rotl32:b <- 16
	.file	3 "./include/sodium/private" "common.h"
	.loc	3 37 21 is_stmt 1               # ./include/sodium/private/common.h:37:21 @[ crypto_core/hchacha20/core_hchacha20.c:49:30 ]
	roll	$16, %r15d
.Ltmp28:
	#DEBUG_VALUE: crypto_core_hchacha20:x12 <- $r15d
	.loc	3 0 21 is_stmt 0                # ./include/sodium/private/common.h:0:21
	movl	-20(%rsp), %edi                 # 4-byte Reload
.Ltmp29:
	.loc	1 49 59 is_stmt 1               # crypto_core/hchacha20/core_hchacha20.c:49:59
	addl	%r15d, %edi
.Ltmp30:
	#DEBUG_VALUE: crypto_core_hchacha20:x8 <- $edi
	.loc	1 49 83 is_stmt 0               # crypto_core/hchacha20/core_hchacha20.c:49:83
	xorl	%edi, %ecx
.Ltmp31:
	#DEBUG_VALUE: rotl32:x <- $ecx
	#DEBUG_VALUE: rotl32:b <- 12
	.loc	3 37 21 is_stmt 1               # ./include/sodium/private/common.h:37:21 @[ crypto_core/hchacha20/core_hchacha20.c:49:72 ]
	roll	$12, %ecx
.Ltmp32:
	#DEBUG_VALUE: crypto_core_hchacha20:x4 <- $ecx
	.loc	1 49 100                        # crypto_core/hchacha20/core_hchacha20.c:49:100
	addl	%ecx, %r13d
.Ltmp33:
	#DEBUG_VALUE: crypto_core_hchacha20:x0 <- $r13d
	.loc	1 49 125 is_stmt 0              # crypto_core/hchacha20/core_hchacha20.c:49:125
	xorl	%r13d, %r15d
.Ltmp34:
	#DEBUG_VALUE: rotl32:x <- $r15d
	#DEBUG_VALUE: rotl32:b <- 8
	.loc	3 37 21 is_stmt 1               # ./include/sodium/private/common.h:37:21 @[ crypto_core/hchacha20/core_hchacha20.c:49:113 ]
	roll	$8, %r15d
.Ltmp35:
	#DEBUG_VALUE: crypto_core_hchacha20:x12 <- $r15d
	.loc	1 49 141                        # crypto_core/hchacha20/core_hchacha20.c:49:141
	addl	%r15d, %edi
.Ltmp36:
	#DEBUG_VALUE: crypto_core_hchacha20:x8 <- $edi
	.loc	1 0 141 is_stmt 0               # crypto_core/hchacha20/core_hchacha20.c:0:141
	movl	%edi, -20(%rsp)                 # 4-byte Spill
.Ltmp37:
	#DEBUG_VALUE: crypto_core_hchacha20:x8 <- [DW_OP_constu 20, DW_OP_minus, DW_OP_deref] $rsp
	.loc	1 49 165                        # crypto_core/hchacha20/core_hchacha20.c:49:165
	xorl	%edi, %ecx
.Ltmp38:
	#DEBUG_VALUE: rotl32:x <- $ecx
	#DEBUG_VALUE: rotl32:b <- 7
	.loc	1 0 165                         # crypto_core/hchacha20/core_hchacha20.c:0:165
	movl	-12(%rsp), %edi                 # 4-byte Reload
.Ltmp39:
	.loc	3 37 21 is_stmt 1               # ./include/sodium/private/common.h:37:21 @[ crypto_core/hchacha20/core_hchacha20.c:49:154 ]
	roll	$7, %ecx
.Ltmp40:
	#DEBUG_VALUE: crypto_core_hchacha20:x4 <- $ecx
	.loc	1 50 17                         # crypto_core/hchacha20/core_hchacha20.c:50:17
	addl	%r11d, %r10d
.Ltmp41:
	#DEBUG_VALUE: crypto_core_hchacha20:x1 <- $r10d
	.loc	1 50 42 is_stmt 0               # crypto_core/hchacha20/core_hchacha20.c:50:42
	xorl	%r10d, %r14d
.Ltmp42:
	#DEBUG_VALUE: rotl32:x <- $r14d
	#DEBUG_VALUE: rotl32:b <- 16
	.loc	3 37 21 is_stmt 1               # ./include/sodium/private/common.h:37:21 @[ crypto_core/hchacha20/core_hchacha20.c:50:30 ]
	roll	$16, %r14d
.Ltmp43:
	#DEBUG_VALUE: crypto_core_hchacha20:x13 <- $r14d
	.loc	1 50 59                         # crypto_core/hchacha20/core_hchacha20.c:50:59
	addl	%r14d, %eax
.Ltmp44:
	#DEBUG_VALUE: crypto_core_hchacha20:x9 <- $eax
	.loc	1 50 83 is_stmt 0               # crypto_core/hchacha20/core_hchacha20.c:50:83
	xorl	%eax, %r11d
.Ltmp45:
	#DEBUG_VALUE: rotl32:x <- $r11d
	#DEBUG_VALUE: rotl32:b <- 12
	.loc	3 37 21 is_stmt 1               # ./include/sodium/private/common.h:37:21 @[ crypto_core/hchacha20/core_hchacha20.c:50:72 ]
	roll	$12, %r11d
.Ltmp46:
	#DEBUG_VALUE: crypto_core_hchacha20:x5 <- $r11d
	.loc	1 50 100                        # crypto_core/hchacha20/core_hchacha20.c:50:100
	addl	%r11d, %r10d
.Ltmp47:
	#DEBUG_VALUE: crypto_core_hchacha20:x1 <- $r10d
	.loc	1 50 125 is_stmt 0              # crypto_core/hchacha20/core_hchacha20.c:50:125
	xorl	%r10d, %r14d
.Ltmp48:
	#DEBUG_VALUE: rotl32:x <- $r14d
	#DEBUG_VALUE: rotl32:b <- 8
	.loc	3 37 21 is_stmt 1               # ./include/sodium/private/common.h:37:21 @[ crypto_core/hchacha20/core_hchacha20.c:50:113 ]
	roll	$8, %r14d
.Ltmp49:
	#DEBUG_VALUE: crypto_core_hchacha20:x13 <- $r14d
	.loc	1 50 141                        # crypto_core/hchacha20/core_hchacha20.c:50:141
	addl	%r14d, %eax
.Ltmp50:
	#DEBUG_VALUE: crypto_core_hchacha20:x9 <- $eax
	.loc	1 0 141 is_stmt 0               # crypto_core/hchacha20/core_hchacha20.c:0:141
	movl	%eax, -24(%rsp)                 # 4-byte Spill
.Ltmp51:
	#DEBUG_VALUE: crypto_core_hchacha20:x9 <- [DW_OP_constu 24, DW_OP_minus, DW_OP_deref] $rsp
	.loc	1 50 165                        # crypto_core/hchacha20/core_hchacha20.c:50:165
	xorl	%eax, %r11d
.Ltmp52:
	#DEBUG_VALUE: rotl32:x <- $r11d
	#DEBUG_VALUE: rotl32:b <- 7
	.loc	3 37 21 is_stmt 1               # ./include/sodium/private/common.h:37:21 @[ crypto_core/hchacha20/core_hchacha20.c:50:154 ]
	roll	$7, %r11d
.Ltmp53:
	#DEBUG_VALUE: crypto_core_hchacha20:x5 <- $r11d
	.loc	1 51 17                         # crypto_core/hchacha20/core_hchacha20.c:51:17
	addl	%ebx, %r9d
.Ltmp54:
	#DEBUG_VALUE: crypto_core_hchacha20:x2 <- $r9d
	.loc	1 51 42 is_stmt 0               # crypto_core/hchacha20/core_hchacha20.c:51:42
	xorl	%r9d, %ebp
.Ltmp55:
	#DEBUG_VALUE: rotl32:x <- $ebp
	#DEBUG_VALUE: rotl32:b <- 16
	.loc	3 37 21 is_stmt 1               # ./include/sodium/private/common.h:37:21 @[ crypto_core/hchacha20/core_hchacha20.c:51:30 ]
	roll	$16, %ebp
.Ltmp56:
	#DEBUG_VALUE: crypto_core_hchacha20:x14 <- $ebp
	.loc	1 51 60                         # crypto_core/hchacha20/core_hchacha20.c:51:60
	addl	%ebp, %edi
.Ltmp57:
	#DEBUG_VALUE: crypto_core_hchacha20:x10 <- $edi
	.loc	1 51 84 is_stmt 0               # crypto_core/hchacha20/core_hchacha20.c:51:84
	xorl	%edi, %ebx
.Ltmp58:
	#DEBUG_VALUE: rotl32:x <- $ebx
	#DEBUG_VALUE: rotl32:b <- 12
	.loc	3 37 21 is_stmt 1               # ./include/sodium/private/common.h:37:21 @[ crypto_core/hchacha20/core_hchacha20.c:51:73 ]
	roll	$12, %ebx
.Ltmp59:
	#DEBUG_VALUE: crypto_core_hchacha20:x6 <- $ebx
	.loc	1 51 102                        # crypto_core/hchacha20/core_hchacha20.c:51:102
	addl	%ebx, %r9d
.Ltmp60:
	#DEBUG_VALUE: crypto_core_hchacha20:x2 <- $r9d
	.loc	1 51 127 is_stmt 0              # crypto_core/hchacha20/core_hchacha20.c:51:127
	xorl	%r9d, %ebp
.Ltmp61:
	#DEBUG_VALUE: rotl32:x <- $ebp
	#DEBUG_VALUE: rotl32:b <- 8
	.loc	3 37 21 is_stmt 1               # ./include/sodium/private/common.h:37:21 @[ crypto_core/hchacha20/core_hchacha20.c:51:115 ]
	roll	$8, %ebp
.Ltmp62:
	#DEBUG_VALUE: crypto_core_hchacha20:x14 <- $ebp
	.loc	1 51 144                        # crypto_core/hchacha20/core_hchacha20.c:51:144
	addl	%ebp, %edi
.Ltmp63:
	#DEBUG_VALUE: crypto_core_hchacha20:x10 <- $edi
	.loc	1 51 168 is_stmt 0              # crypto_core/hchacha20/core_hchacha20.c:51:168
	xorl	%edi, %ebx
.Ltmp64:
	#DEBUG_VALUE: rotl32:x <- $ebx
	#DEBUG_VALUE: rotl32:b <- 7
	.loc	3 37 21 is_stmt 1               # ./include/sodium/private/common.h:37:21 @[ crypto_core/hchacha20/core_hchacha20.c:51:157 ]
	roll	$7, %ebx
.Ltmp65:
	#DEBUG_VALUE: crypto_core_hchacha20:x6 <- $ebx
	.loc	1 52 17                         # crypto_core/hchacha20/core_hchacha20.c:52:17
	addl	%r12d, %r8d
.Ltmp66:
	#DEBUG_VALUE: crypto_core_hchacha20:x3 <- $r8d
	.loc	1 52 42 is_stmt 0               # crypto_core/hchacha20/core_hchacha20.c:52:42
	xorl	%r8d, %edx
.Ltmp67:
	#DEBUG_VALUE: rotl32:x <- $edx
	#DEBUG_VALUE: rotl32:b <- 16
	.loc	3 37 21 is_stmt 1               # ./include/sodium/private/common.h:37:21 @[ crypto_core/hchacha20/core_hchacha20.c:52:30 ]
	roll	$16, %edx
.Ltmp68:
	#DEBUG_VALUE: crypto_core_hchacha20:x15 <- $edx
	.loc	1 52 60                         # crypto_core/hchacha20/core_hchacha20.c:52:60
	addl	%edx, %esi
.Ltmp69:
	#DEBUG_VALUE: crypto_core_hchacha20:x11 <- $esi
	.loc	1 52 84 is_stmt 0               # crypto_core/hchacha20/core_hchacha20.c:52:84
	xorl	%esi, %r12d
.Ltmp70:
	#DEBUG_VALUE: rotl32:x <- $r12d
	#DEBUG_VALUE: rotl32:b <- 12
	.loc	3 37 21 is_stmt 1               # ./include/sodium/private/common.h:37:21 @[ crypto_core/hchacha20/core_hchacha20.c:52:73 ]
	roll	$12, %r12d
.Ltmp71:
	#DEBUG_VALUE: crypto_core_hchacha20:x7 <- $r12d
	.loc	1 52 102                        # crypto_core/hchacha20/core_hchacha20.c:52:102
	addl	%r12d, %r8d
.Ltmp72:
	#DEBUG_VALUE: crypto_core_hchacha20:x3 <- $r8d
	.loc	1 52 127 is_stmt 0              # crypto_core/hchacha20/core_hchacha20.c:52:127
	xorl	%r8d, %edx
.Ltmp73:
	#DEBUG_VALUE: rotl32:x <- $edx
	#DEBUG_VALUE: rotl32:b <- 8
	.loc	3 37 21 is_stmt 1               # ./include/sodium/private/common.h:37:21 @[ crypto_core/hchacha20/core_hchacha20.c:52:115 ]
	roll	$8, %edx
.Ltmp74:
	#DEBUG_VALUE: crypto_core_hchacha20:x15 <- $edx
	.loc	1 52 144                        # crypto_core/hchacha20/core_hchacha20.c:52:144
	addl	%edx, %esi
.Ltmp75:
	#DEBUG_VALUE: crypto_core_hchacha20:x11 <- $esi
	.loc	1 52 168 is_stmt 0              # crypto_core/hchacha20/core_hchacha20.c:52:168
	xorl	%esi, %r12d
.Ltmp76:
	#DEBUG_VALUE: rotl32:x <- $r12d
	#DEBUG_VALUE: rotl32:b <- 7
	.loc	3 37 21 is_stmt 1               # ./include/sodium/private/common.h:37:21 @[ crypto_core/hchacha20/core_hchacha20.c:52:157 ]
	roll	$7, %r12d
.Ltmp77:
	#DEBUG_VALUE: crypto_core_hchacha20:x7 <- $r12d
	.loc	1 53 17                         # crypto_core/hchacha20/core_hchacha20.c:53:17
	addl	%r11d, %r13d
.Ltmp78:
	#DEBUG_VALUE: crypto_core_hchacha20:x0 <- $r13d
	.loc	1 53 42 is_stmt 0               # crypto_core/hchacha20/core_hchacha20.c:53:42
	xorl	%r13d, %edx
.Ltmp79:
	#DEBUG_VALUE: rotl32:x <- $edx
	#DEBUG_VALUE: rotl32:b <- 16
	.loc	3 37 21 is_stmt 1               # ./include/sodium/private/common.h:37:21 @[ crypto_core/hchacha20/core_hchacha20.c:53:30 ]
	roll	$16, %edx
.Ltmp80:
	#DEBUG_VALUE: crypto_core_hchacha20:x15 <- $edx
	.loc	1 53 60                         # crypto_core/hchacha20/core_hchacha20.c:53:60
	addl	%edx, %edi
.Ltmp81:
	#DEBUG_VALUE: crypto_core_hchacha20:x10 <- $edi
	.loc	1 53 84 is_stmt 0               # crypto_core/hchacha20/core_hchacha20.c:53:84
	xorl	%edi, %r11d
.Ltmp82:
	#DEBUG_VALUE: rotl32:x <- $r11d
	#DEBUG_VALUE: rotl32:b <- 12
	.loc	3 37 21 is_stmt 1               # ./include/sodium/private/common.h:37:21 @[ crypto_core/hchacha20/core_hchacha20.c:53:73 ]
	roll	$12, %r11d
.Ltmp83:
	#DEBUG_VALUE: crypto_core_hchacha20:x5 <- $r11d
	.loc	1 53 102                        # crypto_core/hchacha20/core_hchacha20.c:53:102
	addl	%r11d, %r13d
.Ltmp84:
	#DEBUG_VALUE: crypto_core_hchacha20:x0 <- $r13d
	.loc	1 53 127 is_stmt 0              # crypto_core/hchacha20/core_hchacha20.c:53:127
	xorl	%r13d, %edx
.Ltmp85:
	#DEBUG_VALUE: rotl32:x <- $edx
	#DEBUG_VALUE: rotl32:b <- 8
	.loc	3 37 21 is_stmt 1               # ./include/sodium/private/common.h:37:21 @[ crypto_core/hchacha20/core_hchacha20.c:53:115 ]
	roll	$8, %edx
.Ltmp86:
	#DEBUG_VALUE: crypto_core_hchacha20:x15 <- $edx
	.loc	1 53 144                        # crypto_core/hchacha20/core_hchacha20.c:53:144
	addl	%edx, %edi
.Ltmp87:
	#DEBUG_VALUE: crypto_core_hchacha20:x10 <- $edi
	.loc	1 53 168 is_stmt 0              # crypto_core/hchacha20/core_hchacha20.c:53:168
	xorl	%edi, %r11d
.Ltmp88:
	#DEBUG_VALUE: rotl32:x <- $r11d
	#DEBUG_VALUE: rotl32:b <- 7
	.loc	3 37 21 is_stmt 1               # ./include/sodium/private/common.h:37:21 @[ crypto_core/hchacha20/core_hchacha20.c:53:157 ]
	roll	$7, %r11d
.Ltmp89:
	#DEBUG_VALUE: crypto_core_hchacha20:x5 <- $r11d
	.loc	1 54 17                         # crypto_core/hchacha20/core_hchacha20.c:54:17
	addl	%ebx, %r10d
.Ltmp90:
	#DEBUG_VALUE: crypto_core_hchacha20:x1 <- $r10d
	.loc	1 54 42 is_stmt 0               # crypto_core/hchacha20/core_hchacha20.c:54:42
	xorl	%r10d, %r15d
.Ltmp91:
	#DEBUG_VALUE: rotl32:x <- $r15d
	#DEBUG_VALUE: rotl32:b <- 16
	.loc	3 37 21 is_stmt 1               # ./include/sodium/private/common.h:37:21 @[ crypto_core/hchacha20/core_hchacha20.c:54:30 ]
	roll	$16, %r15d
.Ltmp92:
	#DEBUG_VALUE: crypto_core_hchacha20:x12 <- $r15d
	.loc	1 54 60                         # crypto_core/hchacha20/core_hchacha20.c:54:60
	addl	%r15d, %esi
.Ltmp93:
	#DEBUG_VALUE: crypto_core_hchacha20:x11 <- $esi
	.loc	1 54 84 is_stmt 0               # crypto_core/hchacha20/core_hchacha20.c:54:84
	xorl	%esi, %ebx
.Ltmp94:
	#DEBUG_VALUE: rotl32:x <- $ebx
	#DEBUG_VALUE: rotl32:b <- 12
	.loc	3 37 21 is_stmt 1               # ./include/sodium/private/common.h:37:21 @[ crypto_core/hchacha20/core_hchacha20.c:54:73 ]
	roll	$12, %ebx
.Ltmp95:
	#DEBUG_VALUE: crypto_core_hchacha20:x6 <- $ebx
	.loc	1 54 102                        # crypto_core/hchacha20/core_hchacha20.c:54:102
	addl	%ebx, %r10d
.Ltmp96:
	#DEBUG_VALUE: crypto_core_hchacha20:x1 <- $r10d
	.loc	1 54 127 is_stmt 0              # crypto_core/hchacha20/core_hchacha20.c:54:127
	xorl	%r10d, %r15d
.Ltmp97:
	#DEBUG_VALUE: rotl32:x <- $r15d
	#DEBUG_VALUE: rotl32:b <- 8
	.loc	3 37 21 is_stmt 1               # ./include/sodium/private/common.h:37:21 @[ crypto_core/hchacha20/core_hchacha20.c:54:115 ]
	roll	$8, %r15d
.Ltmp98:
	#DEBUG_VALUE: crypto_core_hchacha20:x12 <- $r15d
	.loc	1 54 144                        # crypto_core/hchacha20/core_hchacha20.c:54:144
	addl	%r15d, %esi
.Ltmp99:
	#DEBUG_VALUE: crypto_core_hchacha20:x11 <- $esi
	.loc	1 54 168 is_stmt 0              # crypto_core/hchacha20/core_hchacha20.c:54:168
	xorl	%esi, %ebx
.Ltmp100:
	#DEBUG_VALUE: rotl32:x <- $ebx
	#DEBUG_VALUE: rotl32:b <- 7
	.loc	3 37 21 is_stmt 1               # ./include/sodium/private/common.h:37:21 @[ crypto_core/hchacha20/core_hchacha20.c:54:157 ]
	roll	$7, %ebx
.Ltmp101:
	#DEBUG_VALUE: crypto_core_hchacha20:x6 <- $ebx
	.loc	1 55 17                         # crypto_core/hchacha20/core_hchacha20.c:55:17
	addl	%r12d, %r9d
.Ltmp102:
	#DEBUG_VALUE: crypto_core_hchacha20:x2 <- $r9d
	.loc	1 55 42 is_stmt 0               # crypto_core/hchacha20/core_hchacha20.c:55:42
	xorl	%r9d, %r14d
.Ltmp103:
	#DEBUG_VALUE: rotl32:x <- $r14d
	#DEBUG_VALUE: rotl32:b <- 16
	.loc	3 37 21 is_stmt 1               # ./include/sodium/private/common.h:37:21 @[ crypto_core/hchacha20/core_hchacha20.c:55:30 ]
	roll	$16, %r14d
.Ltmp104:
	#DEBUG_VALUE: crypto_core_hchacha20:x13 <- $r14d
	.loc	3 0 21 is_stmt 0                # ./include/sodium/private/common.h:0:21
	movl	-20(%rsp), %eax                 # 4-byte Reload
.Ltmp105:
	.loc	1 55 59 is_stmt 1               # crypto_core/hchacha20/core_hchacha20.c:55:59
	addl	%r14d, %eax
.Ltmp106:
	#DEBUG_VALUE: crypto_core_hchacha20:x8 <- $eax
	.loc	1 55 83 is_stmt 0               # crypto_core/hchacha20/core_hchacha20.c:55:83
	xorl	%eax, %r12d
.Ltmp107:
	#DEBUG_VALUE: rotl32:x <- $r12d
	#DEBUG_VALUE: rotl32:b <- 12
	.loc	3 37 21 is_stmt 1               # ./include/sodium/private/common.h:37:21 @[ crypto_core/hchacha20/core_hchacha20.c:55:72 ]
	roll	$12, %r12d
.Ltmp108:
	#DEBUG_VALUE: crypto_core_hchacha20:x7 <- $r12d
	.loc	1 55 100                        # crypto_core/hchacha20/core_hchacha20.c:55:100
	addl	%r12d, %r9d
.Ltmp109:
	#DEBUG_VALUE: crypto_core_hchacha20:x2 <- $r9d
	.loc	1 55 125 is_stmt 0              # crypto_core/hchacha20/core_hchacha20.c:55:125
	xorl	%r9d, %r14d
.Ltmp110:
	#DEBUG_VALUE: rotl32:x <- $r14d
	#DEBUG_VALUE: rotl32:b <- 8
	.loc	3 37 21 is_stmt 1               # ./include/sodium/private/common.h:37:21 @[ crypto_core/hchacha20/core_hchacha20.c:55:113 ]
	roll	$8, %r14d
.Ltmp111:
	#DEBUG_VALUE: crypto_core_hchacha20:x13 <- $r14d
	.loc	1 55 141                        # crypto_core/hchacha20/core_hchacha20.c:55:141
	addl	%r14d, %eax
.Ltmp112:
	#DEBUG_VALUE: crypto_core_hchacha20:x8 <- $eax
	.loc	1 0 141 is_stmt 0               # crypto_core/hchacha20/core_hchacha20.c:0:141
	movl	%eax, -20(%rsp)                 # 4-byte Spill
.Ltmp113:
	#DEBUG_VALUE: crypto_core_hchacha20:x8 <- [DW_OP_constu 20, DW_OP_minus, DW_OP_deref] $rsp
	.loc	1 55 165                        # crypto_core/hchacha20/core_hchacha20.c:55:165
	xorl	%eax, %r12d
.Ltmp114:
	#DEBUG_VALUE: rotl32:x <- $r12d
	#DEBUG_VALUE: rotl32:b <- 7
	.loc	1 0 165                         # crypto_core/hchacha20/core_hchacha20.c:0:165
	movl	-24(%rsp), %eax                 # 4-byte Reload
.Ltmp115:
	.loc	3 37 21 is_stmt 1               # ./include/sodium/private/common.h:37:21 @[ crypto_core/hchacha20/core_hchacha20.c:55:154 ]
	roll	$7, %r12d
.Ltmp116:
	#DEBUG_VALUE: crypto_core_hchacha20:x7 <- $r12d
	.loc	1 56 17                         # crypto_core/hchacha20/core_hchacha20.c:56:17
	addl	%ecx, %r8d
.Ltmp117:
	#DEBUG_VALUE: crypto_core_hchacha20:x3 <- $r8d
	.loc	1 56 42 is_stmt 0               # crypto_core/hchacha20/core_hchacha20.c:56:42
	xorl	%r8d, %ebp
.Ltmp118:
	#DEBUG_VALUE: rotl32:x <- $ebp
	#DEBUG_VALUE: rotl32:b <- 16
	.loc	3 37 21 is_stmt 1               # ./include/sodium/private/common.h:37:21 @[ crypto_core/hchacha20/core_hchacha20.c:56:30 ]
	roll	$16, %ebp
.Ltmp119:
	#DEBUG_VALUE: crypto_core_hchacha20:x14 <- $ebp
	.loc	1 56 59                         # crypto_core/hchacha20/core_hchacha20.c:56:59
	addl	%ebp, %eax
.Ltmp120:
	#DEBUG_VALUE: crypto_core_hchacha20:x9 <- $eax
	.loc	1 56 83 is_stmt 0               # crypto_core/hchacha20/core_hchacha20.c:56:83
	xorl	%eax, %ecx
.Ltmp121:
	#DEBUG_VALUE: rotl32:x <- $ecx
	#DEBUG_VALUE: rotl32:b <- 12
	.loc	3 37 21 is_stmt 1               # ./include/sodium/private/common.h:37:21 @[ crypto_core/hchacha20/core_hchacha20.c:56:72 ]
	roll	$12, %ecx
.Ltmp122:
	#DEBUG_VALUE: crypto_core_hchacha20:x4 <- $ecx
	.loc	1 56 100                        # crypto_core/hchacha20/core_hchacha20.c:56:100
	addl	%ecx, %r8d
.Ltmp123:
	#DEBUG_VALUE: crypto_core_hchacha20:x3 <- $r8d
	.loc	1 56 125 is_stmt 0              # crypto_core/hchacha20/core_hchacha20.c:56:125
	xorl	%r8d, %ebp
.Ltmp124:
	#DEBUG_VALUE: rotl32:x <- $ebp
	#DEBUG_VALUE: rotl32:b <- 8
	.loc	3 37 21 is_stmt 1               # ./include/sodium/private/common.h:37:21 @[ crypto_core/hchacha20/core_hchacha20.c:56:113 ]
	roll	$8, %ebp
.Ltmp125:
	#DEBUG_VALUE: crypto_core_hchacha20:x14 <- $ebp
	.loc	1 56 141                        # crypto_core/hchacha20/core_hchacha20.c:56:141
	addl	%ebp, %eax
.Ltmp126:
	#DEBUG_VALUE: crypto_core_hchacha20:x9 <- $eax
	.loc	1 56 165 is_stmt 0              # crypto_core/hchacha20/core_hchacha20.c:56:165
	xorl	%eax, %ecx
.Ltmp127:
	#DEBUG_VALUE: rotl32:x <- $ecx
	#DEBUG_VALUE: rotl32:b <- 7
	.loc	3 37 21 is_stmt 1               # ./include/sodium/private/common.h:37:21 @[ crypto_core/hchacha20/core_hchacha20.c:56:154 ]
	roll	$7, %ecx
.Ltmp128:
	#DEBUG_VALUE: crypto_core_hchacha20:x4 <- $ecx
	#DEBUG_VALUE: crypto_core_hchacha20:i <- [DW_OP_constu 16, DW_OP_minus, DW_OP_deref, DW_OP_consts 10, DW_OP_minus, DW_OP_consts 18446744073709551615, DW_OP_div, DW_OP_consts 1, DW_OP_plus, DW_OP_stack_value] $rsp
	.loc	1 48 19                         # crypto_core/hchacha20/core_hchacha20.c:48:19
	decl	-16(%rsp)                       # 4-byte Folded Spill
.Ltmp129:
	#DEBUG_VALUE: crypto_core_hchacha20:i <- [DW_OP_consts 10, DW_OP_minus, DW_OP_consts 18446744073709551615, DW_OP_div, DW_OP_consts 1, DW_OP_plus, DW_OP_stack_value] undef
	.loc	1 48 5 is_stmt 0                # crypto_core/hchacha20/core_hchacha20.c:48:5
	jne	.LBB0_4
.Ltmp130:
# %bb.5:
	#DEBUG_VALUE: crypto_core_hchacha20:out <- [DW_OP_constu 8, DW_OP_minus] [$rsp+0]
	#DEBUG_VALUE: crypto_core_hchacha20:in <- [DW_OP_LLVM_entry_value 1] $rsi
	#DEBUG_VALUE: crypto_core_hchacha20:k <- [DW_OP_LLVM_entry_value 1] $rdx
	#DEBUG_VALUE: crypto_core_hchacha20:c <- [DW_OP_LLVM_entry_value 1] $rcx
	#DEBUG_VALUE: crypto_core_hchacha20:x0 <- $r13d
	#DEBUG_VALUE: crypto_core_hchacha20:x1 <- $r10d
	#DEBUG_VALUE: crypto_core_hchacha20:x2 <- $r9d
	#DEBUG_VALUE: crypto_core_hchacha20:x3 <- $r8d
	#DEBUG_VALUE: crypto_core_hchacha20:x4 <- $ecx
	#DEBUG_VALUE: crypto_core_hchacha20:x5 <- $r11d
	#DEBUG_VALUE: crypto_core_hchacha20:x6 <- $ebx
	#DEBUG_VALUE: crypto_core_hchacha20:x7 <- $r12d
	#DEBUG_VALUE: crypto_core_hchacha20:x8 <- [DW_OP_constu 20, DW_OP_minus, DW_OP_deref] $rsp
	#DEBUG_VALUE: crypto_core_hchacha20:x9 <- $eax
	#DEBUG_VALUE: crypto_core_hchacha20:x10 <- $edi
	#DEBUG_VALUE: crypto_core_hchacha20:x11 <- $esi
	#DEBUG_VALUE: crypto_core_hchacha20:x12 <- $r15d
	#DEBUG_VALUE: crypto_core_hchacha20:x13 <- $r14d
	#DEBUG_VALUE: crypto_core_hchacha20:x14 <- $ebp
	#DEBUG_VALUE: crypto_core_hchacha20:x15 <- $edx
	#DEBUG_VALUE: store32_le:dst <- [DW_OP_constu 8, DW_OP_minus, DW_OP_deref] $rsp
	#DEBUG_VALUE: store32_le:w <- undef
	#DEBUG_VALUE: memcpy:__dest <- [DW_OP_constu 8, DW_OP_minus, DW_OP_deref] $rsp
	#DEBUG_VALUE: memcpy:__src <- undef
	#DEBUG_VALUE: memcpy:__len <- 4
	.loc	1 0 5                           # crypto_core/hchacha20/core_hchacha20.c:0:5
	movq	-8(%rsp), %rax                  # 8-byte Reload
.Ltmp131:
	.loc	2 29 10 is_stmt 1               # /usr/include/x86_64-linux-gnu/bits/string_fortified.h:29:10 @[ ./include/sodium/private/common.h:122:5 @[ crypto_core/hchacha20/core_hchacha20.c:59:5 ] ]
	movl	%r13d, (%rax)
.Ltmp132:
	#DEBUG_VALUE: store32_le:w <- undef
	#DEBUG_VALUE: memcpy:__src <- undef
	#DEBUG_VALUE: memcpy:__len <- 4
	#DEBUG_VALUE: store32_le:dst <- [DW_OP_constu 8, DW_OP_minus, DW_OP_deref, DW_OP_plus_uconst 4, DW_OP_stack_value] $rsp
	#DEBUG_VALUE: memcpy:__dest <- [DW_OP_constu 8, DW_OP_minus, DW_OP_deref, DW_OP_plus_uconst 4, DW_OP_stack_value] $rsp
	.loc	2 29 10 is_stmt 0               # /usr/include/x86_64-linux-gnu/bits/string_fortified.h:29:10 @[ ./include/sodium/private/common.h:122:5 @[ crypto_core/hchacha20/core_hchacha20.c:60:5 ] ]
	movl	%r10d, 4(%rax)
.Ltmp133:
	#DEBUG_VALUE: store32_le:w <- undef
	#DEBUG_VALUE: memcpy:__src <- undef
	#DEBUG_VALUE: memcpy:__len <- 4
	#DEBUG_VALUE: store32_le:dst <- [DW_OP_constu 8, DW_OP_minus, DW_OP_deref, DW_OP_plus_uconst 8, DW_OP_stack_value] $rsp
	#DEBUG_VALUE: memcpy:__dest <- [DW_OP_constu 8, DW_OP_minus, DW_OP_deref, DW_OP_plus_uconst 8, DW_OP_stack_value] $rsp
	.loc	2 29 10                         # /usr/include/x86_64-linux-gnu/bits/string_fortified.h:29:10 @[ ./include/sodium/private/common.h:122:5 @[ crypto_core/hchacha20/core_hchacha20.c:61:5 ] ]
	movl	%r9d, 8(%rax)
.Ltmp134:
	#DEBUG_VALUE: store32_le:w <- undef
	#DEBUG_VALUE: memcpy:__src <- undef
	#DEBUG_VALUE: memcpy:__len <- 4
	#DEBUG_VALUE: store32_le:dst <- [DW_OP_constu 8, DW_OP_minus, DW_OP_deref, DW_OP_plus_uconst 12, DW_OP_stack_value] $rsp
	#DEBUG_VALUE: memcpy:__dest <- [DW_OP_constu 8, DW_OP_minus, DW_OP_deref, DW_OP_plus_uconst 12, DW_OP_stack_value] $rsp
	.loc	2 29 10                         # /usr/include/x86_64-linux-gnu/bits/string_fortified.h:29:10 @[ ./include/sodium/private/common.h:122:5 @[ crypto_core/hchacha20/core_hchacha20.c:62:5 ] ]
	movl	%r8d, 12(%rax)
.Ltmp135:
	#DEBUG_VALUE: store32_le:w <- undef
	#DEBUG_VALUE: memcpy:__src <- undef
	#DEBUG_VALUE: memcpy:__len <- 4
	#DEBUG_VALUE: store32_le:dst <- [DW_OP_constu 8, DW_OP_minus, DW_OP_deref, DW_OP_plus_uconst 16, DW_OP_stack_value] $rsp
	#DEBUG_VALUE: memcpy:__dest <- [DW_OP_constu 8, DW_OP_minus, DW_OP_deref, DW_OP_plus_uconst 16, DW_OP_stack_value] $rsp
	.loc	2 29 10                         # /usr/include/x86_64-linux-gnu/bits/string_fortified.h:29:10 @[ ./include/sodium/private/common.h:122:5 @[ crypto_core/hchacha20/core_hchacha20.c:63:5 ] ]
	movl	%r15d, 16(%rax)
.Ltmp136:
	#DEBUG_VALUE: store32_le:w <- undef
	#DEBUG_VALUE: memcpy:__src <- undef
	#DEBUG_VALUE: memcpy:__len <- 4
	#DEBUG_VALUE: store32_le:dst <- [DW_OP_constu 8, DW_OP_minus, DW_OP_deref, DW_OP_plus_uconst 20, DW_OP_stack_value] $rsp
	#DEBUG_VALUE: memcpy:__dest <- [DW_OP_constu 8, DW_OP_minus, DW_OP_deref, DW_OP_plus_uconst 20, DW_OP_stack_value] $rsp
	.loc	2 29 10                         # /usr/include/x86_64-linux-gnu/bits/string_fortified.h:29:10 @[ ./include/sodium/private/common.h:122:5 @[ crypto_core/hchacha20/core_hchacha20.c:64:5 ] ]
	movl	%r14d, 20(%rax)
.Ltmp137:
	#DEBUG_VALUE: store32_le:w <- undef
	#DEBUG_VALUE: memcpy:__src <- undef
	#DEBUG_VALUE: memcpy:__len <- 4
	#DEBUG_VALUE: store32_le:dst <- [DW_OP_constu 8, DW_OP_minus, DW_OP_deref, DW_OP_plus_uconst 24, DW_OP_stack_value] $rsp
	#DEBUG_VALUE: memcpy:__dest <- [DW_OP_constu 8, DW_OP_minus, DW_OP_deref, DW_OP_plus_uconst 24, DW_OP_stack_value] $rsp
	.loc	2 29 10                         # /usr/include/x86_64-linux-gnu/bits/string_fortified.h:29:10 @[ ./include/sodium/private/common.h:122:5 @[ crypto_core/hchacha20/core_hchacha20.c:65:5 ] ]
	movl	%ebp, 24(%rax)
.Ltmp138:
	#DEBUG_VALUE: store32_le:w <- undef
	#DEBUG_VALUE: memcpy:__src <- undef
	#DEBUG_VALUE: memcpy:__len <- 4
	#DEBUG_VALUE: store32_le:dst <- [DW_OP_constu 8, DW_OP_minus, DW_OP_deref, DW_OP_plus_uconst 28, DW_OP_stack_value] $rsp
	#DEBUG_VALUE: memcpy:__dest <- [DW_OP_constu 8, DW_OP_minus, DW_OP_deref, DW_OP_plus_uconst 28, DW_OP_stack_value] $rsp
	.loc	2 29 10                         # /usr/include/x86_64-linux-gnu/bits/string_fortified.h:29:10 @[ ./include/sodium/private/common.h:122:5 @[ crypto_core/hchacha20/core_hchacha20.c:66:5 ] ]
	movl	%edx, 28(%rax)
.Ltmp139:
	.loc	1 68 5 is_stmt 1                # crypto_core/hchacha20/core_hchacha20.c:68:5
	xorl	%eax, %eax
	.loc	1 68 5 epilogue_begin is_stmt 0 # crypto_core/hchacha20/core_hchacha20.c:68:5
	popq	%rbx
.Ltmp140:
	.cfi_def_cfa_offset 48
	popq	%r12
.Ltmp141:
	.cfi_def_cfa_offset 40
	popq	%r13
.Ltmp142:
	.cfi_def_cfa_offset 32
	popq	%r14
.Ltmp143:
	.cfi_def_cfa_offset 24
	popq	%r15
.Ltmp144:
	.cfi_def_cfa_offset 16
	popq	%rbp
.Ltmp145:
	.cfi_def_cfa_offset 8
	retq
.Ltmp146:
.Lfunc_end0:
	.size	crypto_core_hchacha20, .Lfunc_end0-crypto_core_hchacha20
	.cfi_endproc
	.file	4 "/home/leizhenyuu/opt/Anonymous_Repo" "llvm-project/build/lib/clang/21/include/__stddef_size_t.h"
	.file	5 "/usr/include/x86_64-linux-gnu/bits" "types.h"
	.file	6 "/usr/include/x86_64-linux-gnu/bits" "stdint-uintn.h"
                                        # -- End function
	.globl	crypto_core_hchacha20_outputbytes # -- Begin function crypto_core_hchacha20_outputbytes
	.p2align	4
	.type	crypto_core_hchacha20_outputbytes,@function
crypto_core_hchacha20_outputbytes:      # @crypto_core_hchacha20_outputbytes
.Lfunc_begin1:
	.cfi_startproc
# %bb.0:
	.loc	1 74 5 prologue_end is_stmt 1   # crypto_core/hchacha20/core_hchacha20.c:74:5
	movl	$32, %eax
	retq
.Ltmp147:
.Lfunc_end1:
	.size	crypto_core_hchacha20_outputbytes, .Lfunc_end1-crypto_core_hchacha20_outputbytes
	.cfi_endproc
                                        # -- End function
	.globl	crypto_core_hchacha20_inputbytes # -- Begin function crypto_core_hchacha20_inputbytes
	.p2align	4
	.type	crypto_core_hchacha20_inputbytes,@function
crypto_core_hchacha20_inputbytes:       # @crypto_core_hchacha20_inputbytes
.Lfunc_begin2:
	.cfi_startproc
# %bb.0:
	.loc	1 80 5 prologue_end             # crypto_core/hchacha20/core_hchacha20.c:80:5
	movl	$16, %eax
	retq
.Ltmp148:
.Lfunc_end2:
	.size	crypto_core_hchacha20_inputbytes, .Lfunc_end2-crypto_core_hchacha20_inputbytes
	.cfi_endproc
                                        # -- End function
	.globl	crypto_core_hchacha20_keybytes  # -- Begin function crypto_core_hchacha20_keybytes
	.p2align	4
	.type	crypto_core_hchacha20_keybytes,@function
crypto_core_hchacha20_keybytes:         # @crypto_core_hchacha20_keybytes
.Lfunc_begin3:
	.cfi_startproc
# %bb.0:
	.loc	1 86 5 prologue_end             # crypto_core/hchacha20/core_hchacha20.c:86:5
	movl	$32, %eax
	retq
.Ltmp149:
.Lfunc_end3:
	.size	crypto_core_hchacha20_keybytes, .Lfunc_end3-crypto_core_hchacha20_keybytes
	.cfi_endproc
                                        # -- End function
	.globl	crypto_core_hchacha20_constbytes # -- Begin function crypto_core_hchacha20_constbytes
	.p2align	4
	.type	crypto_core_hchacha20_constbytes,@function
crypto_core_hchacha20_constbytes:       # @crypto_core_hchacha20_constbytes
.Lfunc_begin4:
	.cfi_startproc
# %bb.0:
	.loc	1 92 5 prologue_end             # crypto_core/hchacha20/core_hchacha20.c:92:5
	movl	$16, %eax
	retq
.Ltmp150:
.Lfunc_end4:
	.size	crypto_core_hchacha20_constbytes, .Lfunc_end4-crypto_core_hchacha20_constbytes
	.cfi_endproc
                                        # -- End function
	.section	".note.GNU-stack","",@progbits
	.addrsig