	.file	"core.c"
	.file	0 "/home/leizhenyuu/opt/Anonymous_Repo/libsodium_o2_attr_inline/src/libsodium" "core.c" md5 0x68a83d0d006d8776a2c61b9dd6201226
	.file	1 "sodium" "core.c"
	.file	2 "/usr/include/x86_64-linux-gnu/bits" "struct_mutex.h"
	.file	3 "/usr/include/x86_64-linux-gnu/bits" "thread-shared-types.h"
	.file	4 "/usr/include/x86_64-linux-gnu/bits" "pthreadtypes.h"
	.text
	.globl	sodium_init                     # -- Begin function sodium_init
	.p2align	4
	.type	sodium_init,@function
sodium_init:                            # @sodium_init
.Lfunc_begin0:
	.loc	1 29 0                          # sodium/core.c:29:0
	.cfi_startproc
# %bb.0:
	pushq	%rax
	.cfi_def_cfa_offset 16
.Ltmp0:
	.loc	1 120 16 prologue_end           # sodium/core.c:120:16 @[ sodium/core.c:30:9 ]
	leaq	_sodium_lock(%rip), %rdi
	callq	pthread_mutex_lock@PLT
.Ltmp1:
	movl	%eax, %ecx
.Ltmp2:
	#DEBUG_VALUE: sodium_crit_enter:ret <- $eax
	.loc	1 0 16 is_stmt 0                # sodium/core.c:0:16
	movl	$-1, %eax
.Ltmp3:
	#DEBUG_VALUE: sodium_crit_enter:ret <- $ecx
	.loc	1 120 51                        # sodium/core.c:120:51 @[ sodium/core.c:30:9 ]
	testl	%ecx, %ecx
	je	.LBB0_1
.Ltmp4:
.LBB0_7:                                # %sodium_crit_enter.exit
	.loc	1 55 1 epilogue_begin is_stmt 1 # sodium/core.c:55:1
	popq	%rcx
	.cfi_def_cfa_offset 8
	retq
.LBB0_1:
	.cfi_def_cfa_offset 16
.Ltmp5:
	#DEBUG_VALUE: sodium_crit_enter:ret <- $ecx
	.loc	1 121 77                        # sodium/core.c:121:77 @[ sodium/core.c:30:9 ]
	cmpl	$0, locked(%rip)
	jne	.LBB0_8
.Ltmp6:
# %bb.2:
	#DEBUG_VALUE: sodium_crit_enter:ret <- $ecx
	.loc	1 122 16                        # sodium/core.c:122:16 @[ sodium/core.c:30:9 ]
	movl	$1, locked(%rip)
.Ltmp7:
	.loc	1 33 21                         # sodium/core.c:33:21
	cmpl	$0, initialized(%rip)
	je	.LBB0_5
.Ltmp8:
# %bb.3:
	.loc	1 130 16                        # sodium/core.c:130:16 @[ sodium/core.c:34:13 ]
	cmpl	$0, locked(%rip)
	je	.LBB0_7
.Ltmp9:
# %bb.4:                                # %sodium_crit_leave.exit
	.loc	1 136 12                        # sodium/core.c:136:12 @[ sodium/core.c:34:13 ]
	movl	$0, locked(%rip)
	.loc	1 138 12                        # sodium/core.c:138:12 @[ sodium/core.c:34:13 ]
	leaq	_sodium_lock(%rip), %rdi
	callq	pthread_mutex_unlock@PLT
.Ltmp10:
	.loc	1 0 0 is_stmt 0                 # sodium/core.c:0
	xorl	%ecx, %ecx
	negl	%eax
	setae	%cl
	leal	-1(,%rcx,2), %eax
.Ltmp11:
	.loc	1 55 1 epilogue_begin is_stmt 1 # sodium/core.c:55:1
	popq	%rcx
	.cfi_def_cfa_offset 8
	retq
.LBB0_5:
	.cfi_def_cfa_offset 16
	.loc	1 39 5                          # sodium/core.c:39:5
	callq	_sodium_runtime_get_cpu_features@PLT
.Ltmp12:
	.loc	1 40 5                          # sodium/core.c:40:5
	callq	randombytes_stir@PLT
.Ltmp13:
	.loc	1 41 5                          # sodium/core.c:41:5
	callq	_sodium_alloc_init@PLT
.Ltmp14:
	.loc	1 42 5                          # sodium/core.c:42:5
	callq	_crypto_pwhash_argon2_pick_best_implementation@PLT
.Ltmp15:
	.loc	1 43 5                          # sodium/core.c:43:5
	callq	_crypto_generichash_blake2b_pick_best_implementation@PLT
.Ltmp16:
	.loc	1 44 5                          # sodium/core.c:44:5
	callq	_crypto_onetimeauth_poly1305_pick_best_implementation@PLT
.Ltmp17:
	.loc	1 45 5                          # sodium/core.c:45:5
	callq	_crypto_scalarmult_curve25519_pick_best_implementation@PLT
.Ltmp18:
	.loc	1 46 5                          # sodium/core.c:46:5
	callq	_crypto_stream_chacha20_pick_best_implementation@PLT
.Ltmp19:
	.loc	1 47 5                          # sodium/core.c:47:5
	callq	_crypto_stream_salsa20_pick_best_implementation@PLT
.Ltmp20:
	.loc	1 48 5                          # sodium/core.c:48:5
	callq	_crypto_aead_aegis128l_pick_best_implementation@PLT
.Ltmp21:
	.loc	1 49 5                          # sodium/core.c:49:5
	callq	_crypto_aead_aegis256_pick_best_implementation@PLT
.Ltmp22:
	.loc	1 0 5 is_stmt 0                 # sodium/core.c:0:5
	movl	$-1, %eax
	.loc	1 50 17 is_stmt 1               # sodium/core.c:50:17
	movl	$1, initialized(%rip)
.Ltmp23:
	.loc	1 130 16                        # sodium/core.c:130:16 @[ sodium/core.c:51:9 ]
	cmpl	$0, locked(%rip)
	je	.LBB0_7
.Ltmp24:
# %bb.6:                                # %sodium_crit_leave.exit6
	.loc	1 136 12                        # sodium/core.c:136:12 @[ sodium/core.c:51:9 ]
	movl	$0, locked(%rip)
	.loc	1 138 12                        # sodium/core.c:138:12 @[ sodium/core.c:51:9 ]
	leaq	_sodium_lock(%rip), %rdi
	callq	pthread_mutex_unlock@PLT
.Ltmp25:
	movl	%eax, %ecx
.Ltmp26:
	.loc	1 0 0 is_stmt 0                 # sodium/core.c:0
	xorl	%eax, %eax
	negl	%ecx
	sbbl	%eax, %eax
	.loc	1 55 1 epilogue_begin is_stmt 1 # sodium/core.c:55:1
	popq	%rcx
	.cfi_def_cfa_offset 8
	retq
.LBB0_8:
	.cfi_def_cfa_offset 16
.Ltmp27:
	#DEBUG_VALUE: sodium_crit_enter:ret <- $ecx
	.loc	1 121 90                        # sodium/core.c:121:90 @[ sodium/core.c:30:9 ]
	leaq	.L.str(%rip), %rdi
	leaq	.L.str.1(%rip), %rsi
	leaq	.L__PRETTY_FUNCTION__.sodium_crit_enter(%rip), %rcx
.Ltmp28:
	movl	$121, %edx
	callq	__assert_fail@PLT
.Ltmp29:
.Lfunc_end0:
	.size	sodium_init, .Lfunc_end0-sodium_init
	.cfi_endproc
	.file	5 "/usr/include" "pthread.h"
	.file	6 "./include/sodium" "runtime.h"
	.file	7 "./include/sodium" "randombytes.h"
	.file	8 "./include/sodium" "utils.h"
	.file	9 "./include/sodium/private" "implementations.h"
	.file	10 "/usr/include" "assert.h"
                                        # -- End function
	.hidden	sodium_crit_enter               # -- Begin function sodium_crit_enter
	.globl	sodium_crit_enter
	.p2align	4
	.type	sodium_crit_enter,@function
sodium_crit_enter:                      # @sodium_crit_enter
.Lfunc_begin1:
	.loc	1 117 0                         # sodium/core.c:117:0
	.cfi_startproc
# %bb.0:
	pushq	%rax
	.cfi_def_cfa_offset 16
.Ltmp30:
	.loc	1 120 16 prologue_end           # sodium/core.c:120:16
	leaq	_sodium_lock(%rip), %rdi
	callq	pthread_mutex_lock@PLT
.Ltmp31:
	#DEBUG_VALUE: sodium_crit_enter:ret <- $eax
	.loc	1 120 51 is_stmt 0              # sodium/core.c:120:51
	testl	%eax, %eax
	je	.LBB1_1
.Ltmp32:
# %bb.3:
	#DEBUG_VALUE: sodium_crit_enter:ret <- $eax
	.loc	1 124 5 epilogue_begin is_stmt 1 # sodium/core.c:124:5
	popq	%rcx
	.cfi_def_cfa_offset 8
	retq
.Ltmp33:
.LBB1_1:
	.cfi_def_cfa_offset 16
	#DEBUG_VALUE: sodium_crit_enter:ret <- $eax
	.loc	1 121 77                        # sodium/core.c:121:77
	cmpl	$0, locked(%rip)
	jne	.LBB1_4
.Ltmp34:
# %bb.2:
	#DEBUG_VALUE: sodium_crit_enter:ret <- $eax
	.loc	1 122 16                        # sodium/core.c:122:16
	movl	$1, locked(%rip)
.Ltmp35:
	.loc	1 124 5 epilogue_begin          # sodium/core.c:124:5
	popq	%rcx
	.cfi_def_cfa_offset 8
	retq
.Ltmp36:
.LBB1_4:
	.cfi_def_cfa_offset 16
	#DEBUG_VALUE: sodium_crit_enter:ret <- $eax
	.loc	1 121 90                        # sodium/core.c:121:90
	leaq	.L.str(%rip), %rdi
	leaq	.L.str.1(%rip), %rsi
	leaq	.L__PRETTY_FUNCTION__.sodium_crit_enter(%rip), %rcx
	movl	$121, %edx
	callq	__assert_fail@PLT
.Ltmp37:
.Lfunc_end1:
	.size	sodium_crit_enter, .Lfunc_end1-sodium_crit_enter
	.cfi_endproc
                                        # -- End function
	.hidden	sodium_crit_leave               # -- Begin function sodium_crit_leave
	.globl	sodium_crit_leave
	.p2align	4
	.type	sodium_crit_leave,@function
sodium_crit_leave:                      # @sodium_crit_leave
.Lfunc_begin2:
	.cfi_startproc
# %bb.0:
	.loc	1 130 16 prologue_end           # sodium/core.c:130:16
	cmpl	$0, locked(%rip)
	je	.LBB2_1
.Ltmp38:
# %bb.2:
	.loc	1 136 12                        # sodium/core.c:136:12
	movl	$0, locked(%rip)
	.loc	1 138 12                        # sodium/core.c:138:12
	leaq	_sodium_lock(%rip), %rdi
.Ltmp39:
	jmp	pthread_mutex_unlock@PLT        # TAILCALL
.Ltmp40:
.LBB2_1:
	.loc	1 139 1                         # sodium/core.c:139:1
	movl	$-1, %eax
	retq
.Ltmp41:
.Lfunc_end2:
	.size	sodium_crit_leave, .Lfunc_end2-sodium_crit_leave
	.cfi_endproc
                                        # -- End function
	.globl	sodium_misuse                   # -- Begin function sodium_misuse
	.p2align	4
	.type	sodium_misuse,@function
sodium_misuse:                          # @sodium_misuse
.Lfunc_begin3:
	.loc	1 190 0                         # sodium/core.c:190:0
	.cfi_startproc
# %bb.0:
	pushq	%rax
	.cfi_def_cfa_offset 16
.Ltmp42:
	.loc	1 130 16 prologue_end           # sodium/core.c:130:16 @[ sodium/core.c:193:12 ]
	cmpl	$0, locked(%rip)
	je	.LBB3_2
.Ltmp43:
# %bb.1:
	.loc	1 136 12                        # sodium/core.c:136:12 @[ sodium/core.c:193:12 ]
	movl	$0, locked(%rip)
	.loc	1 138 12                        # sodium/core.c:138:12 @[ sodium/core.c:193:12 ]
	leaq	_sodium_lock(%rip), %rdi
	callq	pthread_mutex_unlock@PLT
.Ltmp44:
.LBB3_2:                                # %sodium_crit_leave.exit
	.loc	1 120 16                        # sodium/core.c:120:16 @[ sodium/core.c:194:9 ]
	leaq	_sodium_lock(%rip), %rdi
	callq	pthread_mutex_lock@PLT
.Ltmp45:
	#DEBUG_VALUE: sodium_crit_enter:ret <- $eax
	.loc	1 120 51 is_stmt 0              # sodium/core.c:120:51 @[ sodium/core.c:194:9 ]
	testl	%eax, %eax
	jne	.LBB3_6
.Ltmp46:
# %bb.3:
	#DEBUG_VALUE: sodium_crit_enter:ret <- $eax
	.loc	1 121 77 is_stmt 1              # sodium/core.c:121:77 @[ sodium/core.c:194:9 ]
	cmpl	$0, locked(%rip)
	jne	.LBB3_7
.Ltmp47:
# %bb.4:
	#DEBUG_VALUE: sodium_crit_enter:ret <- $eax
	.loc	1 122 16                        # sodium/core.c:122:16 @[ sodium/core.c:194:9 ]
	movl	$1, locked(%rip)
.Ltmp48:
	.loc	1 195 19                        # sodium/core.c:195:19
	movq	_misuse_handler(%rip), %rax
.Ltmp49:
	#DEBUG_VALUE: sodium_misuse:handler <- $rax
	.loc	1 196 21                        # sodium/core.c:196:21
	testq	%rax, %rax
	je	.LBB3_6
.Ltmp50:
# %bb.5:
	#DEBUG_VALUE: sodium_misuse:handler <- $rax
	.loc	1 197 13                        # sodium/core.c:197:13
	callq	*%rax
.Ltmp51:
.LBB3_6:                                # %sodium_crit_enter.exit
	.loc	1 201 5                         # sodium/core.c:201:5
	callq	abort@PLT
.Ltmp52:
.LBB3_7:
	#DEBUG_VALUE: sodium_crit_enter:ret <- $eax
	.loc	1 121 90                        # sodium/core.c:121:90 @[ sodium/core.c:194:9 ]
	leaq	.L.str(%rip), %rdi
	leaq	.L.str.1(%rip), %rsi
	leaq	.L__PRETTY_FUNCTION__.sodium_crit_enter(%rip), %rcx
	movl	$121, %edx
	callq	__assert_fail@PLT
.Ltmp53:
.Lfunc_end3:
	.size	sodium_misuse, .Lfunc_end3-sodium_misuse
	.cfi_endproc
	.file	11 "/usr/include" "stdlib.h"
                                        # -- End function
	.globl	sodium_set_misuse_handler       # -- Begin function sodium_set_misuse_handler
	.p2align	4
	.type	sodium_set_misuse_handler,@function
sodium_set_misuse_handler:              # @sodium_set_misuse_handler
.Lfunc_begin4:
	.loc	1 207 0                         # sodium/core.c:207:0
	.cfi_startproc
# %bb.0:
	#DEBUG_VALUE: sodium_set_misuse_handler:handler <- $rdi
	pushq	%rbx
	.cfi_def_cfa_offset 16
	.cfi_offset %rbx, -16
	movq	%rdi, %rbx
.Ltmp54:
	.loc	1 120 16 prologue_end           # sodium/core.c:120:16 @[ sodium/core.c:208:9 ]
	leaq	_sodium_lock(%rip), %rdi
.Ltmp55:
	#DEBUG_VALUE: sodium_set_misuse_handler:handler <- $rbx
	callq	pthread_mutex_lock@PLT
.Ltmp56:
	movl	%eax, %ecx
.Ltmp57:
	#DEBUG_VALUE: sodium_crit_enter:ret <- $eax
	.loc	1 0 16 is_stmt 0                # sodium/core.c:0:16
	movl	$-1, %eax
.Ltmp58:
	#DEBUG_VALUE: sodium_crit_enter:ret <- $ecx
	.loc	1 120 51                        # sodium/core.c:120:51 @[ sodium/core.c:208:9 ]
	testl	%ecx, %ecx
	je	.LBB4_1
.Ltmp59:
.LBB4_4:                                # %sodium_crit_enter.exit
	#DEBUG_VALUE: sodium_set_misuse_handler:handler <- $rbx
	.loc	1 216 1 epilogue_begin is_stmt 1 # sodium/core.c:216:1
	popq	%rbx
.Ltmp60:
	#DEBUG_VALUE: sodium_set_misuse_handler:handler <- [DW_OP_LLVM_entry_value 1] $rdi
	.cfi_def_cfa_offset 8
	retq
.Ltmp61:
.LBB4_1:
	.cfi_def_cfa_offset 16
	#DEBUG_VALUE: sodium_set_misuse_handler:handler <- $rbx
	#DEBUG_VALUE: sodium_crit_enter:ret <- $ecx
	.loc	1 121 77                        # sodium/core.c:121:77 @[ sodium/core.c:208:9 ]
	cmpl	$0, locked(%rip)
	jne	.LBB4_5
.Ltmp62:
# %bb.2:
	#DEBUG_VALUE: sodium_set_misuse_handler:handler <- $rbx
	#DEBUG_VALUE: sodium_crit_enter:ret <- $ecx
	.loc	1 122 16                        # sodium/core.c:122:16 @[ sodium/core.c:208:9 ]
	movl	$1, locked(%rip)
.Ltmp63:
	.loc	1 211 21                        # sodium/core.c:211:21
	movq	%rbx, _misuse_handler(%rip)
.Ltmp64:
	.loc	1 130 16                        # sodium/core.c:130:16 @[ sodium/core.c:212:9 ]
	cmpl	$0, locked(%rip)
	je	.LBB4_4
.Ltmp65:
# %bb.3:                                # %sodium_crit_leave.exit
	#DEBUG_VALUE: sodium_set_misuse_handler:handler <- $rbx
	.loc	1 136 12                        # sodium/core.c:136:12 @[ sodium/core.c:212:9 ]
	movl	$0, locked(%rip)
	.loc	1 138 12                        # sodium/core.c:138:12 @[ sodium/core.c:212:9 ]
	leaq	_sodium_lock(%rip), %rdi
	callq	pthread_mutex_unlock@PLT
.Ltmp66:
	movl	%eax, %ecx
.Ltmp67:
	.loc	1 0 0 is_stmt 0                 # sodium/core.c:0
	xorl	%eax, %eax
	negl	%ecx
	sbbl	%eax, %eax
	.loc	1 216 1 epilogue_begin is_stmt 1 # sodium/core.c:216:1
	popq	%rbx
.Ltmp68:
	#DEBUG_VALUE: sodium_set_misuse_handler:handler <- [DW_OP_LLVM_entry_value 1] $rdi
	.cfi_def_cfa_offset 8
	retq
.Ltmp69:
.LBB4_5:
	.cfi_def_cfa_offset 16
	#DEBUG_VALUE: sodium_set_misuse_handler:handler <- $rbx
	#DEBUG_VALUE: sodium_crit_enter:ret <- $ecx
	.loc	1 121 90                        # sodium/core.c:121:90 @[ sodium/core.c:208:9 ]
	leaq	.L.str(%rip), %rdi
	leaq	.L.str.1(%rip), %rsi
	leaq	.L__PRETTY_FUNCTION__.sodium_crit_enter(%rip), %rcx
.Ltmp70:
	movl	$121, %edx
	callq	__assert_fail@PLT
.Ltmp71:
.Lfunc_end4:
	.size	sodium_set_misuse_handler, .Lfunc_end4-sodium_set_misuse_handler
	.cfi_endproc
                                        # -- End function
	.type	initialized,@object             # @initialized
	.local	initialized
	.comm	initialized,4,4
	.type	_sodium_lock,@object            # @_sodium_lock
	.local	_sodium_lock
	.comm	_sodium_lock,40,8
	.type	locked,@object                  # @locked
	.local	locked
	.comm	locked,4,4
	.type	.L.str,@object                  # @.str
	.section	.rodata.str1.1,"aMS",@progbits,1
.L.str:
	.asciz	"locked == 0"
	.size	.L.str, 12

	.type	.L.str.1,@object                # @.str.1
.L.str.1:
	.asciz	"sodium/core.c"
	.size	.L.str.1, 14

	.type	.L__PRETTY_FUNCTION__.sodium_crit_enter,@object # @__PRETTY_FUNCTION__.sodium_crit_enter
.L__PRETTY_FUNCTION__.sodium_crit_enter:
	.asciz	"int sodium_crit_enter(void)"
	.size	.L__PRETTY_FUNCTION__.sodium_crit_enter, 28

	.type	_misuse_handler,@object         # @_misuse_handler
	.local	_misuse_handler
	.comm	_misuse_handler,8,8
	.section	".note.GNU-stack","",@progbits
	.addrsig
	.addrsig_sym initialized
	.addrsig_sym _sodium_lock
	.addrsig_sym locked