	.file	"crypto_kx.c"
	.file	0 "/home/leizhenyuu/opt/Anonymous_Repo/libsodium_o2_attr_inline/src/libsodium" "crypto_kx.c" md5 0x11e4667b194932d32a3d89aad59fdbdf
	.file	1 "crypto_kx" "crypto_kx.c"
	.text
	.globl	crypto_kx_seed_keypair          # -- Begin function crypto_kx_seed_keypair
	.p2align	4
	.type	crypto_kx_seed_keypair,@function
crypto_kx_seed_keypair:                 # @crypto_kx_seed_keypair
.Lfunc_begin0:
	.loc	1 16 0                          # crypto_kx/crypto_kx.c:16:0
	.cfi_startproc
# %bb.0:
	#DEBUG_VALUE: crypto_kx_seed_keypair:pk <- $rdi
	#DEBUG_VALUE: crypto_kx_seed_keypair:sk <- $rsi
	#DEBUG_VALUE: crypto_kx_seed_keypair:seed <- $rdx
	pushq	%r14
	.cfi_def_cfa_offset 16
	pushq	%rbx
	.cfi_def_cfa_offset 24
	pushq	%rax
	.cfi_def_cfa_offset 32
	.cfi_offset %rbx, -24
	.cfi_offset %r14, -16
	movq	%rsi, %rbx
	movq	%rdi, %r14
.Ltmp0:
	.loc	1 17 5 prologue_end             # crypto_kx/crypto_kx.c:17:5
	movl	$32, %esi
.Ltmp1:
	#DEBUG_VALUE: crypto_kx_seed_keypair:sk <- $rbx
	movl	$32, %ecx
	movq	%rbx, %rdi
.Ltmp2:
	#DEBUG_VALUE: crypto_kx_seed_keypair:pk <- $r14
	xorl	%r8d, %r8d
	xorl	%r9d, %r9d
	callq	crypto_generichash@PLT
.Ltmp3:
	#DEBUG_VALUE: crypto_kx_seed_keypair:seed <- [DW_OP_LLVM_entry_value 1] $rdx
	.loc	1 19 12                         # crypto_kx/crypto_kx.c:19:12
	movq	%r14, %rdi
	movq	%rbx, %rsi
	.loc	1 19 12 epilogue_begin is_stmt 0 # crypto_kx/crypto_kx.c:19:12
	addq	$8, %rsp
	.cfi_def_cfa_offset 24
	popq	%rbx
.Ltmp4:
	#DEBUG_VALUE: crypto_kx_seed_keypair:sk <- $rsi
	.cfi_def_cfa_offset 16
	popq	%r14
.Ltmp5:
	#DEBUG_VALUE: crypto_kx_seed_keypair:pk <- $rdi
	.cfi_def_cfa_offset 8
	jmp	crypto_scalarmult_base@PLT      # TAILCALL
.Ltmp6:
.Lfunc_end0:
	.size	crypto_kx_seed_keypair, .Lfunc_end0-crypto_kx_seed_keypair
	.cfi_endproc
	.file	2 "./include/sodium" "crypto_generichash.h"
	.file	3 "/home/leizhenyuu/opt/Anonymous_Repo" "llvm-project/build/lib/clang/21/include/__stddef_size_t.h"
	.file	4 "./include/sodium" "crypto_scalarmult.h"
                                        # -- End function
	.globl	crypto_kx_keypair               # -- Begin function crypto_kx_keypair
	.p2align	4
	.type	crypto_kx_keypair,@function
crypto_kx_keypair:                      # @crypto_kx_keypair
.Lfunc_begin1:
	.loc	1 25 0 is_stmt 1                # crypto_kx/crypto_kx.c:25:0
	.cfi_startproc
# %bb.0:
	#DEBUG_VALUE: crypto_kx_keypair:pk <- $rdi
	#DEBUG_VALUE: crypto_kx_keypair:sk <- $rsi
	pushq	%r14
	.cfi_def_cfa_offset 16
	pushq	%rbx
	.cfi_def_cfa_offset 24
	pushq	%rax
	.cfi_def_cfa_offset 32
	.cfi_offset %rbx, -24
	.cfi_offset %r14, -16
	movq	%rsi, %rbx
	movq	%rdi, %r14
.Ltmp7:
	.loc	1 29 5 prologue_end             # crypto_kx/crypto_kx.c:29:5
	movl	$32, %esi
.Ltmp8:
	#DEBUG_VALUE: crypto_kx_keypair:sk <- $rbx
	movq	%rbx, %rdi
.Ltmp9:
	#DEBUG_VALUE: crypto_kx_keypair:pk <- $r14
	callq	randombytes_buf@PLT
.Ltmp10:
	.loc	1 30 12                         # crypto_kx/crypto_kx.c:30:12
	movq	%r14, %rdi
	movq	%rbx, %rsi
	.loc	1 30 12 epilogue_begin is_stmt 0 # crypto_kx/crypto_kx.c:30:12
	addq	$8, %rsp
	.cfi_def_cfa_offset 24
	popq	%rbx
.Ltmp11:
	#DEBUG_VALUE: crypto_kx_keypair:sk <- $rsi
	.cfi_def_cfa_offset 16
	popq	%r14
.Ltmp12:
	#DEBUG_VALUE: crypto_kx_keypair:pk <- $rdi
	.cfi_def_cfa_offset 8
	jmp	crypto_scalarmult_base@PLT      # TAILCALL
.Ltmp13:
.Lfunc_end1:
	.size	crypto_kx_keypair, .Lfunc_end1-crypto_kx_keypair
	.cfi_endproc
	.file	5 "./include/sodium" "randombytes.h"
                                        # -- End function
	.globl	crypto_kx_client_session_keys   # -- Begin function crypto_kx_client_session_keys
	.p2align	4
	.type	crypto_kx_client_session_keys,@function
crypto_kx_client_session_keys:          # @crypto_kx_client_session_keys
.Lfunc_begin2:
	.loc	1 39 0 is_stmt 1                # crypto_kx/crypto_kx.c:39:0
	.cfi_startproc
# %bb.0:
	#DEBUG_VALUE: crypto_kx_client_session_keys:rx <- $rdi
	#DEBUG_VALUE: crypto_kx_client_session_keys:tx <- $rsi
	#DEBUG_VALUE: crypto_kx_client_session_keys:client_pk <- $rdx
	#DEBUG_VALUE: crypto_kx_client_session_keys:client_sk <- $rcx
	#DEBUG_VALUE: crypto_kx_client_session_keys:server_pk <- $r8
	pushq	%rbp
	.cfi_def_cfa_offset 16
	.cfi_offset %rbp, -16
	movq	%rsp, %rbp
	.cfi_def_cfa_register %rbp
	pushq	%r15
	pushq	%r14
	pushq	%r13
	pushq	%r12
	pushq	%rbx
	andq	$-64, %rsp
	subq	$576, %rsp                      # imm = 0x240
	.cfi_offset %rbx, -56
	.cfi_offset %r12, -48
	.cfi_offset %r13, -40
	.cfi_offset %r14, -32
	.cfi_offset %r15, -24
	movq	%rsi, %rbx
	movq	%fs:40, %rax
	movq	%rax, 512(%rsp)
.Ltmp14:
	.loc	1 45 12 prologue_end            # crypto_kx/crypto_kx.c:45:12
	testq	%rdi, %rdi
	movq	%rdi, %r13
	cmoveq	%rsi, %r13
.Ltmp15:
	#DEBUG_VALUE: crypto_kx_client_session_keys:rx <- $r13
	.loc	1 48 12                         # crypto_kx/crypto_kx.c:48:12
	testq	%rsi, %rsi
	cmoveq	%rdi, %rbx
.Ltmp16:
	#DEBUG_VALUE: crypto_kx_client_session_keys:tx <- $rbx
	.loc	1 51 12                         # crypto_kx/crypto_kx.c:51:12
	testq	%r13, %r13
	je	.LBB2_8
.Ltmp17:
# %bb.1:
	#DEBUG_VALUE: crypto_kx_client_session_keys:rx <- $r13
	#DEBUG_VALUE: crypto_kx_client_session_keys:tx <- $rbx
	#DEBUG_VALUE: crypto_kx_client_session_keys:client_pk <- $rdx
	#DEBUG_VALUE: crypto_kx_client_session_keys:client_sk <- $rcx
	#DEBUG_VALUE: crypto_kx_client_session_keys:server_pk <- $r8
	.loc	1 0 12 is_stmt 0                # crypto_kx/crypto_kx.c:0:12
	movq	%r8, %r14
	movq	%rdx, %r15
	leaq	96(%rsp), %rdi
.Ltmp18:
	.loc	1 54 9 is_stmt 1                # crypto_kx/crypto_kx.c:54:9
	movq	%rcx, %rsi
	movq	%r8, %rdx
.Ltmp19:
	#DEBUG_VALUE: crypto_kx_client_session_keys:client_pk <- $r15
	callq	crypto_scalarmult@PLT
.Ltmp20:
	#DEBUG_VALUE: crypto_kx_client_session_keys:server_pk <- $r14
	#DEBUG_VALUE: crypto_kx_client_session_keys:client_sk <- [DW_OP_LLVM_entry_value 1] $rcx
	movl	%eax, %ecx
	movl	$-1, %eax
	.loc	1 54 52 is_stmt 0               # crypto_kx/crypto_kx.c:54:52
	testl	%ecx, %ecx
	jne	.LBB2_6
.Ltmp21:
# %bb.2:                                # %vector.memcheck
	#DEBUG_VALUE: crypto_kx_client_session_keys:rx <- $r13
	#DEBUG_VALUE: crypto_kx_client_session_keys:tx <- $rbx
	#DEBUG_VALUE: crypto_kx_client_session_keys:client_pk <- $r15
	#DEBUG_VALUE: crypto_kx_client_session_keys:client_sk <- [DW_OP_LLVM_entry_value 1] $rcx
	#DEBUG_VALUE: crypto_kx_client_session_keys:server_pk <- $r14
	.loc	1 0 52                          # crypto_kx/crypto_kx.c:0:52
	leaq	128(%rsp), %r12
	.loc	1 58 5 is_stmt 1                # crypto_kx/crypto_kx.c:58:5
	movl	$64, %ecx
	movq	%r12, %rdi
	xorl	%esi, %esi
	xorl	%edx, %edx
	callq	crypto_generichash_init@PLT
.Ltmp22:
	.loc	1 0 5 is_stmt 0                 # crypto_kx/crypto_kx.c:0:5
	leaq	96(%rsp), %rsi
	.loc	1 59 5 is_stmt 1                # crypto_kx/crypto_kx.c:59:5
	movl	$32, %edx
	movq	%r12, %rdi
	callq	crypto_generichash_update@PLT
.Ltmp23:
	.loc	1 60 5                          # crypto_kx/crypto_kx.c:60:5
	movl	$32, %esi
	leaq	96(%rsp), %rdi
	callq	sodium_memzero@PLT
.Ltmp24:
	.loc	1 61 5                          # crypto_kx/crypto_kx.c:61:5
	movl	$32, %edx
	movq	%r12, %rdi
	movq	%r15, %rsi
	callq	crypto_generichash_update@PLT
.Ltmp25:
	.loc	1 62 5                          # crypto_kx/crypto_kx.c:62:5
	movl	$32, %edx
	movq	%r12, %rdi
	movq	%r14, %rsi
	callq	crypto_generichash_update@PLT
.Ltmp26:
	.loc	1 0 5 is_stmt 0                 # crypto_kx/crypto_kx.c:0:5
	leaq	32(%rsp), %rsi
	.loc	1 63 5 is_stmt 1                # crypto_kx/crypto_kx.c:63:5
	movl	$64, %edx
	movq	%r12, %rdi
	callq	crypto_generichash_final@PLT
.Ltmp27:
	.loc	1 64 5                          # crypto_kx/crypto_kx.c:64:5
	movl	$384, %esi                      # imm = 0x180
	movq	%r12, %rdi
	callq	sodium_memzero@PLT
.Ltmp28:
	#DEBUG_VALUE: crypto_kx_client_session_keys:i <- 0
	.loc	1 65 5                          # crypto_kx/crypto_kx.c:65:5
	movq	%rbx, %rax
	subq	%r13, %rax
	cmpq	$31, %rax
.Ltmp29:
	.loc	1 65 26 is_stmt 0               # crypto_kx/crypto_kx.c:65:26
	ja	.LBB2_9
.Ltmp30:
# %bb.3:                                # %scalar.ph.preheader
	#DEBUG_VALUE: crypto_kx_client_session_keys:rx <- $r13
	#DEBUG_VALUE: crypto_kx_client_session_keys:tx <- $rbx
	#DEBUG_VALUE: crypto_kx_client_session_keys:client_pk <- $r15
	#DEBUG_VALUE: crypto_kx_client_session_keys:client_sk <- [DW_OP_LLVM_entry_value 1] $rcx
	#DEBUG_VALUE: crypto_kx_client_session_keys:server_pk <- $r14
	#DEBUG_VALUE: crypto_kx_client_session_keys:i <- 0
	.loc	1 0 26                          # crypto_kx/crypto_kx.c:0:26
	xorl	%eax, %eax
.Ltmp31:
	.p2align	4
.LBB2_4:                                # %scalar.ph
                                        # =>This Inner Loop Header: Depth=1
	#DEBUG_VALUE: crypto_kx_client_session_keys:rx <- $r13
	#DEBUG_VALUE: crypto_kx_client_session_keys:tx <- $rbx
	#DEBUG_VALUE: crypto_kx_client_session_keys:client_pk <- $r15
	#DEBUG_VALUE: crypto_kx_client_session_keys:client_sk <- [DW_OP_LLVM_entry_value 1] $rcx
	#DEBUG_VALUE: crypto_kx_client_session_keys:server_pk <- $r14
	#DEBUG_VALUE: crypto_kx_client_session_keys:i <- $rax
	.loc	1 66 17 is_stmt 1               # crypto_kx/crypto_kx.c:66:17
	movzbl	32(%rsp,%rax), %ecx
	.loc	1 66 15 is_stmt 0               # crypto_kx/crypto_kx.c:66:15
	movb	%cl, (%r13,%rax)
	.loc	1 67 17 is_stmt 1               # crypto_kx/crypto_kx.c:67:17
	movzbl	64(%rsp,%rax), %ecx
	.loc	1 67 15 is_stmt 0               # crypto_kx/crypto_kx.c:67:15
	movb	%cl, (%rbx,%rax)
.Ltmp32:
	#DEBUG_VALUE: crypto_kx_client_session_keys:i <- [DW_OP_constu 1, DW_OP_or, DW_OP_stack_value] $rax
	.loc	1 66 17 is_stmt 1               # crypto_kx/crypto_kx.c:66:17
	movzbl	33(%rsp,%rax), %ecx
	.loc	1 66 15 is_stmt 0               # crypto_kx/crypto_kx.c:66:15
	movb	%cl, 1(%r13,%rax)
	.loc	1 67 24 is_stmt 1               # crypto_kx/crypto_kx.c:67:24
	movq	%rax, %rcx
	orq	$33, %rcx
	.loc	1 67 17 is_stmt 0               # crypto_kx/crypto_kx.c:67:17
	movzbl	32(%rsp,%rcx), %ecx
	.loc	1 67 15                         # crypto_kx/crypto_kx.c:67:15
	movb	%cl, 1(%rbx,%rax)
.Ltmp33:
	.loc	1 65 26 is_stmt 1               # crypto_kx/crypto_kx.c:65:26
	addq	$2, %rax
.Ltmp34:
	#DEBUG_VALUE: crypto_kx_client_session_keys:i <- $rax
	.loc	1 65 19 is_stmt 0               # crypto_kx/crypto_kx.c:65:19
	cmpq	$32, %rax
.Ltmp35:
	.loc	1 65 5                          # crypto_kx/crypto_kx.c:65:5
	jne	.LBB2_4
	jmp	.LBB2_5
.Ltmp36:
.LBB2_9:                                # %vector.body
	#DEBUG_VALUE: crypto_kx_client_session_keys:rx <- $r13
	#DEBUG_VALUE: crypto_kx_client_session_keys:tx <- $rbx
	#DEBUG_VALUE: crypto_kx_client_session_keys:client_pk <- $r15
	#DEBUG_VALUE: crypto_kx_client_session_keys:client_sk <- [DW_OP_LLVM_entry_value 1] $rcx
	#DEBUG_VALUE: crypto_kx_client_session_keys:server_pk <- $r14
	#DEBUG_VALUE: crypto_kx_client_session_keys:i <- 0
	.loc	1 66 17 is_stmt 1               # crypto_kx/crypto_kx.c:66:17
	movaps	32(%rsp), %xmm0
	movaps	48(%rsp), %xmm1
	.loc	1 66 15 is_stmt 0               # crypto_kx/crypto_kx.c:66:15
	movups	%xmm0, (%r13)
	movups	%xmm1, 16(%r13)
	.loc	1 67 17 is_stmt 1               # crypto_kx/crypto_kx.c:67:17
	movaps	64(%rsp), %xmm0
	movaps	80(%rsp), %xmm1
	.loc	1 67 15 is_stmt 0               # crypto_kx/crypto_kx.c:67:15
	movups	%xmm0, (%rbx)
	movups	%xmm1, 16(%rbx)
.Ltmp37:
.LBB2_5:                                # %.loopexit
	#DEBUG_VALUE: crypto_kx_client_session_keys:rx <- $r13
	#DEBUG_VALUE: crypto_kx_client_session_keys:tx <- $rbx
	#DEBUG_VALUE: crypto_kx_client_session_keys:client_pk <- $r15
	#DEBUG_VALUE: crypto_kx_client_session_keys:client_sk <- [DW_OP_LLVM_entry_value 1] $rcx
	#DEBUG_VALUE: crypto_kx_client_session_keys:server_pk <- $r14
	.loc	1 0 15                          # crypto_kx/crypto_kx.c:0:15
	leaq	32(%rsp), %rdi
	.loc	1 69 5 is_stmt 1                # crypto_kx/crypto_kx.c:69:5
	movl	$64, %esi
	callq	sodium_memzero@PLT
.Ltmp38:
	.loc	1 0 5 is_stmt 0                 # crypto_kx/crypto_kx.c:0:5
	xorl	%eax, %eax
.Ltmp39:
.LBB2_6:
	#DEBUG_VALUE: crypto_kx_client_session_keys:rx <- $r13
	#DEBUG_VALUE: crypto_kx_client_session_keys:tx <- $rbx
	#DEBUG_VALUE: crypto_kx_client_session_keys:client_pk <- $r15
	#DEBUG_VALUE: crypto_kx_client_session_keys:client_sk <- [DW_OP_LLVM_entry_value 1] $rcx
	#DEBUG_VALUE: crypto_kx_client_session_keys:server_pk <- $r14
	.loc	1 72 1 is_stmt 1                # crypto_kx/crypto_kx.c:72:1
	movq	%fs:40, %rcx
	cmpq	512(%rsp), %rcx
	jne	.LBB2_7
.Ltmp40:
# %bb.10:                               # %SP_return
	#DEBUG_VALUE: crypto_kx_client_session_keys:rx <- $r13
	#DEBUG_VALUE: crypto_kx_client_session_keys:tx <- $rbx
	#DEBUG_VALUE: crypto_kx_client_session_keys:client_pk <- $r15
	#DEBUG_VALUE: crypto_kx_client_session_keys:client_sk <- [DW_OP_LLVM_entry_value 1] $rcx
	#DEBUG_VALUE: crypto_kx_client_session_keys:server_pk <- $r14
	leaq	-40(%rbp), %rsp
	.loc	1 72 1 epilogue_begin is_stmt 0 # crypto_kx/crypto_kx.c:72:1
	popq	%rbx
.Ltmp41:
	popq	%r12
	popq	%r13
.Ltmp42:
	popq	%r14
.Ltmp43:
	#DEBUG_VALUE: crypto_kx_client_session_keys:server_pk <- [DW_OP_LLVM_entry_value 1] $r8
	popq	%r15
.Ltmp44:
	#DEBUG_VALUE: crypto_kx_client_session_keys:client_pk <- [DW_OP_LLVM_entry_value 1] $rdx
	popq	%rbp
	.cfi_def_cfa %rsp, 8
	retq
.Ltmp45:
.LBB2_8:
	.cfi_def_cfa %rbp, 16
	#DEBUG_VALUE: crypto_kx_client_session_keys:rx <- $r13
	#DEBUG_VALUE: crypto_kx_client_session_keys:tx <- $rbx
	#DEBUG_VALUE: crypto_kx_client_session_keys:client_pk <- $rdx
	#DEBUG_VALUE: crypto_kx_client_session_keys:client_sk <- $rcx
	#DEBUG_VALUE: crypto_kx_client_session_keys:server_pk <- $r8
	.loc	1 52 9 is_stmt 1                # crypto_kx/crypto_kx.c:52:9
	callq	sodium_misuse@PLT
.Ltmp46:
	#DEBUG_VALUE: crypto_kx_client_session_keys:server_pk <- [DW_OP_LLVM_entry_value 1] $r8
	#DEBUG_VALUE: crypto_kx_client_session_keys:client_sk <- [DW_OP_LLVM_entry_value 1] $rcx
	#DEBUG_VALUE: crypto_kx_client_session_keys:client_pk <- [DW_OP_LLVM_entry_value 1] $rdx
.LBB2_7:                                # %CallStackCheckFailBlk
	#DEBUG_VALUE: crypto_kx_client_session_keys:rx <- $r13
	#DEBUG_VALUE: crypto_kx_client_session_keys:tx <- $rbx
	#DEBUG_VALUE: crypto_kx_client_session_keys:client_pk <- $r15
	#DEBUG_VALUE: crypto_kx_client_session_keys:client_sk <- [DW_OP_LLVM_entry_value 1] $rcx
	#DEBUG_VALUE: crypto_kx_client_session_keys:server_pk <- $r14
	.loc	1 0 0 is_stmt 0                 # crypto_kx/crypto_kx.c:0
	callq	__stack_chk_fail@PLT
.Ltmp47:
.Lfunc_end2:
	.size	crypto_kx_client_session_keys, .Lfunc_end2-crypto_kx_client_session_keys
	.cfi_endproc
	.file	6 "./include/sodium" "crypto_generichash_blake2b.h"
	.file	7 "./include/sodium" "utils.h"
	.file	8 "./include/sodium" "core.h"
                                        # -- End function
	.globl	crypto_kx_server_session_keys   # -- Begin function crypto_kx_server_session_keys
	.p2align	4
	.type	crypto_kx_server_session_keys,@function
crypto_kx_server_session_keys:          # @crypto_kx_server_session_keys
.Lfunc_begin3:
	.loc	1 80 0 is_stmt 1                # crypto_kx/crypto_kx.c:80:0
	.cfi_startproc
# %bb.0:
	#DEBUG_VALUE: crypto_kx_server_session_keys:rx <- $rdi
	#DEBUG_VALUE: crypto_kx_server_session_keys:tx <- $rsi
	#DEBUG_VALUE: crypto_kx_server_session_keys:server_pk <- $rdx
	#DEBUG_VALUE: crypto_kx_server_session_keys:server_sk <- $rcx
	#DEBUG_VALUE: crypto_kx_server_session_keys:client_pk <- $r8
	pushq	%rbp
	.cfi_def_cfa_offset 16
	.cfi_offset %rbp, -16
	movq	%rsp, %rbp
	.cfi_def_cfa_register %rbp
	pushq	%r15
	pushq	%r14
	pushq	%r13
	pushq	%r12
	pushq	%rbx
	andq	$-64, %rsp
	subq	$576, %rsp                      # imm = 0x240
	.cfi_offset %rbx, -56
	.cfi_offset %r12, -48
	.cfi_offset %r13, -40
	.cfi_offset %r14, -32
	.cfi_offset %r15, -24
	movq	%rsi, %rbx
	movq	%fs:40, %rax
	movq	%rax, 512(%rsp)
.Ltmp48:
	.loc	1 86 12 prologue_end            # crypto_kx/crypto_kx.c:86:12
	testq	%rdi, %rdi
	movq	%rdi, %r14
	cmoveq	%rsi, %r14
.Ltmp49:
	#DEBUG_VALUE: crypto_kx_server_session_keys:rx <- $r14
	.loc	1 89 12                         # crypto_kx/crypto_kx.c:89:12
	testq	%rsi, %rsi
	cmoveq	%rdi, %rbx
.Ltmp50:
	#DEBUG_VALUE: crypto_kx_server_session_keys:tx <- $rbx
	.loc	1 92 12                         # crypto_kx/crypto_kx.c:92:12
	testq	%r14, %r14
	je	.LBB3_8
.Ltmp51:
# %bb.1:
	#DEBUG_VALUE: crypto_kx_server_session_keys:rx <- $r14
	#DEBUG_VALUE: crypto_kx_server_session_keys:tx <- $rbx
	#DEBUG_VALUE: crypto_kx_server_session_keys:server_pk <- $rdx
	#DEBUG_VALUE: crypto_kx_server_session_keys:server_sk <- $rcx
	#DEBUG_VALUE: crypto_kx_server_session_keys:client_pk <- $r8
	.loc	1 0 12 is_stmt 0                # crypto_kx/crypto_kx.c:0:12
	movq	%r8, %r15
	movq	%rdx, %r12
	leaq	96(%rsp), %rdi
.Ltmp52:
	.loc	1 95 9 is_stmt 1                # crypto_kx/crypto_kx.c:95:9
	movq	%rcx, %rsi
	movq	%r8, %rdx
.Ltmp53:
	#DEBUG_VALUE: crypto_kx_server_session_keys:server_pk <- $r12
	callq	crypto_scalarmult@PLT
.Ltmp54:
	#DEBUG_VALUE: crypto_kx_server_session_keys:client_pk <- $r15
	#DEBUG_VALUE: crypto_kx_server_session_keys:server_sk <- [DW_OP_LLVM_entry_value 1] $rcx
	movl	%eax, %ecx
	movl	$-1, %eax
	.loc	1 95 52 is_stmt 0               # crypto_kx/crypto_kx.c:95:52
	testl	%ecx, %ecx
	jne	.LBB3_6
.Ltmp55:
# %bb.2:                                # %vector.memcheck
	#DEBUG_VALUE: crypto_kx_server_session_keys:rx <- $r14
	#DEBUG_VALUE: crypto_kx_server_session_keys:tx <- $rbx
	#DEBUG_VALUE: crypto_kx_server_session_keys:server_pk <- $r12
	#DEBUG_VALUE: crypto_kx_server_session_keys:server_sk <- [DW_OP_LLVM_entry_value 1] $rcx
	#DEBUG_VALUE: crypto_kx_server_session_keys:client_pk <- $r15
	.loc	1 0 52                          # crypto_kx/crypto_kx.c:0:52
	movq	%r12, 24(%rsp)                  # 8-byte Spill
.Ltmp56:
	#DEBUG_VALUE: crypto_kx_server_session_keys:server_pk <- [DW_OP_plus_uconst 24] [$rsp+0]
	leaq	128(%rsp), %r12
	.loc	1 99 5 is_stmt 1                # crypto_kx/crypto_kx.c:99:5
	movl	$64, %ecx
	movq	%r12, %rdi
	xorl	%esi, %esi
	xorl	%edx, %edx
	callq	crypto_generichash_init@PLT
.Ltmp57:
	.loc	1 0 5 is_stmt 0                 # crypto_kx/crypto_kx.c:0:5
	leaq	96(%rsp), %r13
	.loc	1 100 5 is_stmt 1               # crypto_kx/crypto_kx.c:100:5
	movl	$32, %edx
	movq	%r12, %rdi
	movq	%r13, %rsi
	callq	crypto_generichash_update@PLT
.Ltmp58:
	.loc	1 101 5                         # crypto_kx/crypto_kx.c:101:5
	movl	$32, %esi
	movq	%r13, %rdi
	callq	sodium_memzero@PLT
.Ltmp59:
	.loc	1 102 5                         # crypto_kx/crypto_kx.c:102:5
	movl	$32, %edx
	movq	%r12, %rdi
	movq	%r15, %rsi
	callq	crypto_generichash_update@PLT
.Ltmp60:
	.loc	1 103 5                         # crypto_kx/crypto_kx.c:103:5
	movl	$32, %edx
	movq	%r12, %rdi
	movq	24(%rsp), %rsi                  # 8-byte Reload
	callq	crypto_generichash_update@PLT
.Ltmp61:
	.loc	1 0 5 is_stmt 0                 # crypto_kx/crypto_kx.c:0:5
	leaq	32(%rsp), %rsi
	.loc	1 104 5 is_stmt 1               # crypto_kx/crypto_kx.c:104:5
	movl	$64, %edx
	movq	%r12, %rdi
	callq	crypto_generichash_final@PLT
.Ltmp62:
	.loc	1 105 5                         # crypto_kx/crypto_kx.c:105:5
	movl	$384, %esi                      # imm = 0x180
	movq	%r12, %rdi
	callq	sodium_memzero@PLT
.Ltmp63:
	#DEBUG_VALUE: crypto_kx_server_session_keys:i <- 0
	.loc	1 106 5                         # crypto_kx/crypto_kx.c:106:5
	movq	%r14, %rax
	subq	%rbx, %rax
	cmpq	$31, %rax
.Ltmp64:
	.loc	1 106 26 is_stmt 0              # crypto_kx/crypto_kx.c:106:26
	ja	.LBB3_9
.Ltmp65:
# %bb.3:                                # %scalar.ph.preheader
	#DEBUG_VALUE: crypto_kx_server_session_keys:rx <- $r14
	#DEBUG_VALUE: crypto_kx_server_session_keys:tx <- $rbx
	#DEBUG_VALUE: crypto_kx_server_session_keys:server_pk <- [DW_OP_plus_uconst 24] [$rsp+0]
	#DEBUG_VALUE: crypto_kx_server_session_keys:server_sk <- [DW_OP_LLVM_entry_value 1] $rcx
	#DEBUG_VALUE: crypto_kx_server_session_keys:client_pk <- $r15
	#DEBUG_VALUE: crypto_kx_server_session_keys:i <- 0
	.loc	1 0 26                          # crypto_kx/crypto_kx.c:0:26
	xorl	%eax, %eax
.Ltmp66:
	.p2align	4
.LBB3_4:                                # %scalar.ph
                                        # =>This Inner Loop Header: Depth=1
	#DEBUG_VALUE: crypto_kx_server_session_keys:rx <- $r14
	#DEBUG_VALUE: crypto_kx_server_session_keys:tx <- $rbx
	#DEBUG_VALUE: crypto_kx_server_session_keys:server_pk <- [DW_OP_plus_uconst 24] [$rsp+0]
	#DEBUG_VALUE: crypto_kx_server_session_keys:server_sk <- [DW_OP_LLVM_entry_value 1] $rcx
	#DEBUG_VALUE: crypto_kx_server_session_keys:client_pk <- $r15
	#DEBUG_VALUE: crypto_kx_server_session_keys:i <- $rax
	.loc	1 107 17 is_stmt 1              # crypto_kx/crypto_kx.c:107:17
	movzbl	32(%rsp,%rax), %ecx
	.loc	1 107 15 is_stmt 0              # crypto_kx/crypto_kx.c:107:15
	movb	%cl, (%rbx,%rax)
	.loc	1 108 17 is_stmt 1              # crypto_kx/crypto_kx.c:108:17
	movzbl	64(%rsp,%rax), %ecx
	.loc	1 108 15 is_stmt 0              # crypto_kx/crypto_kx.c:108:15
	movb	%cl, (%r14,%rax)
.Ltmp67:
	#DEBUG_VALUE: crypto_kx_server_session_keys:i <- [DW_OP_constu 1, DW_OP_or, DW_OP_stack_value] $rax
	.loc	1 107 17 is_stmt 1              # crypto_kx/crypto_kx.c:107:17
	movzbl	33(%rsp,%rax), %ecx
	.loc	1 107 15 is_stmt 0              # crypto_kx/crypto_kx.c:107:15
	movb	%cl, 1(%rbx,%rax)
	.loc	1 108 24 is_stmt 1              # crypto_kx/crypto_kx.c:108:24
	movq	%rax, %rcx
	orq	$33, %rcx
	.loc	1 108 17 is_stmt 0              # crypto_kx/crypto_kx.c:108:17
	movzbl	32(%rsp,%rcx), %ecx
	.loc	1 108 15                        # crypto_kx/crypto_kx.c:108:15
	movb	%cl, 1(%r14,%rax)
.Ltmp68:
	.loc	1 106 26 is_stmt 1              # crypto_kx/crypto_kx.c:106:26
	addq	$2, %rax
.Ltmp69:
	#DEBUG_VALUE: crypto_kx_server_session_keys:i <- $rax
	.loc	1 106 19 is_stmt 0              # crypto_kx/crypto_kx.c:106:19
	cmpq	$32, %rax
.Ltmp70:
	.loc	1 106 5                         # crypto_kx/crypto_kx.c:106:5
	jne	.LBB3_4
	jmp	.LBB3_5
.Ltmp71:
.LBB3_9:                                # %vector.body
	#DEBUG_VALUE: crypto_kx_server_session_keys:rx <- $r14
	#DEBUG_VALUE: crypto_kx_server_session_keys:tx <- $rbx
	#DEBUG_VALUE: crypto_kx_server_session_keys:server_pk <- [DW_OP_plus_uconst 24] [$rsp+0]
	#DEBUG_VALUE: crypto_kx_server_session_keys:server_sk <- [DW_OP_LLVM_entry_value 1] $rcx
	#DEBUG_VALUE: crypto_kx_server_session_keys:client_pk <- $r15
	#DEBUG_VALUE: crypto_kx_server_session_keys:i <- 0
	.loc	1 107 17 is_stmt 1              # crypto_kx/crypto_kx.c:107:17
	movaps	32(%rsp), %xmm0
	movaps	48(%rsp), %xmm1
	.loc	1 107 15 is_stmt 0              # crypto_kx/crypto_kx.c:107:15
	movups	%xmm0, (%rbx)
	movups	%xmm1, 16(%rbx)
	.loc	1 108 17 is_stmt 1              # crypto_kx/crypto_kx.c:108:17
	movaps	64(%rsp), %xmm0
	movaps	80(%rsp), %xmm1
	.loc	1 108 15 is_stmt 0              # crypto_kx/crypto_kx.c:108:15
	movups	%xmm0, (%r14)
	movups	%xmm1, 16(%r14)
.Ltmp72:
.LBB3_5:                                # %.loopexit
	#DEBUG_VALUE: crypto_kx_server_session_keys:rx <- $r14
	#DEBUG_VALUE: crypto_kx_server_session_keys:tx <- $rbx
	#DEBUG_VALUE: crypto_kx_server_session_keys:server_pk <- [DW_OP_plus_uconst 24] [$rsp+0]
	#DEBUG_VALUE: crypto_kx_server_session_keys:server_sk <- [DW_OP_LLVM_entry_value 1] $rcx
	#DEBUG_VALUE: crypto_kx_server_session_keys:client_pk <- $r15
	.loc	1 0 15                          # crypto_kx/crypto_kx.c:0:15
	leaq	32(%rsp), %rdi
	.loc	1 110 5 is_stmt 1               # crypto_kx/crypto_kx.c:110:5
	movl	$64, %esi
	callq	sodium_memzero@PLT
.Ltmp73:
	.loc	1 0 5 is_stmt 0                 # crypto_kx/crypto_kx.c:0:5
	xorl	%eax, %eax
.Ltmp74:
.LBB3_6:
	#DEBUG_VALUE: crypto_kx_server_session_keys:rx <- $r14
	#DEBUG_VALUE: crypto_kx_server_session_keys:tx <- $rbx
	#DEBUG_VALUE: crypto_kx_server_session_keys:server_pk <- [DW_OP_LLVM_entry_value 1] $rdx
	#DEBUG_VALUE: crypto_kx_server_session_keys:server_sk <- [DW_OP_LLVM_entry_value 1] $rcx
	#DEBUG_VALUE: crypto_kx_server_session_keys:client_pk <- $r15
	.loc	1 113 1 is_stmt 1               # crypto_kx/crypto_kx.c:113:1
	movq	%fs:40, %rcx
	cmpq	512(%rsp), %rcx
	jne	.LBB3_7
.Ltmp75:
# %bb.10:                               # %SP_return
	#DEBUG_VALUE: crypto_kx_server_session_keys:rx <- $r14
	#DEBUG_VALUE: crypto_kx_server_session_keys:tx <- $rbx
	#DEBUG_VALUE: crypto_kx_server_session_keys:server_pk <- [DW_OP_LLVM_entry_value 1] $rdx
	#DEBUG_VALUE: crypto_kx_server_session_keys:server_sk <- [DW_OP_LLVM_entry_value 1] $rcx
	#DEBUG_VALUE: crypto_kx_server_session_keys:client_pk <- $r15
	leaq	-40(%rbp), %rsp
	.loc	1 113 1 epilogue_begin is_stmt 0 # crypto_kx/crypto_kx.c:113:1
	popq	%rbx
.Ltmp76:
	popq	%r12
	popq	%r13
	popq	%r14
.Ltmp77:
	popq	%r15
.Ltmp78:
	#DEBUG_VALUE: crypto_kx_server_session_keys:client_pk <- [DW_OP_LLVM_entry_value 1] $r8
	popq	%rbp
	.cfi_def_cfa %rsp, 8
	retq
.Ltmp79:
.LBB3_8:
	.cfi_def_cfa %rbp, 16
	#DEBUG_VALUE: crypto_kx_server_session_keys:rx <- $r14
	#DEBUG_VALUE: crypto_kx_server_session_keys:tx <- $rbx
	#DEBUG_VALUE: crypto_kx_server_session_keys:server_pk <- $rdx
	#DEBUG_VALUE: crypto_kx_server_session_keys:server_sk <- $rcx
	#DEBUG_VALUE: crypto_kx_server_session_keys:client_pk <- $r8
	.loc	1 93 9 is_stmt 1                # crypto_kx/crypto_kx.c:93:9
	callq	sodium_misuse@PLT
.Ltmp80:
	#DEBUG_VALUE: crypto_kx_server_session_keys:client_pk <- [DW_OP_LLVM_entry_value 1] $r8
	#DEBUG_VALUE: crypto_kx_server_session_keys:server_sk <- [DW_OP_LLVM_entry_value 1] $rcx
	#DEBUG_VALUE: crypto_kx_server_session_keys:server_pk <- [DW_OP_LLVM_entry_value 1] $rdx
.LBB3_7:                                # %CallStackCheckFailBlk
	#DEBUG_VALUE: crypto_kx_server_session_keys:rx <- $r14
	#DEBUG_VALUE: crypto_kx_server_session_keys:tx <- $rbx
	#DEBUG_VALUE: crypto_kx_server_session_keys:server_pk <- [DW_OP_LLVM_entry_value 1] $rdx
	#DEBUG_VALUE: crypto_kx_server_session_keys:server_sk <- [DW_OP_LLVM_entry_value 1] $rcx
	#DEBUG_VALUE: crypto_kx_server_session_keys:client_pk <- $r15
	.loc	1 0 0 is_stmt 0                 # crypto_kx/crypto_kx.c:0
	callq	__stack_chk_fail@PLT
.Ltmp81:
.Lfunc_end3:
	.size	crypto_kx_server_session_keys, .Lfunc_end3-crypto_kx_server_session_keys
	.cfi_endproc
                                        # -- End function
	.globl	crypto_kx_publickeybytes        # -- Begin function crypto_kx_publickeybytes
	.p2align	4
	.type	crypto_kx_publickeybytes,@function
crypto_kx_publickeybytes:               # @crypto_kx_publickeybytes
.Lfunc_begin4:
	.cfi_startproc
# %bb.0:
	.loc	1 118 5 prologue_end is_stmt 1  # crypto_kx/crypto_kx.c:118:5
	movl	$32, %eax
	retq
.Ltmp82:
.Lfunc_end4:
	.size	crypto_kx_publickeybytes, .Lfunc_end4-crypto_kx_publickeybytes
	.cfi_endproc
                                        # -- End function
	.globl	crypto_kx_secretkeybytes        # -- Begin function crypto_kx_secretkeybytes
	.p2align	4
	.type	crypto_kx_secretkeybytes,@function
crypto_kx_secretkeybytes:               # @crypto_kx_secretkeybytes
.Lfunc_begin5:
	.cfi_startproc
# %bb.0:
	.loc	1 124 5 prologue_end            # crypto_kx/crypto_kx.c:124:5
	movl	$32, %eax
	retq
.Ltmp83:
.Lfunc_end5:
	.size	crypto_kx_secretkeybytes, .Lfunc_end5-crypto_kx_secretkeybytes
	.cfi_endproc
                                        # -- End function
	.globl	crypto_kx_seedbytes             # -- Begin function crypto_kx_seedbytes
	.p2align	4
	.type	crypto_kx_seedbytes,@function
crypto_kx_seedbytes:                    # @crypto_kx_seedbytes
.Lfunc_begin6:
	.cfi_startproc
# %bb.0:
	.loc	1 130 5 prologue_end            # crypto_kx/crypto_kx.c:130:5
	movl	$32, %eax
	retq
.Ltmp84:
.Lfunc_end6:
	.size	crypto_kx_seedbytes, .Lfunc_end6-crypto_kx_seedbytes
	.cfi_endproc
                                        # -- End function
	.globl	crypto_kx_sessionkeybytes       # -- Begin function crypto_kx_sessionkeybytes
	.p2align	4
	.type	crypto_kx_sessionkeybytes,@function
crypto_kx_sessionkeybytes:              # @crypto_kx_sessionkeybytes
.Lfunc_begin7:
	.cfi_startproc
# %bb.0:
	.loc	1 136 5 prologue_end            # crypto_kx/crypto_kx.c:136:5
	movl	$32, %eax
	retq
.Ltmp85:
.Lfunc_end7:
	.size	crypto_kx_sessionkeybytes, .Lfunc_end7-crypto_kx_sessionkeybytes
	.cfi_endproc
                                        # -- End function
	.globl	crypto_kx_primitive             # -- Begin function crypto_kx_primitive
	.p2align	4
	.type	crypto_kx_primitive,@function
crypto_kx_primitive:                    # @crypto_kx_primitive
.Lfunc_begin8:
	.cfi_startproc
# %bb.0:
	.loc	1 142 5 prologue_end            # crypto_kx/crypto_kx.c:142:5
	leaq	.L.str(%rip), %rax
	retq
.Ltmp86:
.Lfunc_end8:
	.size	crypto_kx_primitive, .Lfunc_end8-crypto_kx_primitive
	.cfi_endproc
                                        # -- End function
	.type	.L.str,@object                  # @.str
	.section	.rodata.str1.1,"aMS",@progbits,1
.L.str:
	.asciz	"x25519blake2b"
	.size	.L.str, 14

	.section	".note.GNU-stack","",@progbits
	.addrsig
	.addrsig_sym __stack_chk_fail