	.file	"crypto_scrypt-common.c"
	.file	0 "/home/leizhenyuu/opt/Anonymous_Repo/libsodium_o2_attr_inline/src/libsodium" "crypto_scrypt-common.c" md5 0x4a6926c17e7cf9c0d6d485a18eb66560
	.file	1 "crypto_pwhash/scryptsalsa208sha256" "crypto_scrypt-common.c"
	.file	2 "/usr/include/x86_64-linux-gnu/bits" "types.h"
	.file	3 "/usr/include/x86_64-linux-gnu/bits" "stdint-uintn.h"
	.text
	.hidden	escrypt_parse_setting           # -- Begin function escrypt_parse_setting
	.globl	escrypt_parse_setting
	.p2align	4
	.type	escrypt_parse_setting,@function
escrypt_parse_setting:                  # @escrypt_parse_setting
.Lfunc_begin0:
	.loc	1 112 0                         # crypto_pwhash/scryptsalsa208sha256/crypto_scrypt-common.c:112:0
	.cfi_startproc
# %bb.0:
	#DEBUG_VALUE: escrypt_parse_setting:setting <- $rdi
	#DEBUG_VALUE: escrypt_parse_setting:N_log2_p <- $rsi
	#DEBUG_VALUE: escrypt_parse_setting:r_p <- $rdx
	#DEBUG_VALUE: escrypt_parse_setting:p_p <- $rcx
	pushq	%r15
	.cfi_def_cfa_offset 16
	pushq	%r14
	.cfi_def_cfa_offset 24
	pushq	%r13
	.cfi_def_cfa_offset 32
	pushq	%r12
	.cfi_def_cfa_offset 40
	pushq	%rbx
	.cfi_def_cfa_offset 48
	.cfi_offset %rbx, -48
	.cfi_offset %r12, -40
	.cfi_offset %r13, -32
	.cfi_offset %r14, -24
	.cfi_offset %r15, -16
	.loc	1 115 20 prologue_end           # crypto_pwhash/scryptsalsa208sha256/crypto_scrypt-common.c:115:20
	cmpb	$36, (%rdi)
	.loc	1 115 27 is_stmt 0              # crypto_pwhash/scryptsalsa208sha256/crypto_scrypt-common.c:115:27
	jne	.LBB0_5
.Ltmp0:
# %bb.1:
	#DEBUG_VALUE: escrypt_parse_setting:setting <- $rdi
	#DEBUG_VALUE: escrypt_parse_setting:N_log2_p <- $rsi
	#DEBUG_VALUE: escrypt_parse_setting:r_p <- $rdx
	#DEBUG_VALUE: escrypt_parse_setting:p_p <- $rcx
	.loc	1 115 41                        # crypto_pwhash/scryptsalsa208sha256/crypto_scrypt-common.c:115:41
	cmpb	$55, 1(%rdi)
	.loc	1 115 48                        # crypto_pwhash/scryptsalsa208sha256/crypto_scrypt-common.c:115:48
	jne	.LBB0_5
.Ltmp1:
# %bb.2:
	#DEBUG_VALUE: escrypt_parse_setting:setting <- $rdi
	#DEBUG_VALUE: escrypt_parse_setting:N_log2_p <- $rsi
	#DEBUG_VALUE: escrypt_parse_setting:r_p <- $rdx
	#DEBUG_VALUE: escrypt_parse_setting:p_p <- $rcx
	.loc	1 115 62                        # crypto_pwhash/scryptsalsa208sha256/crypto_scrypt-common.c:115:62
	cmpb	$36, 2(%rdi)
	.loc	1 115 48                        # crypto_pwhash/scryptsalsa208sha256/crypto_scrypt-common.c:115:48
	jne	.LBB0_5
.Ltmp2:
# %bb.3:
	#DEBUG_VALUE: escrypt_parse_setting:setting <- $rdi
	#DEBUG_VALUE: escrypt_parse_setting:N_log2_p <- $rsi
	#DEBUG_VALUE: escrypt_parse_setting:r_p <- $rdx
	#DEBUG_VALUE: escrypt_parse_setting:p_p <- $rcx
	#DEBUG_VALUE: escrypt_parse_setting:src <- [DW_OP_plus_uconst 3, DW_OP_stack_value] $rdi
	.loc	1 120 32 is_stmt 1              # crypto_pwhash/scryptsalsa208sha256/crypto_scrypt-common.c:120:32
	movzbl	3(%rdi), %eax
.Ltmp3:
	#DEBUG_VALUE: decode64_one:dst <- $rsi
	#DEBUG_VALUE: decode64_one:src <- undef
	.loc	1 77 23                         # crypto_pwhash/scryptsalsa208sha256/crypto_scrypt-common.c:77:23 @[ crypto_pwhash/scryptsalsa208sha256/crypto_scrypt-common.c:120:9 ]
	leaq	.L.str(%rip), %rbx
	movq	%rdx, %r15
.Ltmp4:
	#DEBUG_VALUE: escrypt_parse_setting:r_p <- $r15
	movl	$65, %edx
	movq	%rdi, %r12
.Ltmp5:
	#DEBUG_VALUE: escrypt_parse_setting:src <- [DW_OP_plus_uconst 3, DW_OP_stack_value] $r12
	#DEBUG_VALUE: escrypt_parse_setting:setting <- $r12
	movq	%rbx, %rdi
	movq	%rsi, %r13
.Ltmp6:
	#DEBUG_VALUE: decode64_one:dst <- $r13
	#DEBUG_VALUE: escrypt_parse_setting:N_log2_p <- $r13
	movl	%eax, %esi
	movq	%rcx, %r14
.Ltmp7:
	#DEBUG_VALUE: escrypt_parse_setting:p_p <- $r14
	callq	memchr@PLT
.Ltmp8:
	#DEBUG_VALUE: decode64_one:ptr <- $rax
	.loc	1 79 9                          # crypto_pwhash/scryptsalsa208sha256/crypto_scrypt-common.c:79:9 @[ crypto_pwhash/scryptsalsa208sha256/crypto_scrypt-common.c:120:9 ]
	movl	%eax, %ecx
	subl	%ebx, %ecx
	xorl	%edx, %edx
	testq	%rax, %rax
	cmovnel	%ecx, %edx
.Ltmp9:
	.loc	1 0 0 is_stmt 0                 # crypto_pwhash/scryptsalsa208sha256/crypto_scrypt-common.c:0 @[ crypto_pwhash/scryptsalsa208sha256/crypto_scrypt-common.c:120:9 ]
	movl	%edx, (%r13)
.Ltmp10:
	.loc	1 120 9 is_stmt 1               # crypto_pwhash/scryptsalsa208sha256/crypto_scrypt-common.c:120:9
	je	.LBB0_5
.Ltmp11:
# %bb.4:
	#DEBUG_VALUE: escrypt_parse_setting:setting <- $r12
	#DEBUG_VALUE: escrypt_parse_setting:N_log2_p <- $r13
	#DEBUG_VALUE: escrypt_parse_setting:r_p <- $r15
	#DEBUG_VALUE: escrypt_parse_setting:p_p <- $r14
	#DEBUG_VALUE: escrypt_parse_setting:src <- [DW_OP_plus_uconst 3, DW_OP_stack_value] $r12
	.loc	1 0 9 is_stmt 0                 # crypto_pwhash/scryptsalsa208sha256/crypto_scrypt-common.c:0:9
	movq	%r12, %rsi
	movq	%r15, %rdi
	.loc	1 123 8 is_stmt 1               # crypto_pwhash/scryptsalsa208sha256/crypto_scrypt-common.c:123:8
	addq	$4, %rsi
.Ltmp12:
	#DEBUG_VALUE: escrypt_parse_setting:src <- $rsi
	.loc	1 125 11                        # crypto_pwhash/scryptsalsa208sha256/crypto_scrypt-common.c:125:11
	callq	decode64_uint32
.Ltmp13:
	#DEBUG_VALUE: escrypt_parse_setting:src <- $rax
	.loc	1 126 10                        # crypto_pwhash/scryptsalsa208sha256/crypto_scrypt-common.c:126:10
	testq	%rax, %rax
	.loc	1 126 9 is_stmt 0               # crypto_pwhash/scryptsalsa208sha256/crypto_scrypt-common.c:126:9
	je	.LBB0_5
.Ltmp14:
# %bb.6:
	#DEBUG_VALUE: escrypt_parse_setting:setting <- $r12
	#DEBUG_VALUE: escrypt_parse_setting:N_log2_p <- $r13
	#DEBUG_VALUE: escrypt_parse_setting:r_p <- $r15
	#DEBUG_VALUE: escrypt_parse_setting:p_p <- $r14
	#DEBUG_VALUE: escrypt_parse_setting:src <- $rax
	.loc	1 0 9                           # crypto_pwhash/scryptsalsa208sha256/crypto_scrypt-common.c:0:9
	movq	%r14, %rdi
	.loc	1 130 11 is_stmt 1              # crypto_pwhash/scryptsalsa208sha256/crypto_scrypt-common.c:130:11
	movq	%rax, %rsi
	.loc	1 130 11 epilogue_begin is_stmt 0 # crypto_pwhash/scryptsalsa208sha256/crypto_scrypt-common.c:130:11
	popq	%rbx
	.cfi_def_cfa_offset 40
	popq	%r12
.Ltmp15:
	#DEBUG_VALUE: escrypt_parse_setting:setting <- [DW_OP_LLVM_entry_value 1] $rdi
	.cfi_def_cfa_offset 32
	popq	%r13
.Ltmp16:
	#DEBUG_VALUE: escrypt_parse_setting:N_log2_p <- [DW_OP_LLVM_entry_value 1] $rsi
	.cfi_def_cfa_offset 24
	popq	%r14
.Ltmp17:
	#DEBUG_VALUE: escrypt_parse_setting:p_p <- $rdi
	.cfi_def_cfa_offset 16
	popq	%r15
.Ltmp18:
	#DEBUG_VALUE: escrypt_parse_setting:r_p <- [DW_OP_LLVM_entry_value 1] $rdx
	.cfi_def_cfa_offset 8
	jmp	decode64_uint32                 # TAILCALL
.Ltmp19:
.LBB0_5:
	.cfi_def_cfa_offset 48
	#DEBUG_VALUE: escrypt_parse_setting:setting <- [DW_OP_LLVM_entry_value 1] $rdi
	#DEBUG_VALUE: escrypt_parse_setting:N_log2_p <- [DW_OP_LLVM_entry_value 1] $rsi
	#DEBUG_VALUE: escrypt_parse_setting:r_p <- [DW_OP_LLVM_entry_value 1] $rdx
	#DEBUG_VALUE: escrypt_parse_setting:p_p <- [DW_OP_LLVM_entry_value 1] $rcx
	.loc	1 135 1 is_stmt 1               # crypto_pwhash/scryptsalsa208sha256/crypto_scrypt-common.c:135:1
	xorl	%eax, %eax
	.loc	1 135 1 epilogue_begin is_stmt 0 # crypto_pwhash/scryptsalsa208sha256/crypto_scrypt-common.c:135:1
	popq	%rbx
	.cfi_def_cfa_offset 40
	popq	%r12
	.cfi_def_cfa_offset 32
	popq	%r13
	.cfi_def_cfa_offset 24
	popq	%r14
	.cfi_def_cfa_offset 16
	popq	%r15
	.cfi_def_cfa_offset 8
	retq
.Ltmp20:
.Lfunc_end0:
	.size	escrypt_parse_setting, .Lfunc_end0-escrypt_parse_setting
	.cfi_endproc
                                        # -- End function
	.p2align	4                               # -- Begin function decode64_uint32
	.type	decode64_uint32,@function
decode64_uint32:                        # @decode64_uint32
.Lfunc_begin1:
	.loc	1 90 0 is_stmt 1                # crypto_pwhash/scryptsalsa208sha256/crypto_scrypt-common.c:90:0
	.cfi_startproc
# %bb.0:
	#DEBUG_VALUE: decode64_uint32:dst <- $rdi
	#DEBUG_VALUE: decode64_uint32:src <- $rsi
	pushq	%rbp
	.cfi_def_cfa_offset 16
	pushq	%r15
	.cfi_def_cfa_offset 24
	pushq	%r14
	.cfi_def_cfa_offset 32
	pushq	%r13
	.cfi_def_cfa_offset 40
	pushq	%r12
	.cfi_def_cfa_offset 48
	pushq	%rbx
	.cfi_def_cfa_offset 56
	pushq	%rax
	.cfi_def_cfa_offset 64
	.cfi_offset %rbx, -56
	.cfi_offset %r12, -48
	.cfi_offset %r13, -40
	.cfi_offset %r14, -32
	.cfi_offset %r15, -24
	.cfi_offset %rbp, -16
	movq	%rsi, %r14
	movq	%rdi, %rbx
	#DEBUG_VALUE: decode64_uint32:dstbits <- 30
.Ltmp21:
	#DEBUG_VALUE: decode64_uint32:value <- 0
	#DEBUG_VALUE: decode64_uint32:bit <- 0
	.loc	1 97 32 prologue_end            # crypto_pwhash/scryptsalsa208sha256/crypto_scrypt-common.c:97:32
	movzbl	(%rsi), %esi
.Ltmp22:
	#DEBUG_VALUE: decode64_uint32:src <- $r14
	#DEBUG_VALUE: decode64_one:src <- undef
	.loc	1 77 23                         # crypto_pwhash/scryptsalsa208sha256/crypto_scrypt-common.c:77:23 @[ crypto_pwhash/scryptsalsa208sha256/crypto_scrypt-common.c:97:13 ]
	leaq	.L.str(%rip), %rdi
.Ltmp23:
	#DEBUG_VALUE: decode64_uint32:dst <- $rbx
	movl	$65, %edx
	callq	memchr@PLT
.Ltmp24:
	#DEBUG_VALUE: decode64_one:ptr <- $rax
	.loc	1 79 9                          # crypto_pwhash/scryptsalsa208sha256/crypto_scrypt-common.c:79:9 @[ crypto_pwhash/scryptsalsa208sha256/crypto_scrypt-common.c:97:13 ]
	testq	%rax, %rax
.Ltmp25:
	.loc	1 97 13                         # crypto_pwhash/scryptsalsa208sha256/crypto_scrypt-common.c:97:13
	je	.LBB1_1
.Ltmp26:
# %bb.2:
	#DEBUG_VALUE: decode64_uint32:dst <- $rbx
	#DEBUG_VALUE: decode64_uint32:src <- $r14
	#DEBUG_VALUE: decode64_uint32:dstbits <- 30
	#DEBUG_VALUE: decode64_uint32:value <- 0
	#DEBUG_VALUE: decode64_uint32:bit <- 0
	#DEBUG_VALUE: decode64_one:ptr <- $rax
	#DEBUG_VALUE: one <- [DW_OP_LLVM_arg 0, DW_OP_LLVM_convert 64 7, DW_OP_LLVM_convert 32 7, DW_OP_LLVM_arg 0, DW_OP_minus, DW_OP_stack_value] undef
	#DEBUG_VALUE: decode64_uint32:value <- [DW_OP_LLVM_arg 0, DW_OP_LLVM_convert 64 7, DW_OP_LLVM_convert 32 7, DW_OP_LLVM_arg 0, DW_OP_minus, DW_OP_stack_value] undef
	#DEBUG_VALUE: decode64_uint32:src <- [DW_OP_plus_uconst 1, DW_OP_stack_value] $r14
	#DEBUG_VALUE: decode64_uint32:bit <- 6
	.loc	1 0 13 is_stmt 0                # crypto_pwhash/scryptsalsa208sha256/crypto_scrypt-common.c:0:13
	movq	%rax, %rbp
.Ltmp27:
	#DEBUG_VALUE: decode64_one:ptr <- $rbp
	.loc	1 97 32                         # crypto_pwhash/scryptsalsa208sha256/crypto_scrypt-common.c:97:32
	movzbl	1(%r14), %esi
.Ltmp28:
	#DEBUG_VALUE: decode64_one:dst <- undef
	#DEBUG_VALUE: decode64_one:src <- undef
	.loc	1 77 23 is_stmt 1               # crypto_pwhash/scryptsalsa208sha256/crypto_scrypt-common.c:77:23 @[ crypto_pwhash/scryptsalsa208sha256/crypto_scrypt-common.c:97:13 ]
	leaq	.L.str(%rip), %rdi
	movl	$65, %edx
	callq	memchr@PLT
.Ltmp29:
	#DEBUG_VALUE: decode64_one:ptr <- $rax
	.loc	1 79 9                          # crypto_pwhash/scryptsalsa208sha256/crypto_scrypt-common.c:79:9 @[ crypto_pwhash/scryptsalsa208sha256/crypto_scrypt-common.c:97:13 ]
	testq	%rax, %rax
.Ltmp30:
	#DEBUG_VALUE: one <- undef
	.loc	1 97 13                         # crypto_pwhash/scryptsalsa208sha256/crypto_scrypt-common.c:97:13
	je	.LBB1_1
.Ltmp31:
# %bb.3:
	#DEBUG_VALUE: decode64_uint32:dst <- $rbx
	#DEBUG_VALUE: decode64_uint32:src <- [DW_OP_plus_uconst 1, DW_OP_stack_value] $r14
	#DEBUG_VALUE: decode64_uint32:dstbits <- 30
	#DEBUG_VALUE: decode64_uint32:bit <- 6
	#DEBUG_VALUE: decode64_one:ptr <- $rax
	.loc	1 0 0 is_stmt 0                 # crypto_pwhash/scryptsalsa208sha256/crypto_scrypt-common.c:0
	movq	%rax, %r15
.Ltmp32:
	#DEBUG_VALUE: one <- [DW_OP_LLVM_arg 0, DW_OP_LLVM_convert 64 7, DW_OP_LLVM_convert 32 7, DW_OP_LLVM_arg 0, DW_OP_minus, DW_OP_stack_value] undef
	#DEBUG_VALUE: decode64_uint32:value <- [DW_OP_LLVM_arg 0, DW_OP_LLVM_convert 64 7, DW_OP_LLVM_convert 32 7, DW_OP_LLVM_arg 0, DW_OP_minus, DW_OP_constu 6, DW_OP_shl, DW_OP_LLVM_arg 0, DW_OP_LLVM_convert 64 7, DW_OP_LLVM_convert 32 7, DW_OP_LLVM_arg 0, DW_OP_minus, DW_OP_or, DW_OP_stack_value] undef
	#DEBUG_VALUE: decode64_uint32:src <- [DW_OP_plus_uconst 2, DW_OP_stack_value] $r14
	#DEBUG_VALUE: decode64_uint32:bit <- 12
	.loc	1 97 32                         # crypto_pwhash/scryptsalsa208sha256/crypto_scrypt-common.c:97:32
	movzbl	2(%r14), %esi
.Ltmp33:
	#DEBUG_VALUE: decode64_one:dst <- undef
	#DEBUG_VALUE: decode64_one:src <- undef
	.loc	1 77 23 is_stmt 1               # crypto_pwhash/scryptsalsa208sha256/crypto_scrypt-common.c:77:23 @[ crypto_pwhash/scryptsalsa208sha256/crypto_scrypt-common.c:97:13 ]
	leaq	.L.str(%rip), %rdi
	movl	$65, %edx
	callq	memchr@PLT
.Ltmp34:
	#DEBUG_VALUE: decode64_one:ptr <- $r15
	#DEBUG_VALUE: decode64_one:ptr <- $rax
	.loc	1 79 9                          # crypto_pwhash/scryptsalsa208sha256/crypto_scrypt-common.c:79:9 @[ crypto_pwhash/scryptsalsa208sha256/crypto_scrypt-common.c:97:13 ]
	testq	%rax, %rax
.Ltmp35:
	#DEBUG_VALUE: one <- undef
	.loc	1 97 13                         # crypto_pwhash/scryptsalsa208sha256/crypto_scrypt-common.c:97:13
	je	.LBB1_1
.Ltmp36:
# %bb.4:
	#DEBUG_VALUE: decode64_uint32:dst <- $rbx
	#DEBUG_VALUE: decode64_uint32:src <- [DW_OP_plus_uconst 2, DW_OP_stack_value] $r14
	#DEBUG_VALUE: decode64_uint32:dstbits <- 30
	#DEBUG_VALUE: decode64_uint32:bit <- 12
	#DEBUG_VALUE: decode64_one:ptr <- $rax
	.loc	1 0 0 is_stmt 0                 # crypto_pwhash/scryptsalsa208sha256/crypto_scrypt-common.c:0
	movq	%rax, %r12
.Ltmp37:
	#DEBUG_VALUE: one <- [DW_OP_LLVM_arg 0, DW_OP_LLVM_convert 64 7, DW_OP_LLVM_convert 32 7, DW_OP_LLVM_arg 0, DW_OP_minus, DW_OP_stack_value] undef
	#DEBUG_VALUE: decode64_uint32:value <- [DW_OP_LLVM_arg 0, DW_OP_LLVM_convert 64 7, DW_OP_LLVM_convert 32 7, DW_OP_LLVM_arg 0, DW_OP_minus, DW_OP_constu 12, DW_OP_shl, DW_OP_LLVM_arg 0, DW_OP_LLVM_convert 64 7, DW_OP_LLVM_convert 32 7, DW_OP_LLVM_arg 0, DW_OP_minus, DW_OP_constu 6, DW_OP_shl, DW_OP_LLVM_arg 0, DW_OP_LLVM_convert 64 7, DW_OP_LLVM_convert 32 7, DW_OP_LLVM_arg 0, DW_OP_minus, DW_OP_or, DW_OP_or, DW_OP_stack_value] undef
	#DEBUG_VALUE: decode64_uint32:src <- [DW_OP_plus_uconst 3, DW_OP_stack_value] $r14
	#DEBUG_VALUE: decode64_uint32:bit <- 18
	.loc	1 97 32                         # crypto_pwhash/scryptsalsa208sha256/crypto_scrypt-common.c:97:32
	movzbl	3(%r14), %esi
.Ltmp38:
	#DEBUG_VALUE: decode64_one:dst <- undef
	#DEBUG_VALUE: decode64_one:src <- undef
	.loc	1 77 23 is_stmt 1               # crypto_pwhash/scryptsalsa208sha256/crypto_scrypt-common.c:77:23 @[ crypto_pwhash/scryptsalsa208sha256/crypto_scrypt-common.c:97:13 ]
	leaq	.L.str(%rip), %rdi
	movl	$65, %edx
	callq	memchr@PLT
.Ltmp39:
	#DEBUG_VALUE: decode64_one:ptr <- $r12
	#DEBUG_VALUE: decode64_one:ptr <- $rax
	.loc	1 79 9                          # crypto_pwhash/scryptsalsa208sha256/crypto_scrypt-common.c:79:9 @[ crypto_pwhash/scryptsalsa208sha256/crypto_scrypt-common.c:97:13 ]
	testq	%rax, %rax
.Ltmp40:
	#DEBUG_VALUE: one <- undef
	.loc	1 97 13                         # crypto_pwhash/scryptsalsa208sha256/crypto_scrypt-common.c:97:13
	je	.LBB1_1
.Ltmp41:
# %bb.5:
	#DEBUG_VALUE: decode64_uint32:dst <- $rbx
	#DEBUG_VALUE: decode64_uint32:src <- [DW_OP_plus_uconst 3, DW_OP_stack_value] $r14
	#DEBUG_VALUE: decode64_uint32:dstbits <- 30
	#DEBUG_VALUE: decode64_uint32:bit <- 18
	#DEBUG_VALUE: decode64_one:ptr <- $rax
	.loc	1 0 0 is_stmt 0                 # crypto_pwhash/scryptsalsa208sha256/crypto_scrypt-common.c:0
	movq	%rax, %r13
.Ltmp42:
	#DEBUG_VALUE: one <- [DW_OP_LLVM_arg 0, DW_OP_LLVM_convert 64 7, DW_OP_LLVM_convert 32 7, DW_OP_LLVM_arg 0, DW_OP_minus, DW_OP_stack_value] undef
	#DEBUG_VALUE: decode64_uint32:value <- [DW_OP_LLVM_arg 0, DW_OP_LLVM_convert 64 7, DW_OP_LLVM_convert 32 7, DW_OP_LLVM_arg 0, DW_OP_minus, DW_OP_constu 18, DW_OP_shl, DW_OP_LLVM_arg 0, DW_OP_LLVM_convert 64 7, DW_OP_LLVM_convert 32 7, DW_OP_LLVM_arg 0, DW_OP_minus, DW_OP_constu 12, DW_OP_shl, DW_OP_LLVM_arg 0, DW_OP_LLVM_convert 64 7, DW_OP_LLVM_convert 32 7, DW_OP_LLVM_arg 0, DW_OP_minus, DW_OP_constu 6, DW_OP_shl, DW_OP_LLVM_arg 0, DW_OP_LLVM_convert 64 7, DW_OP_LLVM_convert 32 7, DW_OP_LLVM_arg 0, DW_OP_minus, DW_OP_or, DW_OP_or, DW_OP_or, DW_OP_stack_value] undef
	#DEBUG_VALUE: decode64_uint32:src <- [DW_OP_plus_uconst 4, DW_OP_stack_value] $r14
	#DEBUG_VALUE: decode64_uint32:bit <- 24
	.loc	1 97 32                         # crypto_pwhash/scryptsalsa208sha256/crypto_scrypt-common.c:97:32
	movzbl	4(%r14), %esi
.Ltmp43:
	#DEBUG_VALUE: decode64_one:dst <- undef
	#DEBUG_VALUE: decode64_one:src <- undef
	.loc	1 77 23 is_stmt 1               # crypto_pwhash/scryptsalsa208sha256/crypto_scrypt-common.c:77:23 @[ crypto_pwhash/scryptsalsa208sha256/crypto_scrypt-common.c:97:13 ]
	leaq	.L.str(%rip), %rdi
	movl	$65, %edx
	callq	memchr@PLT
.Ltmp44:
	#DEBUG_VALUE: decode64_one:ptr <- $r13
	#DEBUG_VALUE: decode64_one:ptr <- $rax
	.loc	1 79 9                          # crypto_pwhash/scryptsalsa208sha256/crypto_scrypt-common.c:79:9 @[ crypto_pwhash/scryptsalsa208sha256/crypto_scrypt-common.c:97:13 ]
	testq	%rax, %rax
.Ltmp45:
	#DEBUG_VALUE: one <- undef
	.loc	1 97 13                         # crypto_pwhash/scryptsalsa208sha256/crypto_scrypt-common.c:97:13
	je	.LBB1_1
.Ltmp46:
# %bb.6:
	#DEBUG_VALUE: decode64_uint32:dst <- $rbx
	#DEBUG_VALUE: decode64_uint32:src <- [DW_OP_plus_uconst 4, DW_OP_stack_value] $r14
	#DEBUG_VALUE: decode64_uint32:dstbits <- 30
	#DEBUG_VALUE: decode64_uint32:bit <- 24
	#DEBUG_VALUE: decode64_one:ptr <- $rax
	.loc	1 0 0 is_stmt 0                 # crypto_pwhash/scryptsalsa208sha256/crypto_scrypt-common.c:0
	addq	$5, %r14
.Ltmp47:
	#DEBUG_VALUE: one <- [DW_OP_LLVM_arg 0, DW_OP_LLVM_arg 0, DW_OP_minus, DW_OP_stack_value] undef
	#DEBUG_VALUE: decode64_uint32:value <- [DW_OP_LLVM_arg 0, DW_OP_LLVM_arg 0, DW_OP_minus, DW_OP_constu 18, DW_OP_shl, DW_OP_LLVM_arg 0, DW_OP_LLVM_convert 64 7, DW_OP_LLVM_convert 32 7, DW_OP_LLVM_arg 0, DW_OP_minus, DW_OP_constu 12, DW_OP_shl, DW_OP_LLVM_arg 0, DW_OP_LLVM_convert 64 7, DW_OP_LLVM_convert 32 7, DW_OP_LLVM_arg 0, DW_OP_minus, DW_OP_constu 6, DW_OP_shl, DW_OP_LLVM_arg 0, DW_OP_LLVM_convert 64 7, DW_OP_LLVM_convert 32 7, DW_OP_LLVM_arg 0, DW_OP_minus, DW_OP_or, DW_OP_or, DW_OP_or, DW_OP_stack_value] undef
	.loc	1 79 9 is_stmt 1                # crypto_pwhash/scryptsalsa208sha256/crypto_scrypt-common.c:79:9 @[ crypto_pwhash/scryptsalsa208sha256/crypto_scrypt-common.c:97:13 ]
	leaq	.L.str(%rip), %rcx
	subl	%ecx, %r13d
.Ltmp48:
	#DEBUG_VALUE: one <- $r13d
	#DEBUG_VALUE: decode64_uint32:value <- [DW_OP_LLVM_arg 0, DW_OP_constu 18, DW_OP_shl, DW_OP_LLVM_arg 1, DW_OP_LLVM_convert 64 7, DW_OP_LLVM_convert 32 7, DW_OP_LLVM_arg 6, DW_OP_minus, DW_OP_constu 12, DW_OP_shl, DW_OP_LLVM_arg 2, DW_OP_LLVM_convert 64 7, DW_OP_LLVM_convert 32 7, DW_OP_LLVM_arg 5, DW_OP_minus, DW_OP_constu 6, DW_OP_shl, DW_OP_LLVM_arg 3, DW_OP_LLVM_convert 64 7, DW_OP_LLVM_convert 32 7, DW_OP_LLVM_arg 4, DW_OP_minus, DW_OP_or, DW_OP_or, DW_OP_or, DW_OP_stack_value] $r13d, $r12, $r15, $rbp, $ecx, $ecx, $ecx
	.loc	1 102 22                        # crypto_pwhash/scryptsalsa208sha256/crypto_scrypt-common.c:102:22
	shll	$18, %r13d
.Ltmp49:
	#DEBUG_VALUE: decode64_uint32:value <- [DW_OP_LLVM_arg 0, DW_OP_LLVM_arg 1, DW_OP_LLVM_convert 64 7, DW_OP_LLVM_convert 32 7, DW_OP_LLVM_arg 6, DW_OP_minus, DW_OP_constu 12, DW_OP_shl, DW_OP_LLVM_arg 2, DW_OP_LLVM_convert 64 7, DW_OP_LLVM_convert 32 7, DW_OP_LLVM_arg 5, DW_OP_minus, DW_OP_constu 6, DW_OP_shl, DW_OP_LLVM_arg 3, DW_OP_LLVM_convert 64 7, DW_OP_LLVM_convert 32 7, DW_OP_LLVM_arg 4, DW_OP_minus, DW_OP_or, DW_OP_or, DW_OP_or, DW_OP_stack_value] $r13d, $r12, $r15, $rbp, $ecx, $ecx, $ecx
	#DEBUG_VALUE: decode64_uint32:value <- [DW_OP_LLVM_arg 0, DW_OP_LLVM_arg 1, DW_OP_LLVM_convert 64 7, DW_OP_LLVM_convert 32 7, DW_OP_LLVM_arg 6, DW_OP_minus, DW_OP_constu 12, DW_OP_shl, DW_OP_LLVM_arg 2, DW_OP_LLVM_convert 64 7, DW_OP_LLVM_convert 32 7, DW_OP_LLVM_arg 5, DW_OP_minus, DW_OP_constu 6, DW_OP_shl, DW_OP_LLVM_arg 3, DW_OP_LLVM_convert 64 7, DW_OP_LLVM_convert 32 7, DW_OP_LLVM_arg 4, DW_OP_minus, DW_OP_or, DW_OP_or, DW_OP_or, DW_OP_stack_value] $r13d, $r12, $r15, $rbp, $ecx, $ecx, $ecx
	#DEBUG_VALUE: decode64_uint32:value <- [DW_OP_LLVM_arg 0, DW_OP_LLVM_arg 1, DW_OP_LLVM_arg 6, DW_OP_minus, DW_OP_constu 12, DW_OP_shl, DW_OP_LLVM_arg 2, DW_OP_LLVM_convert 64 7, DW_OP_LLVM_convert 32 7, DW_OP_LLVM_arg 5, DW_OP_minus, DW_OP_constu 6, DW_OP_shl, DW_OP_LLVM_arg 3, DW_OP_LLVM_convert 64 7, DW_OP_LLVM_convert 32 7, DW_OP_LLVM_arg 4, DW_OP_minus, DW_OP_or, DW_OP_or, DW_OP_or, DW_OP_stack_value] $r13d, $r12d, $r15, $rbp, $ecx, $ecx, $ecx
	.loc	1 79 9                          # crypto_pwhash/scryptsalsa208sha256/crypto_scrypt-common.c:79:9 @[ crypto_pwhash/scryptsalsa208sha256/crypto_scrypt-common.c:97:13 ]
	subl	%ecx, %r12d
.Ltmp50:
	#DEBUG_VALUE: one <- $r12d
	#DEBUG_VALUE: decode64_uint32:value <- [DW_OP_LLVM_arg 0, DW_OP_LLVM_arg 1, DW_OP_constu 12, DW_OP_shl, DW_OP_LLVM_arg 2, DW_OP_LLVM_convert 64 7, DW_OP_LLVM_convert 32 7, DW_OP_LLVM_arg 5, DW_OP_minus, DW_OP_constu 6, DW_OP_shl, DW_OP_LLVM_arg 3, DW_OP_LLVM_convert 64 7, DW_OP_LLVM_convert 32 7, DW_OP_LLVM_arg 4, DW_OP_minus, DW_OP_or, DW_OP_or, DW_OP_or, DW_OP_stack_value] $r13d, $r12d, $r15, $rbp, $ecx, $ecx
	.loc	1 102 22                        # crypto_pwhash/scryptsalsa208sha256/crypto_scrypt-common.c:102:22
	shll	$12, %r12d
.Ltmp51:
	#DEBUG_VALUE: decode64_uint32:value <- [DW_OP_LLVM_arg 0, DW_OP_LLVM_arg 1, DW_OP_LLVM_arg 2, DW_OP_LLVM_convert 64 7, DW_OP_LLVM_convert 32 7, DW_OP_LLVM_arg 5, DW_OP_minus, DW_OP_constu 6, DW_OP_shl, DW_OP_LLVM_arg 3, DW_OP_LLVM_convert 64 7, DW_OP_LLVM_convert 32 7, DW_OP_LLVM_arg 4, DW_OP_minus, DW_OP_or, DW_OP_or, DW_OP_or, DW_OP_stack_value] $r13d, $r12d, $r15, $rbp, $ecx, $ecx
	#DEBUG_VALUE: one <- [DW_OP_LLVM_arg 0, DW_OP_LLVM_convert 64 7, DW_OP_LLVM_convert 32 7, DW_OP_LLVM_arg 1, DW_OP_minus, DW_OP_stack_value] $r15, $ecx
	#DEBUG_VALUE: decode64_uint32:value <- [DW_OP_LLVM_arg 0, DW_OP_LLVM_arg 1, DW_OP_LLVM_arg 2, DW_OP_LLVM_convert 64 7, DW_OP_LLVM_convert 32 7, DW_OP_LLVM_arg 5, DW_OP_minus, DW_OP_constu 6, DW_OP_shl, DW_OP_LLVM_arg 3, DW_OP_LLVM_convert 64 7, DW_OP_LLVM_convert 32 7, DW_OP_LLVM_arg 4, DW_OP_minus, DW_OP_or, DW_OP_or, DW_OP_or, DW_OP_stack_value] $r13d, $r12d, $r15, $rbp, $ecx, $ecx
	.loc	1 102 15 is_stmt 0              # crypto_pwhash/scryptsalsa208sha256/crypto_scrypt-common.c:102:15
	orl	%r13d, %r12d
.Ltmp52:
	#DEBUG_VALUE: one <- [DW_OP_LLVM_arg 0, DW_OP_LLVM_arg 1, DW_OP_minus, DW_OP_stack_value] $r15d, $ecx
	#DEBUG_VALUE: decode64_uint32:value <- [DW_OP_LLVM_arg 0, DW_OP_LLVM_arg 1, DW_OP_LLVM_arg 2, DW_OP_LLVM_arg 5, DW_OP_minus, DW_OP_constu 6, DW_OP_shl, DW_OP_LLVM_arg 3, DW_OP_LLVM_convert 64 7, DW_OP_LLVM_convert 32 7, DW_OP_LLVM_arg 4, DW_OP_minus, DW_OP_or, DW_OP_or, DW_OP_or, DW_OP_stack_value] undef, undef, undef, undef, undef, undef
	.loc	1 79 9 is_stmt 1                # crypto_pwhash/scryptsalsa208sha256/crypto_scrypt-common.c:79:9 @[ crypto_pwhash/scryptsalsa208sha256/crypto_scrypt-common.c:97:13 ]
	subl	%ecx, %r15d
.Ltmp53:
	#DEBUG_VALUE: one <- $r15d
	#DEBUG_VALUE: decode64_uint32:value <- [DW_OP_LLVM_arg 0, DW_OP_LLVM_arg 1, DW_OP_LLVM_arg 2, DW_OP_constu 6, DW_OP_shl, DW_OP_LLVM_arg 3, DW_OP_LLVM_convert 64 7, DW_OP_LLVM_convert 32 7, DW_OP_LLVM_arg 4, DW_OP_minus, DW_OP_or, DW_OP_or, DW_OP_or, DW_OP_stack_value] undef, undef, undef, undef, undef
	.loc	1 102 22                        # crypto_pwhash/scryptsalsa208sha256/crypto_scrypt-common.c:102:22
	shll	$6, %r15d
.Ltmp54:
	#DEBUG_VALUE: decode64_uint32:value <- [DW_OP_LLVM_arg 0, DW_OP_LLVM_arg 1, DW_OP_LLVM_arg 2, DW_OP_LLVM_arg 3, DW_OP_LLVM_convert 64 7, DW_OP_LLVM_convert 32 7, DW_OP_LLVM_arg 4, DW_OP_minus, DW_OP_or, DW_OP_or, DW_OP_or, DW_OP_stack_value] undef, undef, undef, undef, undef
	#DEBUG_VALUE: one <- [DW_OP_LLVM_arg 0, DW_OP_LLVM_convert 64 7, DW_OP_LLVM_convert 32 7, DW_OP_LLVM_arg 1, DW_OP_minus, DW_OP_stack_value] $rbp, $ecx
	#DEBUG_VALUE: decode64_uint32:value <- [DW_OP_LLVM_arg 0, DW_OP_LLVM_arg 1, DW_OP_LLVM_arg 2, DW_OP_LLVM_arg 3, DW_OP_LLVM_convert 64 7, DW_OP_LLVM_convert 32 7, DW_OP_LLVM_arg 4, DW_OP_minus, DW_OP_or, DW_OP_or, DW_OP_or, DW_OP_stack_value] undef, undef, undef, undef, undef
	#DEBUG_VALUE: one <- [DW_OP_LLVM_arg 0, DW_OP_LLVM_arg 1, DW_OP_minus, DW_OP_stack_value] $ebp, $ecx
	#DEBUG_VALUE: decode64_uint32:value <- [DW_OP_LLVM_arg 0, DW_OP_LLVM_arg 1, DW_OP_LLVM_arg 2, DW_OP_LLVM_arg 3, DW_OP_LLVM_arg 4, DW_OP_minus, DW_OP_or, DW_OP_or, DW_OP_or, DW_OP_stack_value] undef, undef, undef, undef, undef
	.loc	1 79 9                          # crypto_pwhash/scryptsalsa208sha256/crypto_scrypt-common.c:79:9 @[ crypto_pwhash/scryptsalsa208sha256/crypto_scrypt-common.c:97:13 ]
	subl	%ecx, %ebp
.Ltmp55:
	#DEBUG_VALUE: one <- $ebp
	#DEBUG_VALUE: decode64_uint32:value <- [DW_OP_LLVM_arg 0, DW_OP_LLVM_arg 1, DW_OP_LLVM_arg 2, DW_OP_LLVM_arg 3, DW_OP_or, DW_OP_or, DW_OP_or, DW_OP_stack_value] undef, undef, undef, undef
	.loc	1 102 15                        # crypto_pwhash/scryptsalsa208sha256/crypto_scrypt-common.c:102:15
	orl	%r15d, %ebp
.Ltmp56:
	#DEBUG_VALUE: decode64_uint32:value <- [DW_OP_LLVM_arg 0, DW_OP_LLVM_arg 1, DW_OP_LLVM_arg 2, DW_OP_or, DW_OP_or, DW_OP_stack_value] undef, undef, undef
	#DEBUG_VALUE: decode64_uint32:value <- [DW_OP_LLVM_arg 0, DW_OP_LLVM_arg 1, DW_OP_or, DW_OP_stack_value] undef, undef
	orl	%r12d, %ebp
.Ltmp57:
	#DEBUG_VALUE: decode64_uint32:value <- $ebp
	.loc	1 79 9                          # crypto_pwhash/scryptsalsa208sha256/crypto_scrypt-common.c:79:9 @[ crypto_pwhash/scryptsalsa208sha256/crypto_scrypt-common.c:97:13 ]
	subl	%ecx, %eax
.Ltmp58:
	#DEBUG_VALUE: one <- $eax
	.loc	1 102 22                        # crypto_pwhash/scryptsalsa208sha256/crypto_scrypt-common.c:102:22
	shll	$24, %eax
.Ltmp59:
	.loc	1 102 15 is_stmt 0              # crypto_pwhash/scryptsalsa208sha256/crypto_scrypt-common.c:102:15
	orl	%ebp, %eax
.Ltmp60:
	#DEBUG_VALUE: decode64_uint32:value <- $eax
	#DEBUG_VALUE: decode64_uint32:bit <- 30
	#DEBUG_VALUE: decode64_uint32:src <- [DW_OP_plus_uconst 4, DW_OP_plus_uconst 1, DW_OP_stack_value] undef
	.loc	1 0 15                          # crypto_pwhash/scryptsalsa208sha256/crypto_scrypt-common.c:0:15
	jmp	.LBB1_7
.Ltmp61:
.LBB1_1:
	#DEBUG_VALUE: decode64_uint32:dst <- $rbx
	#DEBUG_VALUE: decode64_uint32:dstbits <- 30
	#DEBUG_VALUE: decode64_one:ptr <- $rax
	xorl	%eax, %eax
	xorl	%r14d, %r14d
.Ltmp62:
.LBB1_7:
	#DEBUG_VALUE: decode64_uint32:dst <- $rbx
	#DEBUG_VALUE: decode64_uint32:dstbits <- 30
	movl	%eax, (%rbx)
	.loc	1 107 1 is_stmt 1               # crypto_pwhash/scryptsalsa208sha256/crypto_scrypt-common.c:107:1
	movq	%r14, %rax
	.loc	1 107 1 epilogue_begin is_stmt 0 # crypto_pwhash/scryptsalsa208sha256/crypto_scrypt-common.c:107:1
	addq	$8, %rsp
	.cfi_def_cfa_offset 56
	popq	%rbx
.Ltmp63:
	#DEBUG_VALUE: decode64_uint32:dst <- [DW_OP_LLVM_entry_value 1] $rdi
	.cfi_def_cfa_offset 48
	popq	%r12
	.cfi_def_cfa_offset 40
	popq	%r13
	.cfi_def_cfa_offset 32
	popq	%r14
	.cfi_def_cfa_offset 24
	popq	%r15
	.cfi_def_cfa_offset 16
	popq	%rbp
	.cfi_def_cfa_offset 8
	retq
.Ltmp64:
.Lfunc_end1:
	.size	decode64_uint32, .Lfunc_end1-decode64_uint32
	.cfi_endproc
                                        # -- End function
	.hidden	escrypt_r                       # -- Begin function escrypt_r
	.globl	escrypt_r
	.p2align	4
	.type	escrypt_r,@function
escrypt_r:                              # @escrypt_r
.Lfunc_begin2:
	.loc	1 140 0 is_stmt 1               # crypto_pwhash/scryptsalsa208sha256/crypto_scrypt-common.c:140:0
	.cfi_startproc
# %bb.0:
	#DEBUG_VALUE: escrypt_r:local <- $rdi
	#DEBUG_VALUE: escrypt_r:passwd <- $rsi
	#DEBUG_VALUE: escrypt_r:passwdlen <- $rdx
	#DEBUG_VALUE: escrypt_r:setting <- $rcx
	#DEBUG_VALUE: escrypt_r:buf <- $r8
	#DEBUG_VALUE: escrypt_r:buflen <- $r9
	pushq	%rbp
	.cfi_def_cfa_offset 16
	pushq	%r15
	.cfi_def_cfa_offset 24
	pushq	%r14
	.cfi_def_cfa_offset 32
	pushq	%r13
	.cfi_def_cfa_offset 40
	pushq	%r12
	.cfi_def_cfa_offset 48
	pushq	%rbx
	.cfi_def_cfa_offset 56
	subq	$88, %rsp
	.cfi_def_cfa_offset 144
	.cfi_offset %rbx, -56
	.cfi_offset %r12, -48
	.cfi_offset %r13, -40
	.cfi_offset %r14, -32
	.cfi_offset %r15, -24
	.cfi_offset %rbp, -16
	movq	%r9, %r14
	movq	%r8, %rbx
	movq	%rcx, %r13
	movq	%rdx, %rbp
	movq	%rsi, %r15
	movq	%rdi, %r12
	movq	%fs:40, %rax
	movq	%rax, 80(%rsp)
.Ltmp65:
	.loc	1 154 13 prologue_end           # crypto_pwhash/scryptsalsa208sha256/crypto_scrypt-common.c:154:13
	testq	%r8, %r8
	je	.LBB2_2
.Ltmp66:
# %bb.1:
	#DEBUG_VALUE: escrypt_r:local <- $r12
	#DEBUG_VALUE: escrypt_r:passwd <- $r15
	#DEBUG_VALUE: escrypt_r:passwdlen <- $rbp
	#DEBUG_VALUE: escrypt_r:setting <- $r13
	#DEBUG_VALUE: escrypt_r:buf <- $rbx
	#DEBUG_VALUE: escrypt_r:buflen <- $r14
	.loc	1 155 9                         # crypto_pwhash/scryptsalsa208sha256/crypto_scrypt-common.c:155:9
	movq	%rbx, %rdi
	movq	%r14, %rsi
	callq	randombytes_buf@PLT
.Ltmp67:
.LBB2_2:
	#DEBUG_VALUE: escrypt_r:local <- $r12
	#DEBUG_VALUE: escrypt_r:passwd <- $r15
	#DEBUG_VALUE: escrypt_r:passwdlen <- $rbp
	#DEBUG_VALUE: escrypt_r:setting <- $r13
	#DEBUG_VALUE: escrypt_r:buf <- $rbx
	#DEBUG_VALUE: escrypt_r:buflen <- $r14
	#DEBUG_VALUE: escrypt_parse_setting:setting <- $r13
	#DEBUG_VALUE: escrypt_parse_setting:N_log2_p <- undef
	#DEBUG_VALUE: escrypt_parse_setting:r_p <- [DW_OP_plus_uconst 12, DW_OP_stack_value] $rsp
	#DEBUG_VALUE: escrypt_parse_setting:p_p <- [DW_OP_plus_uconst 8, DW_OP_stack_value] $rsp
	.loc	1 115 20                        # crypto_pwhash/scryptsalsa208sha256/crypto_scrypt-common.c:115:20 @[ crypto_pwhash/scryptsalsa208sha256/crypto_scrypt-common.c:158:11 ]
	cmpb	$36, (%r13)
	.loc	1 115 27 is_stmt 0              # crypto_pwhash/scryptsalsa208sha256/crypto_scrypt-common.c:115:27 @[ crypto_pwhash/scryptsalsa208sha256/crypto_scrypt-common.c:158:11 ]
	jne	.LBB2_45
.Ltmp68:
# %bb.3:
	#DEBUG_VALUE: escrypt_r:local <- $r12
	#DEBUG_VALUE: escrypt_r:passwd <- $r15
	#DEBUG_VALUE: escrypt_r:passwdlen <- $rbp
	#DEBUG_VALUE: escrypt_r:setting <- $r13
	#DEBUG_VALUE: escrypt_r:buf <- $rbx
	#DEBUG_VALUE: escrypt_r:buflen <- $r14
	#DEBUG_VALUE: escrypt_parse_setting:setting <- $r13
	#DEBUG_VALUE: escrypt_parse_setting:r_p <- [DW_OP_plus_uconst 12, DW_OP_stack_value] $rsp
	#DEBUG_VALUE: escrypt_parse_setting:p_p <- [DW_OP_plus_uconst 8, DW_OP_stack_value] $rsp
	.loc	1 115 41                        # crypto_pwhash/scryptsalsa208sha256/crypto_scrypt-common.c:115:41 @[ crypto_pwhash/scryptsalsa208sha256/crypto_scrypt-common.c:158:11 ]
	cmpb	$55, 1(%r13)
	.loc	1 115 48                        # crypto_pwhash/scryptsalsa208sha256/crypto_scrypt-common.c:115:48 @[ crypto_pwhash/scryptsalsa208sha256/crypto_scrypt-common.c:158:11 ]
	jne	.LBB2_45
.Ltmp69:
# %bb.4:
	#DEBUG_VALUE: escrypt_r:local <- $r12
	#DEBUG_VALUE: escrypt_r:passwd <- $r15
	#DEBUG_VALUE: escrypt_r:passwdlen <- $rbp
	#DEBUG_VALUE: escrypt_r:setting <- $r13
	#DEBUG_VALUE: escrypt_r:buf <- $rbx
	#DEBUG_VALUE: escrypt_r:buflen <- $r14
	#DEBUG_VALUE: escrypt_parse_setting:setting <- $r13
	#DEBUG_VALUE: escrypt_parse_setting:r_p <- [DW_OP_plus_uconst 12, DW_OP_stack_value] $rsp
	#DEBUG_VALUE: escrypt_parse_setting:p_p <- [DW_OP_plus_uconst 8, DW_OP_stack_value] $rsp
	.loc	1 115 62                        # crypto_pwhash/scryptsalsa208sha256/crypto_scrypt-common.c:115:62 @[ crypto_pwhash/scryptsalsa208sha256/crypto_scrypt-common.c:158:11 ]
	cmpb	$36, 2(%r13)
	.loc	1 115 48                        # crypto_pwhash/scryptsalsa208sha256/crypto_scrypt-common.c:115:48 @[ crypto_pwhash/scryptsalsa208sha256/crypto_scrypt-common.c:158:11 ]
	jne	.LBB2_45
.Ltmp70:
# %bb.5:
	#DEBUG_VALUE: escrypt_r:local <- $r12
	#DEBUG_VALUE: escrypt_r:passwd <- $r15
	#DEBUG_VALUE: escrypt_r:passwdlen <- $rbp
	#DEBUG_VALUE: escrypt_r:setting <- $r13
	#DEBUG_VALUE: escrypt_r:buf <- $rbx
	#DEBUG_VALUE: escrypt_r:buflen <- $r14
	#DEBUG_VALUE: escrypt_parse_setting:setting <- $r13
	#DEBUG_VALUE: escrypt_parse_setting:r_p <- [DW_OP_plus_uconst 12, DW_OP_stack_value] $rsp
	#DEBUG_VALUE: escrypt_parse_setting:p_p <- [DW_OP_plus_uconst 8, DW_OP_stack_value] $rsp
	#DEBUG_VALUE: escrypt_parse_setting:src <- [DW_OP_plus_uconst 3, DW_OP_stack_value] $r13
	.loc	1 0 48                          # crypto_pwhash/scryptsalsa208sha256/crypto_scrypt-common.c:0:48
	movq	%r14, (%rsp)                    # 8-byte Spill
.Ltmp71:
	#DEBUG_VALUE: escrypt_r:buflen <- [$rsp+0]
	.loc	1 120 32 is_stmt 1              # crypto_pwhash/scryptsalsa208sha256/crypto_scrypt-common.c:120:32 @[ crypto_pwhash/scryptsalsa208sha256/crypto_scrypt-common.c:158:11 ]
	movzbl	3(%r13), %esi
.Ltmp72:
	#DEBUG_VALUE: decode64_one:dst <- undef
	#DEBUG_VALUE: decode64_one:src <- undef
	.loc	1 77 23                         # crypto_pwhash/scryptsalsa208sha256/crypto_scrypt-common.c:77:23 @[ crypto_pwhash/scryptsalsa208sha256/crypto_scrypt-common.c:120:9 @[ crypto_pwhash/scryptsalsa208sha256/crypto_scrypt-common.c:158:11 ] ]
	leaq	.L.str(%rip), %rdi
	movl	$65, %edx
	callq	memchr@PLT
.Ltmp73:
	#DEBUG_VALUE: decode64_one:ptr <- $rax
	.loc	1 79 9                          # crypto_pwhash/scryptsalsa208sha256/crypto_scrypt-common.c:79:9 @[ crypto_pwhash/scryptsalsa208sha256/crypto_scrypt-common.c:120:9 @[ crypto_pwhash/scryptsalsa208sha256/crypto_scrypt-common.c:158:11 ] ]
	testq	%rax, %rax
.Ltmp74:
	#DEBUG_VALUE: escrypt_r:N_log2 <- undef
	.loc	1 120 9                         # crypto_pwhash/scryptsalsa208sha256/crypto_scrypt-common.c:120:9 @[ crypto_pwhash/scryptsalsa208sha256/crypto_scrypt-common.c:158:11 ]
	je	.LBB2_45
.Ltmp75:
# %bb.6:
	#DEBUG_VALUE: escrypt_r:local <- $r12
	#DEBUG_VALUE: escrypt_r:passwd <- $r15
	#DEBUG_VALUE: escrypt_r:passwdlen <- $rbp
	#DEBUG_VALUE: escrypt_r:setting <- $r13
	#DEBUG_VALUE: escrypt_r:buf <- $rbx
	#DEBUG_VALUE: escrypt_r:buflen <- [$rsp+0]
	#DEBUG_VALUE: escrypt_parse_setting:setting <- $r13
	#DEBUG_VALUE: escrypt_parse_setting:r_p <- [DW_OP_plus_uconst 12, DW_OP_stack_value] $rsp
	#DEBUG_VALUE: escrypt_parse_setting:p_p <- [DW_OP_plus_uconst 8, DW_OP_stack_value] $rsp
	#DEBUG_VALUE: escrypt_parse_setting:src <- [DW_OP_plus_uconst 3, DW_OP_stack_value] $r13
	.loc	1 0 0 is_stmt 0                 # crypto_pwhash/scryptsalsa208sha256/crypto_scrypt-common.c:0 @[ crypto_pwhash/scryptsalsa208sha256/crypto_scrypt-common.c:158:11 ]
	movq	%rax, %r14
	.loc	1 123 8 is_stmt 1               # crypto_pwhash/scryptsalsa208sha256/crypto_scrypt-common.c:123:8 @[ crypto_pwhash/scryptsalsa208sha256/crypto_scrypt-common.c:158:11 ]
	leaq	4(%r13), %rsi
.Ltmp76:
	#DEBUG_VALUE: escrypt_parse_setting:src <- $rsi
	.loc	1 0 8 is_stmt 0                 # crypto_pwhash/scryptsalsa208sha256/crypto_scrypt-common.c:0:8
	leaq	12(%rsp), %rdi
	.loc	1 125 11 is_stmt 1              # crypto_pwhash/scryptsalsa208sha256/crypto_scrypt-common.c:125:11 @[ crypto_pwhash/scryptsalsa208sha256/crypto_scrypt-common.c:158:11 ]
	callq	decode64_uint32
.Ltmp77:
	#DEBUG_VALUE: escrypt_parse_setting:src <- $rax
	.loc	1 126 10                        # crypto_pwhash/scryptsalsa208sha256/crypto_scrypt-common.c:126:10 @[ crypto_pwhash/scryptsalsa208sha256/crypto_scrypt-common.c:158:11 ]
	testq	%rax, %rax
	.loc	1 126 9 is_stmt 0               # crypto_pwhash/scryptsalsa208sha256/crypto_scrypt-common.c:126:9 @[ crypto_pwhash/scryptsalsa208sha256/crypto_scrypt-common.c:158:11 ]
	je	.LBB2_45
.Ltmp78:
# %bb.7:                                # %escrypt_parse_setting.exit
	#DEBUG_VALUE: escrypt_r:local <- $r12
	#DEBUG_VALUE: escrypt_r:passwd <- $r15
	#DEBUG_VALUE: escrypt_r:passwdlen <- $rbp
	#DEBUG_VALUE: escrypt_r:setting <- $r13
	#DEBUG_VALUE: escrypt_r:buf <- $rbx
	#DEBUG_VALUE: escrypt_r:buflen <- [$rsp+0]
	#DEBUG_VALUE: escrypt_parse_setting:setting <- $r13
	#DEBUG_VALUE: escrypt_parse_setting:r_p <- [DW_OP_plus_uconst 12, DW_OP_stack_value] $rsp
	#DEBUG_VALUE: escrypt_parse_setting:p_p <- [DW_OP_plus_uconst 8, DW_OP_stack_value] $rsp
	#DEBUG_VALUE: escrypt_parse_setting:src <- $rax
	.loc	1 0 9                           # crypto_pwhash/scryptsalsa208sha256/crypto_scrypt-common.c:0:9
	leaq	8(%rsp), %rdi
	.loc	1 130 11 is_stmt 1              # crypto_pwhash/scryptsalsa208sha256/crypto_scrypt-common.c:130:11 @[ crypto_pwhash/scryptsalsa208sha256/crypto_scrypt-common.c:158:11 ]
	movq	%rax, %rsi
	callq	decode64_uint32
.Ltmp79:
	#DEBUG_VALUE: escrypt_parse_setting:src <- $rax
	#DEBUG_VALUE: escrypt_r:src <- $rax
	#DEBUG_VALUE: escrypt_r:N_log2 <- undef
	.loc	1 159 10                        # crypto_pwhash/scryptsalsa208sha256/crypto_scrypt-common.c:159:10
	testq	%rax, %rax
	.loc	1 159 9 is_stmt 0               # crypto_pwhash/scryptsalsa208sha256/crypto_scrypt-common.c:159:9
	je	.LBB2_45
.Ltmp80:
# %bb.8:
	#DEBUG_VALUE: escrypt_r:local <- $r12
	#DEBUG_VALUE: escrypt_r:passwd <- $r15
	#DEBUG_VALUE: escrypt_r:passwdlen <- $rbp
	#DEBUG_VALUE: escrypt_r:setting <- $r13
	#DEBUG_VALUE: escrypt_r:buf <- $rbx
	#DEBUG_VALUE: escrypt_r:buflen <- [$rsp+0]
	#DEBUG_VALUE: escrypt_r:src <- $rax
	.loc	1 0 0                           # crypto_pwhash/scryptsalsa208sha256/crypto_scrypt-common.c:0
	movq	%rax, %rdi
	leaq	.L.str(%rip), %rax
.Ltmp81:
	#DEBUG_VALUE: escrypt_r:src <- $rdi
	subl	%eax, %r14d
	movl	$1, %eax
	.loc	1 162 22 is_stmt 1              # crypto_pwhash/scryptsalsa208sha256/crypto_scrypt-common.c:162:22
	movl	%r14d, %ecx
	shlq	%cl, %rax
.Ltmp82:
	#DEBUG_VALUE: escrypt_r:N <- $rax
	.loc	1 0 22 is_stmt 0                # crypto_pwhash/scryptsalsa208sha256/crypto_scrypt-common.c:0:22
	movq	%rax, 24(%rsp)                  # 8-byte Spill
.Ltmp83:
	#DEBUG_VALUE: escrypt_r:N <- [DW_OP_plus_uconst 24, DW_OP_deref] $rsp
	.loc	1 163 21 is_stmt 1              # crypto_pwhash/scryptsalsa208sha256/crypto_scrypt-common.c:163:21
	movq	%rdi, %rax
	subq	%r13, %rax
.Ltmp84:
	#DEBUG_VALUE: escrypt_r:prefixlen <- $rax
	#DEBUG_VALUE: escrypt_r:salt <- $rdi
	.loc	1 0 21 is_stmt 0                # crypto_pwhash/scryptsalsa208sha256/crypto_scrypt-common.c:0:21
	movq	%rax, 40(%rsp)                  # 8-byte Spill
.Ltmp85:
	#DEBUG_VALUE: escrypt_r:prefixlen <- [DW_OP_plus_uconst 40, DW_OP_deref] $rsp
	.loc	1 166 29 is_stmt 1              # crypto_pwhash/scryptsalsa208sha256/crypto_scrypt-common.c:166:29
	movl	$36, %esi
	movq	%rdi, %r14
	callq	strrchr@PLT
.Ltmp86:
	#DEBUG_VALUE: escrypt_r:salt <- $r14
	#DEBUG_VALUE: escrypt_r:src <- $r14
	#DEBUG_VALUE: escrypt_r:src <- $rax
	.loc	1 167 9                         # crypto_pwhash/scryptsalsa208sha256/crypto_scrypt-common.c:167:9
	testq	%rax, %rax
	movq	%r14, 32(%rsp)                  # 8-byte Spill
.Ltmp87:
	#DEBUG_VALUE: escrypt_r:salt <- [DW_OP_plus_uconst 32, DW_OP_deref] $rsp
	je	.LBB2_16
.Ltmp88:
# %bb.9:
	#DEBUG_VALUE: escrypt_r:local <- $r12
	#DEBUG_VALUE: escrypt_r:passwd <- $r15
	#DEBUG_VALUE: escrypt_r:passwdlen <- $rbp
	#DEBUG_VALUE: escrypt_r:setting <- $r13
	#DEBUG_VALUE: escrypt_r:buf <- $rbx
	#DEBUG_VALUE: escrypt_r:buflen <- [$rsp+0]
	#DEBUG_VALUE: escrypt_r:src <- $rax
	#DEBUG_VALUE: escrypt_r:N <- [DW_OP_plus_uconst 24, DW_OP_deref] $rsp
	#DEBUG_VALUE: escrypt_r:prefixlen <- [DW_OP_plus_uconst 40, DW_OP_deref] $rsp
	#DEBUG_VALUE: escrypt_r:salt <- [DW_OP_plus_uconst 32, DW_OP_deref] $rsp
	.loc	1 168 23                        # crypto_pwhash/scryptsalsa208sha256/crypto_scrypt-common.c:168:23
	subq	%r14, %rax
.Ltmp89:
	#DEBUG_VALUE: escrypt_r:saltlen <- $rax
	.loc	1 169 5                         # crypto_pwhash/scryptsalsa208sha256/crypto_scrypt-common.c:169:5
	jmp	.LBB2_17
.Ltmp90:
.LBB2_16:
	#DEBUG_VALUE: escrypt_r:local <- $r12
	#DEBUG_VALUE: escrypt_r:passwd <- $r15
	#DEBUG_VALUE: escrypt_r:passwdlen <- $rbp
	#DEBUG_VALUE: escrypt_r:setting <- $r13
	#DEBUG_VALUE: escrypt_r:buf <- $rbx
	#DEBUG_VALUE: escrypt_r:buflen <- [$rsp+0]
	#DEBUG_VALUE: escrypt_r:src <- $rax
	#DEBUG_VALUE: escrypt_r:N <- [DW_OP_plus_uconst 24, DW_OP_deref] $rsp
	#DEBUG_VALUE: escrypt_r:prefixlen <- [DW_OP_plus_uconst 40, DW_OP_deref] $rsp
	#DEBUG_VALUE: escrypt_r:salt <- [DW_OP_plus_uconst 32, DW_OP_deref] $rsp
	.loc	1 170 19                        # crypto_pwhash/scryptsalsa208sha256/crypto_scrypt-common.c:170:19
	movq	%r14, %rdi
	callq	strlen@PLT
.Ltmp91:
	#DEBUG_VALUE: escrypt_r:saltlen <- $rax
.LBB2_17:
	#DEBUG_VALUE: escrypt_r:local <- $r12
	#DEBUG_VALUE: escrypt_r:passwd <- $r15
	#DEBUG_VALUE: escrypt_r:passwdlen <- $rbp
	#DEBUG_VALUE: escrypt_r:setting <- $r13
	#DEBUG_VALUE: escrypt_r:buf <- $rbx
	#DEBUG_VALUE: escrypt_r:buflen <- [$rsp+0]
	#DEBUG_VALUE: escrypt_r:N <- [DW_OP_plus_uconst 24, DW_OP_deref] $rsp
	#DEBUG_VALUE: escrypt_r:prefixlen <- [DW_OP_plus_uconst 40, DW_OP_deref] $rsp
	#DEBUG_VALUE: escrypt_r:salt <- [DW_OP_plus_uconst 32, DW_OP_deref] $rsp
	#DEBUG_VALUE: escrypt_r:saltlen <- $rax
	#DEBUG_VALUE: escrypt_r:saltlen <- $rax
	.loc	1 0 19 is_stmt 0                # crypto_pwhash/scryptsalsa208sha256/crypto_scrypt-common.c:0:19
	movq	40(%rsp), %r14                  # 8-byte Reload
	.loc	1 173 15 is_stmt 1              # crypto_pwhash/scryptsalsa208sha256/crypto_scrypt-common.c:173:15
	leaq	(%rax,%r14), %rdx
	addq	$45, %rdx
.Ltmp92:
	#DEBUG_VALUE: escrypt_r:need <- $rdx
	.loc	1 174 14                        # crypto_pwhash/scryptsalsa208sha256/crypto_scrypt-common.c:174:14
	cmpq	(%rsp), %rdx                    # 8-byte Folded Reload
	seta	%cl
	cmpq	%rax, %rdx
	setb	%dl
.Ltmp93:
	.loc	1 174 23 is_stmt 0              # crypto_pwhash/scryptsalsa208sha256/crypto_scrypt-common.c:174:23
	orb	%cl, %dl
	jne	.LBB2_45
.Ltmp94:
# %bb.19:
	#DEBUG_VALUE: escrypt_r:local <- $r12
	#DEBUG_VALUE: escrypt_r:passwd <- $r15
	#DEBUG_VALUE: escrypt_r:passwdlen <- $rbp
	#DEBUG_VALUE: escrypt_r:setting <- $r13
	#DEBUG_VALUE: escrypt_r:buf <- $rbx
	#DEBUG_VALUE: escrypt_r:buflen <- [$rsp+0]
	#DEBUG_VALUE: escrypt_r:N <- [DW_OP_plus_uconst 24, DW_OP_deref] $rsp
	#DEBUG_VALUE: escrypt_r:prefixlen <- [DW_OP_plus_uconst 40, DW_OP_deref] $rsp
	#DEBUG_VALUE: escrypt_r:salt <- [DW_OP_plus_uconst 32, DW_OP_deref] $rsp
	#DEBUG_VALUE: escrypt_r:saltlen <- $rax
	.loc	1 0 23                          # crypto_pwhash/scryptsalsa208sha256/crypto_scrypt-common.c:0:23
	movq	%rax, 16(%rsp)                  # 8-byte Spill
.Ltmp95:
	#DEBUG_VALUE: escrypt_r:saltlen <- [DW_OP_plus_uconst 16, DW_OP_deref] $rsp
	.loc	1 179 9 is_stmt 1               # crypto_pwhash/scryptsalsa208sha256/crypto_scrypt-common.c:179:9
	callq	sodium_runtime_has_sse2@PLT
.Ltmp96:
	testl	%eax, %eax
	jne	.LBB2_21
.Ltmp97:
# %bb.20:
	#DEBUG_VALUE: escrypt_r:local <- $r12
	#DEBUG_VALUE: escrypt_r:passwd <- $r15
	#DEBUG_VALUE: escrypt_r:passwdlen <- $rbp
	#DEBUG_VALUE: escrypt_r:setting <- $r13
	#DEBUG_VALUE: escrypt_r:buf <- $rbx
	#DEBUG_VALUE: escrypt_r:buflen <- [$rsp+0]
	#DEBUG_VALUE: escrypt_r:N <- [DW_OP_plus_uconst 24, DW_OP_deref] $rsp
	#DEBUG_VALUE: escrypt_r:prefixlen <- [DW_OP_plus_uconst 40, DW_OP_deref] $rsp
	#DEBUG_VALUE: escrypt_r:salt <- [DW_OP_plus_uconst 32, DW_OP_deref] $rsp
	#DEBUG_VALUE: escrypt_r:saltlen <- [DW_OP_plus_uconst 16, DW_OP_deref] $rsp
	.loc	1 0 9 is_stmt 0                 # crypto_pwhash/scryptsalsa208sha256/crypto_scrypt-common.c:0:9
	movq	escrypt_kdf_nosse@GOTPCREL(%rip), %rax
	jmp	.LBB2_22
.Ltmp98:
.LBB2_21:
	#DEBUG_VALUE: escrypt_r:local <- $r12
	#DEBUG_VALUE: escrypt_r:passwd <- $r15
	#DEBUG_VALUE: escrypt_r:passwdlen <- $rbp
	#DEBUG_VALUE: escrypt_r:setting <- $r13
	#DEBUG_VALUE: escrypt_r:buf <- $rbx
	#DEBUG_VALUE: escrypt_r:buflen <- [$rsp+0]
	#DEBUG_VALUE: escrypt_r:N <- [DW_OP_plus_uconst 24, DW_OP_deref] $rsp
	#DEBUG_VALUE: escrypt_r:prefixlen <- [DW_OP_plus_uconst 40, DW_OP_deref] $rsp
	#DEBUG_VALUE: escrypt_r:salt <- [DW_OP_plus_uconst 32, DW_OP_deref] $rsp
	#DEBUG_VALUE: escrypt_r:saltlen <- [DW_OP_plus_uconst 16, DW_OP_deref] $rsp
	.loc	1 179 9                         # crypto_pwhash/scryptsalsa208sha256/crypto_scrypt-common.c:179:9
	movq	escrypt_kdf_sse@GOTPCREL(%rip), %rax
.Ltmp99:
.LBB2_22:
	#DEBUG_VALUE: escrypt_r:local <- $r12
	#DEBUG_VALUE: escrypt_r:passwd <- $r15
	#DEBUG_VALUE: escrypt_r:passwdlen <- $rbp
	#DEBUG_VALUE: escrypt_r:setting <- $r13
	#DEBUG_VALUE: escrypt_r:buf <- $rbx
	#DEBUG_VALUE: escrypt_r:buflen <- [$rsp+0]
	#DEBUG_VALUE: escrypt_r:N <- [DW_OP_plus_uconst 24, DW_OP_deref] $rsp
	#DEBUG_VALUE: escrypt_r:prefixlen <- [DW_OP_plus_uconst 40, DW_OP_deref] $rsp
	#DEBUG_VALUE: escrypt_r:salt <- [DW_OP_plus_uconst 32, DW_OP_deref] $rsp
	#DEBUG_VALUE: escrypt_r:saltlen <- [DW_OP_plus_uconst 16, DW_OP_deref] $rsp
	.loc	1 0 9                           # crypto_pwhash/scryptsalsa208sha256/crypto_scrypt-common.c:0:9
	movq	16(%rsp), %r8                   # 8-byte Reload
.Ltmp100:
	#DEBUG_VALUE: escrypt_r:escrypt_kdf <- $rax
	.loc	1 183 65 is_stmt 1              # crypto_pwhash/scryptsalsa208sha256/crypto_scrypt-common.c:183:65
	movl	12(%rsp), %r10d
	.loc	1 183 68 is_stmt 0              # crypto_pwhash/scryptsalsa208sha256/crypto_scrypt-common.c:183:68
	movl	8(%rsp), %r11d
	.loc	1 183 9                         # crypto_pwhash/scryptsalsa208sha256/crypto_scrypt-common.c:183:9
	movq	%r12, %rdi
	movq	%r15, %rsi
	movq	%rbp, %rdx
	movq	32(%rsp), %rcx                  # 8-byte Reload
	movq	%r8, %r15
.Ltmp101:
	#DEBUG_VALUE: escrypt_r:passwd <- $rsi
	.loc	1 0 9                           # crypto_pwhash/scryptsalsa208sha256/crypto_scrypt-common.c:0:9
	movq	24(%rsp), %r9                   # 8-byte Reload
	.loc	1 183 9                         # crypto_pwhash/scryptsalsa208sha256/crypto_scrypt-common.c:183:9
	pushq	$32
.Ltmp102:
	.cfi_adjust_cfa_offset 8
	leaq	56(%rsp), %r12
.Ltmp103:
	#DEBUG_VALUE: escrypt_r:local <- $rdi
	pushq	%r12
	.cfi_adjust_cfa_offset 8
	pushq	%r11
	.cfi_adjust_cfa_offset 8
	pushq	%r10
	.cfi_adjust_cfa_offset 8
	callq	*%rax
.Ltmp104:
	#DEBUG_VALUE: escrypt_r:passwd <- [DW_OP_LLVM_entry_value 1] $rsi
	#DEBUG_VALUE: escrypt_r:local <- [DW_OP_LLVM_entry_value 1] $rdi
	addq	$32, %rsp
	.cfi_adjust_cfa_offset -32
	testl	%eax, %eax
	jne	.LBB2_45
.Ltmp105:
# %bb.24:
	#DEBUG_VALUE: escrypt_r:local <- [DW_OP_LLVM_entry_value 1] $rdi
	#DEBUG_VALUE: escrypt_r:passwd <- [DW_OP_LLVM_entry_value 1] $rsi
	#DEBUG_VALUE: escrypt_r:passwdlen <- $rbp
	#DEBUG_VALUE: escrypt_r:setting <- $r13
	#DEBUG_VALUE: escrypt_r:buf <- $rbx
	#DEBUG_VALUE: escrypt_r:buflen <- [$rsp+0]
	#DEBUG_VALUE: escrypt_r:N <- [DW_OP_plus_uconst 24, DW_OP_deref] $rsp
	#DEBUG_VALUE: escrypt_r:prefixlen <- [DW_OP_plus_uconst 40, DW_OP_deref] $rsp
	#DEBUG_VALUE: escrypt_r:salt <- [DW_OP_plus_uconst 32, DW_OP_deref] $rsp
	#DEBUG_VALUE: escrypt_r:saltlen <- [DW_OP_plus_uconst 16, DW_OP_deref] $rsp
	.loc	1 0 0                           # crypto_pwhash/scryptsalsa208sha256/crypto_scrypt-common.c:0
	addq	%r14, %r15
.Ltmp106:
	#DEBUG_VALUE: escrypt_r:dst <- $rbx
	#DEBUG_VALUE: memcpy:__dest <- $rbx
	#DEBUG_VALUE: memcpy:__src <- $r13
	#DEBUG_VALUE: memcpy:__len <- $r15
	#DEBUG_VALUE: escrypt_r:dst <- [DW_OP_LLVM_arg 0, DW_OP_LLVM_arg 1, DW_OP_plus, DW_OP_stack_value] $rbx, $r15
	.file	4 "/usr/include/x86_64-linux-gnu/bits" "string_fortified.h"
	.loc	4 29 10 is_stmt 1               # /usr/include/x86_64-linux-gnu/bits/string_fortified.h:29:10 @[ crypto_pwhash/scryptsalsa208sha256/crypto_scrypt-common.c:188:5 ]
	movq	%rbx, %rdi
	movq	%r13, %rsi
	movq	%r15, %rdx
	callq	memcpy@PLT
.Ltmp107:
	.loc	1 190 9                         # crypto_pwhash/scryptsalsa208sha256/crypto_scrypt-common.c:190:9
	leaq	(%rbx,%r15), %r14
	incq	%r14
.Ltmp108:
	#DEBUG_VALUE: escrypt_r:dst <- $r14
	.loc	1 190 12 is_stmt 0              # crypto_pwhash/scryptsalsa208sha256/crypto_scrypt-common.c:190:12
	movb	$36, (%rbx,%r15)
	.loc	1 192 39 is_stmt 1              # crypto_pwhash/scryptsalsa208sha256/crypto_scrypt-common.c:192:39
	notq	%r15
.Ltmp109:
	.loc	1 192 32 is_stmt 0              # crypto_pwhash/scryptsalsa208sha256/crypto_scrypt-common.c:192:32
	addq	(%rsp), %r15                    # 8-byte Folded Reload
	#DEBUG_VALUE: encode64:dstlen <- $r15
	#DEBUG_VALUE: encode64:dst <- $r14
	#DEBUG_VALUE: encode64:src <- [DW_OP_plus_uconst 48, DW_OP_stack_value] $rsp
	#DEBUG_VALUE: encode64:srclen <- 32
	#DEBUG_VALUE: encode64:i <- 0
	xorl	%eax, %eax
	leaq	.L.str(%rip), %r8
	jmp	.LBB2_27
.Ltmp110:
.LBB2_25:                               #   in Loop: Header=BB2_27 Depth=1
	#DEBUG_VALUE: escrypt_r:local <- [DW_OP_LLVM_entry_value 1] $rdi
	#DEBUG_VALUE: escrypt_r:passwd <- [DW_OP_LLVM_entry_value 1] $rsi
	#DEBUG_VALUE: escrypt_r:passwdlen <- $rbp
	#DEBUG_VALUE: escrypt_r:setting <- $r13
	#DEBUG_VALUE: escrypt_r:buf <- $rbx
	#DEBUG_VALUE: escrypt_r:buflen <- [$rsp+0]
	#DEBUG_VALUE: escrypt_r:N <- [DW_OP_plus_uconst 24, DW_OP_deref] $rsp
	#DEBUG_VALUE: escrypt_r:prefixlen <- [DW_OP_plus_uconst 40, DW_OP_deref] $rsp
	#DEBUG_VALUE: escrypt_r:salt <- [DW_OP_plus_uconst 32, DW_OP_deref] $rsp
	#DEBUG_VALUE: escrypt_r:saltlen <- [DW_OP_plus_uconst 16, DW_OP_deref] $rsp
	#DEBUG_VALUE: encode64:dstlen <- $r15
	#DEBUG_VALUE: encode64:dst <- $r14
	#DEBUG_VALUE: encode64:src <- [DW_OP_plus_uconst 48, DW_OP_stack_value] $rsp
	#DEBUG_VALUE: encode64:srclen <- 32
	#DEBUG_VALUE: encode64:i <- $rax
	#DEBUG_VALUE: value <- $ecx
	#DEBUG_VALUE: encode64_uint32:bit <- 12
	#DEBUG_VALUE: encode64_uint32:dstlen <- [DW_OP_constu 2, DW_OP_minus, DW_OP_stack_value] $r15
	.loc	1 0 0                           # crypto_pwhash/scryptsalsa208sha256/crypto_scrypt-common.c:0 @[ crypto_pwhash/scryptsalsa208sha256/crypto_scrypt-common.c:64:17 @[ crypto_pwhash/scryptsalsa208sha256/crypto_scrypt-common.c:192:11 ] ]
	leaq	2(%r14), %rcx
.Ltmp111:
	#DEBUG_VALUE: encode64_uint32:dst <- $rcx
.LBB2_26:                               # %encode64_uint32.exit.i
                                        #   in Loop: Header=BB2_27 Depth=1
	#DEBUG_VALUE: escrypt_r:local <- [DW_OP_LLVM_entry_value 1] $rdi
	#DEBUG_VALUE: escrypt_r:passwd <- [DW_OP_LLVM_entry_value 1] $rsi
	#DEBUG_VALUE: escrypt_r:passwdlen <- $rbp
	#DEBUG_VALUE: escrypt_r:setting <- $r13
	#DEBUG_VALUE: escrypt_r:buf <- $rbx
	#DEBUG_VALUE: escrypt_r:buflen <- [$rsp+0]
	#DEBUG_VALUE: escrypt_r:N <- [DW_OP_plus_uconst 24, DW_OP_deref] $rsp
	#DEBUG_VALUE: escrypt_r:prefixlen <- [DW_OP_plus_uconst 40, DW_OP_deref] $rsp
	#DEBUG_VALUE: escrypt_r:salt <- [DW_OP_plus_uconst 32, DW_OP_deref] $rsp
	#DEBUG_VALUE: escrypt_r:saltlen <- [DW_OP_plus_uconst 16, DW_OP_deref] $rsp
	#DEBUG_VALUE: encode64:dstlen <- $r15
	#DEBUG_VALUE: encode64:dst <- $r14
	#DEBUG_VALUE: encode64:src <- [DW_OP_plus_uconst 48, DW_OP_stack_value] $rsp
	#DEBUG_VALUE: encode64:srclen <- 32
	#DEBUG_VALUE: encode64:i <- $rax
	#DEBUG_VALUE: dnext <- $rcx
	.loc	1 65 13 is_stmt 1               # crypto_pwhash/scryptsalsa208sha256/crypto_scrypt-common.c:65:13 @[ crypto_pwhash/scryptsalsa208sha256/crypto_scrypt-common.c:192:11 ]
	addq	%r14, %r15
.Ltmp112:
	subq	%rcx, %r15
	movq	%rcx, %r14
.Ltmp113:
	.loc	1 65 14 is_stmt 0               # crypto_pwhash/scryptsalsa208sha256/crypto_scrypt-common.c:65:14 @[ crypto_pwhash/scryptsalsa208sha256/crypto_scrypt-common.c:192:11 ]
	testq	%rcx, %rcx
.Ltmp114:
	#DEBUG_VALUE: encode64:dst <- undef
	#DEBUG_VALUE: encode64:dstlen <- undef
	.loc	1 0 14                          # crypto_pwhash/scryptsalsa208sha256/crypto_scrypt-common.c:0:14
	je	.LBB2_42
.Ltmp115:
.LBB2_27:                               # =>This Inner Loop Header: Depth=1
	#DEBUG_VALUE: escrypt_r:local <- [DW_OP_LLVM_entry_value 1] $rdi
	#DEBUG_VALUE: escrypt_r:passwd <- [DW_OP_LLVM_entry_value 1] $rsi
	#DEBUG_VALUE: escrypt_r:passwdlen <- $rbp
	#DEBUG_VALUE: escrypt_r:setting <- $r13
	#DEBUG_VALUE: escrypt_r:buf <- $rbx
	#DEBUG_VALUE: escrypt_r:buflen <- [$rsp+0]
	#DEBUG_VALUE: escrypt_r:N <- [DW_OP_plus_uconst 24, DW_OP_deref] $rsp
	#DEBUG_VALUE: escrypt_r:prefixlen <- [DW_OP_plus_uconst 40, DW_OP_deref] $rsp
	#DEBUG_VALUE: escrypt_r:salt <- [DW_OP_plus_uconst 32, DW_OP_deref] $rsp
	#DEBUG_VALUE: escrypt_r:saltlen <- [DW_OP_plus_uconst 16, DW_OP_deref] $rsp
	#DEBUG_VALUE: encode64:src <- [DW_OP_plus_uconst 48, DW_OP_stack_value] $rsp
	#DEBUG_VALUE: encode64:srclen <- 32
	#DEBUG_VALUE: encode64:i <- $rax
	#DEBUG_VALUE: encode64:dst <- $r14
	#DEBUG_VALUE: encode64:dstlen <- $r15
	.loc	1 55 19 is_stmt 1               # crypto_pwhash/scryptsalsa208sha256/crypto_scrypt-common.c:55:19 @[ crypto_pwhash/scryptsalsa208sha256/crypto_scrypt-common.c:192:11 ]
	cmpq	$31, %rax
.Ltmp116:
	.loc	1 55 5 is_stmt 0                # crypto_pwhash/scryptsalsa208sha256/crypto_scrypt-common.c:55:5 @[ crypto_pwhash/scryptsalsa208sha256/crypto_scrypt-common.c:192:11 ]
	ja	.LBB2_43
.Ltmp117:
# %bb.28:                               # %.preheader.i
                                        #   in Loop: Header=BB2_27 Depth=1
	#DEBUG_VALUE: escrypt_r:local <- [DW_OP_LLVM_entry_value 1] $rdi
	#DEBUG_VALUE: escrypt_r:passwd <- [DW_OP_LLVM_entry_value 1] $rsi
	#DEBUG_VALUE: escrypt_r:passwdlen <- $rbp
	#DEBUG_VALUE: escrypt_r:setting <- $r13
	#DEBUG_VALUE: escrypt_r:buf <- $rbx
	#DEBUG_VALUE: escrypt_r:buflen <- [$rsp+0]
	#DEBUG_VALUE: escrypt_r:N <- [DW_OP_plus_uconst 24, DW_OP_deref] $rsp
	#DEBUG_VALUE: escrypt_r:prefixlen <- [DW_OP_plus_uconst 40, DW_OP_deref] $rsp
	#DEBUG_VALUE: escrypt_r:salt <- [DW_OP_plus_uconst 32, DW_OP_deref] $rsp
	#DEBUG_VALUE: escrypt_r:saltlen <- [DW_OP_plus_uconst 16, DW_OP_deref] $rsp
	#DEBUG_VALUE: encode64:dstlen <- $r15
	#DEBUG_VALUE: encode64:dst <- $r14
	#DEBUG_VALUE: encode64:src <- [DW_OP_plus_uconst 48, DW_OP_stack_value] $rsp
	#DEBUG_VALUE: encode64:srclen <- 32
	#DEBUG_VALUE: encode64:i <- $rax
	.loc	1 0 0                           # crypto_pwhash/scryptsalsa208sha256/crypto_scrypt-common.c:0 @[ crypto_pwhash/scryptsalsa208sha256/crypto_scrypt-common.c:192:11 ]
	movq	%rax, %rdx
.Ltmp118:
	#DEBUG_VALUE: bits <- 0
	#DEBUG_VALUE: value <- 0
	#DEBUG_VALUE: encode64:i <- $rdx
	#DEBUG_VALUE: encode64:i <- undef
	.loc	1 60 33 is_stmt 1               # crypto_pwhash/scryptsalsa208sha256/crypto_scrypt-common.c:60:33 @[ crypto_pwhash/scryptsalsa208sha256/crypto_scrypt-common.c:192:11 ]
	movzbl	48(%rsp,%rax), %ecx
.Ltmp119:
	#DEBUG_VALUE: bits <- 8
	#DEBUG_VALUE: value <- $ecx
	.loc	1 62 9                          # crypto_pwhash/scryptsalsa208sha256/crypto_scrypt-common.c:62:9 @[ crypto_pwhash/scryptsalsa208sha256/crypto_scrypt-common.c:192:11 ]
	jne	.LBB2_30
.Ltmp120:
# %bb.29:                               #   in Loop: Header=BB2_27 Depth=1
	#DEBUG_VALUE: escrypt_r:local <- [DW_OP_LLVM_entry_value 1] $rdi
	#DEBUG_VALUE: escrypt_r:passwd <- [DW_OP_LLVM_entry_value 1] $rsi
	#DEBUG_VALUE: escrypt_r:passwdlen <- $rbp
	#DEBUG_VALUE: escrypt_r:setting <- $r13
	#DEBUG_VALUE: escrypt_r:buf <- $rbx
	#DEBUG_VALUE: escrypt_r:buflen <- [$rsp+0]
	#DEBUG_VALUE: escrypt_r:N <- [DW_OP_plus_uconst 24, DW_OP_deref] $rsp
	#DEBUG_VALUE: escrypt_r:prefixlen <- [DW_OP_plus_uconst 40, DW_OP_deref] $rsp
	#DEBUG_VALUE: escrypt_r:salt <- [DW_OP_plus_uconst 32, DW_OP_deref] $rsp
	#DEBUG_VALUE: escrypt_r:saltlen <- [DW_OP_plus_uconst 16, DW_OP_deref] $rsp
	#DEBUG_VALUE: encode64:dstlen <- $r15
	#DEBUG_VALUE: encode64:dst <- $r14
	#DEBUG_VALUE: encode64:src <- [DW_OP_plus_uconst 48, DW_OP_stack_value] $rsp
	#DEBUG_VALUE: encode64:srclen <- 32
	#DEBUG_VALUE: bits <- 8
	#DEBUG_VALUE: value <- $ecx
	.loc	1 0 9 is_stmt 0                 # crypto_pwhash/scryptsalsa208sha256/crypto_scrypt-common.c:0:9
	leaq	1(%rdx), %rax
.Ltmp121:
	#DEBUG_VALUE: encode64:i <- $rax
	jmp	.LBB2_33
.Ltmp122:
.LBB2_30:                               # %.preheader.i.1
                                        #   in Loop: Header=BB2_27 Depth=1
	#DEBUG_VALUE: escrypt_r:local <- [DW_OP_LLVM_entry_value 1] $rdi
	#DEBUG_VALUE: escrypt_r:passwd <- [DW_OP_LLVM_entry_value 1] $rsi
	#DEBUG_VALUE: escrypt_r:passwdlen <- $rbp
	#DEBUG_VALUE: escrypt_r:setting <- $r13
	#DEBUG_VALUE: escrypt_r:buf <- $rbx
	#DEBUG_VALUE: escrypt_r:buflen <- [$rsp+0]
	#DEBUG_VALUE: escrypt_r:N <- [DW_OP_plus_uconst 24, DW_OP_deref] $rsp
	#DEBUG_VALUE: escrypt_r:prefixlen <- [DW_OP_plus_uconst 40, DW_OP_deref] $rsp
	#DEBUG_VALUE: escrypt_r:salt <- [DW_OP_plus_uconst 32, DW_OP_deref] $rsp
	#DEBUG_VALUE: escrypt_r:saltlen <- [DW_OP_plus_uconst 16, DW_OP_deref] $rsp
	#DEBUG_VALUE: encode64:dstlen <- $r15
	#DEBUG_VALUE: encode64:dst <- $r14
	#DEBUG_VALUE: encode64:src <- [DW_OP_plus_uconst 48, DW_OP_stack_value] $rsp
	#DEBUG_VALUE: encode64:srclen <- 32
	#DEBUG_VALUE: bits <- 8
	#DEBUG_VALUE: value <- $ecx
	#DEBUG_VALUE: bits <- 8
	#DEBUG_VALUE: value <- $ecx
	#DEBUG_VALUE: encode64:i <- undef
	#DEBUG_VALUE: encode64:i <- undef
	.loc	1 60 33 is_stmt 1               # crypto_pwhash/scryptsalsa208sha256/crypto_scrypt-common.c:60:33 @[ crypto_pwhash/scryptsalsa208sha256/crypto_scrypt-common.c:192:11 ]
	movzbl	49(%rsp,%rdx), %eax
	.loc	1 60 42 is_stmt 0               # crypto_pwhash/scryptsalsa208sha256/crypto_scrypt-common.c:60:42 @[ crypto_pwhash/scryptsalsa208sha256/crypto_scrypt-common.c:192:11 ]
	shll	$8, %eax
	.loc	1 60 19                         # crypto_pwhash/scryptsalsa208sha256/crypto_scrypt-common.c:60:19 @[ crypto_pwhash/scryptsalsa208sha256/crypto_scrypt-common.c:192:11 ]
	orl	%eax, %ecx
.Ltmp123:
	#DEBUG_VALUE: value <- $ecx
	#DEBUG_VALUE: bits <- 16
	.loc	1 62 28 is_stmt 1               # crypto_pwhash/scryptsalsa208sha256/crypto_scrypt-common.c:62:28 @[ crypto_pwhash/scryptsalsa208sha256/crypto_scrypt-common.c:192:11 ]
	cmpq	$29, %rdx
.Ltmp124:
	.loc	1 62 9 is_stmt 0                # crypto_pwhash/scryptsalsa208sha256/crypto_scrypt-common.c:62:9 @[ crypto_pwhash/scryptsalsa208sha256/crypto_scrypt-common.c:192:11 ]
	ja	.LBB2_32
.Ltmp125:
# %bb.31:                               # %.preheader.i.2
                                        #   in Loop: Header=BB2_27 Depth=1
	#DEBUG_VALUE: escrypt_r:local <- [DW_OP_LLVM_entry_value 1] $rdi
	#DEBUG_VALUE: escrypt_r:passwd <- [DW_OP_LLVM_entry_value 1] $rsi
	#DEBUG_VALUE: escrypt_r:passwdlen <- $rbp
	#DEBUG_VALUE: escrypt_r:setting <- $r13
	#DEBUG_VALUE: escrypt_r:buf <- $rbx
	#DEBUG_VALUE: escrypt_r:buflen <- [$rsp+0]
	#DEBUG_VALUE: escrypt_r:N <- [DW_OP_plus_uconst 24, DW_OP_deref] $rsp
	#DEBUG_VALUE: escrypt_r:prefixlen <- [DW_OP_plus_uconst 40, DW_OP_deref] $rsp
	#DEBUG_VALUE: escrypt_r:salt <- [DW_OP_plus_uconst 32, DW_OP_deref] $rsp
	#DEBUG_VALUE: escrypt_r:saltlen <- [DW_OP_plus_uconst 16, DW_OP_deref] $rsp
	#DEBUG_VALUE: encode64:dstlen <- $r15
	#DEBUG_VALUE: encode64:dst <- $r14
	#DEBUG_VALUE: encode64:src <- [DW_OP_plus_uconst 48, DW_OP_stack_value] $rsp
	#DEBUG_VALUE: encode64:srclen <- 32
	#DEBUG_VALUE: bits <- 16
	#DEBUG_VALUE: value <- $ecx
	#DEBUG_VALUE: bits <- 16
	#DEBUG_VALUE: value <- $ecx
	#DEBUG_VALUE: encode64:i <- undef
	.loc	1 60 38 is_stmt 1               # crypto_pwhash/scryptsalsa208sha256/crypto_scrypt-common.c:60:38 @[ crypto_pwhash/scryptsalsa208sha256/crypto_scrypt-common.c:192:11 ]
	leaq	3(%rdx), %rax
.Ltmp126:
	#DEBUG_VALUE: encode64:i <- $rax
	.loc	1 60 33 is_stmt 0               # crypto_pwhash/scryptsalsa208sha256/crypto_scrypt-common.c:60:33 @[ crypto_pwhash/scryptsalsa208sha256/crypto_scrypt-common.c:192:11 ]
	movzbl	50(%rsp,%rdx), %esi
	.loc	1 60 42                         # crypto_pwhash/scryptsalsa208sha256/crypto_scrypt-common.c:60:42 @[ crypto_pwhash/scryptsalsa208sha256/crypto_scrypt-common.c:192:11 ]
	shll	$16, %esi
	.loc	1 60 19                         # crypto_pwhash/scryptsalsa208sha256/crypto_scrypt-common.c:60:19 @[ crypto_pwhash/scryptsalsa208sha256/crypto_scrypt-common.c:192:11 ]
	orl	%esi, %ecx
.Ltmp127:
	#DEBUG_VALUE: value <- $ecx
	.loc	1 0 19                          # crypto_pwhash/scryptsalsa208sha256/crypto_scrypt-common.c:0:19
	movb	$1, %sil
.Ltmp128:
	#DEBUG_VALUE: bits <- 24
	jmp	.LBB2_34
.Ltmp129:
.LBB2_32:                               #   in Loop: Header=BB2_27 Depth=1
	#DEBUG_VALUE: escrypt_r:local <- [DW_OP_LLVM_entry_value 1] $rdi
	#DEBUG_VALUE: escrypt_r:passwd <- [DW_OP_LLVM_entry_value 1] $rsi
	#DEBUG_VALUE: escrypt_r:passwdlen <- $rbp
	#DEBUG_VALUE: escrypt_r:setting <- $r13
	#DEBUG_VALUE: escrypt_r:buf <- $rbx
	#DEBUG_VALUE: escrypt_r:buflen <- [$rsp+0]
	#DEBUG_VALUE: escrypt_r:N <- [DW_OP_plus_uconst 24, DW_OP_deref] $rsp
	#DEBUG_VALUE: escrypt_r:prefixlen <- [DW_OP_plus_uconst 40, DW_OP_deref] $rsp
	#DEBUG_VALUE: escrypt_r:salt <- [DW_OP_plus_uconst 32, DW_OP_deref] $rsp
	#DEBUG_VALUE: escrypt_r:saltlen <- [DW_OP_plus_uconst 16, DW_OP_deref] $rsp
	#DEBUG_VALUE: encode64:dstlen <- $r15
	#DEBUG_VALUE: encode64:dst <- $r14
	#DEBUG_VALUE: encode64:src <- [DW_OP_plus_uconst 48, DW_OP_stack_value] $rsp
	#DEBUG_VALUE: encode64:srclen <- 32
	#DEBUG_VALUE: bits <- 16
	#DEBUG_VALUE: value <- $ecx
	leaq	2(%rdx), %rax
.Ltmp130:
	#DEBUG_VALUE: encode64:i <- $rax
.LBB2_33:                               # %.lr.ph.i.i
                                        #   in Loop: Header=BB2_27 Depth=1
	#DEBUG_VALUE: escrypt_r:local <- [DW_OP_LLVM_entry_value 1] $rdi
	#DEBUG_VALUE: escrypt_r:passwd <- [DW_OP_LLVM_entry_value 1] $rsi
	#DEBUG_VALUE: escrypt_r:passwdlen <- $rbp
	#DEBUG_VALUE: escrypt_r:setting <- $r13
	#DEBUG_VALUE: escrypt_r:buf <- $rbx
	#DEBUG_VALUE: escrypt_r:buflen <- [$rsp+0]
	#DEBUG_VALUE: escrypt_r:N <- [DW_OP_plus_uconst 24, DW_OP_deref] $rsp
	#DEBUG_VALUE: escrypt_r:prefixlen <- [DW_OP_plus_uconst 40, DW_OP_deref] $rsp
	#DEBUG_VALUE: escrypt_r:salt <- [DW_OP_plus_uconst 32, DW_OP_deref] $rsp
	#DEBUG_VALUE: escrypt_r:saltlen <- [DW_OP_plus_uconst 16, DW_OP_deref] $rsp
	#DEBUG_VALUE: encode64:dstlen <- $r15
	#DEBUG_VALUE: encode64:dst <- $r14
	#DEBUG_VALUE: encode64:src <- [DW_OP_plus_uconst 48, DW_OP_stack_value] $rsp
	#DEBUG_VALUE: encode64:srclen <- 32
	#DEBUG_VALUE: encode64:i <- $rax
	#DEBUG_VALUE: value <- $ecx
	xorl	%esi, %esi
.Ltmp131:
.LBB2_34:                               # %.lr.ph.i.i
                                        #   in Loop: Header=BB2_27 Depth=1
	#DEBUG_VALUE: escrypt_r:local <- [DW_OP_LLVM_entry_value 1] $rdi
	#DEBUG_VALUE: escrypt_r:passwd <- [DW_OP_LLVM_entry_value 1] $rsi
	#DEBUG_VALUE: escrypt_r:passwdlen <- $rbp
	#DEBUG_VALUE: escrypt_r:setting <- $r13
	#DEBUG_VALUE: escrypt_r:buf <- $rbx
	#DEBUG_VALUE: escrypt_r:buflen <- [$rsp+0]
	#DEBUG_VALUE: escrypt_r:N <- [DW_OP_plus_uconst 24, DW_OP_deref] $rsp
	#DEBUG_VALUE: escrypt_r:prefixlen <- [DW_OP_plus_uconst 40, DW_OP_deref] $rsp
	#DEBUG_VALUE: escrypt_r:salt <- [DW_OP_plus_uconst 32, DW_OP_deref] $rsp
	#DEBUG_VALUE: escrypt_r:saltlen <- [DW_OP_plus_uconst 16, DW_OP_deref] $rsp
	#DEBUG_VALUE: encode64:dstlen <- $r15
	#DEBUG_VALUE: encode64:dst <- $r14
	#DEBUG_VALUE: encode64:src <- [DW_OP_plus_uconst 48, DW_OP_stack_value] $rsp
	#DEBUG_VALUE: encode64:srclen <- 32
	#DEBUG_VALUE: encode64:i <- $rax
	#DEBUG_VALUE: value <- $ecx
	#DEBUG_VALUE: encode64_uint32:bit <- 0
	#DEBUG_VALUE: encode64_uint32:src <- $ecx
	#DEBUG_VALUE: encode64_uint32:dstlen <- $r15
	#DEBUG_VALUE: encode64_uint32:dst <- $r14
	.loc	1 40 20 is_stmt 1               # crypto_pwhash/scryptsalsa208sha256/crypto_scrypt-common.c:40:20 @[ crypto_pwhash/scryptsalsa208sha256/crypto_scrypt-common.c:64:17 @[ crypto_pwhash/scryptsalsa208sha256/crypto_scrypt-common.c:192:11 ] ]
	testq	%r15, %r15
	je	.LBB2_42
.Ltmp132:
# %bb.35:                               # %.lr.ph.i.i.1
                                        #   in Loop: Header=BB2_27 Depth=1
	#DEBUG_VALUE: escrypt_r:local <- [DW_OP_LLVM_entry_value 1] $rdi
	#DEBUG_VALUE: escrypt_r:passwd <- [DW_OP_LLVM_entry_value 1] $rsi
	#DEBUG_VALUE: escrypt_r:passwdlen <- $rbp
	#DEBUG_VALUE: escrypt_r:setting <- $r13
	#DEBUG_VALUE: escrypt_r:buf <- $rbx
	#DEBUG_VALUE: escrypt_r:buflen <- [$rsp+0]
	#DEBUG_VALUE: escrypt_r:N <- [DW_OP_plus_uconst 24, DW_OP_deref] $rsp
	#DEBUG_VALUE: escrypt_r:prefixlen <- [DW_OP_plus_uconst 40, DW_OP_deref] $rsp
	#DEBUG_VALUE: escrypt_r:salt <- [DW_OP_plus_uconst 32, DW_OP_deref] $rsp
	#DEBUG_VALUE: escrypt_r:saltlen <- [DW_OP_plus_uconst 16, DW_OP_deref] $rsp
	#DEBUG_VALUE: encode64:dstlen <- $r15
	#DEBUG_VALUE: encode64:dst <- $r14
	#DEBUG_VALUE: encode64:src <- [DW_OP_plus_uconst 48, DW_OP_stack_value] $rsp
	#DEBUG_VALUE: encode64:srclen <- 32
	#DEBUG_VALUE: encode64:i <- $rax
	#DEBUG_VALUE: value <- $ecx
	#DEBUG_VALUE: encode64_uint32:bit <- 0
	#DEBUG_VALUE: encode64_uint32:src <- $ecx
	#DEBUG_VALUE: encode64_uint32:dstlen <- $r15
	#DEBUG_VALUE: encode64_uint32:dst <- $r14
	.loc	1 43 29                         # crypto_pwhash/scryptsalsa208sha256/crypto_scrypt-common.c:43:29 @[ crypto_pwhash/scryptsalsa208sha256/crypto_scrypt-common.c:64:17 @[ crypto_pwhash/scryptsalsa208sha256/crypto_scrypt-common.c:192:11 ] ]
	movl	%ecx, %edi
	andl	$63, %edi
	.loc	1 43 18 is_stmt 0               # crypto_pwhash/scryptsalsa208sha256/crypto_scrypt-common.c:43:18 @[ crypto_pwhash/scryptsalsa208sha256/crypto_scrypt-common.c:64:17 @[ crypto_pwhash/scryptsalsa208sha256/crypto_scrypt-common.c:192:11 ] ]
	movzbl	(%rdi,%r8), %edi
.Ltmp133:
	#DEBUG_VALUE: encode64_uint32:dst <- [DW_OP_plus_uconst 1, DW_OP_stack_value] $r14
	.loc	1 43 16                         # crypto_pwhash/scryptsalsa208sha256/crypto_scrypt-common.c:43:16 @[ crypto_pwhash/scryptsalsa208sha256/crypto_scrypt-common.c:64:17 @[ crypto_pwhash/scryptsalsa208sha256/crypto_scrypt-common.c:192:11 ] ]
	movb	%dil, (%r14)
.Ltmp134:
	#DEBUG_VALUE: encode64_uint32:dstlen <- [DW_OP_constu 1, DW_OP_minus, DW_OP_stack_value] $r15
	#DEBUG_VALUE: encode64_uint32:src <- undef
	#DEBUG_VALUE: encode64_uint32:bit <- 6
	.loc	1 40 20 is_stmt 1               # crypto_pwhash/scryptsalsa208sha256/crypto_scrypt-common.c:40:20 @[ crypto_pwhash/scryptsalsa208sha256/crypto_scrypt-common.c:64:17 @[ crypto_pwhash/scryptsalsa208sha256/crypto_scrypt-common.c:192:11 ] ]
	cmpq	$1, %r15
	je	.LBB2_42
.Ltmp135:
# %bb.36:                               #   in Loop: Header=BB2_27 Depth=1
	#DEBUG_VALUE: escrypt_r:local <- [DW_OP_LLVM_entry_value 1] $rdi
	#DEBUG_VALUE: escrypt_r:passwd <- [DW_OP_LLVM_entry_value 1] $rsi
	#DEBUG_VALUE: escrypt_r:passwdlen <- $rbp
	#DEBUG_VALUE: escrypt_r:setting <- $r13
	#DEBUG_VALUE: escrypt_r:buf <- $rbx
	#DEBUG_VALUE: escrypt_r:buflen <- [$rsp+0]
	#DEBUG_VALUE: escrypt_r:N <- [DW_OP_plus_uconst 24, DW_OP_deref] $rsp
	#DEBUG_VALUE: escrypt_r:prefixlen <- [DW_OP_plus_uconst 40, DW_OP_deref] $rsp
	#DEBUG_VALUE: escrypt_r:salt <- [DW_OP_plus_uconst 32, DW_OP_deref] $rsp
	#DEBUG_VALUE: escrypt_r:saltlen <- [DW_OP_plus_uconst 16, DW_OP_deref] $rsp
	#DEBUG_VALUE: encode64:dstlen <- $r15
	#DEBUG_VALUE: encode64:dst <- $r14
	#DEBUG_VALUE: encode64:src <- [DW_OP_plus_uconst 48, DW_OP_stack_value] $rsp
	#DEBUG_VALUE: encode64:srclen <- 32
	#DEBUG_VALUE: encode64:i <- $rax
	#DEBUG_VALUE: value <- $ecx
	#DEBUG_VALUE: encode64_uint32:bit <- 6
	#DEBUG_VALUE: encode64_uint32:dstlen <- [DW_OP_constu 1, DW_OP_minus, DW_OP_stack_value] $r15
	#DEBUG_VALUE: encode64_uint32:dst <- [DW_OP_plus_uconst 1, DW_OP_stack_value] $r14
	.loc	1 0 0 is_stmt 0                 # crypto_pwhash/scryptsalsa208sha256/crypto_scrypt-common.c:0 @[ crypto_pwhash/scryptsalsa208sha256/crypto_scrypt-common.c:64:17 @[ crypto_pwhash/scryptsalsa208sha256/crypto_scrypt-common.c:192:11 ] ]
	movl	%ecx, %edi
	shrl	$6, %edi
.Ltmp136:
	#DEBUG_VALUE: encode64_uint32:src <- $edi
	.loc	1 43 29 is_stmt 1               # crypto_pwhash/scryptsalsa208sha256/crypto_scrypt-common.c:43:29 @[ crypto_pwhash/scryptsalsa208sha256/crypto_scrypt-common.c:64:17 @[ crypto_pwhash/scryptsalsa208sha256/crypto_scrypt-common.c:192:11 ] ]
	andl	$63, %edi
.Ltmp137:
	#DEBUG_VALUE: encode64_uint32:dst <- undef
	#DEBUG_VALUE: encode64_uint32:dstlen <- [DW_OP_constu 2, DW_OP_minus, DW_OP_stack_value] $r15
	#DEBUG_VALUE: encode64_uint32:src <- undef
	.loc	1 43 18 is_stmt 0               # crypto_pwhash/scryptsalsa208sha256/crypto_scrypt-common.c:43:18 @[ crypto_pwhash/scryptsalsa208sha256/crypto_scrypt-common.c:64:17 @[ crypto_pwhash/scryptsalsa208sha256/crypto_scrypt-common.c:192:11 ] ]
	movzbl	(%rdi,%r8), %edi
	.loc	1 43 16                         # crypto_pwhash/scryptsalsa208sha256/crypto_scrypt-common.c:43:16 @[ crypto_pwhash/scryptsalsa208sha256/crypto_scrypt-common.c:64:17 @[ crypto_pwhash/scryptsalsa208sha256/crypto_scrypt-common.c:192:11 ] ]
	movb	%dil, 1(%r14)
.Ltmp138:
	#DEBUG_VALUE: encode64_uint32:bit <- 12
	.loc	1 62 28 is_stmt 1               # crypto_pwhash/scryptsalsa208sha256/crypto_scrypt-common.c:62:28 @[ crypto_pwhash/scryptsalsa208sha256/crypto_scrypt-common.c:192:11 ]
	cmpq	$31, %rdx
.Ltmp139:
	.loc	1 39 5                          # crypto_pwhash/scryptsalsa208sha256/crypto_scrypt-common.c:39:5 @[ crypto_pwhash/scryptsalsa208sha256/crypto_scrypt-common.c:64:17 @[ crypto_pwhash/scryptsalsa208sha256/crypto_scrypt-common.c:192:11 ] ]
	je	.LBB2_25
.Ltmp140:
# %bb.37:                               # %.lr.ph.i.i.2
                                        #   in Loop: Header=BB2_27 Depth=1
	#DEBUG_VALUE: escrypt_r:local <- [DW_OP_LLVM_entry_value 1] $rdi
	#DEBUG_VALUE: escrypt_r:passwd <- [DW_OP_LLVM_entry_value 1] $rsi
	#DEBUG_VALUE: escrypt_r:passwdlen <- $rbp
	#DEBUG_VALUE: escrypt_r:setting <- $r13
	#DEBUG_VALUE: escrypt_r:buf <- $rbx
	#DEBUG_VALUE: escrypt_r:buflen <- [$rsp+0]
	#DEBUG_VALUE: escrypt_r:N <- [DW_OP_plus_uconst 24, DW_OP_deref] $rsp
	#DEBUG_VALUE: escrypt_r:prefixlen <- [DW_OP_plus_uconst 40, DW_OP_deref] $rsp
	#DEBUG_VALUE: escrypt_r:salt <- [DW_OP_plus_uconst 32, DW_OP_deref] $rsp
	#DEBUG_VALUE: escrypt_r:saltlen <- [DW_OP_plus_uconst 16, DW_OP_deref] $rsp
	#DEBUG_VALUE: encode64:dstlen <- $r15
	#DEBUG_VALUE: encode64:dst <- $r14
	#DEBUG_VALUE: encode64:src <- [DW_OP_plus_uconst 48, DW_OP_stack_value] $rsp
	#DEBUG_VALUE: encode64:srclen <- 32
	#DEBUG_VALUE: encode64:i <- $rax
	#DEBUG_VALUE: value <- $ecx
	#DEBUG_VALUE: encode64_uint32:bit <- 12
	#DEBUG_VALUE: encode64_uint32:dstlen <- [DW_OP_constu 2, DW_OP_minus, DW_OP_stack_value] $r15
	#DEBUG_VALUE: encode64_uint32:bit <- 12
	#DEBUG_VALUE: encode64_uint32:src <- undef
	#DEBUG_VALUE: encode64_uint32:dstlen <- [DW_OP_constu 2, DW_OP_minus, DW_OP_stack_value] $r15
	#DEBUG_VALUE: encode64_uint32:dst <- undef
	.loc	1 40 20                         # crypto_pwhash/scryptsalsa208sha256/crypto_scrypt-common.c:40:20 @[ crypto_pwhash/scryptsalsa208sha256/crypto_scrypt-common.c:64:17 @[ crypto_pwhash/scryptsalsa208sha256/crypto_scrypt-common.c:192:11 ] ]
	cmpq	$2, %r15
	je	.LBB2_42
.Ltmp141:
# %bb.38:                               #   in Loop: Header=BB2_27 Depth=1
	#DEBUG_VALUE: escrypt_r:local <- [DW_OP_LLVM_entry_value 1] $rdi
	#DEBUG_VALUE: escrypt_r:passwd <- [DW_OP_LLVM_entry_value 1] $rsi
	#DEBUG_VALUE: escrypt_r:passwdlen <- $rbp
	#DEBUG_VALUE: escrypt_r:setting <- $r13
	#DEBUG_VALUE: escrypt_r:buf <- $rbx
	#DEBUG_VALUE: escrypt_r:buflen <- [$rsp+0]
	#DEBUG_VALUE: escrypt_r:N <- [DW_OP_plus_uconst 24, DW_OP_deref] $rsp
	#DEBUG_VALUE: escrypt_r:prefixlen <- [DW_OP_plus_uconst 40, DW_OP_deref] $rsp
	#DEBUG_VALUE: escrypt_r:salt <- [DW_OP_plus_uconst 32, DW_OP_deref] $rsp
	#DEBUG_VALUE: escrypt_r:saltlen <- [DW_OP_plus_uconst 16, DW_OP_deref] $rsp
	#DEBUG_VALUE: encode64:dstlen <- $r15
	#DEBUG_VALUE: encode64:dst <- $r14
	#DEBUG_VALUE: encode64:src <- [DW_OP_plus_uconst 48, DW_OP_stack_value] $rsp
	#DEBUG_VALUE: encode64:srclen <- 32
	#DEBUG_VALUE: encode64:i <- $rax
	#DEBUG_VALUE: value <- $ecx
	#DEBUG_VALUE: encode64_uint32:bit <- 12
	#DEBUG_VALUE: encode64_uint32:dstlen <- [DW_OP_constu 2, DW_OP_minus, DW_OP_stack_value] $r15
	.loc	1 0 0 is_stmt 0                 # crypto_pwhash/scryptsalsa208sha256/crypto_scrypt-common.c:0 @[ crypto_pwhash/scryptsalsa208sha256/crypto_scrypt-common.c:64:17 @[ crypto_pwhash/scryptsalsa208sha256/crypto_scrypt-common.c:192:11 ] ]
	movl	%ecx, %edx
	shrl	$12, %edx
.Ltmp142:
	#DEBUG_VALUE: encode64_uint32:src <- $edx
	.loc	1 43 29 is_stmt 1               # crypto_pwhash/scryptsalsa208sha256/crypto_scrypt-common.c:43:29 @[ crypto_pwhash/scryptsalsa208sha256/crypto_scrypt-common.c:64:17 @[ crypto_pwhash/scryptsalsa208sha256/crypto_scrypt-common.c:192:11 ] ]
	andl	$63, %edx
.Ltmp143:
	.loc	1 43 18 is_stmt 0               # crypto_pwhash/scryptsalsa208sha256/crypto_scrypt-common.c:43:18 @[ crypto_pwhash/scryptsalsa208sha256/crypto_scrypt-common.c:64:17 @[ crypto_pwhash/scryptsalsa208sha256/crypto_scrypt-common.c:192:11 ] ]
	movzbl	(%rdx,%r8), %edx
.Ltmp144:
	#DEBUG_VALUE: encode64_uint32:dst <- undef
	.loc	1 43 16                         # crypto_pwhash/scryptsalsa208sha256/crypto_scrypt-common.c:43:16 @[ crypto_pwhash/scryptsalsa208sha256/crypto_scrypt-common.c:64:17 @[ crypto_pwhash/scryptsalsa208sha256/crypto_scrypt-common.c:192:11 ] ]
	movb	%dl, 2(%r14)
.Ltmp145:
	#DEBUG_VALUE: encode64_uint32:dstlen <- [DW_OP_constu 3, DW_OP_minus, DW_OP_stack_value] $r15
	#DEBUG_VALUE: encode64_uint32:src <- undef
	#DEBUG_VALUE: encode64_uint32:bit <- 18
	.loc	1 39 5 is_stmt 1                # crypto_pwhash/scryptsalsa208sha256/crypto_scrypt-common.c:39:5 @[ crypto_pwhash/scryptsalsa208sha256/crypto_scrypt-common.c:64:17 @[ crypto_pwhash/scryptsalsa208sha256/crypto_scrypt-common.c:192:11 ] ]
	testb	%sil, %sil
	je	.LBB2_41
.Ltmp146:
# %bb.39:                               # %.lr.ph.i.i.3
                                        #   in Loop: Header=BB2_27 Depth=1
	#DEBUG_VALUE: escrypt_r:local <- [DW_OP_LLVM_entry_value 1] $rdi
	#DEBUG_VALUE: escrypt_r:passwd <- [DW_OP_LLVM_entry_value 1] $rsi
	#DEBUG_VALUE: escrypt_r:passwdlen <- $rbp
	#DEBUG_VALUE: escrypt_r:setting <- $r13
	#DEBUG_VALUE: escrypt_r:buf <- $rbx
	#DEBUG_VALUE: escrypt_r:buflen <- [$rsp+0]
	#DEBUG_VALUE: escrypt_r:N <- [DW_OP_plus_uconst 24, DW_OP_deref] $rsp
	#DEBUG_VALUE: escrypt_r:prefixlen <- [DW_OP_plus_uconst 40, DW_OP_deref] $rsp
	#DEBUG_VALUE: escrypt_r:salt <- [DW_OP_plus_uconst 32, DW_OP_deref] $rsp
	#DEBUG_VALUE: escrypt_r:saltlen <- [DW_OP_plus_uconst 16, DW_OP_deref] $rsp
	#DEBUG_VALUE: encode64:dstlen <- $r15
	#DEBUG_VALUE: encode64:dst <- $r14
	#DEBUG_VALUE: encode64:src <- [DW_OP_plus_uconst 48, DW_OP_stack_value] $rsp
	#DEBUG_VALUE: encode64:srclen <- 32
	#DEBUG_VALUE: encode64:i <- $rax
	#DEBUG_VALUE: value <- $ecx
	#DEBUG_VALUE: encode64_uint32:bit <- 18
	#DEBUG_VALUE: encode64_uint32:dstlen <- [DW_OP_constu 3, DW_OP_minus, DW_OP_stack_value] $r15
	#DEBUG_VALUE: encode64_uint32:bit <- 18
	#DEBUG_VALUE: encode64_uint32:src <- undef
	#DEBUG_VALUE: encode64_uint32:dstlen <- [DW_OP_constu 3, DW_OP_minus, DW_OP_stack_value] $r15
	#DEBUG_VALUE: encode64_uint32:dst <- undef
	.loc	1 40 20                         # crypto_pwhash/scryptsalsa208sha256/crypto_scrypt-common.c:40:20 @[ crypto_pwhash/scryptsalsa208sha256/crypto_scrypt-common.c:64:17 @[ crypto_pwhash/scryptsalsa208sha256/crypto_scrypt-common.c:192:11 ] ]
	cmpq	$3, %r15
	je	.LBB2_42
.Ltmp147:
# %bb.40:                               #   in Loop: Header=BB2_27 Depth=1
	#DEBUG_VALUE: escrypt_r:local <- [DW_OP_LLVM_entry_value 1] $rdi
	#DEBUG_VALUE: escrypt_r:passwd <- [DW_OP_LLVM_entry_value 1] $rsi
	#DEBUG_VALUE: escrypt_r:passwdlen <- $rbp
	#DEBUG_VALUE: escrypt_r:setting <- $r13
	#DEBUG_VALUE: escrypt_r:buf <- $rbx
	#DEBUG_VALUE: escrypt_r:buflen <- [$rsp+0]
	#DEBUG_VALUE: escrypt_r:N <- [DW_OP_plus_uconst 24, DW_OP_deref] $rsp
	#DEBUG_VALUE: escrypt_r:prefixlen <- [DW_OP_plus_uconst 40, DW_OP_deref] $rsp
	#DEBUG_VALUE: escrypt_r:salt <- [DW_OP_plus_uconst 32, DW_OP_deref] $rsp
	#DEBUG_VALUE: escrypt_r:saltlen <- [DW_OP_plus_uconst 16, DW_OP_deref] $rsp
	#DEBUG_VALUE: encode64:dstlen <- $r15
	#DEBUG_VALUE: encode64:dst <- $r14
	#DEBUG_VALUE: encode64:src <- [DW_OP_plus_uconst 48, DW_OP_stack_value] $rsp
	#DEBUG_VALUE: encode64:srclen <- 32
	#DEBUG_VALUE: encode64:i <- $rax
	#DEBUG_VALUE: value <- $ecx
	#DEBUG_VALUE: encode64_uint32:bit <- 18
	#DEBUG_VALUE: encode64_uint32:dstlen <- [DW_OP_constu 3, DW_OP_minus, DW_OP_stack_value] $r15
	.loc	1 0 20 is_stmt 0                # crypto_pwhash/scryptsalsa208sha256/crypto_scrypt-common.c:0:20
	shrl	$18, %ecx
.Ltmp148:
	#DEBUG_VALUE: encode64_uint32:src <- $ecx
	movl	%ecx, %ecx
.Ltmp149:
	.loc	1 43 18 is_stmt 1               # crypto_pwhash/scryptsalsa208sha256/crypto_scrypt-common.c:43:18 @[ crypto_pwhash/scryptsalsa208sha256/crypto_scrypt-common.c:64:17 @[ crypto_pwhash/scryptsalsa208sha256/crypto_scrypt-common.c:192:11 ] ]
	movzbl	(%rcx,%r8), %edx
	.loc	1 43 13 is_stmt 0               # crypto_pwhash/scryptsalsa208sha256/crypto_scrypt-common.c:43:13 @[ crypto_pwhash/scryptsalsa208sha256/crypto_scrypt-common.c:64:17 @[ crypto_pwhash/scryptsalsa208sha256/crypto_scrypt-common.c:192:11 ] ]
	leaq	4(%r14), %rcx
.Ltmp150:
	#DEBUG_VALUE: encode64_uint32:dst <- $rcx
	.loc	1 43 16                         # crypto_pwhash/scryptsalsa208sha256/crypto_scrypt-common.c:43:16 @[ crypto_pwhash/scryptsalsa208sha256/crypto_scrypt-common.c:64:17 @[ crypto_pwhash/scryptsalsa208sha256/crypto_scrypt-common.c:192:11 ] ]
	movb	%dl, 3(%r14)
.Ltmp151:
	#DEBUG_VALUE: encode64_uint32:dstlen <- [DW_OP_constu 4, DW_OP_minus, DW_OP_stack_value] $r15
	#DEBUG_VALUE: encode64_uint32:src <- [DW_OP_constu 6, DW_OP_shr, DW_OP_stack_value] undef
	#DEBUG_VALUE: encode64_uint32:bit <- 24
	.loc	1 0 16                          # crypto_pwhash/scryptsalsa208sha256/crypto_scrypt-common.c:0:16
	jmp	.LBB2_26
.Ltmp152:
.LBB2_41:                               #   in Loop: Header=BB2_27 Depth=1
	#DEBUG_VALUE: escrypt_r:local <- [DW_OP_LLVM_entry_value 1] $rdi
	#DEBUG_VALUE: escrypt_r:passwd <- [DW_OP_LLVM_entry_value 1] $rsi
	#DEBUG_VALUE: escrypt_r:passwdlen <- $rbp
	#DEBUG_VALUE: escrypt_r:setting <- $r13
	#DEBUG_VALUE: escrypt_r:buf <- $rbx
	#DEBUG_VALUE: escrypt_r:buflen <- [$rsp+0]
	#DEBUG_VALUE: escrypt_r:N <- [DW_OP_plus_uconst 24, DW_OP_deref] $rsp
	#DEBUG_VALUE: escrypt_r:prefixlen <- [DW_OP_plus_uconst 40, DW_OP_deref] $rsp
	#DEBUG_VALUE: escrypt_r:salt <- [DW_OP_plus_uconst 32, DW_OP_deref] $rsp
	#DEBUG_VALUE: escrypt_r:saltlen <- [DW_OP_plus_uconst 16, DW_OP_deref] $rsp
	#DEBUG_VALUE: encode64:dstlen <- $r15
	#DEBUG_VALUE: encode64:dst <- $r14
	#DEBUG_VALUE: encode64:src <- [DW_OP_plus_uconst 48, DW_OP_stack_value] $rsp
	#DEBUG_VALUE: encode64:srclen <- 32
	#DEBUG_VALUE: encode64:i <- $rax
	#DEBUG_VALUE: value <- $ecx
	#DEBUG_VALUE: encode64_uint32:bit <- 18
	#DEBUG_VALUE: encode64_uint32:dstlen <- [DW_OP_constu 3, DW_OP_minus, DW_OP_stack_value] $r15
	leaq	3(%r14), %rcx
.Ltmp153:
	#DEBUG_VALUE: encode64_uint32:dst <- $rcx
	.loc	1 39 5 is_stmt 1                # crypto_pwhash/scryptsalsa208sha256/crypto_scrypt-common.c:39:5 @[ crypto_pwhash/scryptsalsa208sha256/crypto_scrypt-common.c:64:17 @[ crypto_pwhash/scryptsalsa208sha256/crypto_scrypt-common.c:192:11 ] ]
	jmp	.LBB2_26
.Ltmp154:
.LBB2_42:
	#DEBUG_VALUE: escrypt_r:local <- [DW_OP_LLVM_entry_value 1] $rdi
	#DEBUG_VALUE: escrypt_r:passwd <- [DW_OP_LLVM_entry_value 1] $rsi
	#DEBUG_VALUE: escrypt_r:passwdlen <- $rbp
	#DEBUG_VALUE: escrypt_r:setting <- $r13
	#DEBUG_VALUE: escrypt_r:buf <- $rbx
	#DEBUG_VALUE: escrypt_r:buflen <- [$rsp+0]
	#DEBUG_VALUE: escrypt_r:N <- [DW_OP_plus_uconst 24, DW_OP_deref] $rsp
	#DEBUG_VALUE: escrypt_r:prefixlen <- [DW_OP_plus_uconst 40, DW_OP_deref] $rsp
	#DEBUG_VALUE: escrypt_r:salt <- [DW_OP_plus_uconst 32, DW_OP_deref] $rsp
	#DEBUG_VALUE: escrypt_r:saltlen <- [DW_OP_plus_uconst 16, DW_OP_deref] $rsp
	#DEBUG_VALUE: encode64:src <- [DW_OP_plus_uconst 48, DW_OP_stack_value] $rsp
	#DEBUG_VALUE: encode64:srclen <- 32
	#DEBUG_VALUE: encode64:i <- $rax
	.loc	1 0 5 is_stmt 0                 # crypto_pwhash/scryptsalsa208sha256/crypto_scrypt-common.c:0:5
	xorl	%r14d, %r14d
.Ltmp155:
.LBB2_43:                               # %encode64.exit
	#DEBUG_VALUE: escrypt_r:local <- [DW_OP_LLVM_entry_value 1] $rdi
	#DEBUG_VALUE: escrypt_r:passwd <- [DW_OP_LLVM_entry_value 1] $rsi
	#DEBUG_VALUE: escrypt_r:passwdlen <- $rbp
	#DEBUG_VALUE: escrypt_r:setting <- $r13
	#DEBUG_VALUE: escrypt_r:buf <- $rbx
	#DEBUG_VALUE: escrypt_r:buflen <- [$rsp+0]
	#DEBUG_VALUE: escrypt_r:N <- [DW_OP_plus_uconst 24, DW_OP_deref] $rsp
	#DEBUG_VALUE: escrypt_r:prefixlen <- [DW_OP_plus_uconst 40, DW_OP_deref] $rsp
	#DEBUG_VALUE: escrypt_r:salt <- [DW_OP_plus_uconst 32, DW_OP_deref] $rsp
	#DEBUG_VALUE: escrypt_r:saltlen <- [DW_OP_plus_uconst 16, DW_OP_deref] $rsp
	#DEBUG_VALUE: escrypt_r:dst <- $r14
	leaq	48(%rsp), %rdi
	.loc	1 193 5 is_stmt 1               # crypto_pwhash/scryptsalsa208sha256/crypto_scrypt-common.c:193:5
	movl	$32, %esi
	callq	sodium_memzero@PLT
.Ltmp156:
	.loc	1 194 10                        # crypto_pwhash/scryptsalsa208sha256/crypto_scrypt-common.c:194:10
	testq	%r14, %r14
	sete	%al
	movq	(%rsp), %rcx                    # 8-byte Reload
	addq	%rbx, %rcx
	cmpq	%rcx, %r14
	setae	%cl
	.loc	1 194 14 is_stmt 0              # crypto_pwhash/scryptsalsa208sha256/crypto_scrypt-common.c:194:14
	orb	%al, %cl
	jne	.LBB2_45
.Ltmp157:
# %bb.44:
	#DEBUG_VALUE: escrypt_r:local <- [DW_OP_LLVM_entry_value 1] $rdi
	#DEBUG_VALUE: escrypt_r:passwd <- [DW_OP_LLVM_entry_value 1] $rsi
	#DEBUG_VALUE: escrypt_r:passwdlen <- $rbp
	#DEBUG_VALUE: escrypt_r:setting <- $r13
	#DEBUG_VALUE: escrypt_r:buf <- $rbx
	#DEBUG_VALUE: escrypt_r:buflen <- [$rsp+0]
	#DEBUG_VALUE: escrypt_r:N <- [DW_OP_plus_uconst 24, DW_OP_deref] $rsp
	#DEBUG_VALUE: escrypt_r:prefixlen <- [DW_OP_plus_uconst 40, DW_OP_deref] $rsp
	#DEBUG_VALUE: escrypt_r:salt <- [DW_OP_plus_uconst 32, DW_OP_deref] $rsp
	#DEBUG_VALUE: escrypt_r:saltlen <- [DW_OP_plus_uconst 16, DW_OP_deref] $rsp
	#DEBUG_VALUE: escrypt_r:dst <- $r14
	.loc	1 197 10 is_stmt 1              # crypto_pwhash/scryptsalsa208sha256/crypto_scrypt-common.c:197:10
	movb	$0, (%r14)
	jmp	.LBB2_46
.Ltmp158:
.LBB2_45:
	#DEBUG_VALUE: escrypt_r:local <- [DW_OP_LLVM_entry_value 1] $rdi
	#DEBUG_VALUE: escrypt_r:passwd <- [DW_OP_LLVM_entry_value 1] $rsi
	#DEBUG_VALUE: escrypt_r:passwdlen <- $rbp
	#DEBUG_VALUE: escrypt_r:setting <- $r13
	#DEBUG_VALUE: escrypt_r:buf <- $rbx
	#DEBUG_VALUE: escrypt_r:buflen <- [DW_OP_LLVM_entry_value 1] $r9
	#DEBUG_VALUE: escrypt_parse_setting:setting <- $r13
	.loc	1 0 10 is_stmt 0                # crypto_pwhash/scryptsalsa208sha256/crypto_scrypt-common.c:0:10
	xorl	%ebx, %ebx
.Ltmp159:
	#DEBUG_VALUE: escrypt_r:buf <- [DW_OP_LLVM_entry_value 1] $r8
.LBB2_46:                               # %escrypt_parse_setting.exit.thread
	#DEBUG_VALUE: escrypt_r:local <- [DW_OP_LLVM_entry_value 1] $rdi
	#DEBUG_VALUE: escrypt_r:passwd <- [DW_OP_LLVM_entry_value 1] $rsi
	#DEBUG_VALUE: escrypt_r:passwdlen <- $rbp
	#DEBUG_VALUE: escrypt_r:setting <- $r13
	#DEBUG_VALUE: escrypt_r:buf <- [DW_OP_LLVM_entry_value 1] $r8
	#DEBUG_VALUE: escrypt_r:buflen <- [DW_OP_LLVM_entry_value 1] $r9
	.loc	1 200 1 is_stmt 1               # crypto_pwhash/scryptsalsa208sha256/crypto_scrypt-common.c:200:1
	movq	%fs:40, %rax
	cmpq	80(%rsp), %rax
	jne	.LBB2_48
.Ltmp160:
# %bb.47:                               # %SP_return
	#DEBUG_VALUE: escrypt_r:local <- [DW_OP_LLVM_entry_value 1] $rdi
	#DEBUG_VALUE: escrypt_r:passwd <- [DW_OP_LLVM_entry_value 1] $rsi
	#DEBUG_VALUE: escrypt_r:passwdlen <- $rbp
	#DEBUG_VALUE: escrypt_r:setting <- $r13
	#DEBUG_VALUE: escrypt_r:buf <- [DW_OP_LLVM_entry_value 1] $r8
	#DEBUG_VALUE: escrypt_r:buflen <- [DW_OP_LLVM_entry_value 1] $r9
	movq	%rbx, %rax
	.loc	1 200 1 epilogue_begin is_stmt 0 # crypto_pwhash/scryptsalsa208sha256/crypto_scrypt-common.c:200:1
	addq	$88, %rsp
	.cfi_def_cfa_offset 56
	popq	%rbx
	.cfi_def_cfa_offset 48
	popq	%r12
	.cfi_def_cfa_offset 40
	popq	%r13
.Ltmp161:
	#DEBUG_VALUE: escrypt_r:setting <- [DW_OP_LLVM_entry_value 1] $rcx
	.cfi_def_cfa_offset 32
	popq	%r14
	.cfi_def_cfa_offset 24
	popq	%r15
	.cfi_def_cfa_offset 16
	popq	%rbp
.Ltmp162:
	#DEBUG_VALUE: escrypt_r:passwdlen <- [DW_OP_LLVM_entry_value 1] $rdx
	.cfi_def_cfa_offset 8
	retq
.Ltmp163:
.LBB2_48:                               # %CallStackCheckFailBlk
	.cfi_def_cfa_offset 144
	#DEBUG_VALUE: escrypt_r:local <- [DW_OP_LLVM_entry_value 1] $rdi
	#DEBUG_VALUE: escrypt_r:passwd <- [DW_OP_LLVM_entry_value 1] $rsi
	#DEBUG_VALUE: escrypt_r:passwdlen <- $rbp
	#DEBUG_VALUE: escrypt_r:setting <- $r13
	#DEBUG_VALUE: escrypt_r:buf <- [DW_OP_LLVM_entry_value 1] $r8
	#DEBUG_VALUE: escrypt_r:buflen <- [DW_OP_LLVM_entry_value 1] $r9
	.loc	1 0 0                           # crypto_pwhash/scryptsalsa208sha256/crypto_scrypt-common.c:0
	callq	__stack_chk_fail@PLT
.Ltmp164:
.Lfunc_end2:
	.size	escrypt_r, .Lfunc_end2-escrypt_r
	.cfi_endproc
	.file	5 "/home/leizhenyuu/opt/Anonymous_Repo" "llvm-project/build/lib/clang/21/include/__stddef_size_t.h"
	.file	6 "./include/sodium" "randombytes.h"
	.file	7 "/usr/include" "string.h"
	.file	8 "./include/sodium" "runtime.h"
	.file	9 "./include/sodium" "utils.h"
                                        # -- End function
	.hidden	escrypt_gensalt_r               # -- Begin function escrypt_gensalt_r
	.globl	escrypt_gensalt_r
	.p2align	4
	.type	escrypt_gensalt_r,@function
escrypt_gensalt_r:                      # @escrypt_gensalt_r
.Lfunc_begin3:
	.loc	1 205 0 is_stmt 1               # crypto_pwhash/scryptsalsa208sha256/crypto_scrypt-common.c:205:0
	.cfi_startproc
# %bb.0:
	#DEBUG_VALUE: escrypt_gensalt_r:N_log2 <- $edi
	#DEBUG_VALUE: escrypt_gensalt_r:r <- $esi
	#DEBUG_VALUE: escrypt_gensalt_r:p <- $edx
	#DEBUG_VALUE: escrypt_gensalt_r:src <- $rcx
	#DEBUG_VALUE: escrypt_gensalt_r:srclen <- $r8
	#DEBUG_VALUE: escrypt_gensalt_r:buf <- $r9
	pushq	%rbp
	.cfi_def_cfa_offset 16
	pushq	%r15
	.cfi_def_cfa_offset 24
	pushq	%r14
	.cfi_def_cfa_offset 32
	pushq	%rbx
	.cfi_def_cfa_offset 40
	.cfi_offset %rbx, -40
	.cfi_offset %r14, -32
	.cfi_offset %r15, -24
	.cfi_offset %rbp, -16
.Ltmp165:
	#DEBUG_VALUE: escrypt_gensalt_r:buflen <- [DW_OP_plus_uconst 40] [$rsp+0]
	movl	%edx, %r10d
                                        # kill: def $esi killed $esi def $rsi
	movq	40(%rsp), %r11
.Ltmp166:
	#DEBUG_VALUE: escrypt_gensalt_r:prefixlen <- 14
	.loc	1 209 38 prologue_end           # crypto_pwhash/scryptsalsa208sha256/crypto_scrypt-common.c:209:38
	leaq	4(,%r8,8), %rax
	movabsq	$-6148914691236517205, %rdx     # imm = 0xAAAAAAAAAAAAAAAB
.Ltmp167:
	#DEBUG_VALUE: escrypt_gensalt_r:p <- $r10d
	.loc	1 209 43 is_stmt 0              # crypto_pwhash/scryptsalsa208sha256/crypto_scrypt-common.c:209:43
	mulq	%rdx
	shrq	$2, %rdx
.Ltmp168:
	#DEBUG_VALUE: escrypt_gensalt_r:saltlen <- $rdx
	.loc	1 212 32 is_stmt 1              # crypto_pwhash/scryptsalsa208sha256/crypto_scrypt-common.c:212:32
	leaq	15(%rdx), %rax
.Ltmp169:
	#DEBUG_VALUE: escrypt_gensalt_r:need <- $rax
	.loc	1 213 14                        # crypto_pwhash/scryptsalsa208sha256/crypto_scrypt-common.c:213:14
	cmpq	%r11, %rax
	seta	%al
.Ltmp170:
	.loc	1 0 14 is_stmt 0                # crypto_pwhash/scryptsalsa208sha256/crypto_scrypt-common.c:0:14
	cmpq	%r8, %rdx
	setb	%dl
.Ltmp171:
	.loc	1 213 23                        # crypto_pwhash/scryptsalsa208sha256/crypto_scrypt-common.c:213:23
	orb	%al, %dl
	je	.LBB3_3
.Ltmp172:
.LBB3_1:
	#DEBUG_VALUE: escrypt_gensalt_r:N_log2 <- [DW_OP_LLVM_entry_value 1] $edi
	#DEBUG_VALUE: escrypt_gensalt_r:r <- [DW_OP_LLVM_entry_value 1] $esi
	#DEBUG_VALUE: escrypt_gensalt_r:p <- [DW_OP_LLVM_entry_value 1] $edx
	#DEBUG_VALUE: escrypt_gensalt_r:src <- $rcx
	#DEBUG_VALUE: escrypt_gensalt_r:srclen <- $r8
	#DEBUG_VALUE: escrypt_gensalt_r:buf <- $r9
	#DEBUG_VALUE: escrypt_gensalt_r:buflen <- [DW_OP_plus_uconst 40] [$rsp+0]
	#DEBUG_VALUE: escrypt_gensalt_r:prefixlen <- 14
	.loc	1 0 23                          # crypto_pwhash/scryptsalsa208sha256/crypto_scrypt-common.c:0:23
	xorl	%eax, %eax
.Ltmp173:
.LBB3_2:                                # %encode64_uint32.exit.thread
	#DEBUG_VALUE: escrypt_gensalt_r:N_log2 <- [DW_OP_LLVM_entry_value 1] $edi
	#DEBUG_VALUE: escrypt_gensalt_r:r <- [DW_OP_LLVM_entry_value 1] $esi
	#DEBUG_VALUE: escrypt_gensalt_r:p <- [DW_OP_LLVM_entry_value 1] $edx
	#DEBUG_VALUE: escrypt_gensalt_r:src <- $rcx
	#DEBUG_VALUE: escrypt_gensalt_r:srclen <- $r8
	#DEBUG_VALUE: escrypt_gensalt_r:buf <- $r9
	#DEBUG_VALUE: escrypt_gensalt_r:buflen <- [DW_OP_plus_uconst 40] [$rsp+0]
	#DEBUG_VALUE: escrypt_gensalt_r:prefixlen <- 14
	.loc	1 241 1 epilogue_begin is_stmt 1 # crypto_pwhash/scryptsalsa208sha256/crypto_scrypt-common.c:241:1
	popq	%rbx
	.cfi_def_cfa_offset 32
	popq	%r14
	.cfi_def_cfa_offset 24
	popq	%r15
	.cfi_def_cfa_offset 16
	popq	%rbp
	.cfi_def_cfa_offset 8
	retq
.Ltmp174:
.LBB3_3:
	.cfi_def_cfa_offset 40
	#DEBUG_VALUE: escrypt_gensalt_r:N_log2 <- $edi
	#DEBUG_VALUE: escrypt_gensalt_r:r <- $esi
	#DEBUG_VALUE: escrypt_gensalt_r:p <- $r10d
	#DEBUG_VALUE: escrypt_gensalt_r:src <- $rcx
	#DEBUG_VALUE: escrypt_gensalt_r:srclen <- $r8
	#DEBUG_VALUE: escrypt_gensalt_r:buf <- $r9
	#DEBUG_VALUE: escrypt_gensalt_r:buflen <- [DW_OP_plus_uconst 40] [$rsp+0]
	#DEBUG_VALUE: escrypt_gensalt_r:prefixlen <- 14
	.loc	1 0 1 is_stmt 0                 # crypto_pwhash/scryptsalsa208sha256/crypto_scrypt-common.c:0:1
	xorl	%eax, %eax
.Ltmp175:
	.loc	1 216 16 is_stmt 1              # crypto_pwhash/scryptsalsa208sha256/crypto_scrypt-common.c:216:16
	cmpl	$63, %edi
	.loc	1 216 21 is_stmt 0              # crypto_pwhash/scryptsalsa208sha256/crypto_scrypt-common.c:216:21
	ja	.LBB3_2
.Ltmp176:
# %bb.4:
	#DEBUG_VALUE: escrypt_gensalt_r:N_log2 <- $edi
	#DEBUG_VALUE: escrypt_gensalt_r:r <- $esi
	#DEBUG_VALUE: escrypt_gensalt_r:p <- $r10d
	#DEBUG_VALUE: escrypt_gensalt_r:src <- $rcx
	#DEBUG_VALUE: escrypt_gensalt_r:srclen <- $r8
	#DEBUG_VALUE: escrypt_gensalt_r:buf <- $r9
	#DEBUG_VALUE: escrypt_gensalt_r:buflen <- [DW_OP_plus_uconst 40] [$rsp+0]
	#DEBUG_VALUE: escrypt_gensalt_r:prefixlen <- 14
	.loc	1 0 21                          # crypto_pwhash/scryptsalsa208sha256/crypto_scrypt-common.c:0:21
	movl	%esi, %edx
	movl	%r10d, %ebx
	imulq	%rdx, %rbx
	.loc	1 216 21                        # crypto_pwhash/scryptsalsa208sha256/crypto_scrypt-common.c:216:21
	cmpq	$1073741823, %rbx               # imm = 0x3FFFFFFF
	ja	.LBB3_2
.Ltmp177:
# %bb.5:                                # %encode64_uint32.exit
	#DEBUG_VALUE: escrypt_gensalt_r:N_log2 <- $edi
	#DEBUG_VALUE: escrypt_gensalt_r:r <- $esi
	#DEBUG_VALUE: escrypt_gensalt_r:p <- $r10d
	#DEBUG_VALUE: escrypt_gensalt_r:src <- $rcx
	#DEBUG_VALUE: escrypt_gensalt_r:srclen <- $r8
	#DEBUG_VALUE: escrypt_gensalt_r:buf <- $r9
	#DEBUG_VALUE: escrypt_gensalt_r:buflen <- [DW_OP_plus_uconst 40] [$rsp+0]
	#DEBUG_VALUE: escrypt_gensalt_r:prefixlen <- 14
	#DEBUG_VALUE: escrypt_gensalt_r:dst <- $r9
	#DEBUG_VALUE: escrypt_gensalt_r:dst <- undef
	.loc	1 220 12 is_stmt 1              # crypto_pwhash/scryptsalsa208sha256/crypto_scrypt-common.c:220:12
	movw	$14116, (%r9)                   # imm = 0x3724
.Ltmp178:
	#DEBUG_VALUE: escrypt_gensalt_r:dst <- [DW_OP_plus_uconst 2, DW_OP_stack_value] $r9
	#DEBUG_VALUE: escrypt_gensalt_r:dst <- [DW_OP_plus_uconst 3, DW_OP_stack_value] $r9
	.loc	1 222 12                        # crypto_pwhash/scryptsalsa208sha256/crypto_scrypt-common.c:222:12
	movb	$36, 2(%r9)
	.loc	1 224 14                        # crypto_pwhash/scryptsalsa208sha256/crypto_scrypt-common.c:224:14
	movl	%edi, %eax
	leaq	.L.str(%rip), %rdx
	movzbl	(%rax,%rdx), %eax
.Ltmp179:
	#DEBUG_VALUE: escrypt_gensalt_r:dst <- [DW_OP_plus_uconst 4, DW_OP_stack_value] $r9
	.loc	1 224 12 is_stmt 0              # crypto_pwhash/scryptsalsa208sha256/crypto_scrypt-common.c:224:12
	movb	%al, 3(%r9)
.Ltmp180:
	#DEBUG_VALUE: encode64_uint32:srcbits <- 30
	#DEBUG_VALUE: encode64_uint32:bit <- 0
	#DEBUG_VALUE: encode64_uint32:src <- $esi
	#DEBUG_VALUE: encode64_uint32:dstlen <- [DW_OP_constu 4, DW_OP_minus, DW_OP_stack_value] $r11
	#DEBUG_VALUE: encode64_uint32:dst <- [DW_OP_plus_uconst 4, DW_OP_stack_value] $r9
	#DEBUG_VALUE: escrypt_gensalt_r:dst <- [DW_OP_plus_uconst 4, DW_OP_stack_value] $r9
	#DEBUG_VALUE: encode64_uint32:dst <- [DW_OP_plus_uconst 4, DW_OP_stack_value] $r9
	.loc	1 43 29 is_stmt 1               # crypto_pwhash/scryptsalsa208sha256/crypto_scrypt-common.c:43:29 @[ crypto_pwhash/scryptsalsa208sha256/crypto_scrypt-common.c:226:11 ]
	movl	%esi, %eax
	andl	$63, %eax
	.loc	1 43 18 is_stmt 0               # crypto_pwhash/scryptsalsa208sha256/crypto_scrypt-common.c:43:18 @[ crypto_pwhash/scryptsalsa208sha256/crypto_scrypt-common.c:226:11 ]
	movzbl	(%rax,%rdx), %eax
.Ltmp181:
	#DEBUG_VALUE: encode64_uint32:dst <- [DW_OP_plus_uconst 4, DW_OP_plus_uconst 1, DW_OP_stack_value] $r9
	.loc	1 43 16                         # crypto_pwhash/scryptsalsa208sha256/crypto_scrypt-common.c:43:16 @[ crypto_pwhash/scryptsalsa208sha256/crypto_scrypt-common.c:226:11 ]
	movb	%al, 4(%r9)
.Ltmp182:
	#DEBUG_VALUE: encode64_uint32:dstlen <- [DW_OP_constu 5, DW_OP_minus, DW_OP_stack_value] $r11
	#DEBUG_VALUE: encode64_uint32:src <- [DW_OP_constu 6, DW_OP_shr, DW_OP_stack_value] $esi
	#DEBUG_VALUE: encode64_uint32:bit <- 6
	.loc	1 45 13 is_stmt 1               # crypto_pwhash/scryptsalsa208sha256/crypto_scrypt-common.c:45:13 @[ crypto_pwhash/scryptsalsa208sha256/crypto_scrypt-common.c:226:11 ]
	movl	%esi, %eax
	shrl	$6, %eax
.Ltmp183:
	#DEBUG_VALUE: encode64_uint32:src <- $eax
	#DEBUG_VALUE: encode64_uint32:dst <- [DW_OP_plus_uconst 5, DW_OP_stack_value] $r9
	.loc	1 43 29                         # crypto_pwhash/scryptsalsa208sha256/crypto_scrypt-common.c:43:29 @[ crypto_pwhash/scryptsalsa208sha256/crypto_scrypt-common.c:226:11 ]
	andl	$63, %eax
.Ltmp184:
	.loc	1 43 18 is_stmt 0               # crypto_pwhash/scryptsalsa208sha256/crypto_scrypt-common.c:43:18 @[ crypto_pwhash/scryptsalsa208sha256/crypto_scrypt-common.c:226:11 ]
	movzbl	(%rax,%rdx), %eax
.Ltmp185:
	#DEBUG_VALUE: encode64_uint32:dst <- [DW_OP_plus_uconst 5, DW_OP_plus_uconst 1, DW_OP_stack_value] $r9
	.loc	1 43 16                         # crypto_pwhash/scryptsalsa208sha256/crypto_scrypt-common.c:43:16 @[ crypto_pwhash/scryptsalsa208sha256/crypto_scrypt-common.c:226:11 ]
	movb	%al, 5(%r9)
.Ltmp186:
	#DEBUG_VALUE: encode64_uint32:dstlen <- [DW_OP_constu 6, DW_OP_minus, DW_OP_stack_value] $r11
	#DEBUG_VALUE: encode64_uint32:src <- [DW_OP_constu 6, DW_OP_shr, DW_OP_stack_value] undef
	#DEBUG_VALUE: encode64_uint32:bit <- 12
	.loc	1 45 13 is_stmt 1               # crypto_pwhash/scryptsalsa208sha256/crypto_scrypt-common.c:45:13 @[ crypto_pwhash/scryptsalsa208sha256/crypto_scrypt-common.c:226:11 ]
	movl	%esi, %eax
	shrl	$12, %eax
.Ltmp187:
	#DEBUG_VALUE: encode64_uint32:src <- $eax
	#DEBUG_VALUE: encode64_uint32:dst <- [DW_OP_plus_uconst 6, DW_OP_stack_value] $r9
	.loc	1 43 29                         # crypto_pwhash/scryptsalsa208sha256/crypto_scrypt-common.c:43:29 @[ crypto_pwhash/scryptsalsa208sha256/crypto_scrypt-common.c:226:11 ]
	andl	$63, %eax
.Ltmp188:
	.loc	1 43 18 is_stmt 0               # crypto_pwhash/scryptsalsa208sha256/crypto_scrypt-common.c:43:18 @[ crypto_pwhash/scryptsalsa208sha256/crypto_scrypt-common.c:226:11 ]
	movzbl	(%rax,%rdx), %eax
.Ltmp189:
	#DEBUG_VALUE: encode64_uint32:dst <- [DW_OP_plus_uconst 6, DW_OP_plus_uconst 1, DW_OP_stack_value] $r9
	.loc	1 43 16                         # crypto_pwhash/scryptsalsa208sha256/crypto_scrypt-common.c:43:16 @[ crypto_pwhash/scryptsalsa208sha256/crypto_scrypt-common.c:226:11 ]
	movb	%al, 6(%r9)
.Ltmp190:
	#DEBUG_VALUE: encode64_uint32:dstlen <- [DW_OP_constu 7, DW_OP_minus, DW_OP_stack_value] $r11
	#DEBUG_VALUE: encode64_uint32:src <- [DW_OP_constu 6, DW_OP_shr, DW_OP_stack_value] undef
	#DEBUG_VALUE: encode64_uint32:bit <- 18
	.loc	1 45 13 is_stmt 1               # crypto_pwhash/scryptsalsa208sha256/crypto_scrypt-common.c:45:13 @[ crypto_pwhash/scryptsalsa208sha256/crypto_scrypt-common.c:226:11 ]
	movl	%esi, %eax
	shrl	$18, %eax
.Ltmp191:
	#DEBUG_VALUE: encode64_uint32:src <- $eax
	#DEBUG_VALUE: encode64_uint32:dst <- [DW_OP_plus_uconst 7, DW_OP_stack_value] $r9
	.loc	1 43 29                         # crypto_pwhash/scryptsalsa208sha256/crypto_scrypt-common.c:43:29 @[ crypto_pwhash/scryptsalsa208sha256/crypto_scrypt-common.c:226:11 ]
	andl	$63, %eax
.Ltmp192:
	.loc	1 43 18 is_stmt 0               # crypto_pwhash/scryptsalsa208sha256/crypto_scrypt-common.c:43:18 @[ crypto_pwhash/scryptsalsa208sha256/crypto_scrypt-common.c:226:11 ]
	movzbl	(%rax,%rdx), %eax
.Ltmp193:
	#DEBUG_VALUE: encode64_uint32:dst <- [DW_OP_plus_uconst 7, DW_OP_plus_uconst 1, DW_OP_stack_value] $r9
	.loc	1 43 16                         # crypto_pwhash/scryptsalsa208sha256/crypto_scrypt-common.c:43:16 @[ crypto_pwhash/scryptsalsa208sha256/crypto_scrypt-common.c:226:11 ]
	movb	%al, 7(%r9)
.Ltmp194:
	#DEBUG_VALUE: encode64_uint32:dstlen <- [DW_OP_constu 8, DW_OP_minus, DW_OP_stack_value] $r11
	#DEBUG_VALUE: encode64_uint32:src <- [DW_OP_constu 6, DW_OP_shr, DW_OP_stack_value] undef
	#DEBUG_VALUE: encode64_uint32:bit <- 24
	.loc	1 45 13 is_stmt 1               # crypto_pwhash/scryptsalsa208sha256/crypto_scrypt-common.c:45:13 @[ crypto_pwhash/scryptsalsa208sha256/crypto_scrypt-common.c:226:11 ]
	shrl	$24, %esi
.Ltmp195:
	#DEBUG_VALUE: escrypt_gensalt_r:r <- [DW_OP_LLVM_entry_value 1] $esi
	#DEBUG_VALUE: encode64_uint32:src <- $esi
	#DEBUG_VALUE: encode64_uint32:dst <- [DW_OP_plus_uconst 8, DW_OP_stack_value] $r9
	.loc	1 43 29                         # crypto_pwhash/scryptsalsa208sha256/crypto_scrypt-common.c:43:29 @[ crypto_pwhash/scryptsalsa208sha256/crypto_scrypt-common.c:226:11 ]
	andl	$63, %esi
.Ltmp196:
	.loc	1 43 18 is_stmt 0               # crypto_pwhash/scryptsalsa208sha256/crypto_scrypt-common.c:43:18 @[ crypto_pwhash/scryptsalsa208sha256/crypto_scrypt-common.c:226:11 ]
	movzbl	(%rsi,%rdx), %eax
.Ltmp197:
	#DEBUG_VALUE: encode64_uint32:dstlen <- [DW_OP_constu 9, DW_OP_minus, DW_OP_stack_value] $r11
	#DEBUG_VALUE: encode64_uint32:src <- [DW_OP_constu 6, DW_OP_shr, DW_OP_stack_value] undef
	#DEBUG_VALUE: encode64_uint32:bit <- 30
	.loc	1 227 10 is_stmt 1              # crypto_pwhash/scryptsalsa208sha256/crypto_scrypt-common.c:227:10
	movq	%r9, %rsi
.Ltmp198:
	#DEBUG_VALUE: encode64_uint32:dst <- undef
	#DEBUG_VALUE: escrypt_gensalt_r:dst <- undef
	.loc	1 43 16                         # crypto_pwhash/scryptsalsa208sha256/crypto_scrypt-common.c:43:16 @[ crypto_pwhash/scryptsalsa208sha256/crypto_scrypt-common.c:226:11 ]
	movb	%al, 8(%r9)
.Ltmp199:
	.loc	1 227 10                        # crypto_pwhash/scryptsalsa208sha256/crypto_scrypt-common.c:227:10
	addq	$9, %rsi
.Ltmp200:
	#DEBUG_VALUE: encode64_uint32:dst <- $rsi
	#DEBUG_VALUE: escrypt_gensalt_r:dst <- $rsi
	.loc	1 227 9 is_stmt 0               # crypto_pwhash/scryptsalsa208sha256/crypto_scrypt-common.c:227:9
	je	.LBB3_1
.Ltmp201:
# %bb.6:                                # %.lr.ph.i59
	#DEBUG_VALUE: escrypt_gensalt_r:N_log2 <- $edi
	#DEBUG_VALUE: escrypt_gensalt_r:r <- [DW_OP_LLVM_entry_value 1] $esi
	#DEBUG_VALUE: escrypt_gensalt_r:p <- $r10d
	#DEBUG_VALUE: escrypt_gensalt_r:src <- $rcx
	#DEBUG_VALUE: escrypt_gensalt_r:srclen <- $r8
	#DEBUG_VALUE: escrypt_gensalt_r:buf <- $r9
	#DEBUG_VALUE: escrypt_gensalt_r:buflen <- [DW_OP_plus_uconst 40] [$rsp+0]
	#DEBUG_VALUE: escrypt_gensalt_r:prefixlen <- 14
	#DEBUG_VALUE: escrypt_gensalt_r:dst <- $rsi
	.loc	1 230 46 is_stmt 1              # crypto_pwhash/scryptsalsa208sha256/crypto_scrypt-common.c:230:46
	addq	%r9, %r11
.Ltmp202:
	#DEBUG_VALUE: encode64_uint32:srcbits <- 30
	#DEBUG_VALUE: encode64_uint32:bit <- 0
	#DEBUG_VALUE: encode64_uint32:src <- $r10d
	#DEBUG_VALUE: encode64_uint32:dst <- $rsi
	.loc	1 40 20                         # crypto_pwhash/scryptsalsa208sha256/crypto_scrypt-common.c:40:20 @[ crypto_pwhash/scryptsalsa208sha256/crypto_scrypt-common.c:230:11 ]
	movq	%r11, %rax
	subq	%rsi, %rax
.Ltmp203:
	#DEBUG_VALUE: encode64_uint32:dstlen <- $rax
	je	.LBB3_1
.Ltmp204:
# %bb.9:                                # %.lr.ph.i59.1
	#DEBUG_VALUE: escrypt_gensalt_r:N_log2 <- $edi
	#DEBUG_VALUE: escrypt_gensalt_r:r <- [DW_OP_LLVM_entry_value 1] $esi
	#DEBUG_VALUE: escrypt_gensalt_r:p <- $r10d
	#DEBUG_VALUE: escrypt_gensalt_r:src <- $rcx
	#DEBUG_VALUE: escrypt_gensalt_r:srclen <- $r8
	#DEBUG_VALUE: escrypt_gensalt_r:buf <- $r9
	#DEBUG_VALUE: escrypt_gensalt_r:buflen <- [DW_OP_plus_uconst 40] [$rsp+0]
	#DEBUG_VALUE: escrypt_gensalt_r:prefixlen <- 14
	#DEBUG_VALUE: escrypt_gensalt_r:dst <- $rsi
	#DEBUG_VALUE: encode64_uint32:srcbits <- 30
	#DEBUG_VALUE: encode64_uint32:bit <- 0
	#DEBUG_VALUE: encode64_uint32:src <- $r10d
	#DEBUG_VALUE: encode64_uint32:dst <- $rsi
	#DEBUG_VALUE: encode64_uint32:dstlen <- $rax
	.loc	1 43 29                         # crypto_pwhash/scryptsalsa208sha256/crypto_scrypt-common.c:43:29 @[ crypto_pwhash/scryptsalsa208sha256/crypto_scrypt-common.c:230:11 ]
	movl	%r10d, %edi
.Ltmp205:
	#DEBUG_VALUE: escrypt_gensalt_r:N_log2 <- [DW_OP_LLVM_entry_value 1] $edi
	andl	$63, %edi
	.loc	1 43 18 is_stmt 0               # crypto_pwhash/scryptsalsa208sha256/crypto_scrypt-common.c:43:18 @[ crypto_pwhash/scryptsalsa208sha256/crypto_scrypt-common.c:230:11 ]
	movzbl	(%rdi,%rdx), %edi
.Ltmp206:
	#DEBUG_VALUE: encode64_uint32:dst <- [DW_OP_plus_uconst 1, DW_OP_stack_value] $rsi
	.loc	1 43 16                         # crypto_pwhash/scryptsalsa208sha256/crypto_scrypt-common.c:43:16 @[ crypto_pwhash/scryptsalsa208sha256/crypto_scrypt-common.c:230:11 ]
	movb	%dil, (%rsi)
.Ltmp207:
	#DEBUG_VALUE: encode64_uint32:dstlen <- [DW_OP_constu 1, DW_OP_minus, DW_OP_stack_value] $rax
	#DEBUG_VALUE: encode64_uint32:src <- [DW_OP_constu 6, DW_OP_shr, DW_OP_stack_value] $r10d
	#DEBUG_VALUE: encode64_uint32:bit <- 6
	.loc	1 40 20 is_stmt 1               # crypto_pwhash/scryptsalsa208sha256/crypto_scrypt-common.c:40:20 @[ crypto_pwhash/scryptsalsa208sha256/crypto_scrypt-common.c:230:11 ]
	cmpq	$1, %rax
	je	.LBB3_1
.Ltmp208:
# %bb.11:                               # %.lr.ph.i59.2
	#DEBUG_VALUE: escrypt_gensalt_r:N_log2 <- [DW_OP_LLVM_entry_value 1] $edi
	#DEBUG_VALUE: escrypt_gensalt_r:r <- [DW_OP_LLVM_entry_value 1] $esi
	#DEBUG_VALUE: escrypt_gensalt_r:p <- $r10d
	#DEBUG_VALUE: escrypt_gensalt_r:src <- $rcx
	#DEBUG_VALUE: escrypt_gensalt_r:srclen <- $r8
	#DEBUG_VALUE: escrypt_gensalt_r:buf <- $r9
	#DEBUG_VALUE: escrypt_gensalt_r:buflen <- [DW_OP_plus_uconst 40] [$rsp+0]
	#DEBUG_VALUE: escrypt_gensalt_r:prefixlen <- 14
	#DEBUG_VALUE: escrypt_gensalt_r:dst <- $rsi
	#DEBUG_VALUE: encode64_uint32:srcbits <- 30
	#DEBUG_VALUE: encode64_uint32:bit <- 6
	#DEBUG_VALUE: encode64_uint32:src <- [DW_OP_constu 6, DW_OP_shr, DW_OP_stack_value] $r10d
	#DEBUG_VALUE: encode64_uint32:dst <- [DW_OP_plus_uconst 1, DW_OP_stack_value] $rsi
	#DEBUG_VALUE: encode64_uint32:dstlen <- [DW_OP_constu 1, DW_OP_minus, DW_OP_stack_value] $rax
	.loc	1 45 13                         # crypto_pwhash/scryptsalsa208sha256/crypto_scrypt-common.c:45:13 @[ crypto_pwhash/scryptsalsa208sha256/crypto_scrypt-common.c:230:11 ]
	movl	%r10d, %esi
.Ltmp209:
	shrl	$6, %esi
.Ltmp210:
	#DEBUG_VALUE: encode64_uint32:src <- $esi
	#DEBUG_VALUE: encode64_uint32:dst <- [DW_OP_plus_uconst 10, DW_OP_stack_value] $r9
	.loc	1 43 29                         # crypto_pwhash/scryptsalsa208sha256/crypto_scrypt-common.c:43:29 @[ crypto_pwhash/scryptsalsa208sha256/crypto_scrypt-common.c:230:11 ]
	andl	$63, %esi
.Ltmp211:
	.loc	1 43 18 is_stmt 0               # crypto_pwhash/scryptsalsa208sha256/crypto_scrypt-common.c:43:18 @[ crypto_pwhash/scryptsalsa208sha256/crypto_scrypt-common.c:230:11 ]
	movzbl	(%rsi,%rdx), %esi
.Ltmp212:
	#DEBUG_VALUE: encode64_uint32:dst <- [DW_OP_plus_uconst 10, DW_OP_plus_uconst 1, DW_OP_stack_value] $r9
	.loc	1 43 16                         # crypto_pwhash/scryptsalsa208sha256/crypto_scrypt-common.c:43:16 @[ crypto_pwhash/scryptsalsa208sha256/crypto_scrypt-common.c:230:11 ]
	movb	%sil, 10(%r9)
.Ltmp213:
	#DEBUG_VALUE: encode64_uint32:dstlen <- [DW_OP_constu 2, DW_OP_minus, DW_OP_stack_value] $rax
	#DEBUG_VALUE: encode64_uint32:src <- [DW_OP_constu 6, DW_OP_shr, DW_OP_stack_value] undef
	#DEBUG_VALUE: encode64_uint32:bit <- 12
	.loc	1 40 20 is_stmt 1               # crypto_pwhash/scryptsalsa208sha256/crypto_scrypt-common.c:40:20 @[ crypto_pwhash/scryptsalsa208sha256/crypto_scrypt-common.c:230:11 ]
	cmpq	$2, %rax
	je	.LBB3_1
.Ltmp214:
# %bb.13:                               # %.lr.ph.i59.3
	#DEBUG_VALUE: escrypt_gensalt_r:N_log2 <- [DW_OP_LLVM_entry_value 1] $edi
	#DEBUG_VALUE: escrypt_gensalt_r:r <- [DW_OP_LLVM_entry_value 1] $esi
	#DEBUG_VALUE: escrypt_gensalt_r:p <- $r10d
	#DEBUG_VALUE: escrypt_gensalt_r:src <- $rcx
	#DEBUG_VALUE: escrypt_gensalt_r:srclen <- $r8
	#DEBUG_VALUE: escrypt_gensalt_r:buf <- $r9
	#DEBUG_VALUE: escrypt_gensalt_r:buflen <- [DW_OP_plus_uconst 40] [$rsp+0]
	#DEBUG_VALUE: escrypt_gensalt_r:prefixlen <- 14
	#DEBUG_VALUE: encode64_uint32:srcbits <- 30
	#DEBUG_VALUE: encode64_uint32:bit <- 12
	#DEBUG_VALUE: encode64_uint32:dst <- [DW_OP_plus_uconst 10, DW_OP_plus_uconst 1, DW_OP_stack_value] $r9
	#DEBUG_VALUE: encode64_uint32:dstlen <- [DW_OP_constu 2, DW_OP_minus, DW_OP_stack_value] $rax
	.loc	1 45 13                         # crypto_pwhash/scryptsalsa208sha256/crypto_scrypt-common.c:45:13 @[ crypto_pwhash/scryptsalsa208sha256/crypto_scrypt-common.c:230:11 ]
	movl	%r10d, %esi
	shrl	$12, %esi
.Ltmp215:
	#DEBUG_VALUE: encode64_uint32:src <- $esi
	#DEBUG_VALUE: encode64_uint32:dst <- [DW_OP_plus_uconst 11, DW_OP_stack_value] $r9
	.loc	1 43 29                         # crypto_pwhash/scryptsalsa208sha256/crypto_scrypt-common.c:43:29 @[ crypto_pwhash/scryptsalsa208sha256/crypto_scrypt-common.c:230:11 ]
	andl	$63, %esi
.Ltmp216:
	.loc	1 43 18 is_stmt 0               # crypto_pwhash/scryptsalsa208sha256/crypto_scrypt-common.c:43:18 @[ crypto_pwhash/scryptsalsa208sha256/crypto_scrypt-common.c:230:11 ]
	movzbl	(%rsi,%rdx), %esi
.Ltmp217:
	#DEBUG_VALUE: encode64_uint32:dst <- [DW_OP_plus_uconst 11, DW_OP_plus_uconst 1, DW_OP_stack_value] $r9
	.loc	1 43 16                         # crypto_pwhash/scryptsalsa208sha256/crypto_scrypt-common.c:43:16 @[ crypto_pwhash/scryptsalsa208sha256/crypto_scrypt-common.c:230:11 ]
	movb	%sil, 11(%r9)
.Ltmp218:
	#DEBUG_VALUE: encode64_uint32:dstlen <- [DW_OP_constu 3, DW_OP_minus, DW_OP_stack_value] $rax
	#DEBUG_VALUE: encode64_uint32:src <- [DW_OP_constu 6, DW_OP_shr, DW_OP_stack_value] undef
	#DEBUG_VALUE: encode64_uint32:bit <- 18
	.loc	1 40 20 is_stmt 1               # crypto_pwhash/scryptsalsa208sha256/crypto_scrypt-common.c:40:20 @[ crypto_pwhash/scryptsalsa208sha256/crypto_scrypt-common.c:230:11 ]
	cmpq	$3, %rax
	je	.LBB3_1
.Ltmp219:
# %bb.15:                               # %.lr.ph.i59.4
	#DEBUG_VALUE: escrypt_gensalt_r:N_log2 <- [DW_OP_LLVM_entry_value 1] $edi
	#DEBUG_VALUE: escrypt_gensalt_r:r <- [DW_OP_LLVM_entry_value 1] $esi
	#DEBUG_VALUE: escrypt_gensalt_r:p <- $r10d
	#DEBUG_VALUE: escrypt_gensalt_r:src <- $rcx
	#DEBUG_VALUE: escrypt_gensalt_r:srclen <- $r8
	#DEBUG_VALUE: escrypt_gensalt_r:buf <- $r9
	#DEBUG_VALUE: escrypt_gensalt_r:buflen <- [DW_OP_plus_uconst 40] [$rsp+0]
	#DEBUG_VALUE: escrypt_gensalt_r:prefixlen <- 14
	#DEBUG_VALUE: encode64_uint32:srcbits <- 30
	#DEBUG_VALUE: encode64_uint32:bit <- 18
	#DEBUG_VALUE: encode64_uint32:dst <- [DW_OP_plus_uconst 11, DW_OP_plus_uconst 1, DW_OP_stack_value] $r9
	#DEBUG_VALUE: encode64_uint32:dstlen <- [DW_OP_constu 3, DW_OP_minus, DW_OP_stack_value] $rax
	.loc	1 45 13                         # crypto_pwhash/scryptsalsa208sha256/crypto_scrypt-common.c:45:13 @[ crypto_pwhash/scryptsalsa208sha256/crypto_scrypt-common.c:230:11 ]
	movl	%r10d, %esi
	shrl	$18, %esi
.Ltmp220:
	#DEBUG_VALUE: encode64_uint32:src <- $esi
	#DEBUG_VALUE: encode64_uint32:dst <- [DW_OP_plus_uconst 12, DW_OP_stack_value] $r9
	.loc	1 43 29                         # crypto_pwhash/scryptsalsa208sha256/crypto_scrypt-common.c:43:29 @[ crypto_pwhash/scryptsalsa208sha256/crypto_scrypt-common.c:230:11 ]
	andl	$63, %esi
.Ltmp221:
	.loc	1 43 18 is_stmt 0               # crypto_pwhash/scryptsalsa208sha256/crypto_scrypt-common.c:43:18 @[ crypto_pwhash/scryptsalsa208sha256/crypto_scrypt-common.c:230:11 ]
	movzbl	(%rsi,%rdx), %esi
.Ltmp222:
	#DEBUG_VALUE: encode64_uint32:dst <- [DW_OP_plus_uconst 12, DW_OP_plus_uconst 1, DW_OP_stack_value] $r9
	.loc	1 43 16                         # crypto_pwhash/scryptsalsa208sha256/crypto_scrypt-common.c:43:16 @[ crypto_pwhash/scryptsalsa208sha256/crypto_scrypt-common.c:230:11 ]
	movb	%sil, 12(%r9)
.Ltmp223:
	#DEBUG_VALUE: encode64_uint32:dstlen <- [DW_OP_constu 4, DW_OP_minus, DW_OP_stack_value] $rax
	#DEBUG_VALUE: encode64_uint32:src <- [DW_OP_constu 6, DW_OP_shr, DW_OP_stack_value] undef
	#DEBUG_VALUE: encode64_uint32:bit <- 24
	.loc	1 40 20 is_stmt 1               # crypto_pwhash/scryptsalsa208sha256/crypto_scrypt-common.c:40:20 @[ crypto_pwhash/scryptsalsa208sha256/crypto_scrypt-common.c:230:11 ]
	cmpq	$4, %rax
	je	.LBB3_1
.Ltmp224:
# %bb.17:                               # %encode64_uint32.exit65
	#DEBUG_VALUE: escrypt_gensalt_r:N_log2 <- [DW_OP_LLVM_entry_value 1] $edi
	#DEBUG_VALUE: escrypt_gensalt_r:r <- [DW_OP_LLVM_entry_value 1] $esi
	#DEBUG_VALUE: escrypt_gensalt_r:p <- $r10d
	#DEBUG_VALUE: escrypt_gensalt_r:src <- $rcx
	#DEBUG_VALUE: escrypt_gensalt_r:srclen <- $r8
	#DEBUG_VALUE: escrypt_gensalt_r:buf <- $r9
	#DEBUG_VALUE: escrypt_gensalt_r:buflen <- [DW_OP_plus_uconst 40] [$rsp+0]
	#DEBUG_VALUE: escrypt_gensalt_r:prefixlen <- 14
	#DEBUG_VALUE: encode64_uint32:srcbits <- 30
	#DEBUG_VALUE: encode64_uint32:bit <- 24
	#DEBUG_VALUE: encode64_uint32:dst <- [DW_OP_plus_uconst 12, DW_OP_plus_uconst 1, DW_OP_stack_value] $r9
	#DEBUG_VALUE: encode64_uint32:dstlen <- [DW_OP_constu 4, DW_OP_minus, DW_OP_stack_value] $rax
	.loc	1 45 13                         # crypto_pwhash/scryptsalsa208sha256/crypto_scrypt-common.c:45:13 @[ crypto_pwhash/scryptsalsa208sha256/crypto_scrypt-common.c:230:11 ]
	shrl	$24, %r10d
.Ltmp225:
	#DEBUG_VALUE: escrypt_gensalt_r:p <- [DW_OP_LLVM_entry_value 1] $edx
	#DEBUG_VALUE: encode64_uint32:src <- $r10d
	#DEBUG_VALUE: encode64_uint32:dst <- [DW_OP_plus_uconst 13, DW_OP_stack_value] $r9
	.loc	1 43 29                         # crypto_pwhash/scryptsalsa208sha256/crypto_scrypt-common.c:43:29 @[ crypto_pwhash/scryptsalsa208sha256/crypto_scrypt-common.c:230:11 ]
	andl	$63, %r10d
.Ltmp226:
	.loc	1 43 18 is_stmt 0               # crypto_pwhash/scryptsalsa208sha256/crypto_scrypt-common.c:43:18 @[ crypto_pwhash/scryptsalsa208sha256/crypto_scrypt-common.c:230:11 ]
	movzbl	(%r10,%rdx), %eax
.Ltmp227:
	#DEBUG_VALUE: encode64_uint32:dstlen <- [DW_OP_constu 5, DW_OP_minus, DW_OP_stack_value] undef
	#DEBUG_VALUE: encode64_uint32:src <- [DW_OP_constu 6, DW_OP_shr, DW_OP_stack_value] undef
	#DEBUG_VALUE: encode64_uint32:bit <- 30
	.loc	1 231 10 is_stmt 1              # crypto_pwhash/scryptsalsa208sha256/crypto_scrypt-common.c:231:10
	movq	%r9, %rsi
.Ltmp228:
	#DEBUG_VALUE: encode64_uint32:dst <- undef
	#DEBUG_VALUE: escrypt_gensalt_r:dst <- undef
	.loc	1 43 16                         # crypto_pwhash/scryptsalsa208sha256/crypto_scrypt-common.c:43:16 @[ crypto_pwhash/scryptsalsa208sha256/crypto_scrypt-common.c:230:11 ]
	movb	%al, 13(%r9)
.Ltmp229:
	.loc	1 231 10                        # crypto_pwhash/scryptsalsa208sha256/crypto_scrypt-common.c:231:10
	addq	$14, %rsi
.Ltmp230:
	#DEBUG_VALUE: encode64_uint32:dst <- $rsi
	#DEBUG_VALUE: escrypt_gensalt_r:dst <- $rsi
	.loc	1 231 9 is_stmt 0               # crypto_pwhash/scryptsalsa208sha256/crypto_scrypt-common.c:231:9
	je	.LBB3_1
.Ltmp231:
# %bb.18:
	#DEBUG_VALUE: escrypt_gensalt_r:N_log2 <- [DW_OP_LLVM_entry_value 1] $edi
	#DEBUG_VALUE: escrypt_gensalt_r:r <- [DW_OP_LLVM_entry_value 1] $esi
	#DEBUG_VALUE: escrypt_gensalt_r:p <- [DW_OP_LLVM_entry_value 1] $edx
	#DEBUG_VALUE: escrypt_gensalt_r:src <- $rcx
	#DEBUG_VALUE: escrypt_gensalt_r:srclen <- $r8
	#DEBUG_VALUE: escrypt_gensalt_r:buf <- $r9
	#DEBUG_VALUE: escrypt_gensalt_r:buflen <- [DW_OP_plus_uconst 40] [$rsp+0]
	#DEBUG_VALUE: escrypt_gensalt_r:prefixlen <- 14
	#DEBUG_VALUE: escrypt_gensalt_r:dst <- $rsi
	.loc	1 234 32 is_stmt 1              # crypto_pwhash/scryptsalsa208sha256/crypto_scrypt-common.c:234:32
	movq	%r11, %rdi
	subq	%rsi, %rdi
	#DEBUG_VALUE: encode64:dstlen <- $rdi
	xorl	%eax, %eax
	#DEBUG_VALUE: encode64:dst <- $rsi
	#DEBUG_VALUE: encode64:src <- $rcx
	#DEBUG_VALUE: encode64:srclen <- $r8
	#DEBUG_VALUE: encode64:i <- 0
	xorl	%r10d, %r10d
	jmp	.LBB3_21
.Ltmp232:
.LBB3_19:                               #   in Loop: Header=BB3_21 Depth=1
	#DEBUG_VALUE: escrypt_gensalt_r:N_log2 <- [DW_OP_LLVM_entry_value 1] $edi
	#DEBUG_VALUE: escrypt_gensalt_r:r <- [DW_OP_LLVM_entry_value 1] $esi
	#DEBUG_VALUE: escrypt_gensalt_r:p <- [DW_OP_LLVM_entry_value 1] $edx
	#DEBUG_VALUE: escrypt_gensalt_r:src <- $rcx
	#DEBUG_VALUE: escrypt_gensalt_r:srclen <- $r8
	#DEBUG_VALUE: escrypt_gensalt_r:buf <- $r9
	#DEBUG_VALUE: escrypt_gensalt_r:buflen <- [DW_OP_plus_uconst 40] [$rsp+0]
	#DEBUG_VALUE: escrypt_gensalt_r:prefixlen <- 14
	#DEBUG_VALUE: encode64:dstlen <- $rdi
	#DEBUG_VALUE: encode64:dst <- $rsi
	#DEBUG_VALUE: encode64:src <- $rcx
	#DEBUG_VALUE: encode64:srclen <- $r8
	#DEBUG_VALUE: encode64:i <- $r10
	#DEBUG_VALUE: value <- $ebx
	#DEBUG_VALUE: encode64_uint32:bit <- 12
	#DEBUG_VALUE: encode64_uint32:dstlen <- [DW_OP_constu 2, DW_OP_minus, DW_OP_stack_value] $rdi
	.loc	1 0 0 is_stmt 0                 # crypto_pwhash/scryptsalsa208sha256/crypto_scrypt-common.c:0 @[ crypto_pwhash/scryptsalsa208sha256/crypto_scrypt-common.c:64:17 @[ crypto_pwhash/scryptsalsa208sha256/crypto_scrypt-common.c:234:11 ] ]
	leaq	2(%rsi), %rbx
.Ltmp233:
	#DEBUG_VALUE: encode64_uint32:dst <- $rbx
.LBB3_20:                               # %encode64_uint32.exit.i
                                        #   in Loop: Header=BB3_21 Depth=1
	#DEBUG_VALUE: escrypt_gensalt_r:N_log2 <- [DW_OP_LLVM_entry_value 1] $edi
	#DEBUG_VALUE: escrypt_gensalt_r:r <- [DW_OP_LLVM_entry_value 1] $esi
	#DEBUG_VALUE: escrypt_gensalt_r:p <- [DW_OP_LLVM_entry_value 1] $edx
	#DEBUG_VALUE: escrypt_gensalt_r:src <- $rcx
	#DEBUG_VALUE: escrypt_gensalt_r:srclen <- $r8
	#DEBUG_VALUE: escrypt_gensalt_r:buf <- $r9
	#DEBUG_VALUE: escrypt_gensalt_r:buflen <- [DW_OP_plus_uconst 40] [$rsp+0]
	#DEBUG_VALUE: escrypt_gensalt_r:prefixlen <- 14
	#DEBUG_VALUE: encode64:dstlen <- $rdi
	#DEBUG_VALUE: encode64:dst <- $rsi
	#DEBUG_VALUE: encode64:src <- $rcx
	#DEBUG_VALUE: encode64:srclen <- $r8
	#DEBUG_VALUE: encode64:i <- $r10
	#DEBUG_VALUE: dnext <- $rbx
	.loc	1 65 13 is_stmt 1               # crypto_pwhash/scryptsalsa208sha256/crypto_scrypt-common.c:65:13 @[ crypto_pwhash/scryptsalsa208sha256/crypto_scrypt-common.c:234:11 ]
	addq	%rsi, %rdi
.Ltmp234:
	subq	%rbx, %rdi
	movq	%rbx, %rsi
.Ltmp235:
	.loc	1 65 14 is_stmt 0               # crypto_pwhash/scryptsalsa208sha256/crypto_scrypt-common.c:65:14 @[ crypto_pwhash/scryptsalsa208sha256/crypto_scrypt-common.c:234:11 ]
	testq	%rbx, %rbx
.Ltmp236:
	#DEBUG_VALUE: encode64:dst <- undef
	#DEBUG_VALUE: encode64:dstlen <- undef
	.loc	1 0 14                          # crypto_pwhash/scryptsalsa208sha256/crypto_scrypt-common.c:0:14
	je	.LBB3_2
.Ltmp237:
.LBB3_21:                               # =>This Inner Loop Header: Depth=1
	#DEBUG_VALUE: escrypt_gensalt_r:N_log2 <- [DW_OP_LLVM_entry_value 1] $edi
	#DEBUG_VALUE: escrypt_gensalt_r:r <- [DW_OP_LLVM_entry_value 1] $esi
	#DEBUG_VALUE: escrypt_gensalt_r:p <- [DW_OP_LLVM_entry_value 1] $edx
	#DEBUG_VALUE: escrypt_gensalt_r:src <- $rcx
	#DEBUG_VALUE: escrypt_gensalt_r:srclen <- $r8
	#DEBUG_VALUE: escrypt_gensalt_r:buf <- $r9
	#DEBUG_VALUE: escrypt_gensalt_r:buflen <- [DW_OP_plus_uconst 40] [$rsp+0]
	#DEBUG_VALUE: escrypt_gensalt_r:prefixlen <- 14
	#DEBUG_VALUE: encode64:src <- $rcx
	#DEBUG_VALUE: encode64:srclen <- $r8
	#DEBUG_VALUE: encode64:i <- $r10
	#DEBUG_VALUE: encode64:dst <- $rsi
	#DEBUG_VALUE: encode64:dstlen <- $rdi
	.loc	1 55 19 is_stmt 1               # crypto_pwhash/scryptsalsa208sha256/crypto_scrypt-common.c:55:19 @[ crypto_pwhash/scryptsalsa208sha256/crypto_scrypt-common.c:234:11 ]
	cmpq	%r8, %r10
.Ltmp238:
	.loc	1 55 5 is_stmt 0                # crypto_pwhash/scryptsalsa208sha256/crypto_scrypt-common.c:55:5 @[ crypto_pwhash/scryptsalsa208sha256/crypto_scrypt-common.c:234:11 ]
	jae	.LBB3_36
.Ltmp239:
# %bb.22:                               # %.preheader.i
                                        #   in Loop: Header=BB3_21 Depth=1
	#DEBUG_VALUE: escrypt_gensalt_r:N_log2 <- [DW_OP_LLVM_entry_value 1] $edi
	#DEBUG_VALUE: escrypt_gensalt_r:r <- [DW_OP_LLVM_entry_value 1] $esi
	#DEBUG_VALUE: escrypt_gensalt_r:p <- [DW_OP_LLVM_entry_value 1] $edx
	#DEBUG_VALUE: escrypt_gensalt_r:src <- $rcx
	#DEBUG_VALUE: escrypt_gensalt_r:srclen <- $r8
	#DEBUG_VALUE: escrypt_gensalt_r:buf <- $r9
	#DEBUG_VALUE: escrypt_gensalt_r:buflen <- [DW_OP_plus_uconst 40] [$rsp+0]
	#DEBUG_VALUE: escrypt_gensalt_r:prefixlen <- 14
	#DEBUG_VALUE: encode64:dstlen <- $rdi
	#DEBUG_VALUE: encode64:dst <- $rsi
	#DEBUG_VALUE: encode64:src <- $rcx
	#DEBUG_VALUE: encode64:srclen <- $r8
	#DEBUG_VALUE: encode64:i <- $r10
	#DEBUG_VALUE: bits <- 0
	#DEBUG_VALUE: value <- 0
	#DEBUG_VALUE: encode64:i <- $r10
	.loc	1 60 38 is_stmt 1               # crypto_pwhash/scryptsalsa208sha256/crypto_scrypt-common.c:60:38 @[ crypto_pwhash/scryptsalsa208sha256/crypto_scrypt-common.c:234:11 ]
	leaq	1(%r10), %r14
.Ltmp240:
	#DEBUG_VALUE: encode64:i <- $r14
	.loc	1 60 33 is_stmt 0               # crypto_pwhash/scryptsalsa208sha256/crypto_scrypt-common.c:60:33 @[ crypto_pwhash/scryptsalsa208sha256/crypto_scrypt-common.c:234:11 ]
	movzbl	(%rcx,%r10), %ebx
.Ltmp241:
	#DEBUG_VALUE: bits <- 8
	#DEBUG_VALUE: value <- $ebx
	.loc	1 62 28 is_stmt 1               # crypto_pwhash/scryptsalsa208sha256/crypto_scrypt-common.c:62:28 @[ crypto_pwhash/scryptsalsa208sha256/crypto_scrypt-common.c:234:11 ]
	cmpq	%r8, %r14
.Ltmp242:
	.loc	1 62 9 is_stmt 0                # crypto_pwhash/scryptsalsa208sha256/crypto_scrypt-common.c:62:9 @[ crypto_pwhash/scryptsalsa208sha256/crypto_scrypt-common.c:234:11 ]
	jae	.LBB3_25
.Ltmp243:
# %bb.23:                               # %.preheader.i.1
                                        #   in Loop: Header=BB3_21 Depth=1
	#DEBUG_VALUE: escrypt_gensalt_r:N_log2 <- [DW_OP_LLVM_entry_value 1] $edi
	#DEBUG_VALUE: escrypt_gensalt_r:r <- [DW_OP_LLVM_entry_value 1] $esi
	#DEBUG_VALUE: escrypt_gensalt_r:p <- [DW_OP_LLVM_entry_value 1] $edx
	#DEBUG_VALUE: escrypt_gensalt_r:src <- $rcx
	#DEBUG_VALUE: escrypt_gensalt_r:srclen <- $r8
	#DEBUG_VALUE: escrypt_gensalt_r:buf <- $r9
	#DEBUG_VALUE: escrypt_gensalt_r:buflen <- [DW_OP_plus_uconst 40] [$rsp+0]
	#DEBUG_VALUE: escrypt_gensalt_r:prefixlen <- 14
	#DEBUG_VALUE: encode64:dstlen <- $rdi
	#DEBUG_VALUE: encode64:dst <- $rsi
	#DEBUG_VALUE: encode64:src <- $rcx
	#DEBUG_VALUE: encode64:srclen <- $r8
	#DEBUG_VALUE: encode64:i <- $r14
	#DEBUG_VALUE: bits <- 8
	#DEBUG_VALUE: value <- $ebx
	#DEBUG_VALUE: bits <- 8
	#DEBUG_VALUE: value <- $ebx
	#DEBUG_VALUE: encode64:i <- $r14
	.loc	1 60 38 is_stmt 1               # crypto_pwhash/scryptsalsa208sha256/crypto_scrypt-common.c:60:38 @[ crypto_pwhash/scryptsalsa208sha256/crypto_scrypt-common.c:234:11 ]
	leaq	2(%r10), %r15
.Ltmp244:
	#DEBUG_VALUE: encode64:i <- $r15
	.loc	1 60 33 is_stmt 0               # crypto_pwhash/scryptsalsa208sha256/crypto_scrypt-common.c:60:33 @[ crypto_pwhash/scryptsalsa208sha256/crypto_scrypt-common.c:234:11 ]
	movzbl	1(%rcx,%r10), %ebp
	.loc	1 60 42                         # crypto_pwhash/scryptsalsa208sha256/crypto_scrypt-common.c:60:42 @[ crypto_pwhash/scryptsalsa208sha256/crypto_scrypt-common.c:234:11 ]
	shll	$8, %ebp
	.loc	1 60 19                         # crypto_pwhash/scryptsalsa208sha256/crypto_scrypt-common.c:60:19 @[ crypto_pwhash/scryptsalsa208sha256/crypto_scrypt-common.c:234:11 ]
	orl	%ebp, %ebx
.Ltmp245:
	#DEBUG_VALUE: value <- $ebx
	#DEBUG_VALUE: bits <- 16
	.loc	1 62 28 is_stmt 1               # crypto_pwhash/scryptsalsa208sha256/crypto_scrypt-common.c:62:28 @[ crypto_pwhash/scryptsalsa208sha256/crypto_scrypt-common.c:234:11 ]
	cmpq	%r8, %r15
.Ltmp246:
	.loc	1 62 9 is_stmt 0                # crypto_pwhash/scryptsalsa208sha256/crypto_scrypt-common.c:62:9 @[ crypto_pwhash/scryptsalsa208sha256/crypto_scrypt-common.c:234:11 ]
	jae	.LBB3_26
.Ltmp247:
# %bb.24:                               # %.preheader.i.2
                                        #   in Loop: Header=BB3_21 Depth=1
	#DEBUG_VALUE: escrypt_gensalt_r:N_log2 <- [DW_OP_LLVM_entry_value 1] $edi
	#DEBUG_VALUE: escrypt_gensalt_r:r <- [DW_OP_LLVM_entry_value 1] $esi
	#DEBUG_VALUE: escrypt_gensalt_r:p <- [DW_OP_LLVM_entry_value 1] $edx
	#DEBUG_VALUE: escrypt_gensalt_r:src <- $rcx
	#DEBUG_VALUE: escrypt_gensalt_r:srclen <- $r8
	#DEBUG_VALUE: escrypt_gensalt_r:buf <- $r9
	#DEBUG_VALUE: escrypt_gensalt_r:buflen <- [DW_OP_plus_uconst 40] [$rsp+0]
	#DEBUG_VALUE: escrypt_gensalt_r:prefixlen <- 14
	#DEBUG_VALUE: encode64:dstlen <- $rdi
	#DEBUG_VALUE: encode64:dst <- $rsi
	#DEBUG_VALUE: encode64:src <- $rcx
	#DEBUG_VALUE: encode64:srclen <- $r8
	#DEBUG_VALUE: encode64:i <- $r15
	#DEBUG_VALUE: bits <- 16
	#DEBUG_VALUE: value <- $ebx
	.loc	1 60 33 is_stmt 1               # crypto_pwhash/scryptsalsa208sha256/crypto_scrypt-common.c:60:33 @[ crypto_pwhash/scryptsalsa208sha256/crypto_scrypt-common.c:234:11 ]
	movzbl	2(%rcx,%r10), %ebp
	#DEBUG_VALUE: bits <- 16
	#DEBUG_VALUE: value <- $ebx
	#DEBUG_VALUE: encode64:i <- $r15
	.loc	1 60 38 is_stmt 0               # crypto_pwhash/scryptsalsa208sha256/crypto_scrypt-common.c:60:38 @[ crypto_pwhash/scryptsalsa208sha256/crypto_scrypt-common.c:234:11 ]
	addq	$3, %r10
.Ltmp248:
	#DEBUG_VALUE: encode64:i <- $r10
	.loc	1 60 42                         # crypto_pwhash/scryptsalsa208sha256/crypto_scrypt-common.c:60:42 @[ crypto_pwhash/scryptsalsa208sha256/crypto_scrypt-common.c:234:11 ]
	shll	$16, %ebp
	.loc	1 60 19                         # crypto_pwhash/scryptsalsa208sha256/crypto_scrypt-common.c:60:19 @[ crypto_pwhash/scryptsalsa208sha256/crypto_scrypt-common.c:234:11 ]
	orl	%ebp, %ebx
.Ltmp249:
	#DEBUG_VALUE: value <- $ebx
	.loc	1 0 19                          # crypto_pwhash/scryptsalsa208sha256/crypto_scrypt-common.c:0:19
	movb	$1, %bpl
.Ltmp250:
	#DEBUG_VALUE: bits <- 24
	jmp	.LBB3_27
.Ltmp251:
.LBB3_25:                               #   in Loop: Header=BB3_21 Depth=1
	#DEBUG_VALUE: escrypt_gensalt_r:N_log2 <- [DW_OP_LLVM_entry_value 1] $edi
	#DEBUG_VALUE: escrypt_gensalt_r:r <- [DW_OP_LLVM_entry_value 1] $esi
	#DEBUG_VALUE: escrypt_gensalt_r:p <- [DW_OP_LLVM_entry_value 1] $edx
	#DEBUG_VALUE: escrypt_gensalt_r:src <- $rcx
	#DEBUG_VALUE: escrypt_gensalt_r:srclen <- $r8
	#DEBUG_VALUE: escrypt_gensalt_r:buf <- $r9
	#DEBUG_VALUE: escrypt_gensalt_r:buflen <- [DW_OP_plus_uconst 40] [$rsp+0]
	#DEBUG_VALUE: escrypt_gensalt_r:prefixlen <- 14
	#DEBUG_VALUE: encode64:dstlen <- $rdi
	#DEBUG_VALUE: encode64:dst <- $rsi
	#DEBUG_VALUE: encode64:src <- $rcx
	#DEBUG_VALUE: encode64:srclen <- $r8
	#DEBUG_VALUE: encode64:i <- $r14
	#DEBUG_VALUE: bits <- 8
	#DEBUG_VALUE: value <- $ebx
	xorl	%ebp, %ebp
	movq	%r14, %r10
	.loc	1 62 9 is_stmt 1                # crypto_pwhash/scryptsalsa208sha256/crypto_scrypt-common.c:62:9 @[ crypto_pwhash/scryptsalsa208sha256/crypto_scrypt-common.c:234:11 ]
	jmp	.LBB3_27
.Ltmp252:
.LBB3_26:                               #   in Loop: Header=BB3_21 Depth=1
	#DEBUG_VALUE: escrypt_gensalt_r:N_log2 <- [DW_OP_LLVM_entry_value 1] $edi
	#DEBUG_VALUE: escrypt_gensalt_r:r <- [DW_OP_LLVM_entry_value 1] $esi
	#DEBUG_VALUE: escrypt_gensalt_r:p <- [DW_OP_LLVM_entry_value 1] $edx
	#DEBUG_VALUE: escrypt_gensalt_r:src <- $rcx
	#DEBUG_VALUE: escrypt_gensalt_r:srclen <- $r8
	#DEBUG_VALUE: escrypt_gensalt_r:buf <- $r9
	#DEBUG_VALUE: escrypt_gensalt_r:buflen <- [DW_OP_plus_uconst 40] [$rsp+0]
	#DEBUG_VALUE: escrypt_gensalt_r:prefixlen <- 14
	#DEBUG_VALUE: encode64:dstlen <- $rdi
	#DEBUG_VALUE: encode64:dst <- $rsi
	#DEBUG_VALUE: encode64:src <- $rcx
	#DEBUG_VALUE: encode64:srclen <- $r8
	#DEBUG_VALUE: encode64:i <- $r15
	#DEBUG_VALUE: bits <- 16
	#DEBUG_VALUE: value <- $ebx
	.loc	1 0 9 is_stmt 0                 # crypto_pwhash/scryptsalsa208sha256/crypto_scrypt-common.c:0:9
	xorl	%ebp, %ebp
	movq	%r15, %r10
.Ltmp253:
.LBB3_27:                               # %.lr.ph.i.i
                                        #   in Loop: Header=BB3_21 Depth=1
	#DEBUG_VALUE: escrypt_gensalt_r:N_log2 <- [DW_OP_LLVM_entry_value 1] $edi
	#DEBUG_VALUE: escrypt_gensalt_r:r <- [DW_OP_LLVM_entry_value 1] $esi
	#DEBUG_VALUE: escrypt_gensalt_r:p <- [DW_OP_LLVM_entry_value 1] $edx
	#DEBUG_VALUE: escrypt_gensalt_r:src <- $rcx
	#DEBUG_VALUE: escrypt_gensalt_r:srclen <- $r8
	#DEBUG_VALUE: escrypt_gensalt_r:buf <- $r9
	#DEBUG_VALUE: escrypt_gensalt_r:buflen <- [DW_OP_plus_uconst 40] [$rsp+0]
	#DEBUG_VALUE: escrypt_gensalt_r:prefixlen <- 14
	#DEBUG_VALUE: encode64:dstlen <- $rdi
	#DEBUG_VALUE: encode64:dst <- $rsi
	#DEBUG_VALUE: encode64:src <- $rcx
	#DEBUG_VALUE: encode64:srclen <- $r8
	#DEBUG_VALUE: encode64:i <- $r10
	#DEBUG_VALUE: value <- $ebx
	#DEBUG_VALUE: encode64_uint32:bit <- 0
	#DEBUG_VALUE: encode64_uint32:src <- $ebx
	#DEBUG_VALUE: encode64_uint32:dstlen <- $rdi
	#DEBUG_VALUE: encode64_uint32:dst <- $rsi
	.loc	1 40 20 is_stmt 1               # crypto_pwhash/scryptsalsa208sha256/crypto_scrypt-common.c:40:20 @[ crypto_pwhash/scryptsalsa208sha256/crypto_scrypt-common.c:64:17 @[ crypto_pwhash/scryptsalsa208sha256/crypto_scrypt-common.c:234:11 ] ]
	testq	%rdi, %rdi
	je	.LBB3_2
.Ltmp254:
# %bb.28:                               # %.lr.ph.i.i.1
                                        #   in Loop: Header=BB3_21 Depth=1
	#DEBUG_VALUE: escrypt_gensalt_r:N_log2 <- [DW_OP_LLVM_entry_value 1] $edi
	#DEBUG_VALUE: escrypt_gensalt_r:r <- [DW_OP_LLVM_entry_value 1] $esi
	#DEBUG_VALUE: escrypt_gensalt_r:p <- [DW_OP_LLVM_entry_value 1] $edx
	#DEBUG_VALUE: escrypt_gensalt_r:src <- $rcx
	#DEBUG_VALUE: escrypt_gensalt_r:srclen <- $r8
	#DEBUG_VALUE: escrypt_gensalt_r:buf <- $r9
	#DEBUG_VALUE: escrypt_gensalt_r:buflen <- [DW_OP_plus_uconst 40] [$rsp+0]
	#DEBUG_VALUE: escrypt_gensalt_r:prefixlen <- 14
	#DEBUG_VALUE: encode64:dstlen <- $rdi
	#DEBUG_VALUE: encode64:dst <- $rsi
	#DEBUG_VALUE: encode64:src <- $rcx
	#DEBUG_VALUE: encode64:srclen <- $r8
	#DEBUG_VALUE: encode64:i <- $r10
	#DEBUG_VALUE: value <- $ebx
	#DEBUG_VALUE: encode64_uint32:bit <- 0
	#DEBUG_VALUE: encode64_uint32:src <- $ebx
	#DEBUG_VALUE: encode64_uint32:dstlen <- $rdi
	#DEBUG_VALUE: encode64_uint32:dst <- $rsi
	.loc	1 43 29                         # crypto_pwhash/scryptsalsa208sha256/crypto_scrypt-common.c:43:29 @[ crypto_pwhash/scryptsalsa208sha256/crypto_scrypt-common.c:64:17 @[ crypto_pwhash/scryptsalsa208sha256/crypto_scrypt-common.c:234:11 ] ]
	movl	%ebx, %r15d
	andl	$63, %r15d
	.loc	1 43 18 is_stmt 0               # crypto_pwhash/scryptsalsa208sha256/crypto_scrypt-common.c:43:18 @[ crypto_pwhash/scryptsalsa208sha256/crypto_scrypt-common.c:64:17 @[ crypto_pwhash/scryptsalsa208sha256/crypto_scrypt-common.c:234:11 ] ]
	movzbl	(%r15,%rdx), %r15d
.Ltmp255:
	#DEBUG_VALUE: encode64_uint32:dst <- [DW_OP_plus_uconst 1, DW_OP_stack_value] $rsi
	.loc	1 43 16                         # crypto_pwhash/scryptsalsa208sha256/crypto_scrypt-common.c:43:16 @[ crypto_pwhash/scryptsalsa208sha256/crypto_scrypt-common.c:64:17 @[ crypto_pwhash/scryptsalsa208sha256/crypto_scrypt-common.c:234:11 ] ]
	movb	%r15b, (%rsi)
.Ltmp256:
	#DEBUG_VALUE: encode64_uint32:dstlen <- [DW_OP_constu 1, DW_OP_minus, DW_OP_stack_value] $rdi
	#DEBUG_VALUE: encode64_uint32:src <- undef
	#DEBUG_VALUE: encode64_uint32:bit <- 6
	.loc	1 40 20 is_stmt 1               # crypto_pwhash/scryptsalsa208sha256/crypto_scrypt-common.c:40:20 @[ crypto_pwhash/scryptsalsa208sha256/crypto_scrypt-common.c:64:17 @[ crypto_pwhash/scryptsalsa208sha256/crypto_scrypt-common.c:234:11 ] ]
	cmpq	$1, %rdi
	je	.LBB3_2
.Ltmp257:
# %bb.29:                               #   in Loop: Header=BB3_21 Depth=1
	#DEBUG_VALUE: escrypt_gensalt_r:N_log2 <- [DW_OP_LLVM_entry_value 1] $edi
	#DEBUG_VALUE: escrypt_gensalt_r:r <- [DW_OP_LLVM_entry_value 1] $esi
	#DEBUG_VALUE: escrypt_gensalt_r:p <- [DW_OP_LLVM_entry_value 1] $edx
	#DEBUG_VALUE: escrypt_gensalt_r:src <- $rcx
	#DEBUG_VALUE: escrypt_gensalt_r:srclen <- $r8
	#DEBUG_VALUE: escrypt_gensalt_r:buf <- $r9
	#DEBUG_VALUE: escrypt_gensalt_r:buflen <- [DW_OP_plus_uconst 40] [$rsp+0]
	#DEBUG_VALUE: escrypt_gensalt_r:prefixlen <- 14
	#DEBUG_VALUE: encode64:dstlen <- $rdi
	#DEBUG_VALUE: encode64:dst <- $rsi
	#DEBUG_VALUE: encode64:src <- $rcx
	#DEBUG_VALUE: encode64:srclen <- $r8
	#DEBUG_VALUE: encode64:i <- $r10
	#DEBUG_VALUE: value <- $ebx
	#DEBUG_VALUE: encode64_uint32:bit <- 6
	#DEBUG_VALUE: encode64_uint32:dstlen <- [DW_OP_constu 1, DW_OP_minus, DW_OP_stack_value] $rdi
	#DEBUG_VALUE: encode64_uint32:dst <- [DW_OP_plus_uconst 1, DW_OP_stack_value] $rsi
	.loc	1 0 0 is_stmt 0                 # crypto_pwhash/scryptsalsa208sha256/crypto_scrypt-common.c:0 @[ crypto_pwhash/scryptsalsa208sha256/crypto_scrypt-common.c:64:17 @[ crypto_pwhash/scryptsalsa208sha256/crypto_scrypt-common.c:234:11 ] ]
	movl	%ebx, %r15d
	shrl	$6, %r15d
.Ltmp258:
	#DEBUG_VALUE: encode64_uint32:src <- $r15d
	.loc	1 43 29 is_stmt 1               # crypto_pwhash/scryptsalsa208sha256/crypto_scrypt-common.c:43:29 @[ crypto_pwhash/scryptsalsa208sha256/crypto_scrypt-common.c:64:17 @[ crypto_pwhash/scryptsalsa208sha256/crypto_scrypt-common.c:234:11 ] ]
	andl	$63, %r15d
.Ltmp259:
	#DEBUG_VALUE: encode64_uint32:dst <- undef
	#DEBUG_VALUE: encode64_uint32:dstlen <- [DW_OP_constu 2, DW_OP_minus, DW_OP_stack_value] $rdi
	#DEBUG_VALUE: encode64_uint32:src <- undef
	.loc	1 43 18 is_stmt 0               # crypto_pwhash/scryptsalsa208sha256/crypto_scrypt-common.c:43:18 @[ crypto_pwhash/scryptsalsa208sha256/crypto_scrypt-common.c:64:17 @[ crypto_pwhash/scryptsalsa208sha256/crypto_scrypt-common.c:234:11 ] ]
	movzbl	(%r15,%rdx), %r15d
	.loc	1 43 16                         # crypto_pwhash/scryptsalsa208sha256/crypto_scrypt-common.c:43:16 @[ crypto_pwhash/scryptsalsa208sha256/crypto_scrypt-common.c:64:17 @[ crypto_pwhash/scryptsalsa208sha256/crypto_scrypt-common.c:234:11 ] ]
	movb	%r15b, 1(%rsi)
.Ltmp260:
	#DEBUG_VALUE: encode64_uint32:bit <- 12
	.loc	1 62 28 is_stmt 1               # crypto_pwhash/scryptsalsa208sha256/crypto_scrypt-common.c:62:28 @[ crypto_pwhash/scryptsalsa208sha256/crypto_scrypt-common.c:234:11 ]
	cmpq	%r8, %r14
.Ltmp261:
	.loc	1 39 5                          # crypto_pwhash/scryptsalsa208sha256/crypto_scrypt-common.c:39:5 @[ crypto_pwhash/scryptsalsa208sha256/crypto_scrypt-common.c:64:17 @[ crypto_pwhash/scryptsalsa208sha256/crypto_scrypt-common.c:234:11 ] ]
	jae	.LBB3_19
.Ltmp262:
# %bb.30:                               # %.lr.ph.i.i.2
                                        #   in Loop: Header=BB3_21 Depth=1
	#DEBUG_VALUE: escrypt_gensalt_r:N_log2 <- [DW_OP_LLVM_entry_value 1] $edi
	#DEBUG_VALUE: escrypt_gensalt_r:r <- [DW_OP_LLVM_entry_value 1] $esi
	#DEBUG_VALUE: escrypt_gensalt_r:p <- [DW_OP_LLVM_entry_value 1] $edx
	#DEBUG_VALUE: escrypt_gensalt_r:src <- $rcx
	#DEBUG_VALUE: escrypt_gensalt_r:srclen <- $r8
	#DEBUG_VALUE: escrypt_gensalt_r:buf <- $r9
	#DEBUG_VALUE: escrypt_gensalt_r:buflen <- [DW_OP_plus_uconst 40] [$rsp+0]
	#DEBUG_VALUE: escrypt_gensalt_r:prefixlen <- 14
	#DEBUG_VALUE: encode64:dstlen <- $rdi
	#DEBUG_VALUE: encode64:dst <- $rsi
	#DEBUG_VALUE: encode64:src <- $rcx
	#DEBUG_VALUE: encode64:srclen <- $r8
	#DEBUG_VALUE: encode64:i <- $r10
	#DEBUG_VALUE: value <- $ebx
	#DEBUG_VALUE: encode64_uint32:bit <- 12
	#DEBUG_VALUE: encode64_uint32:dstlen <- [DW_OP_constu 2, DW_OP_minus, DW_OP_stack_value] $rdi
	#DEBUG_VALUE: encode64_uint32:bit <- 12
	#DEBUG_VALUE: encode64_uint32:src <- undef
	#DEBUG_VALUE: encode64_uint32:dstlen <- [DW_OP_constu 2, DW_OP_minus, DW_OP_stack_value] $rdi
	#DEBUG_VALUE: encode64_uint32:dst <- undef
	.loc	1 40 20                         # crypto_pwhash/scryptsalsa208sha256/crypto_scrypt-common.c:40:20 @[ crypto_pwhash/scryptsalsa208sha256/crypto_scrypt-common.c:64:17 @[ crypto_pwhash/scryptsalsa208sha256/crypto_scrypt-common.c:234:11 ] ]
	cmpq	$2, %rdi
	je	.LBB3_2
.Ltmp263:
# %bb.31:                               #   in Loop: Header=BB3_21 Depth=1
	#DEBUG_VALUE: escrypt_gensalt_r:N_log2 <- [DW_OP_LLVM_entry_value 1] $edi
	#DEBUG_VALUE: escrypt_gensalt_r:r <- [DW_OP_LLVM_entry_value 1] $esi
	#DEBUG_VALUE: escrypt_gensalt_r:p <- [DW_OP_LLVM_entry_value 1] $edx
	#DEBUG_VALUE: escrypt_gensalt_r:src <- $rcx
	#DEBUG_VALUE: escrypt_gensalt_r:srclen <- $r8
	#DEBUG_VALUE: escrypt_gensalt_r:buf <- $r9
	#DEBUG_VALUE: escrypt_gensalt_r:buflen <- [DW_OP_plus_uconst 40] [$rsp+0]
	#DEBUG_VALUE: escrypt_gensalt_r:prefixlen <- 14
	#DEBUG_VALUE: encode64:dstlen <- $rdi
	#DEBUG_VALUE: encode64:dst <- $rsi
	#DEBUG_VALUE: encode64:src <- $rcx
	#DEBUG_VALUE: encode64:srclen <- $r8
	#DEBUG_VALUE: encode64:i <- $r10
	#DEBUG_VALUE: value <- $ebx
	#DEBUG_VALUE: encode64_uint32:bit <- 12
	#DEBUG_VALUE: encode64_uint32:dstlen <- [DW_OP_constu 2, DW_OP_minus, DW_OP_stack_value] $rdi
	.loc	1 0 0 is_stmt 0                 # crypto_pwhash/scryptsalsa208sha256/crypto_scrypt-common.c:0 @[ crypto_pwhash/scryptsalsa208sha256/crypto_scrypt-common.c:64:17 @[ crypto_pwhash/scryptsalsa208sha256/crypto_scrypt-common.c:234:11 ] ]
	movl	%ebx, %r14d
	shrl	$12, %r14d
.Ltmp264:
	#DEBUG_VALUE: encode64_uint32:src <- $r14d
	.loc	1 43 29 is_stmt 1               # crypto_pwhash/scryptsalsa208sha256/crypto_scrypt-common.c:43:29 @[ crypto_pwhash/scryptsalsa208sha256/crypto_scrypt-common.c:64:17 @[ crypto_pwhash/scryptsalsa208sha256/crypto_scrypt-common.c:234:11 ] ]
	andl	$63, %r14d
.Ltmp265:
	.loc	1 43 18 is_stmt 0               # crypto_pwhash/scryptsalsa208sha256/crypto_scrypt-common.c:43:18 @[ crypto_pwhash/scryptsalsa208sha256/crypto_scrypt-common.c:64:17 @[ crypto_pwhash/scryptsalsa208sha256/crypto_scrypt-common.c:234:11 ] ]
	movzbl	(%r14,%rdx), %r14d
.Ltmp266:
	#DEBUG_VALUE: encode64_uint32:dst <- undef
	.loc	1 43 16                         # crypto_pwhash/scryptsalsa208sha256/crypto_scrypt-common.c:43:16 @[ crypto_pwhash/scryptsalsa208sha256/crypto_scrypt-common.c:64:17 @[ crypto_pwhash/scryptsalsa208sha256/crypto_scrypt-common.c:234:11 ] ]
	movb	%r14b, 2(%rsi)
.Ltmp267:
	#DEBUG_VALUE: encode64_uint32:dstlen <- [DW_OP_constu 3, DW_OP_minus, DW_OP_stack_value] $rdi
	#DEBUG_VALUE: encode64_uint32:src <- undef
	#DEBUG_VALUE: encode64_uint32:bit <- 18
	.loc	1 39 5 is_stmt 1                # crypto_pwhash/scryptsalsa208sha256/crypto_scrypt-common.c:39:5 @[ crypto_pwhash/scryptsalsa208sha256/crypto_scrypt-common.c:64:17 @[ crypto_pwhash/scryptsalsa208sha256/crypto_scrypt-common.c:234:11 ] ]
	testb	%bpl, %bpl
	je	.LBB3_34
.Ltmp268:
# %bb.32:                               # %.lr.ph.i.i.3
                                        #   in Loop: Header=BB3_21 Depth=1
	#DEBUG_VALUE: escrypt_gensalt_r:N_log2 <- [DW_OP_LLVM_entry_value 1] $edi
	#DEBUG_VALUE: escrypt_gensalt_r:r <- [DW_OP_LLVM_entry_value 1] $esi
	#DEBUG_VALUE: escrypt_gensalt_r:p <- [DW_OP_LLVM_entry_value 1] $edx
	#DEBUG_VALUE: escrypt_gensalt_r:src <- $rcx
	#DEBUG_VALUE: escrypt_gensalt_r:srclen <- $r8
	#DEBUG_VALUE: escrypt_gensalt_r:buf <- $r9
	#DEBUG_VALUE: escrypt_gensalt_r:buflen <- [DW_OP_plus_uconst 40] [$rsp+0]
	#DEBUG_VALUE: escrypt_gensalt_r:prefixlen <- 14
	#DEBUG_VALUE: encode64:dstlen <- $rdi
	#DEBUG_VALUE: encode64:dst <- $rsi
	#DEBUG_VALUE: encode64:src <- $rcx
	#DEBUG_VALUE: encode64:srclen <- $r8
	#DEBUG_VALUE: encode64:i <- $r10
	#DEBUG_VALUE: value <- $ebx
	#DEBUG_VALUE: encode64_uint32:bit <- 18
	#DEBUG_VALUE: encode64_uint32:dstlen <- [DW_OP_constu 3, DW_OP_minus, DW_OP_stack_value] $rdi
	#DEBUG_VALUE: encode64_uint32:bit <- 18
	#DEBUG_VALUE: encode64_uint32:src <- undef
	#DEBUG_VALUE: encode64_uint32:dstlen <- [DW_OP_constu 3, DW_OP_minus, DW_OP_stack_value] $rdi
	#DEBUG_VALUE: encode64_uint32:dst <- undef
	.loc	1 40 20                         # crypto_pwhash/scryptsalsa208sha256/crypto_scrypt-common.c:40:20 @[ crypto_pwhash/scryptsalsa208sha256/crypto_scrypt-common.c:64:17 @[ crypto_pwhash/scryptsalsa208sha256/crypto_scrypt-common.c:234:11 ] ]
	cmpq	$3, %rdi
	je	.LBB3_2
.Ltmp269:
# %bb.33:                               #   in Loop: Header=BB3_21 Depth=1
	#DEBUG_VALUE: escrypt_gensalt_r:N_log2 <- [DW_OP_LLVM_entry_value 1] $edi
	#DEBUG_VALUE: escrypt_gensalt_r:r <- [DW_OP_LLVM_entry_value 1] $esi
	#DEBUG_VALUE: escrypt_gensalt_r:p <- [DW_OP_LLVM_entry_value 1] $edx
	#DEBUG_VALUE: escrypt_gensalt_r:src <- $rcx
	#DEBUG_VALUE: escrypt_gensalt_r:srclen <- $r8
	#DEBUG_VALUE: escrypt_gensalt_r:buf <- $r9
	#DEBUG_VALUE: escrypt_gensalt_r:buflen <- [DW_OP_plus_uconst 40] [$rsp+0]
	#DEBUG_VALUE: escrypt_gensalt_r:prefixlen <- 14
	#DEBUG_VALUE: encode64:dstlen <- $rdi
	#DEBUG_VALUE: encode64:dst <- $rsi
	#DEBUG_VALUE: encode64:src <- $rcx
	#DEBUG_VALUE: encode64:srclen <- $r8
	#DEBUG_VALUE: encode64:i <- $r10
	#DEBUG_VALUE: value <- $ebx
	#DEBUG_VALUE: encode64_uint32:bit <- 18
	#DEBUG_VALUE: encode64_uint32:dstlen <- [DW_OP_constu 3, DW_OP_minus, DW_OP_stack_value] $rdi
	.loc	1 0 20 is_stmt 0                # crypto_pwhash/scryptsalsa208sha256/crypto_scrypt-common.c:0:20
	shrl	$18, %ebx
.Ltmp270:
	#DEBUG_VALUE: encode64_uint32:src <- $ebx
	movl	%ebx, %ebx
.Ltmp271:
	.loc	1 43 18 is_stmt 1               # crypto_pwhash/scryptsalsa208sha256/crypto_scrypt-common.c:43:18 @[ crypto_pwhash/scryptsalsa208sha256/crypto_scrypt-common.c:64:17 @[ crypto_pwhash/scryptsalsa208sha256/crypto_scrypt-common.c:234:11 ] ]
	movzbl	(%rbx,%rdx), %ebp
	.loc	1 43 13 is_stmt 0               # crypto_pwhash/scryptsalsa208sha256/crypto_scrypt-common.c:43:13 @[ crypto_pwhash/scryptsalsa208sha256/crypto_scrypt-common.c:64:17 @[ crypto_pwhash/scryptsalsa208sha256/crypto_scrypt-common.c:234:11 ] ]
	leaq	4(%rsi), %rbx
.Ltmp272:
	#DEBUG_VALUE: encode64_uint32:dst <- $rbx
	.loc	1 43 16                         # crypto_pwhash/scryptsalsa208sha256/crypto_scrypt-common.c:43:16 @[ crypto_pwhash/scryptsalsa208sha256/crypto_scrypt-common.c:64:17 @[ crypto_pwhash/scryptsalsa208sha256/crypto_scrypt-common.c:234:11 ] ]
	movb	%bpl, 3(%rsi)
.Ltmp273:
	#DEBUG_VALUE: encode64_uint32:dstlen <- [DW_OP_constu 4, DW_OP_minus, DW_OP_stack_value] $rdi
	#DEBUG_VALUE: encode64_uint32:src <- [DW_OP_constu 6, DW_OP_shr, DW_OP_stack_value] undef
	#DEBUG_VALUE: encode64_uint32:bit <- 24
	.loc	1 0 16                          # crypto_pwhash/scryptsalsa208sha256/crypto_scrypt-common.c:0:16
	jmp	.LBB3_20
.Ltmp274:
.LBB3_34:                               #   in Loop: Header=BB3_21 Depth=1
	#DEBUG_VALUE: escrypt_gensalt_r:N_log2 <- [DW_OP_LLVM_entry_value 1] $edi
	#DEBUG_VALUE: escrypt_gensalt_r:r <- [DW_OP_LLVM_entry_value 1] $esi
	#DEBUG_VALUE: escrypt_gensalt_r:p <- [DW_OP_LLVM_entry_value 1] $edx
	#DEBUG_VALUE: escrypt_gensalt_r:src <- $rcx
	#DEBUG_VALUE: escrypt_gensalt_r:srclen <- $r8
	#DEBUG_VALUE: escrypt_gensalt_r:buf <- $r9
	#DEBUG_VALUE: escrypt_gensalt_r:buflen <- [DW_OP_plus_uconst 40] [$rsp+0]
	#DEBUG_VALUE: escrypt_gensalt_r:prefixlen <- 14
	#DEBUG_VALUE: encode64:dstlen <- $rdi
	#DEBUG_VALUE: encode64:dst <- $rsi
	#DEBUG_VALUE: encode64:src <- $rcx
	#DEBUG_VALUE: encode64:srclen <- $r8
	#DEBUG_VALUE: encode64:i <- $r10
	#DEBUG_VALUE: value <- $ebx
	#DEBUG_VALUE: encode64_uint32:bit <- 18
	#DEBUG_VALUE: encode64_uint32:dstlen <- [DW_OP_constu 3, DW_OP_minus, DW_OP_stack_value] $rdi
	leaq	3(%rsi), %rbx
.Ltmp275:
	#DEBUG_VALUE: encode64_uint32:dst <- $rbx
	.loc	1 39 5 is_stmt 1                # crypto_pwhash/scryptsalsa208sha256/crypto_scrypt-common.c:39:5 @[ crypto_pwhash/scryptsalsa208sha256/crypto_scrypt-common.c:64:17 @[ crypto_pwhash/scryptsalsa208sha256/crypto_scrypt-common.c:234:11 ] ]
	jmp	.LBB3_20
.Ltmp276:
.LBB3_36:                               # %encode64.exit
	#DEBUG_VALUE: escrypt_gensalt_r:N_log2 <- [DW_OP_LLVM_entry_value 1] $edi
	#DEBUG_VALUE: escrypt_gensalt_r:r <- [DW_OP_LLVM_entry_value 1] $esi
	#DEBUG_VALUE: escrypt_gensalt_r:p <- [DW_OP_LLVM_entry_value 1] $edx
	#DEBUG_VALUE: escrypt_gensalt_r:src <- $rcx
	#DEBUG_VALUE: escrypt_gensalt_r:srclen <- $r8
	#DEBUG_VALUE: escrypt_gensalt_r:buf <- $r9
	#DEBUG_VALUE: escrypt_gensalt_r:buflen <- [DW_OP_plus_uconst 40] [$rsp+0]
	#DEBUG_VALUE: escrypt_gensalt_r:prefixlen <- 14
	#DEBUG_VALUE: escrypt_gensalt_r:dst <- $rsi
	.loc	1 0 5 is_stmt 0                 # crypto_pwhash/scryptsalsa208sha256/crypto_scrypt-common.c:0:5
	cmpq	%r11, %rsi
.Ltmp277:
	.loc	1 235 14 is_stmt 1              # crypto_pwhash/scryptsalsa208sha256/crypto_scrypt-common.c:235:14
	jae	.LBB3_1
.Ltmp278:
# %bb.37:
	#DEBUG_VALUE: escrypt_gensalt_r:N_log2 <- [DW_OP_LLVM_entry_value 1] $edi
	#DEBUG_VALUE: escrypt_gensalt_r:r <- [DW_OP_LLVM_entry_value 1] $esi
	#DEBUG_VALUE: escrypt_gensalt_r:p <- [DW_OP_LLVM_entry_value 1] $edx
	#DEBUG_VALUE: escrypt_gensalt_r:src <- $rcx
	#DEBUG_VALUE: escrypt_gensalt_r:srclen <- $r8
	#DEBUG_VALUE: escrypt_gensalt_r:buf <- $r9
	#DEBUG_VALUE: escrypt_gensalt_r:buflen <- [DW_OP_plus_uconst 40] [$rsp+0]
	#DEBUG_VALUE: escrypt_gensalt_r:prefixlen <- 14
	#DEBUG_VALUE: escrypt_gensalt_r:dst <- $rsi
	.loc	1 238 10                        # crypto_pwhash/scryptsalsa208sha256/crypto_scrypt-common.c:238:10
	movb	$0, (%rsi)
	movq	%r9, %rax
	jmp	.LBB3_2
.Ltmp279:
.Lfunc_end3:
	.size	escrypt_gensalt_r, .Lfunc_end3-escrypt_gensalt_r
	.cfi_endproc
                                        # -- End function
	.globl	crypto_pwhash_scryptsalsa208sha256_ll # -- Begin function crypto_pwhash_scryptsalsa208sha256_ll
	.p2align	4
	.type	crypto_pwhash_scryptsalsa208sha256_ll,@function
crypto_pwhash_scryptsalsa208sha256_ll:  # @crypto_pwhash_scryptsalsa208sha256_ll
.Lfunc_begin4:
	.loc	1 248 0                         # crypto_pwhash/scryptsalsa208sha256/crypto_scrypt-common.c:248:0
	.cfi_startproc
# %bb.0:
	#DEBUG_VALUE: crypto_pwhash_scryptsalsa208sha256_ll:passwd <- $rdi
	#DEBUG_VALUE: crypto_pwhash_scryptsalsa208sha256_ll:passwdlen <- $rsi
	#DEBUG_VALUE: crypto_pwhash_scryptsalsa208sha256_ll:salt <- $rdx
	#DEBUG_VALUE: crypto_pwhash_scryptsalsa208sha256_ll:saltlen <- $rcx
	#DEBUG_VALUE: crypto_pwhash_scryptsalsa208sha256_ll:N <- $r8
	#DEBUG_VALUE: crypto_pwhash_scryptsalsa208sha256_ll:r <- $r9d
	pushq	%rbp
	.cfi_def_cfa_offset 16
	pushq	%r15
	.cfi_def_cfa_offset 24
	pushq	%r14
	.cfi_def_cfa_offset 32
	pushq	%r13
	.cfi_def_cfa_offset 40
	pushq	%r12
	.cfi_def_cfa_offset 48
	pushq	%rbx
	.cfi_def_cfa_offset 56
	subq	$24, %rsp
	.cfi_def_cfa_offset 80
	.cfi_offset %rbx, -56
	.cfi_offset %r12, -48
	.cfi_offset %r13, -40
	.cfi_offset %r14, -32
	.cfi_offset %r15, -24
	.cfi_offset %rbp, -16
.Ltmp280:
	#DEBUG_VALUE: crypto_pwhash_scryptsalsa208sha256_ll:p <- [DW_OP_plus_uconst 80] [$rsp+0]
	#DEBUG_VALUE: crypto_pwhash_scryptsalsa208sha256_ll:buf <- [DW_OP_plus_uconst 88] [$rsp+0]
	#DEBUG_VALUE: crypto_pwhash_scryptsalsa208sha256_ll:buflen <- [DW_OP_plus_uconst 96] [$rsp+0]
	movl	%r9d, %ebx
	movq	%r8, %r14
	movq	%rcx, %r15
	movq	%rdx, %r12
	movq	%rsi, %r13
	movq	%rdi, %rbp
	movq	%rsp, %rdi
.Ltmp281:
	#DEBUG_VALUE: crypto_pwhash_scryptsalsa208sha256_ll:passwd <- $rbp
	.loc	1 253 9 prologue_end            # crypto_pwhash/scryptsalsa208sha256/crypto_scrypt-common.c:253:9
	callq	escrypt_init_local@PLT
.Ltmp282:
	#DEBUG_VALUE: crypto_pwhash_scryptsalsa208sha256_ll:r <- $ebx
	#DEBUG_VALUE: crypto_pwhash_scryptsalsa208sha256_ll:N <- $r14
	#DEBUG_VALUE: crypto_pwhash_scryptsalsa208sha256_ll:saltlen <- $r15
	#DEBUG_VALUE: crypto_pwhash_scryptsalsa208sha256_ll:salt <- $r12
	#DEBUG_VALUE: crypto_pwhash_scryptsalsa208sha256_ll:passwdlen <- $r13
	movl	%eax, %ecx
	movl	$-1, %eax
	testl	%ecx, %ecx
	jne	.LBB4_5
.Ltmp283:
# %bb.1:
	#DEBUG_VALUE: crypto_pwhash_scryptsalsa208sha256_ll:passwd <- $rbp
	#DEBUG_VALUE: crypto_pwhash_scryptsalsa208sha256_ll:passwdlen <- $r13
	#DEBUG_VALUE: crypto_pwhash_scryptsalsa208sha256_ll:salt <- $r12
	#DEBUG_VALUE: crypto_pwhash_scryptsalsa208sha256_ll:saltlen <- $r15
	#DEBUG_VALUE: crypto_pwhash_scryptsalsa208sha256_ll:N <- $r14
	#DEBUG_VALUE: crypto_pwhash_scryptsalsa208sha256_ll:r <- $ebx
	#DEBUG_VALUE: crypto_pwhash_scryptsalsa208sha256_ll:p <- [DW_OP_plus_uconst 80] [$rsp+0]
	#DEBUG_VALUE: crypto_pwhash_scryptsalsa208sha256_ll:buf <- [DW_OP_plus_uconst 88] [$rsp+0]
	#DEBUG_VALUE: crypto_pwhash_scryptsalsa208sha256_ll:buflen <- [DW_OP_plus_uconst 96] [$rsp+0]
	.loc	1 258 9                         # crypto_pwhash/scryptsalsa208sha256/crypto_scrypt-common.c:258:9
	callq	sodium_runtime_has_sse2@PLT
.Ltmp284:
	testl	%eax, %eax
	jne	.LBB4_2
.Ltmp285:
# %bb.3:
	#DEBUG_VALUE: crypto_pwhash_scryptsalsa208sha256_ll:passwd <- $rbp
	#DEBUG_VALUE: crypto_pwhash_scryptsalsa208sha256_ll:passwdlen <- $r13
	#DEBUG_VALUE: crypto_pwhash_scryptsalsa208sha256_ll:salt <- $r12
	#DEBUG_VALUE: crypto_pwhash_scryptsalsa208sha256_ll:saltlen <- $r15
	#DEBUG_VALUE: crypto_pwhash_scryptsalsa208sha256_ll:N <- $r14
	#DEBUG_VALUE: crypto_pwhash_scryptsalsa208sha256_ll:r <- $ebx
	#DEBUG_VALUE: crypto_pwhash_scryptsalsa208sha256_ll:p <- [DW_OP_plus_uconst 80] [$rsp+0]
	#DEBUG_VALUE: crypto_pwhash_scryptsalsa208sha256_ll:buf <- [DW_OP_plus_uconst 88] [$rsp+0]
	#DEBUG_VALUE: crypto_pwhash_scryptsalsa208sha256_ll:buflen <- [DW_OP_plus_uconst 96] [$rsp+0]
	.loc	1 0 9 is_stmt 0                 # crypto_pwhash/scryptsalsa208sha256/crypto_scrypt-common.c:0:9
	movq	escrypt_kdf_nosse@GOTPCREL(%rip), %rax
	jmp	.LBB4_4
.Ltmp286:
.LBB4_2:
	#DEBUG_VALUE: crypto_pwhash_scryptsalsa208sha256_ll:passwd <- $rbp
	#DEBUG_VALUE: crypto_pwhash_scryptsalsa208sha256_ll:passwdlen <- $r13
	#DEBUG_VALUE: crypto_pwhash_scryptsalsa208sha256_ll:salt <- $r12
	#DEBUG_VALUE: crypto_pwhash_scryptsalsa208sha256_ll:saltlen <- $r15
	#DEBUG_VALUE: crypto_pwhash_scryptsalsa208sha256_ll:N <- $r14
	#DEBUG_VALUE: crypto_pwhash_scryptsalsa208sha256_ll:r <- $ebx
	#DEBUG_VALUE: crypto_pwhash_scryptsalsa208sha256_ll:p <- [DW_OP_plus_uconst 80] [$rsp+0]
	#DEBUG_VALUE: crypto_pwhash_scryptsalsa208sha256_ll:buf <- [DW_OP_plus_uconst 88] [$rsp+0]
	#DEBUG_VALUE: crypto_pwhash_scryptsalsa208sha256_ll:buflen <- [DW_OP_plus_uconst 96] [$rsp+0]
	.loc	1 258 9                         # crypto_pwhash/scryptsalsa208sha256/crypto_scrypt-common.c:258:9
	movq	escrypt_kdf_sse@GOTPCREL(%rip), %rax
.Ltmp287:
.LBB4_4:
	#DEBUG_VALUE: crypto_pwhash_scryptsalsa208sha256_ll:passwd <- $rbp
	#DEBUG_VALUE: crypto_pwhash_scryptsalsa208sha256_ll:passwdlen <- $r13
	#DEBUG_VALUE: crypto_pwhash_scryptsalsa208sha256_ll:salt <- $r12
	#DEBUG_VALUE: crypto_pwhash_scryptsalsa208sha256_ll:saltlen <- $r15
	#DEBUG_VALUE: crypto_pwhash_scryptsalsa208sha256_ll:N <- $r14
	#DEBUG_VALUE: crypto_pwhash_scryptsalsa208sha256_ll:r <- $ebx
	#DEBUG_VALUE: crypto_pwhash_scryptsalsa208sha256_ll:p <- [DW_OP_plus_uconst 80] [$rsp+0]
	#DEBUG_VALUE: crypto_pwhash_scryptsalsa208sha256_ll:buf <- [DW_OP_plus_uconst 88] [$rsp+0]
	#DEBUG_VALUE: crypto_pwhash_scryptsalsa208sha256_ll:buflen <- [DW_OP_plus_uconst 96] [$rsp+0]
	#DEBUG_VALUE: crypto_pwhash_scryptsalsa208sha256_ll:escrypt_kdf <- $rax
	.loc	1 0 9                           # crypto_pwhash/scryptsalsa208sha256/crypto_scrypt-common.c:0:9
	movq	%rsp, %rdi
	.loc	1 262 14 is_stmt 1              # crypto_pwhash/scryptsalsa208sha256/crypto_scrypt-common.c:262:14
	movq	%rbp, %rsi
	movq	%r13, %rdx
	movq	%r12, %rcx
	movq	%r15, %r8
	movq	%r14, %r9
	pushq	96(%rsp)
.Ltmp288:
	#DEBUG_VALUE: crypto_pwhash_scryptsalsa208sha256_ll:buflen <- [DW_OP_plus_uconst 96] [$rdi+0]
	#DEBUG_VALUE: crypto_pwhash_scryptsalsa208sha256_ll:buf <- [DW_OP_plus_uconst 88] [$rdi+0]
	#DEBUG_VALUE: crypto_pwhash_scryptsalsa208sha256_ll:p <- [DW_OP_plus_uconst 80] [$rdi+0]
	.cfi_adjust_cfa_offset 8
	pushq	96(%rsp)
	.cfi_adjust_cfa_offset 8
	movl	96(%rsp), %r10d
	pushq	%r10
	.cfi_adjust_cfa_offset 8
	pushq	%rbx
	.cfi_adjust_cfa_offset 8
	callq	*%rax
.Ltmp289:
	addq	$32, %rsp
	.cfi_adjust_cfa_offset -32
	movl	%eax, %ebx
.Ltmp290:
	#DEBUG_VALUE: crypto_pwhash_scryptsalsa208sha256_ll:r <- [DW_OP_LLVM_entry_value 1] $r9d
	#DEBUG_VALUE: crypto_pwhash_scryptsalsa208sha256_ll:retval <- $ebx
	.loc	1 264 9                         # crypto_pwhash/scryptsalsa208sha256/crypto_scrypt-common.c:264:9
	movq	%rsp, %rdi
	callq	escrypt_free_local@PLT
.Ltmp291:
	movl	%eax, %ecx
.Ltmp292:
	.loc	1 0 0 is_stmt 0                 # crypto_pwhash/scryptsalsa208sha256/crypto_scrypt-common.c:0
	xorl	%eax, %eax
	negl	%ecx
	sbbl	%eax, %eax
	orl	%ebx, %eax
.Ltmp293:
.LBB4_5:
	#DEBUG_VALUE: crypto_pwhash_scryptsalsa208sha256_ll:passwd <- $rbp
	#DEBUG_VALUE: crypto_pwhash_scryptsalsa208sha256_ll:passwdlen <- $r13
	#DEBUG_VALUE: crypto_pwhash_scryptsalsa208sha256_ll:salt <- $r12
	#DEBUG_VALUE: crypto_pwhash_scryptsalsa208sha256_ll:saltlen <- $r15
	#DEBUG_VALUE: crypto_pwhash_scryptsalsa208sha256_ll:N <- $r14
	#DEBUG_VALUE: crypto_pwhash_scryptsalsa208sha256_ll:r <- [DW_OP_LLVM_entry_value 1] $r9d
	.loc	1 268 1 epilogue_begin is_stmt 1 # crypto_pwhash/scryptsalsa208sha256/crypto_scrypt-common.c:268:1
	addq	$24, %rsp
	.cfi_def_cfa_offset 56
	popq	%rbx
	.cfi_def_cfa_offset 48
	popq	%r12
.Ltmp294:
	#DEBUG_VALUE: crypto_pwhash_scryptsalsa208sha256_ll:salt <- [DW_OP_LLVM_entry_value 1] $rdx
	.cfi_def_cfa_offset 40
	popq	%r13
.Ltmp295:
	#DEBUG_VALUE: crypto_pwhash_scryptsalsa208sha256_ll:passwdlen <- [DW_OP_LLVM_entry_value 1] $rsi
	.cfi_def_cfa_offset 32
	popq	%r14
.Ltmp296:
	#DEBUG_VALUE: crypto_pwhash_scryptsalsa208sha256_ll:N <- [DW_OP_LLVM_entry_value 1] $r8
	.cfi_def_cfa_offset 24
	popq	%r15
.Ltmp297:
	#DEBUG_VALUE: crypto_pwhash_scryptsalsa208sha256_ll:saltlen <- [DW_OP_LLVM_entry_value 1] $rcx
	.cfi_def_cfa_offset 16
	popq	%rbp
.Ltmp298:
	#DEBUG_VALUE: crypto_pwhash_scryptsalsa208sha256_ll:passwd <- [DW_OP_LLVM_entry_value 1] $rdi
	.cfi_def_cfa_offset 8
	retq
.Ltmp299:
.Lfunc_end4:
	.size	crypto_pwhash_scryptsalsa208sha256_ll, .Lfunc_end4-crypto_pwhash_scryptsalsa208sha256_ll
	.cfi_endproc
	.file	10 "crypto_pwhash/scryptsalsa208sha256" "crypto_scrypt.h"
                                        # -- End function
	.type	.L.str,@object                  # @.str
	.section	.rodata.str1.1,"aMS",@progbits,1
.L.str:
	.asciz	"./0123456789ABCDEFGHIJKLMNOPQRSTUVWXYZabcdefghijklmnopqrstuvwxyz"
	.size	.L.str, 65

	.section	".note.GNU-stack","",@progbits
	.addrsig
	.addrsig_sym __stack_chk_fail