	.file	"crypto_box_seal.c"
	.text
	.globl	crypto_box_seal                 # -- Begin function crypto_box_seal
	.p2align	4
	.type	crypto_box_seal,@function
crypto_box_seal:                        # @crypto_box_seal
.Lfunc_begin0:
	.file	0 "/home/leizhenyuu/opt/Anonymous_Repo/libsodium_o2_attr_inline/src/libsodium" "crypto_box_seal.c" md5 0xffd721254e4dac26552b7c83a42d723a
	.file	1 "crypto_box" "crypto_box_seal.c"
	.loc	1 26 0                          # crypto_box/crypto_box_seal.c:26:0
	.cfi_startproc
# %bb.0:
	#DEBUG_VALUE: crypto_box_seal:c <- $rdi
	#DEBUG_VALUE: crypto_box_seal:m <- $rsi
	#DEBUG_VALUE: crypto_box_seal:mlen <- $rdx
	#DEBUG_VALUE: crypto_box_seal:pk <- $rcx
	pushq	%rbp
	.cfi_def_cfa_offset 16
	.cfi_offset %rbp, -16
	movq	%rsp, %rbp
	.cfi_def_cfa_register %rbp
	pushq	%r15
	pushq	%r14
	pushq	%r13
	pushq	%r12
	pushq	%rbx
	andq	$-64, %rsp
	subq	$576, %rsp                      # imm = 0x240
	.cfi_offset %rbx, -56
	.cfi_offset %r12, -48
	.cfi_offset %r13, -40
	.cfi_offset %r14, -32
	.cfi_offset %r15, -24
	movq	%rcx, %r14
	movq	%rdx, %r15
	movq	%rsi, %r12
	movq	%rdi, %rbx
	movq	%fs:40, %rax
	movq	%rax, 512(%rsp)
	leaq	64(%rsp), %rdi
.Ltmp0:
	#DEBUG_VALUE: crypto_box_seal:c <- $rbx
	leaq	32(%rsp), %rsi
.Ltmp1:
	#DEBUG_VALUE: crypto_box_seal:m <- $r12
	.loc	1 32 9 prologue_end             # crypto_box/crypto_box_seal.c:32:9
	callq	crypto_box_keypair@PLT
.Ltmp2:
	#DEBUG_VALUE: crypto_box_seal:pk <- $r14
	#DEBUG_VALUE: crypto_box_seal:mlen <- $r15
	.loc	1 0 9 is_stmt 0                 # crypto_box/crypto_box_seal.c:0:9
	movl	$-1, %r13d
	.loc	1 32 38                         # crypto_box/crypto_box_seal.c:32:38
	testl	%eax, %eax
	jne	.LBB0_2
.Ltmp3:
# %bb.1:
	#DEBUG_VALUE: crypto_box_seal:c <- $rbx
	#DEBUG_VALUE: crypto_box_seal:m <- $r12
	#DEBUG_VALUE: crypto_box_seal:mlen <- $r15
	#DEBUG_VALUE: crypto_box_seal:pk <- $r14
	#DEBUG_VALUE: _crypto_box_seal_nonce:st <- [DW_OP_plus_uconst 128, DW_OP_deref] $rsp
	#DEBUG_VALUE: _crypto_box_seal_nonce:nonce <- [DW_OP_plus_uconst 96, DW_OP_stack_value] $rsp
	#DEBUG_VALUE: _crypto_box_seal_nonce:pk1 <- [DW_OP_plus_uconst 64, DW_OP_stack_value] $rsp
	#DEBUG_VALUE: _crypto_box_seal_nonce:pk2 <- $r14
	.loc	1 0 38                          # crypto_box/crypto_box_seal.c:0:38
	leaq	128(%rsp), %r13
.Ltmp4:
	.loc	1 15 5 is_stmt 1                # crypto_box/crypto_box_seal.c:15:5 @[ crypto_box/crypto_box_seal.c:35:5 ]
	movl	$24, %ecx
	movq	%r13, %rdi
	xorl	%esi, %esi
	xorl	%edx, %edx
	callq	crypto_generichash_init@PLT
.Ltmp5:
	.loc	1 0 5 is_stmt 0                 # crypto_box/crypto_box_seal.c:0:5
	leaq	64(%rsp), %rsi
	.loc	1 16 5 is_stmt 1                # crypto_box/crypto_box_seal.c:16:5 @[ crypto_box/crypto_box_seal.c:35:5 ]
	movl	$32, %edx
	movq	%r13, %rdi
	callq	crypto_generichash_update@PLT
.Ltmp6:
	.loc	1 17 5                          # crypto_box/crypto_box_seal.c:17:5 @[ crypto_box/crypto_box_seal.c:35:5 ]
	movl	$32, %edx
	movq	%r13, %rdi
	movq	%r14, %rsi
	callq	crypto_generichash_update@PLT
.Ltmp7:
	.loc	1 0 5 is_stmt 0                 # crypto_box/crypto_box_seal.c:0:5
	leaq	96(%rsp), %rsi
	.loc	1 18 5 is_stmt 1                # crypto_box/crypto_box_seal.c:18:5 @[ crypto_box/crypto_box_seal.c:35:5 ]
	movl	$24, %edx
	movq	%r13, %rdi
	movq	%rsi, %r13
	callq	crypto_generichash_final@PLT
.Ltmp8:
	.loc	1 36 29                         # crypto_box/crypto_box_seal.c:36:29
	leaq	32(%rbx), %rdi
	leaq	32(%rsp), %r9
	.loc	1 36 11 is_stmt 0               # crypto_box/crypto_box_seal.c:36:11
	movq	%r12, %rsi
	movq	%r15, %rdx
	movq	%r13, %rcx
	movq	%r13, %r15
.Ltmp9:
	#DEBUG_VALUE: crypto_box_seal:mlen <- $rdx
	movq	%r14, %r8
	movq	%r9, %r14
.Ltmp10:
	#DEBUG_VALUE: _crypto_box_seal_nonce:pk2 <- $r8
	#DEBUG_VALUE: crypto_box_seal:pk <- $r8
	callq	crypto_box_easy@PLT
.Ltmp11:
	#DEBUG_VALUE: crypto_box_seal:pk <- [DW_OP_LLVM_entry_value 1] $rcx
	#DEBUG_VALUE: crypto_box_seal:mlen <- [DW_OP_LLVM_entry_value 1] $rdx
	movl	%eax, %r13d
.Ltmp12:
	#DEBUG_VALUE: crypto_box_seal:ret <- $r13d
	#DEBUG_VALUE: memcpy:__dest <- $rbx
	#DEBUG_VALUE: memcpy:__src <- [DW_OP_plus_uconst 64, DW_OP_stack_value] $rsp
	#DEBUG_VALUE: memcpy:__len <- 32
	.file	2 "/usr/include/x86_64-linux-gnu/bits" "string_fortified.h"
	.loc	2 29 10 is_stmt 1               # /usr/include/x86_64-linux-gnu/bits/string_fortified.h:29:10 @[ crypto_box/crypto_box_seal.c:38:5 ]
	movaps	64(%rsp), %xmm0
	movaps	80(%rsp), %xmm1
	movups	%xmm0, (%rbx)
	movups	%xmm1, 16(%rbx)
.Ltmp13:
	.loc	1 39 5                          # crypto_box/crypto_box_seal.c:39:5
	movl	$32, %esi
	movq	%r14, %rdi
	callq	sodium_memzero@PLT
.Ltmp14:
	.loc	1 40 5                          # crypto_box/crypto_box_seal.c:40:5
	movl	$32, %esi
	leaq	64(%rsp), %rdi
	callq	sodium_memzero@PLT
.Ltmp15:
	.loc	1 41 5                          # crypto_box/crypto_box_seal.c:41:5
	movl	$24, %esi
	movq	%r15, %rdi
	callq	sodium_memzero@PLT
.Ltmp16:
.LBB0_2:
	#DEBUG_VALUE: crypto_box_seal:c <- $rbx
	#DEBUG_VALUE: crypto_box_seal:m <- $r12
	#DEBUG_VALUE: crypto_box_seal:mlen <- [DW_OP_LLVM_entry_value 1] $rdx
	#DEBUG_VALUE: crypto_box_seal:pk <- [DW_OP_LLVM_entry_value 1] $rcx
	.loc	1 44 1                          # crypto_box/crypto_box_seal.c:44:1
	movq	%fs:40, %rax
	cmpq	512(%rsp), %rax
	jne	.LBB0_4
.Ltmp17:
# %bb.3:                                # %SP_return
	#DEBUG_VALUE: crypto_box_seal:c <- $rbx
	#DEBUG_VALUE: crypto_box_seal:m <- $r12
	#DEBUG_VALUE: crypto_box_seal:mlen <- [DW_OP_LLVM_entry_value 1] $rdx
	#DEBUG_VALUE: crypto_box_seal:pk <- [DW_OP_LLVM_entry_value 1] $rcx
	movl	%r13d, %eax
	leaq	-40(%rbp), %rsp
	.loc	1 44 1 epilogue_begin is_stmt 0 # crypto_box/crypto_box_seal.c:44:1
	popq	%rbx
.Ltmp18:
	#DEBUG_VALUE: crypto_box_seal:c <- [DW_OP_LLVM_entry_value 1] $rdi
	popq	%r12
.Ltmp19:
	#DEBUG_VALUE: crypto_box_seal:m <- [DW_OP_LLVM_entry_value 1] $rsi
	popq	%r13
	popq	%r14
	popq	%r15
	popq	%rbp
	.cfi_def_cfa %rsp, 8
	retq
.Ltmp20:
.LBB0_4:                                # %CallStackCheckFailBlk
	.cfi_def_cfa %rbp, 16
	#DEBUG_VALUE: crypto_box_seal:c <- $rbx
	#DEBUG_VALUE: crypto_box_seal:m <- $r12
	#DEBUG_VALUE: crypto_box_seal:mlen <- [DW_OP_LLVM_entry_value 1] $rdx
	#DEBUG_VALUE: crypto_box_seal:pk <- [DW_OP_LLVM_entry_value 1] $rcx
	.loc	1 0 0                           # crypto_box/crypto_box_seal.c:0
	callq	__stack_chk_fail@PLT
.Ltmp21:
.Lfunc_end0:
	.size	crypto_box_seal, .Lfunc_end0-crypto_box_seal
	.cfi_endproc
	.file	3 "./include/sodium" "crypto_generichash_blake2b.h"
	.file	4 "./include/sodium" "crypto_generichash.h"
	.file	5 "/home/leizhenyuu/opt/Anonymous_Repo" "llvm-project/build/lib/clang/21/include/__stddef_size_t.h"
	.file	6 "./include/sodium" "crypto_box.h"
	.file	7 "./include/sodium" "utils.h"
                                        # -- End function
	.globl	crypto_box_seal_open            # -- Begin function crypto_box_seal_open
	.p2align	4
	.type	crypto_box_seal_open,@function
crypto_box_seal_open:                   # @crypto_box_seal_open
.Lfunc_begin1:
	.loc	1 50 0 is_stmt 1                # crypto_box/crypto_box_seal.c:50:0
	.cfi_startproc
# %bb.0:
	#DEBUG_VALUE: crypto_box_seal_open:m <- $rdi
	#DEBUG_VALUE: crypto_box_seal_open:c <- $rsi
	#DEBUG_VALUE: crypto_box_seal_open:clen <- $rdx
	#DEBUG_VALUE: crypto_box_seal_open:pk <- $rcx
	#DEBUG_VALUE: crypto_box_seal_open:sk <- $r8
	pushq	%rbp
	.cfi_def_cfa_offset 16
	.cfi_offset %rbp, -16
	movq	%rsp, %rbp
	.cfi_def_cfa_register %rbp
	pushq	%r15
	pushq	%r14
	pushq	%r13
	pushq	%r12
	pushq	%rbx
	andq	$-64, %rsp
	subq	$512, %rsp                      # imm = 0x200
	.cfi_offset %rbx, -56
	.cfi_offset %r12, -48
	.cfi_offset %r13, -40
	.cfi_offset %r14, -32
	.cfi_offset %r15, -24
	movq	%fs:40, %rax
	movq	%rax, 448(%rsp)
	movl	$-1, %eax
.Ltmp22:
	.loc	1 53 14 prologue_end            # crypto_box/crypto_box_seal.c:53:14
	cmpq	$48, %rdx
	jb	.LBB1_2
.Ltmp23:
# %bb.1:
	#DEBUG_VALUE: crypto_box_seal_open:m <- $rdi
	#DEBUG_VALUE: crypto_box_seal_open:c <- $rsi
	#DEBUG_VALUE: crypto_box_seal_open:clen <- $rdx
	#DEBUG_VALUE: crypto_box_seal_open:pk <- $rcx
	#DEBUG_VALUE: crypto_box_seal_open:sk <- $r8
	.loc	1 0 14 is_stmt 0                # crypto_box/crypto_box_seal.c:0:14
	movq	%r8, %rbx
	movq	%rcx, %r15
	movq	%rsi, %r14
.Ltmp24:
	#DEBUG_VALUE: _crypto_box_seal_nonce:st <- [DW_OP_plus_uconst 64, DW_OP_deref] $rsp
	#DEBUG_VALUE: _crypto_box_seal_nonce:nonce <- [DW_OP_plus_uconst 32, DW_OP_stack_value] $rsp
	#DEBUG_VALUE: _crypto_box_seal_nonce:pk1 <- $r14
	#DEBUG_VALUE: _crypto_box_seal_nonce:pk2 <- $r15
	leaq	64(%rsp), %r13
.Ltmp25:
	.loc	1 15 5 is_stmt 1                # crypto_box/crypto_box_seal.c:15:5 @[ crypto_box/crypto_box_seal.c:56:5 ]
	movl	$24, %ecx
.Ltmp26:
	#DEBUG_VALUE: crypto_box_seal_open:pk <- $r15
	.loc	1 0 5 is_stmt 0                 # crypto_box/crypto_box_seal.c:0:5
	movq	%rdi, 24(%rsp)                  # 8-byte Spill
.Ltmp27:
	#DEBUG_VALUE: crypto_box_seal_open:m <- [DW_OP_plus_uconst 24] [$rsp+0]
	.loc	1 15 5                          # crypto_box/crypto_box_seal.c:15:5 @[ crypto_box/crypto_box_seal.c:56:5 ]
	movq	%r13, %rdi
	xorl	%esi, %esi
.Ltmp28:
	#DEBUG_VALUE: crypto_box_seal_open:c <- $r14
	.loc	1 0 5                           # crypto_box/crypto_box_seal.c:0:5
	movq	%rdx, %r12
.Ltmp29:
	#DEBUG_VALUE: crypto_box_seal_open:clen <- $r12
	.loc	1 15 5                          # crypto_box/crypto_box_seal.c:15:5 @[ crypto_box/crypto_box_seal.c:56:5 ]
	xorl	%edx, %edx
	callq	crypto_generichash_init@PLT
.Ltmp30:
	#DEBUG_VALUE: crypto_box_seal_open:sk <- $rbx
	.loc	1 16 5 is_stmt 1                # crypto_box/crypto_box_seal.c:16:5 @[ crypto_box/crypto_box_seal.c:56:5 ]
	movl	$32, %edx
	movq	%r13, %rdi
	movq	%r14, %rsi
	callq	crypto_generichash_update@PLT
.Ltmp31:
	.loc	1 17 5                          # crypto_box/crypto_box_seal.c:17:5 @[ crypto_box/crypto_box_seal.c:56:5 ]
	movl	$32, %edx
	movq	%r13, %rdi
	movq	%r15, %rsi
	callq	crypto_generichash_update@PLT
.Ltmp32:
	.loc	1 0 5 is_stmt 0                 # crypto_box/crypto_box_seal.c:0:5
	leaq	32(%rsp), %r15
.Ltmp33:
	#DEBUG_VALUE: crypto_box_seal_open:pk <- [DW_OP_LLVM_entry_value 1] $rcx
	.loc	1 18 5 is_stmt 1                # crypto_box/crypto_box_seal.c:18:5 @[ crypto_box/crypto_box_seal.c:56:5 ]
	movl	$24, %edx
	movq	%r13, %rdi
	movq	%r15, %rsi
	callq	crypto_generichash_final@PLT
.Ltmp34:
	.loc	1 59 38                         # crypto_box/crypto_box_seal.c:59:38
	leaq	32(%r14), %rsi
	.loc	1 60 38                         # crypto_box/crypto_box_seal.c:60:38
	addq	$-32, %r12
.Ltmp35:
	#DEBUG_VALUE: crypto_box_seal_open:clen <- [DW_OP_LLVM_entry_value 1] $rdx
	.loc	1 0 38 is_stmt 0                # crypto_box/crypto_box_seal.c:0:38
	movq	24(%rsp), %rdi                  # 8-byte Reload
	.loc	1 59 12 is_stmt 1               # crypto_box/crypto_box_seal.c:59:12
	movq	%r12, %rdx
	movq	%r15, %rcx
	movq	%r14, %r8
	movq	%rbx, %r9
	callq	crypto_box_open_easy@PLT
.Ltmp36:
.LBB1_2:
	#DEBUG_VALUE: crypto_box_seal_open:m <- [DW_OP_LLVM_entry_value 1] $rdi
	#DEBUG_VALUE: crypto_box_seal_open:c <- [DW_OP_LLVM_entry_value 1] $rsi
	#DEBUG_VALUE: crypto_box_seal_open:clen <- [DW_OP_LLVM_entry_value 1] $rdx
	#DEBUG_VALUE: crypto_box_seal_open:pk <- [DW_OP_LLVM_entry_value 1] $rcx
	#DEBUG_VALUE: crypto_box_seal_open:sk <- [DW_OP_LLVM_entry_value 1] $r8
	.loc	1 62 1                          # crypto_box/crypto_box_seal.c:62:1
	movq	%fs:40, %rcx
	cmpq	448(%rsp), %rcx
	jne	.LBB1_4
.Ltmp37:
# %bb.3:                                # %SP_return
	#DEBUG_VALUE: crypto_box_seal_open:m <- [DW_OP_LLVM_entry_value 1] $rdi
	#DEBUG_VALUE: crypto_box_seal_open:c <- [DW_OP_LLVM_entry_value 1] $rsi
	#DEBUG_VALUE: crypto_box_seal_open:clen <- [DW_OP_LLVM_entry_value 1] $rdx
	#DEBUG_VALUE: crypto_box_seal_open:pk <- [DW_OP_LLVM_entry_value 1] $rcx
	#DEBUG_VALUE: crypto_box_seal_open:sk <- [DW_OP_LLVM_entry_value 1] $r8
	leaq	-40(%rbp), %rsp
	.loc	1 62 1 epilogue_begin is_stmt 0 # crypto_box/crypto_box_seal.c:62:1
	popq	%rbx
	popq	%r12
	popq	%r13
	popq	%r14
	popq	%r15
	popq	%rbp
	.cfi_def_cfa %rsp, 8
	retq
.Ltmp38:
.LBB1_4:                                # %CallStackCheckFailBlk
	.cfi_def_cfa %rbp, 16
	#DEBUG_VALUE: crypto_box_seal_open:m <- [DW_OP_LLVM_entry_value 1] $rdi
	#DEBUG_VALUE: crypto_box_seal_open:c <- [DW_OP_LLVM_entry_value 1] $rsi
	#DEBUG_VALUE: crypto_box_seal_open:clen <- [DW_OP_LLVM_entry_value 1] $rdx
	#DEBUG_VALUE: crypto_box_seal_open:pk <- [DW_OP_LLVM_entry_value 1] $rcx
	#DEBUG_VALUE: crypto_box_seal_open:sk <- [DW_OP_LLVM_entry_value 1] $r8
	.loc	1 0 0                           # crypto_box/crypto_box_seal.c:0
	callq	__stack_chk_fail@PLT
.Ltmp39:
.Lfunc_end1:
	.size	crypto_box_seal_open, .Lfunc_end1-crypto_box_seal_open
	.cfi_endproc
                                        # -- End function
	.globl	crypto_box_sealbytes            # -- Begin function crypto_box_sealbytes
	.p2align	4
	.type	crypto_box_sealbytes,@function
crypto_box_sealbytes:                   # @crypto_box_sealbytes
.Lfunc_begin2:
	.cfi_startproc
# %bb.0:
	.loc	1 67 5 prologue_end is_stmt 1   # crypto_box/crypto_box_seal.c:67:5
	movl	$48, %eax
	retq
.Ltmp40:
.Lfunc_end2:
	.size	crypto_box_sealbytes, .Lfunc_end2-crypto_box_sealbytes
	.cfi_endproc
                                        # -- End function
	.section	".note.GNU-stack","",@progbits
	.addrsig
	.addrsig_sym __stack_chk_fail