	.file	"crypto_pwhash.c"
	.file	0 "/home/leizhenyuu/opt/Anonymous_Repo/libsodium_o2_attr_inline/src/libsodium" "crypto_pwhash.c" md5 0x79fa49d6182cdfd6df3502917f80415d
	.file	1 "crypto_pwhash" "crypto_pwhash.c"
	.text
	.globl	crypto_pwhash_alg_argon2i13     # -- Begin function crypto_pwhash_alg_argon2i13
	.p2align	4
	.type	crypto_pwhash_alg_argon2i13,@function
crypto_pwhash_alg_argon2i13:            # @crypto_pwhash_alg_argon2i13
.Lfunc_begin0:
	.cfi_startproc
# %bb.0:
	.loc	1 11 5 prologue_end             # crypto_pwhash/crypto_pwhash.c:11:5
	movl	$1, %eax
	retq
.Ltmp0:
.Lfunc_end0:
	.size	crypto_pwhash_alg_argon2i13, .Lfunc_end0-crypto_pwhash_alg_argon2i13
	.cfi_endproc
                                        # -- End function
	.globl	crypto_pwhash_alg_argon2id13    # -- Begin function crypto_pwhash_alg_argon2id13
	.p2align	4
	.type	crypto_pwhash_alg_argon2id13,@function
crypto_pwhash_alg_argon2id13:           # @crypto_pwhash_alg_argon2id13
.Lfunc_begin1:
	.cfi_startproc
# %bb.0:
	.loc	1 17 5 prologue_end             # crypto_pwhash/crypto_pwhash.c:17:5
	movl	$2, %eax
	retq
.Ltmp1:
.Lfunc_end1:
	.size	crypto_pwhash_alg_argon2id13, .Lfunc_end1-crypto_pwhash_alg_argon2id13
	.cfi_endproc
                                        # -- End function
	.globl	crypto_pwhash_alg_default       # -- Begin function crypto_pwhash_alg_default
	.p2align	4
	.type	crypto_pwhash_alg_default,@function
crypto_pwhash_alg_default:              # @crypto_pwhash_alg_default
.Lfunc_begin2:
	.cfi_startproc
# %bb.0:
	.loc	1 23 5 prologue_end             # crypto_pwhash/crypto_pwhash.c:23:5
	movl	$2, %eax
	retq
.Ltmp2:
.Lfunc_end2:
	.size	crypto_pwhash_alg_default, .Lfunc_end2-crypto_pwhash_alg_default
	.cfi_endproc
                                        # -- End function
	.globl	crypto_pwhash_bytes_min         # -- Begin function crypto_pwhash_bytes_min
	.p2align	4
	.type	crypto_pwhash_bytes_min,@function
crypto_pwhash_bytes_min:                # @crypto_pwhash_bytes_min
.Lfunc_begin3:
	.cfi_startproc
# %bb.0:
	.loc	1 29 5 prologue_end             # crypto_pwhash/crypto_pwhash.c:29:5
	movl	$16, %eax
	retq
.Ltmp3:
.Lfunc_end3:
	.size	crypto_pwhash_bytes_min, .Lfunc_end3-crypto_pwhash_bytes_min
	.cfi_endproc
                                        # -- End function
	.globl	crypto_pwhash_bytes_max         # -- Begin function crypto_pwhash_bytes_max
	.p2align	4
	.type	crypto_pwhash_bytes_max,@function
crypto_pwhash_bytes_max:                # @crypto_pwhash_bytes_max
.Lfunc_begin4:
	.cfi_startproc
# %bb.0:
	.loc	1 35 5 prologue_end             # crypto_pwhash/crypto_pwhash.c:35:5
	movl	$4294967295, %eax               # imm = 0xFFFFFFFF
	retq
.Ltmp4:
.Lfunc_end4:
	.size	crypto_pwhash_bytes_max, .Lfunc_end4-crypto_pwhash_bytes_max
	.cfi_endproc
                                        # -- End function
	.globl	crypto_pwhash_passwd_min        # -- Begin function crypto_pwhash_passwd_min
	.p2align	4
	.type	crypto_pwhash_passwd_min,@function
crypto_pwhash_passwd_min:               # @crypto_pwhash_passwd_min
.Lfunc_begin5:
	.cfi_startproc
# %bb.0:
	.loc	1 41 5 prologue_end             # crypto_pwhash/crypto_pwhash.c:41:5
	xorl	%eax, %eax
	retq
.Ltmp5:
.Lfunc_end5:
	.size	crypto_pwhash_passwd_min, .Lfunc_end5-crypto_pwhash_passwd_min
	.cfi_endproc
                                        # -- End function
	.globl	crypto_pwhash_passwd_max        # -- Begin function crypto_pwhash_passwd_max
	.p2align	4
	.type	crypto_pwhash_passwd_max,@function
crypto_pwhash_passwd_max:               # @crypto_pwhash_passwd_max
.Lfunc_begin6:
	.cfi_startproc
# %bb.0:
	.loc	1 47 5 prologue_end             # crypto_pwhash/crypto_pwhash.c:47:5
	movl	$4294967295, %eax               # imm = 0xFFFFFFFF
	retq
.Ltmp6:
.Lfunc_end6:
	.size	crypto_pwhash_passwd_max, .Lfunc_end6-crypto_pwhash_passwd_max
	.cfi_endproc
                                        # -- End function
	.globl	crypto_pwhash_saltbytes         # -- Begin function crypto_pwhash_saltbytes
	.p2align	4
	.type	crypto_pwhash_saltbytes,@function
crypto_pwhash_saltbytes:                # @crypto_pwhash_saltbytes
.Lfunc_begin7:
	.cfi_startproc
# %bb.0:
	.loc	1 53 5 prologue_end             # crypto_pwhash/crypto_pwhash.c:53:5
	movl	$16, %eax
	retq
.Ltmp7:
.Lfunc_end7:
	.size	crypto_pwhash_saltbytes, .Lfunc_end7-crypto_pwhash_saltbytes
	.cfi_endproc
                                        # -- End function
	.globl	crypto_pwhash_strbytes          # -- Begin function crypto_pwhash_strbytes
	.p2align	4
	.type	crypto_pwhash_strbytes,@function
crypto_pwhash_strbytes:                 # @crypto_pwhash_strbytes
.Lfunc_begin8:
	.cfi_startproc
# %bb.0:
	.loc	1 59 5 prologue_end             # crypto_pwhash/crypto_pwhash.c:59:5
	movl	$128, %eax
	retq
.Ltmp8:
.Lfunc_end8:
	.size	crypto_pwhash_strbytes, .Lfunc_end8-crypto_pwhash_strbytes
	.cfi_endproc
                                        # -- End function
	.globl	crypto_pwhash_strprefix         # -- Begin function crypto_pwhash_strprefix
	.p2align	4
	.type	crypto_pwhash_strprefix,@function
crypto_pwhash_strprefix:                # @crypto_pwhash_strprefix
.Lfunc_begin9:
	.cfi_startproc
# %bb.0:
	.loc	1 65 5 prologue_end             # crypto_pwhash/crypto_pwhash.c:65:5
	leaq	.L.str(%rip), %rax
	retq
.Ltmp9:
.Lfunc_end9:
	.size	crypto_pwhash_strprefix, .Lfunc_end9-crypto_pwhash_strprefix
	.cfi_endproc
                                        # -- End function
	.globl	crypto_pwhash_opslimit_min      # -- Begin function crypto_pwhash_opslimit_min
	.p2align	4
	.type	crypto_pwhash_opslimit_min,@function
crypto_pwhash_opslimit_min:             # @crypto_pwhash_opslimit_min
.Lfunc_begin10:
	.cfi_startproc
# %bb.0:
	.loc	1 71 5 prologue_end             # crypto_pwhash/crypto_pwhash.c:71:5
	movl	$1, %eax
	retq
.Ltmp10:
.Lfunc_end10:
	.size	crypto_pwhash_opslimit_min, .Lfunc_end10-crypto_pwhash_opslimit_min
	.cfi_endproc
                                        # -- End function
	.globl	crypto_pwhash_opslimit_max      # -- Begin function crypto_pwhash_opslimit_max
	.p2align	4
	.type	crypto_pwhash_opslimit_max,@function
crypto_pwhash_opslimit_max:             # @crypto_pwhash_opslimit_max
.Lfunc_begin11:
	.cfi_startproc
# %bb.0:
	.loc	1 77 5 prologue_end             # crypto_pwhash/crypto_pwhash.c:77:5
	movl	$4294967295, %eax               # imm = 0xFFFFFFFF
	retq
.Ltmp11:
.Lfunc_end11:
	.size	crypto_pwhash_opslimit_max, .Lfunc_end11-crypto_pwhash_opslimit_max
	.cfi_endproc
                                        # -- End function
	.globl	crypto_pwhash_memlimit_min      # -- Begin function crypto_pwhash_memlimit_min
	.p2align	4
	.type	crypto_pwhash_memlimit_min,@function
crypto_pwhash_memlimit_min:             # @crypto_pwhash_memlimit_min
.Lfunc_begin12:
	.cfi_startproc
# %bb.0:
	.loc	1 83 5 prologue_end             # crypto_pwhash/crypto_pwhash.c:83:5
	movl	$8192, %eax                     # imm = 0x2000
	retq
.Ltmp12:
.Lfunc_end12:
	.size	crypto_pwhash_memlimit_min, .Lfunc_end12-crypto_pwhash_memlimit_min
	.cfi_endproc
                                        # -- End function
	.globl	crypto_pwhash_memlimit_max      # -- Begin function crypto_pwhash_memlimit_max
	.p2align	4
	.type	crypto_pwhash_memlimit_max,@function
crypto_pwhash_memlimit_max:             # @crypto_pwhash_memlimit_max
.Lfunc_begin13:
	.loc	1 88 0                          # crypto_pwhash/crypto_pwhash.c:88:0
	.cfi_startproc
# %bb.0:
	movabsq	$4398046510080, %rax            # imm = 0x3FFFFFFFC00
.Ltmp13:
	.loc	1 89 5 prologue_end             # crypto_pwhash/crypto_pwhash.c:89:5
	retq
.Ltmp14:
.Lfunc_end13:
	.size	crypto_pwhash_memlimit_max, .Lfunc_end13-crypto_pwhash_memlimit_max
	.cfi_endproc
                                        # -- End function
	.globl	crypto_pwhash_opslimit_interactive # -- Begin function crypto_pwhash_opslimit_interactive
	.p2align	4
	.type	crypto_pwhash_opslimit_interactive,@function
crypto_pwhash_opslimit_interactive:     # @crypto_pwhash_opslimit_interactive
.Lfunc_begin14:
	.cfi_startproc
# %bb.0:
	.loc	1 95 5 prologue_end             # crypto_pwhash/crypto_pwhash.c:95:5
	movl	$2, %eax
	retq
.Ltmp15:
.Lfunc_end14:
	.size	crypto_pwhash_opslimit_interactive, .Lfunc_end14-crypto_pwhash_opslimit_interactive
	.cfi_endproc
                                        # -- End function
	.globl	crypto_pwhash_memlimit_interactive # -- Begin function crypto_pwhash_memlimit_interactive
	.p2align	4
	.type	crypto_pwhash_memlimit_interactive,@function
crypto_pwhash_memlimit_interactive:     # @crypto_pwhash_memlimit_interactive
.Lfunc_begin15:
	.cfi_startproc
# %bb.0:
	.loc	1 101 5 prologue_end            # crypto_pwhash/crypto_pwhash.c:101:5
	movl	$67108864, %eax                 # imm = 0x4000000
	retq
.Ltmp16:
.Lfunc_end15:
	.size	crypto_pwhash_memlimit_interactive, .Lfunc_end15-crypto_pwhash_memlimit_interactive
	.cfi_endproc
                                        # -- End function
	.globl	crypto_pwhash_opslimit_moderate # -- Begin function crypto_pwhash_opslimit_moderate
	.p2align	4
	.type	crypto_pwhash_opslimit_moderate,@function
crypto_pwhash_opslimit_moderate:        # @crypto_pwhash_opslimit_moderate
.Lfunc_begin16:
	.cfi_startproc
# %bb.0:
	.loc	1 107 5 prologue_end            # crypto_pwhash/crypto_pwhash.c:107:5
	movl	$3, %eax
	retq
.Ltmp17:
.Lfunc_end16:
	.size	crypto_pwhash_opslimit_moderate, .Lfunc_end16-crypto_pwhash_opslimit_moderate
	.cfi_endproc
                                        # -- End function
	.globl	crypto_pwhash_memlimit_moderate # -- Begin function crypto_pwhash_memlimit_moderate
	.p2align	4
	.type	crypto_pwhash_memlimit_moderate,@function
crypto_pwhash_memlimit_moderate:        # @crypto_pwhash_memlimit_moderate
.Lfunc_begin17:
	.cfi_startproc
# %bb.0:
	.loc	1 113 5 prologue_end            # crypto_pwhash/crypto_pwhash.c:113:5
	movl	$268435456, %eax                # imm = 0x10000000
	retq
.Ltmp18:
.Lfunc_end17:
	.size	crypto_pwhash_memlimit_moderate, .Lfunc_end17-crypto_pwhash_memlimit_moderate
	.cfi_endproc
                                        # -- End function
	.globl	crypto_pwhash_opslimit_sensitive # -- Begin function crypto_pwhash_opslimit_sensitive
	.p2align	4
	.type	crypto_pwhash_opslimit_sensitive,@function
crypto_pwhash_opslimit_sensitive:       # @crypto_pwhash_opslimit_sensitive
.Lfunc_begin18:
	.cfi_startproc
# %bb.0:
	.loc	1 119 5 prologue_end            # crypto_pwhash/crypto_pwhash.c:119:5
	movl	$4, %eax
	retq
.Ltmp19:
.Lfunc_end18:
	.size	crypto_pwhash_opslimit_sensitive, .Lfunc_end18-crypto_pwhash_opslimit_sensitive
	.cfi_endproc
                                        # -- End function
	.globl	crypto_pwhash_memlimit_sensitive # -- Begin function crypto_pwhash_memlimit_sensitive
	.p2align	4
	.type	crypto_pwhash_memlimit_sensitive,@function
crypto_pwhash_memlimit_sensitive:       # @crypto_pwhash_memlimit_sensitive
.Lfunc_begin19:
	.cfi_startproc
# %bb.0:
	.loc	1 125 5 prologue_end            # crypto_pwhash/crypto_pwhash.c:125:5
	movl	$1073741824, %eax               # imm = 0x40000000
	retq
.Ltmp20:
.Lfunc_end19:
	.size	crypto_pwhash_memlimit_sensitive, .Lfunc_end19-crypto_pwhash_memlimit_sensitive
	.cfi_endproc
                                        # -- End function
	.globl	crypto_pwhash                   # -- Begin function crypto_pwhash
	.p2align	4
	.type	crypto_pwhash,@function
crypto_pwhash:                          # @crypto_pwhash
.Lfunc_begin20:
	.loc	1 133 0                         # crypto_pwhash/crypto_pwhash.c:133:0
	.cfi_startproc
# %bb.0:
	#DEBUG_VALUE: crypto_pwhash:out <- $rdi
	#DEBUG_VALUE: crypto_pwhash:outlen <- $rsi
	#DEBUG_VALUE: crypto_pwhash:passwd <- $rdx
	#DEBUG_VALUE: crypto_pwhash:passwdlen <- $rcx
	#DEBUG_VALUE: crypto_pwhash:salt <- $r8
	#DEBUG_VALUE: crypto_pwhash:opslimit <- $r9
	pushq	%rax
	.cfi_def_cfa_offset 16
.Ltmp21:
	#DEBUG_VALUE: crypto_pwhash:memlimit <- [DW_OP_plus_uconst 16] [$rsp+0]
	#DEBUG_VALUE: crypto_pwhash:alg <- [DW_OP_plus_uconst 24] [$rsp+0]
	movl	24(%rsp), %r10d
	movq	16(%rsp), %rax
.Ltmp22:
	.loc	1 134 5 prologue_end            # crypto_pwhash/crypto_pwhash.c:134:5
	cmpl	$2, %r10d
	je	.LBB20_4
.Ltmp23:
# %bb.1:
	#DEBUG_VALUE: crypto_pwhash:out <- $rdi
	#DEBUG_VALUE: crypto_pwhash:outlen <- $rsi
	#DEBUG_VALUE: crypto_pwhash:passwd <- $rdx
	#DEBUG_VALUE: crypto_pwhash:passwdlen <- $rcx
	#DEBUG_VALUE: crypto_pwhash:salt <- $r8
	#DEBUG_VALUE: crypto_pwhash:opslimit <- $r9
	#DEBUG_VALUE: crypto_pwhash:memlimit <- [DW_OP_plus_uconst 16] [$rsp+0]
	#DEBUG_VALUE: crypto_pwhash:alg <- [DW_OP_plus_uconst 24] [$rsp+0]
	cmpl	$1, %r10d
	jne	.LBB20_5
.Ltmp24:
# %bb.2:
	#DEBUG_VALUE: crypto_pwhash:out <- $rdi
	#DEBUG_VALUE: crypto_pwhash:outlen <- $rsi
	#DEBUG_VALUE: crypto_pwhash:passwd <- $rdx
	#DEBUG_VALUE: crypto_pwhash:passwdlen <- $rcx
	#DEBUG_VALUE: crypto_pwhash:salt <- $r8
	#DEBUG_VALUE: crypto_pwhash:opslimit <- $r9
	#DEBUG_VALUE: crypto_pwhash:memlimit <- [DW_OP_plus_uconst 16] [$rsp+0]
	#DEBUG_VALUE: crypto_pwhash:alg <- [DW_OP_plus_uconst 24] [$rsp+0]
	.loc	1 136 16                        # crypto_pwhash/crypto_pwhash.c:136:16
	pushq	$1
.Ltmp25:
	.cfi_adjust_cfa_offset 8
	pushq	%rax
	.cfi_adjust_cfa_offset 8
	callq	crypto_pwhash_argon2i@PLT
.Ltmp26:
	#DEBUG_VALUE: crypto_pwhash:opslimit <- [DW_OP_LLVM_entry_value 1] $r9
	#DEBUG_VALUE: crypto_pwhash:salt <- [DW_OP_LLVM_entry_value 1] $r8
	#DEBUG_VALUE: crypto_pwhash:passwdlen <- [DW_OP_LLVM_entry_value 1] $rcx
	#DEBUG_VALUE: crypto_pwhash:passwd <- [DW_OP_LLVM_entry_value 1] $rdx
	#DEBUG_VALUE: crypto_pwhash:outlen <- [DW_OP_LLVM_entry_value 1] $rsi
	#DEBUG_VALUE: crypto_pwhash:out <- [DW_OP_LLVM_entry_value 1] $rdi
	.loc	1 0 16 is_stmt 0                # crypto_pwhash/crypto_pwhash.c:0:16
	jmp	.LBB20_3
.Ltmp27:
.LBB20_4:
	.cfi_def_cfa_offset 16
	#DEBUG_VALUE: crypto_pwhash:out <- $rdi
	#DEBUG_VALUE: crypto_pwhash:outlen <- $rsi
	#DEBUG_VALUE: crypto_pwhash:passwd <- $rdx
	#DEBUG_VALUE: crypto_pwhash:passwdlen <- $rcx
	#DEBUG_VALUE: crypto_pwhash:salt <- $r8
	#DEBUG_VALUE: crypto_pwhash:opslimit <- $r9
	#DEBUG_VALUE: crypto_pwhash:memlimit <- [DW_OP_plus_uconst 16] [$rsp+0]
	#DEBUG_VALUE: crypto_pwhash:alg <- [DW_OP_plus_uconst 24] [$rsp+0]
	.loc	1 139 16 is_stmt 1              # crypto_pwhash/crypto_pwhash.c:139:16
	pushq	$2
.Ltmp28:
	.cfi_adjust_cfa_offset 8
	pushq	%rax
	.cfi_adjust_cfa_offset 8
	callq	crypto_pwhash_argon2id@PLT
.Ltmp29:
	#DEBUG_VALUE: crypto_pwhash:opslimit <- [DW_OP_LLVM_entry_value 1] $r9
	#DEBUG_VALUE: crypto_pwhash:salt <- [DW_OP_LLVM_entry_value 1] $r8
	#DEBUG_VALUE: crypto_pwhash:passwdlen <- [DW_OP_LLVM_entry_value 1] $rcx
	#DEBUG_VALUE: crypto_pwhash:passwd <- [DW_OP_LLVM_entry_value 1] $rdx
	#DEBUG_VALUE: crypto_pwhash:outlen <- [DW_OP_LLVM_entry_value 1] $rsi
	#DEBUG_VALUE: crypto_pwhash:out <- [DW_OP_LLVM_entry_value 1] $rdi
.LBB20_3:
	#DEBUG_VALUE: crypto_pwhash:out <- [DW_OP_LLVM_entry_value 1] $rdi
	#DEBUG_VALUE: crypto_pwhash:outlen <- [DW_OP_LLVM_entry_value 1] $rsi
	#DEBUG_VALUE: crypto_pwhash:passwd <- [DW_OP_LLVM_entry_value 1] $rdx
	#DEBUG_VALUE: crypto_pwhash:passwdlen <- [DW_OP_LLVM_entry_value 1] $rcx
	#DEBUG_VALUE: crypto_pwhash:salt <- [DW_OP_LLVM_entry_value 1] $r8
	#DEBUG_VALUE: crypto_pwhash:opslimit <- [DW_OP_LLVM_entry_value 1] $r9
	.loc	1 0 0 is_stmt 0                 # crypto_pwhash/crypto_pwhash.c:0
	addq	$16, %rsp
.Ltmp30:
	.cfi_adjust_cfa_offset -16
	.loc	1 145 1 epilogue_begin is_stmt 1 # crypto_pwhash/crypto_pwhash.c:145:1
	popq	%rcx
	.cfi_def_cfa_offset 8
	retq
.Ltmp31:
.LBB20_5:
	.cfi_def_cfa_offset 16
	#DEBUG_VALUE: crypto_pwhash:out <- $rdi
	#DEBUG_VALUE: crypto_pwhash:outlen <- $rsi
	#DEBUG_VALUE: crypto_pwhash:passwd <- $rdx
	#DEBUG_VALUE: crypto_pwhash:passwdlen <- $rcx
	#DEBUG_VALUE: crypto_pwhash:salt <- $r8
	#DEBUG_VALUE: crypto_pwhash:opslimit <- $r9
	#DEBUG_VALUE: crypto_pwhash:memlimit <- [DW_OP_plus_uconst 16] [$rsp+0]
	#DEBUG_VALUE: crypto_pwhash:alg <- [DW_OP_plus_uconst 24] [$rsp+0]
	.loc	1 142 11                        # crypto_pwhash/crypto_pwhash.c:142:11
	callq	__errno_location@PLT
.Ltmp32:
	#DEBUG_VALUE: crypto_pwhash:opslimit <- [DW_OP_LLVM_entry_value 1] $r9
	#DEBUG_VALUE: crypto_pwhash:salt <- [DW_OP_LLVM_entry_value 1] $r8
	#DEBUG_VALUE: crypto_pwhash:passwdlen <- [DW_OP_LLVM_entry_value 1] $rcx
	#DEBUG_VALUE: crypto_pwhash:passwd <- [DW_OP_LLVM_entry_value 1] $rdx
	#DEBUG_VALUE: crypto_pwhash:outlen <- [DW_OP_LLVM_entry_value 1] $rsi
	#DEBUG_VALUE: crypto_pwhash:out <- [DW_OP_LLVM_entry_value 1] $rdi
	.loc	1 142 32 is_stmt 0              # crypto_pwhash/crypto_pwhash.c:142:32
	movl	$22, (%rax)
.Ltmp33:
	.loc	1 145 1 is_stmt 1               # crypto_pwhash/crypto_pwhash.c:145:1
	movl	$-1, %eax
	.loc	1 145 1 epilogue_begin is_stmt 0 # crypto_pwhash/crypto_pwhash.c:145:1
	popq	%rcx
	.cfi_def_cfa_offset 8
	retq
.Ltmp34:
.Lfunc_end20:
	.size	crypto_pwhash, .Lfunc_end20-crypto_pwhash
	.cfi_endproc
	.file	2 "./include/sodium" "crypto_pwhash_argon2i.h"
	.file	3 "/home/leizhenyuu/opt/Anonymous_Repo" "llvm-project/build/lib/clang/21/include/__stddef_size_t.h"
	.file	4 "./include/sodium" "crypto_pwhash_argon2id.h"
	.file	5 "/usr/include" "errno.h"
                                        # -- End function
	.globl	crypto_pwhash_str               # -- Begin function crypto_pwhash_str
	.p2align	4
	.type	crypto_pwhash_str,@function
crypto_pwhash_str:                      # @crypto_pwhash_str
.Lfunc_begin21:
	.cfi_startproc
# %bb.0:
	#DEBUG_VALUE: crypto_pwhash_str:out <- $rdi
	#DEBUG_VALUE: crypto_pwhash_str:passwd <- $rsi
	#DEBUG_VALUE: crypto_pwhash_str:passwdlen <- $rdx
	#DEBUG_VALUE: crypto_pwhash_str:opslimit <- $rcx
	#DEBUG_VALUE: crypto_pwhash_str:memlimit <- $r8
	.loc	1 152 12 prologue_end is_stmt 1 # crypto_pwhash/crypto_pwhash.c:152:12
	jmp	crypto_pwhash_argon2id_str@PLT  # TAILCALL
.Ltmp35:
.Lfunc_end21:
	.size	crypto_pwhash_str, .Lfunc_end21-crypto_pwhash_str
	.cfi_endproc
                                        # -- End function
	.globl	crypto_pwhash_str_alg           # -- Begin function crypto_pwhash_str_alg
	.p2align	4
	.type	crypto_pwhash_str_alg,@function
crypto_pwhash_str_alg:                  # @crypto_pwhash_str_alg
.Lfunc_begin22:
	.cfi_startproc
# %bb.0:
	#DEBUG_VALUE: crypto_pwhash_str_alg:out <- $rdi
	#DEBUG_VALUE: crypto_pwhash_str_alg:passwd <- $rsi
	#DEBUG_VALUE: crypto_pwhash_str_alg:passwdlen <- $rdx
	#DEBUG_VALUE: crypto_pwhash_str_alg:opslimit <- $rcx
	#DEBUG_VALUE: crypto_pwhash_str_alg:memlimit <- $r8
	#DEBUG_VALUE: crypto_pwhash_str_alg:alg <- $r9d
	.loc	1 161 5 prologue_end            # crypto_pwhash/crypto_pwhash.c:161:5
	cmpl	$2, %r9d
.Ltmp36:
	je	crypto_pwhash_argon2id_str@PLT  # TAILCALL
.Ltmp37:
# %bb.1:
	#DEBUG_VALUE: crypto_pwhash_str_alg:out <- [DW_OP_LLVM_entry_value 1] $rdi
	#DEBUG_VALUE: crypto_pwhash_str_alg:passwd <- [DW_OP_LLVM_entry_value 1] $rsi
	#DEBUG_VALUE: crypto_pwhash_str_alg:passwdlen <- [DW_OP_LLVM_entry_value 1] $rdx
	#DEBUG_VALUE: crypto_pwhash_str_alg:opslimit <- [DW_OP_LLVM_entry_value 1] $rcx
	#DEBUG_VALUE: crypto_pwhash_str_alg:memlimit <- [DW_OP_LLVM_entry_value 1] $r8
	#DEBUG_VALUE: crypto_pwhash_str_alg:alg <- [DW_OP_LLVM_entry_value 1] $r9d
	cmpl	$1, %r9d
	jne	.LBB22_3
.Ltmp38:
# %bb.2:
	#DEBUG_VALUE: crypto_pwhash_str_alg:out <- [DW_OP_LLVM_entry_value 1] $rdi
	#DEBUG_VALUE: crypto_pwhash_str_alg:passwd <- [DW_OP_LLVM_entry_value 1] $rsi
	#DEBUG_VALUE: crypto_pwhash_str_alg:passwdlen <- [DW_OP_LLVM_entry_value 1] $rdx
	#DEBUG_VALUE: crypto_pwhash_str_alg:opslimit <- [DW_OP_LLVM_entry_value 1] $rcx
	#DEBUG_VALUE: crypto_pwhash_str_alg:memlimit <- [DW_OP_LLVM_entry_value 1] $r8
	#DEBUG_VALUE: crypto_pwhash_str_alg:alg <- [DW_OP_LLVM_entry_value 1] $r9d
	.loc	1 163 16                        # crypto_pwhash/crypto_pwhash.c:163:16
	jmp	crypto_pwhash_argon2i_str@PLT   # TAILCALL
.Ltmp39:
.LBB22_3:
	#DEBUG_VALUE: crypto_pwhash_str_alg:out <- [DW_OP_LLVM_entry_value 1] $rdi
	#DEBUG_VALUE: crypto_pwhash_str_alg:passwd <- [DW_OP_LLVM_entry_value 1] $rsi
	#DEBUG_VALUE: crypto_pwhash_str_alg:passwdlen <- [DW_OP_LLVM_entry_value 1] $rdx
	#DEBUG_VALUE: crypto_pwhash_str_alg:opslimit <- [DW_OP_LLVM_entry_value 1] $rcx
	#DEBUG_VALUE: crypto_pwhash_str_alg:memlimit <- [DW_OP_LLVM_entry_value 1] $r8
	#DEBUG_VALUE: crypto_pwhash_str_alg:alg <- [DW_OP_LLVM_entry_value 1] $r9d
	pushq	%rax
	.cfi_def_cfa_offset 16
	.loc	1 169 5                         # crypto_pwhash/crypto_pwhash.c:169:5
	callq	sodium_misuse@PLT
.Ltmp40:
.Lfunc_end22:
	.size	crypto_pwhash_str_alg, .Lfunc_end22-crypto_pwhash_str_alg
	.cfi_endproc
	.file	6 "./include/sodium" "core.h"
                                        # -- End function
	.globl	crypto_pwhash_str_verify        # -- Begin function crypto_pwhash_str_verify
	.p2align	4
	.type	crypto_pwhash_str_verify,@function
crypto_pwhash_str_verify:               # @crypto_pwhash_str_verify
.Lfunc_begin23:
	.loc	1 178 0                         # crypto_pwhash/crypto_pwhash.c:178:0
	.cfi_startproc
# %bb.0:
	#DEBUG_VALUE: crypto_pwhash_str_verify:str <- $rdi
	#DEBUG_VALUE: crypto_pwhash_str_verify:passwd <- $rsi
	#DEBUG_VALUE: crypto_pwhash_str_verify:passwdlen <- $rdx
	pushq	%r15
	.cfi_def_cfa_offset 16
	pushq	%r14
	.cfi_def_cfa_offset 24
	pushq	%rbx
	.cfi_def_cfa_offset 32
	.cfi_offset %rbx, -32
	.cfi_offset %r14, -24
	.cfi_offset %r15, -16
	movq	%rdx, %rbx
	movq	%rsi, %r14
	movq	%rdi, %r15
.Ltmp41:
	.loc	1 179 9 prologue_end            # crypto_pwhash/crypto_pwhash.c:179:9
	leaq	.L.str(%rip), %rsi
.Ltmp42:
	#DEBUG_VALUE: crypto_pwhash_str_verify:passwd <- $r14
	movl	$10, %edx
.Ltmp43:
	#DEBUG_VALUE: crypto_pwhash_str_verify:passwdlen <- $rbx
	callq	strncmp@PLT
.Ltmp44:
	#DEBUG_VALUE: crypto_pwhash_str_verify:str <- $r15
	.loc	1 180 42                        # crypto_pwhash/crypto_pwhash.c:180:42
	testl	%eax, %eax
	je	.LBB23_3
.Ltmp45:
# %bb.1:
	#DEBUG_VALUE: crypto_pwhash_str_verify:str <- $r15
	#DEBUG_VALUE: crypto_pwhash_str_verify:passwd <- $r14
	#DEBUG_VALUE: crypto_pwhash_str_verify:passwdlen <- $rbx
	.loc	1 183 9                         # crypto_pwhash/crypto_pwhash.c:183:9
	leaq	.L.str.1(%rip), %rsi
	movl	$9, %edx
	movq	%r15, %rdi
	callq	strncmp@PLT
.Ltmp46:
	.loc	1 184 41                        # crypto_pwhash/crypto_pwhash.c:184:41
	testl	%eax, %eax
	je	.LBB23_4
.Ltmp47:
# %bb.2:
	#DEBUG_VALUE: crypto_pwhash_str_verify:str <- $r15
	#DEBUG_VALUE: crypto_pwhash_str_verify:passwd <- $r14
	#DEBUG_VALUE: crypto_pwhash_str_verify:passwdlen <- $rbx
	.loc	1 187 7                         # crypto_pwhash/crypto_pwhash.c:187:7
	callq	__errno_location@PLT
.Ltmp48:
	.loc	1 187 28 is_stmt 0              # crypto_pwhash/crypto_pwhash.c:187:28
	movl	$22, (%rax)
	.loc	1 190 1 is_stmt 1               # crypto_pwhash/crypto_pwhash.c:190:1
	movl	$-1, %eax
	.loc	1 190 1 epilogue_begin is_stmt 0 # crypto_pwhash/crypto_pwhash.c:190:1
	popq	%rbx
.Ltmp49:
	#DEBUG_VALUE: crypto_pwhash_str_verify:passwdlen <- [DW_OP_LLVM_entry_value 1] $rdx
	.cfi_def_cfa_offset 24
	popq	%r14
.Ltmp50:
	#DEBUG_VALUE: crypto_pwhash_str_verify:passwd <- [DW_OP_LLVM_entry_value 1] $rsi
	.cfi_def_cfa_offset 16
	popq	%r15
.Ltmp51:
	#DEBUG_VALUE: crypto_pwhash_str_verify:str <- [DW_OP_LLVM_entry_value 1] $rdi
	.cfi_def_cfa_offset 8
	retq
.Ltmp52:
.LBB23_3:
	.cfi_def_cfa_offset 32
	#DEBUG_VALUE: crypto_pwhash_str_verify:str <- $r15
	#DEBUG_VALUE: crypto_pwhash_str_verify:passwd <- $r14
	#DEBUG_VALUE: crypto_pwhash_str_verify:passwdlen <- $rbx
	.loc	1 181 16 is_stmt 1              # crypto_pwhash/crypto_pwhash.c:181:16
	movq	%r15, %rdi
	movq	%r14, %rsi
	movq	%rbx, %rdx
	.loc	1 181 16 epilogue_begin is_stmt 0 # crypto_pwhash/crypto_pwhash.c:181:16
	popq	%rbx
.Ltmp53:
	#DEBUG_VALUE: crypto_pwhash_str_verify:passwdlen <- $rdx
	.cfi_def_cfa_offset 24
	popq	%r14
.Ltmp54:
	#DEBUG_VALUE: crypto_pwhash_str_verify:passwd <- $rsi
	.cfi_def_cfa_offset 16
	popq	%r15
.Ltmp55:
	#DEBUG_VALUE: crypto_pwhash_str_verify:str <- $rdi
	.cfi_def_cfa_offset 8
	jmp	crypto_pwhash_argon2id_str_verify@PLT # TAILCALL
.Ltmp56:
.LBB23_4:
	.cfi_def_cfa_offset 32
	#DEBUG_VALUE: crypto_pwhash_str_verify:str <- $r15
	#DEBUG_VALUE: crypto_pwhash_str_verify:passwd <- $r14
	#DEBUG_VALUE: crypto_pwhash_str_verify:passwdlen <- $rbx
	.loc	1 185 16 is_stmt 1              # crypto_pwhash/crypto_pwhash.c:185:16
	movq	%r15, %rdi
	movq	%r14, %rsi
	movq	%rbx, %rdx
	.loc	1 185 16 epilogue_begin is_stmt 0 # crypto_pwhash/crypto_pwhash.c:185:16
	popq	%rbx
.Ltmp57:
	#DEBUG_VALUE: crypto_pwhash_str_verify:passwdlen <- $rdx
	.cfi_def_cfa_offset 24
	popq	%r14
.Ltmp58:
	#DEBUG_VALUE: crypto_pwhash_str_verify:passwd <- $rsi
	.cfi_def_cfa_offset 16
	popq	%r15
.Ltmp59:
	#DEBUG_VALUE: crypto_pwhash_str_verify:str <- $rdi
	.cfi_def_cfa_offset 8
	jmp	crypto_pwhash_argon2i_str_verify@PLT # TAILCALL
.Ltmp60:
.Lfunc_end23:
	.size	crypto_pwhash_str_verify, .Lfunc_end23-crypto_pwhash_str_verify
	.cfi_endproc
	.file	7 "/usr/include" "string.h"
                                        # -- End function
	.globl	crypto_pwhash_str_needs_rehash  # -- Begin function crypto_pwhash_str_needs_rehash
	.p2align	4
	.type	crypto_pwhash_str_needs_rehash,@function
crypto_pwhash_str_needs_rehash:         # @crypto_pwhash_str_needs_rehash
.Lfunc_begin24:
	.loc	1 195 0 is_stmt 1               # crypto_pwhash/crypto_pwhash.c:195:0
	.cfi_startproc
# %bb.0:
	#DEBUG_VALUE: crypto_pwhash_str_needs_rehash:str <- $rdi
	#DEBUG_VALUE: crypto_pwhash_str_needs_rehash:opslimit <- $rsi
	#DEBUG_VALUE: crypto_pwhash_str_needs_rehash:memlimit <- $rdx
	pushq	%r15
	.cfi_def_cfa_offset 16
	pushq	%r14
	.cfi_def_cfa_offset 24
	pushq	%rbx
	.cfi_def_cfa_offset 32
	.cfi_offset %rbx, -32
	.cfi_offset %r14, -24
	.cfi_offset %r15, -16
	movq	%rdx, %rbx
	movq	%rsi, %r14
	movq	%rdi, %r15
.Ltmp61:
	.loc	1 196 9 prologue_end            # crypto_pwhash/crypto_pwhash.c:196:9
	leaq	.L.str(%rip), %rsi
.Ltmp62:
	#DEBUG_VALUE: crypto_pwhash_str_needs_rehash:opslimit <- $r14
	movl	$10, %edx
.Ltmp63:
	#DEBUG_VALUE: crypto_pwhash_str_needs_rehash:memlimit <- $rbx
	callq	strncmp@PLT
.Ltmp64:
	#DEBUG_VALUE: crypto_pwhash_str_needs_rehash:str <- $r15
	.loc	1 197 42                        # crypto_pwhash/crypto_pwhash.c:197:42
	testl	%eax, %eax
	je	.LBB24_3
.Ltmp65:
# %bb.1:
	#DEBUG_VALUE: crypto_pwhash_str_needs_rehash:str <- $r15
	#DEBUG_VALUE: crypto_pwhash_str_needs_rehash:opslimit <- $r14
	#DEBUG_VALUE: crypto_pwhash_str_needs_rehash:memlimit <- $rbx
	.loc	1 200 9                         # crypto_pwhash/crypto_pwhash.c:200:9
	leaq	.L.str.1(%rip), %rsi
	movl	$9, %edx
	movq	%r15, %rdi
	callq	strncmp@PLT
.Ltmp66:
	.loc	1 201 41                        # crypto_pwhash/crypto_pwhash.c:201:41
	testl	%eax, %eax
	je	.LBB24_4
.Ltmp67:
# %bb.2:
	#DEBUG_VALUE: crypto_pwhash_str_needs_rehash:str <- $r15
	#DEBUG_VALUE: crypto_pwhash_str_needs_rehash:opslimit <- $r14
	#DEBUG_VALUE: crypto_pwhash_str_needs_rehash:memlimit <- $rbx
	.loc	1 204 7                         # crypto_pwhash/crypto_pwhash.c:204:7
	callq	__errno_location@PLT
.Ltmp68:
	.loc	1 204 28 is_stmt 0              # crypto_pwhash/crypto_pwhash.c:204:28
	movl	$22, (%rax)
	.loc	1 207 1 is_stmt 1               # crypto_pwhash/crypto_pwhash.c:207:1
	movl	$-1, %eax
	.loc	1 207 1 epilogue_begin is_stmt 0 # crypto_pwhash/crypto_pwhash.c:207:1
	popq	%rbx
.Ltmp69:
	#DEBUG_VALUE: crypto_pwhash_str_needs_rehash:memlimit <- [DW_OP_LLVM_entry_value 1] $rdx
	.cfi_def_cfa_offset 24
	popq	%r14
.Ltmp70:
	#DEBUG_VALUE: crypto_pwhash_str_needs_rehash:opslimit <- [DW_OP_LLVM_entry_value 1] $rsi
	.cfi_def_cfa_offset 16
	popq	%r15
.Ltmp71:
	#DEBUG_VALUE: crypto_pwhash_str_needs_rehash:str <- [DW_OP_LLVM_entry_value 1] $rdi
	.cfi_def_cfa_offset 8
	retq
.Ltmp72:
.LBB24_3:
	.cfi_def_cfa_offset 32
	#DEBUG_VALUE: crypto_pwhash_str_needs_rehash:str <- $r15
	#DEBUG_VALUE: crypto_pwhash_str_needs_rehash:opslimit <- $r14
	#DEBUG_VALUE: crypto_pwhash_str_needs_rehash:memlimit <- $rbx
	.loc	1 198 16 is_stmt 1              # crypto_pwhash/crypto_pwhash.c:198:16
	movq	%r15, %rdi
	movq	%r14, %rsi
	movq	%rbx, %rdx
	.loc	1 198 16 epilogue_begin is_stmt 0 # crypto_pwhash/crypto_pwhash.c:198:16
	popq	%rbx
.Ltmp73:
	#DEBUG_VALUE: crypto_pwhash_str_needs_rehash:memlimit <- $rdx
	.cfi_def_cfa_offset 24
	popq	%r14
.Ltmp74:
	#DEBUG_VALUE: crypto_pwhash_str_needs_rehash:opslimit <- $rsi
	.cfi_def_cfa_offset 16
	popq	%r15
.Ltmp75:
	#DEBUG_VALUE: crypto_pwhash_str_needs_rehash:str <- $rdi
	.cfi_def_cfa_offset 8
	jmp	crypto_pwhash_argon2id_str_needs_rehash@PLT # TAILCALL
.Ltmp76:
.LBB24_4:
	.cfi_def_cfa_offset 32
	#DEBUG_VALUE: crypto_pwhash_str_needs_rehash:str <- $r15
	#DEBUG_VALUE: crypto_pwhash_str_needs_rehash:opslimit <- $r14
	#DEBUG_VALUE: crypto_pwhash_str_needs_rehash:memlimit <- $rbx
	.loc	1 202 16 is_stmt 1              # crypto_pwhash/crypto_pwhash.c:202:16
	movq	%r15, %rdi
	movq	%r14, %rsi
	movq	%rbx, %rdx
	.loc	1 202 16 epilogue_begin is_stmt 0 # crypto_pwhash/crypto_pwhash.c:202:16
	popq	%rbx
.Ltmp77:
	#DEBUG_VALUE: crypto_pwhash_str_needs_rehash:memlimit <- $rdx
	.cfi_def_cfa_offset 24
	popq	%r14
.Ltmp78:
	#DEBUG_VALUE: crypto_pwhash_str_needs_rehash:opslimit <- $rsi
	.cfi_def_cfa_offset 16
	popq	%r15
.Ltmp79:
	#DEBUG_VALUE: crypto_pwhash_str_needs_rehash:str <- $rdi
	.cfi_def_cfa_offset 8
	jmp	crypto_pwhash_argon2i_str_needs_rehash@PLT # TAILCALL
.Ltmp80:
.Lfunc_end24:
	.size	crypto_pwhash_str_needs_rehash, .Lfunc_end24-crypto_pwhash_str_needs_rehash
	.cfi_endproc
                                        # -- End function
	.globl	crypto_pwhash_primitive         # -- Begin function crypto_pwhash_primitive
	.p2align	4
	.type	crypto_pwhash_primitive,@function
crypto_pwhash_primitive:                # @crypto_pwhash_primitive
.Lfunc_begin25:
	.cfi_startproc
# %bb.0:
	.loc	1 211 5 prologue_end is_stmt 1  # crypto_pwhash/crypto_pwhash.c:211:5
	leaq	.L.str.2(%rip), %rax
	retq
.Ltmp81:
.Lfunc_end25:
	.size	crypto_pwhash_primitive, .Lfunc_end25-crypto_pwhash_primitive
	.cfi_endproc
                                        # -- End function
	.type	.L.str,@object                  # @.str
	.section	.rodata.str1.1,"aMS",@progbits,1
.L.str:
	.asciz	"$argon2id$"
	.size	.L.str, 11

	.type	.L.str.1,@object                # @.str.1
.L.str.1:
	.asciz	"$argon2i$"
	.size	.L.str.1, 10

	.type	.L.str.2,@object                # @.str.2
.L.str.2:
	.asciz	"argon2id,argon2i"
	.size	.L.str.2, 17

	.section	".note.GNU-stack","",@progbits
	.addrsig