	.file	"crypto_box_easy.c"
	.text
	.globl	crypto_box_detached_afternm     # -- Begin function crypto_box_detached_afternm
	.p2align	4
	.type	crypto_box_detached_afternm,@function
crypto_box_detached_afternm:            # @crypto_box_detached_afternm
.Lfunc_begin0:
	.file	0 "/home/leizhenyuu/opt/Anonymous_Repo/libsodium_o2_attr_inline/src/libsodium" "crypto_box_easy.c" md5 0xee3f77c2556c97dc64ca8af053f8fce4
	.cfi_startproc
# %bb.0:
	#DEBUG_VALUE: crypto_box_detached_afternm:c <- $rdi
	#DEBUG_VALUE: crypto_box_detached_afternm:mac <- $rsi
	#DEBUG_VALUE: crypto_box_detached_afternm:m <- $rdx
	#DEBUG_VALUE: crypto_box_detached_afternm:mlen <- $rcx
	#DEBUG_VALUE: crypto_box_detached_afternm:n <- $r8
	#DEBUG_VALUE: crypto_box_detached_afternm:k <- $r9
	.file	1 "crypto_box" "crypto_box_easy.c"
	.loc	1 17 12 prologue_end            # crypto_box/crypto_box_easy.c:17:12
	jmp	crypto_secretbox_detached@PLT   # TAILCALL
.Ltmp0:
.Lfunc_end0:
	.size	crypto_box_detached_afternm, .Lfunc_end0-crypto_box_detached_afternm
	.cfi_endproc
	.file	2 "./include/sodium" "crypto_secretbox.h"
                                        # -- End function
	.globl	crypto_box_detached             # -- Begin function crypto_box_detached
	.p2align	4
	.type	crypto_box_detached,@function
crypto_box_detached:                    # @crypto_box_detached
.Lfunc_begin1:
	.loc	1 25 0                          # crypto_box/crypto_box_easy.c:25:0
	.cfi_startproc
# %bb.0:
	#DEBUG_VALUE: crypto_box_detached:c <- $rdi
	#DEBUG_VALUE: crypto_box_detached:mac <- $rsi
	#DEBUG_VALUE: crypto_box_detached:m <- $rdx
	#DEBUG_VALUE: crypto_box_detached:mlen <- $rcx
	#DEBUG_VALUE: crypto_box_detached:n <- $r8
	#DEBUG_VALUE: crypto_box_detached:pk <- $r9
	pushq	%rbp
	.cfi_def_cfa_offset 16
	pushq	%r15
	.cfi_def_cfa_offset 24
	pushq	%r14
	.cfi_def_cfa_offset 32
	pushq	%r13
	.cfi_def_cfa_offset 40
	pushq	%r12
	.cfi_def_cfa_offset 48
	pushq	%rbx
	.cfi_def_cfa_offset 56
	subq	$40, %rsp
	.cfi_def_cfa_offset 96
	.cfi_offset %rbx, -56
	.cfi_offset %r12, -48
	.cfi_offset %r13, -40
	.cfi_offset %r14, -32
	.cfi_offset %r15, -24
	.cfi_offset %rbp, -16
.Ltmp1:
	#DEBUG_VALUE: crypto_box_detached:sk <- [DW_OP_plus_uconst 96] [$rsp+0]
	movq	%r8, %rbx
	movq	%rcx, %r14
	movq	%rdx, %r15
	movq	%rsi, %r12
	movq	%rdi, %r13
	movq	96(%rsp), %rdx
.Ltmp2:
	#DEBUG_VALUE: crypto_box_detached:m <- $r15
	movq	%fs:40, %rax
	movq	%rax, 32(%rsp)
	movq	%rsp, %rdi
.Ltmp3:
	#DEBUG_VALUE: crypto_box_detached:c <- $r13
	.loc	1 30 9 prologue_end             # crypto_box/crypto_box_easy.c:30:9
	movq	%r9, %rsi
.Ltmp4:
	#DEBUG_VALUE: crypto_box_detached:mac <- $r12
	callq	crypto_box_beforenm@PLT
.Ltmp5:
	#DEBUG_VALUE: crypto_box_detached:pk <- [DW_OP_LLVM_entry_value 1] $r9
	#DEBUG_VALUE: crypto_box_detached:n <- $rbx
	#DEBUG_VALUE: crypto_box_detached:mlen <- $r14
	movl	%eax, %ecx
	movl	$-1, %eax
	.loc	1 30 40 is_stmt 0               # crypto_box/crypto_box_easy.c:30:40
	testl	%ecx, %ecx
	jne	.LBB1_2
.Ltmp6:
# %bb.1:
	#DEBUG_VALUE: crypto_box_detached:c <- $r13
	#DEBUG_VALUE: crypto_box_detached:mac <- $r12
	#DEBUG_VALUE: crypto_box_detached:m <- $r15
	#DEBUG_VALUE: crypto_box_detached:mlen <- $r14
	#DEBUG_VALUE: crypto_box_detached:n <- $rbx
	#DEBUG_VALUE: crypto_box_detached:pk <- [DW_OP_LLVM_entry_value 1] $r9
	#DEBUG_VALUE: crypto_box_detached:sk <- [DW_OP_plus_uconst 96] [$rsp+0]
	#DEBUG_VALUE: crypto_box_detached_afternm:c <- $r13
	#DEBUG_VALUE: crypto_box_detached_afternm:mac <- $r12
	#DEBUG_VALUE: crypto_box_detached_afternm:m <- $r15
	#DEBUG_VALUE: crypto_box_detached_afternm:mlen <- $r14
	#DEBUG_VALUE: crypto_box_detached_afternm:n <- $rbx
	#DEBUG_VALUE: crypto_box_detached_afternm:k <- $rsp
	.loc	1 0 40                          # crypto_box/crypto_box_easy.c:0:40
	movq	%rsp, %rbp
.Ltmp7:
	.loc	1 17 12 is_stmt 1               # crypto_box/crypto_box_easy.c:17:12 @[ crypto_box/crypto_box_easy.c:33:11 ]
	movq	%r13, %rdi
	movq	%r12, %rsi
	movq	%r15, %rdx
	movq	%r14, %rcx
	movq	%rbx, %r8
	movq	%rbp, %r9
	callq	crypto_secretbox_detached@PLT
.Ltmp8:
	movl	%eax, %ebx
.Ltmp9:
	#DEBUG_VALUE: crypto_box_detached:n <- [DW_OP_LLVM_entry_value 1] $r8
	#DEBUG_VALUE: crypto_box_detached:ret <- $ebx
	.loc	1 34 5                          # crypto_box/crypto_box_easy.c:34:5
	movl	$32, %esi
	movq	%rbp, %rdi
	callq	sodium_memzero@PLT
.Ltmp10:
	.loc	1 0 5 is_stmt 0                 # crypto_box/crypto_box_easy.c:0:5
	movl	%ebx, %eax
.Ltmp11:
.LBB1_2:
	#DEBUG_VALUE: crypto_box_detached:c <- $r13
	#DEBUG_VALUE: crypto_box_detached:mac <- $r12
	#DEBUG_VALUE: crypto_box_detached:m <- $r15
	#DEBUG_VALUE: crypto_box_detached:mlen <- $r14
	#DEBUG_VALUE: crypto_box_detached:n <- [DW_OP_LLVM_entry_value 1] $r8
	#DEBUG_VALUE: crypto_box_detached:pk <- [DW_OP_LLVM_entry_value 1] $r9
	#DEBUG_VALUE: crypto_box_detached:sk <- [DW_OP_plus_uconst 96] [$rsp+0]
	.loc	1 37 1 is_stmt 1                # crypto_box/crypto_box_easy.c:37:1
	movq	%fs:40, %rcx
	cmpq	32(%rsp), %rcx
	jne	.LBB1_4
.Ltmp12:
# %bb.3:                                # %SP_return
	#DEBUG_VALUE: crypto_box_detached:c <- $r13
	#DEBUG_VALUE: crypto_box_detached:mac <- $r12
	#DEBUG_VALUE: crypto_box_detached:m <- $r15
	#DEBUG_VALUE: crypto_box_detached:mlen <- $r14
	#DEBUG_VALUE: crypto_box_detached:n <- [DW_OP_LLVM_entry_value 1] $r8
	#DEBUG_VALUE: crypto_box_detached:pk <- [DW_OP_LLVM_entry_value 1] $r9
	#DEBUG_VALUE: crypto_box_detached:sk <- [DW_OP_plus_uconst 96] [$rsp+0]
	.loc	1 37 1 epilogue_begin is_stmt 0 # crypto_box/crypto_box_easy.c:37:1
	addq	$40, %rsp
	.cfi_def_cfa_offset 56
	popq	%rbx
	.cfi_def_cfa_offset 48
	popq	%r12
.Ltmp13:
	#DEBUG_VALUE: crypto_box_detached:mac <- [DW_OP_LLVM_entry_value 1] $rsi
	.cfi_def_cfa_offset 40
	popq	%r13
.Ltmp14:
	#DEBUG_VALUE: crypto_box_detached:c <- [DW_OP_LLVM_entry_value 1] $rdi
	.cfi_def_cfa_offset 32
	popq	%r14
.Ltmp15:
	#DEBUG_VALUE: crypto_box_detached:mlen <- [DW_OP_LLVM_entry_value 1] $rcx
	.cfi_def_cfa_offset 24
	popq	%r15
.Ltmp16:
	#DEBUG_VALUE: crypto_box_detached:m <- [DW_OP_LLVM_entry_value 1] $rdx
	.cfi_def_cfa_offset 16
	popq	%rbp
	.cfi_def_cfa_offset 8
	retq
.Ltmp17:
.LBB1_4:                                # %CallStackCheckFailBlk
	.cfi_def_cfa_offset 96
	#DEBUG_VALUE: crypto_box_detached:c <- $r13
	#DEBUG_VALUE: crypto_box_detached:mac <- $r12
	#DEBUG_VALUE: crypto_box_detached:m <- $r15
	#DEBUG_VALUE: crypto_box_detached:mlen <- $r14
	#DEBUG_VALUE: crypto_box_detached:n <- [DW_OP_LLVM_entry_value 1] $r8
	#DEBUG_VALUE: crypto_box_detached:pk <- [DW_OP_LLVM_entry_value 1] $r9
	#DEBUG_VALUE: crypto_box_detached:sk <- [DW_OP_plus_uconst 96] [$rsp+0]
	.loc	1 0 0                           # crypto_box/crypto_box_easy.c:0
	callq	__stack_chk_fail@PLT
.Ltmp18:
.Lfunc_end1:
	.size	crypto_box_detached, .Lfunc_end1-crypto_box_detached
	.cfi_endproc
	.file	3 "./include/sodium" "crypto_box.h"
	.file	4 "./include/sodium" "utils.h"
	.file	5 "/home/leizhenyuu/opt/Anonymous_Repo" "llvm-project/build/lib/clang/21/include/__stddef_size_t.h"
                                        # -- End function
	.globl	crypto_box_easy_afternm         # -- Begin function crypto_box_easy_afternm
	.p2align	4
	.type	crypto_box_easy_afternm,@function
crypto_box_easy_afternm:                # @crypto_box_easy_afternm
.Lfunc_begin2:
	.loc	1 43 0 is_stmt 1                # crypto_box/crypto_box_easy.c:43:0
	.cfi_startproc
# %bb.0:
	#DEBUG_VALUE: crypto_box_easy_afternm:c <- $rdi
	#DEBUG_VALUE: crypto_box_easy_afternm:m <- $rsi
	#DEBUG_VALUE: crypto_box_easy_afternm:mlen <- $rdx
	#DEBUG_VALUE: crypto_box_easy_afternm:n <- $rcx
	#DEBUG_VALUE: crypto_box_easy_afternm:k <- $r8
	movq	%r8, %r9
	movq	%rcx, %r8
.Ltmp19:
	#DEBUG_VALUE: crypto_box_easy_afternm:k <- $r9
	movq	%rdx, %rcx
.Ltmp20:
	#DEBUG_VALUE: crypto_box_easy_afternm:n <- $r8
	.loc	1 44 14 prologue_end            # crypto_box/crypto_box_easy.c:44:14
	cmpq	$-16, %rdx
	jae	.LBB2_1
.Ltmp21:
# %bb.2:
	#DEBUG_VALUE: crypto_box_easy_afternm:c <- $rdi
	#DEBUG_VALUE: crypto_box_easy_afternm:m <- $rsi
	#DEBUG_VALUE: crypto_box_easy_afternm:mlen <- $rcx
	#DEBUG_VALUE: crypto_box_easy_afternm:n <- $r8
	#DEBUG_VALUE: crypto_box_easy_afternm:k <- $r9
	.loc	1 0 14 is_stmt 0                # crypto_box/crypto_box_easy.c:0:14
	movq	%rsi, %rdx
	movq	%rdi, %rsi
.Ltmp22:
	#DEBUG_VALUE: crypto_box_easy_afternm:m <- $rdx
	.loc	1 47 42 is_stmt 1               # crypto_box/crypto_box_easy.c:47:42
	addq	$16, %rdi
.Ltmp23:
	#DEBUG_VALUE: crypto_box_easy_afternm:c <- $rsi
	#DEBUG_VALUE: crypto_box_detached_afternm:c <- $rdi
	#DEBUG_VALUE: crypto_box_detached_afternm:mac <- $rsi
	#DEBUG_VALUE: crypto_box_detached_afternm:m <- $rdx
	#DEBUG_VALUE: crypto_box_detached_afternm:mlen <- $rcx
	#DEBUG_VALUE: crypto_box_detached_afternm:n <- $r8
	#DEBUG_VALUE: crypto_box_detached_afternm:k <- $r9
	.loc	1 17 12                         # crypto_box/crypto_box_easy.c:17:12 @[ crypto_box/crypto_box_easy.c:47:12 ]
	jmp	crypto_secretbox_detached@PLT   # TAILCALL
.Ltmp24:
.LBB2_1:
	#DEBUG_VALUE: crypto_box_easy_afternm:c <- $rdi
	#DEBUG_VALUE: crypto_box_easy_afternm:m <- $rsi
	#DEBUG_VALUE: crypto_box_easy_afternm:mlen <- $rcx
	#DEBUG_VALUE: crypto_box_easy_afternm:n <- $r8
	#DEBUG_VALUE: crypto_box_easy_afternm:k <- $r9
	pushq	%rax
	.cfi_def_cfa_offset 16
.Ltmp25:
	.loc	1 45 9                          # crypto_box/crypto_box_easy.c:45:9
	callq	sodium_misuse@PLT
.Ltmp26:
	#DEBUG_VALUE: crypto_box_easy_afternm:k <- [DW_OP_LLVM_entry_value 1] $r8
	#DEBUG_VALUE: crypto_box_easy_afternm:c <- [DW_OP_LLVM_entry_value 1] $rdi
	#DEBUG_VALUE: crypto_box_easy_afternm:m <- [DW_OP_LLVM_entry_value 1] $rsi
	#DEBUG_VALUE: crypto_box_easy_afternm:mlen <- [DW_OP_LLVM_entry_value 1] $rdx
	#DEBUG_VALUE: crypto_box_easy_afternm:n <- [DW_OP_LLVM_entry_value 1] $rcx
.Lfunc_end2:
	.size	crypto_box_easy_afternm, .Lfunc_end2-crypto_box_easy_afternm
	.cfi_endproc
	.file	6 "./include/sodium" "core.h"
                                        # -- End function
	.globl	crypto_box_easy                 # -- Begin function crypto_box_easy
	.p2align	4
	.type	crypto_box_easy,@function
crypto_box_easy:                        # @crypto_box_easy
.Lfunc_begin3:
	.loc	1 55 0                          # crypto_box/crypto_box_easy.c:55:0
	.cfi_startproc
# %bb.0:
	#DEBUG_VALUE: crypto_box_easy:c <- $rdi
	#DEBUG_VALUE: crypto_box_easy:m <- $rsi
	#DEBUG_VALUE: crypto_box_easy:mlen <- $rdx
	#DEBUG_VALUE: crypto_box_easy:n <- $rcx
	#DEBUG_VALUE: crypto_box_easy:pk <- $r8
	#DEBUG_VALUE: crypto_box_easy:sk <- $r9
	pushq	%r15
	.cfi_def_cfa_offset 16
	pushq	%r14
	.cfi_def_cfa_offset 24
	pushq	%r13
	.cfi_def_cfa_offset 32
	pushq	%r12
	.cfi_def_cfa_offset 40
	pushq	%rbx
	.cfi_def_cfa_offset 48
	subq	$48, %rsp
	.cfi_def_cfa_offset 96
	.cfi_offset %rbx, -48
	.cfi_offset %r12, -40
	.cfi_offset %r13, -32
	.cfi_offset %r14, -24
	.cfi_offset %r15, -16
	movq	%fs:40, %rax
	movq	%rax, 40(%rsp)
.Ltmp27:
	.loc	1 56 14 prologue_end            # crypto_box/crypto_box_easy.c:56:14
	cmpq	$-16, %rdx
	jae	.LBB3_5
.Ltmp28:
# %bb.1:
	#DEBUG_VALUE: crypto_box_easy:c <- $rdi
	#DEBUG_VALUE: crypto_box_easy:m <- $rsi
	#DEBUG_VALUE: crypto_box_easy:mlen <- $rdx
	#DEBUG_VALUE: crypto_box_easy:n <- $rcx
	#DEBUG_VALUE: crypto_box_easy:pk <- $r8
	#DEBUG_VALUE: crypto_box_easy:sk <- $r9
	.loc	1 0 14 is_stmt 0                # crypto_box/crypto_box_easy.c:0:14
	movq	%rcx, %rbx
	movq	%rdx, %r14
	movq	%rsi, %r15
	movq	%rdi, %r12
.Ltmp29:
	#DEBUG_VALUE: crypto_box_detached:k <- [DW_OP_deref] $rsp
	#DEBUG_VALUE: crypto_box_detached:c <- [DW_OP_plus_uconst 16, DW_OP_stack_value] $r12
	#DEBUG_VALUE: crypto_box_detached:mac <- $r12
	#DEBUG_VALUE: crypto_box_detached:m <- $r15
	#DEBUG_VALUE: crypto_box_detached:mlen <- $r14
	#DEBUG_VALUE: crypto_box_detached:n <- $rbx
	#DEBUG_VALUE: crypto_box_detached:pk <- $r8
	#DEBUG_VALUE: crypto_box_detached:sk <- $r9
	movq	%rsp, %rdi
.Ltmp30:
	#DEBUG_VALUE: crypto_box_easy:c <- $r12
	.loc	1 30 9 is_stmt 1                # crypto_box/crypto_box_easy.c:30:9 @[ crypto_box/crypto_box_easy.c:59:12 ]
	movq	%r8, %rsi
.Ltmp31:
	#DEBUG_VALUE: crypto_box_easy:m <- $r15
	movq	%r9, %rdx
.Ltmp32:
	#DEBUG_VALUE: crypto_box_easy:mlen <- $r14
	callq	crypto_box_beforenm@PLT
.Ltmp33:
	#DEBUG_VALUE: crypto_box_easy:sk <- [DW_OP_LLVM_entry_value 1] $r9
	#DEBUG_VALUE: crypto_box_easy:pk <- [DW_OP_LLVM_entry_value 1] $r8
	#DEBUG_VALUE: crypto_box_easy:n <- $rbx
	movl	%eax, %ecx
	movl	$-1, %eax
	.loc	1 30 40 is_stmt 0               # crypto_box/crypto_box_easy.c:30:40 @[ crypto_box/crypto_box_easy.c:59:12 ]
	testl	%ecx, %ecx
	jne	.LBB3_3
.Ltmp34:
# %bb.2:
	#DEBUG_VALUE: crypto_box_easy:c <- $r12
	#DEBUG_VALUE: crypto_box_easy:m <- $r15
	#DEBUG_VALUE: crypto_box_easy:mlen <- $r14
	#DEBUG_VALUE: crypto_box_easy:n <- $rbx
	#DEBUG_VALUE: crypto_box_easy:pk <- [DW_OP_LLVM_entry_value 1] $r8
	#DEBUG_VALUE: crypto_box_easy:sk <- [DW_OP_LLVM_entry_value 1] $r9
	#DEBUG_VALUE: crypto_box_detached:k <- [DW_OP_deref] $rsp
	#DEBUG_VALUE: crypto_box_detached:c <- [DW_OP_plus_uconst 16, DW_OP_stack_value] $r12
	#DEBUG_VALUE: crypto_box_detached:mac <- $r12
	#DEBUG_VALUE: crypto_box_detached:m <- $r15
	#DEBUG_VALUE: crypto_box_detached:mlen <- $r14
	#DEBUG_VALUE: crypto_box_detached:n <- $rbx
	.loc	1 59 34 is_stmt 1               # crypto_box/crypto_box_easy.c:59:34
	leaq	16(%r12), %rdi
.Ltmp35:
	#DEBUG_VALUE: crypto_box_detached:c <- $rdi
	#DEBUG_VALUE: crypto_box_detached_afternm:c <- $rdi
	#DEBUG_VALUE: crypto_box_detached_afternm:mac <- $r12
	#DEBUG_VALUE: crypto_box_detached_afternm:m <- $r15
	#DEBUG_VALUE: crypto_box_detached_afternm:mlen <- $r14
	#DEBUG_VALUE: crypto_box_detached_afternm:n <- $rbx
	#DEBUG_VALUE: crypto_box_detached_afternm:k <- $rsp
	.loc	1 0 34 is_stmt 0                # crypto_box/crypto_box_easy.c:0:34
	movq	%rsp, %r13
.Ltmp36:
	.loc	1 17 12 is_stmt 1               # crypto_box/crypto_box_easy.c:17:12 @[ crypto_box/crypto_box_easy.c:33:11 @[ crypto_box/crypto_box_easy.c:59:12 ] ]
	movq	%r12, %rsi
	movq	%r15, %rdx
	movq	%r14, %rcx
	movq	%rbx, %r8
	movq	%r13, %r9
	callq	crypto_secretbox_detached@PLT
.Ltmp37:
	movl	%eax, %ebx
.Ltmp38:
	#DEBUG_VALUE: crypto_box_easy:n <- [DW_OP_LLVM_entry_value 1] $rcx
	#DEBUG_VALUE: crypto_box_detached:ret <- $ebx
	.loc	1 34 5                          # crypto_box/crypto_box_easy.c:34:5 @[ crypto_box/crypto_box_easy.c:59:12 ]
	movl	$32, %esi
	movq	%r13, %rdi
	callq	sodium_memzero@PLT
.Ltmp39:
	.loc	1 0 5 is_stmt 0                 # crypto_box/crypto_box_easy.c:0:5
	movl	%ebx, %eax
.Ltmp40:
.LBB3_3:                                # %crypto_box_detached.exit
	#DEBUG_VALUE: crypto_box_easy:c <- $r12
	#DEBUG_VALUE: crypto_box_easy:m <- $r15
	#DEBUG_VALUE: crypto_box_easy:mlen <- $r14
	#DEBUG_VALUE: crypto_box_easy:n <- [DW_OP_LLVM_entry_value 1] $rcx
	#DEBUG_VALUE: crypto_box_easy:pk <- [DW_OP_LLVM_entry_value 1] $r8
	#DEBUG_VALUE: crypto_box_easy:sk <- [DW_OP_LLVM_entry_value 1] $r9
	.loc	1 59 5 is_stmt 1                # crypto_box/crypto_box_easy.c:59:5
	movq	%fs:40, %rcx
	cmpq	40(%rsp), %rcx
	jne	.LBB3_4
.Ltmp41:
# %bb.6:                                # %SP_return
	#DEBUG_VALUE: crypto_box_easy:c <- $r12
	#DEBUG_VALUE: crypto_box_easy:m <- $r15
	#DEBUG_VALUE: crypto_box_easy:mlen <- $r14
	#DEBUG_VALUE: crypto_box_easy:n <- [DW_OP_LLVM_entry_value 1] $rcx
	#DEBUG_VALUE: crypto_box_easy:pk <- [DW_OP_LLVM_entry_value 1] $r8
	#DEBUG_VALUE: crypto_box_easy:sk <- [DW_OP_LLVM_entry_value 1] $r9
	.loc	1 59 5 epilogue_begin is_stmt 0 # crypto_box/crypto_box_easy.c:59:5
	addq	$48, %rsp
	.cfi_def_cfa_offset 48
	popq	%rbx
	.cfi_def_cfa_offset 40
	popq	%r12
.Ltmp42:
	#DEBUG_VALUE: crypto_box_easy:c <- [DW_OP_LLVM_entry_value 1] $rdi
	.cfi_def_cfa_offset 32
	popq	%r13
	.cfi_def_cfa_offset 24
	popq	%r14
.Ltmp43:
	#DEBUG_VALUE: crypto_box_easy:mlen <- [DW_OP_LLVM_entry_value 1] $rdx
	.cfi_def_cfa_offset 16
	popq	%r15
.Ltmp44:
	#DEBUG_VALUE: crypto_box_easy:m <- [DW_OP_LLVM_entry_value 1] $rsi
	.cfi_def_cfa_offset 8
	retq
.Ltmp45:
.LBB3_5:
	.cfi_def_cfa_offset 96
	#DEBUG_VALUE: crypto_box_easy:c <- $rdi
	#DEBUG_VALUE: crypto_box_easy:m <- $rsi
	#DEBUG_VALUE: crypto_box_easy:mlen <- $rdx
	#DEBUG_VALUE: crypto_box_easy:n <- $rcx
	#DEBUG_VALUE: crypto_box_easy:pk <- $r8
	#DEBUG_VALUE: crypto_box_easy:sk <- $r9
	.loc	1 57 9 is_stmt 1                # crypto_box/crypto_box_easy.c:57:9
	callq	sodium_misuse@PLT
.Ltmp46:
	#DEBUG_VALUE: crypto_box_easy:sk <- [DW_OP_LLVM_entry_value 1] $r9
	#DEBUG_VALUE: crypto_box_easy:pk <- [DW_OP_LLVM_entry_value 1] $r8
	#DEBUG_VALUE: crypto_box_easy:n <- [DW_OP_LLVM_entry_value 1] $rcx
	#DEBUG_VALUE: crypto_box_easy:mlen <- [DW_OP_LLVM_entry_value 1] $rdx
	#DEBUG_VALUE: crypto_box_easy:m <- [DW_OP_LLVM_entry_value 1] $rsi
	#DEBUG_VALUE: crypto_box_easy:c <- [DW_OP_LLVM_entry_value 1] $rdi
.LBB3_4:                                # %CallStackCheckFailBlk
	#DEBUG_VALUE: crypto_box_easy:c <- $r12
	#DEBUG_VALUE: crypto_box_easy:m <- $r15
	#DEBUG_VALUE: crypto_box_easy:mlen <- $r14
	#DEBUG_VALUE: crypto_box_easy:n <- [DW_OP_LLVM_entry_value 1] $rcx
	#DEBUG_VALUE: crypto_box_easy:pk <- [DW_OP_LLVM_entry_value 1] $r8
	#DEBUG_VALUE: crypto_box_easy:sk <- [DW_OP_LLVM_entry_value 1] $r9
	.loc	1 0 0 is_stmt 0                 # crypto_box/crypto_box_easy.c:0
	callq	__stack_chk_fail@PLT
.Ltmp47:
.Lfunc_end3:
	.size	crypto_box_easy, .Lfunc_end3-crypto_box_easy
	.cfi_endproc
                                        # -- End function
	.globl	crypto_box_open_detached_afternm # -- Begin function crypto_box_open_detached_afternm
	.p2align	4
	.type	crypto_box_open_detached_afternm,@function
crypto_box_open_detached_afternm:       # @crypto_box_open_detached_afternm
.Lfunc_begin4:
	.cfi_startproc
# %bb.0:
	#DEBUG_VALUE: crypto_box_open_detached_afternm:m <- $rdi
	#DEBUG_VALUE: crypto_box_open_detached_afternm:c <- $rsi
	#DEBUG_VALUE: crypto_box_open_detached_afternm:mac <- $rdx
	#DEBUG_VALUE: crypto_box_open_detached_afternm:clen <- $rcx
	#DEBUG_VALUE: crypto_box_open_detached_afternm:n <- $r8
	#DEBUG_VALUE: crypto_box_open_detached_afternm:k <- $r9
	.loc	1 70 12 prologue_end is_stmt 1  # crypto_box/crypto_box_easy.c:70:12
	jmp	crypto_secretbox_open_detached@PLT # TAILCALL
.Ltmp48:
.Lfunc_end4:
	.size	crypto_box_open_detached_afternm, .Lfunc_end4-crypto_box_open_detached_afternm
	.cfi_endproc
                                        # -- End function
	.globl	crypto_box_open_detached        # -- Begin function crypto_box_open_detached
	.p2align	4
	.type	crypto_box_open_detached,@function
crypto_box_open_detached:               # @crypto_box_open_detached
.Lfunc_begin5:
	.loc	1 78 0                          # crypto_box/crypto_box_easy.c:78:0
	.cfi_startproc
# %bb.0:
	#DEBUG_VALUE: crypto_box_open_detached:m <- $rdi
	#DEBUG_VALUE: crypto_box_open_detached:c <- $rsi
	#DEBUG_VALUE: crypto_box_open_detached:mac <- $rdx
	#DEBUG_VALUE: crypto_box_open_detached:clen <- $rcx
	#DEBUG_VALUE: crypto_box_open_detached:n <- $r8
	#DEBUG_VALUE: crypto_box_open_detached:pk <- $r9
	pushq	%rbp
	.cfi_def_cfa_offset 16
	pushq	%r15
	.cfi_def_cfa_offset 24
	pushq	%r14
	.cfi_def_cfa_offset 32
	pushq	%r13
	.cfi_def_cfa_offset 40
	pushq	%r12
	.cfi_def_cfa_offset 48
	pushq	%rbx
	.cfi_def_cfa_offset 56
	subq	$40, %rsp
	.cfi_def_cfa_offset 96
	.cfi_offset %rbx, -56
	.cfi_offset %r12, -48
	.cfi_offset %r13, -40
	.cfi_offset %r14, -32
	.cfi_offset %r15, -24
	.cfi_offset %rbp, -16
.Ltmp49:
	#DEBUG_VALUE: crypto_box_open_detached:sk <- [DW_OP_plus_uconst 96] [$rsp+0]
	movq	%r8, %rbx
	movq	%rcx, %r14
	movq	%rdx, %r15
	movq	%rsi, %r12
	movq	%rdi, %r13
	movq	96(%rsp), %rdx
.Ltmp50:
	#DEBUG_VALUE: crypto_box_open_detached:mac <- $r15
	movq	%fs:40, %rax
	movq	%rax, 32(%rsp)
	movq	%rsp, %rdi
.Ltmp51:
	#DEBUG_VALUE: crypto_box_open_detached:m <- $r13
	.loc	1 82 9 prologue_end             # crypto_box/crypto_box_easy.c:82:9
	movq	%r9, %rsi
.Ltmp52:
	#DEBUG_VALUE: crypto_box_open_detached:c <- $r12
	callq	crypto_box_beforenm@PLT
.Ltmp53:
	#DEBUG_VALUE: crypto_box_open_detached:pk <- [DW_OP_LLVM_entry_value 1] $r9
	#DEBUG_VALUE: crypto_box_open_detached:n <- $rbx
	#DEBUG_VALUE: crypto_box_open_detached:clen <- $r14
	movl	%eax, %ecx
	movl	$-1, %eax
	.loc	1 82 40 is_stmt 0               # crypto_box/crypto_box_easy.c:82:40
	testl	%ecx, %ecx
	jne	.LBB5_2
.Ltmp54:
# %bb.1:
	#DEBUG_VALUE: crypto_box_open_detached:m <- $r13
	#DEBUG_VALUE: crypto_box_open_detached:c <- $r12
	#DEBUG_VALUE: crypto_box_open_detached:mac <- $r15
	#DEBUG_VALUE: crypto_box_open_detached:clen <- $r14
	#DEBUG_VALUE: crypto_box_open_detached:n <- $rbx
	#DEBUG_VALUE: crypto_box_open_detached:pk <- [DW_OP_LLVM_entry_value 1] $r9
	#DEBUG_VALUE: crypto_box_open_detached:sk <- [DW_OP_plus_uconst 96] [$rsp+0]
	#DEBUG_VALUE: crypto_box_open_detached_afternm:m <- $r13
	#DEBUG_VALUE: crypto_box_open_detached_afternm:c <- $r12
	#DEBUG_VALUE: crypto_box_open_detached_afternm:mac <- $r15
	#DEBUG_VALUE: crypto_box_open_detached_afternm:clen <- $r14
	#DEBUG_VALUE: crypto_box_open_detached_afternm:n <- $rbx
	#DEBUG_VALUE: crypto_box_open_detached_afternm:k <- $rsp
	.loc	1 0 40                          # crypto_box/crypto_box_easy.c:0:40
	movq	%rsp, %rbp
.Ltmp55:
	.loc	1 70 12 is_stmt 1               # crypto_box/crypto_box_easy.c:70:12 @[ crypto_box/crypto_box_easy.c:85:11 ]
	movq	%r13, %rdi
	movq	%r12, %rsi
	movq	%r15, %rdx
	movq	%r14, %rcx
	movq	%rbx, %r8
	movq	%rbp, %r9
	callq	crypto_secretbox_open_detached@PLT
.Ltmp56:
	movl	%eax, %ebx
.Ltmp57:
	#DEBUG_VALUE: crypto_box_open_detached:n <- [DW_OP_LLVM_entry_value 1] $r8
	#DEBUG_VALUE: crypto_box_open_detached:ret <- $ebx
	.loc	1 86 5                          # crypto_box/crypto_box_easy.c:86:5
	movl	$32, %esi
	movq	%rbp, %rdi
	callq	sodium_memzero@PLT
.Ltmp58:
	.loc	1 0 5 is_stmt 0                 # crypto_box/crypto_box_easy.c:0:5
	movl	%ebx, %eax
.Ltmp59:
.LBB5_2:
	#DEBUG_VALUE: crypto_box_open_detached:m <- $r13
	#DEBUG_VALUE: crypto_box_open_detached:c <- $r12
	#DEBUG_VALUE: crypto_box_open_detached:mac <- $r15
	#DEBUG_VALUE: crypto_box_open_detached:clen <- $r14
	#DEBUG_VALUE: crypto_box_open_detached:n <- [DW_OP_LLVM_entry_value 1] $r8
	#DEBUG_VALUE: crypto_box_open_detached:pk <- [DW_OP_LLVM_entry_value 1] $r9
	#DEBUG_VALUE: crypto_box_open_detached:sk <- [DW_OP_plus_uconst 96] [$rsp+0]
	.loc	1 89 1 is_stmt 1                # crypto_box/crypto_box_easy.c:89:1
	movq	%fs:40, %rcx
	cmpq	32(%rsp), %rcx
	jne	.LBB5_4
.Ltmp60:
# %bb.3:                                # %SP_return
	#DEBUG_VALUE: crypto_box_open_detached:m <- $r13
	#DEBUG_VALUE: crypto_box_open_detached:c <- $r12
	#DEBUG_VALUE: crypto_box_open_detached:mac <- $r15
	#DEBUG_VALUE: crypto_box_open_detached:clen <- $r14
	#DEBUG_VALUE: crypto_box_open_detached:n <- [DW_OP_LLVM_entry_value 1] $r8
	#DEBUG_VALUE: crypto_box_open_detached:pk <- [DW_OP_LLVM_entry_value 1] $r9
	#DEBUG_VALUE: crypto_box_open_detached:sk <- [DW_OP_plus_uconst 96] [$rsp+0]
	.loc	1 89 1 epilogue_begin is_stmt 0 # crypto_box/crypto_box_easy.c:89:1
	addq	$40, %rsp
	.cfi_def_cfa_offset 56
	popq	%rbx
	.cfi_def_cfa_offset 48
	popq	%r12
.Ltmp61:
	#DEBUG_VALUE: crypto_box_open_detached:c <- [DW_OP_LLVM_entry_value 1] $rsi
	.cfi_def_cfa_offset 40
	popq	%r13
.Ltmp62:
	#DEBUG_VALUE: crypto_box_open_detached:m <- [DW_OP_LLVM_entry_value 1] $rdi
	.cfi_def_cfa_offset 32
	popq	%r14
.Ltmp63:
	#DEBUG_VALUE: crypto_box_open_detached:clen <- [DW_OP_LLVM_entry_value 1] $rcx
	.cfi_def_cfa_offset 24
	popq	%r15
.Ltmp64:
	#DEBUG_VALUE: crypto_box_open_detached:mac <- [DW_OP_LLVM_entry_value 1] $rdx
	.cfi_def_cfa_offset 16
	popq	%rbp
	.cfi_def_cfa_offset 8
	retq
.Ltmp65:
.LBB5_4:                                # %CallStackCheckFailBlk
	.cfi_def_cfa_offset 96
	#DEBUG_VALUE: crypto_box_open_detached:m <- $r13
	#DEBUG_VALUE: crypto_box_open_detached:c <- $r12
	#DEBUG_VALUE: crypto_box_open_detached:mac <- $r15
	#DEBUG_VALUE: crypto_box_open_detached:clen <- $r14
	#DEBUG_VALUE: crypto_box_open_detached:n <- [DW_OP_LLVM_entry_value 1] $r8
	#DEBUG_VALUE: crypto_box_open_detached:pk <- [DW_OP_LLVM_entry_value 1] $r9
	#DEBUG_VALUE: crypto_box_open_detached:sk <- [DW_OP_plus_uconst 96] [$rsp+0]
	.loc	1 0 0                           # crypto_box/crypto_box_easy.c:0
	callq	__stack_chk_fail@PLT
.Ltmp66:
.Lfunc_end5:
	.size	crypto_box_open_detached, .Lfunc_end5-crypto_box_open_detached
	.cfi_endproc
                                        # -- End function
	.globl	crypto_box_open_easy_afternm    # -- Begin function crypto_box_open_easy_afternm
	.p2align	4
	.type	crypto_box_open_easy_afternm,@function
crypto_box_open_easy_afternm:           # @crypto_box_open_easy_afternm
.Lfunc_begin6:
	.loc	1 95 0 is_stmt 1                # crypto_box/crypto_box_easy.c:95:0
	.cfi_startproc
# %bb.0:
	#DEBUG_VALUE: crypto_box_open_easy_afternm:m <- $rdi
	#DEBUG_VALUE: crypto_box_open_easy_afternm:c <- $rsi
	#DEBUG_VALUE: crypto_box_open_easy_afternm:clen <- $rdx
	#DEBUG_VALUE: crypto_box_open_easy_afternm:n <- $rcx
	#DEBUG_VALUE: crypto_box_open_easy_afternm:k <- $r8
	movq	%r8, %r9
	movq	%rcx, %r8
.Ltmp67:
	#DEBUG_VALUE: crypto_box_open_easy_afternm:k <- $r9
	movq	%rdx, %rcx
.Ltmp68:
	#DEBUG_VALUE: crypto_box_open_easy_afternm:n <- $r8
	.loc	1 96 14 prologue_end            # crypto_box/crypto_box_easy.c:96:14
	cmpq	$16, %rdx
	jae	.LBB6_2
.Ltmp69:
# %bb.1:
	#DEBUG_VALUE: crypto_box_open_easy_afternm:m <- $rdi
	#DEBUG_VALUE: crypto_box_open_easy_afternm:c <- $rsi
	#DEBUG_VALUE: crypto_box_open_easy_afternm:clen <- $rdx
	#DEBUG_VALUE: crypto_box_open_easy_afternm:n <- $r8
	#DEBUG_VALUE: crypto_box_open_easy_afternm:k <- $r9
	.loc	1 102 1                         # crypto_box/crypto_box_easy.c:102:1
	movl	$-1, %eax
	retq
.Ltmp70:
.LBB6_2:
	#DEBUG_VALUE: crypto_box_open_easy_afternm:m <- $rdi
	#DEBUG_VALUE: crypto_box_open_easy_afternm:c <- $rsi
	#DEBUG_VALUE: crypto_box_open_easy_afternm:clen <- $rdx
	#DEBUG_VALUE: crypto_box_open_easy_afternm:n <- $r8
	#DEBUG_VALUE: crypto_box_open_easy_afternm:k <- $r9
	.loc	1 0 1 is_stmt 0                 # crypto_box/crypto_box_easy.c:0:1
	movq	%rsi, %rdx
.Ltmp71:
	#DEBUG_VALUE: crypto_box_open_easy_afternm:clen <- $rcx
	.loc	1 99 50 is_stmt 1               # crypto_box/crypto_box_easy.c:99:50
	addq	$16, %rsi
.Ltmp72:
	#DEBUG_VALUE: crypto_box_open_easy_afternm:c <- $rdx
	.loc	1 100 50                        # crypto_box/crypto_box_easy.c:100:50
	addq	$-16, %rcx
.Ltmp73:
	#DEBUG_VALUE: crypto_box_open_easy_afternm:clen <- [DW_OP_LLVM_entry_value 1] $rdx
	#DEBUG_VALUE: crypto_box_open_detached_afternm:clen <- $rcx
	#DEBUG_VALUE: crypto_box_open_detached_afternm:m <- $rdi
	#DEBUG_VALUE: crypto_box_open_detached_afternm:c <- $rsi
	#DEBUG_VALUE: crypto_box_open_detached_afternm:mac <- $rdx
	#DEBUG_VALUE: crypto_box_open_detached_afternm:n <- $r8
	#DEBUG_VALUE: crypto_box_open_detached_afternm:k <- $r9
	.loc	1 70 12                         # crypto_box/crypto_box_easy.c:70:12 @[ crypto_box/crypto_box_easy.c:99:12 ]
	jmp	crypto_secretbox_open_detached@PLT # TAILCALL
.Ltmp74:
.Lfunc_end6:
	.size	crypto_box_open_easy_afternm, .Lfunc_end6-crypto_box_open_easy_afternm
	.cfi_endproc
                                        # -- End function
	.globl	crypto_box_open_easy            # -- Begin function crypto_box_open_easy
	.p2align	4
	.type	crypto_box_open_easy,@function
crypto_box_open_easy:                   # @crypto_box_open_easy
.Lfunc_begin7:
	.loc	1 108 0                         # crypto_box/crypto_box_easy.c:108:0
	.cfi_startproc
# %bb.0:
	#DEBUG_VALUE: crypto_box_open_easy:m <- $rdi
	#DEBUG_VALUE: crypto_box_open_easy:c <- $rsi
	#DEBUG_VALUE: crypto_box_open_easy:clen <- $rdx
	#DEBUG_VALUE: crypto_box_open_easy:n <- $rcx
	#DEBUG_VALUE: crypto_box_open_easy:pk <- $r8
	#DEBUG_VALUE: crypto_box_open_easy:sk <- $r9
	pushq	%r15
	.cfi_def_cfa_offset 16
	pushq	%r14
	.cfi_def_cfa_offset 24
	pushq	%r13
	.cfi_def_cfa_offset 32
	pushq	%r12
	.cfi_def_cfa_offset 40
	pushq	%rbx
	.cfi_def_cfa_offset 48
	subq	$48, %rsp
	.cfi_def_cfa_offset 96
	.cfi_offset %rbx, -48
	.cfi_offset %r12, -40
	.cfi_offset %r13, -32
	.cfi_offset %r14, -24
	.cfi_offset %r15, -16
	movq	%fs:40, %rax
	movq	%rax, 40(%rsp)
	movl	$-1, %eax
.Ltmp75:
	.loc	1 109 14 prologue_end           # crypto_box/crypto_box_easy.c:109:14
	cmpq	$16, %rdx
	jb	.LBB7_3
.Ltmp76:
# %bb.1:
	#DEBUG_VALUE: crypto_box_open_easy:m <- $rdi
	#DEBUG_VALUE: crypto_box_open_easy:c <- $rsi
	#DEBUG_VALUE: crypto_box_open_easy:clen <- $rdx
	#DEBUG_VALUE: crypto_box_open_easy:n <- $rcx
	#DEBUG_VALUE: crypto_box_open_easy:pk <- $r8
	#DEBUG_VALUE: crypto_box_open_easy:sk <- $r9
	.loc	1 0 14 is_stmt 0                # crypto_box/crypto_box_easy.c:0:14
	movq	%rdx, %rbx
	movq	%rsi, %r14
.Ltmp77:
	#DEBUG_VALUE: crypto_box_open_detached:k <- [DW_OP_deref] $rsp
	#DEBUG_VALUE: crypto_box_open_detached:m <- $rdi
	#DEBUG_VALUE: crypto_box_open_detached:c <- [DW_OP_plus_uconst 16, DW_OP_stack_value] $r14
	#DEBUG_VALUE: crypto_box_open_detached:mac <- $r14
	#DEBUG_VALUE: crypto_box_open_detached:clen <- [DW_OP_constu 16, DW_OP_minus, DW_OP_stack_value] $rbx
	#DEBUG_VALUE: crypto_box_open_detached:n <- $rcx
	#DEBUG_VALUE: crypto_box_open_detached:pk <- $r8
	#DEBUG_VALUE: crypto_box_open_detached:sk <- $r9
	movq	%rdi, %r12
.Ltmp78:
	#DEBUG_VALUE: crypto_box_open_detached:m <- $r12
	#DEBUG_VALUE: crypto_box_open_easy:m <- $r12
	movq	%rcx, %r15
.Ltmp79:
	#DEBUG_VALUE: crypto_box_open_detached:n <- $r15
	#DEBUG_VALUE: crypto_box_open_easy:n <- $r15
	movq	%rsp, %rdi
.Ltmp80:
	.loc	1 82 9 is_stmt 1                # crypto_box/crypto_box_easy.c:82:9 @[ crypto_box/crypto_box_easy.c:112:12 ]
	movq	%r8, %rsi
.Ltmp81:
	#DEBUG_VALUE: crypto_box_open_easy:c <- $r14
	movq	%r9, %rdx
.Ltmp82:
	#DEBUG_VALUE: crypto_box_open_easy:clen <- $rbx
	callq	crypto_box_beforenm@PLT
.Ltmp83:
	#DEBUG_VALUE: crypto_box_open_easy:sk <- [DW_OP_LLVM_entry_value 1] $r9
	#DEBUG_VALUE: crypto_box_open_easy:pk <- [DW_OP_LLVM_entry_value 1] $r8
	movl	%eax, %ecx
	movl	$-1, %eax
	.loc	1 82 40 is_stmt 0               # crypto_box/crypto_box_easy.c:82:40 @[ crypto_box/crypto_box_easy.c:112:12 ]
	testl	%ecx, %ecx
	jne	.LBB7_3
.Ltmp84:
# %bb.2:
	#DEBUG_VALUE: crypto_box_open_easy:m <- $r12
	#DEBUG_VALUE: crypto_box_open_easy:c <- $r14
	#DEBUG_VALUE: crypto_box_open_easy:clen <- $rbx
	#DEBUG_VALUE: crypto_box_open_easy:n <- $r15
	#DEBUG_VALUE: crypto_box_open_easy:pk <- [DW_OP_LLVM_entry_value 1] $r8
	#DEBUG_VALUE: crypto_box_open_easy:sk <- [DW_OP_LLVM_entry_value 1] $r9
	#DEBUG_VALUE: crypto_box_open_detached:k <- [DW_OP_deref] $rsp
	#DEBUG_VALUE: crypto_box_open_detached:m <- $r12
	#DEBUG_VALUE: crypto_box_open_detached:c <- [DW_OP_plus_uconst 16, DW_OP_stack_value] $r14
	#DEBUG_VALUE: crypto_box_open_detached:mac <- $r14
	#DEBUG_VALUE: crypto_box_open_detached:clen <- [DW_OP_constu 16, DW_OP_minus, DW_OP_stack_value] $rbx
	#DEBUG_VALUE: crypto_box_open_detached:n <- $r15
	.loc	1 113 42 is_stmt 1              # crypto_box/crypto_box_easy.c:113:42
	addq	$-16, %rbx
.Ltmp85:
	#DEBUG_VALUE: crypto_box_open_easy:clen <- [DW_OP_LLVM_entry_value 1] $rdx
	#DEBUG_VALUE: crypto_box_open_detached:clen <- $rbx
	.loc	1 112 42                        # crypto_box/crypto_box_easy.c:112:42
	leaq	16(%r14), %rsi
.Ltmp86:
	#DEBUG_VALUE: crypto_box_open_detached:c <- $rsi
	#DEBUG_VALUE: crypto_box_open_detached_afternm:c <- $rsi
	#DEBUG_VALUE: crypto_box_open_detached_afternm:m <- $r12
	#DEBUG_VALUE: crypto_box_open_detached_afternm:mac <- $r14
	#DEBUG_VALUE: crypto_box_open_detached_afternm:clen <- $rbx
	#DEBUG_VALUE: crypto_box_open_detached_afternm:n <- $r15
	#DEBUG_VALUE: crypto_box_open_detached_afternm:k <- $rsp
	.loc	1 0 42 is_stmt 0                # crypto_box/crypto_box_easy.c:0:42
	movq	%rsp, %r13
.Ltmp87:
	.loc	1 70 12 is_stmt 1               # crypto_box/crypto_box_easy.c:70:12 @[ crypto_box/crypto_box_easy.c:85:11 @[ crypto_box/crypto_box_easy.c:112:12 ] ]
	movq	%r12, %rdi
	movq	%r14, %rdx
	movq	%rbx, %rcx
	movq	%r15, %r8
	movq	%r13, %r9
	callq	crypto_secretbox_open_detached@PLT
.Ltmp88:
	movl	%eax, %ebx
.Ltmp89:
	#DEBUG_VALUE: crypto_box_open_detached:ret <- $ebx
	.loc	1 86 5                          # crypto_box/crypto_box_easy.c:86:5 @[ crypto_box/crypto_box_easy.c:112:12 ]
	movl	$32, %esi
	movq	%r13, %rdi
	callq	sodium_memzero@PLT
.Ltmp90:
	.loc	1 0 5 is_stmt 0                 # crypto_box/crypto_box_easy.c:0:5
	movl	%ebx, %eax
.Ltmp91:
.LBB7_3:
	#DEBUG_VALUE: crypto_box_open_easy:m <- [DW_OP_LLVM_entry_value 1] $rdi
	#DEBUG_VALUE: crypto_box_open_easy:c <- [DW_OP_LLVM_entry_value 1] $rsi
	#DEBUG_VALUE: crypto_box_open_easy:clen <- [DW_OP_LLVM_entry_value 1] $rdx
	#DEBUG_VALUE: crypto_box_open_easy:n <- [DW_OP_LLVM_entry_value 1] $rcx
	#DEBUG_VALUE: crypto_box_open_easy:pk <- [DW_OP_LLVM_entry_value 1] $r8
	#DEBUG_VALUE: crypto_box_open_easy:sk <- [DW_OP_LLVM_entry_value 1] $r9
	.loc	1 115 1 is_stmt 1               # crypto_box/crypto_box_easy.c:115:1
	movq	%fs:40, %rcx
	cmpq	40(%rsp), %rcx
	jne	.LBB7_5
.Ltmp92:
# %bb.4:                                # %SP_return
	#DEBUG_VALUE: crypto_box_open_easy:m <- [DW_OP_LLVM_entry_value 1] $rdi
	#DEBUG_VALUE: crypto_box_open_easy:c <- [DW_OP_LLVM_entry_value 1] $rsi
	#DEBUG_VALUE: crypto_box_open_easy:clen <- [DW_OP_LLVM_entry_value 1] $rdx
	#DEBUG_VALUE: crypto_box_open_easy:n <- [DW_OP_LLVM_entry_value 1] $rcx
	#DEBUG_VALUE: crypto_box_open_easy:pk <- [DW_OP_LLVM_entry_value 1] $r8
	#DEBUG_VALUE: crypto_box_open_easy:sk <- [DW_OP_LLVM_entry_value 1] $r9
	.loc	1 115 1 epilogue_begin is_stmt 0 # crypto_box/crypto_box_easy.c:115:1
	addq	$48, %rsp
	.cfi_def_cfa_offset 48
	popq	%rbx
	.cfi_def_cfa_offset 40
	popq	%r12
	.cfi_def_cfa_offset 32
	popq	%r13
	.cfi_def_cfa_offset 24
	popq	%r14
	.cfi_def_cfa_offset 16
	popq	%r15
	.cfi_def_cfa_offset 8
	retq
.Ltmp93:
.LBB7_5:                                # %CallStackCheckFailBlk
	.cfi_def_cfa_offset 96
	#DEBUG_VALUE: crypto_box_open_easy:m <- [DW_OP_LLVM_entry_value 1] $rdi
	#DEBUG_VALUE: crypto_box_open_easy:c <- [DW_OP_LLVM_entry_value 1] $rsi
	#DEBUG_VALUE: crypto_box_open_easy:clen <- [DW_OP_LLVM_entry_value 1] $rdx
	#DEBUG_VALUE: crypto_box_open_easy:n <- [DW_OP_LLVM_entry_value 1] $rcx
	#DEBUG_VALUE: crypto_box_open_easy:pk <- [DW_OP_LLVM_entry_value 1] $r8
	#DEBUG_VALUE: crypto_box_open_easy:sk <- [DW_OP_LLVM_entry_value 1] $r9
	.loc	1 0 0                           # crypto_box/crypto_box_easy.c:0
	callq	__stack_chk_fail@PLT
.Ltmp94:
.Lfunc_end7:
	.size	crypto_box_open_easy, .Lfunc_end7-crypto_box_open_easy
	.cfi_endproc
                                        # -- End function
	.section	".note.GNU-stack","",@progbits
	.addrsig
	.addrsig_sym __stack_chk_fail