	.file	"curve25519_sandy2x.c"
	.file	0 "/home/leizhenyuu/opt/Anonymous_Repo/libsodium_o2_attr_inline/src/libsodium" "curve25519_sandy2x.c" md5 0x248414a5213509b3d2a66db96b80ea07
	.file	1 "crypto_scalarmult/curve25519/sandy2x/.." "scalarmult_curve25519.h"
	.file	2 "crypto_scalarmult/curve25519/sandy2x" "curve25519_sandy2x.c"
	.text
	.p2align	4                               # -- Begin function crypto_scalarmult_curve25519_sandy2x
	.type	crypto_scalarmult_curve25519_sandy2x,@function
crypto_scalarmult_curve25519_sandy2x:   # @crypto_scalarmult_curve25519_sandy2x
.Lfunc_begin0:
	.loc	2 26 0                          # crypto_scalarmult/curve25519/sandy2x/curve25519_sandy2x.c:26:0
	.cfi_startproc
# %bb.0:
	#DEBUG_VALUE: crypto_scalarmult_curve25519_sandy2x:q <- $rdi
	#DEBUG_VALUE: crypto_scalarmult_curve25519_sandy2x:n <- $rsi
	#DEBUG_VALUE: crypto_scalarmult_curve25519_sandy2x:p <- $rdx
	pushq	%r15
	.cfi_def_cfa_offset 16
	pushq	%r14
	.cfi_def_cfa_offset 24
	pushq	%r12
	.cfi_def_cfa_offset 32
	pushq	%rbx
	.cfi_def_cfa_offset 40
	subq	$376, %rsp                      # imm = 0x178
	.cfi_def_cfa_offset 416
	.cfi_offset %rbx, -40
	.cfi_offset %r12, -32
	.cfi_offset %r14, -24
	.cfi_offset %r15, -16
	movq	%rdi, %rbx
	movq	%fs:40, %rax
	movq	%rax, 368(%rsp)
.Ltmp0:
	#DEBUG_VALUE: crypto_scalarmult_curve25519_sandy2x:t <- [DW_OP_plus_uconst 336, DW_OP_deref] $rsp
	#DEBUG_VALUE: crypto_scalarmult_curve25519_sandy2x:x_51 <- [DW_OP_plus_uconst 48, DW_OP_deref] $rsp
	#DEBUG_VALUE: crypto_scalarmult_curve25519_sandy2x:z_51 <- [DW_OP_deref] $rsp
	#DEBUG_VALUE: crypto_scalarmult_curve25519_sandy2x:i <- 0
	.loc	2 34 14 prologue_end            # crypto_scalarmult/curve25519/sandy2x/curve25519_sandy2x.c:34:14
	movups	(%rsi), %xmm0
	movups	16(%rsi), %xmm1
	movaps	%xmm0, 336(%rsp)
	movaps	%xmm1, 352(%rsp)
.Ltmp1:
	#DEBUG_VALUE: crypto_scalarmult_curve25519_sandy2x:i <- undef
	.loc	2 36 10                         # crypto_scalarmult/curve25519/sandy2x/curve25519_sandy2x.c:36:10
	andb	$-8, 336(%rsp)
	.loc	2 37 11                         # crypto_scalarmult/curve25519/sandy2x/curve25519_sandy2x.c:37:11
	movzbl	367(%rsp), %eax
	andb	$63, %al
.Ltmp2:
	#DEBUG_VALUE: crypto_scalarmult_curve25519_sandy2x:t <- [DW_OP_plus_uconst 336, DW_OP_deref, DW_OP_LLVM_fragment 0 248] $rsp
	#DEBUG_VALUE: crypto_scalarmult_curve25519_sandy2x:t <- [DW_OP_constu 63, DW_OP_and, DW_OP_stack_value, DW_OP_LLVM_fragment 248 8] undef
	.loc	2 38 11                         # crypto_scalarmult/curve25519/sandy2x/curve25519_sandy2x.c:38:11
	orb	$64, %al
	movb	%al, 367(%rsp)
.Ltmp3:
	#DEBUG_VALUE: crypto_scalarmult_curve25519_sandy2x:t <- [DW_OP_plus_uconst 336, DW_OP_deref] $rsp
	.loc	2 0 11 is_stmt 0                # crypto_scalarmult/curve25519/sandy2x/curve25519_sandy2x.c:0:11
	leaq	96(%rsp), %r15
	.loc	2 40 5 is_stmt 1                # crypto_scalarmult/curve25519/sandy2x/curve25519_sandy2x.c:40:5
	movq	%r15, %rdi
.Ltmp4:
	#DEBUG_VALUE: crypto_scalarmult_curve25519_sandy2x:q <- $rbx
	movq	%rdx, %rsi
.Ltmp5:
	#DEBUG_VALUE: crypto_scalarmult_curve25519_sandy2x:n <- [DW_OP_LLVM_entry_value 1] $rsi
	callq	crypto_scalarmult_curve25519_sandy2x_fe_frombytes@PLT
.Ltmp6:
	#DEBUG_VALUE: crypto_scalarmult_curve25519_sandy2x:p <- [DW_OP_LLVM_entry_value 1] $rdx
	.loc	2 0 5 is_stmt 0                 # crypto_scalarmult/curve25519/sandy2x/curve25519_sandy2x.c:0:5
	leaq	336(%rsp), %r14
	.loc	2 42 5 is_stmt 1                # crypto_scalarmult/curve25519/sandy2x/curve25519_sandy2x.c:42:5
	movq	%r15, %rdi
	movq	%r14, %rsi
	callq	crypto_scalarmult_curve25519_sandy2x_ladder@PLT
.Ltmp7:
	#DEBUG_VALUE: crypto_scalarmult_curve25519_sandy2x:z_51 <- [DW_OP_LLVM_fragment 0 64] undef
	#DEBUG_VALUE: crypto_scalarmult_curve25519_sandy2x:z_51 <- [DW_OP_plus_uconst 8, DW_OP_deref, DW_OP_LLVM_fragment 64 256] $rsp
	.loc	2 44 37                         # crypto_scalarmult/curve25519/sandy2x/curve25519_sandy2x.c:44:37
	movdqa	272(%rsp), %xmm0
	movdqa	256(%rsp), %xmm1
	.loc	2 44 28 is_stmt 0               # crypto_scalarmult/curve25519/sandy2x/curve25519_sandy2x.c:44:28
	movdqa	%xmm1, %xmm2
	punpckhqdq	%xmm0, %xmm2            # xmm2 = xmm2[1],xmm0[1]
	psllq	$26, %xmm2
	.loc	2 44 35                         # crypto_scalarmult/curve25519/sandy2x/curve25519_sandy2x.c:44:35
	punpcklqdq	%xmm0, %xmm1            # xmm1 = xmm1[0],xmm0[0]
	paddq	%xmm2, %xmm1
	.loc	2 44 15                         # crypto_scalarmult/curve25519/sandy2x/curve25519_sandy2x.c:44:15
	movdqa	%xmm1, (%rsp)
.Ltmp8:
	#DEBUG_VALUE: crypto_scalarmult_curve25519_sandy2x:z_51 <- [DW_OP_deref] $rsp
	#DEBUG_VALUE: crypto_scalarmult_curve25519_sandy2x:z_51 <- [DW_OP_LLVM_fragment 128 64] undef
	#DEBUG_VALUE: crypto_scalarmult_curve25519_sandy2x:z_51 <- [DW_OP_deref, DW_OP_LLVM_fragment 0 128] $rsp
	#DEBUG_VALUE: crypto_scalarmult_curve25519_sandy2x:z_51 <- [DW_OP_plus_uconst 24, DW_OP_deref, DW_OP_LLVM_fragment 192 128] $rsp
	.loc	2 46 37 is_stmt 1               # crypto_scalarmult/curve25519/sandy2x/curve25519_sandy2x.c:46:37
	movdqa	304(%rsp), %xmm0
	movdqa	288(%rsp), %xmm1
	.loc	2 46 28 is_stmt 0               # crypto_scalarmult/curve25519/sandy2x/curve25519_sandy2x.c:46:28
	movdqa	%xmm1, %xmm2
	punpckhqdq	%xmm0, %xmm2            # xmm2 = xmm2[1],xmm0[1]
	psllq	$26, %xmm2
	.loc	2 46 35                         # crypto_scalarmult/curve25519/sandy2x/curve25519_sandy2x.c:46:35
	punpcklqdq	%xmm0, %xmm1            # xmm1 = xmm1[0],xmm0[0]
	paddq	%xmm2, %xmm1
	.loc	2 46 15                         # crypto_scalarmult/curve25519/sandy2x/curve25519_sandy2x.c:46:15
	movdqa	%xmm1, 16(%rsp)
.Ltmp9:
	#DEBUG_VALUE: crypto_scalarmult_curve25519_sandy2x:z_51 <- [DW_OP_deref] $rsp
	.loc	2 48 18 is_stmt 1               # crypto_scalarmult/curve25519/sandy2x/curve25519_sandy2x.c:48:18
	movq	328(%rsp), %rax
	.loc	2 48 28 is_stmt 0               # crypto_scalarmult/curve25519/sandy2x/curve25519_sandy2x.c:48:28
	shlq	$26, %rax
	.loc	2 48 35                         # crypto_scalarmult/curve25519/sandy2x/curve25519_sandy2x.c:48:35
	addq	320(%rsp), %rax
	.loc	2 48 15                         # crypto_scalarmult/curve25519/sandy2x/curve25519_sandy2x.c:48:15
	movq	%rax, 32(%rsp)
.Ltmp10:
	#DEBUG_VALUE: crypto_scalarmult_curve25519_sandy2x:x_51 <- [DW_OP_LLVM_fragment 0 64] undef
	#DEBUG_VALUE: crypto_scalarmult_curve25519_sandy2x:x_51 <- [DW_OP_plus_uconst 48, DW_OP_plus_uconst 8, DW_OP_deref, DW_OP_LLVM_fragment 64 256] $rsp
	.loc	2 50 37 is_stmt 1               # crypto_scalarmult/curve25519/sandy2x/curve25519_sandy2x.c:50:37
	movdqa	176(%rsp), %xmm0
	movdqa	192(%rsp), %xmm1
.Ltmp11:
	#DEBUG_VALUE: crypto_scalarmult_curve25519_sandy2x:x_51 <- [DW_OP_plus_uconst 48, DW_OP_deref] $rsp
	#DEBUG_VALUE: crypto_scalarmult_curve25519_sandy2x:x_51 <- [DW_OP_LLVM_fragment 128 64] undef
	#DEBUG_VALUE: crypto_scalarmult_curve25519_sandy2x:x_51 <- [DW_OP_plus_uconst 48, DW_OP_deref, DW_OP_LLVM_fragment 0 128] $rsp
	#DEBUG_VALUE: crypto_scalarmult_curve25519_sandy2x:x_51 <- [DW_OP_plus_uconst 48, DW_OP_plus_uconst 24, DW_OP_deref, DW_OP_LLVM_fragment 192 128] $rsp
	.loc	2 52 37                         # crypto_scalarmult/curve25519/sandy2x/curve25519_sandy2x.c:52:37
	movdqa	208(%rsp), %xmm2
	movdqa	224(%rsp), %xmm3
	.loc	2 50 28                         # crypto_scalarmult/curve25519/sandy2x/curve25519_sandy2x.c:50:28
	movdqa	%xmm0, %xmm4
	punpckhqdq	%xmm1, %xmm4            # xmm4 = xmm4[1],xmm1[1]
	psllq	$26, %xmm4
	.loc	2 50 35 is_stmt 0               # crypto_scalarmult/curve25519/sandy2x/curve25519_sandy2x.c:50:35
	punpcklqdq	%xmm1, %xmm0            # xmm0 = xmm0[0],xmm1[0]
	paddq	%xmm4, %xmm0
	.loc	2 50 15                         # crypto_scalarmult/curve25519/sandy2x/curve25519_sandy2x.c:50:15
	movdqa	%xmm0, 48(%rsp)
	.loc	2 52 28 is_stmt 1               # crypto_scalarmult/curve25519/sandy2x/curve25519_sandy2x.c:52:28
	movdqa	%xmm2, %xmm0
	punpckhqdq	%xmm3, %xmm0            # xmm0 = xmm0[1],xmm3[1]
	psllq	$26, %xmm0
	.loc	2 52 35 is_stmt 0               # crypto_scalarmult/curve25519/sandy2x/curve25519_sandy2x.c:52:35
	punpcklqdq	%xmm3, %xmm2            # xmm2 = xmm2[0],xmm3[0]
	paddq	%xmm0, %xmm2
	.loc	2 52 15                         # crypto_scalarmult/curve25519/sandy2x/curve25519_sandy2x.c:52:15
	movdqa	%xmm2, 64(%rsp)
.Ltmp12:
	#DEBUG_VALUE: crypto_scalarmult_curve25519_sandy2x:x_51 <- [DW_OP_plus_uconst 48, DW_OP_deref] $rsp
	.loc	2 54 18 is_stmt 1               # crypto_scalarmult/curve25519/sandy2x/curve25519_sandy2x.c:54:18
	movq	248(%rsp), %rax
	.loc	2 54 28 is_stmt 0               # crypto_scalarmult/curve25519/sandy2x/curve25519_sandy2x.c:54:28
	shlq	$26, %rax
	.loc	2 54 35                         # crypto_scalarmult/curve25519/sandy2x/curve25519_sandy2x.c:54:35
	addq	240(%rsp), %rax
	.loc	2 54 15                         # crypto_scalarmult/curve25519/sandy2x/curve25519_sandy2x.c:54:15
	movq	%rax, 80(%rsp)
	movq	%rsp, %r15
	.loc	2 56 5 is_stmt 1                # crypto_scalarmult/curve25519/sandy2x/curve25519_sandy2x.c:56:5
	movq	%r15, %rdi
	movq	%r15, %rsi
	callq	crypto_scalarmult_curve25519_sandy2x_fe51_invert@PLT
.Ltmp13:
	.loc	2 0 5 is_stmt 0                 # crypto_scalarmult/curve25519/sandy2x/curve25519_sandy2x.c:0:5
	leaq	48(%rsp), %r12
	.loc	2 57 5 is_stmt 1                # crypto_scalarmult/curve25519/sandy2x/curve25519_sandy2x.c:57:5
	movq	%r12, %rdi
	movq	%r12, %rsi
	movq	%r15, %rdx
	callq	crypto_scalarmult_curve25519_sandy2x_fe51_mul@PLT
.Ltmp14:
	.loc	2 58 5                          # crypto_scalarmult/curve25519/sandy2x/curve25519_sandy2x.c:58:5
	movq	%rbx, %rdi
	movq	%r12, %rsi
	callq	crypto_scalarmult_curve25519_sandy2x_fe51_pack@PLT
.Ltmp15:
	.loc	2 60 5                          # crypto_scalarmult/curve25519/sandy2x/curve25519_sandy2x.c:60:5
	movl	$32, %esi
	movq	%r14, %rdi
	callq	sodium_memzero@PLT
.Ltmp16:
	.loc	2 62 5                          # crypto_scalarmult/curve25519/sandy2x/curve25519_sandy2x.c:62:5
	movq	%fs:40, %rax
	cmpq	368(%rsp), %rax
	jne	.LBB0_2
.Ltmp17:
# %bb.1:                                # %SP_return
	#DEBUG_VALUE: crypto_scalarmult_curve25519_sandy2x:q <- $rbx
	#DEBUG_VALUE: crypto_scalarmult_curve25519_sandy2x:n <- [DW_OP_LLVM_entry_value 1] $rsi
	#DEBUG_VALUE: crypto_scalarmult_curve25519_sandy2x:p <- [DW_OP_LLVM_entry_value 1] $rdx
	#DEBUG_VALUE: crypto_scalarmult_curve25519_sandy2x:t <- [DW_OP_plus_uconst 336, DW_OP_deref] $r15
	#DEBUG_VALUE: crypto_scalarmult_curve25519_sandy2x:x_51 <- [DW_OP_plus_uconst 48, DW_OP_deref] $r15
	#DEBUG_VALUE: crypto_scalarmult_curve25519_sandy2x:z_51 <- [DW_OP_deref] $r15
	xorl	%eax, %eax
	.loc	2 62 5 epilogue_begin is_stmt 0 # crypto_scalarmult/curve25519/sandy2x/curve25519_sandy2x.c:62:5
	addq	$376, %rsp                      # imm = 0x178
	.cfi_def_cfa_offset 40
	popq	%rbx
.Ltmp18:
	#DEBUG_VALUE: crypto_scalarmult_curve25519_sandy2x:q <- [DW_OP_LLVM_entry_value 1] $rdi
	.cfi_def_cfa_offset 32
	popq	%r12
	.cfi_def_cfa_offset 24
	popq	%r14
	.cfi_def_cfa_offset 16
	popq	%r15
.Ltmp19:
	.cfi_def_cfa_offset 8
	retq
.Ltmp20:
.LBB0_2:                                # %CallStackCheckFailBlk
	.cfi_def_cfa_offset 416
	#DEBUG_VALUE: crypto_scalarmult_curve25519_sandy2x:q <- $rbx
	#DEBUG_VALUE: crypto_scalarmult_curve25519_sandy2x:n <- [DW_OP_LLVM_entry_value 1] $rsi
	#DEBUG_VALUE: crypto_scalarmult_curve25519_sandy2x:p <- [DW_OP_LLVM_entry_value 1] $rdx
	#DEBUG_VALUE: crypto_scalarmult_curve25519_sandy2x:t <- [DW_OP_plus_uconst 336, DW_OP_deref] $r15
	#DEBUG_VALUE: crypto_scalarmult_curve25519_sandy2x:x_51 <- [DW_OP_plus_uconst 48, DW_OP_deref] $r15
	#DEBUG_VALUE: crypto_scalarmult_curve25519_sandy2x:z_51 <- [DW_OP_deref] $r15
	.loc	2 0 0                           # crypto_scalarmult/curve25519/sandy2x/curve25519_sandy2x.c:0
	callq	__stack_chk_fail@PLT
.Ltmp21:
.Lfunc_end0:
	.size	crypto_scalarmult_curve25519_sandy2x, .Lfunc_end0-crypto_scalarmult_curve25519_sandy2x
	.cfi_endproc
	.file	3 "crypto_scalarmult/curve25519/sandy2x" "fe.h"
	.file	4 "/usr/include/x86_64-linux-gnu/bits" "types.h"
	.file	5 "/usr/include/x86_64-linux-gnu/bits" "stdint-uintn.h"
	.file	6 "crypto_scalarmult/curve25519/sandy2x" "ladder.h"
	.file	7 "crypto_scalarmult/curve25519/sandy2x" "fe51.h"
	.file	8 "./include/sodium" "utils.h"
	.file	9 "/home/leizhenyuu/opt/Anonymous_Repo" "llvm-project/build/lib/clang/21/include/__stddef_size_t.h"
                                        # -- End function
	.hidden	crypto_scalarmult_curve25519_sandy2x_implementation # @crypto_scalarmult_curve25519_sandy2x_implementation
	.type	crypto_scalarmult_curve25519_sandy2x_implementation,@object
	.data
	.globl	crypto_scalarmult_curve25519_sandy2x_implementation
	.p2align	3, 0x0
crypto_scalarmult_curve25519_sandy2x_implementation:
	.quad	crypto_scalarmult_curve25519_sandy2x
	.quad	0
	.size	crypto_scalarmult_curve25519_sandy2x_implementation, 16

	.section	".note.GNU-stack","",@progbits
	.addrsig
	.addrsig_sym crypto_scalarmult_curve25519_sandy2x
	.addrsig_sym __stack_chk_fail