	.file	"fe51_invert.c"
	.text
	.hidden	crypto_scalarmult_curve25519_sandy2x_fe51_invert # -- Begin function crypto_scalarmult_curve25519_sandy2x_fe51_invert
	.globl	crypto_scalarmult_curve25519_sandy2x_fe51_invert
	.p2align	4
	.type	crypto_scalarmult_curve25519_sandy2x_fe51_invert,@function
crypto_scalarmult_curve25519_sandy2x_fe51_invert: # @crypto_scalarmult_curve25519_sandy2x_fe51_invert
.Lfunc_begin0:
	.file	0 "/home/leizhenyuu/opt/Anonymous_Repo/libsodium_o2_attr_inline/src/libsodium" "fe51_invert.c" md5 0xdf41ea853eca9201b407e7d75c9e4dfb
	.file	1 "crypto_scalarmult/curve25519/sandy2x" "fe51_invert.c"
	.loc	1 14 0                          # crypto_scalarmult/curve25519/sandy2x/fe51_invert.c:14:0
	.cfi_startproc
# %bb.0:
	#DEBUG_VALUE: crypto_scalarmult_curve25519_sandy2x_fe51_invert:r <- $rdi
	#DEBUG_VALUE: crypto_scalarmult_curve25519_sandy2x_fe51_invert:x <- $rsi
	pushq	%rbp
	.cfi_def_cfa_offset 16
	pushq	%r15
	.cfi_def_cfa_offset 24
	pushq	%r14
	.cfi_def_cfa_offset 32
	pushq	%r13
	.cfi_def_cfa_offset 40
	pushq	%r12
	.cfi_def_cfa_offset 48
	pushq	%rbx
	.cfi_def_cfa_offset 56
	subq	$360, %rsp                      # imm = 0x168
	.cfi_def_cfa_offset 416
	.cfi_offset %rbx, -56
	.cfi_offset %r12, -48
	.cfi_offset %r13, -40
	.cfi_offset %r14, -32
	.cfi_offset %r15, -24
	.cfi_offset %rbp, -16
	movq	%rsi, %r15
	movq	%rdi, %rbx
	leaq	320(%rsp), %r12
.Ltmp0:
	.loc	1 25 13 prologue_end            # crypto_scalarmult/curve25519/sandy2x/fe51_invert.c:25:13
	movq	%r12, %rdi
.Ltmp1:
	#DEBUG_VALUE: crypto_scalarmult_curve25519_sandy2x_fe51_invert:r <- $rbx
	movl	$1, %edx
	callq	crypto_scalarmult_curve25519_sandy2x_fe51_nsquare@PLT
.Ltmp2:
	#DEBUG_VALUE: crypto_scalarmult_curve25519_sandy2x_fe51_invert:x <- $r15
	.loc	1 0 13 is_stmt 0                # crypto_scalarmult/curve25519/sandy2x/fe51_invert.c:0:13
	movq	%rsp, %r14
	.loc	1 26 13 is_stmt 1               # crypto_scalarmult/curve25519/sandy2x/fe51_invert.c:26:13
	movq	%r14, %rdi
	movq	%r12, %rsi
	movl	$1, %edx
	callq	crypto_scalarmult_curve25519_sandy2x_fe51_nsquare@PLT
.Ltmp3:
	.loc	1 27 13                         # crypto_scalarmult/curve25519/sandy2x/fe51_invert.c:27:13
	movq	%r14, %rdi
	movq	%r14, %rsi
	movl	$1, %edx
	callq	crypto_scalarmult_curve25519_sandy2x_fe51_nsquare@PLT
.Ltmp4:
	.loc	1 0 13 is_stmt 0                # crypto_scalarmult/curve25519/sandy2x/fe51_invert.c:0:13
	leaq	280(%rsp), %r13
	.loc	1 28 13 is_stmt 1               # crypto_scalarmult/curve25519/sandy2x/fe51_invert.c:28:13
	movq	%r13, %rdi
	movq	%r14, %rsi
	movq	%r15, %rdx
	callq	crypto_scalarmult_curve25519_sandy2x_fe51_mul@PLT
.Ltmp5:
	.loc	1 0 13 is_stmt 0                # crypto_scalarmult/curve25519/sandy2x/fe51_invert.c:0:13
	leaq	240(%rsp), %r15
.Ltmp6:
	#DEBUG_VALUE: crypto_scalarmult_curve25519_sandy2x_fe51_invert:x <- [DW_OP_LLVM_entry_value 1] $rsi
	.loc	1 29 14 is_stmt 1               # crypto_scalarmult/curve25519/sandy2x/fe51_invert.c:29:14
	movq	%r15, %rdi
	movq	%r13, %rsi
	movq	%r12, %rdx
	callq	crypto_scalarmult_curve25519_sandy2x_fe51_mul@PLT
.Ltmp7:
	.loc	1 30 14                         # crypto_scalarmult/curve25519/sandy2x/fe51_invert.c:30:14
	movq	%r14, %rdi
	movq	%r15, %rsi
	movl	$1, %edx
	callq	crypto_scalarmult_curve25519_sandy2x_fe51_nsquare@PLT
.Ltmp8:
	.loc	1 0 14 is_stmt 0                # crypto_scalarmult/curve25519/sandy2x/fe51_invert.c:0:14
	leaq	200(%rsp), %rbp
	.loc	1 31 26 is_stmt 1               # crypto_scalarmult/curve25519/sandy2x/fe51_invert.c:31:26
	movq	%rbp, %rdi
	movq	%r14, %rsi
	movq	%r13, %rdx
	callq	crypto_scalarmult_curve25519_sandy2x_fe51_mul@PLT
.Ltmp9:
	.loc	1 33 22                         # crypto_scalarmult/curve25519/sandy2x/fe51_invert.c:33:22
	movq	%r14, %rdi
	movq	%rbp, %rsi
	movl	$5, %edx
	callq	crypto_scalarmult_curve25519_sandy2x_fe51_nsquare@PLT
.Ltmp10:
	.loc	1 0 22 is_stmt 0                # crypto_scalarmult/curve25519/sandy2x/fe51_invert.c:0:22
	leaq	160(%rsp), %r12
	.loc	1 34 22 is_stmt 1               # crypto_scalarmult/curve25519/sandy2x/fe51_invert.c:34:22
	movq	%r12, %rdi
	movq	%r14, %rsi
	movq	%rbp, %rdx
	callq	crypto_scalarmult_curve25519_sandy2x_fe51_mul@PLT
.Ltmp11:
	.loc	1 36 23                         # crypto_scalarmult/curve25519/sandy2x/fe51_invert.c:36:23
	movq	%r14, %rdi
	movq	%r12, %rsi
	movl	$10, %edx
	callq	crypto_scalarmult_curve25519_sandy2x_fe51_nsquare@PLT
.Ltmp12:
	.loc	1 0 23 is_stmt 0                # crypto_scalarmult/curve25519/sandy2x/fe51_invert.c:0:23
	leaq	120(%rsp), %r13
	.loc	1 37 22 is_stmt 1               # crypto_scalarmult/curve25519/sandy2x/fe51_invert.c:37:22
	movq	%r13, %rdi
	movq	%r14, %rsi
	movq	%r12, %rdx
	callq	crypto_scalarmult_curve25519_sandy2x_fe51_mul@PLT
.Ltmp13:
	.loc	1 39 23                         # crypto_scalarmult/curve25519/sandy2x/fe51_invert.c:39:23
	movq	%r14, %rdi
	movq	%r13, %rsi
	movl	$20, %edx
	callq	crypto_scalarmult_curve25519_sandy2x_fe51_nsquare@PLT
.Ltmp14:
	.loc	1 40 22                         # crypto_scalarmult/curve25519/sandy2x/fe51_invert.c:40:22
	movq	%r14, %rdi
	movq	%r14, %rsi
	movq	%r13, %rdx
	callq	crypto_scalarmult_curve25519_sandy2x_fe51_mul@PLT
.Ltmp15:
	.loc	1 42 23                         # crypto_scalarmult/curve25519/sandy2x/fe51_invert.c:42:23
	movq	%r14, %rdi
	movq	%r14, %rsi
	movl	$10, %edx
	callq	crypto_scalarmult_curve25519_sandy2x_fe51_nsquare@PLT
.Ltmp16:
	.loc	1 0 23 is_stmt 0                # crypto_scalarmult/curve25519/sandy2x/fe51_invert.c:0:23
	leaq	80(%rsp), %r13
	.loc	1 43 22 is_stmt 1               # crypto_scalarmult/curve25519/sandy2x/fe51_invert.c:43:22
	movq	%r13, %rdi
	movq	%r14, %rsi
	movq	%r12, %rdx
	callq	crypto_scalarmult_curve25519_sandy2x_fe51_mul@PLT
.Ltmp17:
	.loc	1 45 24                         # crypto_scalarmult/curve25519/sandy2x/fe51_invert.c:45:24
	movq	%r14, %rdi
	movq	%r13, %rsi
	movl	$50, %edx
	callq	crypto_scalarmult_curve25519_sandy2x_fe51_nsquare@PLT
.Ltmp18:
	.loc	1 0 24 is_stmt 0                # crypto_scalarmult/curve25519/sandy2x/fe51_invert.c:0:24
	leaq	40(%rsp), %r12
	.loc	1 46 23 is_stmt 1               # crypto_scalarmult/curve25519/sandy2x/fe51_invert.c:46:23
	movq	%r12, %rdi
	movq	%r14, %rsi
	movq	%r13, %rdx
	callq	crypto_scalarmult_curve25519_sandy2x_fe51_mul@PLT
.Ltmp19:
	.loc	1 48 25                         # crypto_scalarmult/curve25519/sandy2x/fe51_invert.c:48:25
	movq	%r14, %rdi
	movq	%r12, %rsi
	movl	$100, %edx
	callq	crypto_scalarmult_curve25519_sandy2x_fe51_nsquare@PLT
.Ltmp20:
	.loc	1 49 23                         # crypto_scalarmult/curve25519/sandy2x/fe51_invert.c:49:23
	movq	%r14, %rdi
	movq	%r14, %rsi
	movq	%r12, %rdx
	callq	crypto_scalarmult_curve25519_sandy2x_fe51_mul@PLT
.Ltmp21:
	.loc	1 51 24                         # crypto_scalarmult/curve25519/sandy2x/fe51_invert.c:51:24
	movq	%r14, %rdi
	movq	%r14, %rsi
	movl	$50, %edx
	callq	crypto_scalarmult_curve25519_sandy2x_fe51_nsquare@PLT
.Ltmp22:
	.loc	1 52 23                         # crypto_scalarmult/curve25519/sandy2x/fe51_invert.c:52:23
	movq	%r14, %rdi
	movq	%r14, %rsi
	movq	%r13, %rdx
	callq	crypto_scalarmult_curve25519_sandy2x_fe51_mul@PLT
.Ltmp23:
	.loc	1 54 23                         # crypto_scalarmult/curve25519/sandy2x/fe51_invert.c:54:23
	movq	%r14, %rdi
	movq	%r14, %rsi
	movl	$5, %edx
	callq	crypto_scalarmult_curve25519_sandy2x_fe51_nsquare@PLT
.Ltmp24:
	.loc	1 55 22                         # crypto_scalarmult/curve25519/sandy2x/fe51_invert.c:55:22
	movq	%rbx, %rdi
	movq	%r14, %rsi
	movq	%r15, %rdx
	callq	crypto_scalarmult_curve25519_sandy2x_fe51_mul@PLT
.Ltmp25:
	.loc	1 56 1 epilogue_begin           # crypto_scalarmult/curve25519/sandy2x/fe51_invert.c:56:1
	addq	$360, %rsp                      # imm = 0x168
	.cfi_def_cfa_offset 56
	popq	%rbx
.Ltmp26:
	#DEBUG_VALUE: crypto_scalarmult_curve25519_sandy2x_fe51_invert:r <- [DW_OP_LLVM_entry_value 1] $rdi
	.cfi_def_cfa_offset 48
	popq	%r12
	.cfi_def_cfa_offset 40
	popq	%r13
	.cfi_def_cfa_offset 32
	popq	%r14
	.cfi_def_cfa_offset 24
	popq	%r15
	.cfi_def_cfa_offset 16
	popq	%rbp
	.cfi_def_cfa_offset 8
	retq
.Ltmp27:
.Lfunc_end0:
	.size	crypto_scalarmult_curve25519_sandy2x_fe51_invert, .Lfunc_end0-crypto_scalarmult_curve25519_sandy2x_fe51_invert
	.cfi_endproc
	.file	2 "crypto_scalarmult/curve25519/sandy2x" "fe51.h"
	.file	3 "/usr/include/x86_64-linux-gnu/bits" "types.h"
	.file	4 "/usr/include/x86_64-linux-gnu/bits" "stdint-uintn.h"
                                        # -- End function
	.section	".note.GNU-stack","",@progbits
	.addrsig