	.file	"fe_frombytes_sandy2x.c"
	.file	0 "/home/leizhenyuu/opt/Anonymous_Repo/libsodium_o2_attr_inline/src/libsodium" "fe_frombytes_sandy2x.c" md5 0x89916c0f3c742e543f981dc077959032
	.file	1 "/usr/include/x86_64-linux-gnu/bits" "types.h"
	.file	2 "/usr/include/x86_64-linux-gnu/bits" "stdint-uintn.h"
	.text
	.hidden	crypto_scalarmult_curve25519_sandy2x_fe_frombytes # -- Begin function crypto_scalarmult_curve25519_sandy2x_fe_frombytes
	.globl	crypto_scalarmult_curve25519_sandy2x_fe_frombytes
	.p2align	4
	.type	crypto_scalarmult_curve25519_sandy2x_fe_frombytes,@function
crypto_scalarmult_curve25519_sandy2x_fe_frombytes: # @crypto_scalarmult_curve25519_sandy2x_fe_frombytes
.Lfunc_begin0:
	.file	3 "crypto_scalarmult/curve25519/sandy2x" "fe_frombytes_sandy2x.c"
	.loc	3 32 0                          # crypto_scalarmult/curve25519/sandy2x/fe_frombytes_sandy2x.c:32:0
	.cfi_startproc
# %bb.0:
	#DEBUG_VALUE: crypto_scalarmult_curve25519_sandy2x_fe_frombytes:h <- $rdi
	#DEBUG_VALUE: crypto_scalarmult_curve25519_sandy2x_fe_frombytes:s <- $rsi
	#DEBUG_VALUE: load_4:in <- $rsi
	pushq	%rbp
	.cfi_def_cfa_offset 16
	pushq	%r15
	.cfi_def_cfa_offset 24
	pushq	%r14
	.cfi_def_cfa_offset 32
	pushq	%r13
	.cfi_def_cfa_offset 40
	pushq	%r12
	.cfi_def_cfa_offset 48
	pushq	%rbx
	.cfi_def_cfa_offset 56
	.cfi_offset %rbx, -56
	.cfi_offset %r12, -48
	.cfi_offset %r13, -40
	.cfi_offset %r14, -32
	.cfi_offset %r15, -24
	.cfi_offset %rbp, -16
	.loc	3 23 25 prologue_end            # crypto_scalarmult/curve25519/sandy2x/fe_frombytes_sandy2x.c:23:25 @[ crypto_scalarmult/curve25519/sandy2x/fe_frombytes_sandy2x.c:33:19 ]
	movl	(%rsi), %ecx
.Ltmp0:
	.loc	3 23 25 is_stmt 0               # crypto_scalarmult/curve25519/sandy2x/fe_frombytes_sandy2x.c:23:25 @[ crypto_scalarmult/curve25519/sandy2x/fe_frombytes_sandy2x.c:38:19 ]
	movl	16(%rsi), %eax
.Ltmp1:
	#DEBUG_VALUE: load_4:result <- $ecx
	#DEBUG_VALUE: crypto_scalarmult_curve25519_sandy2x_fe_frombytes:h0 <- $ecx
	#DEBUG_VALUE: load_3:in <- [DW_OP_plus_uconst 4, DW_OP_stack_value] $rsi
	.loc	3 13 25 is_stmt 1               # crypto_scalarmult/curve25519/sandy2x/fe_frombytes_sandy2x.c:13:25 @[ crypto_scalarmult/curve25519/sandy2x/fe_frombytes_sandy2x.c:34:19 ]
	movzwl	4(%rsi), %r8d
.Ltmp2:
	#DEBUG_VALUE: load_3:result <- undef
	.loc	3 15 27                         # crypto_scalarmult/curve25519/sandy2x/fe_frombytes_sandy2x.c:15:27 @[ crypto_scalarmult/curve25519/sandy2x/fe_frombytes_sandy2x.c:34:19 ]
	movzbl	6(%rsi), %r11d
.Ltmp3:
	.loc	3 34 33                         # crypto_scalarmult/curve25519/sandy2x/fe_frombytes_sandy2x.c:34:33
	shll	$6, %r8d
.Ltmp4:
	#DEBUG_VALUE: crypto_scalarmult_curve25519_sandy2x_fe_frombytes:h1 <- undef
	#DEBUG_VALUE: load_3:in <- [DW_OP_plus_uconst 7, DW_OP_stack_value] $rsi
	.loc	3 13 25                         # crypto_scalarmult/curve25519/sandy2x/fe_frombytes_sandy2x.c:13:25 @[ crypto_scalarmult/curve25519/sandy2x/fe_frombytes_sandy2x.c:35:19 ]
	movzwl	7(%rsi), %r9d
.Ltmp5:
	#DEBUG_VALUE: load_3:result <- undef
	.loc	3 15 27                         # crypto_scalarmult/curve25519/sandy2x/fe_frombytes_sandy2x.c:15:27 @[ crypto_scalarmult/curve25519/sandy2x/fe_frombytes_sandy2x.c:35:19 ]
	movzbl	9(%rsi), %edx
.Ltmp6:
	.loc	3 35 33                         # crypto_scalarmult/curve25519/sandy2x/fe_frombytes_sandy2x.c:35:33
	shll	$5, %r9d
.Ltmp7:
	#DEBUG_VALUE: crypto_scalarmult_curve25519_sandy2x_fe_frombytes:h2 <- undef
	#DEBUG_VALUE: load_3:in <- [DW_OP_plus_uconst 10, DW_OP_stack_value] $rsi
	.loc	3 13 25                         # crypto_scalarmult/curve25519/sandy2x/fe_frombytes_sandy2x.c:13:25 @[ crypto_scalarmult/curve25519/sandy2x/fe_frombytes_sandy2x.c:36:19 ]
	movzwl	10(%rsi), %ebx
.Ltmp8:
	#DEBUG_VALUE: load_3:result <- undef
	.loc	3 15 27                         # crypto_scalarmult/curve25519/sandy2x/fe_frombytes_sandy2x.c:15:27 @[ crypto_scalarmult/curve25519/sandy2x/fe_frombytes_sandy2x.c:36:19 ]
	movzbl	12(%rsi), %r14d
.Ltmp9:
	#DEBUG_VALUE: crypto_scalarmult_curve25519_sandy2x_fe_frombytes:h3 <- undef
	#DEBUG_VALUE: load_3:in <- [DW_OP_plus_uconst 13, DW_OP_stack_value] $rsi
	.loc	3 13 25                         # crypto_scalarmult/curve25519/sandy2x/fe_frombytes_sandy2x.c:13:25 @[ crypto_scalarmult/curve25519/sandy2x/fe_frombytes_sandy2x.c:37:19 ]
	movzwl	13(%rsi), %r12d
.Ltmp10:
	#DEBUG_VALUE: load_3:result <- undef
	.loc	3 15 27                         # crypto_scalarmult/curve25519/sandy2x/fe_frombytes_sandy2x.c:15:27 @[ crypto_scalarmult/curve25519/sandy2x/fe_frombytes_sandy2x.c:37:19 ]
	movzbl	15(%rsi), %r15d
.Ltmp11:
	.loc	3 37 34                         # crypto_scalarmult/curve25519/sandy2x/fe_frombytes_sandy2x.c:37:34
	shll	$18, %r15d
	#DEBUG_VALUE: load_4:result <- $eax
.Ltmp12:
	#DEBUG_VALUE: crypto_scalarmult_curve25519_sandy2x_fe_frombytes:h5 <- $eax
	#DEBUG_VALUE: load_4:in <- [DW_OP_plus_uconst 16, DW_OP_stack_value] $rsi
	#DEBUG_VALUE: load_3:in <- [DW_OP_plus_uconst 20, DW_OP_stack_value] $rsi
	#DEBUG_VALUE: load_3:in <- [DW_OP_plus_uconst 23, DW_OP_stack_value] $rsi
	#DEBUG_VALUE: load_3:in <- [DW_OP_plus_uconst 26, DW_OP_stack_value] $rsi
	#DEBUG_VALUE: load_3:in <- [DW_OP_plus_uconst 29, DW_OP_stack_value] $rsi
	.loc	3 13 25                         # crypto_scalarmult/curve25519/sandy2x/fe_frombytes_sandy2x.c:13:25 @[ crypto_scalarmult/curve25519/sandy2x/fe_frombytes_sandy2x.c:42:20 ]
	movzwl	29(%rsi), %r10d
.Ltmp13:
	#DEBUG_VALUE: load_3:result <- undef
	.loc	3 15 16                         # crypto_scalarmult/curve25519/sandy2x/fe_frombytes_sandy2x.c:15:16 @[ crypto_scalarmult/curve25519/sandy2x/fe_frombytes_sandy2x.c:42:20 ]
	movzbl	31(%rsi), %r13d
.Ltmp14:
	.loc	3 42 46                         # crypto_scalarmult/curve25519/sandy2x/fe_frombytes_sandy2x.c:42:46
	andl	$127, %r13d
	shll	$18, %r13d
	leal	(%r13,%r10,4), %r10d
.Ltmp15:
	#DEBUG_VALUE: crypto_scalarmult_curve25519_sandy2x_fe_frombytes:carry9 <- 0
	#DEBUG_VALUE: crypto_scalarmult_curve25519_sandy2x_fe_frombytes:h9 <- undef
	.loc	3 55 17                         # crypto_scalarmult/curve25519/sandy2x/fe_frombytes_sandy2x.c:55:17
	movl	%r11d, %ebp
	.loc	3 55 41 is_stmt 0               # crypto_scalarmult/curve25519/sandy2x/fe_frombytes_sandy2x.c:55:41
	andl	$7, %r11d
	shll	$22, %r11d
	orl	%r8d, %r11d
	.loc	3 56 17 is_stmt 1               # crypto_scalarmult/curve25519/sandy2x/fe_frombytes_sandy2x.c:56:17
	movl	%r14d, %r8d
	shrl	$6, %r8d
.Ltmp16:
	#DEBUG_VALUE: crypto_scalarmult_curve25519_sandy2x_fe_frombytes:carry3 <- undef
	.loc	3 37 34                         # crypto_scalarmult/curve25519/sandy2x/fe_frombytes_sandy2x.c:37:34
	leal	(%r8,%r12,4), %r8d
.Ltmp17:
	.loc	3 13 25                         # crypto_scalarmult/curve25519/sandy2x/fe_frombytes_sandy2x.c:13:25 @[ crypto_scalarmult/curve25519/sandy2x/fe_frombytes_sandy2x.c:40:19 ]
	movzwl	23(%rsi), %r12d
.Ltmp18:
	#DEBUG_VALUE: load_3:result <- undef
	.loc	3 56 27                         # crypto_scalarmult/curve25519/sandy2x/fe_frombytes_sandy2x.c:56:27
	orl	%r15d, %r8d
.Ltmp19:
	#DEBUG_VALUE: crypto_scalarmult_curve25519_sandy2x_fe_frombytes:h4 <- $r8d
	.loc	3 15 27                         # crypto_scalarmult/curve25519/sandy2x/fe_frombytes_sandy2x.c:15:27 @[ crypto_scalarmult/curve25519/sandy2x/fe_frombytes_sandy2x.c:40:19 ]
	movzbl	25(%rsi), %r15d
.Ltmp20:
	.loc	3 40 34                         # crypto_scalarmult/curve25519/sandy2x/fe_frombytes_sandy2x.c:40:34
	shll	$5, %r12d
.Ltmp21:
	#DEBUG_VALUE: crypto_scalarmult_curve25519_sandy2x_fe_frombytes:h7 <- undef
	.loc	3 56 41                         # crypto_scalarmult/curve25519/sandy2x/fe_frombytes_sandy2x.c:56:41
	andl	$63, %r14d
	shll	$19, %r14d
	leal	(%r14,%rbx,8), %r13d
.Ltmp22:
	#DEBUG_VALUE: crypto_scalarmult_curve25519_sandy2x_fe_frombytes:h5 <- undef
	.loc	3 58 17                         # crypto_scalarmult/curve25519/sandy2x/fe_frombytes_sandy2x.c:58:17
	movl	%r15d, %ebx
	.loc	3 58 41 is_stmt 0               # crypto_scalarmult/curve25519/sandy2x/fe_frombytes_sandy2x.c:58:41
	andl	$15, %r15d
	shll	$21, %r15d
	orl	%r12d, %r15d
	.loc	3 60 17 is_stmt 1               # crypto_scalarmult/curve25519/sandy2x/fe_frombytes_sandy2x.c:60:17
	movl	%ecx, %r14d
	shrl	$26, %r14d
.Ltmp23:
	#DEBUG_VALUE: crypto_scalarmult_curve25519_sandy2x_fe_frombytes:carry0 <- undef
	.loc	3 60 27 is_stmt 0               # crypto_scalarmult/curve25519/sandy2x/fe_frombytes_sandy2x.c:60:27
	orl	%r11d, %r14d
.Ltmp24:
	#DEBUG_VALUE: crypto_scalarmult_curve25519_sandy2x_fe_frombytes:h1 <- $r14d
	#DEBUG_VALUE: crypto_scalarmult_curve25519_sandy2x_fe_frombytes:h0 <- undef
	.loc	3 61 17 is_stmt 1               # crypto_scalarmult/curve25519/sandy2x/fe_frombytes_sandy2x.c:61:17
	movl	%edx, %r11d
	shrl	$5, %r11d
.Ltmp25:
	#DEBUG_VALUE: crypto_scalarmult_curve25519_sandy2x_fe_frombytes:carry2 <- undef
	.loc	3 61 27 is_stmt 0               # crypto_scalarmult/curve25519/sandy2x/fe_frombytes_sandy2x.c:61:27
	orl	%r13d, %r11d
.Ltmp26:
	#DEBUG_VALUE: crypto_scalarmult_curve25519_sandy2x_fe_frombytes:h3 <- $r11d
	.loc	3 13 25 is_stmt 1               # crypto_scalarmult/curve25519/sandy2x/fe_frombytes_sandy2x.c:13:25 @[ crypto_scalarmult/curve25519/sandy2x/fe_frombytes_sandy2x.c:39:19 ]
	movzwl	20(%rsi), %r13d
.Ltmp27:
	#DEBUG_VALUE: load_3:result <- undef
	.loc	3 61 41                         # crypto_scalarmult/curve25519/sandy2x/fe_frombytes_sandy2x.c:61:41
	andl	$31, %edx
	shll	$21, %edx
	orl	%r9d, %edx
.Ltmp28:
	.loc	3 15 27                         # crypto_scalarmult/curve25519/sandy2x/fe_frombytes_sandy2x.c:15:27 @[ crypto_scalarmult/curve25519/sandy2x/fe_frombytes_sandy2x.c:39:19 ]
	movzbl	22(%rsi), %r9d
.Ltmp29:
	.loc	3 39 34                         # crypto_scalarmult/curve25519/sandy2x/fe_frombytes_sandy2x.c:39:34
	shll	$7, %r13d
.Ltmp30:
	#DEBUG_VALUE: crypto_scalarmult_curve25519_sandy2x_fe_frombytes:h6 <- undef
	.loc	3 55 17                         # crypto_scalarmult/curve25519/sandy2x/fe_frombytes_sandy2x.c:55:17
	shrl	$3, %ebp
.Ltmp31:
	#DEBUG_VALUE: crypto_scalarmult_curve25519_sandy2x_fe_frombytes:carry1 <- undef
	.loc	3 61 41                         # crypto_scalarmult/curve25519/sandy2x/fe_frombytes_sandy2x.c:61:41
	orl	%ebp, %edx
.Ltmp32:
	#DEBUG_VALUE: crypto_scalarmult_curve25519_sandy2x_fe_frombytes:h2 <- $edx
	#DEBUG_VALUE: crypto_scalarmult_curve25519_sandy2x_fe_frombytes:carry4 <- 0
	.loc	3 63 17                         # crypto_scalarmult/curve25519/sandy2x/fe_frombytes_sandy2x.c:63:17
	movl	%r9d, %r12d
	shrl	$3, %r12d
.Ltmp33:
	#DEBUG_VALUE: crypto_scalarmult_curve25519_sandy2x_fe_frombytes:carry6 <- undef
	.loc	3 63 27 is_stmt 0               # crypto_scalarmult/curve25519/sandy2x/fe_frombytes_sandy2x.c:63:27
	orl	%r15d, %r12d
.Ltmp34:
	#DEBUG_VALUE: crypto_scalarmult_curve25519_sandy2x_fe_frombytes:h7 <- $r12d
	.loc	3 15 27 is_stmt 1               # crypto_scalarmult/curve25519/sandy2x/fe_frombytes_sandy2x.c:15:27 @[ crypto_scalarmult/curve25519/sandy2x/fe_frombytes_sandy2x.c:41:19 ]
	movzbl	28(%rsi), %r15d
.Ltmp35:
	#DEBUG_VALUE: load_3:result <- undef
	.loc	3 63 41                         # crypto_scalarmult/curve25519/sandy2x/fe_frombytes_sandy2x.c:63:41
	andl	$7, %r9d
	shll	$23, %r9d
	orl	%r13d, %r9d
	.loc	3 57 17                         # crypto_scalarmult/curve25519/sandy2x/fe_frombytes_sandy2x.c:57:17
	movl	%eax, %ebp
	shrl	$25, %ebp
.Ltmp36:
	#DEBUG_VALUE: crypto_scalarmult_curve25519_sandy2x_fe_frombytes:carry5 <- undef
	.loc	3 63 41                         # crypto_scalarmult/curve25519/sandy2x/fe_frombytes_sandy2x.c:63:41
	orl	%ebp, %r9d
.Ltmp37:
	#DEBUG_VALUE: crypto_scalarmult_curve25519_sandy2x_fe_frombytes:h6 <- $r9d
	.loc	3 64 17                         # crypto_scalarmult/curve25519/sandy2x/fe_frombytes_sandy2x.c:64:17
	movl	%r15d, %r13d
	shrl	$6, %r13d
.Ltmp38:
	#DEBUG_VALUE: crypto_scalarmult_curve25519_sandy2x_fe_frombytes:carry8 <- undef
	.loc	3 64 27 is_stmt 0               # crypto_scalarmult/curve25519/sandy2x/fe_frombytes_sandy2x.c:64:27
	orl	%r10d, %r13d
.Ltmp39:
	#DEBUG_VALUE: crypto_scalarmult_curve25519_sandy2x_fe_frombytes:h9 <- $r13d
	.loc	3 13 25 is_stmt 1               # crypto_scalarmult/curve25519/sandy2x/fe_frombytes_sandy2x.c:13:25 @[ crypto_scalarmult/curve25519/sandy2x/fe_frombytes_sandy2x.c:41:19 ]
	movzwl	26(%rsi), %esi
.Ltmp40:
	#DEBUG_VALUE: crypto_scalarmult_curve25519_sandy2x_fe_frombytes:s <- [DW_OP_LLVM_entry_value 1] $rsi
	.loc	3 41 34                         # crypto_scalarmult/curve25519/sandy2x/fe_frombytes_sandy2x.c:41:34
	shll	$4, %esi
.Ltmp41:
	#DEBUG_VALUE: crypto_scalarmult_curve25519_sandy2x_fe_frombytes:h8 <- undef
	.loc	3 64 41                         # crypto_scalarmult/curve25519/sandy2x/fe_frombytes_sandy2x.c:64:41
	andl	$63, %r15d
	shll	$20, %r15d
	orl	%esi, %r15d
	.loc	3 58 17                         # crypto_scalarmult/curve25519/sandy2x/fe_frombytes_sandy2x.c:58:17
	shrl	$4, %ebx
.Ltmp42:
	#DEBUG_VALUE: crypto_scalarmult_curve25519_sandy2x_fe_frombytes:carry7 <- undef
	.loc	3 64 41                         # crypto_scalarmult/curve25519/sandy2x/fe_frombytes_sandy2x.c:64:41
	orl	%ebx, %r15d
.Ltmp43:
	#DEBUG_VALUE: crypto_scalarmult_curve25519_sandy2x_fe_frombytes:h8 <- $r15d
	.loc	3 60 41                         # crypto_scalarmult/curve25519/sandy2x/fe_frombytes_sandy2x.c:60:41
	andl	$67108863, %ecx                 # imm = 0x3FFFFFF
.Ltmp44:
	#DEBUG_VALUE: crypto_scalarmult_curve25519_sandy2x_fe_frombytes:h0 <- $ecx
	.loc	3 66 10                         # crypto_scalarmult/curve25519/sandy2x/fe_frombytes_sandy2x.c:66:10
	movq	%rcx, (%rdi)
	.loc	3 67 10                         # crypto_scalarmult/curve25519/sandy2x/fe_frombytes_sandy2x.c:67:10
	movq	%r14, 8(%rdi)
	.loc	3 68 10                         # crypto_scalarmult/curve25519/sandy2x/fe_frombytes_sandy2x.c:68:10
	movq	%rdx, 16(%rdi)
	.loc	3 69 10                         # crypto_scalarmult/curve25519/sandy2x/fe_frombytes_sandy2x.c:69:10
	movq	%r11, 24(%rdi)
	.loc	3 70 10                         # crypto_scalarmult/curve25519/sandy2x/fe_frombytes_sandy2x.c:70:10
	movq	%r8, 32(%rdi)
	.loc	3 57 41                         # crypto_scalarmult/curve25519/sandy2x/fe_frombytes_sandy2x.c:57:41
	andl	$33554431, %eax                 # imm = 0x1FFFFFF
.Ltmp45:
	#DEBUG_VALUE: crypto_scalarmult_curve25519_sandy2x_fe_frombytes:h5 <- $eax
	.loc	3 71 10                         # crypto_scalarmult/curve25519/sandy2x/fe_frombytes_sandy2x.c:71:10
	movq	%rax, 40(%rdi)
	.loc	3 72 10                         # crypto_scalarmult/curve25519/sandy2x/fe_frombytes_sandy2x.c:72:10
	movq	%r9, 48(%rdi)
	.loc	3 73 10                         # crypto_scalarmult/curve25519/sandy2x/fe_frombytes_sandy2x.c:73:10
	movq	%r12, 56(%rdi)
	.loc	3 74 10                         # crypto_scalarmult/curve25519/sandy2x/fe_frombytes_sandy2x.c:74:10
	movq	%r15, 64(%rdi)
	.loc	3 75 10                         # crypto_scalarmult/curve25519/sandy2x/fe_frombytes_sandy2x.c:75:10
	movq	%r13, 72(%rdi)
	.loc	3 76 1 epilogue_begin           # crypto_scalarmult/curve25519/sandy2x/fe_frombytes_sandy2x.c:76:1
	popq	%rbx
	.cfi_def_cfa_offset 48
	popq	%r12
.Ltmp46:
	.cfi_def_cfa_offset 40
	popq	%r13
.Ltmp47:
	.cfi_def_cfa_offset 32
	popq	%r14
.Ltmp48:
	.cfi_def_cfa_offset 24
	popq	%r15
.Ltmp49:
	.cfi_def_cfa_offset 16
	popq	%rbp
	.cfi_def_cfa_offset 8
	retq
.Ltmp50:
.Lfunc_end0:
	.size	crypto_scalarmult_curve25519_sandy2x_fe_frombytes, .Lfunc_end0-crypto_scalarmult_curve25519_sandy2x_fe_frombytes
	.cfi_endproc
                                        # -- End function
	.section	".note.GNU-stack","",@progbits
	.addrsig