	.file	"generichash_blake2b.c"
	.file	0 "/home/leizhenyuu/opt/Anonymous_Repo/libsodium_o2_attr_inline/src/libsodium" "generichash_blake2b.c" md5 0x3655115dad24a83ea2fa44a0c5405698
	.file	1 "crypto_generichash/blake2b/ref" "generichash_blake2b.c"
	.file	2 "crypto_generichash/blake2b/ref" "blake2.h"
	.file	3 "/usr/include/x86_64-linux-gnu/bits" "types.h"
	.file	4 "/usr/include/x86_64-linux-gnu/bits" "stdint-uintn.h"
	.file	5 "/home/leizhenyuu/opt/Anonymous_Repo" "llvm-project/build/lib/clang/21/include/__stddef_size_t.h"
	.text
	.globl	crypto_generichash_blake2b      # -- Begin function crypto_generichash_blake2b
	.p2align	4
	.type	crypto_generichash_blake2b,@function
crypto_generichash_blake2b:             # @crypto_generichash_blake2b
.Lfunc_begin0:
	.loc	1 15 0                          # crypto_generichash/blake2b/ref/generichash_blake2b.c:15:0
	.cfi_startproc
# %bb.0:
	#DEBUG_VALUE: crypto_generichash_blake2b:out <- $rdi
	#DEBUG_VALUE: crypto_generichash_blake2b:outlen <- $rsi
	#DEBUG_VALUE: crypto_generichash_blake2b:in <- $rdx
	#DEBUG_VALUE: crypto_generichash_blake2b:inlen <- $rcx
	#DEBUG_VALUE: crypto_generichash_blake2b:key <- $r8
	#DEBUG_VALUE: crypto_generichash_blake2b:keylen <- $r9
	movq	%rcx, %rax
	movq	%rsi, %rcx
.Ltmp0:
	#DEBUG_VALUE: crypto_generichash_blake2b:inlen <- $rax
	.loc	1 16 22 prologue_end            # crypto_generichash/blake2b/ref/generichash_blake2b.c:16:22
	addq	$-65, %rsi
.Ltmp1:
	#DEBUG_VALUE: crypto_generichash_blake2b:outlen <- $rcx
	cmpq	$-64, %rsi
	setb	%sil
	cmpq	$65, %r9
	setae	%r10b
	orb	%sil, %r10b
	je	.LBB0_2
.Ltmp2:
# %bb.1:
	#DEBUG_VALUE: crypto_generichash_blake2b:out <- $rdi
	#DEBUG_VALUE: crypto_generichash_blake2b:outlen <- $rcx
	#DEBUG_VALUE: crypto_generichash_blake2b:in <- $rdx
	#DEBUG_VALUE: crypto_generichash_blake2b:inlen <- $rax
	#DEBUG_VALUE: crypto_generichash_blake2b:key <- $r8
	#DEBUG_VALUE: crypto_generichash_blake2b:keylen <- $r9
	.loc	1 25 1                          # crypto_generichash/blake2b/ref/generichash_blake2b.c:25:1
	movl	$-1, %eax
.Ltmp3:
	#DEBUG_VALUE: crypto_generichash_blake2b:inlen <- [DW_OP_LLVM_entry_value 1] $rcx
	retq
.Ltmp4:
.LBB0_2:
	#DEBUG_VALUE: crypto_generichash_blake2b:out <- $rdi
	#DEBUG_VALUE: crypto_generichash_blake2b:outlen <- $rcx
	#DEBUG_VALUE: crypto_generichash_blake2b:in <- $rdx
	#DEBUG_VALUE: crypto_generichash_blake2b:inlen <- $rax
	#DEBUG_VALUE: crypto_generichash_blake2b:key <- $r8
	#DEBUG_VALUE: crypto_generichash_blake2b:keylen <- $r9
	.loc	1 23 12                         # crypto_generichash/blake2b/ref/generichash_blake2b.c:23:12
	movq	%rdx, %rsi
	movq	%r8, %rdx
.Ltmp5:
	#DEBUG_VALUE: crypto_generichash_blake2b:in <- $rsi
                                        # kill: def $ecx killed $ecx killed $rcx
	movq	%rax, %r8
.Ltmp6:
	#DEBUG_VALUE: crypto_generichash_blake2b:key <- $rdx
                                        # kill: def $r9d killed $r9d killed $r9
	jmp	blake2b@PLT                     # TAILCALL
.Ltmp7:
.Lfunc_end0:
	.size	crypto_generichash_blake2b, .Lfunc_end0-crypto_generichash_blake2b
	.cfi_endproc
                                        # -- End function
	.globl	crypto_generichash_blake2b_salt_personal # -- Begin function crypto_generichash_blake2b_salt_personal
	.p2align	4
	.type	crypto_generichash_blake2b_salt_personal,@function
crypto_generichash_blake2b_salt_personal: # @crypto_generichash_blake2b_salt_personal
.Lfunc_begin1:
	.loc	1 32 0                          # crypto_generichash/blake2b/ref/generichash_blake2b.c:32:0
	.cfi_startproc
# %bb.0:
	#DEBUG_VALUE: crypto_generichash_blake2b_salt_personal:out <- $rdi
	#DEBUG_VALUE: crypto_generichash_blake2b_salt_personal:outlen <- $rsi
	#DEBUG_VALUE: crypto_generichash_blake2b_salt_personal:in <- $rdx
	#DEBUG_VALUE: crypto_generichash_blake2b_salt_personal:inlen <- $rcx
	#DEBUG_VALUE: crypto_generichash_blake2b_salt_personal:key <- $r8
	#DEBUG_VALUE: crypto_generichash_blake2b_salt_personal:keylen <- $r9
	#DEBUG_VALUE: crypto_generichash_blake2b_salt_personal:salt <- [DW_OP_plus_uconst 8] [$rsp+0]
	#DEBUG_VALUE: crypto_generichash_blake2b_salt_personal:personal <- [DW_OP_plus_uconst 16] [$rsp+0]
	movq	%rcx, %rax
	movq	%rsi, %rcx
.Ltmp8:
	#DEBUG_VALUE: crypto_generichash_blake2b_salt_personal:inlen <- $rax
	.loc	1 33 22 prologue_end            # crypto_generichash/blake2b/ref/generichash_blake2b.c:33:22
	addq	$-65, %rsi
.Ltmp9:
	#DEBUG_VALUE: crypto_generichash_blake2b_salt_personal:outlen <- $rcx
	cmpq	$-64, %rsi
	setb	%sil
	cmpq	$65, %r9
	setae	%r10b
	orb	%sil, %r10b
	je	.LBB1_2
.Ltmp10:
# %bb.1:
	#DEBUG_VALUE: crypto_generichash_blake2b_salt_personal:out <- $rdi
	#DEBUG_VALUE: crypto_generichash_blake2b_salt_personal:outlen <- $rcx
	#DEBUG_VALUE: crypto_generichash_blake2b_salt_personal:in <- $rdx
	#DEBUG_VALUE: crypto_generichash_blake2b_salt_personal:inlen <- $rax
	#DEBUG_VALUE: crypto_generichash_blake2b_salt_personal:key <- $r8
	#DEBUG_VALUE: crypto_generichash_blake2b_salt_personal:keylen <- $r9
	#DEBUG_VALUE: crypto_generichash_blake2b_salt_personal:salt <- [DW_OP_plus_uconst 8] [$rsp+0]
	#DEBUG_VALUE: crypto_generichash_blake2b_salt_personal:personal <- [DW_OP_plus_uconst 16] [$rsp+0]
	.loc	1 43 1                          # crypto_generichash/blake2b/ref/generichash_blake2b.c:43:1
	movl	$-1, %eax
.Ltmp11:
	#DEBUG_VALUE: crypto_generichash_blake2b_salt_personal:inlen <- [DW_OP_LLVM_entry_value 1] $rcx
	retq
.Ltmp12:
.LBB1_2:
	#DEBUG_VALUE: crypto_generichash_blake2b_salt_personal:out <- $rdi
	#DEBUG_VALUE: crypto_generichash_blake2b_salt_personal:outlen <- $rcx
	#DEBUG_VALUE: crypto_generichash_blake2b_salt_personal:in <- $rdx
	#DEBUG_VALUE: crypto_generichash_blake2b_salt_personal:inlen <- $rax
	#DEBUG_VALUE: crypto_generichash_blake2b_salt_personal:key <- $r8
	#DEBUG_VALUE: crypto_generichash_blake2b_salt_personal:keylen <- $r9
	#DEBUG_VALUE: crypto_generichash_blake2b_salt_personal:salt <- [DW_OP_plus_uconst 8] [$rsp+0]
	#DEBUG_VALUE: crypto_generichash_blake2b_salt_personal:personal <- [DW_OP_plus_uconst 16] [$rsp+0]
	.loc	1 40 12                         # crypto_generichash/blake2b/ref/generichash_blake2b.c:40:12
	movq	%rdx, %rsi
	movq	%r8, %rdx
.Ltmp13:
	#DEBUG_VALUE: crypto_generichash_blake2b_salt_personal:in <- $rsi
                                        # kill: def $ecx killed $ecx killed $rcx
	movq	%rax, %r8
.Ltmp14:
	#DEBUG_VALUE: crypto_generichash_blake2b_salt_personal:key <- $rdx
                                        # kill: def $r9d killed $r9d killed $r9
	jmp	blake2b_salt_personal@PLT       # TAILCALL
.Ltmp15:
.Lfunc_end1:
	.size	crypto_generichash_blake2b_salt_personal, .Lfunc_end1-crypto_generichash_blake2b_salt_personal
	.cfi_endproc
                                        # -- End function
	.globl	crypto_generichash_blake2b_init # -- Begin function crypto_generichash_blake2b_init
	.p2align	4
	.type	crypto_generichash_blake2b_init,@function
crypto_generichash_blake2b_init:        # @crypto_generichash_blake2b_init
.Lfunc_begin2:
	.loc	1 49 0                          # crypto_generichash/blake2b/ref/generichash_blake2b.c:49:0
	.cfi_startproc
# %bb.0:
	#DEBUG_VALUE: crypto_generichash_blake2b_init:state <- $rdi
	#DEBUG_VALUE: crypto_generichash_blake2b_init:key <- $rsi
	#DEBUG_VALUE: crypto_generichash_blake2b_init:keylen <- $rdx
	#DEBUG_VALUE: crypto_generichash_blake2b_init:outlen <- $rcx
	pushq	%rbx
	.cfi_def_cfa_offset 16
	.cfi_offset %rbx, -16
	.loc	1 50 22 prologue_end            # crypto_generichash/blake2b/ref/generichash_blake2b.c:50:22
	leaq	-65(%rcx), %rax
	cmpq	$-64, %rax
	setb	%al
	cmpq	$65, %rdx
	setae	%r8b
	orb	%al, %r8b
	movl	$-1, %ebx
	jne	.LBB2_6
.Ltmp16:
# %bb.1:
	#DEBUG_VALUE: crypto_generichash_blake2b_init:state <- $rdi
	#DEBUG_VALUE: crypto_generichash_blake2b_init:key <- $rsi
	#DEBUG_VALUE: crypto_generichash_blake2b_init:keylen <- $rdx
	#DEBUG_VALUE: crypto_generichash_blake2b_init:outlen <- $rcx
	.loc	1 57 13                         # crypto_generichash/blake2b/ref/generichash_blake2b.c:57:13
	testq	%rsi, %rsi
	setne	%al
	testq	%rdx, %rdx
	setne	%r8b
	.loc	1 57 27 is_stmt 0               # crypto_generichash/blake2b/ref/generichash_blake2b.c:57:27
	testb	%r8b, %al
	jne	.LBB2_3
.Ltmp17:
# %bb.2:
	#DEBUG_VALUE: crypto_generichash_blake2b_init:state <- $rdi
	#DEBUG_VALUE: crypto_generichash_blake2b_init:key <- $rsi
	#DEBUG_VALUE: crypto_generichash_blake2b_init:keylen <- $rdx
	#DEBUG_VALUE: crypto_generichash_blake2b_init:outlen <- $rcx
	.loc	1 58 13 is_stmt 1               # crypto_generichash/blake2b/ref/generichash_blake2b.c:58:13
	movzbl	%cl, %esi
.Ltmp18:
	#DEBUG_VALUE: crypto_generichash_blake2b_init:key <- [DW_OP_LLVM_entry_value 1] $rsi
	callq	blake2b_init@PLT
.Ltmp19:
	#DEBUG_VALUE: crypto_generichash_blake2b_init:outlen <- [DW_OP_LLVM_entry_value 1] $rcx
	#DEBUG_VALUE: crypto_generichash_blake2b_init:keylen <- [DW_OP_LLVM_entry_value 1] $rdx
	#DEBUG_VALUE: crypto_generichash_blake2b_init:state <- [DW_OP_LLVM_entry_value 1] $rdi
	.loc	1 0 0 is_stmt 0                 # crypto_generichash/blake2b/ref/generichash_blake2b.c:0
	testl	%eax, %eax
	jne	.LBB2_6
	jmp	.LBB2_5
.Ltmp20:
.LBB2_3:
	#DEBUG_VALUE: crypto_generichash_blake2b_init:state <- $rdi
	#DEBUG_VALUE: crypto_generichash_blake2b_init:key <- $rsi
	#DEBUG_VALUE: crypto_generichash_blake2b_init:keylen <- $rdx
	#DEBUG_VALUE: crypto_generichash_blake2b_init:outlen <- $rcx
	.loc	1 61 16 is_stmt 1               # crypto_generichash/blake2b/ref/generichash_blake2b.c:61:16
	movzbl	%cl, %eax
	movq	%rsi, %r8
	movl	%eax, %esi
.Ltmp21:
	#DEBUG_VALUE: crypto_generichash_blake2b_init:key <- $r8
	.loc	1 0 16 is_stmt 0                # crypto_generichash/blake2b/ref/generichash_blake2b.c:0:16
	movq	%rdx, %rcx
.Ltmp22:
	#DEBUG_VALUE: crypto_generichash_blake2b_init:outlen <- [DW_OP_LLVM_entry_value 1] $rcx
	.loc	1 61 16                         # crypto_generichash/blake2b/ref/generichash_blake2b.c:61:16
	movq	%r8, %rdx
.Ltmp23:
	#DEBUG_VALUE: crypto_generichash_blake2b_init:keylen <- $rcx
                                        # kill: def $ecx killed $ecx killed $rcx
	callq	blake2b_init_key@PLT
.Ltmp24:
	#DEBUG_VALUE: crypto_generichash_blake2b_init:key <- [DW_OP_LLVM_entry_value 1] $rsi
	#DEBUG_VALUE: crypto_generichash_blake2b_init:outlen <- [DW_OP_LLVM_entry_value 1] $rdx
	#DEBUG_VALUE: crypto_generichash_blake2b_init:keylen <- [DW_OP_LLVM_entry_value 1] $rdx
	#DEBUG_VALUE: crypto_generichash_blake2b_init:state <- [DW_OP_LLVM_entry_value 1] $rdi
	.loc	1 0 0                           # crypto_generichash/blake2b/ref/generichash_blake2b.c:0
	testl	%eax, %eax
	jne	.LBB2_6
.Ltmp25:
.LBB2_5:
	#DEBUG_VALUE: crypto_generichash_blake2b_init:state <- [DW_OP_LLVM_entry_value 1] $rdi
	#DEBUG_VALUE: crypto_generichash_blake2b_init:key <- [DW_OP_LLVM_entry_value 1] $rsi
	#DEBUG_VALUE: crypto_generichash_blake2b_init:keylen <- [DW_OP_LLVM_entry_value 1] $rdx
	#DEBUG_VALUE: crypto_generichash_blake2b_init:outlen <- [DW_OP_LLVM_entry_value 1] $rcx
	xorl	%ebx, %ebx
.Ltmp26:
.LBB2_6:
	#DEBUG_VALUE: crypto_generichash_blake2b_init:state <- [DW_OP_LLVM_entry_value 1] $rdi
	#DEBUG_VALUE: crypto_generichash_blake2b_init:key <- [DW_OP_LLVM_entry_value 1] $rsi
	#DEBUG_VALUE: crypto_generichash_blake2b_init:keylen <- [DW_OP_LLVM_entry_value 1] $rdx
	#DEBUG_VALUE: crypto_generichash_blake2b_init:outlen <- [DW_OP_LLVM_entry_value 1] $rcx
	.loc	1 66 1 is_stmt 1                # crypto_generichash/blake2b/ref/generichash_blake2b.c:66:1
	movl	%ebx, %eax
	.loc	1 66 1 epilogue_begin is_stmt 0 # crypto_generichash/blake2b/ref/generichash_blake2b.c:66:1
	popq	%rbx
	.cfi_def_cfa_offset 8
	retq
.Ltmp27:
.Lfunc_end2:
	.size	crypto_generichash_blake2b_init, .Lfunc_end2-crypto_generichash_blake2b_init
	.cfi_endproc
                                        # -- End function
	.globl	crypto_generichash_blake2b_init_salt_personal # -- Begin function crypto_generichash_blake2b_init_salt_personal
	.p2align	4
	.type	crypto_generichash_blake2b_init_salt_personal,@function
crypto_generichash_blake2b_init_salt_personal: # @crypto_generichash_blake2b_init_salt_personal
.Lfunc_begin3:
	.loc	1 73 0 is_stmt 1                # crypto_generichash/blake2b/ref/generichash_blake2b.c:73:0
	.cfi_startproc
# %bb.0:
	#DEBUG_VALUE: crypto_generichash_blake2b_init_salt_personal:state <- $rdi
	#DEBUG_VALUE: crypto_generichash_blake2b_init_salt_personal:key <- $rsi
	#DEBUG_VALUE: crypto_generichash_blake2b_init_salt_personal:keylen <- $rdx
	#DEBUG_VALUE: crypto_generichash_blake2b_init_salt_personal:outlen <- $rcx
	#DEBUG_VALUE: crypto_generichash_blake2b_init_salt_personal:salt <- $r8
	#DEBUG_VALUE: crypto_generichash_blake2b_init_salt_personal:personal <- $r9
	pushq	%rbx
	.cfi_def_cfa_offset 16
	.cfi_offset %rbx, -16
	.loc	1 74 22 prologue_end            # crypto_generichash/blake2b/ref/generichash_blake2b.c:74:22
	leaq	-65(%rcx), %rax
	cmpq	$-64, %rax
	setb	%al
	cmpq	$65, %rdx
	setae	%r10b
	orb	%al, %r10b
	movl	$-1, %ebx
	jne	.LBB3_6
.Ltmp28:
# %bb.1:
	#DEBUG_VALUE: crypto_generichash_blake2b_init_salt_personal:state <- $rdi
	#DEBUG_VALUE: crypto_generichash_blake2b_init_salt_personal:key <- $rsi
	#DEBUG_VALUE: crypto_generichash_blake2b_init_salt_personal:keylen <- $rdx
	#DEBUG_VALUE: crypto_generichash_blake2b_init_salt_personal:outlen <- $rcx
	#DEBUG_VALUE: crypto_generichash_blake2b_init_salt_personal:salt <- $r8
	#DEBUG_VALUE: crypto_generichash_blake2b_init_salt_personal:personal <- $r9
	.loc	1 80 13                         # crypto_generichash/blake2b/ref/generichash_blake2b.c:80:13
	testq	%rsi, %rsi
	setne	%al
	testq	%rdx, %rdx
	setne	%r10b
	.loc	1 80 27 is_stmt 0               # crypto_generichash/blake2b/ref/generichash_blake2b.c:80:27
	testb	%r10b, %al
	jne	.LBB3_3
.Ltmp29:
# %bb.2:
	#DEBUG_VALUE: crypto_generichash_blake2b_init_salt_personal:state <- $rdi
	#DEBUG_VALUE: crypto_generichash_blake2b_init_salt_personal:key <- $rsi
	#DEBUG_VALUE: crypto_generichash_blake2b_init_salt_personal:keylen <- $rdx
	#DEBUG_VALUE: crypto_generichash_blake2b_init_salt_personal:outlen <- $rcx
	#DEBUG_VALUE: crypto_generichash_blake2b_init_salt_personal:salt <- $r8
	#DEBUG_VALUE: crypto_generichash_blake2b_init_salt_personal:personal <- $r9
	.loc	1 81 13 is_stmt 1               # crypto_generichash/blake2b/ref/generichash_blake2b.c:81:13
	movzbl	%cl, %esi
.Ltmp30:
	#DEBUG_VALUE: crypto_generichash_blake2b_init_salt_personal:key <- [DW_OP_LLVM_entry_value 1] $rsi
	movq	%r8, %rdx
.Ltmp31:
	#DEBUG_VALUE: crypto_generichash_blake2b_init_salt_personal:keylen <- [DW_OP_LLVM_entry_value 1] $rdx
	movq	%r9, %rcx
.Ltmp32:
	#DEBUG_VALUE: crypto_generichash_blake2b_init_salt_personal:outlen <- [DW_OP_LLVM_entry_value 1] $rcx
	callq	blake2b_init_salt_personal@PLT
.Ltmp33:
	#DEBUG_VALUE: crypto_generichash_blake2b_init_salt_personal:personal <- [DW_OP_LLVM_entry_value 1] $r9
	#DEBUG_VALUE: crypto_generichash_blake2b_init_salt_personal:salt <- [DW_OP_LLVM_entry_value 1] $r8
	#DEBUG_VALUE: crypto_generichash_blake2b_init_salt_personal:state <- [DW_OP_LLVM_entry_value 1] $rdi
	.loc	1 0 0 is_stmt 0                 # crypto_generichash/blake2b/ref/generichash_blake2b.c:0
	testl	%eax, %eax
	jne	.LBB3_6
	jmp	.LBB3_5
.Ltmp34:
.LBB3_3:
	#DEBUG_VALUE: crypto_generichash_blake2b_init_salt_personal:state <- $rdi
	#DEBUG_VALUE: crypto_generichash_blake2b_init_salt_personal:key <- $rsi
	#DEBUG_VALUE: crypto_generichash_blake2b_init_salt_personal:keylen <- $rdx
	#DEBUG_VALUE: crypto_generichash_blake2b_init_salt_personal:outlen <- $rcx
	#DEBUG_VALUE: crypto_generichash_blake2b_init_salt_personal:salt <- $r8
	#DEBUG_VALUE: crypto_generichash_blake2b_init_salt_personal:personal <- $r9
	.loc	1 85 16 is_stmt 1               # crypto_generichash/blake2b/ref/generichash_blake2b.c:85:16
	movzbl	%cl, %eax
	movq	%rsi, %r10
	movl	%eax, %esi
.Ltmp35:
	#DEBUG_VALUE: crypto_generichash_blake2b_init_salt_personal:key <- $r10
	.loc	1 0 16 is_stmt 0                # crypto_generichash/blake2b/ref/generichash_blake2b.c:0:16
	movq	%rdx, %rcx
.Ltmp36:
	#DEBUG_VALUE: crypto_generichash_blake2b_init_salt_personal:outlen <- [DW_OP_LLVM_entry_value 1] $rcx
	.loc	1 85 16                         # crypto_generichash/blake2b/ref/generichash_blake2b.c:85:16
	movq	%r10, %rdx
.Ltmp37:
	#DEBUG_VALUE: crypto_generichash_blake2b_init_salt_personal:keylen <- $rcx
                                        # kill: def $ecx killed $ecx killed $rcx
	callq	blake2b_init_key_salt_personal@PLT
.Ltmp38:
	#DEBUG_VALUE: crypto_generichash_blake2b_init_salt_personal:key <- [DW_OP_LLVM_entry_value 1] $rsi
	#DEBUG_VALUE: crypto_generichash_blake2b_init_salt_personal:personal <- [DW_OP_LLVM_entry_value 1] $r9
	#DEBUG_VALUE: crypto_generichash_blake2b_init_salt_personal:salt <- [DW_OP_LLVM_entry_value 1] $r8
	#DEBUG_VALUE: crypto_generichash_blake2b_init_salt_personal:outlen <- [DW_OP_LLVM_entry_value 1] $rdx
	#DEBUG_VALUE: crypto_generichash_blake2b_init_salt_personal:keylen <- [DW_OP_LLVM_entry_value 1] $rdx
	#DEBUG_VALUE: crypto_generichash_blake2b_init_salt_personal:state <- [DW_OP_LLVM_entry_value 1] $rdi
	.loc	1 0 0                           # crypto_generichash/blake2b/ref/generichash_blake2b.c:0
	testl	%eax, %eax
	jne	.LBB3_6
.Ltmp39:
.LBB3_5:
	#DEBUG_VALUE: crypto_generichash_blake2b_init_salt_personal:state <- [DW_OP_LLVM_entry_value 1] $rdi
	#DEBUG_VALUE: crypto_generichash_blake2b_init_salt_personal:key <- [DW_OP_LLVM_entry_value 1] $rsi
	#DEBUG_VALUE: crypto_generichash_blake2b_init_salt_personal:keylen <- [DW_OP_LLVM_entry_value 1] $rdx
	#DEBUG_VALUE: crypto_generichash_blake2b_init_salt_personal:outlen <- [DW_OP_LLVM_entry_value 1] $rcx
	#DEBUG_VALUE: crypto_generichash_blake2b_init_salt_personal:salt <- [DW_OP_LLVM_entry_value 1] $r8
	#DEBUG_VALUE: crypto_generichash_blake2b_init_salt_personal:personal <- [DW_OP_LLVM_entry_value 1] $r9
	xorl	%ebx, %ebx
.Ltmp40:
.LBB3_6:
	#DEBUG_VALUE: crypto_generichash_blake2b_init_salt_personal:state <- [DW_OP_LLVM_entry_value 1] $rdi
	#DEBUG_VALUE: crypto_generichash_blake2b_init_salt_personal:key <- [DW_OP_LLVM_entry_value 1] $rsi
	#DEBUG_VALUE: crypto_generichash_blake2b_init_salt_personal:keylen <- [DW_OP_LLVM_entry_value 1] $rdx
	#DEBUG_VALUE: crypto_generichash_blake2b_init_salt_personal:outlen <- [DW_OP_LLVM_entry_value 1] $rcx
	#DEBUG_VALUE: crypto_generichash_blake2b_init_salt_personal:salt <- [DW_OP_LLVM_entry_value 1] $r8
	#DEBUG_VALUE: crypto_generichash_blake2b_init_salt_personal:personal <- [DW_OP_LLVM_entry_value 1] $r9
	.loc	1 92 1 is_stmt 1                # crypto_generichash/blake2b/ref/generichash_blake2b.c:92:1
	movl	%ebx, %eax
	.loc	1 92 1 epilogue_begin is_stmt 0 # crypto_generichash/blake2b/ref/generichash_blake2b.c:92:1
	popq	%rbx
	.cfi_def_cfa_offset 8
	retq
.Ltmp41:
.Lfunc_end3:
	.size	crypto_generichash_blake2b_init_salt_personal, .Lfunc_end3-crypto_generichash_blake2b_init_salt_personal
	.cfi_endproc
                                        # -- End function
	.globl	crypto_generichash_blake2b_update # -- Begin function crypto_generichash_blake2b_update
	.p2align	4
	.type	crypto_generichash_blake2b_update,@function
crypto_generichash_blake2b_update:      # @crypto_generichash_blake2b_update
.Lfunc_begin4:
	.cfi_startproc
# %bb.0:
	#DEBUG_VALUE: crypto_generichash_blake2b_update:state <- $rdi
	#DEBUG_VALUE: crypto_generichash_blake2b_update:in <- $rsi
	#DEBUG_VALUE: crypto_generichash_blake2b_update:inlen <- $rdx
	.loc	1 99 12 prologue_end is_stmt 1  # crypto_generichash/blake2b/ref/generichash_blake2b.c:99:12
	jmp	blake2b_update@PLT              # TAILCALL
.Ltmp42:
.Lfunc_end4:
	.size	crypto_generichash_blake2b_update, .Lfunc_end4-crypto_generichash_blake2b_update
	.cfi_endproc
                                        # -- End function
	.globl	crypto_generichash_blake2b_final # -- Begin function crypto_generichash_blake2b_final
	.p2align	4
	.type	crypto_generichash_blake2b_final,@function
crypto_generichash_blake2b_final:       # @crypto_generichash_blake2b_final
.Lfunc_begin5:
	.cfi_startproc
# %bb.0:
	#DEBUG_VALUE: crypto_generichash_blake2b_final:state <- $rdi
	#DEBUG_VALUE: crypto_generichash_blake2b_final:out <- $rsi
	#DEBUG_VALUE: crypto_generichash_blake2b_final:outlen <- $rdx
	.loc	1 107 77 prologue_end           # crypto_generichash/blake2b/ref/generichash_blake2b.c:107:77
	cmpq	$256, %rdx                      # imm = 0x100
	jae	.LBB5_1
.Ltmp43:
# %bb.2:
	#DEBUG_VALUE: crypto_generichash_blake2b_final:state <- $rdi
	#DEBUG_VALUE: crypto_generichash_blake2b_final:out <- $rsi
	#DEBUG_VALUE: crypto_generichash_blake2b_final:outlen <- $rdx
                                        # kill: def $edx killed $edx killed $rdx
	.loc	1 108 12                        # crypto_generichash/blake2b/ref/generichash_blake2b.c:108:12
	jmp	blake2b_final@PLT               # TAILCALL
.Ltmp44:
.LBB5_1:
	#DEBUG_VALUE: crypto_generichash_blake2b_final:state <- $rdi
	#DEBUG_VALUE: crypto_generichash_blake2b_final:out <- $rsi
	#DEBUG_VALUE: crypto_generichash_blake2b_final:outlen <- $rdx
	pushq	%rax
	.cfi_def_cfa_offset 16
.Ltmp45:
	.loc	1 107 94                        # crypto_generichash/blake2b/ref/generichash_blake2b.c:107:94
	leaq	.L.str(%rip), %rdi
.Ltmp46:
	#DEBUG_VALUE: crypto_generichash_blake2b_final:state <- [DW_OP_LLVM_entry_value 1] $rdi
	leaq	.L.str.1(%rip), %rsi
.Ltmp47:
	#DEBUG_VALUE: crypto_generichash_blake2b_final:out <- [DW_OP_LLVM_entry_value 1] $rsi
	leaq	.L__PRETTY_FUNCTION__.crypto_generichash_blake2b_final(%rip), %rcx
	movl	$107, %edx
.Ltmp48:
	#DEBUG_VALUE: crypto_generichash_blake2b_final:outlen <- [DW_OP_LLVM_entry_value 1] $rdx
	callq	__assert_fail@PLT
.Ltmp49:
.Lfunc_end5:
	.size	crypto_generichash_blake2b_final, .Lfunc_end5-crypto_generichash_blake2b_final
	.cfi_endproc
	.file	6 "/usr/include" "assert.h"
                                        # -- End function
	.hidden	_crypto_generichash_blake2b_pick_best_implementation # -- Begin function _crypto_generichash_blake2b_pick_best_implementation
	.globl	_crypto_generichash_blake2b_pick_best_implementation
	.p2align	4
	.type	_crypto_generichash_blake2b_pick_best_implementation,@function
_crypto_generichash_blake2b_pick_best_implementation: # @_crypto_generichash_blake2b_pick_best_implementation
.Lfunc_begin6:
	.cfi_startproc
# %bb.0:
	.loc	1 115 12 prologue_end           # crypto_generichash/blake2b/ref/generichash_blake2b.c:115:12
	jmp	blake2b_pick_best_implementation@PLT # TAILCALL
.Ltmp50:
.Lfunc_end6:
	.size	_crypto_generichash_blake2b_pick_best_implementation, .Lfunc_end6-_crypto_generichash_blake2b_pick_best_implementation
	.cfi_endproc
                                        # -- End function
	.type	.L.str,@object                  # @.str
	.section	.rodata.str1.1,"aMS",@progbits,1
.L.str:
	.asciz	"outlen <= UINT8_MAX"
	.size	.L.str, 20

	.type	.L.str.1,@object                # @.str.1
.L.str.1:
	.asciz	"crypto_generichash/blake2b/ref/generichash_blake2b.c"
	.size	.L.str.1, 53

	.type	.L__PRETTY_FUNCTION__.crypto_generichash_blake2b_final,@object # @__PRETTY_FUNCTION__.crypto_generichash_blake2b_final
.L__PRETTY_FUNCTION__.crypto_generichash_blake2b_final:
	.asciz	"int crypto_generichash_blake2b_final(crypto_generichash_blake2b_state *, unsigned char *, const size_t)"
	.size	.L__PRETTY_FUNCTION__.crypto_generichash_blake2b_final, 104

	.file	7 "./include/sodium" "crypto_generichash_blake2b.h"
	.section	".note.GNU-stack","",@progbits
	.addrsig