	.file	"hash_sha256_cp.c"
	.file	0 "/home/leizhenyuu/opt/Anonymous_Repo/libsodium_o2_attr_inline/src/libsodium" "hash_sha256_cp.c" md5 0x052679764abf77c4308398810a6f8bb7
	.file	1 "/usr/include/x86_64-linux-gnu/bits" "types.h"
	.file	2 "/usr/include/x86_64-linux-gnu/bits" "stdint-uintn.h"
	.file	3 "crypto_hash/sha256/cp" "hash_sha256_cp.c"
	.text
	.globl	crypto_hash_sha256_init         # -- Begin function crypto_hash_sha256_init
	.p2align	4
	.type	crypto_hash_sha256_init,@function
crypto_hash_sha256_init:                # @crypto_hash_sha256_init
.Lfunc_begin0:
	.cfi_startproc
# %bb.0:
	#DEBUG_VALUE: crypto_hash_sha256_init:state <- $rdi
	.loc	3 184 18 prologue_end           # crypto_hash/sha256/cp/hash_sha256_cp.c:184:18
	movq	$0, 32(%rdi)
.Ltmp0:
	#DEBUG_VALUE: memcpy:__dest <- $rdi
	#DEBUG_VALUE: memcpy:__len <- 32
	.file	4 "/usr/include/x86_64-linux-gnu/bits" "string_fortified.h"
	.loc	4 29 10                         # /usr/include/x86_64-linux-gnu/bits/string_fortified.h:29:10 @[ crypto_hash/sha256/cp/hash_sha256_cp.c:185:5 ]
	movaps	crypto_hash_sha256_init.sha256_initial_state(%rip), %xmm0
	movups	%xmm0, (%rdi)
	movaps	crypto_hash_sha256_init.sha256_initial_state+16(%rip), %xmm0
	movups	%xmm0, 16(%rdi)
.Ltmp1:
	#DEBUG_VALUE: memcpy:__src <- undef
	.loc	3 187 5                         # crypto_hash/sha256/cp/hash_sha256_cp.c:187:5
	xorl	%eax, %eax
	retq
.Ltmp2:
.Lfunc_end0:
	.size	crypto_hash_sha256_init, .Lfunc_end0-crypto_hash_sha256_init
	.cfi_endproc
	.file	5 "/home/leizhenyuu/opt/Anonymous_Repo" "llvm-project/build/lib/clang/21/include/__stddef_size_t.h"
                                        # -- End function
	.globl	crypto_hash_sha256_update       # -- Begin function crypto_hash_sha256_update
	.p2align	4
	.type	crypto_hash_sha256_update,@function
crypto_hash_sha256_update:              # @crypto_hash_sha256_update
.Lfunc_begin1:
	.cfi_startproc
# %bb.0:
	#DEBUG_VALUE: crypto_hash_sha256_update:state <- $rdi
	#DEBUG_VALUE: crypto_hash_sha256_update:in <- $rsi
	#DEBUG_VALUE: crypto_hash_sha256_update:inlen <- $rdx
	.loc	3 198 15 prologue_end           # crypto_hash/sha256/cp/hash_sha256_cp.c:198:15
	testq	%rdx, %rdx
	je	.LBB1_49
.Ltmp3:
# %bb.1:
	#DEBUG_VALUE: crypto_hash_sha256_update:state <- $rdi
	#DEBUG_VALUE: crypto_hash_sha256_update:in <- $rsi
	#DEBUG_VALUE: crypto_hash_sha256_update:inlen <- $rdx
	pushq	%rbp
	.cfi_def_cfa_offset 16
	pushq	%r15
	.cfi_def_cfa_offset 24
	pushq	%r14
	.cfi_def_cfa_offset 32
	pushq	%r13
	.cfi_def_cfa_offset 40
	pushq	%r12
	.cfi_def_cfa_offset 48
	pushq	%rbx
	.cfi_def_cfa_offset 56
	subq	$296, %rsp                      # imm = 0x128
	.cfi_def_cfa_offset 352
	.cfi_offset %rbx, -56
	.cfi_offset %r12, -48
	.cfi_offset %r13, -40
	.cfi_offset %r14, -32
	.cfi_offset %r15, -24
	.cfi_offset %rbp, -16
	movq	%rsi, %rbx
	movq	%rdi, %r14
	#MEMBARRIER
	.loc	3 202 39                        # crypto_hash/sha256/cp/hash_sha256_cp.c:202:39
	movq	32(%rdi), %rax
.Ltmp4:
	#DEBUG_VALUE: crypto_hash_sha256_update:r <- undef
	.loc	3 204 18                        # crypto_hash/sha256/cp/hash_sha256_cp.c:204:18
	leaq	(%rax,%rdx,8), %rcx
                                        # kill: def $eax killed $eax killed $rax def $rax
	.loc	3 202 45                        # crypto_hash/sha256/cp/hash_sha256_cp.c:202:45
	shrl	$3, %eax
	.loc	3 202 51 is_stmt 0              # crypto_hash/sha256/cp/hash_sha256_cp.c:202:51
	andl	$63, %eax
.Ltmp5:
	#DEBUG_VALUE: crypto_hash_sha256_update:r <- $eax
	.loc	3 204 18 is_stmt 1              # crypto_hash/sha256/cp/hash_sha256_cp.c:204:18
	movq	%rcx, 32(%rdi)
	movl	$64, %r13d
.Ltmp6:
	.loc	3 205 20                        # crypto_hash/sha256/cp/hash_sha256_cp.c:205:20
	subq	%rax, %r13
	leaq	40(%rdi), %r15
	.loc	3 205 15 is_stmt 0              # crypto_hash/sha256/cp/hash_sha256_cp.c:205:15
	movq	%rdx, %rbp
	subq	%r13, %rbp
.Ltmp7:
	#DEBUG_VALUE: crypto_hash_sha256_update:i <- 0
	jae	.LBB1_4
.Ltmp8:
# %bb.2:                                # %iter.check104
	#DEBUG_VALUE: crypto_hash_sha256_update:state <- $r14
	#DEBUG_VALUE: crypto_hash_sha256_update:in <- $rbx
	#DEBUG_VALUE: crypto_hash_sha256_update:inlen <- $rdx
	#DEBUG_VALUE: crypto_hash_sha256_update:r <- $eax
	#DEBUG_VALUE: crypto_hash_sha256_update:i <- 0
	.loc	3 206 9 is_stmt 1               # crypto_hash/sha256/cp/hash_sha256_cp.c:206:9
	cmpq	$4, %rdx
	jb	.LBB1_3
.Ltmp9:
# %bb.22:                               # %vector.memcheck100
	#DEBUG_VALUE: crypto_hash_sha256_update:state <- $r14
	#DEBUG_VALUE: crypto_hash_sha256_update:in <- $rbx
	#DEBUG_VALUE: crypto_hash_sha256_update:inlen <- $rdx
	#DEBUG_VALUE: crypto_hash_sha256_update:r <- $eax
	#DEBUG_VALUE: crypto_hash_sha256_update:i <- 0
	leaq	(%rax,%r14), %rcx
	subq	%rbx, %rcx
	addq	$40, %rcx
	cmpq	$32, %rcx
.Ltmp10:
	.loc	3 206 33 is_stmt 0              # crypto_hash/sha256/cp/hash_sha256_cp.c:206:33
	jae	.LBB1_26
.Ltmp11:
.LBB1_3:
	#DEBUG_VALUE: crypto_hash_sha256_update:state <- $r14
	#DEBUG_VALUE: crypto_hash_sha256_update:in <- $rbx
	#DEBUG_VALUE: crypto_hash_sha256_update:inlen <- $rdx
	#DEBUG_VALUE: crypto_hash_sha256_update:r <- $eax
	#DEBUG_VALUE: crypto_hash_sha256_update:i <- 0
	.loc	3 0 33                          # crypto_hash/sha256/cp/hash_sha256_cp.c:0:33
	xorl	%ecx, %ecx
.Ltmp12:
.LBB1_42:                               # %.preheader.preheader
	#DEBUG_VALUE: crypto_hash_sha256_update:state <- $r14
	#DEBUG_VALUE: crypto_hash_sha256_update:in <- $rbx
	#DEBUG_VALUE: crypto_hash_sha256_update:inlen <- $rdx
	#DEBUG_VALUE: crypto_hash_sha256_update:r <- $eax
	#DEBUG_VALUE: crypto_hash_sha256_update:i <- 0
	.loc	3 206 9 is_stmt 1               # crypto_hash/sha256/cp/hash_sha256_cp.c:206:9
	movq	%rdx, %rdi
	movq	%rcx, %rsi
	andq	$3, %rdi
	je	.LBB1_45
.Ltmp13:
# %bb.43:                               # %.preheader.prol.preheader
	#DEBUG_VALUE: crypto_hash_sha256_update:state <- $r14
	#DEBUG_VALUE: crypto_hash_sha256_update:in <- $rbx
	#DEBUG_VALUE: crypto_hash_sha256_update:inlen <- $rdx
	#DEBUG_VALUE: crypto_hash_sha256_update:r <- $eax
	#DEBUG_VALUE: crypto_hash_sha256_update:i <- 0
	leaq	(%rax,%r14), %r8
	addq	$40, %r8
	movq	%rcx, %rsi
.Ltmp14:
	.loc	3 0 9 is_stmt 0                 # :0:9
.Ltmp15:
	.p2align	4
.LBB1_44:                               # %.preheader.prol
                                        # =>This Inner Loop Header: Depth=1
	#DEBUG_VALUE: crypto_hash_sha256_update:state <- $r14
	#DEBUG_VALUE: crypto_hash_sha256_update:in <- $rbx
	#DEBUG_VALUE: crypto_hash_sha256_update:inlen <- $rdx
	#DEBUG_VALUE: crypto_hash_sha256_update:r <- $eax
	#DEBUG_VALUE: crypto_hash_sha256_update:i <- $rsi
	.loc	3 207 33 is_stmt 1              # crypto_hash/sha256/cp/hash_sha256_cp.c:207:33
	movzbl	(%rbx,%rsi), %r9d
	.loc	3 207 31 is_stmt 0              # crypto_hash/sha256/cp/hash_sha256_cp.c:207:31
	movb	%r9b, (%r8,%rsi)
.Ltmp16:
	.loc	3 206 33 is_stmt 1              # crypto_hash/sha256/cp/hash_sha256_cp.c:206:33
	incq	%rsi
.Ltmp17:
	#DEBUG_VALUE: crypto_hash_sha256_update:i <- $rsi
	.loc	3 206 9 is_stmt 0               # crypto_hash/sha256/cp/hash_sha256_cp.c:206:9
	decq	%rdi
	jne	.LBB1_44
.Ltmp18:
.LBB1_45:                               # %.preheader.prol.loopexit
	#DEBUG_VALUE: crypto_hash_sha256_update:state <- $r14
	#DEBUG_VALUE: crypto_hash_sha256_update:in <- $rbx
	#DEBUG_VALUE: crypto_hash_sha256_update:inlen <- $rdx
	#DEBUG_VALUE: crypto_hash_sha256_update:r <- $eax
	subq	%rdx, %rcx
	cmpq	$-4, %rcx
	ja	.LBB1_48
.Ltmp19:
# %bb.46:                               # %.preheader.preheader.new
	#DEBUG_VALUE: crypto_hash_sha256_update:state <- $r14
	#DEBUG_VALUE: crypto_hash_sha256_update:in <- $rbx
	#DEBUG_VALUE: crypto_hash_sha256_update:inlen <- $rdx
	#DEBUG_VALUE: crypto_hash_sha256_update:r <- $eax
	addq	%r14, %rax
.Ltmp20:
	addq	$43, %rax
.Ltmp21:
	.loc	3 0 9                           # :0:9
.Ltmp22:
	.p2align	4
.LBB1_47:                               # %.preheader
                                        # =>This Inner Loop Header: Depth=1
	#DEBUG_VALUE: crypto_hash_sha256_update:state <- $r14
	#DEBUG_VALUE: crypto_hash_sha256_update:in <- $rbx
	#DEBUG_VALUE: crypto_hash_sha256_update:inlen <- $rdx
	#DEBUG_VALUE: crypto_hash_sha256_update:i <- $rsi
	.loc	3 207 33 is_stmt 1              # crypto_hash/sha256/cp/hash_sha256_cp.c:207:33
	movzbl	(%rbx,%rsi), %ecx
	.loc	3 207 31 is_stmt 0              # crypto_hash/sha256/cp/hash_sha256_cp.c:207:31
	movb	%cl, -3(%rax,%rsi)
.Ltmp23:
	#DEBUG_VALUE: crypto_hash_sha256_update:i <- [DW_OP_plus_uconst 1, DW_OP_stack_value] $rsi
	.loc	3 207 33                        # crypto_hash/sha256/cp/hash_sha256_cp.c:207:33
	movzbl	1(%rbx,%rsi), %ecx
	.loc	3 207 31                        # crypto_hash/sha256/cp/hash_sha256_cp.c:207:31
	movb	%cl, -2(%rax,%rsi)
.Ltmp24:
	#DEBUG_VALUE: crypto_hash_sha256_update:i <- [DW_OP_plus_uconst 2, DW_OP_stack_value] $rsi
	.loc	3 207 33                        # crypto_hash/sha256/cp/hash_sha256_cp.c:207:33
	movzbl	2(%rbx,%rsi), %ecx
	.loc	3 207 31                        # crypto_hash/sha256/cp/hash_sha256_cp.c:207:31
	movb	%cl, -1(%rax,%rsi)
.Ltmp25:
	#DEBUG_VALUE: crypto_hash_sha256_update:i <- [DW_OP_plus_uconst 3, DW_OP_stack_value] $rsi
	.loc	3 207 33                        # crypto_hash/sha256/cp/hash_sha256_cp.c:207:33
	movzbl	3(%rbx,%rsi), %ecx
	.loc	3 207 31                        # crypto_hash/sha256/cp/hash_sha256_cp.c:207:31
	movb	%cl, (%rax,%rsi)
.Ltmp26:
	.loc	3 206 33 is_stmt 1              # crypto_hash/sha256/cp/hash_sha256_cp.c:206:33
	addq	$4, %rsi
.Ltmp27:
	#DEBUG_VALUE: crypto_hash_sha256_update:i <- $rsi
	.loc	3 206 23 is_stmt 0              # crypto_hash/sha256/cp/hash_sha256_cp.c:206:23
	cmpq	%rsi, %rdx
.Ltmp28:
	.loc	3 206 9                         # crypto_hash/sha256/cp/hash_sha256_cp.c:206:9
	jne	.LBB1_47
	jmp	.LBB1_48
.Ltmp29:
.LBB1_4:                                # %iter.check
	#DEBUG_VALUE: crypto_hash_sha256_update:state <- $r14
	#DEBUG_VALUE: crypto_hash_sha256_update:in <- $rbx
	#DEBUG_VALUE: crypto_hash_sha256_update:inlen <- $rdx
	#DEBUG_VALUE: crypto_hash_sha256_update:r <- $eax
	#DEBUG_VALUE: crypto_hash_sha256_update:i <- 0
	.loc	3 211 5 is_stmt 1               # crypto_hash/sha256/cp/hash_sha256_cp.c:211:5
	cmpl	$61, %eax
	jae	.LBB1_6
.Ltmp30:
# %bb.5:                                # %vector.memcheck
	#DEBUG_VALUE: crypto_hash_sha256_update:state <- $r14
	#DEBUG_VALUE: crypto_hash_sha256_update:in <- $rbx
	#DEBUG_VALUE: crypto_hash_sha256_update:inlen <- $rdx
	#DEBUG_VALUE: crypto_hash_sha256_update:r <- $eax
	#DEBUG_VALUE: crypto_hash_sha256_update:i <- 0
	leaq	(%rax,%r14), %rcx
	subq	%rbx, %rcx
	addq	$40, %rcx
	cmpq	$32, %rcx
.Ltmp31:
	.loc	3 211 30 is_stmt 0              # crypto_hash/sha256/cp/hash_sha256_cp.c:211:30
	jae	.LBB1_24
.Ltmp32:
.LBB1_6:
	#DEBUG_VALUE: crypto_hash_sha256_update:state <- $r14
	#DEBUG_VALUE: crypto_hash_sha256_update:in <- $rbx
	#DEBUG_VALUE: crypto_hash_sha256_update:inlen <- $rdx
	#DEBUG_VALUE: crypto_hash_sha256_update:r <- $eax
	#DEBUG_VALUE: crypto_hash_sha256_update:i <- 0
	.loc	3 0 30                          # crypto_hash/sha256/cp/hash_sha256_cp.c:0:30
	xorl	%ecx, %ecx
.Ltmp33:
.LBB1_7:                                # %.preheader46.preheader
	#DEBUG_VALUE: crypto_hash_sha256_update:state <- $r14
	#DEBUG_VALUE: crypto_hash_sha256_update:in <- $rbx
	#DEBUG_VALUE: crypto_hash_sha256_update:inlen <- [DW_OP_LLVM_entry_value 1] $rdx
	#DEBUG_VALUE: crypto_hash_sha256_update:r <- $eax
	#DEBUG_VALUE: crypto_hash_sha256_update:i <- 0
	.loc	3 211 5 is_stmt 1               # crypto_hash/sha256/cp/hash_sha256_cp.c:211:5
	addq	%r14, %rax
.Ltmp34:
	addq	$40, %rax
.Ltmp35:
	.loc	3 0 5 is_stmt 0                 # :0:5
.Ltmp36:
	.p2align	4
.LBB1_8:                                # %.preheader46
                                        # =>This Inner Loop Header: Depth=1
	#DEBUG_VALUE: crypto_hash_sha256_update:state <- $r14
	#DEBUG_VALUE: crypto_hash_sha256_update:in <- $rbx
	#DEBUG_VALUE: crypto_hash_sha256_update:inlen <- [DW_OP_LLVM_entry_value 1] $rdx
	#DEBUG_VALUE: crypto_hash_sha256_update:i <- $rcx
	.loc	3 212 29 is_stmt 1              # crypto_hash/sha256/cp/hash_sha256_cp.c:212:29
	movzbl	(%rbx,%rcx), %edx
	.loc	3 212 27 is_stmt 0              # crypto_hash/sha256/cp/hash_sha256_cp.c:212:27
	movb	%dl, (%rax,%rcx)
.Ltmp37:
	.loc	3 211 30 is_stmt 1              # crypto_hash/sha256/cp/hash_sha256_cp.c:211:30
	incq	%rcx
.Ltmp38:
	#DEBUG_VALUE: crypto_hash_sha256_update:i <- $rcx
	.loc	3 211 19 is_stmt 0              # crypto_hash/sha256/cp/hash_sha256_cp.c:211:19
	cmpq	%rcx, %r13
	jne	.LBB1_8
.Ltmp39:
.LBB1_9:                                # %.loopexit132
	#DEBUG_VALUE: crypto_hash_sha256_update:state <- $r14
	#DEBUG_VALUE: crypto_hash_sha256_update:in <- $rbx
	#DEBUG_VALUE: crypto_hash_sha256_update:inlen <- [DW_OP_LLVM_entry_value 1] $rdx
	.loc	3 214 60 is_stmt 1              # crypto_hash/sha256/cp/hash_sha256_cp.c:214:60
	leaq	256(%rsp), %r12
	movq	%rsp, %rdx
	.loc	3 214 5 is_stmt 0               # crypto_hash/sha256/cp/hash_sha256_cp.c:214:5
	movq	%r14, %rdi
	movq	%r15, %rsi
	movq	%r12, %rcx
	callq	SHA256_Transform
.Ltmp40:
	.loc	3 215 8 is_stmt 1               # crypto_hash/sha256/cp/hash_sha256_cp.c:215:8
	addq	%r13, %rbx
.Ltmp41:
	#DEBUG_VALUE: crypto_hash_sha256_update:in <- [DW_OP_LLVM_entry_value 1] $rsi
	#DEBUG_VALUE: crypto_hash_sha256_update:in <- $rbx
	#DEBUG_VALUE: crypto_hash_sha256_update:inlen <- undef
	.loc	3 218 18                        # crypto_hash/sha256/cp/hash_sha256_cp.c:218:18
	cmpq	$64, %rbp
	jb	.LBB1_12
.Ltmp42:
# %bb.10:
	#DEBUG_VALUE: crypto_hash_sha256_update:state <- $r14
	#DEBUG_VALUE: crypto_hash_sha256_update:in <- $rbx
	.loc	3 0 18 is_stmt 0                # crypto_hash/sha256/cp/hash_sha256_cp.c:0:18
	movq	%rsp, %r13
.Ltmp43:
	.p2align	4
.LBB1_11:                               # %.lr.ph
                                        # =>This Inner Loop Header: Depth=1
	#DEBUG_VALUE: crypto_hash_sha256_update:state <- $r14
	#DEBUG_VALUE: crypto_hash_sha256_update:in <- $rbx
	#DEBUG_VALUE: crypto_hash_sha256_update:inlen <- $rbp
	#DEBUG_VALUE: crypto_hash_sha256_update:in <- $rbx
	.loc	3 219 9 is_stmt 1               # crypto_hash/sha256/cp/hash_sha256_cp.c:219:9
	movq	%r14, %rdi
	movq	%rbx, %rsi
	movq	%r13, %rdx
	movq	%r12, %rcx
	callq	SHA256_Transform
.Ltmp44:
	.loc	3 220 12                        # crypto_hash/sha256/cp/hash_sha256_cp.c:220:12
	addq	$64, %rbx
.Ltmp45:
	#DEBUG_VALUE: crypto_hash_sha256_update:in <- $rbx
	.loc	3 221 15                        # crypto_hash/sha256/cp/hash_sha256_cp.c:221:15
	addq	$-64, %rbp
.Ltmp46:
	#DEBUG_VALUE: crypto_hash_sha256_update:inlen <- $rbp
	.loc	3 218 18                        # crypto_hash/sha256/cp/hash_sha256_cp.c:218:18
	cmpq	$63, %rbp
	.loc	3 218 5 is_stmt 0               # crypto_hash/sha256/cp/hash_sha256_cp.c:218:5
	ja	.LBB1_11
.Ltmp47:
.LBB1_12:                               # %.preheader45
	#DEBUG_VALUE: crypto_hash_sha256_update:state <- $r14
	#DEBUG_VALUE: crypto_hash_sha256_update:in <- $rbx
	#DEBUG_VALUE: crypto_hash_sha256_update:i <- 0
	.loc	3 224 19 is_stmt 1              # crypto_hash/sha256/cp/hash_sha256_cp.c:224:19
	testq	%rbp, %rbp
.Ltmp48:
	.loc	3 224 5 is_stmt 0               # crypto_hash/sha256/cp/hash_sha256_cp.c:224:5
	je	.LBB1_21
.Ltmp49:
# %bb.13:                               # %iter.check72
	#DEBUG_VALUE: crypto_hash_sha256_update:state <- $r14
	#DEBUG_VALUE: crypto_hash_sha256_update:in <- $rbx
	#DEBUG_VALUE: crypto_hash_sha256_update:i <- 0
	cmpq	$3, %rbp
	jbe	.LBB1_15
.Ltmp50:
# %bb.14:                               # %vector.memcheck67
	#DEBUG_VALUE: crypto_hash_sha256_update:state <- $r14
	#DEBUG_VALUE: crypto_hash_sha256_update:in <- $rbx
	#DEBUG_VALUE: crypto_hash_sha256_update:i <- 0
	movq	%r14, %rax
	subq	%rbx, %rax
	addq	$40, %rax
	cmpq	$32, %rax
.Ltmp51:
	.loc	3 224 29                        # crypto_hash/sha256/cp/hash_sha256_cp.c:224:29
	jae	.LBB1_28
.Ltmp52:
.LBB1_15:
	#DEBUG_VALUE: crypto_hash_sha256_update:state <- $r14
	#DEBUG_VALUE: crypto_hash_sha256_update:in <- $rbx
	#DEBUG_VALUE: crypto_hash_sha256_update:i <- 0
	.loc	3 0 29                          # crypto_hash/sha256/cp/hash_sha256_cp.c:0:29
	xorl	%eax, %eax
.Ltmp53:
.LBB1_16:                               # %.lr.ph52.preheader
	#DEBUG_VALUE: crypto_hash_sha256_update:state <- $r14
	#DEBUG_VALUE: crypto_hash_sha256_update:in <- $rbx
	#DEBUG_VALUE: crypto_hash_sha256_update:i <- 0
	.loc	3 224 5 is_stmt 1               # crypto_hash/sha256/cp/hash_sha256_cp.c:224:5
	movq	%rbp, %rdx
	movq	%rax, %rcx
	andq	$3, %rdx
	je	.LBB1_19
.Ltmp54:
# %bb.17:                               # %.lr.ph52.prol.preheader
	#DEBUG_VALUE: crypto_hash_sha256_update:state <- $r14
	#DEBUG_VALUE: crypto_hash_sha256_update:in <- $rbx
	#DEBUG_VALUE: crypto_hash_sha256_update:i <- 0
	.loc	3 0 5 is_stmt 0                 # crypto_hash/sha256/cp/hash_sha256_cp.c:0:5
	movq	%rax, %rcx
.Ltmp55:
	.p2align	4
.LBB1_18:                               # %.lr.ph52.prol
                                        # =>This Inner Loop Header: Depth=1
	#DEBUG_VALUE: crypto_hash_sha256_update:state <- $r14
	#DEBUG_VALUE: crypto_hash_sha256_update:in <- $rbx
	#DEBUG_VALUE: crypto_hash_sha256_update:i <- $rcx
	.loc	3 225 25 is_stmt 1              # crypto_hash/sha256/cp/hash_sha256_cp.c:225:25
	movzbl	(%rbx,%rcx), %esi
	.loc	3 225 23 is_stmt 0              # crypto_hash/sha256/cp/hash_sha256_cp.c:225:23
	movb	%sil, (%r15,%rcx)
.Ltmp56:
	.loc	3 224 29 is_stmt 1              # crypto_hash/sha256/cp/hash_sha256_cp.c:224:29
	incq	%rcx
.Ltmp57:
	#DEBUG_VALUE: crypto_hash_sha256_update:i <- $rcx
	.loc	3 224 5 is_stmt 0               # crypto_hash/sha256/cp/hash_sha256_cp.c:224:5
	decq	%rdx
	jne	.LBB1_18
.Ltmp58:
.LBB1_19:                               # %.lr.ph52.prol.loopexit
	#DEBUG_VALUE: crypto_hash_sha256_update:state <- $r14
	#DEBUG_VALUE: crypto_hash_sha256_update:in <- $rbx
	subq	%rbp, %rax
	cmpq	$-4, %rax
	ja	.LBB1_21
.Ltmp59:
	.loc	3 0 5                           # :0:5
.Ltmp60:
	.p2align	4
.LBB1_20:                               # %.lr.ph52
                                        # =>This Inner Loop Header: Depth=1
	#DEBUG_VALUE: crypto_hash_sha256_update:state <- $r14
	#DEBUG_VALUE: crypto_hash_sha256_update:in <- $rbx
	#DEBUG_VALUE: crypto_hash_sha256_update:i <- $rcx
	.loc	3 225 25 is_stmt 1              # crypto_hash/sha256/cp/hash_sha256_cp.c:225:25
	movzbl	(%rbx,%rcx), %eax
	.loc	3 225 23 is_stmt 0              # crypto_hash/sha256/cp/hash_sha256_cp.c:225:23
	movb	%al, 40(%r14,%rcx)
.Ltmp61:
	#DEBUG_VALUE: crypto_hash_sha256_update:i <- [DW_OP_plus_uconst 1, DW_OP_stack_value] $rcx
	.loc	3 225 25                        # crypto_hash/sha256/cp/hash_sha256_cp.c:225:25
	movzbl	1(%rbx,%rcx), %eax
	.loc	3 225 23                        # crypto_hash/sha256/cp/hash_sha256_cp.c:225:23
	movb	%al, 41(%r14,%rcx)
.Ltmp62:
	#DEBUG_VALUE: crypto_hash_sha256_update:i <- [DW_OP_plus_uconst 2, DW_OP_stack_value] $rcx
	.loc	3 225 25                        # crypto_hash/sha256/cp/hash_sha256_cp.c:225:25
	movzbl	2(%rbx,%rcx), %eax
	.loc	3 225 23                        # crypto_hash/sha256/cp/hash_sha256_cp.c:225:23
	movb	%al, 42(%r14,%rcx)
.Ltmp63:
	#DEBUG_VALUE: crypto_hash_sha256_update:i <- [DW_OP_plus_uconst 3, DW_OP_stack_value] $rcx
	.loc	3 225 25                        # crypto_hash/sha256/cp/hash_sha256_cp.c:225:25
	movzbl	3(%rbx,%rcx), %eax
	.loc	3 225 23                        # crypto_hash/sha256/cp/hash_sha256_cp.c:225:23
	movb	%al, 43(%r14,%rcx)
.Ltmp64:
	.loc	3 224 29 is_stmt 1              # crypto_hash/sha256/cp/hash_sha256_cp.c:224:29
	addq	$4, %rcx
.Ltmp65:
	#DEBUG_VALUE: crypto_hash_sha256_update:i <- $rcx
	.loc	3 224 19 is_stmt 0              # crypto_hash/sha256/cp/hash_sha256_cp.c:224:19
	cmpq	%rcx, %rbp
	jne	.LBB1_20
.Ltmp66:
.LBB1_21:                               # %._crit_edge
	#DEBUG_VALUE: crypto_hash_sha256_update:state <- $r14
	#DEBUG_VALUE: crypto_hash_sha256_update:in <- $rbx
	.loc	3 0 19                          # crypto_hash/sha256/cp/hash_sha256_cp.c:0:19
	movq	%rsp, %rdi
	.loc	3 227 5 is_stmt 1               # crypto_hash/sha256/cp/hash_sha256_cp.c:227:5
	movl	$288, %esi                      # imm = 0x120
	callq	sodium_memzero@PLT
.Ltmp67:
.LBB1_48:
	#DEBUG_VALUE: crypto_hash_sha256_update:state <- $r14
	#DEBUG_VALUE: crypto_hash_sha256_update:in <- $rbx
	.loc	3 0 5 is_stmt 0                 # crypto_hash/sha256/cp/hash_sha256_cp.c:0:5
	addq	$296, %rsp                      # imm = 0x128
	.cfi_def_cfa_offset 56
	popq	%rbx
.Ltmp68:
	.cfi_def_cfa_offset 48
	popq	%r12
	.cfi_def_cfa_offset 40
	popq	%r13
	.cfi_def_cfa_offset 32
	popq	%r14
.Ltmp69:
	#DEBUG_VALUE: crypto_hash_sha256_update:state <- [DW_OP_LLVM_entry_value 1] $rdi
	.cfi_def_cfa_offset 24
	popq	%r15
	.cfi_def_cfa_offset 16
	popq	%rbp
	.cfi_def_cfa_offset 8
	.cfi_restore %rbx
	.cfi_restore %r12
	.cfi_restore %r13
	.cfi_restore %r14
	.cfi_restore %r15
	.cfi_restore %rbp
.Ltmp70:
.LBB1_49:                               # %.loopexit
	#DEBUG_VALUE: crypto_hash_sha256_update:state <- [DW_OP_LLVM_entry_value 1] $rdi
	.loc	3 230 1 is_stmt 1               # crypto_hash/sha256/cp/hash_sha256_cp.c:230:1
	xorl	%eax, %eax
	retq
.Ltmp71:
.LBB1_26:                               # %vector.main.loop.iter.check106
	.cfi_def_cfa_offset 352
	.cfi_offset %rbx, -56
	.cfi_offset %rbp, -16
	.cfi_offset %r12, -48
	.cfi_offset %r13, -40
	.cfi_offset %r14, -32
	.cfi_offset %r15, -24
	#DEBUG_VALUE: crypto_hash_sha256_update:state <- $r14
	#DEBUG_VALUE: crypto_hash_sha256_update:in <- $rbx
	#DEBUG_VALUE: crypto_hash_sha256_update:inlen <- $rdx
	#DEBUG_VALUE: crypto_hash_sha256_update:r <- $eax
	#DEBUG_VALUE: crypto_hash_sha256_update:i <- 0
	.loc	3 206 9                         # crypto_hash/sha256/cp/hash_sha256_cp.c:206:9
	cmpq	$32, %rdx
	jae	.LBB1_37
.Ltmp72:
# %bb.27:
	#DEBUG_VALUE: crypto_hash_sha256_update:state <- $r14
	#DEBUG_VALUE: crypto_hash_sha256_update:in <- $rbx
	#DEBUG_VALUE: crypto_hash_sha256_update:inlen <- $rdx
	#DEBUG_VALUE: crypto_hash_sha256_update:r <- $eax
	#DEBUG_VALUE: crypto_hash_sha256_update:i <- 0
	.loc	3 0 9 is_stmt 0                 # crypto_hash/sha256/cp/hash_sha256_cp.c:0:9
	xorl	%ecx, %ecx
	.loc	3 206 9                         # crypto_hash/sha256/cp/hash_sha256_cp.c:206:9
	jmp	.LBB1_39
.Ltmp73:
.LBB1_24:                               # %vector.main.loop.iter.check
	#DEBUG_VALUE: crypto_hash_sha256_update:state <- $r14
	#DEBUG_VALUE: crypto_hash_sha256_update:in <- $rbx
	#DEBUG_VALUE: crypto_hash_sha256_update:inlen <- $rdx
	#DEBUG_VALUE: crypto_hash_sha256_update:r <- $eax
	#DEBUG_VALUE: crypto_hash_sha256_update:i <- 0
	.loc	3 211 5 is_stmt 1               # crypto_hash/sha256/cp/hash_sha256_cp.c:211:5
	cmpl	$32, %eax
	jbe	.LBB1_30
.Ltmp74:
# %bb.25:
	#DEBUG_VALUE: crypto_hash_sha256_update:state <- $r14
	#DEBUG_VALUE: crypto_hash_sha256_update:in <- $rbx
	#DEBUG_VALUE: crypto_hash_sha256_update:inlen <- $rdx
	#DEBUG_VALUE: crypto_hash_sha256_update:r <- $eax
	#DEBUG_VALUE: crypto_hash_sha256_update:i <- 0
	.loc	3 0 5 is_stmt 0                 # crypto_hash/sha256/cp/hash_sha256_cp.c:0:5
	xorl	%ecx, %ecx
	.loc	3 211 5                         # crypto_hash/sha256/cp/hash_sha256_cp.c:211:5
	jmp	.LBB1_34
.Ltmp75:
.LBB1_28:                               # %vector.main.loop.iter.check74
	#DEBUG_VALUE: crypto_hash_sha256_update:state <- $r14
	#DEBUG_VALUE: crypto_hash_sha256_update:in <- $rbx
	#DEBUG_VALUE: crypto_hash_sha256_update:i <- 0
	.loc	3 224 5 is_stmt 1               # crypto_hash/sha256/cp/hash_sha256_cp.c:224:5
	cmpq	$32, %rbp
	jae	.LBB1_50
.Ltmp76:
# %bb.29:
	#DEBUG_VALUE: crypto_hash_sha256_update:state <- $r14
	#DEBUG_VALUE: crypto_hash_sha256_update:in <- $rbx
	#DEBUG_VALUE: crypto_hash_sha256_update:i <- 0
	.loc	3 0 5 is_stmt 0                 # crypto_hash/sha256/cp/hash_sha256_cp.c:0:5
	xorl	%eax, %eax
	.loc	3 224 5                         # crypto_hash/sha256/cp/hash_sha256_cp.c:224:5
	jmp	.LBB1_54
.Ltmp77:
.LBB1_37:                               # %vector.ph107
	#DEBUG_VALUE: crypto_hash_sha256_update:state <- $r14
	#DEBUG_VALUE: crypto_hash_sha256_update:in <- $rbx
	#DEBUG_VALUE: crypto_hash_sha256_update:inlen <- $rdx
	#DEBUG_VALUE: crypto_hash_sha256_update:r <- $eax
	#DEBUG_VALUE: crypto_hash_sha256_update:i <- 0
	.loc	3 206 9 is_stmt 1               # crypto_hash/sha256/cp/hash_sha256_cp.c:206:9
	movq	%rdx, %rcx
	andq	$-32, %rcx
.Ltmp78:
	.loc	3 207 33                        # crypto_hash/sha256/cp/hash_sha256_cp.c:207:33
	movups	(%rbx), %xmm0
	movups	16(%rbx), %xmm1
	.loc	3 207 31 is_stmt 0              # crypto_hash/sha256/cp/hash_sha256_cp.c:207:31
	movups	%xmm0, (%r15,%rax)
	movups	%xmm1, 16(%r15,%rax)
.Ltmp79:
	.loc	3 206 9 is_stmt 1               # crypto_hash/sha256/cp/hash_sha256_cp.c:206:9
	cmpq	%rcx, %rdx
	je	.LBB1_48
.Ltmp80:
# %bb.38:                               # %vec.epilog.iter.check120
	#DEBUG_VALUE: crypto_hash_sha256_update:state <- $r14
	#DEBUG_VALUE: crypto_hash_sha256_update:in <- $rbx
	#DEBUG_VALUE: crypto_hash_sha256_update:inlen <- $rdx
	#DEBUG_VALUE: crypto_hash_sha256_update:r <- $eax
	#DEBUG_VALUE: crypto_hash_sha256_update:i <- 0
	testb	$28, %dl
	je	.LBB1_42
.Ltmp81:
.LBB1_39:                               # %vec.epilog.ph119
	#DEBUG_VALUE: crypto_hash_sha256_update:state <- $r14
	#DEBUG_VALUE: crypto_hash_sha256_update:in <- $rbx
	#DEBUG_VALUE: crypto_hash_sha256_update:inlen <- $rdx
	#DEBUG_VALUE: crypto_hash_sha256_update:r <- $eax
	#DEBUG_VALUE: crypto_hash_sha256_update:i <- 0
	.loc	3 0 9 is_stmt 0                 # crypto_hash/sha256/cp/hash_sha256_cp.c:0:9
	movq	%rcx, %rsi
	.loc	3 206 9                         # crypto_hash/sha256/cp/hash_sha256_cp.c:206:9
	movq	%rdx, %rcx
	andq	$-4, %rcx
	leaq	(%rax,%r14), %rdi
	addq	$40, %rdi
.Ltmp82:
	.loc	3 0 9                           # :0:9
.Ltmp83:
	.p2align	4
.LBB1_40:                               # %vec.epilog.vector.body125
                                        # =>This Inner Loop Header: Depth=1
	#DEBUG_VALUE: crypto_hash_sha256_update:state <- $r14
	#DEBUG_VALUE: crypto_hash_sha256_update:in <- $rbx
	#DEBUG_VALUE: crypto_hash_sha256_update:inlen <- $rdx
	#DEBUG_VALUE: crypto_hash_sha256_update:r <- $eax
	#DEBUG_VALUE: crypto_hash_sha256_update:i <- 0
	.loc	3 207 33 is_stmt 1              # crypto_hash/sha256/cp/hash_sha256_cp.c:207:33
	movl	(%rbx,%rsi), %r8d
	.loc	3 207 31 is_stmt 0              # crypto_hash/sha256/cp/hash_sha256_cp.c:207:31
	movl	%r8d, (%rdi,%rsi)
.Ltmp84:
	.loc	3 206 33 is_stmt 1              # crypto_hash/sha256/cp/hash_sha256_cp.c:206:33
	addq	$4, %rsi
	cmpq	%rsi, %rcx
	jne	.LBB1_40
.Ltmp85:
# %bb.41:                               # %vec.epilog.middle.block129
	#DEBUG_VALUE: crypto_hash_sha256_update:state <- $r14
	#DEBUG_VALUE: crypto_hash_sha256_update:in <- $rbx
	#DEBUG_VALUE: crypto_hash_sha256_update:inlen <- $rdx
	#DEBUG_VALUE: crypto_hash_sha256_update:r <- $eax
	#DEBUG_VALUE: crypto_hash_sha256_update:i <- 0
	.loc	3 206 9 is_stmt 0               # crypto_hash/sha256/cp/hash_sha256_cp.c:206:9
	cmpq	%rcx, %rdx
	je	.LBB1_48
	jmp	.LBB1_42
.Ltmp86:
.LBB1_30:                               # %vector.ph
	#DEBUG_VALUE: crypto_hash_sha256_update:state <- $r14
	#DEBUG_VALUE: crypto_hash_sha256_update:in <- $rbx
	#DEBUG_VALUE: crypto_hash_sha256_update:inlen <- $rdx
	#DEBUG_VALUE: crypto_hash_sha256_update:r <- $eax
	#DEBUG_VALUE: crypto_hash_sha256_update:i <- 0
	.loc	3 211 5 is_stmt 1               # crypto_hash/sha256/cp/hash_sha256_cp.c:211:5
	movl	%r13d, %ecx
	andl	$-32, %ecx
.Ltmp87:
	.loc	3 212 29                        # crypto_hash/sha256/cp/hash_sha256_cp.c:212:29
	movups	(%rbx), %xmm0
	movups	16(%rbx), %xmm1
	.loc	3 212 27 is_stmt 0              # crypto_hash/sha256/cp/hash_sha256_cp.c:212:27
	movups	%xmm0, (%r15,%rax)
	movups	%xmm1, 16(%r15,%rax)
.Ltmp88:
	.loc	3 211 30 is_stmt 1              # crypto_hash/sha256/cp/hash_sha256_cp.c:211:30
	cmpq	$32, %rcx
	je	.LBB1_32
.Ltmp89:
# %bb.31:                               # %vector.body.1
	#DEBUG_VALUE: crypto_hash_sha256_update:state <- $r14
	#DEBUG_VALUE: crypto_hash_sha256_update:in <- $rbx
	#DEBUG_VALUE: crypto_hash_sha256_update:inlen <- $rdx
	#DEBUG_VALUE: crypto_hash_sha256_update:r <- $eax
	#DEBUG_VALUE: crypto_hash_sha256_update:i <- 0
	.loc	3 212 29                        # crypto_hash/sha256/cp/hash_sha256_cp.c:212:29
	movups	32(%rbx), %xmm0
	movups	48(%rbx), %xmm1
	.loc	3 212 27 is_stmt 0              # crypto_hash/sha256/cp/hash_sha256_cp.c:212:27
	movups	%xmm0, 32(%rax,%r15)
	movups	%xmm1, 48(%rax,%r15)
.Ltmp90:
.LBB1_32:                               # %middle.block
	#DEBUG_VALUE: crypto_hash_sha256_update:state <- $r14
	#DEBUG_VALUE: crypto_hash_sha256_update:in <- $rbx
	#DEBUG_VALUE: crypto_hash_sha256_update:inlen <- $rdx
	#DEBUG_VALUE: crypto_hash_sha256_update:r <- $eax
	#DEBUG_VALUE: crypto_hash_sha256_update:i <- 0
	.loc	3 211 5 is_stmt 1               # crypto_hash/sha256/cp/hash_sha256_cp.c:211:5
	cmpl	%ecx, %r13d
	je	.LBB1_9
.Ltmp91:
# %bb.33:                               # %vec.epilog.iter.check
	#DEBUG_VALUE: crypto_hash_sha256_update:state <- $r14
	#DEBUG_VALUE: crypto_hash_sha256_update:in <- $rbx
	#DEBUG_VALUE: crypto_hash_sha256_update:inlen <- $rdx
	#DEBUG_VALUE: crypto_hash_sha256_update:r <- $eax
	#DEBUG_VALUE: crypto_hash_sha256_update:i <- 0
	testb	$28, %r13b
	je	.LBB1_7
.Ltmp92:
.LBB1_34:                               # %vec.epilog.ph
	#DEBUG_VALUE: crypto_hash_sha256_update:state <- $r14
	#DEBUG_VALUE: crypto_hash_sha256_update:in <- $rbx
	#DEBUG_VALUE: crypto_hash_sha256_update:inlen <- $rdx
	#DEBUG_VALUE: crypto_hash_sha256_update:r <- $eax
	#DEBUG_VALUE: crypto_hash_sha256_update:i <- 0
	.loc	3 0 5 is_stmt 0                 # crypto_hash/sha256/cp/hash_sha256_cp.c:0:5
	movq	%rcx, %rdx
.Ltmp93:
	#DEBUG_VALUE: crypto_hash_sha256_update:inlen <- [DW_OP_LLVM_entry_value 1] $rdx
	.loc	3 211 5                         # crypto_hash/sha256/cp/hash_sha256_cp.c:211:5
	movl	%r13d, %ecx
	andl	$-4, %ecx
	leaq	(%rax,%r14), %rsi
	addq	$40, %rsi
.Ltmp94:
	.loc	3 0 5                           # :0:5
.Ltmp95:
	.p2align	4
.LBB1_35:                               # %vec.epilog.vector.body
                                        # =>This Inner Loop Header: Depth=1
	#DEBUG_VALUE: crypto_hash_sha256_update:state <- $r14
	#DEBUG_VALUE: crypto_hash_sha256_update:in <- $rbx
	#DEBUG_VALUE: crypto_hash_sha256_update:inlen <- [DW_OP_LLVM_entry_value 1] $rdx
	#DEBUG_VALUE: crypto_hash_sha256_update:r <- $eax
	#DEBUG_VALUE: crypto_hash_sha256_update:i <- 0
	.loc	3 212 29 is_stmt 1              # crypto_hash/sha256/cp/hash_sha256_cp.c:212:29
	movl	(%rbx,%rdx), %edi
	.loc	3 212 27 is_stmt 0              # crypto_hash/sha256/cp/hash_sha256_cp.c:212:27
	movl	%edi, (%rsi,%rdx)
.Ltmp96:
	.loc	3 211 30 is_stmt 1              # crypto_hash/sha256/cp/hash_sha256_cp.c:211:30
	addq	$4, %rdx
	cmpq	%rdx, %rcx
	jne	.LBB1_35
.Ltmp97:
# %bb.36:                               # %vec.epilog.middle.block
	#DEBUG_VALUE: crypto_hash_sha256_update:state <- $r14
	#DEBUG_VALUE: crypto_hash_sha256_update:in <- $rbx
	#DEBUG_VALUE: crypto_hash_sha256_update:inlen <- [DW_OP_LLVM_entry_value 1] $rdx
	#DEBUG_VALUE: crypto_hash_sha256_update:r <- $eax
	#DEBUG_VALUE: crypto_hash_sha256_update:i <- 0
	.loc	3 211 5 is_stmt 0               # crypto_hash/sha256/cp/hash_sha256_cp.c:211:5
	cmpl	%ecx, %r13d
	jne	.LBB1_7
	jmp	.LBB1_9
.Ltmp98:
.LBB1_50:                               # %vector.ph75
	#DEBUG_VALUE: crypto_hash_sha256_update:state <- $r14
	#DEBUG_VALUE: crypto_hash_sha256_update:in <- $rbx
	#DEBUG_VALUE: crypto_hash_sha256_update:i <- 0
	.loc	3 224 5 is_stmt 1               # crypto_hash/sha256/cp/hash_sha256_cp.c:224:5
	movl	%ebp, %eax
	andl	$32, %eax
	xorl	%ecx, %ecx
.Ltmp99:
	.loc	3 0 5 is_stmt 0                 # :0:5
.Ltmp100:
	.p2align	4
.LBB1_51:                               # %vector.body78
                                        # =>This Inner Loop Header: Depth=1
	#DEBUG_VALUE: crypto_hash_sha256_update:state <- $r14
	#DEBUG_VALUE: crypto_hash_sha256_update:in <- $rbx
	#DEBUG_VALUE: crypto_hash_sha256_update:i <- 0
	.loc	3 225 25 is_stmt 1              # crypto_hash/sha256/cp/hash_sha256_cp.c:225:25
	movups	(%rbx,%rcx), %xmm0
	movups	16(%rbx,%rcx), %xmm1
	.loc	3 225 23 is_stmt 0              # crypto_hash/sha256/cp/hash_sha256_cp.c:225:23
	movups	%xmm0, 40(%r14,%rcx)
	movups	%xmm1, 56(%r14,%rcx)
.Ltmp101:
	.loc	3 224 29 is_stmt 1              # crypto_hash/sha256/cp/hash_sha256_cp.c:224:29
	addq	$32, %rcx
	cmpq	%rcx, %rax
	jne	.LBB1_51
.Ltmp102:
# %bb.52:                               # %middle.block83
	#DEBUG_VALUE: crypto_hash_sha256_update:state <- $r14
	#DEBUG_VALUE: crypto_hash_sha256_update:in <- $rbx
	#DEBUG_VALUE: crypto_hash_sha256_update:i <- 0
	.loc	3 224 5 is_stmt 0               # crypto_hash/sha256/cp/hash_sha256_cp.c:224:5
	cmpq	%rax, %rbp
	je	.LBB1_21
.Ltmp103:
# %bb.53:                               # %vec.epilog.iter.check88
	#DEBUG_VALUE: crypto_hash_sha256_update:state <- $r14
	#DEBUG_VALUE: crypto_hash_sha256_update:in <- $rbx
	#DEBUG_VALUE: crypto_hash_sha256_update:i <- 0
	testb	$28, %bpl
	je	.LBB1_16
.Ltmp104:
.LBB1_54:                               # %vec.epilog.ph87
	#DEBUG_VALUE: crypto_hash_sha256_update:state <- $r14
	#DEBUG_VALUE: crypto_hash_sha256_update:in <- $rbx
	#DEBUG_VALUE: crypto_hash_sha256_update:i <- 0
	.loc	3 0 5                           # crypto_hash/sha256/cp/hash_sha256_cp.c:0:5
	movq	%rax, %rcx
	.loc	3 224 5                         # crypto_hash/sha256/cp/hash_sha256_cp.c:224:5
	movl	%ebp, %eax
	andl	$60, %eax
.Ltmp105:
	.loc	3 0 5                           # :0:5
.Ltmp106:
	.p2align	4
.LBB1_55:                               # %vec.epilog.vector.body93
                                        # =>This Inner Loop Header: Depth=1
	#DEBUG_VALUE: crypto_hash_sha256_update:state <- $r14
	#DEBUG_VALUE: crypto_hash_sha256_update:in <- $rbx
	#DEBUG_VALUE: crypto_hash_sha256_update:i <- 0
	.loc	3 225 25 is_stmt 1              # crypto_hash/sha256/cp/hash_sha256_cp.c:225:25
	movl	(%rbx,%rcx), %edx
	.loc	3 225 23 is_stmt 0              # crypto_hash/sha256/cp/hash_sha256_cp.c:225:23
	movl	%edx, (%r15,%rcx)
.Ltmp107:
	.loc	3 224 29 is_stmt 1              # crypto_hash/sha256/cp/hash_sha256_cp.c:224:29
	addq	$4, %rcx
	cmpq	%rcx, %rax
	jne	.LBB1_55
.Ltmp108:
# %bb.56:                               # %vec.epilog.middle.block97
	#DEBUG_VALUE: crypto_hash_sha256_update:state <- $r14
	#DEBUG_VALUE: crypto_hash_sha256_update:in <- $rbx
	#DEBUG_VALUE: crypto_hash_sha256_update:i <- 0
	.loc	3 224 5 is_stmt 0               # crypto_hash/sha256/cp/hash_sha256_cp.c:224:5
	cmpq	%rax, %rbp
	jne	.LBB1_16
	jmp	.LBB1_21
.Ltmp109:
.Lfunc_end1:
	.size	crypto_hash_sha256_update, .Lfunc_end1-crypto_hash_sha256_update
	.cfi_endproc
	.file	6 "./include/sodium" "utils.h"
                                        # -- End function
	.p2align	4                               # -- Begin function SHA256_Transform
	.type	SHA256_Transform,@function
SHA256_Transform:                       # @SHA256_Transform
.Lfunc_begin2:
	.loc	3 100 0 is_stmt 1               # crypto_hash/sha256/cp/hash_sha256_cp.c:100:0
	.cfi_startproc
# %bb.0:
	#DEBUG_VALUE: SHA256_Transform:state <- $rdi
	#DEBUG_VALUE: SHA256_Transform:block <- $rsi
	#DEBUG_VALUE: SHA256_Transform:W <- $rdx
	#DEBUG_VALUE: SHA256_Transform:S <- $rcx
	#DEBUG_VALUE: be32dec_vect:dst <- $rdx
	#DEBUG_VALUE: be32dec_vect:src <- $rsi
	pushq	%rbp
	.cfi_def_cfa_offset 16
	pushq	%r15
	.cfi_def_cfa_offset 24
	pushq	%r14
	.cfi_def_cfa_offset 32
	pushq	%r13
	.cfi_def_cfa_offset 40
	pushq	%r12
	.cfi_def_cfa_offset 48
	pushq	%rbx
	.cfi_def_cfa_offset 56
	.cfi_offset %rbx, -56
	.cfi_offset %r12, -48
	.cfi_offset %r13, -40
	.cfi_offset %r14, -32
	.cfi_offset %r15, -24
	.cfi_offset %rbp, -16
	movq	%rcx, -32(%rsp)                 # 8-byte Spill
.Ltmp110:
	#DEBUG_VALUE: SHA256_Transform:S <- [DW_OP_constu 32, DW_OP_minus] [$rsp+0]
	movq	%rdx, -48(%rsp)                 # 8-byte Spill
	#DEBUG_VALUE: be32dec_vect:dst <- [DW_OP_constu 48, DW_OP_minus] [$rsp+0]
.Ltmp111:
	#DEBUG_VALUE: SHA256_Transform:W <- [DW_OP_constu 48, DW_OP_minus] [$rsp+0]
	xorl	%eax, %eax
	#DEBUG_VALUE: be32dec_vect:len <- 64
	#DEBUG_VALUE: be32dec_vect:i <- 0
	movq	-48(%rsp), %rdx                 # 8-byte Reload
.Ltmp112:
	.loc	3 0 0 is_stmt 0                 # :0:0
.Ltmp113:
	.p2align	4
.LBB2_1:                                # =>This Inner Loop Header: Depth=1
	#DEBUG_VALUE: SHA256_Transform:state <- $rdi
	#DEBUG_VALUE: SHA256_Transform:block <- $rsi
	#DEBUG_VALUE: SHA256_Transform:W <- [DW_OP_constu 48, DW_OP_minus] [$rsp+0]
	#DEBUG_VALUE: SHA256_Transform:S <- [DW_OP_constu 32, DW_OP_minus] [$rsp+0]
	#DEBUG_VALUE: be32dec_vect:dst <- [DW_OP_constu 48, DW_OP_minus] [$rsp+0]
	#DEBUG_VALUE: be32dec_vect:src <- $rsi
	#DEBUG_VALUE: be32dec_vect:len <- 64
	#DEBUG_VALUE: be32dec_vect:i <- $rax
	#DEBUG_VALUE: load32_be:src <- [DW_OP_LLVM_arg 0, DW_OP_LLVM_arg 1, DW_OP_constu 2, DW_OP_shl, DW_OP_plus, DW_OP_stack_value] $rsi, $rax
	#DEBUG_VALUE: load32_be:w <- undef
	.file	7 "./include/sodium/private" "common.h"
	.loc	7 184 7 prologue_end is_stmt 1  # ./include/sodium/private/common.h:184:7 @[ crypto_hash/sha256/cp/hash_sha256_cp.c:56:18 @[ crypto_hash/sha256/cp/hash_sha256_cp.c:103:5 ] ]
	movl	(%rsi,%rax,4), %ecx
	bswapl	%ecx
.Ltmp114:
	#DEBUG_VALUE: load32_be:w <- $ecx
	.loc	3 56 16                         # crypto_hash/sha256/cp/hash_sha256_cp.c:56:16 @[ crypto_hash/sha256/cp/hash_sha256_cp.c:103:5 ]
	movl	%ecx, (%rdx,%rax,4)
.Ltmp115:
	.loc	3 55 31                         # crypto_hash/sha256/cp/hash_sha256_cp.c:55:31 @[ crypto_hash/sha256/cp/hash_sha256_cp.c:103:5 ]
	incq	%rax
.Ltmp116:
	#DEBUG_VALUE: be32dec_vect:i <- $rax
	.loc	3 55 19 is_stmt 0               # crypto_hash/sha256/cp/hash_sha256_cp.c:55:19 @[ crypto_hash/sha256/cp/hash_sha256_cp.c:103:5 ]
	cmpq	$16, %rax
.Ltmp117:
	.loc	3 55 5                          # crypto_hash/sha256/cp/hash_sha256_cp.c:55:5 @[ crypto_hash/sha256/cp/hash_sha256_cp.c:103:5 ]
	jne	.LBB2_1
.Ltmp118:
# %bb.2:                                # %be32dec_vect.exit
	#DEBUG_VALUE: SHA256_Transform:state <- $rdi
	#DEBUG_VALUE: SHA256_Transform:block <- $rsi
	#DEBUG_VALUE: SHA256_Transform:W <- [DW_OP_constu 48, DW_OP_minus] [$rsp+0]
	#DEBUG_VALUE: SHA256_Transform:S <- [DW_OP_constu 32, DW_OP_minus] [$rsp+0]
	#DEBUG_VALUE: memcpy:__dest <- [DW_OP_constu 32, DW_OP_minus, DW_OP_deref] $rsp
	#DEBUG_VALUE: memcpy:__src <- $rdi
	#DEBUG_VALUE: memcpy:__len <- 32
	.loc	4 29 10 is_stmt 1               # /usr/include/x86_64-linux-gnu/bits/string_fortified.h:29:10 @[ crypto_hash/sha256/cp/hash_sha256_cp.c:104:5 ]
	movups	(%rdi), %xmm0
	movq	%rdi, -8(%rsp)                  # 8-byte Spill
.Ltmp119:
	#DEBUG_VALUE: memcpy:__src <- [DW_OP_constu 8, DW_OP_minus, DW_OP_deref] $rsp
	#DEBUG_VALUE: SHA256_Transform:state <- [DW_OP_constu 8, DW_OP_minus] [$rsp+0]
	movups	16(%rdi), %xmm1
	movq	-32(%rsp), %rax                 # 8-byte Reload
	movups	%xmm1, 16(%rax)
	movups	%xmm0, (%rax)
	movq	$0, -24(%rsp)                   # 8-byte Folded Spill
.Ltmp120:
	#DEBUG_VALUE: SHA256_Transform:i <- 0
	.loc	4 0 10 is_stmt 0                # :0:10
.Ltmp121:
	.p2align	4
.LBB2_3:                                # =>This Inner Loop Header: Depth=1
	#DEBUG_VALUE: SHA256_Transform:state <- [DW_OP_constu 8, DW_OP_minus] [$rsp+0]
	#DEBUG_VALUE: SHA256_Transform:block <- [DW_OP_LLVM_entry_value 1] $rsi
	#DEBUG_VALUE: SHA256_Transform:W <- [DW_OP_constu 48, DW_OP_minus] [$rsp+0]
	#DEBUG_VALUE: SHA256_Transform:S <- [DW_OP_constu 32, DW_OP_minus] [$rsp+0]
	#DEBUG_VALUE: SHA256_Transform:i <- [DW_OP_constu 24, DW_OP_minus, DW_OP_deref_size 8, DW_OP_stack_value] $rsp
	movq	-32(%rsp), %r13                 # 8-byte Reload
.Ltmp122:
	.loc	3 106 37 is_stmt 1              # crypto_hash/sha256/cp/hash_sha256_cp.c:106:37
	movl	16(%r13), %ebp
.Ltmp123:
	#DEBUG_VALUE: rotr32:x <- $ebp
	#DEBUG_VALUE: rotr32:b <- 6
	.loc	7 51 21                         # ./include/sodium/private/common.h:51:21 @[ crypto_hash/sha256/cp/hash_sha256_cp.c:106:29 ]
	movl	%ebp, %eax
	roll	$26, %eax
.Ltmp124:
	#DEBUG_VALUE: rotr32:x <- $ebp
	#DEBUG_VALUE: rotr32:b <- 11
	.loc	7 51 21 is_stmt 0               # ./include/sodium/private/common.h:51:21 @[ crypto_hash/sha256/cp/hash_sha256_cp.c:106:62 ]
	movl	%ebp, %ecx
	roll	$21, %ecx
.Ltmp125:
	.loc	3 106 60 is_stmt 1              # crypto_hash/sha256/cp/hash_sha256_cp.c:106:60
	xorl	%eax, %ecx
.Ltmp126:
	#DEBUG_VALUE: rotr32:x <- $ebp
	#DEBUG_VALUE: rotr32:b <- 25
	.loc	7 51 21                         # ./include/sodium/private/common.h:51:21 @[ crypto_hash/sha256/cp/hash_sha256_cp.c:106:96 ]
	movl	%ebp, %r9d
	roll	$7, %r9d
.Ltmp127:
	.loc	3 106 94                        # crypto_hash/sha256/cp/hash_sha256_cp.c:106:94
	xorl	%ecx, %r9d
	.loc	3 106 152 is_stmt 0             # crypto_hash/sha256/cp/hash_sha256_cp.c:106:152
	movl	20(%r13), %edi
	.loc	3 106 170                       # crypto_hash/sha256/cp/hash_sha256_cp.c:106:170
	movl	24(%r13), %eax
	.loc	3 106 168                       # crypto_hash/sha256/cp/hash_sha256_cp.c:106:168
	movl	%eax, %ecx
	xorl	%edi, %ecx
	.loc	3 106 149                       # crypto_hash/sha256/cp/hash_sha256_cp.c:106:149
	andl	%ebp, %ecx
	movq	-48(%rsp), %r15                 # 8-byte Reload
	movq	-24(%rsp), %rdx                 # 8-byte Reload
	.loc	3 106 129                       # crypto_hash/sha256/cp/hash_sha256_cp.c:106:129
	addl	(%r15,%rdx,4), %r9d
	leaq	Krnd(%rip), %rsi
	.loc	3 106 207                       # crypto_hash/sha256/cp/hash_sha256_cp.c:106:207
	addl	(%rsi,%rdx,4), %r9d
	.loc	3 106 188                       # crypto_hash/sha256/cp/hash_sha256_cp.c:106:188
	xorl	%eax, %ecx
	.loc	3 106 218                       # crypto_hash/sha256/cp/hash_sha256_cp.c:106:218
	addl	%ecx, %r9d
	.loc	3 106 25                        # crypto_hash/sha256/cp/hash_sha256_cp.c:106:25
	addl	28(%r13), %r9d
	movl	12(%r13), %esi
	.loc	3 106 249                       # crypto_hash/sha256/cp/hash_sha256_cp.c:106:249
	addl	%r9d, %esi
	movl	%esi, 12(%r13)
	.loc	3 106 297                       # crypto_hash/sha256/cp/hash_sha256_cp.c:106:297
	movl	(%r13), %r12d
.Ltmp128:
	#DEBUG_VALUE: rotr32:x <- $r12d
	.loc	7 51 21 is_stmt 1               # ./include/sodium/private/common.h:51:21 @[ crypto_hash/sha256/cp/hash_sha256_cp.c:106:289 ]
	movl	%r12d, %ecx
	roll	$30, %ecx
.Ltmp129:
	#DEBUG_VALUE: rotr32:b <- 13
	#DEBUG_VALUE: rotr32:x <- $r12d
	.loc	3 106 412                       # crypto_hash/sha256/cp/hash_sha256_cp.c:106:412
	movl	4(%r13), %r8d
	#DEBUG_VALUE: rotr32:b <- 2
.Ltmp130:
	.loc	7 51 21                         # ./include/sodium/private/common.h:51:21 @[ crypto_hash/sha256/cp/hash_sha256_cp.c:106:322 ]
	movl	%r12d, %r10d
	roll	$19, %r10d
.Ltmp131:
	.loc	3 106 320                       # crypto_hash/sha256/cp/hash_sha256_cp.c:106:320
	xorl	%ecx, %r10d
.Ltmp132:
	#DEBUG_VALUE: rotr32:b <- 22
	#DEBUG_VALUE: rotr32:x <- $r12d
	.loc	7 51 21                         # ./include/sodium/private/common.h:51:21 @[ crypto_hash/sha256/cp/hash_sha256_cp.c:106:356 ]
	movl	%r12d, %ecx
	roll	$10, %ecx
.Ltmp133:
	.loc	3 106 354                       # crypto_hash/sha256/cp/hash_sha256_cp.c:106:354
	xorl	%r10d, %ecx
	.loc	3 106 430 is_stmt 0             # crypto_hash/sha256/cp/hash_sha256_cp.c:106:430
	movl	8(%r13), %ebx
	.loc	3 106 428                       # crypto_hash/sha256/cp/hash_sha256_cp.c:106:428
	movl	%ebx, %r11d
	orl	%r8d, %r11d
	.loc	3 106 409                       # crypto_hash/sha256/cp/hash_sha256_cp.c:106:409
	andl	%r12d, %r11d
	.loc	3 106 467                       # crypto_hash/sha256/cp/hash_sha256_cp.c:106:467
	movl	%ebx, %r10d
	andl	%r8d, %r10d
	.loc	3 106 448                       # crypto_hash/sha256/cp/hash_sha256_cp.c:106:448
	orl	%r11d, %r10d
	.loc	3 106 389                       # crypto_hash/sha256/cp/hash_sha256_cp.c:106:389
	addl	%ecx, %r10d
.Ltmp134:
	#DEBUG_VALUE: rotr32:x <- undef
	#DEBUG_VALUE: rotr32:b <- 6
	.loc	7 51 21 is_stmt 1               # ./include/sodium/private/common.h:51:21 @[ crypto_hash/sha256/cp/hash_sha256_cp.c:107:29 ]
	movl	%esi, %ecx
	roll	$26, %ecx
.Ltmp135:
	#DEBUG_VALUE: rotr32:x <- undef
	#DEBUG_VALUE: rotr32:b <- 11
	.loc	3 106 285                       # crypto_hash/sha256/cp/hash_sha256_cp.c:106:285
	addl	%r9d, %r10d
.Ltmp136:
	.loc	7 51 21                         # ./include/sodium/private/common.h:51:21 @[ crypto_hash/sha256/cp/hash_sha256_cp.c:107:62 ]
	movl	%esi, %r9d
	roll	$21, %r9d
.Ltmp137:
	#DEBUG_VALUE: rotr32:x <- undef
	#DEBUG_VALUE: rotr32:b <- 25
	.loc	3 106 285                       # crypto_hash/sha256/cp/hash_sha256_cp.c:106:285
	movl	%r10d, 28(%r13)
.Ltmp138:
	.loc	7 51 21                         # ./include/sodium/private/common.h:51:21 @[ crypto_hash/sha256/cp/hash_sha256_cp.c:107:96 ]
	movl	%esi, %r14d
	roll	$7, %r14d
.Ltmp139:
	.loc	3 107 60                        # crypto_hash/sha256/cp/hash_sha256_cp.c:107:60
	xorl	%ecx, %r9d
	.loc	3 107 94 is_stmt 0              # crypto_hash/sha256/cp/hash_sha256_cp.c:107:94
	xorl	%r9d, %r14d
	.loc	3 107 168                       # crypto_hash/sha256/cp/hash_sha256_cp.c:107:168
	movl	%edi, %r11d
	xorl	%ebp, %r11d
	.loc	3 107 149                       # crypto_hash/sha256/cp/hash_sha256_cp.c:107:149
	andl	%esi, %r11d
	.loc	3 107 188                       # crypto_hash/sha256/cp/hash_sha256_cp.c:107:188
	xorl	%edi, %r11d
	.loc	3 107 129                       # crypto_hash/sha256/cp/hash_sha256_cp.c:107:129
	addl	%eax, %r11d
	.loc	3 107 207                       # crypto_hash/sha256/cp/hash_sha256_cp.c:107:207
	addl	%r14d, %r11d
	.loc	3 107 218                       # crypto_hash/sha256/cp/hash_sha256_cp.c:107:218
	addl	4(%r15,%rdx,4), %r11d
	.loc	3 107 25                        # crypto_hash/sha256/cp/hash_sha256_cp.c:107:25
	leaq	Krnd(%rip), %rax
	addl	4(%rax,%rdx,4), %r11d
.Ltmp140:
	#DEBUG_VALUE: rotr32:x <- $r10d
	#DEBUG_VALUE: rotr32:b <- 2
	.loc	7 51 21 is_stmt 1               # ./include/sodium/private/common.h:51:21 @[ crypto_hash/sha256/cp/hash_sha256_cp.c:107:289 ]
	movl	%r10d, %eax
	roll	$30, %eax
.Ltmp141:
	#DEBUG_VALUE: rotr32:x <- $r10d
	#DEBUG_VALUE: rotr32:b <- 13
	.loc	3 107 249                       # crypto_hash/sha256/cp/hash_sha256_cp.c:107:249
	addl	%r11d, %ebx
.Ltmp142:
	.loc	7 51 21                         # ./include/sodium/private/common.h:51:21 @[ crypto_hash/sha256/cp/hash_sha256_cp.c:107:322 ]
	movl	%r10d, %ecx
	roll	$19, %ecx
.Ltmp143:
	#DEBUG_VALUE: rotr32:x <- $r10d
	#DEBUG_VALUE: rotr32:b <- 22
	.loc	3 107 249                       # crypto_hash/sha256/cp/hash_sha256_cp.c:107:249
	movl	%ebx, 8(%r13)
.Ltmp144:
	.loc	7 51 21                         # ./include/sodium/private/common.h:51:21 @[ crypto_hash/sha256/cp/hash_sha256_cp.c:107:356 ]
	movl	%r10d, %r14d
	roll	$10, %r14d
.Ltmp145:
	.loc	3 107 320                       # crypto_hash/sha256/cp/hash_sha256_cp.c:107:320
	xorl	%eax, %ecx
	.loc	3 107 354 is_stmt 0             # crypto_hash/sha256/cp/hash_sha256_cp.c:107:354
	xorl	%ecx, %r14d
	.loc	3 107 428                       # crypto_hash/sha256/cp/hash_sha256_cp.c:107:428
	movl	%r8d, %eax
	orl	%r12d, %eax
	.loc	3 107 409                       # crypto_hash/sha256/cp/hash_sha256_cp.c:107:409
	andl	%r10d, %eax
	.loc	3 107 467                       # crypto_hash/sha256/cp/hash_sha256_cp.c:107:467
	movl	%r8d, %r9d
	andl	%r12d, %r9d
	.loc	3 107 448                       # crypto_hash/sha256/cp/hash_sha256_cp.c:107:448
	orl	%eax, %r9d
	.loc	3 107 389                       # crypto_hash/sha256/cp/hash_sha256_cp.c:107:389
	addl	%r14d, %r9d
.Ltmp146:
	#DEBUG_VALUE: rotr32:x <- $ebx
	#DEBUG_VALUE: rotr32:b <- 6
	.loc	7 51 21 is_stmt 1               # ./include/sodium/private/common.h:51:21 @[ crypto_hash/sha256/cp/hash_sha256_cp.c:108:29 ]
	movl	%ebx, %eax
	roll	$26, %eax
.Ltmp147:
	#DEBUG_VALUE: rotr32:x <- $ebx
	#DEBUG_VALUE: rotr32:b <- 11
	.loc	3 107 285                       # crypto_hash/sha256/cp/hash_sha256_cp.c:107:285
	addl	%r11d, %r9d
.Ltmp148:
	.loc	7 51 21                         # ./include/sodium/private/common.h:51:21 @[ crypto_hash/sha256/cp/hash_sha256_cp.c:108:62 ]
	movl	%ebx, %ecx
	roll	$21, %ecx
.Ltmp149:
	#DEBUG_VALUE: rotr32:x <- $ebx
	#DEBUG_VALUE: rotr32:b <- 25
	.loc	3 107 285                       # crypto_hash/sha256/cp/hash_sha256_cp.c:107:285
	movl	%r9d, 24(%r13)
.Ltmp150:
	.loc	7 51 21                         # ./include/sodium/private/common.h:51:21 @[ crypto_hash/sha256/cp/hash_sha256_cp.c:108:96 ]
	movl	%ebx, %r11d
	roll	$7, %r11d
.Ltmp151:
	.loc	3 108 60                        # crypto_hash/sha256/cp/hash_sha256_cp.c:108:60
	xorl	%eax, %ecx
	.loc	3 108 94 is_stmt 0              # crypto_hash/sha256/cp/hash_sha256_cp.c:108:94
	xorl	%ecx, %r11d
	.loc	3 108 168                       # crypto_hash/sha256/cp/hash_sha256_cp.c:108:168
	movl	%esi, %eax
	xorl	%ebp, %eax
	.loc	3 108 149                       # crypto_hash/sha256/cp/hash_sha256_cp.c:108:149
	andl	%ebx, %eax
	.loc	3 108 188                       # crypto_hash/sha256/cp/hash_sha256_cp.c:108:188
	xorl	%ebp, %eax
	movq	%r15, %r14
	.loc	3 108 129                       # crypto_hash/sha256/cp/hash_sha256_cp.c:108:129
	addl	8(%r15,%rdx,4), %edi
	leaq	Krnd(%rip), %r15
	.loc	3 108 207                       # crypto_hash/sha256/cp/hash_sha256_cp.c:108:207
	addl	8(%r15,%rdx,4), %edi
	.loc	3 108 218                       # crypto_hash/sha256/cp/hash_sha256_cp.c:108:218
	addl	%eax, %edi
	.loc	3 108 25                        # crypto_hash/sha256/cp/hash_sha256_cp.c:108:25
	addl	%r11d, %edi
	.loc	3 108 249                       # crypto_hash/sha256/cp/hash_sha256_cp.c:108:249
	addl	%edi, %r8d
.Ltmp152:
	#DEBUG_VALUE: rotr32:x <- $r9d
	#DEBUG_VALUE: rotr32:b <- 2
	.loc	7 51 21 is_stmt 1               # ./include/sodium/private/common.h:51:21 @[ crypto_hash/sha256/cp/hash_sha256_cp.c:108:289 ]
	movl	%r9d, %eax
	roll	$30, %eax
.Ltmp153:
	#DEBUG_VALUE: rotr32:x <- $r9d
	#DEBUG_VALUE: rotr32:b <- 13
	.loc	3 108 249                       # crypto_hash/sha256/cp/hash_sha256_cp.c:108:249
	movl	%r8d, 4(%r13)
.Ltmp154:
	.loc	7 51 21                         # ./include/sodium/private/common.h:51:21 @[ crypto_hash/sha256/cp/hash_sha256_cp.c:108:322 ]
	movl	%r9d, %ecx
	roll	$19, %ecx
.Ltmp155:
	.loc	3 108 320                       # crypto_hash/sha256/cp/hash_sha256_cp.c:108:320
	xorl	%eax, %ecx
.Ltmp156:
	#DEBUG_VALUE: rotr32:x <- $r9d
	#DEBUG_VALUE: rotr32:b <- 22
	.loc	7 51 21                         # ./include/sodium/private/common.h:51:21 @[ crypto_hash/sha256/cp/hash_sha256_cp.c:108:356 ]
	movl	%r9d, %eax
	roll	$10, %eax
.Ltmp157:
	.loc	3 108 354                       # crypto_hash/sha256/cp/hash_sha256_cp.c:108:354
	xorl	%ecx, %eax
	.loc	3 108 428 is_stmt 0             # crypto_hash/sha256/cp/hash_sha256_cp.c:108:428
	movl	%r10d, %ecx
	orl	%r12d, %ecx
	.loc	3 108 409                       # crypto_hash/sha256/cp/hash_sha256_cp.c:108:409
	andl	%r9d, %ecx
	.loc	3 108 467                       # crypto_hash/sha256/cp/hash_sha256_cp.c:108:467
	movl	%r10d, %r11d
	andl	%r12d, %r11d
	.loc	3 108 448                       # crypto_hash/sha256/cp/hash_sha256_cp.c:108:448
	orl	%ecx, %r11d
	.loc	3 108 389                       # crypto_hash/sha256/cp/hash_sha256_cp.c:108:389
	addl	%eax, %r11d
	.loc	3 108 285                       # crypto_hash/sha256/cp/hash_sha256_cp.c:108:285
	addl	%edi, %r11d
.Ltmp158:
	#DEBUG_VALUE: rotr32:x <- $r8d
	#DEBUG_VALUE: rotr32:b <- 6
	.loc	7 51 21 is_stmt 1               # ./include/sodium/private/common.h:51:21 @[ crypto_hash/sha256/cp/hash_sha256_cp.c:109:29 ]
	movl	%r8d, %eax
	roll	$26, %eax
.Ltmp159:
	#DEBUG_VALUE: rotr32:x <- $r8d
	#DEBUG_VALUE: rotr32:b <- 11
	.loc	3 108 285                       # crypto_hash/sha256/cp/hash_sha256_cp.c:108:285
	movl	%r11d, 20(%r13)
.Ltmp160:
	.loc	7 51 21                         # ./include/sodium/private/common.h:51:21 @[ crypto_hash/sha256/cp/hash_sha256_cp.c:109:62 ]
	movl	%r8d, %ecx
	roll	$21, %ecx
.Ltmp161:
	.loc	3 109 60                        # crypto_hash/sha256/cp/hash_sha256_cp.c:109:60
	xorl	%eax, %ecx
.Ltmp162:
	#DEBUG_VALUE: rotr32:x <- $r8d
	#DEBUG_VALUE: rotr32:b <- 25
	.loc	7 51 21                         # ./include/sodium/private/common.h:51:21 @[ crypto_hash/sha256/cp/hash_sha256_cp.c:109:96 ]
	movl	%r8d, %eax
	roll	$7, %eax
.Ltmp163:
	.loc	3 109 94                        # crypto_hash/sha256/cp/hash_sha256_cp.c:109:94
	xorl	%ecx, %eax
	.loc	3 109 168 is_stmt 0             # crypto_hash/sha256/cp/hash_sha256_cp.c:109:168
	movl	%ebx, %ecx
	xorl	%esi, %ecx
	.loc	3 109 149                       # crypto_hash/sha256/cp/hash_sha256_cp.c:109:149
	andl	%r8d, %ecx
	.loc	3 109 129                       # crypto_hash/sha256/cp/hash_sha256_cp.c:109:129
	addl	12(%r14,%rdx,4), %ebp
.Ltmp164:
	.loc	3 0 129                         # crypto_hash/sha256/cp/hash_sha256_cp.c:0:129
	movq	%r14, %rdi
	.loc	3 109 207                       # crypto_hash/sha256/cp/hash_sha256_cp.c:109:207
	addl	12(%r15,%rdx,4), %ebp
	movq	%r15, %r14
	.loc	3 109 188                       # crypto_hash/sha256/cp/hash_sha256_cp.c:109:188
	xorl	%esi, %ecx
	.loc	3 109 218                       # crypto_hash/sha256/cp/hash_sha256_cp.c:109:218
	addl	%ecx, %ebp
	.loc	3 109 25                        # crypto_hash/sha256/cp/hash_sha256_cp.c:109:25
	addl	%eax, %ebp
	.loc	3 109 249                       # crypto_hash/sha256/cp/hash_sha256_cp.c:109:249
	addl	%ebp, %r12d
.Ltmp165:
	movl	%r12d, (%r13)
.Ltmp166:
	#DEBUG_VALUE: rotr32:x <- $r11d
	#DEBUG_VALUE: rotr32:b <- 2
	.loc	7 51 21 is_stmt 1               # ./include/sodium/private/common.h:51:21 @[ crypto_hash/sha256/cp/hash_sha256_cp.c:109:289 ]
	movl	%r11d, %eax
	roll	$30, %eax
.Ltmp167:
	#DEBUG_VALUE: rotr32:x <- $r11d
	#DEBUG_VALUE: rotr32:b <- 13
	.loc	7 51 21 is_stmt 0               # ./include/sodium/private/common.h:51:21 @[ crypto_hash/sha256/cp/hash_sha256_cp.c:109:322 ]
	movl	%r11d, %ecx
	roll	$19, %ecx
.Ltmp168:
	.loc	3 109 320 is_stmt 1             # crypto_hash/sha256/cp/hash_sha256_cp.c:109:320
	xorl	%eax, %ecx
.Ltmp169:
	#DEBUG_VALUE: rotr32:x <- $r11d
	#DEBUG_VALUE: rotr32:b <- 22
	.loc	7 51 21                         # ./include/sodium/private/common.h:51:21 @[ crypto_hash/sha256/cp/hash_sha256_cp.c:109:356 ]
	movl	%r11d, %eax
	roll	$10, %eax
.Ltmp170:
	.loc	3 109 354                       # crypto_hash/sha256/cp/hash_sha256_cp.c:109:354
	xorl	%ecx, %eax
	.loc	3 109 428 is_stmt 0             # crypto_hash/sha256/cp/hash_sha256_cp.c:109:428
	movl	%r9d, %ecx
	orl	%r10d, %ecx
	.loc	3 109 409                       # crypto_hash/sha256/cp/hash_sha256_cp.c:109:409
	andl	%r11d, %ecx
	.loc	3 109 467                       # crypto_hash/sha256/cp/hash_sha256_cp.c:109:467
	movl	%r9d, %r15d
	andl	%r10d, %r15d
	.loc	3 109 448                       # crypto_hash/sha256/cp/hash_sha256_cp.c:109:448
	orl	%ecx, %r15d
	.loc	3 109 389                       # crypto_hash/sha256/cp/hash_sha256_cp.c:109:389
	addl	%eax, %r15d
	.loc	3 109 285                       # crypto_hash/sha256/cp/hash_sha256_cp.c:109:285
	addl	%ebp, %r15d
	movl	%r15d, 16(%r13)
.Ltmp171:
	#DEBUG_VALUE: rotr32:x <- $r12d
	#DEBUG_VALUE: rotr32:b <- 6
	.loc	7 51 21 is_stmt 1               # ./include/sodium/private/common.h:51:21 @[ crypto_hash/sha256/cp/hash_sha256_cp.c:110:29 ]
	movl	%r12d, %eax
	roll	$26, %eax
.Ltmp172:
	#DEBUG_VALUE: rotr32:x <- $r12d
	#DEBUG_VALUE: rotr32:b <- 11
	.loc	7 51 21 is_stmt 0               # ./include/sodium/private/common.h:51:21 @[ crypto_hash/sha256/cp/hash_sha256_cp.c:110:62 ]
	movl	%r12d, %ecx
	roll	$21, %ecx
.Ltmp173:
	.loc	3 110 60 is_stmt 1              # crypto_hash/sha256/cp/hash_sha256_cp.c:110:60
	xorl	%eax, %ecx
.Ltmp174:
	#DEBUG_VALUE: rotr32:x <- $r12d
	#DEBUG_VALUE: rotr32:b <- 25
	.loc	7 51 21                         # ./include/sodium/private/common.h:51:21 @[ crypto_hash/sha256/cp/hash_sha256_cp.c:110:96 ]
	movl	%r12d, %eax
	roll	$7, %eax
.Ltmp175:
	.loc	3 110 94                        # crypto_hash/sha256/cp/hash_sha256_cp.c:110:94
	xorl	%ecx, %eax
	.loc	3 110 168 is_stmt 0             # crypto_hash/sha256/cp/hash_sha256_cp.c:110:168
	movl	%r8d, %ecx
	xorl	%ebx, %ecx
	.loc	3 110 149                       # crypto_hash/sha256/cp/hash_sha256_cp.c:110:149
	andl	%r12d, %ecx
	.loc	3 110 188                       # crypto_hash/sha256/cp/hash_sha256_cp.c:110:188
	xorl	%ebx, %ecx
	.loc	3 110 129                       # crypto_hash/sha256/cp/hash_sha256_cp.c:110:129
	addl	16(%rdi,%rdx,4), %esi
	.loc	3 110 207                       # crypto_hash/sha256/cp/hash_sha256_cp.c:110:207
	addl	16(%r14,%rdx,4), %esi
	.loc	3 110 218                       # crypto_hash/sha256/cp/hash_sha256_cp.c:110:218
	addl	%ecx, %esi
	.loc	3 110 25                        # crypto_hash/sha256/cp/hash_sha256_cp.c:110:25
	addl	%eax, %esi
	.loc	3 110 249                       # crypto_hash/sha256/cp/hash_sha256_cp.c:110:249
	addl	%esi, %r10d
.Ltmp176:
	movl	%r10d, 28(%r13)
.Ltmp177:
	#DEBUG_VALUE: rotr32:x <- $r15d
	#DEBUG_VALUE: rotr32:b <- 2
	.loc	7 51 21 is_stmt 1               # ./include/sodium/private/common.h:51:21 @[ crypto_hash/sha256/cp/hash_sha256_cp.c:110:289 ]
	movl	%r15d, %eax
	roll	$30, %eax
.Ltmp178:
	#DEBUG_VALUE: rotr32:x <- $r15d
	#DEBUG_VALUE: rotr32:b <- 13
	.loc	7 51 21 is_stmt 0               # ./include/sodium/private/common.h:51:21 @[ crypto_hash/sha256/cp/hash_sha256_cp.c:110:322 ]
	movl	%r15d, %ecx
	roll	$19, %ecx
.Ltmp179:
	.loc	3 110 320 is_stmt 1             # crypto_hash/sha256/cp/hash_sha256_cp.c:110:320
	xorl	%eax, %ecx
.Ltmp180:
	#DEBUG_VALUE: rotr32:x <- $r15d
	#DEBUG_VALUE: rotr32:b <- 22
	.loc	7 51 21                         # ./include/sodium/private/common.h:51:21 @[ crypto_hash/sha256/cp/hash_sha256_cp.c:110:356 ]
	movl	%r15d, %eax
	roll	$10, %eax
.Ltmp181:
	.loc	3 110 354                       # crypto_hash/sha256/cp/hash_sha256_cp.c:110:354
	xorl	%ecx, %eax
	.loc	3 110 428 is_stmt 0             # crypto_hash/sha256/cp/hash_sha256_cp.c:110:428
	movl	%r11d, %ecx
	orl	%r9d, %ecx
	.loc	3 110 409                       # crypto_hash/sha256/cp/hash_sha256_cp.c:110:409
	andl	%r15d, %ecx
	.loc	3 110 467                       # crypto_hash/sha256/cp/hash_sha256_cp.c:110:467
	movl	%r11d, %ebp
	andl	%r9d, %ebp
	.loc	3 110 448                       # crypto_hash/sha256/cp/hash_sha256_cp.c:110:448
	orl	%ecx, %ebp
	.loc	3 110 389                       # crypto_hash/sha256/cp/hash_sha256_cp.c:110:389
	addl	%eax, %ebp
	.loc	3 110 285                       # crypto_hash/sha256/cp/hash_sha256_cp.c:110:285
	addl	%esi, %ebp
	movl	%ebp, 12(%r13)
.Ltmp182:
	#DEBUG_VALUE: rotr32:x <- $r10d
	#DEBUG_VALUE: rotr32:b <- 6
	.loc	7 51 21 is_stmt 1               # ./include/sodium/private/common.h:51:21 @[ crypto_hash/sha256/cp/hash_sha256_cp.c:111:29 ]
	movl	%r10d, %eax
	roll	$26, %eax
.Ltmp183:
	#DEBUG_VALUE: rotr32:x <- $r10d
	#DEBUG_VALUE: rotr32:b <- 11
	.loc	7 51 21 is_stmt 0               # ./include/sodium/private/common.h:51:21 @[ crypto_hash/sha256/cp/hash_sha256_cp.c:111:62 ]
	movl	%r10d, %ecx
	roll	$21, %ecx
.Ltmp184:
	.loc	3 111 60 is_stmt 1              # crypto_hash/sha256/cp/hash_sha256_cp.c:111:60
	xorl	%eax, %ecx
.Ltmp185:
	#DEBUG_VALUE: rotr32:x <- $r10d
	#DEBUG_VALUE: rotr32:b <- 25
	.loc	7 51 21                         # ./include/sodium/private/common.h:51:21 @[ crypto_hash/sha256/cp/hash_sha256_cp.c:111:96 ]
	movl	%r10d, %eax
	roll	$7, %eax
.Ltmp186:
	.loc	3 111 94                        # crypto_hash/sha256/cp/hash_sha256_cp.c:111:94
	xorl	%ecx, %eax
	.loc	3 111 168 is_stmt 0             # crypto_hash/sha256/cp/hash_sha256_cp.c:111:168
	movl	%r12d, %ecx
	xorl	%r8d, %ecx
	.loc	3 111 149                       # crypto_hash/sha256/cp/hash_sha256_cp.c:111:149
	andl	%r10d, %ecx
	.loc	3 111 129                       # crypto_hash/sha256/cp/hash_sha256_cp.c:111:129
	addl	20(%rdi,%rdx,4), %ebx
.Ltmp187:
	.loc	3 111 188                       # crypto_hash/sha256/cp/hash_sha256_cp.c:111:188
	xorl	%r8d, %ecx
	.loc	3 111 207                       # crypto_hash/sha256/cp/hash_sha256_cp.c:111:207
	addl	20(%r14,%rdx,4), %ebx
	.loc	3 111 218                       # crypto_hash/sha256/cp/hash_sha256_cp.c:111:218
	addl	%ecx, %ebx
	.loc	3 111 25                        # crypto_hash/sha256/cp/hash_sha256_cp.c:111:25
	addl	%eax, %ebx
.Ltmp188:
	#DEBUG_VALUE: rotr32:x <- $ebp
	#DEBUG_VALUE: rotr32:b <- 2
	.loc	7 51 21 is_stmt 1               # ./include/sodium/private/common.h:51:21 @[ crypto_hash/sha256/cp/hash_sha256_cp.c:111:289 ]
	movl	%ebp, %eax
	roll	$30, %eax
.Ltmp189:
	#DEBUG_VALUE: rotr32:x <- $ebp
	#DEBUG_VALUE: rotr32:b <- 13
	.loc	3 111 249                       # crypto_hash/sha256/cp/hash_sha256_cp.c:111:249
	addl	%ebx, %r9d
.Ltmp190:
	.loc	7 51 21                         # ./include/sodium/private/common.h:51:21 @[ crypto_hash/sha256/cp/hash_sha256_cp.c:111:322 ]
	movl	%ebp, %ecx
	roll	$19, %ecx
.Ltmp191:
	#DEBUG_VALUE: rotr32:x <- $ebp
	#DEBUG_VALUE: rotr32:b <- 22
	.loc	3 111 249                       # crypto_hash/sha256/cp/hash_sha256_cp.c:111:249
	movl	%r9d, 24(%r13)
.Ltmp192:
	.loc	7 51 21                         # ./include/sodium/private/common.h:51:21 @[ crypto_hash/sha256/cp/hash_sha256_cp.c:111:356 ]
	movl	%ebp, %esi
	roll	$10, %esi
.Ltmp193:
	.loc	3 111 320                       # crypto_hash/sha256/cp/hash_sha256_cp.c:111:320
	xorl	%eax, %ecx
	.loc	3 111 354 is_stmt 0             # crypto_hash/sha256/cp/hash_sha256_cp.c:111:354
	xorl	%ecx, %esi
	.loc	3 111 428                       # crypto_hash/sha256/cp/hash_sha256_cp.c:111:428
	movl	%r15d, %eax
	orl	%r11d, %eax
	.loc	3 111 409                       # crypto_hash/sha256/cp/hash_sha256_cp.c:111:409
	andl	%ebp, %eax
	.loc	3 111 467                       # crypto_hash/sha256/cp/hash_sha256_cp.c:111:467
	movl	%r15d, %r14d
	andl	%r11d, %r14d
	.loc	3 111 448                       # crypto_hash/sha256/cp/hash_sha256_cp.c:111:448
	orl	%eax, %r14d
	.loc	3 111 389                       # crypto_hash/sha256/cp/hash_sha256_cp.c:111:389
	addl	%esi, %r14d
.Ltmp194:
	#DEBUG_VALUE: rotr32:x <- $r9d
	#DEBUG_VALUE: rotr32:b <- 6
	.loc	7 51 21 is_stmt 1               # ./include/sodium/private/common.h:51:21 @[ crypto_hash/sha256/cp/hash_sha256_cp.c:112:29 ]
	movl	%r9d, %eax
	roll	$26, %eax
.Ltmp195:
	#DEBUG_VALUE: rotr32:x <- $r9d
	#DEBUG_VALUE: rotr32:b <- 11
	.loc	3 111 285                       # crypto_hash/sha256/cp/hash_sha256_cp.c:111:285
	addl	%ebx, %r14d
.Ltmp196:
	.loc	7 51 21                         # ./include/sodium/private/common.h:51:21 @[ crypto_hash/sha256/cp/hash_sha256_cp.c:112:62 ]
	movl	%r9d, %ecx
	roll	$21, %ecx
.Ltmp197:
	#DEBUG_VALUE: rotr32:x <- $r9d
	#DEBUG_VALUE: rotr32:b <- 25
	.loc	3 111 285                       # crypto_hash/sha256/cp/hash_sha256_cp.c:111:285
	movl	%r14d, 8(%r13)
.Ltmp198:
	.loc	7 51 21                         # ./include/sodium/private/common.h:51:21 @[ crypto_hash/sha256/cp/hash_sha256_cp.c:112:96 ]
	movl	%r9d, %esi
	roll	$7, %esi
.Ltmp199:
	.loc	3 112 60                        # crypto_hash/sha256/cp/hash_sha256_cp.c:112:60
	xorl	%eax, %ecx
	.loc	3 112 94 is_stmt 0              # crypto_hash/sha256/cp/hash_sha256_cp.c:112:94
	xorl	%ecx, %esi
	.loc	3 112 168                       # crypto_hash/sha256/cp/hash_sha256_cp.c:112:168
	movl	%r10d, %eax
	xorl	%r12d, %eax
	.loc	3 112 149                       # crypto_hash/sha256/cp/hash_sha256_cp.c:112:149
	andl	%r9d, %eax
	.loc	3 112 188                       # crypto_hash/sha256/cp/hash_sha256_cp.c:112:188
	xorl	%r12d, %eax
	.loc	3 112 129                       # crypto_hash/sha256/cp/hash_sha256_cp.c:112:129
	addl	24(%rdi,%rdx,4), %r8d
.Ltmp200:
	.loc	3 112 207                       # crypto_hash/sha256/cp/hash_sha256_cp.c:112:207
	leaq	Krnd(%rip), %rcx
	addl	24(%rcx,%rdx,4), %r8d
	.loc	3 112 218                       # crypto_hash/sha256/cp/hash_sha256_cp.c:112:218
	addl	%eax, %r8d
	.loc	3 112 25                        # crypto_hash/sha256/cp/hash_sha256_cp.c:112:25
	addl	%esi, %r8d
	.loc	3 112 249                       # crypto_hash/sha256/cp/hash_sha256_cp.c:112:249
	addl	%r8d, %r11d
.Ltmp201:
	#DEBUG_VALUE: rotr32:x <- $r14d
	#DEBUG_VALUE: rotr32:b <- 2
	.loc	7 51 21 is_stmt 1               # ./include/sodium/private/common.h:51:21 @[ crypto_hash/sha256/cp/hash_sha256_cp.c:112:289 ]
	movl	%r14d, %eax
	roll	$30, %eax
.Ltmp202:
	#DEBUG_VALUE: rotr32:x <- $r14d
	#DEBUG_VALUE: rotr32:b <- 13
	.loc	3 112 249                       # crypto_hash/sha256/cp/hash_sha256_cp.c:112:249
	movl	%r11d, 20(%r13)
.Ltmp203:
	.loc	7 51 21                         # ./include/sodium/private/common.h:51:21 @[ crypto_hash/sha256/cp/hash_sha256_cp.c:112:322 ]
	movl	%r14d, %ecx
	roll	$19, %ecx
.Ltmp204:
	.loc	3 112 320                       # crypto_hash/sha256/cp/hash_sha256_cp.c:112:320
	xorl	%eax, %ecx
.Ltmp205:
	#DEBUG_VALUE: rotr32:x <- $r14d
	#DEBUG_VALUE: rotr32:b <- 22
	.loc	7 51 21                         # ./include/sodium/private/common.h:51:21 @[ crypto_hash/sha256/cp/hash_sha256_cp.c:112:356 ]
	movl	%r14d, %eax
	roll	$10, %eax
.Ltmp206:
	.loc	3 112 354                       # crypto_hash/sha256/cp/hash_sha256_cp.c:112:354
	xorl	%ecx, %eax
	.loc	3 112 428 is_stmt 0             # crypto_hash/sha256/cp/hash_sha256_cp.c:112:428
	movl	%ebp, %ecx
	orl	%r15d, %ecx
	.loc	3 112 409                       # crypto_hash/sha256/cp/hash_sha256_cp.c:112:409
	andl	%r14d, %ecx
	.loc	3 112 467                       # crypto_hash/sha256/cp/hash_sha256_cp.c:112:467
	movl	%ebp, %ebx
	andl	%r15d, %ebx
	.loc	3 112 448                       # crypto_hash/sha256/cp/hash_sha256_cp.c:112:448
	orl	%ecx, %ebx
	.loc	3 112 389                       # crypto_hash/sha256/cp/hash_sha256_cp.c:112:389
	addl	%eax, %ebx
	.loc	3 112 285                       # crypto_hash/sha256/cp/hash_sha256_cp.c:112:285
	addl	%r8d, %ebx
.Ltmp207:
	#DEBUG_VALUE: rotr32:x <- $r11d
	#DEBUG_VALUE: rotr32:b <- 6
	.loc	7 51 21 is_stmt 1               # ./include/sodium/private/common.h:51:21 @[ crypto_hash/sha256/cp/hash_sha256_cp.c:113:29 ]
	movl	%r11d, %eax
	roll	$26, %eax
.Ltmp208:
	#DEBUG_VALUE: rotr32:x <- $r11d
	#DEBUG_VALUE: rotr32:b <- 11
	.loc	3 112 285                       # crypto_hash/sha256/cp/hash_sha256_cp.c:112:285
	movl	%ebx, 4(%r13)
.Ltmp209:
	.loc	7 51 21                         # ./include/sodium/private/common.h:51:21 @[ crypto_hash/sha256/cp/hash_sha256_cp.c:113:62 ]
	movl	%r11d, %ecx
	roll	$21, %ecx
.Ltmp210:
	.loc	3 113 60                        # crypto_hash/sha256/cp/hash_sha256_cp.c:113:60
	xorl	%eax, %ecx
.Ltmp211:
	#DEBUG_VALUE: rotr32:x <- $r11d
	#DEBUG_VALUE: rotr32:b <- 25
	.loc	7 51 21                         # ./include/sodium/private/common.h:51:21 @[ crypto_hash/sha256/cp/hash_sha256_cp.c:113:96 ]
	movl	%r11d, %eax
	roll	$7, %eax
.Ltmp212:
	.loc	3 113 94                        # crypto_hash/sha256/cp/hash_sha256_cp.c:113:94
	xorl	%ecx, %eax
	.loc	3 113 168 is_stmt 0             # crypto_hash/sha256/cp/hash_sha256_cp.c:113:168
	movl	%r9d, %ecx
	xorl	%r10d, %ecx
	.loc	3 113 149                       # crypto_hash/sha256/cp/hash_sha256_cp.c:113:149
	andl	%r11d, %ecx
	movq	%rdi, %rsi
	.loc	3 113 129                       # crypto_hash/sha256/cp/hash_sha256_cp.c:113:129
	addl	28(%rdi,%rdx,4), %r12d
.Ltmp213:
	.loc	3 0 129                         # crypto_hash/sha256/cp/hash_sha256_cp.c:0:129
	leaq	Krnd(%rip), %rdi
	.loc	3 113 207                       # crypto_hash/sha256/cp/hash_sha256_cp.c:113:207
	addl	28(%rdi,%rdx,4), %r12d
	.loc	3 113 188                       # crypto_hash/sha256/cp/hash_sha256_cp.c:113:188
	xorl	%r10d, %ecx
	.loc	3 113 218                       # crypto_hash/sha256/cp/hash_sha256_cp.c:113:218
	addl	%ecx, %r12d
	.loc	3 113 25                        # crypto_hash/sha256/cp/hash_sha256_cp.c:113:25
	addl	%eax, %r12d
	.loc	3 113 249                       # crypto_hash/sha256/cp/hash_sha256_cp.c:113:249
	addl	%r12d, %r15d
.Ltmp214:
	movl	%r15d, 16(%r13)
.Ltmp215:
	#DEBUG_VALUE: rotr32:x <- $ebx
	#DEBUG_VALUE: rotr32:b <- 2
	.loc	7 51 21 is_stmt 1               # ./include/sodium/private/common.h:51:21 @[ crypto_hash/sha256/cp/hash_sha256_cp.c:113:289 ]
	movl	%ebx, %eax
	roll	$30, %eax
.Ltmp216:
	#DEBUG_VALUE: rotr32:x <- $ebx
	#DEBUG_VALUE: rotr32:b <- 13
	.loc	7 51 21 is_stmt 0               # ./include/sodium/private/common.h:51:21 @[ crypto_hash/sha256/cp/hash_sha256_cp.c:113:322 ]
	movl	%ebx, %ecx
	roll	$19, %ecx
.Ltmp217:
	.loc	3 113 320 is_stmt 1             # crypto_hash/sha256/cp/hash_sha256_cp.c:113:320
	xorl	%eax, %ecx
.Ltmp218:
	#DEBUG_VALUE: rotr32:x <- $ebx
	#DEBUG_VALUE: rotr32:b <- 22
	.loc	7 51 21                         # ./include/sodium/private/common.h:51:21 @[ crypto_hash/sha256/cp/hash_sha256_cp.c:113:356 ]
	movl	%ebx, %eax
	roll	$10, %eax
.Ltmp219:
	.loc	3 113 354                       # crypto_hash/sha256/cp/hash_sha256_cp.c:113:354
	xorl	%ecx, %eax
	.loc	3 113 428 is_stmt 0             # crypto_hash/sha256/cp/hash_sha256_cp.c:113:428
	movl	%r14d, %ecx
	orl	%ebp, %ecx
	.loc	3 113 409                       # crypto_hash/sha256/cp/hash_sha256_cp.c:113:409
	andl	%ebx, %ecx
	.loc	3 113 467                       # crypto_hash/sha256/cp/hash_sha256_cp.c:113:467
	movl	%r14d, %r8d
	andl	%ebp, %r8d
	.loc	3 113 448                       # crypto_hash/sha256/cp/hash_sha256_cp.c:113:448
	orl	%ecx, %r8d
	.loc	3 113 389                       # crypto_hash/sha256/cp/hash_sha256_cp.c:113:389
	addl	%eax, %r8d
	.loc	3 113 285                       # crypto_hash/sha256/cp/hash_sha256_cp.c:113:285
	addl	%r12d, %r8d
	movl	%r8d, (%r13)
.Ltmp220:
	#DEBUG_VALUE: rotr32:x <- $r15d
	#DEBUG_VALUE: rotr32:b <- 6
	.loc	7 51 21 is_stmt 1               # ./include/sodium/private/common.h:51:21 @[ crypto_hash/sha256/cp/hash_sha256_cp.c:114:29 ]
	movl	%r15d, %eax
	roll	$26, %eax
.Ltmp221:
	#DEBUG_VALUE: rotr32:x <- $r15d
	#DEBUG_VALUE: rotr32:b <- 11
	.loc	7 51 21 is_stmt 0               # ./include/sodium/private/common.h:51:21 @[ crypto_hash/sha256/cp/hash_sha256_cp.c:114:62 ]
	movl	%r15d, %ecx
	roll	$21, %ecx
.Ltmp222:
	.loc	3 114 60 is_stmt 1              # crypto_hash/sha256/cp/hash_sha256_cp.c:114:60
	xorl	%eax, %ecx
.Ltmp223:
	#DEBUG_VALUE: rotr32:x <- $r15d
	#DEBUG_VALUE: rotr32:b <- 25
	.loc	7 51 21                         # ./include/sodium/private/common.h:51:21 @[ crypto_hash/sha256/cp/hash_sha256_cp.c:114:96 ]
	movl	%r15d, %eax
	roll	$7, %eax
.Ltmp224:
	.loc	3 114 94                        # crypto_hash/sha256/cp/hash_sha256_cp.c:114:94
	xorl	%ecx, %eax
	.loc	3 114 168 is_stmt 0             # crypto_hash/sha256/cp/hash_sha256_cp.c:114:168
	movl	%r11d, %ecx
	xorl	%r9d, %ecx
	.loc	3 114 149                       # crypto_hash/sha256/cp/hash_sha256_cp.c:114:149
	andl	%r15d, %ecx
	.loc	3 114 188                       # crypto_hash/sha256/cp/hash_sha256_cp.c:114:188
	xorl	%r9d, %ecx
	.loc	3 114 129                       # crypto_hash/sha256/cp/hash_sha256_cp.c:114:129
	addl	32(%rsi,%rdx,4), %r10d
.Ltmp225:
	.loc	3 114 207                       # crypto_hash/sha256/cp/hash_sha256_cp.c:114:207
	addl	32(%rdi,%rdx,4), %r10d
	.loc	3 114 218                       # crypto_hash/sha256/cp/hash_sha256_cp.c:114:218
	addl	%ecx, %r10d
	.loc	3 114 25                        # crypto_hash/sha256/cp/hash_sha256_cp.c:114:25
	addl	%eax, %r10d
	.loc	3 114 249                       # crypto_hash/sha256/cp/hash_sha256_cp.c:114:249
	addl	%r10d, %ebp
.Ltmp226:
	movl	%ebp, 12(%r13)
.Ltmp227:
	#DEBUG_VALUE: rotr32:x <- $r8d
	#DEBUG_VALUE: rotr32:b <- 2
	.loc	7 51 21 is_stmt 1               # ./include/sodium/private/common.h:51:21 @[ crypto_hash/sha256/cp/hash_sha256_cp.c:114:289 ]
	movl	%r8d, %eax
	roll	$30, %eax
.Ltmp228:
	#DEBUG_VALUE: rotr32:x <- $r8d
	#DEBUG_VALUE: rotr32:b <- 13
	.loc	7 51 21 is_stmt 0               # ./include/sodium/private/common.h:51:21 @[ crypto_hash/sha256/cp/hash_sha256_cp.c:114:322 ]
	movl	%r8d, %ecx
	roll	$19, %ecx
.Ltmp229:
	.loc	3 114 320 is_stmt 1             # crypto_hash/sha256/cp/hash_sha256_cp.c:114:320
	xorl	%eax, %ecx
.Ltmp230:
	#DEBUG_VALUE: rotr32:x <- $r8d
	#DEBUG_VALUE: rotr32:b <- 22
	.loc	7 51 21                         # ./include/sodium/private/common.h:51:21 @[ crypto_hash/sha256/cp/hash_sha256_cp.c:114:356 ]
	movl	%r8d, %eax
	roll	$10, %eax
.Ltmp231:
	.loc	3 114 354                       # crypto_hash/sha256/cp/hash_sha256_cp.c:114:354
	xorl	%ecx, %eax
	.loc	3 114 428 is_stmt 0             # crypto_hash/sha256/cp/hash_sha256_cp.c:114:428
	movl	%ebx, %ecx
	orl	%r14d, %ecx
	.loc	3 114 409                       # crypto_hash/sha256/cp/hash_sha256_cp.c:114:409
	andl	%r8d, %ecx
	.loc	3 114 467                       # crypto_hash/sha256/cp/hash_sha256_cp.c:114:467
	movl	%ebx, %r12d
	andl	%r14d, %r12d
	.loc	3 114 448                       # crypto_hash/sha256/cp/hash_sha256_cp.c:114:448
	orl	%ecx, %r12d
	.loc	3 114 389                       # crypto_hash/sha256/cp/hash_sha256_cp.c:114:389
	addl	%eax, %r12d
	.loc	3 114 285                       # crypto_hash/sha256/cp/hash_sha256_cp.c:114:285
	addl	%r10d, %r12d
	movl	%r12d, 28(%r13)
.Ltmp232:
	#DEBUG_VALUE: rotr32:x <- $ebp
	#DEBUG_VALUE: rotr32:b <- 6
	.loc	7 51 21 is_stmt 1               # ./include/sodium/private/common.h:51:21 @[ crypto_hash/sha256/cp/hash_sha256_cp.c:115:29 ]
	movl	%ebp, %eax
	roll	$26, %eax
.Ltmp233:
	#DEBUG_VALUE: rotr32:x <- $ebp
	#DEBUG_VALUE: rotr32:b <- 11
	.loc	7 51 21 is_stmt 0               # ./include/sodium/private/common.h:51:21 @[ crypto_hash/sha256/cp/hash_sha256_cp.c:115:62 ]
	movl	%ebp, %ecx
	roll	$21, %ecx
.Ltmp234:
	.loc	3 115 60 is_stmt 1              # crypto_hash/sha256/cp/hash_sha256_cp.c:115:60
	xorl	%eax, %ecx
.Ltmp235:
	#DEBUG_VALUE: rotr32:x <- $ebp
	#DEBUG_VALUE: rotr32:b <- 25
	.loc	7 51 21                         # ./include/sodium/private/common.h:51:21 @[ crypto_hash/sha256/cp/hash_sha256_cp.c:115:96 ]
	movl	%ebp, %eax
	roll	$7, %eax
.Ltmp236:
	.loc	3 115 94                        # crypto_hash/sha256/cp/hash_sha256_cp.c:115:94
	xorl	%ecx, %eax
	.loc	3 115 168 is_stmt 0             # crypto_hash/sha256/cp/hash_sha256_cp.c:115:168
	movl	%r15d, %ecx
	xorl	%r11d, %ecx
	.loc	3 115 149                       # crypto_hash/sha256/cp/hash_sha256_cp.c:115:149
	andl	%ebp, %ecx
	.loc	3 115 129                       # crypto_hash/sha256/cp/hash_sha256_cp.c:115:129
	addl	36(%rsi,%rdx,4), %r9d
.Ltmp237:
	.loc	3 0 129                         # crypto_hash/sha256/cp/hash_sha256_cp.c:0:129
	movq	%rsi, %rdi
	.loc	3 115 188                       # crypto_hash/sha256/cp/hash_sha256_cp.c:115:188
	xorl	%r11d, %ecx
	.loc	3 115 207                       # crypto_hash/sha256/cp/hash_sha256_cp.c:115:207
	leaq	Krnd(%rip), %rsi
	addl	36(%rsi,%rdx,4), %r9d
	.loc	3 115 218                       # crypto_hash/sha256/cp/hash_sha256_cp.c:115:218
	addl	%ecx, %r9d
	.loc	3 115 25                        # crypto_hash/sha256/cp/hash_sha256_cp.c:115:25
	addl	%eax, %r9d
.Ltmp238:
	#DEBUG_VALUE: rotr32:x <- $r12d
	#DEBUG_VALUE: rotr32:b <- 2
	.loc	7 51 21 is_stmt 1               # ./include/sodium/private/common.h:51:21 @[ crypto_hash/sha256/cp/hash_sha256_cp.c:115:289 ]
	movl	%r12d, %eax
	roll	$30, %eax
.Ltmp239:
	#DEBUG_VALUE: rotr32:x <- $r12d
	#DEBUG_VALUE: rotr32:b <- 13
	.loc	3 115 249                       # crypto_hash/sha256/cp/hash_sha256_cp.c:115:249
	addl	%r9d, %r14d
.Ltmp240:
	.loc	7 51 21                         # ./include/sodium/private/common.h:51:21 @[ crypto_hash/sha256/cp/hash_sha256_cp.c:115:322 ]
	movl	%r12d, %ecx
	roll	$19, %ecx
.Ltmp241:
	#DEBUG_VALUE: rotr32:x <- $r12d
	#DEBUG_VALUE: rotr32:b <- 22
	.loc	3 115 249                       # crypto_hash/sha256/cp/hash_sha256_cp.c:115:249
	movl	%r14d, 8(%r13)
.Ltmp242:
	.loc	7 51 21                         # ./include/sodium/private/common.h:51:21 @[ crypto_hash/sha256/cp/hash_sha256_cp.c:115:356 ]
	movl	%r12d, %esi
	roll	$10, %esi
.Ltmp243:
	.loc	3 115 320                       # crypto_hash/sha256/cp/hash_sha256_cp.c:115:320
	xorl	%eax, %ecx
	.loc	3 115 354 is_stmt 0             # crypto_hash/sha256/cp/hash_sha256_cp.c:115:354
	xorl	%ecx, %esi
	.loc	3 115 428                       # crypto_hash/sha256/cp/hash_sha256_cp.c:115:428
	movl	%r8d, %eax
	orl	%ebx, %eax
	.loc	3 115 409                       # crypto_hash/sha256/cp/hash_sha256_cp.c:115:409
	andl	%r12d, %eax
	.loc	3 115 467                       # crypto_hash/sha256/cp/hash_sha256_cp.c:115:467
	movl	%r8d, %r10d
	andl	%ebx, %r10d
	.loc	3 115 448                       # crypto_hash/sha256/cp/hash_sha256_cp.c:115:448
	orl	%eax, %r10d
	.loc	3 115 389                       # crypto_hash/sha256/cp/hash_sha256_cp.c:115:389
	addl	%esi, %r10d
.Ltmp244:
	#DEBUG_VALUE: rotr32:x <- $r14d
	#DEBUG_VALUE: rotr32:b <- 6
	.loc	7 51 21 is_stmt 1               # ./include/sodium/private/common.h:51:21 @[ crypto_hash/sha256/cp/hash_sha256_cp.c:116:30 ]
	movl	%r14d, %eax
	roll	$26, %eax
.Ltmp245:
	#DEBUG_VALUE: rotr32:x <- $r14d
	#DEBUG_VALUE: rotr32:b <- 11
	.loc	3 115 285                       # crypto_hash/sha256/cp/hash_sha256_cp.c:115:285
	addl	%r9d, %r10d
.Ltmp246:
	.loc	7 51 21                         # ./include/sodium/private/common.h:51:21 @[ crypto_hash/sha256/cp/hash_sha256_cp.c:116:64 ]
	movl	%r14d, %ecx
	roll	$21, %ecx
.Ltmp247:
	#DEBUG_VALUE: rotr32:x <- $r14d
	#DEBUG_VALUE: rotr32:b <- 25
	.loc	3 115 285                       # crypto_hash/sha256/cp/hash_sha256_cp.c:115:285
	movl	%r10d, 24(%r13)
.Ltmp248:
	.loc	7 51 21                         # ./include/sodium/private/common.h:51:21 @[ crypto_hash/sha256/cp/hash_sha256_cp.c:116:99 ]
	movl	%r14d, %esi
	roll	$7, %esi
.Ltmp249:
	.loc	3 116 62                        # crypto_hash/sha256/cp/hash_sha256_cp.c:116:62
	xorl	%eax, %ecx
	.loc	3 116 97 is_stmt 0              # crypto_hash/sha256/cp/hash_sha256_cp.c:116:97
	xorl	%ecx, %esi
	.loc	3 116 174                       # crypto_hash/sha256/cp/hash_sha256_cp.c:116:174
	movl	%ebp, %eax
	xorl	%r15d, %eax
	.loc	3 116 154                       # crypto_hash/sha256/cp/hash_sha256_cp.c:116:154
	andl	%r14d, %eax
	.loc	3 116 195                       # crypto_hash/sha256/cp/hash_sha256_cp.c:116:195
	xorl	%r15d, %eax
	.loc	3 116 133                       # crypto_hash/sha256/cp/hash_sha256_cp.c:116:133
	addl	40(%rdi,%rdx,4), %r11d
.Ltmp250:
	.loc	3 0 133                         # crypto_hash/sha256/cp/hash_sha256_cp.c:0:133
	leaq	Krnd(%rip), %rdi
	.loc	3 116 215                       # crypto_hash/sha256/cp/hash_sha256_cp.c:116:215
	addl	40(%rdi,%rdx,4), %r11d
	.loc	3 116 227                       # crypto_hash/sha256/cp/hash_sha256_cp.c:116:227
	addl	%eax, %r11d
	.loc	3 116 26                        # crypto_hash/sha256/cp/hash_sha256_cp.c:116:26
	addl	%esi, %r11d
	.loc	3 116 260                       # crypto_hash/sha256/cp/hash_sha256_cp.c:116:260
	addl	%r11d, %ebx
.Ltmp251:
	#DEBUG_VALUE: rotr32:x <- $r10d
	#DEBUG_VALUE: rotr32:b <- 2
	.loc	7 51 21 is_stmt 1               # ./include/sodium/private/common.h:51:21 @[ crypto_hash/sha256/cp/hash_sha256_cp.c:116:302 ]
	movl	%r10d, %eax
	roll	$30, %eax
.Ltmp252:
	#DEBUG_VALUE: rotr32:x <- $r10d
	#DEBUG_VALUE: rotr32:b <- 13
	.loc	3 116 260                       # crypto_hash/sha256/cp/hash_sha256_cp.c:116:260
	movl	%ebx, 4(%r13)
.Ltmp253:
	.loc	7 51 21                         # ./include/sodium/private/common.h:51:21 @[ crypto_hash/sha256/cp/hash_sha256_cp.c:116:336 ]
	movl	%r10d, %ecx
	roll	$19, %ecx
.Ltmp254:
	.loc	3 116 334                       # crypto_hash/sha256/cp/hash_sha256_cp.c:116:334
	xorl	%eax, %ecx
.Ltmp255:
	#DEBUG_VALUE: rotr32:x <- $r10d
	#DEBUG_VALUE: rotr32:b <- 22
	.loc	7 51 21                         # ./include/sodium/private/common.h:51:21 @[ crypto_hash/sha256/cp/hash_sha256_cp.c:116:371 ]
	movl	%r10d, %eax
	roll	$10, %eax
.Ltmp256:
	.loc	3 116 369                       # crypto_hash/sha256/cp/hash_sha256_cp.c:116:369
	xorl	%ecx, %eax
	.loc	3 116 446 is_stmt 0             # crypto_hash/sha256/cp/hash_sha256_cp.c:116:446
	movl	%r12d, %ecx
	orl	%r8d, %ecx
	.loc	3 116 426                       # crypto_hash/sha256/cp/hash_sha256_cp.c:116:426
	andl	%r10d, %ecx
	.loc	3 116 487                       # crypto_hash/sha256/cp/hash_sha256_cp.c:116:487
	movl	%r12d, %r9d
	andl	%r8d, %r9d
	.loc	3 116 467                       # crypto_hash/sha256/cp/hash_sha256_cp.c:116:467
	orl	%ecx, %r9d
	.loc	3 116 405                       # crypto_hash/sha256/cp/hash_sha256_cp.c:116:405
	addl	%eax, %r9d
	.loc	3 116 298                       # crypto_hash/sha256/cp/hash_sha256_cp.c:116:298
	addl	%r11d, %r9d
.Ltmp257:
	#DEBUG_VALUE: rotr32:x <- $ebx
	#DEBUG_VALUE: rotr32:b <- 6
	.loc	7 51 21 is_stmt 1               # ./include/sodium/private/common.h:51:21 @[ crypto_hash/sha256/cp/hash_sha256_cp.c:117:30 ]
	movl	%ebx, %eax
	roll	$26, %eax
.Ltmp258:
	#DEBUG_VALUE: rotr32:x <- $ebx
	#DEBUG_VALUE: rotr32:b <- 11
	.loc	3 116 298                       # crypto_hash/sha256/cp/hash_sha256_cp.c:116:298
	movl	%r9d, 20(%r13)
.Ltmp259:
	.loc	7 51 21                         # ./include/sodium/private/common.h:51:21 @[ crypto_hash/sha256/cp/hash_sha256_cp.c:117:64 ]
	movl	%ebx, %ecx
	roll	$21, %ecx
.Ltmp260:
	.loc	3 117 62                        # crypto_hash/sha256/cp/hash_sha256_cp.c:117:62
	xorl	%eax, %ecx
.Ltmp261:
	#DEBUG_VALUE: rotr32:x <- $ebx
	#DEBUG_VALUE: rotr32:b <- 25
	.loc	7 51 21                         # ./include/sodium/private/common.h:51:21 @[ crypto_hash/sha256/cp/hash_sha256_cp.c:117:99 ]
	movl	%ebx, %eax
	roll	$7, %eax
.Ltmp262:
	.loc	3 117 97                        # crypto_hash/sha256/cp/hash_sha256_cp.c:117:97
	xorl	%ecx, %eax
	.loc	3 117 174 is_stmt 0             # crypto_hash/sha256/cp/hash_sha256_cp.c:117:174
	movl	%r14d, %ecx
	xorl	%ebp, %ecx
	.loc	3 117 154                       # crypto_hash/sha256/cp/hash_sha256_cp.c:117:154
	andl	%ebx, %ecx
	.loc	3 117 195                       # crypto_hash/sha256/cp/hash_sha256_cp.c:117:195
	xorl	%ebp, %ecx
	.loc	3 117 229                       # crypto_hash/sha256/cp/hash_sha256_cp.c:117:229
	movl	44(%rdi,%rdx,4), %edi
	movq	-48(%rsp), %rsi                 # 8-byte Reload
	.loc	3 117 133                       # crypto_hash/sha256/cp/hash_sha256_cp.c:117:133
	addl	44(%rsi,%rdx,4), %edi
	.loc	3 117 215                       # crypto_hash/sha256/cp/hash_sha256_cp.c:117:215
	addl	%r15d, %edi
.Ltmp263:
	#DEBUG_VALUE: rotr32:x <- $r9d
	#DEBUG_VALUE: rotr32:b <- 2
	.loc	7 51 21 is_stmt 1               # ./include/sodium/private/common.h:51:21 @[ crypto_hash/sha256/cp/hash_sha256_cp.c:117:302 ]
	movl	%r9d, %esi
	roll	$30, %esi
.Ltmp264:
	#DEBUG_VALUE: rotr32:x <- $r9d
	#DEBUG_VALUE: rotr32:b <- 13
	.loc	3 117 227                       # crypto_hash/sha256/cp/hash_sha256_cp.c:117:227
	addl	%ecx, %edi
.Ltmp265:
	.loc	7 51 21                         # ./include/sodium/private/common.h:51:21 @[ crypto_hash/sha256/cp/hash_sha256_cp.c:117:336 ]
	movl	%r9d, %ecx
	roll	$19, %ecx
.Ltmp266:
	#DEBUG_VALUE: rotr32:x <- $r9d
	#DEBUG_VALUE: rotr32:b <- 22
	.loc	3 117 26                        # crypto_hash/sha256/cp/hash_sha256_cp.c:117:26
	addl	%eax, %edi
.Ltmp267:
	.loc	7 51 21                         # ./include/sodium/private/common.h:51:21 @[ crypto_hash/sha256/cp/hash_sha256_cp.c:117:371 ]
	movl	%r9d, %r11d
	roll	$10, %r11d
.Ltmp268:
	.loc	3 117 334                       # crypto_hash/sha256/cp/hash_sha256_cp.c:117:334
	xorl	%esi, %ecx
	.loc	3 117 369 is_stmt 0             # crypto_hash/sha256/cp/hash_sha256_cp.c:117:369
	xorl	%ecx, %r11d
	.loc	3 117 446                       # crypto_hash/sha256/cp/hash_sha256_cp.c:117:446
	movl	%r10d, %eax
	orl	%r12d, %eax
	.loc	3 117 426                       # crypto_hash/sha256/cp/hash_sha256_cp.c:117:426
	andl	%r9d, %eax
	.loc	3 117 487                       # crypto_hash/sha256/cp/hash_sha256_cp.c:117:487
	movl	%r10d, %esi
	andl	%r12d, %esi
	.loc	3 117 467                       # crypto_hash/sha256/cp/hash_sha256_cp.c:117:467
	orl	%eax, %esi
	.loc	3 118 229 is_stmt 1             # crypto_hash/sha256/cp/hash_sha256_cp.c:118:229
	leaq	Krnd(%rip), %rax
	movl	48(%rax,%rdx,4), %eax
	.loc	3 117 260                       # crypto_hash/sha256/cp/hash_sha256_cp.c:117:260
	addl	%edi, %r8d
.Ltmp269:
	movl	%r8d, (%r13)
	.loc	3 117 405 is_stmt 0             # crypto_hash/sha256/cp/hash_sha256_cp.c:117:405
	addl	%r11d, %esi
	.loc	3 117 298                       # crypto_hash/sha256/cp/hash_sha256_cp.c:117:298
	addl	%edi, %esi
.Ltmp270:
	#DEBUG_VALUE: rotr32:x <- $r8d
	#DEBUG_VALUE: rotr32:b <- 6
	.loc	7 51 21 is_stmt 1               # ./include/sodium/private/common.h:51:21 @[ crypto_hash/sha256/cp/hash_sha256_cp.c:118:30 ]
	movl	%r8d, %ecx
	roll	$26, %ecx
.Ltmp271:
	#DEBUG_VALUE: rotr32:x <- $r8d
	#DEBUG_VALUE: rotr32:b <- 11
	.loc	3 117 298                       # crypto_hash/sha256/cp/hash_sha256_cp.c:117:298
	movl	%esi, 16(%r13)
.Ltmp272:
	.loc	7 51 21                         # ./include/sodium/private/common.h:51:21 @[ crypto_hash/sha256/cp/hash_sha256_cp.c:118:64 ]
	movl	%r8d, %edi
	roll	$21, %edi
.Ltmp273:
	.loc	3 118 62                        # crypto_hash/sha256/cp/hash_sha256_cp.c:118:62
	xorl	%ecx, %edi
.Ltmp274:
	#DEBUG_VALUE: rotr32:x <- $r8d
	#DEBUG_VALUE: rotr32:b <- 25
	.loc	7 51 21                         # ./include/sodium/private/common.h:51:21 @[ crypto_hash/sha256/cp/hash_sha256_cp.c:118:99 ]
	movl	%r8d, %ecx
	roll	$7, %ecx
.Ltmp275:
	.loc	3 118 97                        # crypto_hash/sha256/cp/hash_sha256_cp.c:118:97
	xorl	%edi, %ecx
	.loc	3 118 174 is_stmt 0             # crypto_hash/sha256/cp/hash_sha256_cp.c:118:174
	movl	%ebx, %edi
	xorl	%r14d, %edi
	.loc	3 118 154                       # crypto_hash/sha256/cp/hash_sha256_cp.c:118:154
	andl	%r8d, %edi
	.loc	3 118 195                       # crypto_hash/sha256/cp/hash_sha256_cp.c:118:195
	xorl	%r14d, %edi
	movq	-48(%rsp), %r15                 # 8-byte Reload
.Ltmp276:
	.loc	3 118 133                       # crypto_hash/sha256/cp/hash_sha256_cp.c:118:133
	addl	48(%r15,%rdx,4), %eax
	.loc	3 118 215                       # crypto_hash/sha256/cp/hash_sha256_cp.c:118:215
	addl	%ebp, %eax
	.loc	3 118 227                       # crypto_hash/sha256/cp/hash_sha256_cp.c:118:227
	addl	%edi, %eax
	.loc	3 118 26                        # crypto_hash/sha256/cp/hash_sha256_cp.c:118:26
	addl	%ecx, %eax
	.loc	3 118 260                       # crypto_hash/sha256/cp/hash_sha256_cp.c:118:260
	addl	%eax, %r12d
.Ltmp277:
	movl	%r12d, 28(%r13)
.Ltmp278:
	#DEBUG_VALUE: rotr32:x <- $esi
	#DEBUG_VALUE: rotr32:b <- 2
	.loc	7 51 21 is_stmt 1               # ./include/sodium/private/common.h:51:21 @[ crypto_hash/sha256/cp/hash_sha256_cp.c:118:302 ]
	movl	%esi, %ecx
	roll	$30, %ecx
.Ltmp279:
	#DEBUG_VALUE: rotr32:x <- $esi
	#DEBUG_VALUE: rotr32:b <- 13
	.loc	7 51 21 is_stmt 0               # ./include/sodium/private/common.h:51:21 @[ crypto_hash/sha256/cp/hash_sha256_cp.c:118:336 ]
	movl	%esi, %edi
	roll	$19, %edi
.Ltmp280:
	.loc	3 118 334 is_stmt 1             # crypto_hash/sha256/cp/hash_sha256_cp.c:118:334
	xorl	%ecx, %edi
.Ltmp281:
	#DEBUG_VALUE: rotr32:x <- $esi
	#DEBUG_VALUE: rotr32:b <- 22
	.loc	7 51 21                         # ./include/sodium/private/common.h:51:21 @[ crypto_hash/sha256/cp/hash_sha256_cp.c:118:371 ]
	movl	%esi, %ecx
	roll	$10, %ecx
.Ltmp282:
	.loc	3 118 369                       # crypto_hash/sha256/cp/hash_sha256_cp.c:118:369
	xorl	%edi, %ecx
	.loc	3 118 446 is_stmt 0             # crypto_hash/sha256/cp/hash_sha256_cp.c:118:446
	movl	%r9d, %r11d
	orl	%r10d, %r11d
	.loc	3 118 426                       # crypto_hash/sha256/cp/hash_sha256_cp.c:118:426
	andl	%esi, %r11d
	.loc	3 118 487                       # crypto_hash/sha256/cp/hash_sha256_cp.c:118:487
	movl	%r9d, %edi
	andl	%r10d, %edi
	.loc	3 118 467                       # crypto_hash/sha256/cp/hash_sha256_cp.c:118:467
	orl	%r11d, %edi
	.loc	3 118 405                       # crypto_hash/sha256/cp/hash_sha256_cp.c:118:405
	addl	%ecx, %edi
	.loc	3 118 298                       # crypto_hash/sha256/cp/hash_sha256_cp.c:118:298
	addl	%eax, %edi
	movl	%edi, 12(%r13)
.Ltmp283:
	#DEBUG_VALUE: rotr32:x <- $r12d
	#DEBUG_VALUE: rotr32:b <- 6
	.loc	7 51 21 is_stmt 1               # ./include/sodium/private/common.h:51:21 @[ crypto_hash/sha256/cp/hash_sha256_cp.c:119:30 ]
	movl	%r12d, %eax
	roll	$26, %eax
.Ltmp284:
	#DEBUG_VALUE: rotr32:x <- $r12d
	#DEBUG_VALUE: rotr32:b <- 11
	.loc	7 51 21 is_stmt 0               # ./include/sodium/private/common.h:51:21 @[ crypto_hash/sha256/cp/hash_sha256_cp.c:119:64 ]
	movl	%r12d, %ecx
	roll	$21, %ecx
.Ltmp285:
	.loc	3 119 62 is_stmt 1              # crypto_hash/sha256/cp/hash_sha256_cp.c:119:62
	xorl	%eax, %ecx
.Ltmp286:
	#DEBUG_VALUE: rotr32:x <- $r12d
	#DEBUG_VALUE: rotr32:b <- 25
	.loc	7 51 21                         # ./include/sodium/private/common.h:51:21 @[ crypto_hash/sha256/cp/hash_sha256_cp.c:119:99 ]
	movl	%r12d, %r11d
	roll	$7, %r11d
.Ltmp287:
	.loc	3 119 97                        # crypto_hash/sha256/cp/hash_sha256_cp.c:119:97
	xorl	%ecx, %r11d
	.loc	3 119 174 is_stmt 0             # crypto_hash/sha256/cp/hash_sha256_cp.c:119:174
	movl	%r8d, %ecx
	xorl	%ebx, %ecx
	.loc	3 119 154                       # crypto_hash/sha256/cp/hash_sha256_cp.c:119:154
	andl	%r12d, %ecx
	.loc	3 119 195                       # crypto_hash/sha256/cp/hash_sha256_cp.c:119:195
	xorl	%ebx, %ecx
	leaq	Krnd(%rip), %rax
	.loc	3 119 229                       # crypto_hash/sha256/cp/hash_sha256_cp.c:119:229
	movl	52(%rax,%rdx,4), %eax
	.loc	3 119 133                       # crypto_hash/sha256/cp/hash_sha256_cp.c:119:133
	addl	52(%r15,%rdx,4), %eax
	.loc	3 119 215                       # crypto_hash/sha256/cp/hash_sha256_cp.c:119:215
	addl	%r14d, %eax
	.loc	3 119 227                       # crypto_hash/sha256/cp/hash_sha256_cp.c:119:227
	addl	%ecx, %eax
	.loc	3 119 26                        # crypto_hash/sha256/cp/hash_sha256_cp.c:119:26
	addl	%r11d, %eax
.Ltmp288:
	#DEBUG_VALUE: rotr32:x <- $edi
	#DEBUG_VALUE: rotr32:b <- 2
	.loc	7 51 21 is_stmt 1               # ./include/sodium/private/common.h:51:21 @[ crypto_hash/sha256/cp/hash_sha256_cp.c:119:302 ]
	movl	%edi, %ecx
	roll	$30, %ecx
.Ltmp289:
	#DEBUG_VALUE: rotr32:x <- $edi
	#DEBUG_VALUE: rotr32:b <- 13
	.loc	3 119 260                       # crypto_hash/sha256/cp/hash_sha256_cp.c:119:260
	addl	%eax, %r10d
.Ltmp290:
	.loc	7 51 21                         # ./include/sodium/private/common.h:51:21 @[ crypto_hash/sha256/cp/hash_sha256_cp.c:119:336 ]
	movl	%edi, %r11d
	roll	$19, %r11d
.Ltmp291:
	#DEBUG_VALUE: rotr32:x <- $edi
	#DEBUG_VALUE: rotr32:b <- 22
	.loc	3 119 260                       # crypto_hash/sha256/cp/hash_sha256_cp.c:119:260
	movl	%r10d, 24(%r13)
.Ltmp292:
	.loc	7 51 21                         # ./include/sodium/private/common.h:51:21 @[ crypto_hash/sha256/cp/hash_sha256_cp.c:119:371 ]
	movl	%edi, %ebp
.Ltmp293:
	roll	$10, %ebp
.Ltmp294:
	.loc	3 119 334                       # crypto_hash/sha256/cp/hash_sha256_cp.c:119:334
	xorl	%ecx, %r11d
	.loc	3 119 369 is_stmt 0             # crypto_hash/sha256/cp/hash_sha256_cp.c:119:369
	xorl	%r11d, %ebp
	.loc	3 119 446                       # crypto_hash/sha256/cp/hash_sha256_cp.c:119:446
	movl	%esi, %ecx
	orl	%r9d, %ecx
	.loc	3 119 426                       # crypto_hash/sha256/cp/hash_sha256_cp.c:119:426
	andl	%edi, %ecx
	.loc	3 119 487                       # crypto_hash/sha256/cp/hash_sha256_cp.c:119:487
	movl	%esi, %r11d
	andl	%r9d, %r11d
	.loc	3 119 467                       # crypto_hash/sha256/cp/hash_sha256_cp.c:119:467
	orl	%ecx, %r11d
	.loc	3 119 405                       # crypto_hash/sha256/cp/hash_sha256_cp.c:119:405
	addl	%ebp, %r11d
.Ltmp295:
	#DEBUG_VALUE: rotr32:x <- $r10d
	#DEBUG_VALUE: rotr32:b <- 6
	.loc	7 51 21 is_stmt 1               # ./include/sodium/private/common.h:51:21 @[ crypto_hash/sha256/cp/hash_sha256_cp.c:120:30 ]
	movl	%r10d, %ecx
	roll	$26, %ecx
.Ltmp296:
	#DEBUG_VALUE: rotr32:x <- $r10d
	#DEBUG_VALUE: rotr32:b <- 11
	.loc	3 119 298                       # crypto_hash/sha256/cp/hash_sha256_cp.c:119:298
	addl	%eax, %r11d
.Ltmp297:
	.loc	7 51 21                         # ./include/sodium/private/common.h:51:21 @[ crypto_hash/sha256/cp/hash_sha256_cp.c:120:64 ]
	movl	%r10d, %eax
	roll	$21, %eax
.Ltmp298:
	#DEBUG_VALUE: rotr32:x <- $r10d
	#DEBUG_VALUE: rotr32:b <- 25
	.loc	3 119 298                       # crypto_hash/sha256/cp/hash_sha256_cp.c:119:298
	movl	%r11d, 8(%r13)
.Ltmp299:
	.loc	7 51 21                         # ./include/sodium/private/common.h:51:21 @[ crypto_hash/sha256/cp/hash_sha256_cp.c:120:99 ]
	movl	%r10d, %ebp
	roll	$7, %ebp
.Ltmp300:
	.loc	3 120 62                        # crypto_hash/sha256/cp/hash_sha256_cp.c:120:62
	xorl	%ecx, %eax
	.loc	3 120 97 is_stmt 0              # crypto_hash/sha256/cp/hash_sha256_cp.c:120:97
	xorl	%eax, %ebp
	.loc	3 120 174                       # crypto_hash/sha256/cp/hash_sha256_cp.c:120:174
	movl	%r12d, %ecx
	xorl	%r8d, %ecx
	.loc	3 120 154                       # crypto_hash/sha256/cp/hash_sha256_cp.c:120:154
	andl	%r10d, %ecx
	.loc	3 120 229                       # crypto_hash/sha256/cp/hash_sha256_cp.c:120:229
	leaq	Krnd(%rip), %rax
	movl	56(%rax,%rdx,4), %eax
	.loc	3 120 133                       # crypto_hash/sha256/cp/hash_sha256_cp.c:120:133
	addl	56(%r15,%rdx,4), %eax
	.loc	3 120 195                       # crypto_hash/sha256/cp/hash_sha256_cp.c:120:195
	xorl	%r8d, %ecx
	.loc	3 120 215                       # crypto_hash/sha256/cp/hash_sha256_cp.c:120:215
	addl	%ebx, %eax
	.loc	3 120 227                       # crypto_hash/sha256/cp/hash_sha256_cp.c:120:227
	addl	%ecx, %eax
	.loc	3 120 26                        # crypto_hash/sha256/cp/hash_sha256_cp.c:120:26
	addl	%ebp, %eax
	.loc	3 120 260                       # crypto_hash/sha256/cp/hash_sha256_cp.c:120:260
	addl	%eax, %r9d
.Ltmp301:
	#DEBUG_VALUE: rotr32:x <- $r11d
	#DEBUG_VALUE: rotr32:b <- 2
	.loc	7 51 21 is_stmt 1               # ./include/sodium/private/common.h:51:21 @[ crypto_hash/sha256/cp/hash_sha256_cp.c:120:302 ]
	movl	%r11d, %ecx
	roll	$30, %ecx
.Ltmp302:
	#DEBUG_VALUE: rotr32:x <- $r11d
	#DEBUG_VALUE: rotr32:b <- 13
	.loc	7 51 21 is_stmt 0               # ./include/sodium/private/common.h:51:21 @[ crypto_hash/sha256/cp/hash_sha256_cp.c:120:336 ]
	movl	%r11d, %ebp
	roll	$19, %ebp
.Ltmp303:
	.loc	3 120 334 is_stmt 1             # crypto_hash/sha256/cp/hash_sha256_cp.c:120:334
	xorl	%ecx, %ebp
.Ltmp304:
	#DEBUG_VALUE: rotr32:x <- $r11d
	#DEBUG_VALUE: rotr32:b <- 22
	.loc	7 51 21                         # ./include/sodium/private/common.h:51:21 @[ crypto_hash/sha256/cp/hash_sha256_cp.c:120:371 ]
	movl	%r11d, %ebx
.Ltmp305:
	roll	$10, %ebx
.Ltmp306:
	.loc	3 120 369                       # crypto_hash/sha256/cp/hash_sha256_cp.c:120:369
	xorl	%ebp, %ebx
	.loc	3 120 446 is_stmt 0             # crypto_hash/sha256/cp/hash_sha256_cp.c:120:446
	movl	%edi, %ebp
	orl	%esi, %ebp
	.loc	3 120 426                       # crypto_hash/sha256/cp/hash_sha256_cp.c:120:426
	andl	%r11d, %ebp
.Ltmp307:
	#DEBUG_VALUE: rotr32:x <- $r9d
	#DEBUG_VALUE: rotr32:b <- 6
	#DEBUG_VALUE: rotr32:x <- $r9d
	#DEBUG_VALUE: rotr32:b <- 11
	#DEBUG_VALUE: rotr32:x <- $r9d
	#DEBUG_VALUE: rotr32:b <- 25
	#DEBUG_VALUE: rotr32:x <- undef
	#DEBUG_VALUE: rotr32:b <- 2
	#DEBUG_VALUE: rotr32:x <- undef
	#DEBUG_VALUE: rotr32:b <- 13
	#DEBUG_VALUE: rotr32:x <- undef
	#DEBUG_VALUE: rotr32:b <- 22
	.loc	3 121 446 is_stmt 1             # crypto_hash/sha256/cp/hash_sha256_cp.c:121:446
	movl	%r11d, %r14d
.Ltmp308:
	orl	%edi, %r14d
	.loc	3 121 487 is_stmt 0             # crypto_hash/sha256/cp/hash_sha256_cp.c:121:487
	andl	%edi, %r11d
.Ltmp309:
	.loc	3 120 487 is_stmt 1             # crypto_hash/sha256/cp/hash_sha256_cp.c:120:487
	andl	%esi, %edi
.Ltmp310:
	.loc	3 120 467 is_stmt 0             # crypto_hash/sha256/cp/hash_sha256_cp.c:120:467
	orl	%ebp, %edi
	.loc	3 120 405                       # crypto_hash/sha256/cp/hash_sha256_cp.c:120:405
	addl	%ebx, %edi
.Ltmp311:
	.loc	7 51 21 is_stmt 1               # ./include/sodium/private/common.h:51:21 @[ crypto_hash/sha256/cp/hash_sha256_cp.c:121:64 ]
	movl	%r9d, %ecx
.Ltmp312:
	.loc	7 51 21 is_stmt 0               # ./include/sodium/private/common.h:51:21 @[ crypto_hash/sha256/cp/hash_sha256_cp.c:121:30 ]
	movl	%r9d, %ebx
	roll	$26, %ebx
.Ltmp313:
	.loc	7 51 21                         # ./include/sodium/private/common.h:51:21 @[ crypto_hash/sha256/cp/hash_sha256_cp.c:121:64 ]
	roll	$21, %ecx
.Ltmp314:
	.loc	3 120 298 is_stmt 1             # crypto_hash/sha256/cp/hash_sha256_cp.c:120:298
	addl	%eax, %edi
.Ltmp315:
	#DEBUG_VALUE: rotr32:x <- $edi
	#DEBUG_VALUE: rotr32:x <- $edi
	#DEBUG_VALUE: rotr32:x <- $edi
	.loc	3 121 62                        # crypto_hash/sha256/cp/hash_sha256_cp.c:121:62
	xorl	%ebx, %ecx
	.loc	3 120 260                       # crypto_hash/sha256/cp/hash_sha256_cp.c:120:260
	movl	%r9d, 20(%r13)
	.loc	3 121 174                       # crypto_hash/sha256/cp/hash_sha256_cp.c:121:174
	xorl	%r12d, %r10d
.Ltmp316:
	.loc	3 121 154 is_stmt 0             # crypto_hash/sha256/cp/hash_sha256_cp.c:121:154
	andl	%r9d, %r10d
.Ltmp317:
	.loc	7 51 21 is_stmt 1               # ./include/sodium/private/common.h:51:21 @[ crypto_hash/sha256/cp/hash_sha256_cp.c:121:99 ]
	roll	$7, %r9d
.Ltmp318:
	.loc	3 121 97                        # crypto_hash/sha256/cp/hash_sha256_cp.c:121:97
	xorl	%ecx, %r9d
	.loc	3 120 298                       # crypto_hash/sha256/cp/hash_sha256_cp.c:120:298
	movl	%edi, 4(%r13)
	.loc	3 121 195                       # crypto_hash/sha256/cp/hash_sha256_cp.c:121:195
	xorl	%r12d, %r10d
	.loc	3 121 229 is_stmt 0             # crypto_hash/sha256/cp/hash_sha256_cp.c:121:229
	leaq	Krnd(%rip), %rax
	movl	60(%rax,%rdx,4), %eax
	.loc	3 121 133                       # crypto_hash/sha256/cp/hash_sha256_cp.c:121:133
	addl	60(%r15,%rdx,4), %eax
	.loc	3 121 215                       # crypto_hash/sha256/cp/hash_sha256_cp.c:121:215
	addl	%r8d, %eax
	.loc	3 121 227                       # crypto_hash/sha256/cp/hash_sha256_cp.c:121:227
	addl	%r10d, %eax
	.loc	3 121 26                        # crypto_hash/sha256/cp/hash_sha256_cp.c:121:26
	addl	%r9d, %eax
	.loc	3 121 260                       # crypto_hash/sha256/cp/hash_sha256_cp.c:121:260
	addl	%eax, %esi
.Ltmp319:
	.loc	7 51 21 is_stmt 1               # ./include/sodium/private/common.h:51:21 @[ crypto_hash/sha256/cp/hash_sha256_cp.c:121:336 ]
	movl	%edi, %ecx
.Ltmp320:
	.loc	7 51 21 is_stmt 0               # ./include/sodium/private/common.h:51:21 @[ crypto_hash/sha256/cp/hash_sha256_cp.c:121:302 ]
	movl	%edi, %r8d
.Ltmp321:
	roll	$30, %r8d
.Ltmp322:
	.loc	7 51 21                         # ./include/sodium/private/common.h:51:21 @[ crypto_hash/sha256/cp/hash_sha256_cp.c:121:336 ]
	roll	$19, %ecx
.Ltmp323:
	.loc	3 121 260 is_stmt 1             # crypto_hash/sha256/cp/hash_sha256_cp.c:121:260
	movl	%esi, 16(%r13)
	.loc	3 121 334 is_stmt 0             # crypto_hash/sha256/cp/hash_sha256_cp.c:121:334
	xorl	%r8d, %ecx
	.loc	3 121 426                       # crypto_hash/sha256/cp/hash_sha256_cp.c:121:426
	andl	%edi, %r14d
.Ltmp324:
	.loc	7 51 21 is_stmt 1               # ./include/sodium/private/common.h:51:21 @[ crypto_hash/sha256/cp/hash_sha256_cp.c:121:371 ]
	roll	$10, %edi
.Ltmp325:
	.loc	3 121 369                       # crypto_hash/sha256/cp/hash_sha256_cp.c:121:369
	xorl	%ecx, %edi
	.loc	3 121 467 is_stmt 0             # crypto_hash/sha256/cp/hash_sha256_cp.c:121:467
	orl	%r14d, %r11d
	.loc	3 121 405                       # crypto_hash/sha256/cp/hash_sha256_cp.c:121:405
	addl	%edi, %r11d
	.loc	3 121 298                       # crypto_hash/sha256/cp/hash_sha256_cp.c:121:298
	addl	%eax, %r11d
	movl	%r11d, (%r13)
.Ltmp326:
	.loc	3 122 15 is_stmt 1              # crypto_hash/sha256/cp/hash_sha256_cp.c:122:15
	cmpq	$48, %rdx
	je	.LBB2_5
.Ltmp327:
# %bb.4:                                #   in Loop: Header=BB2_3 Depth=1
	#DEBUG_VALUE: SHA256_Transform:state <- [DW_OP_constu 8, DW_OP_minus] [$rsp+0]
	#DEBUG_VALUE: SHA256_Transform:block <- [DW_OP_LLVM_entry_value 1] $rsi
	#DEBUG_VALUE: SHA256_Transform:W <- [DW_OP_constu 48, DW_OP_minus] [$rsp+0]
	#DEBUG_VALUE: SHA256_Transform:S <- [DW_OP_constu 32, DW_OP_minus] [$rsp+0]
	#DEBUG_VALUE: SHA256_Transform:i <- [DW_OP_constu 24, DW_OP_minus, DW_OP_deref_size 8, DW_OP_stack_value] $rsp
	.loc	3 0 15 is_stmt 0                # crypto_hash/sha256/cp/hash_sha256_cp.c:0:15
	movq	-48(%rsp), %r8                  # 8-byte Reload
	movq	-24(%rsp), %r9                  # 8-byte Reload
	.loc	3 125 34 is_stmt 1              # crypto_hash/sha256/cp/hash_sha256_cp.c:125:34
	movl	56(%r8,%r9,4), %ebx
	#DEBUG_VALUE: rotr32:x <- $ebx
.Ltmp328:
	#DEBUG_VALUE: rotr32:b <- 17
	.loc	3 0 34 is_stmt 0                # crypto_hash/sha256/cp/hash_sha256_cp.c:0:34
	movl	%ebx, -12(%rsp)                 # 4-byte Spill
.Ltmp329:
	#DEBUG_VALUE: rotr32:x <- [DW_OP_constu 12, DW_OP_minus, DW_OP_deref] $rsp
	.loc	7 51 21 is_stmt 1               # ./include/sodium/private/common.h:51:21 @[ crypto_hash/sha256/cp/hash_sha256_cp.c:125:26 ]
	movl	%ebx, %eax
	roll	$15, %eax
.Ltmp330:
	#DEBUG_VALUE: rotr32:x <- [DW_OP_constu 12, DW_OP_minus, DW_OP_deref] $rsp
	#DEBUG_VALUE: rotr32:b <- 19
	.loc	7 51 21 is_stmt 0               # ./include/sodium/private/common.h:51:21 @[ crypto_hash/sha256/cp/hash_sha256_cp.c:125:58 ]
	movl	%ebx, %ecx
	roll	$13, %ecx
.Ltmp331:
	.loc	3 125 56 is_stmt 1              # crypto_hash/sha256/cp/hash_sha256_cp.c:125:56
	xorl	%eax, %ecx
	.loc	3 125 105 is_stmt 0             # crypto_hash/sha256/cp/hash_sha256_cp.c:125:105
	shrl	$10, %ebx
	.loc	3 125 88                        # crypto_hash/sha256/cp/hash_sha256_cp.c:125:88
	xorl	%ecx, %ebx
	.loc	3 125 115                       # crypto_hash/sha256/cp/hash_sha256_cp.c:125:115
	movl	36(%r8,%r9,4), %r15d
	.loc	3 125 113                       # crypto_hash/sha256/cp/hash_sha256_cp.c:125:113
	addl	%r15d, %ebx
	.loc	3 125 139                       # crypto_hash/sha256/cp/hash_sha256_cp.c:125:139
	movl	4(%r8,%r9,4), %r10d
.Ltmp332:
	#DEBUG_VALUE: rotr32:x <- $r10d
	#DEBUG_VALUE: rotr32:x <- undef
	#DEBUG_VALUE: rotr32:b <- 7
	.loc	7 51 21 is_stmt 1               # ./include/sodium/private/common.h:51:21 @[ crypto_hash/sha256/cp/hash_sha256_cp.c:125:131 ]
	movl	%r10d, %eax
	roll	$25, %eax
.Ltmp333:
	#DEBUG_VALUE: rotr32:x <- $r10d
	#DEBUG_VALUE: rotr32:b <- 18
	.loc	3 126 139                       # crypto_hash/sha256/cp/hash_sha256_cp.c:126:139
	movl	8(%r8,%r9,4), %edx
.Ltmp334:
	#DEBUG_VALUE: rotr32:x <- $edx
	.loc	7 51 21                         # ./include/sodium/private/common.h:51:21 @[ crypto_hash/sha256/cp/hash_sha256_cp.c:125:161 ]
	movl	%r10d, %ecx
	roll	$14, %ecx
.Ltmp335:
	.loc	3 125 159                       # crypto_hash/sha256/cp/hash_sha256_cp.c:125:159
	xorl	%eax, %ecx
	.loc	3 125 206 is_stmt 0             # crypto_hash/sha256/cp/hash_sha256_cp.c:125:206
	movl	%r10d, %eax
	shrl	$3, %eax
	.loc	3 125 190                       # crypto_hash/sha256/cp/hash_sha256_cp.c:125:190
	xorl	%ecx, %eax
	.loc	3 125 128                       # crypto_hash/sha256/cp/hash_sha256_cp.c:125:128
	addl	(%r8,%r9,4), %ebx
	.loc	3 125 213                       # crypto_hash/sha256/cp/hash_sha256_cp.c:125:213
	addl	%eax, %ebx
	.loc	3 125 23                        # crypto_hash/sha256/cp/hash_sha256_cp.c:125:23
	movl	%ebx, 64(%r8,%r9,4)
	.loc	3 126 34 is_stmt 1              # crypto_hash/sha256/cp/hash_sha256_cp.c:126:34
	movl	60(%r8,%r9,4), %esi
	#DEBUG_VALUE: rotr32:x <- $esi
.Ltmp336:
	#DEBUG_VALUE: rotr32:b <- 17
	.loc	3 0 34 is_stmt 0                # crypto_hash/sha256/cp/hash_sha256_cp.c:0:34
	movl	%esi, -36(%rsp)                 # 4-byte Spill
.Ltmp337:
	#DEBUG_VALUE: rotr32:x <- [DW_OP_constu 36, DW_OP_minus, DW_OP_deref] $rsp
	.loc	7 51 21 is_stmt 1               # ./include/sodium/private/common.h:51:21 @[ crypto_hash/sha256/cp/hash_sha256_cp.c:126:26 ]
	movl	%esi, %eax
	roll	$15, %eax
.Ltmp338:
	#DEBUG_VALUE: rotr32:b <- 19
	#DEBUG_VALUE: rotr32:x <- [DW_OP_constu 36, DW_OP_minus, DW_OP_deref] $rsp
	.loc	7 51 21 is_stmt 0               # ./include/sodium/private/common.h:51:21 @[ crypto_hash/sha256/cp/hash_sha256_cp.c:126:58 ]
	movl	%esi, %ecx
	roll	$13, %ecx
.Ltmp339:
	.loc	3 126 56 is_stmt 1              # crypto_hash/sha256/cp/hash_sha256_cp.c:126:56
	xorl	%eax, %ecx
	.loc	3 126 105 is_stmt 0             # crypto_hash/sha256/cp/hash_sha256_cp.c:126:105
	movl	%esi, %eax
	shrl	$10, %eax
	.loc	3 126 88                        # crypto_hash/sha256/cp/hash_sha256_cp.c:126:88
	xorl	%ecx, %eax
	.loc	3 126 115                       # crypto_hash/sha256/cp/hash_sha256_cp.c:126:115
	movl	40(%r8,%r9,4), %r11d
.Ltmp340:
	#DEBUG_VALUE: rotr32:b <- 7
	.loc	7 51 21 is_stmt 1               # ./include/sodium/private/common.h:51:21 @[ crypto_hash/sha256/cp/hash_sha256_cp.c:126:131 ]
	movl	%edx, %ecx
	roll	$25, %ecx
.Ltmp341:
	#DEBUG_VALUE: rotr32:b <- 18
	#DEBUG_VALUE: rotr32:x <- $edx
	.loc	7 51 21 is_stmt 0               # ./include/sodium/private/common.h:51:21 @[ crypto_hash/sha256/cp/hash_sha256_cp.c:126:161 ]
	movl	%edx, %esi
	roll	$14, %esi
.Ltmp342:
	.loc	3 126 159 is_stmt 1             # crypto_hash/sha256/cp/hash_sha256_cp.c:126:159
	xorl	%ecx, %esi
	.loc	3 126 206 is_stmt 0             # crypto_hash/sha256/cp/hash_sha256_cp.c:126:206
	movl	%edx, %ecx
	shrl	$3, %ecx
	.loc	3 126 190                       # crypto_hash/sha256/cp/hash_sha256_cp.c:126:190
	xorl	%esi, %ecx
	.loc	3 126 113                       # crypto_hash/sha256/cp/hash_sha256_cp.c:126:113
	addl	%r11d, %r10d
.Ltmp343:
	.loc	3 126 128                       # crypto_hash/sha256/cp/hash_sha256_cp.c:126:128
	addl	%eax, %r10d
.Ltmp344:
	#DEBUG_VALUE: rotr32:x <- $ebx
	#DEBUG_VALUE: rotr32:b <- 17
	.loc	7 51 21 is_stmt 1               # ./include/sodium/private/common.h:51:21 @[ crypto_hash/sha256/cp/hash_sha256_cp.c:127:26 ]
	movl	%ebx, %eax
	roll	$15, %eax
.Ltmp345:
	#DEBUG_VALUE: rotr32:x <- $ebx
	#DEBUG_VALUE: rotr32:b <- 19
	.loc	3 126 213                       # crypto_hash/sha256/cp/hash_sha256_cp.c:126:213
	addl	%ecx, %r10d
.Ltmp346:
	.loc	7 51 21                         # ./include/sodium/private/common.h:51:21 @[ crypto_hash/sha256/cp/hash_sha256_cp.c:127:58 ]
	movl	%ebx, %ecx
	roll	$13, %ecx
.Ltmp347:
	.loc	3 126 23                        # crypto_hash/sha256/cp/hash_sha256_cp.c:126:23
	movl	%r10d, 68(%r8,%r9,4)
	.loc	3 127 56                        # crypto_hash/sha256/cp/hash_sha256_cp.c:127:56
	xorl	%eax, %ecx
	.loc	3 127 105 is_stmt 0             # crypto_hash/sha256/cp/hash_sha256_cp.c:127:105
	movl	%ebx, %eax
	shrl	$10, %eax
	.loc	3 127 139                       # crypto_hash/sha256/cp/hash_sha256_cp.c:127:139
	movl	12(%r8,%r9,4), %esi
.Ltmp348:
	#DEBUG_VALUE: rotr32:x <- $esi
	#DEBUG_VALUE: rotr32:b <- 7
	.loc	7 51 21 is_stmt 1               # ./include/sodium/private/common.h:51:21 @[ crypto_hash/sha256/cp/hash_sha256_cp.c:127:131 ]
	movl	%esi, %edi
	roll	$25, %edi
.Ltmp349:
	#DEBUG_VALUE: rotr32:b <- 18
	#DEBUG_VALUE: rotr32:x <- $esi
	.loc	3 127 88                        # crypto_hash/sha256/cp/hash_sha256_cp.c:127:88
	xorl	%ecx, %eax
.Ltmp350:
	.loc	7 51 21                         # ./include/sodium/private/common.h:51:21 @[ crypto_hash/sha256/cp/hash_sha256_cp.c:127:161 ]
	movl	%esi, %ecx
	roll	$14, %ecx
.Ltmp351:
	.loc	3 127 115                       # crypto_hash/sha256/cp/hash_sha256_cp.c:127:115
	movl	44(%r8,%r9,4), %ebp
	.loc	3 127 159 is_stmt 0             # crypto_hash/sha256/cp/hash_sha256_cp.c:127:159
	xorl	%edi, %ecx
	.loc	3 127 206                       # crypto_hash/sha256/cp/hash_sha256_cp.c:127:206
	movl	%esi, %edi
	shrl	$3, %edi
	.loc	3 127 190                       # crypto_hash/sha256/cp/hash_sha256_cp.c:127:190
	xorl	%ecx, %edi
	.loc	3 127 113                       # crypto_hash/sha256/cp/hash_sha256_cp.c:127:113
	addl	%ebp, %edx
.Ltmp352:
	.loc	3 127 128                       # crypto_hash/sha256/cp/hash_sha256_cp.c:127:128
	addl	%edi, %edx
	.loc	3 127 213                       # crypto_hash/sha256/cp/hash_sha256_cp.c:127:213
	addl	%eax, %edx
	.loc	3 127 23                        # crypto_hash/sha256/cp/hash_sha256_cp.c:127:23
	movl	%edx, 72(%r8,%r9,4)
.Ltmp353:
	#DEBUG_VALUE: rotr32:x <- $r10d
	#DEBUG_VALUE: rotr32:b <- 17
	.loc	7 51 21 is_stmt 1               # ./include/sodium/private/common.h:51:21 @[ crypto_hash/sha256/cp/hash_sha256_cp.c:128:26 ]
	movl	%r10d, %eax
	roll	$15, %eax
.Ltmp354:
	#DEBUG_VALUE: rotr32:x <- $r10d
	#DEBUG_VALUE: rotr32:b <- 19
	.loc	7 51 21 is_stmt 0               # ./include/sodium/private/common.h:51:21 @[ crypto_hash/sha256/cp/hash_sha256_cp.c:128:58 ]
	movl	%r10d, %ecx
	roll	$13, %ecx
.Ltmp355:
	.loc	3 128 56 is_stmt 1              # crypto_hash/sha256/cp/hash_sha256_cp.c:128:56
	xorl	%eax, %ecx
	.loc	3 128 105 is_stmt 0             # crypto_hash/sha256/cp/hash_sha256_cp.c:128:105
	movl	%r10d, %edi
	shrl	$10, %edi
	.loc	3 128 88                        # crypto_hash/sha256/cp/hash_sha256_cp.c:128:88
	xorl	%ecx, %edi
	.loc	3 128 115                       # crypto_hash/sha256/cp/hash_sha256_cp.c:128:115
	movl	48(%r8,%r9,4), %r14d
	.loc	3 128 139                       # crypto_hash/sha256/cp/hash_sha256_cp.c:128:139
	movl	16(%r8,%r9,4), %ecx
.Ltmp356:
	#DEBUG_VALUE: rotr32:x <- $ecx
	#DEBUG_VALUE: rotr32:b <- 7
	.loc	7 51 21 is_stmt 1               # ./include/sodium/private/common.h:51:21 @[ crypto_hash/sha256/cp/hash_sha256_cp.c:128:131 ]
	movl	%ecx, %eax
	roll	$25, %eax
.Ltmp357:
	#DEBUG_VALUE: rotr32:b <- 18
	#DEBUG_VALUE: rotr32:x <- $ecx
	.loc	7 51 21 is_stmt 0               # ./include/sodium/private/common.h:51:21 @[ crypto_hash/sha256/cp/hash_sha256_cp.c:128:161 ]
	movl	%ecx, %r12d
	roll	$14, %r12d
.Ltmp358:
	.loc	3 128 159 is_stmt 1             # crypto_hash/sha256/cp/hash_sha256_cp.c:128:159
	xorl	%eax, %r12d
	.loc	3 128 206 is_stmt 0             # crypto_hash/sha256/cp/hash_sha256_cp.c:128:206
	movl	%ecx, %eax
	shrl	$3, %eax
	.loc	3 128 190                       # crypto_hash/sha256/cp/hash_sha256_cp.c:128:190
	xorl	%r12d, %eax
	.loc	3 128 113                       # crypto_hash/sha256/cp/hash_sha256_cp.c:128:113
	addl	%r14d, %esi
.Ltmp359:
	.loc	3 128 128                       # crypto_hash/sha256/cp/hash_sha256_cp.c:128:128
	addl	%eax, %esi
.Ltmp360:
	#DEBUG_VALUE: rotr32:x <- $edx
	#DEBUG_VALUE: rotr32:b <- 17
	#DEBUG_VALUE: rotr32:x <- $edx
	#DEBUG_VALUE: rotr32:b <- 19
	#DEBUG_VALUE: rotr32:x <- undef
	#DEBUG_VALUE: rotr32:b <- 7
	#DEBUG_VALUE: rotr32:x <- undef
	#DEBUG_VALUE: rotr32:x <- undef
	#DEBUG_VALUE: rotr32:b <- 17
	#DEBUG_VALUE: rotr32:x <- undef
	#DEBUG_VALUE: rotr32:b <- 19
	#DEBUG_VALUE: rotr32:x <- undef
	#DEBUG_VALUE: rotr32:x <- undef
	#DEBUG_VALUE: rotr32:b <- 18
	#DEBUG_VALUE: rotr32:x <- undef
	#DEBUG_VALUE: rotr32:b <- 17
	#DEBUG_VALUE: rotr32:x <- undef
	#DEBUG_VALUE: rotr32:b <- 19
	#DEBUG_VALUE: rotr32:x <- undef
	#DEBUG_VALUE: rotr32:b <- 7
	#DEBUG_VALUE: rotr32:x <- undef
	#DEBUG_VALUE: rotr32:b <- 18
	#DEBUG_VALUE: rotr32:x <- undef
	#DEBUG_VALUE: rotr32:b <- 17
	#DEBUG_VALUE: rotr32:x <- undef
	#DEBUG_VALUE: rotr32:b <- 19
	#DEBUG_VALUE: rotr32:x <- undef
	#DEBUG_VALUE: rotr32:b <- 7
	#DEBUG_VALUE: rotr32:x <- undef
	#DEBUG_VALUE: rotr32:b <- 18
	#DEBUG_VALUE: rotr32:x <- undef
	#DEBUG_VALUE: rotr32:b <- 17
	#DEBUG_VALUE: rotr32:x <- undef
	#DEBUG_VALUE: rotr32:b <- 19
	#DEBUG_VALUE: rotr32:x <- undef
	#DEBUG_VALUE: rotr32:b <- 7
	#DEBUG_VALUE: rotr32:x <- undef
	#DEBUG_VALUE: rotr32:b <- 18
	#DEBUG_VALUE: rotr32:x <- undef
	#DEBUG_VALUE: rotr32:b <- 17
	#DEBUG_VALUE: rotr32:x <- undef
	#DEBUG_VALUE: rotr32:b <- 19
	#DEBUG_VALUE: rotr32:x <- $r11d
	.loc	7 51 21 is_stmt 1               # ./include/sodium/private/common.h:51:21 @[ crypto_hash/sha256/cp/hash_sha256_cp.c:134:131 ]
	movl	%r11d, %eax
	roll	$25, %eax
.Ltmp361:
	#DEBUG_VALUE: rotr32:b <- 18
	#DEBUG_VALUE: rotr32:x <- $r11d
	.loc	3 128 213                       # crypto_hash/sha256/cp/hash_sha256_cp.c:128:213
	addl	%edi, %esi
.Ltmp362:
	#DEBUG_VALUE: rotr32:x <- $esi
	#DEBUG_VALUE: rotr32:x <- $esi
	.loc	7 51 21                         # ./include/sodium/private/common.h:51:21 @[ crypto_hash/sha256/cp/hash_sha256_cp.c:134:161 ]
	movl	%r11d, %edi
	roll	$14, %edi
.Ltmp363:
	.loc	7 51 21 is_stmt 0               # ./include/sodium/private/common.h:51:21 @[ crypto_hash/sha256/cp/hash_sha256_cp.c:129:58 ]
	movl	%edx, %r12d
.Ltmp364:
	.loc	3 134 159 is_stmt 1             # crypto_hash/sha256/cp/hash_sha256_cp.c:134:159
	xorl	%eax, %edi
	.loc	3 129 105                       # crypto_hash/sha256/cp/hash_sha256_cp.c:129:105
	movl	%edx, %r13d
	.loc	3 134 206                       # crypto_hash/sha256/cp/hash_sha256_cp.c:134:206
	shrl	$3, %r11d
.Ltmp365:
	.loc	3 134 190 is_stmt 0             # crypto_hash/sha256/cp/hash_sha256_cp.c:134:190
	xorl	%edi, %r11d
	.loc	3 134 113                       # crypto_hash/sha256/cp/hash_sha256_cp.c:134:113
	addl	%r15d, %r11d
	.loc	3 134 128                       # crypto_hash/sha256/cp/hash_sha256_cp.c:134:128
	addl	%edx, %r11d
	#DEBUG_VALUE: rotr32:x <- undef
.Ltmp366:
	#DEBUG_VALUE: rotr32:b <- 17
	#DEBUG_VALUE: rotr32:x <- undef
	#DEBUG_VALUE: rotr32:b <- 19
	#DEBUG_VALUE: rotr32:x <- $ebp
	.loc	7 51 21 is_stmt 1               # ./include/sodium/private/common.h:51:21 @[ crypto_hash/sha256/cp/hash_sha256_cp.c:129:26 ]
	roll	$15, %edx
.Ltmp367:
	#DEBUG_VALUE: rotr32:x <- $r12d
	#DEBUG_VALUE: rotr32:x <- $r12d
	.loc	7 51 21 is_stmt 0               # ./include/sodium/private/common.h:51:21 @[ crypto_hash/sha256/cp/hash_sha256_cp.c:129:58 ]
	roll	$13, %r12d
.Ltmp368:
	#DEBUG_VALUE: rotr32:x <- $r13d
	#DEBUG_VALUE: rotr32:x <- $r13d
	.loc	3 128 23 is_stmt 1              # crypto_hash/sha256/cp/hash_sha256_cp.c:128:23
	movl	%esi, 76(%r8,%r9,4)
	.loc	3 129 56                        # crypto_hash/sha256/cp/hash_sha256_cp.c:129:56
	xorl	%edx, %r12d
	.loc	3 129 105 is_stmt 0             # crypto_hash/sha256/cp/hash_sha256_cp.c:129:105
	shrl	$10, %r13d
	.loc	3 129 88                        # crypto_hash/sha256/cp/hash_sha256_cp.c:129:88
	xorl	%r12d, %r13d
	.loc	3 129 139                       # crypto_hash/sha256/cp/hash_sha256_cp.c:129:139
	movl	20(%r8,%r9,4), %eax
.Ltmp369:
	#DEBUG_VALUE: rotr32:x <- $eax
	#DEBUG_VALUE: rotr32:x <- $eax
	.loc	7 51 21 is_stmt 1               # ./include/sodium/private/common.h:51:21 @[ crypto_hash/sha256/cp/hash_sha256_cp.c:129:131 ]
	movl	%eax, %edx
	roll	$25, %edx
.Ltmp370:
	#DEBUG_VALUE: rotr32:b <- 18
	.loc	3 129 115                       # crypto_hash/sha256/cp/hash_sha256_cp.c:129:115
	movl	52(%r8,%r9,4), %r15d
.Ltmp371:
	.loc	7 51 21                         # ./include/sodium/private/common.h:51:21 @[ crypto_hash/sha256/cp/hash_sha256_cp.c:129:161 ]
	movl	%eax, %edi
	roll	$14, %edi
.Ltmp372:
	.loc	3 129 159                       # crypto_hash/sha256/cp/hash_sha256_cp.c:129:159
	xorl	%edx, %edi
	.loc	3 129 206 is_stmt 0             # crypto_hash/sha256/cp/hash_sha256_cp.c:129:206
	movl	%eax, %edx
	shrl	$3, %edx
	.loc	3 129 190                       # crypto_hash/sha256/cp/hash_sha256_cp.c:129:190
	xorl	%edi, %edx
	.loc	3 129 113                       # crypto_hash/sha256/cp/hash_sha256_cp.c:129:113
	addl	%r15d, %ecx
.Ltmp373:
	.loc	3 129 128                       # crypto_hash/sha256/cp/hash_sha256_cp.c:129:128
	addl	%edx, %ecx
	.loc	3 129 213                       # crypto_hash/sha256/cp/hash_sha256_cp.c:129:213
	addl	%r13d, %ecx
.Ltmp374:
	#DEBUG_VALUE: rotr32:x <- $ecx
	#DEBUG_VALUE: rotr32:x <- $ecx
	.loc	7 51 21 is_stmt 1               # ./include/sodium/private/common.h:51:21 @[ crypto_hash/sha256/cp/hash_sha256_cp.c:130:58 ]
	movl	%esi, %r12d
.Ltmp375:
	.loc	7 51 21 is_stmt 0               # ./include/sodium/private/common.h:51:21 @[ crypto_hash/sha256/cp/hash_sha256_cp.c:135:136 ]
	movl	%ebp, %edx
	roll	$25, %edx
.Ltmp376:
	#DEBUG_VALUE: rotr32:b <- 18
	#DEBUG_VALUE: rotr32:x <- $ebp
	.loc	7 51 21                         # ./include/sodium/private/common.h:51:21 @[ crypto_hash/sha256/cp/hash_sha256_cp.c:135:167 ]
	movl	%ebp, %r13d
	roll	$14, %r13d
.Ltmp377:
	.loc	3 135 165 is_stmt 1             # crypto_hash/sha256/cp/hash_sha256_cp.c:135:165
	xorl	%edx, %r13d
	.loc	3 130 105                       # crypto_hash/sha256/cp/hash_sha256_cp.c:130:105
	movl	%esi, %edi
	.loc	3 135 214                       # crypto_hash/sha256/cp/hash_sha256_cp.c:135:214
	shrl	$3, %ebp
.Ltmp378:
	.loc	3 135 197 is_stmt 0             # crypto_hash/sha256/cp/hash_sha256_cp.c:135:197
	xorl	%r13d, %ebp
	.loc	3 135 117                       # crypto_hash/sha256/cp/hash_sha256_cp.c:135:117
	addl	%esi, %ebp
	#DEBUG_VALUE: rotr32:x <- undef
.Ltmp379:
	#DEBUG_VALUE: rotr32:b <- 17
	#DEBUG_VALUE: rotr32:x <- undef
	#DEBUG_VALUE: rotr32:b <- 19
	#DEBUG_VALUE: rotr32:x <- $r14d
	.loc	7 51 21 is_stmt 1               # ./include/sodium/private/common.h:51:21 @[ crypto_hash/sha256/cp/hash_sha256_cp.c:130:26 ]
	roll	$15, %esi
.Ltmp380:
	.loc	7 51 21 is_stmt 0               # ./include/sodium/private/common.h:51:21 @[ crypto_hash/sha256/cp/hash_sha256_cp.c:130:58 ]
	roll	$13, %r12d
.Ltmp381:
	.loc	3 129 23 is_stmt 1              # crypto_hash/sha256/cp/hash_sha256_cp.c:129:23
	movl	%ecx, 80(%r8,%r9,4)
	.loc	3 130 56                        # crypto_hash/sha256/cp/hash_sha256_cp.c:130:56
	xorl	%esi, %r12d
	.loc	3 130 105 is_stmt 0             # crypto_hash/sha256/cp/hash_sha256_cp.c:130:105
	shrl	$10, %edi
	.loc	3 130 88                        # crypto_hash/sha256/cp/hash_sha256_cp.c:130:88
	xorl	%r12d, %edi
	.loc	3 130 139                       # crypto_hash/sha256/cp/hash_sha256_cp.c:130:139
	movl	24(%r8,%r9,4), %esi
.Ltmp382:
	#DEBUG_VALUE: rotr32:x <- $esi
	#DEBUG_VALUE: rotr32:x <- $esi
	.loc	7 51 21 is_stmt 1               # ./include/sodium/private/common.h:51:21 @[ crypto_hash/sha256/cp/hash_sha256_cp.c:130:131 ]
	movl	%esi, %edx
	roll	$25, %edx
.Ltmp383:
	.loc	7 51 21 is_stmt 0               # ./include/sodium/private/common.h:51:21 @[ crypto_hash/sha256/cp/hash_sha256_cp.c:130:161 ]
	movl	%esi, %r12d
	roll	$14, %r12d
.Ltmp384:
	.loc	3 130 159 is_stmt 1             # crypto_hash/sha256/cp/hash_sha256_cp.c:130:159
	xorl	%edx, %r12d
	.loc	3 130 206 is_stmt 0             # crypto_hash/sha256/cp/hash_sha256_cp.c:130:206
	movl	%esi, %edx
	shrl	$3, %edx
	.loc	3 130 190                       # crypto_hash/sha256/cp/hash_sha256_cp.c:130:190
	xorl	%r12d, %edx
	.loc	3 130 115                       # crypto_hash/sha256/cp/hash_sha256_cp.c:130:115
	movl	56(%r8,%r9,4), %r13d
	#DEBUG_VALUE: rotr32:b <- 7
	.loc	3 130 113                       # crypto_hash/sha256/cp/hash_sha256_cp.c:130:113
	addl	%r13d, %eax
.Ltmp385:
	.loc	7 51 21 is_stmt 1               # ./include/sodium/private/common.h:51:21 @[ crypto_hash/sha256/cp/hash_sha256_cp.c:136:136 ]
	movl	%r14d, %r12d
	roll	$25, %r12d
.Ltmp386:
	#DEBUG_VALUE: rotr32:b <- 18
	#DEBUG_VALUE: rotr32:x <- $r14d
	.loc	3 130 128                       # crypto_hash/sha256/cp/hash_sha256_cp.c:130:128
	addl	%edx, %eax
.Ltmp387:
	.loc	7 51 21                         # ./include/sodium/private/common.h:51:21 @[ crypto_hash/sha256/cp/hash_sha256_cp.c:136:167 ]
	movl	%r14d, %edx
	roll	$14, %edx
.Ltmp388:
	.loc	3 130 213                       # crypto_hash/sha256/cp/hash_sha256_cp.c:130:213
	addl	%edi, %eax
.Ltmp389:
	#DEBUG_VALUE: rotr32:x <- $eax
	#DEBUG_VALUE: rotr32:x <- $eax
	.loc	3 136 165                       # crypto_hash/sha256/cp/hash_sha256_cp.c:136:165
	xorl	%r12d, %edx
.Ltmp390:
	.loc	7 51 21                         # ./include/sodium/private/common.h:51:21 @[ crypto_hash/sha256/cp/hash_sha256_cp.c:131:58 ]
	movl	%ecx, %edi
.Ltmp391:
	.loc	3 136 214                       # crypto_hash/sha256/cp/hash_sha256_cp.c:136:214
	shrl	$3, %r14d
.Ltmp392:
	.loc	3 136 197 is_stmt 0             # crypto_hash/sha256/cp/hash_sha256_cp.c:136:197
	xorl	%edx, %r14d
	.loc	3 131 105 is_stmt 1             # crypto_hash/sha256/cp/hash_sha256_cp.c:131:105
	movl	%ecx, %r12d
	.loc	3 136 117                       # crypto_hash/sha256/cp/hash_sha256_cp.c:136:117
	addl	%ecx, %r14d
	#DEBUG_VALUE: rotr32:x <- undef
.Ltmp393:
	#DEBUG_VALUE: rotr32:b <- 17
	#DEBUG_VALUE: rotr32:x <- undef
	#DEBUG_VALUE: rotr32:b <- 19
	#DEBUG_VALUE: rotr32:x <- $r15d
	.loc	7 51 21                         # ./include/sodium/private/common.h:51:21 @[ crypto_hash/sha256/cp/hash_sha256_cp.c:131:26 ]
	roll	$15, %ecx
.Ltmp394:
	.loc	7 51 21 is_stmt 0               # ./include/sodium/private/common.h:51:21 @[ crypto_hash/sha256/cp/hash_sha256_cp.c:131:58 ]
	roll	$13, %edi
.Ltmp395:
	.loc	3 130 23 is_stmt 1              # crypto_hash/sha256/cp/hash_sha256_cp.c:130:23
	movl	%eax, 84(%r8,%r9,4)
	.loc	3 131 56                        # crypto_hash/sha256/cp/hash_sha256_cp.c:131:56
	xorl	%ecx, %edi
	.loc	3 131 105 is_stmt 0             # crypto_hash/sha256/cp/hash_sha256_cp.c:131:105
	shrl	$10, %r12d
	.loc	3 131 88                        # crypto_hash/sha256/cp/hash_sha256_cp.c:131:88
	xorl	%edi, %r12d
	.loc	3 131 139                       # crypto_hash/sha256/cp/hash_sha256_cp.c:131:139
	movl	28(%r8,%r9,4), %edi
.Ltmp396:
	#DEBUG_VALUE: rotr32:x <- $edi
	#DEBUG_VALUE: rotr32:x <- $edi
	.loc	7 51 21 is_stmt 1               # ./include/sodium/private/common.h:51:21 @[ crypto_hash/sha256/cp/hash_sha256_cp.c:131:131 ]
	movl	%edi, %ecx
	roll	$25, %ecx
.Ltmp397:
	.loc	7 51 21 is_stmt 0               # ./include/sodium/private/common.h:51:21 @[ crypto_hash/sha256/cp/hash_sha256_cp.c:131:161 ]
	movl	%edi, %edx
	roll	$14, %edx
.Ltmp398:
	.loc	3 131 159 is_stmt 1             # crypto_hash/sha256/cp/hash_sha256_cp.c:131:159
	xorl	%ecx, %edx
	.loc	3 131 206 is_stmt 0             # crypto_hash/sha256/cp/hash_sha256_cp.c:131:206
	movl	%edi, %ecx
	shrl	$3, %ecx
	.loc	3 131 190                       # crypto_hash/sha256/cp/hash_sha256_cp.c:131:190
	xorl	%edx, %ecx
	.loc	3 131 113                       # crypto_hash/sha256/cp/hash_sha256_cp.c:131:113
	addl	-36(%rsp), %esi                 # 4-byte Folded Reload
.Ltmp399:
	.loc	3 131 128                       # crypto_hash/sha256/cp/hash_sha256_cp.c:131:128
	addl	%ecx, %esi
.Ltmp400:
	.loc	7 51 21 is_stmt 1               # ./include/sodium/private/common.h:51:21 @[ crypto_hash/sha256/cp/hash_sha256_cp.c:137:136 ]
	movl	%r15d, %ecx
	roll	$25, %ecx
.Ltmp401:
	#DEBUG_VALUE: rotr32:b <- 18
	#DEBUG_VALUE: rotr32:x <- $r15d
	.loc	3 131 213                       # crypto_hash/sha256/cp/hash_sha256_cp.c:131:213
	addl	%r12d, %esi
.Ltmp402:
	#DEBUG_VALUE: rotr32:x <- $esi
	#DEBUG_VALUE: rotr32:x <- $esi
	.loc	7 51 21                         # ./include/sodium/private/common.h:51:21 @[ crypto_hash/sha256/cp/hash_sha256_cp.c:137:167 ]
	movl	%r15d, %edx
	roll	$14, %edx
.Ltmp403:
	.loc	3 131 23                        # crypto_hash/sha256/cp/hash_sha256_cp.c:131:23
	movl	%esi, 88(%r8,%r9,4)
	.loc	3 137 165                       # crypto_hash/sha256/cp/hash_sha256_cp.c:137:165
	xorl	%ecx, %edx
.Ltmp404:
	.loc	7 51 21                         # ./include/sodium/private/common.h:51:21 @[ crypto_hash/sha256/cp/hash_sha256_cp.c:132:58 ]
	movl	%eax, %ecx
.Ltmp405:
	.loc	3 137 214                       # crypto_hash/sha256/cp/hash_sha256_cp.c:137:214
	shrl	$3, %r15d
.Ltmp406:
	.loc	3 137 197 is_stmt 0             # crypto_hash/sha256/cp/hash_sha256_cp.c:137:197
	xorl	%edx, %r15d
	.loc	3 132 105 is_stmt 1             # crypto_hash/sha256/cp/hash_sha256_cp.c:132:105
	movl	%eax, %edx
	.loc	3 137 117                       # crypto_hash/sha256/cp/hash_sha256_cp.c:137:117
	addl	%eax, %r15d
	#DEBUG_VALUE: rotr32:x <- undef
.Ltmp407:
	#DEBUG_VALUE: rotr32:b <- 17
	#DEBUG_VALUE: rotr32:x <- undef
	#DEBUG_VALUE: rotr32:b <- 19
	#DEBUG_VALUE: rotr32:x <- $r13d
	#DEBUG_VALUE: rotr32:b <- 7
	.loc	7 51 21                         # ./include/sodium/private/common.h:51:21 @[ crypto_hash/sha256/cp/hash_sha256_cp.c:132:26 ]
	roll	$15, %eax
.Ltmp408:
	.loc	7 51 21 is_stmt 0               # ./include/sodium/private/common.h:51:21 @[ crypto_hash/sha256/cp/hash_sha256_cp.c:132:58 ]
	roll	$13, %ecx
.Ltmp409:
	.loc	3 132 56 is_stmt 1              # crypto_hash/sha256/cp/hash_sha256_cp.c:132:56
	xorl	%eax, %ecx
	.loc	3 132 105 is_stmt 0             # crypto_hash/sha256/cp/hash_sha256_cp.c:132:105
	shrl	$10, %edx
	.loc	3 132 88                        # crypto_hash/sha256/cp/hash_sha256_cp.c:132:88
	xorl	%ecx, %edx
	.loc	3 132 139                       # crypto_hash/sha256/cp/hash_sha256_cp.c:132:139
	movl	32(%r8,%r9,4), %eax
.Ltmp410:
	#DEBUG_VALUE: rotr32:x <- $eax
	#DEBUG_VALUE: rotr32:x <- $eax
	.loc	7 51 21 is_stmt 1               # ./include/sodium/private/common.h:51:21 @[ crypto_hash/sha256/cp/hash_sha256_cp.c:132:131 ]
	movl	%eax, %ecx
	roll	$25, %ecx
.Ltmp411:
	.loc	7 51 21 is_stmt 0               # ./include/sodium/private/common.h:51:21 @[ crypto_hash/sha256/cp/hash_sha256_cp.c:132:161 ]
	movl	%eax, %r12d
	roll	$14, %r12d
.Ltmp412:
	.loc	3 132 159 is_stmt 1             # crypto_hash/sha256/cp/hash_sha256_cp.c:132:159
	xorl	%ecx, %r12d
	.loc	3 133 113                       # crypto_hash/sha256/cp/hash_sha256_cp.c:133:113
	addl	%eax, %r10d
.Ltmp413:
	.loc	3 132 206                       # crypto_hash/sha256/cp/hash_sha256_cp.c:132:206
	shrl	$3, %eax
.Ltmp414:
	.loc	3 132 190 is_stmt 0             # crypto_hash/sha256/cp/hash_sha256_cp.c:132:190
	xorl	%r12d, %eax
	.loc	3 132 113                       # crypto_hash/sha256/cp/hash_sha256_cp.c:132:113
	addl	%ebx, %edi
.Ltmp415:
	.loc	3 132 128                       # crypto_hash/sha256/cp/hash_sha256_cp.c:132:128
	addl	%eax, %edi
	.loc	3 132 213                       # crypto_hash/sha256/cp/hash_sha256_cp.c:132:213
	addl	%edx, %edi
.Ltmp416:
	#DEBUG_VALUE: rotr32:x <- $edi
	#DEBUG_VALUE: rotr32:x <- $edi
	.loc	3 132 23                        # crypto_hash/sha256/cp/hash_sha256_cp.c:132:23
	movl	%edi, 92(%r8,%r9,4)
.Ltmp417:
	.loc	7 51 21 is_stmt 1               # ./include/sodium/private/common.h:51:21 @[ crypto_hash/sha256/cp/hash_sha256_cp.c:133:58 ]
	movl	%esi, %ecx
.Ltmp418:
	.loc	7 51 21 is_stmt 0               # ./include/sodium/private/common.h:51:21 @[ crypto_hash/sha256/cp/hash_sha256_cp.c:138:136 ]
	movl	%r13d, %eax
	roll	$25, %eax
.Ltmp419:
	#DEBUG_VALUE: rotr32:x <- $r13d
	#DEBUG_VALUE: rotr32:b <- 18
	.loc	7 51 21                         # ./include/sodium/private/common.h:51:21 @[ crypto_hash/sha256/cp/hash_sha256_cp.c:138:167 ]
	movl	%r13d, %edx
	roll	$14, %edx
.Ltmp420:
	.loc	3 138 165 is_stmt 1             # crypto_hash/sha256/cp/hash_sha256_cp.c:138:165
	xorl	%eax, %edx
	.loc	3 133 105                       # crypto_hash/sha256/cp/hash_sha256_cp.c:133:105
	movl	%esi, %eax
	.loc	3 138 214                       # crypto_hash/sha256/cp/hash_sha256_cp.c:138:214
	shrl	$3, %r13d
.Ltmp421:
	.loc	3 138 197 is_stmt 0             # crypto_hash/sha256/cp/hash_sha256_cp.c:138:197
	xorl	%edx, %r13d
	.loc	3 138 117                       # crypto_hash/sha256/cp/hash_sha256_cp.c:138:117
	addl	%esi, %r13d
	#DEBUG_VALUE: rotr32:x <- undef
.Ltmp422:
	#DEBUG_VALUE: rotr32:b <- 17
	#DEBUG_VALUE: rotr32:x <- undef
	#DEBUG_VALUE: rotr32:b <- 19
	#DEBUG_VALUE: rotr32:x <- [DW_OP_constu 36, DW_OP_minus, DW_OP_deref] $rsp
	.loc	7 51 21 is_stmt 1               # ./include/sodium/private/common.h:51:21 @[ crypto_hash/sha256/cp/hash_sha256_cp.c:133:26 ]
	roll	$15, %esi
.Ltmp423:
	.loc	7 51 21 is_stmt 0               # ./include/sodium/private/common.h:51:21 @[ crypto_hash/sha256/cp/hash_sha256_cp.c:133:58 ]
	roll	$13, %ecx
.Ltmp424:
	.loc	3 133 56 is_stmt 1              # crypto_hash/sha256/cp/hash_sha256_cp.c:133:56
	xorl	%esi, %ecx
	.loc	3 133 105 is_stmt 0             # crypto_hash/sha256/cp/hash_sha256_cp.c:133:105
	shrl	$10, %eax
	.loc	3 133 88                        # crypto_hash/sha256/cp/hash_sha256_cp.c:133:88
	xorl	%ecx, %eax
	.loc	3 133 139                       # crypto_hash/sha256/cp/hash_sha256_cp.c:133:139
	movl	36(%r8,%r9,4), %ecx
.Ltmp425:
	#DEBUG_VALUE: rotr32:x <- $ecx
	#DEBUG_VALUE: rotr32:x <- $ecx
	.loc	7 51 21 is_stmt 1               # ./include/sodium/private/common.h:51:21 @[ crypto_hash/sha256/cp/hash_sha256_cp.c:133:131 ]
	movl	%ecx, %edx
	roll	$25, %edx
.Ltmp426:
	.loc	7 51 21 is_stmt 0               # ./include/sodium/private/common.h:51:21 @[ crypto_hash/sha256/cp/hash_sha256_cp.c:133:161 ]
	movl	%ecx, %esi
	roll	$14, %esi
.Ltmp427:
	.loc	3 133 159 is_stmt 1             # crypto_hash/sha256/cp/hash_sha256_cp.c:133:159
	xorl	%edx, %esi
	.loc	3 133 206 is_stmt 0             # crypto_hash/sha256/cp/hash_sha256_cp.c:133:206
	shrl	$3, %ecx
.Ltmp428:
	.loc	3 133 190                       # crypto_hash/sha256/cp/hash_sha256_cp.c:133:190
	xorl	%esi, %ecx
	movl	-36(%rsp), %esi                 # 4-byte Reload
.Ltmp429:
	.loc	7 51 21 is_stmt 1               # ./include/sodium/private/common.h:51:21 @[ crypto_hash/sha256/cp/hash_sha256_cp.c:139:136 ]
	movl	%esi, %edx
	roll	$25, %edx
.Ltmp430:
	#DEBUG_VALUE: rotr32:b <- 18
	#DEBUG_VALUE: rotr32:x <- [DW_OP_constu 36, DW_OP_minus, DW_OP_deref] $rsp
	.loc	3 133 128                       # crypto_hash/sha256/cp/hash_sha256_cp.c:133:128
	addl	%ecx, %r10d
.Ltmp431:
	.loc	7 51 21                         # ./include/sodium/private/common.h:51:21 @[ crypto_hash/sha256/cp/hash_sha256_cp.c:139:167 ]
	movl	%esi, %ecx
	roll	$14, %ecx
.Ltmp432:
	.loc	3 133 213                       # crypto_hash/sha256/cp/hash_sha256_cp.c:133:213
	addl	%eax, %r10d
.Ltmp433:
	#DEBUG_VALUE: rotr32:x <- $r10d
	#DEBUG_VALUE: rotr32:x <- $r10d
	.loc	3 139 165                       # crypto_hash/sha256/cp/hash_sha256_cp.c:139:165
	xorl	%edx, %ecx
	.loc	3 139 214 is_stmt 0             # crypto_hash/sha256/cp/hash_sha256_cp.c:139:214
	shrl	$3, %esi
	.loc	3 139 197                       # crypto_hash/sha256/cp/hash_sha256_cp.c:139:197
	xorl	%ecx, %esi
.Ltmp434:
	.loc	7 51 21 is_stmt 1               # ./include/sodium/private/common.h:51:21 @[ crypto_hash/sha256/cp/hash_sha256_cp.c:134:58 ]
	movl	%edi, %eax
.Ltmp435:
	.loc	3 139 117                       # crypto_hash/sha256/cp/hash_sha256_cp.c:139:117
	addl	-12(%rsp), %esi                 # 4-byte Folded Reload
	.loc	3 139 133 is_stmt 0             # crypto_hash/sha256/cp/hash_sha256_cp.c:139:133
	addl	%edi, %esi
	#DEBUG_VALUE: rotr32:x <- undef
.Ltmp436:
	#DEBUG_VALUE: rotr32:b <- 17
	#DEBUG_VALUE: rotr32:x <- undef
	#DEBUG_VALUE: rotr32:b <- 19
	#DEBUG_VALUE: rotr32:x <- $ebx
	#DEBUG_VALUE: rotr32:b <- 7
	.loc	7 51 21 is_stmt 1               # ./include/sodium/private/common.h:51:21 @[ crypto_hash/sha256/cp/hash_sha256_cp.c:134:26 ]
	movl	%edi, %ecx
	roll	$15, %ecx
.Ltmp437:
	.loc	7 51 21 is_stmt 0               # ./include/sodium/private/common.h:51:21 @[ crypto_hash/sha256/cp/hash_sha256_cp.c:134:58 ]
	roll	$13, %eax
.Ltmp438:
	.loc	3 134 56 is_stmt 1              # crypto_hash/sha256/cp/hash_sha256_cp.c:134:56
	xorl	%ecx, %eax
	.loc	3 134 105 is_stmt 0             # crypto_hash/sha256/cp/hash_sha256_cp.c:134:105
	shrl	$10, %edi
.Ltmp439:
	.loc	3 134 88                        # crypto_hash/sha256/cp/hash_sha256_cp.c:134:88
	xorl	%eax, %edi
	#DEBUG_VALUE: rotr32:b <- 7
.Ltmp440:
	.loc	7 51 21 is_stmt 1               # ./include/sodium/private/common.h:51:21 @[ crypto_hash/sha256/cp/hash_sha256_cp.c:135:60 ]
	movl	%r10d, %eax
.Ltmp441:
	.loc	7 51 21 is_stmt 0               # ./include/sodium/private/common.h:51:21 @[ crypto_hash/sha256/cp/hash_sha256_cp.c:135:27 ]
	movl	%r10d, %ecx
	roll	$15, %ecx
.Ltmp442:
	.loc	3 134 213 is_stmt 1             # crypto_hash/sha256/cp/hash_sha256_cp.c:134:213
	addl	%edi, %r11d
.Ltmp443:
	#DEBUG_VALUE: rotr32:x <- $r11d
	#DEBUG_VALUE: rotr32:x <- $r11d
	.loc	7 51 21                         # ./include/sodium/private/common.h:51:21 @[ crypto_hash/sha256/cp/hash_sha256_cp.c:135:60 ]
	roll	$13, %eax
.Ltmp444:
	.loc	3 135 58                        # crypto_hash/sha256/cp/hash_sha256_cp.c:135:58
	xorl	%ecx, %eax
.Ltmp445:
	.loc	7 51 21                         # ./include/sodium/private/common.h:51:21 @[ crypto_hash/sha256/cp/hash_sha256_cp.c:140:136 ]
	movl	%ebx, %ecx
	roll	$25, %ecx
.Ltmp446:
	#DEBUG_VALUE: rotr32:x <- $ebx
	#DEBUG_VALUE: rotr32:b <- 18
	.loc	7 51 21 is_stmt 0               # ./include/sodium/private/common.h:51:21 @[ crypto_hash/sha256/cp/hash_sha256_cp.c:140:167 ]
	movl	%ebx, %edx
	roll	$14, %edx
.Ltmp447:
	.loc	3 140 165 is_stmt 1             # crypto_hash/sha256/cp/hash_sha256_cp.c:140:165
	xorl	%ecx, %edx
	.loc	3 140 214 is_stmt 0             # crypto_hash/sha256/cp/hash_sha256_cp.c:140:214
	shrl	$3, %ebx
.Ltmp448:
	.loc	3 140 197                       # crypto_hash/sha256/cp/hash_sha256_cp.c:140:197
	xorl	%edx, %ebx
	.loc	3 133 23 is_stmt 1              # crypto_hash/sha256/cp/hash_sha256_cp.c:133:23
	movl	%r10d, 96(%r8,%r9,4)
	.loc	3 140 117                       # crypto_hash/sha256/cp/hash_sha256_cp.c:140:117
	addl	%r10d, %ebx
	.loc	3 134 23                        # crypto_hash/sha256/cp/hash_sha256_cp.c:134:23
	movl	%r11d, 100(%r8,%r9,4)
	.loc	3 135 109                       # crypto_hash/sha256/cp/hash_sha256_cp.c:135:109
	shrl	$10, %r10d
.Ltmp449:
	.loc	3 135 133 is_stmt 0             # crypto_hash/sha256/cp/hash_sha256_cp.c:135:133
	addl	40(%r8,%r9,4), %ebp
	.loc	3 135 91                        # crypto_hash/sha256/cp/hash_sha256_cp.c:135:91
	xorl	%eax, %r10d
	#DEBUG_VALUE: rotr32:b <- 7
.Ltmp450:
	.loc	7 51 21 is_stmt 1               # ./include/sodium/private/common.h:51:21 @[ crypto_hash/sha256/cp/hash_sha256_cp.c:136:27 ]
	movl	%r11d, %eax
	roll	$15, %eax
.Ltmp451:
	.loc	3 135 221                       # crypto_hash/sha256/cp/hash_sha256_cp.c:135:221
	addl	%r10d, %ebp
.Ltmp452:
	#DEBUG_VALUE: rotr32:x <- $ebp
	#DEBUG_VALUE: rotr32:x <- $ebp
	.loc	7 51 21                         # ./include/sodium/private/common.h:51:21 @[ crypto_hash/sha256/cp/hash_sha256_cp.c:136:60 ]
	movl	%r11d, %ecx
	roll	$13, %ecx
.Ltmp453:
	.loc	3 135 24                        # crypto_hash/sha256/cp/hash_sha256_cp.c:135:24
	movl	%ebp, 104(%r8,%r9,4)
	.loc	3 136 58                        # crypto_hash/sha256/cp/hash_sha256_cp.c:136:58
	xorl	%eax, %ecx
	.loc	3 136 133 is_stmt 0             # crypto_hash/sha256/cp/hash_sha256_cp.c:136:133
	addl	44(%r8,%r9,4), %r14d
	.loc	3 136 109                       # crypto_hash/sha256/cp/hash_sha256_cp.c:136:109
	shrl	$10, %r11d
.Ltmp454:
	.loc	7 51 21 is_stmt 1               # ./include/sodium/private/common.h:51:21 @[ crypto_hash/sha256/cp/hash_sha256_cp.c:137:27 ]
	movl	%ebp, %eax
	roll	$15, %eax
.Ltmp455:
	.loc	3 136 91                        # crypto_hash/sha256/cp/hash_sha256_cp.c:136:91
	xorl	%ecx, %r11d
	#DEBUG_VALUE: rotr32:b <- 7
.Ltmp456:
	.loc	7 51 21                         # ./include/sodium/private/common.h:51:21 @[ crypto_hash/sha256/cp/hash_sha256_cp.c:137:60 ]
	movl	%ebp, %ecx
	roll	$13, %ecx
.Ltmp457:
	.loc	3 136 221                       # crypto_hash/sha256/cp/hash_sha256_cp.c:136:221
	addl	%r11d, %r14d
.Ltmp458:
	#DEBUG_VALUE: rotr32:x <- $r14d
	#DEBUG_VALUE: rotr32:x <- $r14d
	.loc	3 137 58                        # crypto_hash/sha256/cp/hash_sha256_cp.c:137:58
	xorl	%eax, %ecx
	.loc	3 136 24                        # crypto_hash/sha256/cp/hash_sha256_cp.c:136:24
	movl	%r14d, 108(%r8,%r9,4)
	.loc	3 137 109                       # crypto_hash/sha256/cp/hash_sha256_cp.c:137:109
	shrl	$10, %ebp
.Ltmp459:
	.loc	3 137 91 is_stmt 0              # crypto_hash/sha256/cp/hash_sha256_cp.c:137:91
	xorl	%ecx, %ebp
	#DEBUG_VALUE: rotr32:b <- 7
	.loc	3 137 133                       # crypto_hash/sha256/cp/hash_sha256_cp.c:137:133
	addl	48(%r8,%r9,4), %r15d
	.loc	3 137 221                       # crypto_hash/sha256/cp/hash_sha256_cp.c:137:221
	addl	%ebp, %r15d
.Ltmp460:
	#DEBUG_VALUE: rotr32:x <- $r15d
	#DEBUG_VALUE: rotr32:x <- $r15d
	.loc	7 51 21 is_stmt 1               # ./include/sodium/private/common.h:51:21 @[ crypto_hash/sha256/cp/hash_sha256_cp.c:138:27 ]
	movl	%r14d, %eax
	roll	$15, %eax
.Ltmp461:
	.loc	7 51 21 is_stmt 0               # ./include/sodium/private/common.h:51:21 @[ crypto_hash/sha256/cp/hash_sha256_cp.c:138:60 ]
	movl	%r14d, %ecx
	roll	$13, %ecx
.Ltmp462:
	.loc	3 138 58 is_stmt 1              # crypto_hash/sha256/cp/hash_sha256_cp.c:138:58
	xorl	%eax, %ecx
	.loc	3 137 24                        # crypto_hash/sha256/cp/hash_sha256_cp.c:137:24
	movl	%r15d, 112(%r8,%r9,4)
	.loc	3 138 109                       # crypto_hash/sha256/cp/hash_sha256_cp.c:138:109
	shrl	$10, %r14d
.Ltmp463:
	.loc	3 138 91 is_stmt 0              # crypto_hash/sha256/cp/hash_sha256_cp.c:138:91
	xorl	%ecx, %r14d
	.loc	3 138 133                       # crypto_hash/sha256/cp/hash_sha256_cp.c:138:133
	addl	52(%r8,%r9,4), %r13d
	.loc	3 138 221                       # crypto_hash/sha256/cp/hash_sha256_cp.c:138:221
	addl	%r14d, %r13d
.Ltmp464:
	#DEBUG_VALUE: rotr32:x <- $r13d
	#DEBUG_VALUE: rotr32:x <- $r13d
	.loc	7 51 21 is_stmt 1               # ./include/sodium/private/common.h:51:21 @[ crypto_hash/sha256/cp/hash_sha256_cp.c:139:27 ]
	movl	%r15d, %eax
	roll	$15, %eax
.Ltmp465:
	.loc	7 51 21 is_stmt 0               # ./include/sodium/private/common.h:51:21 @[ crypto_hash/sha256/cp/hash_sha256_cp.c:139:60 ]
	movl	%r15d, %ecx
	roll	$13, %ecx
.Ltmp466:
	.loc	3 139 58 is_stmt 1              # crypto_hash/sha256/cp/hash_sha256_cp.c:139:58
	xorl	%eax, %ecx
	.loc	3 139 109 is_stmt 0             # crypto_hash/sha256/cp/hash_sha256_cp.c:139:109
	shrl	$10, %r15d
.Ltmp467:
	.loc	3 139 91                        # crypto_hash/sha256/cp/hash_sha256_cp.c:139:91
	xorl	%ecx, %r15d
	#DEBUG_VALUE: rotr32:b <- 7
	.loc	3 138 24 is_stmt 1              # crypto_hash/sha256/cp/hash_sha256_cp.c:138:24
	movl	%r13d, 116(%r8,%r9,4)
	.loc	3 139 221                       # crypto_hash/sha256/cp/hash_sha256_cp.c:139:221
	addl	%r15d, %esi
	.loc	3 139 24 is_stmt 0              # crypto_hash/sha256/cp/hash_sha256_cp.c:139:24
	movl	%esi, 120(%r8,%r9,4)
.Ltmp468:
	.loc	7 51 21 is_stmt 1               # ./include/sodium/private/common.h:51:21 @[ crypto_hash/sha256/cp/hash_sha256_cp.c:140:27 ]
	movl	%r13d, %eax
	roll	$15, %eax
.Ltmp469:
	.loc	7 51 21 is_stmt 0               # ./include/sodium/private/common.h:51:21 @[ crypto_hash/sha256/cp/hash_sha256_cp.c:140:60 ]
	movl	%r13d, %ecx
	roll	$13, %ecx
.Ltmp470:
	.loc	3 140 58 is_stmt 1              # crypto_hash/sha256/cp/hash_sha256_cp.c:140:58
	xorl	%eax, %ecx
	.loc	3 140 109 is_stmt 0             # crypto_hash/sha256/cp/hash_sha256_cp.c:140:109
	shrl	$10, %r13d
.Ltmp471:
	.loc	3 140 91                        # crypto_hash/sha256/cp/hash_sha256_cp.c:140:91
	xorl	%ecx, %r13d
	.loc	3 140 133                       # crypto_hash/sha256/cp/hash_sha256_cp.c:140:133
	addl	60(%r8,%r9,4), %ebx
	.loc	3 140 221                       # crypto_hash/sha256/cp/hash_sha256_cp.c:140:221
	addl	%r13d, %ebx
	.loc	3 140 24                        # crypto_hash/sha256/cp/hash_sha256_cp.c:140:24
	movl	%ebx, 124(%r8,%r9,4)
.Ltmp472:
	#DEBUG_VALUE: SHA256_Transform:i <- undef
	.loc	3 125 17 is_stmt 1              # crypto_hash/sha256/cp/hash_sha256_cp.c:125:17
	leaq	16(%r9), %rax
.Ltmp473:
	#DEBUG_VALUE: SHA256_Transform:i <- $rax
	.loc	3 0 17 is_stmt 0                # crypto_hash/sha256/cp/hash_sha256_cp.c:0:17
	movq	%rax, -24(%rsp)                 # 8-byte Spill
.Ltmp474:
	.loc	3 105 5 is_stmt 1               # crypto_hash/sha256/cp/hash_sha256_cp.c:105:5
	jmp	.LBB2_3
.Ltmp475:
.LBB2_5:                                # %split
	#DEBUG_VALUE: SHA256_Transform:state <- [DW_OP_constu 8, DW_OP_minus] [$rsp+0]
	#DEBUG_VALUE: SHA256_Transform:block <- [DW_OP_LLVM_entry_value 1] $rsi
	#DEBUG_VALUE: SHA256_Transform:W <- [DW_OP_constu 48, DW_OP_minus] [$rsp+0]
	#DEBUG_VALUE: SHA256_Transform:S <- [DW_OP_constu 32, DW_OP_minus] [$rsp+0]
	#DEBUG_VALUE: SHA256_Transform:i <- [DW_OP_constu 24, DW_OP_minus, DW_OP_deref_size 8, DW_OP_stack_value] $rsp
	#DEBUG_VALUE: SHA256_Transform:i <- 0
	.loc	3 0 5 is_stmt 0                 # crypto_hash/sha256/cp/hash_sha256_cp.c:0:5
	movq	-8(%rsp), %rdx                  # 8-byte Reload
.Ltmp476:
	.loc	3 143 18 is_stmt 1              # crypto_hash/sha256/cp/hash_sha256_cp.c:143:18
	addl	%r11d, (%rdx)
.Ltmp477:
	#DEBUG_VALUE: SHA256_Transform:i <- 1
	.loc	3 0 18 is_stmt 0                # crypto_hash/sha256/cp/hash_sha256_cp.c:0:18
	movq	-32(%rsp), %rcx                 # 8-byte Reload
	.loc	3 143 21                        # crypto_hash/sha256/cp/hash_sha256_cp.c:143:21
	movl	4(%rcx), %eax
	.loc	3 143 18                        # crypto_hash/sha256/cp/hash_sha256_cp.c:143:18
	addl	%eax, 4(%rdx)
.Ltmp478:
	#DEBUG_VALUE: SHA256_Transform:i <- 2
	.loc	3 143 21                        # crypto_hash/sha256/cp/hash_sha256_cp.c:143:21
	movl	8(%rcx), %eax
	.loc	3 143 18                        # crypto_hash/sha256/cp/hash_sha256_cp.c:143:18
	addl	%eax, 8(%rdx)
.Ltmp479:
	#DEBUG_VALUE: SHA256_Transform:i <- 3
	.loc	3 143 21                        # crypto_hash/sha256/cp/hash_sha256_cp.c:143:21
	movl	12(%rcx), %eax
	.loc	3 143 18                        # crypto_hash/sha256/cp/hash_sha256_cp.c:143:18
	addl	%eax, 12(%rdx)
.Ltmp480:
	#DEBUG_VALUE: SHA256_Transform:i <- 4
	.loc	3 143 21                        # crypto_hash/sha256/cp/hash_sha256_cp.c:143:21
	movl	16(%rcx), %eax
	.loc	3 143 18                        # crypto_hash/sha256/cp/hash_sha256_cp.c:143:18
	addl	%eax, 16(%rdx)
.Ltmp481:
	#DEBUG_VALUE: SHA256_Transform:i <- 5
	.loc	3 143 21                        # crypto_hash/sha256/cp/hash_sha256_cp.c:143:21
	movl	20(%rcx), %eax
	.loc	3 143 18                        # crypto_hash/sha256/cp/hash_sha256_cp.c:143:18
	addl	%eax, 20(%rdx)
.Ltmp482:
	#DEBUG_VALUE: SHA256_Transform:i <- 6
	.loc	3 143 21                        # crypto_hash/sha256/cp/hash_sha256_cp.c:143:21
	movl	24(%rcx), %eax
	.loc	3 143 18                        # crypto_hash/sha256/cp/hash_sha256_cp.c:143:18
	addl	%eax, 24(%rdx)
.Ltmp483:
	#DEBUG_VALUE: SHA256_Transform:i <- 7
	.loc	3 143 21                        # crypto_hash/sha256/cp/hash_sha256_cp.c:143:21
	movl	28(%rcx), %eax
	.loc	3 143 18                        # crypto_hash/sha256/cp/hash_sha256_cp.c:143:18
	addl	%eax, 28(%rdx)
.Ltmp484:
	#DEBUG_VALUE: SHA256_Transform:i <- 8
	.loc	3 145 1 epilogue_begin is_stmt 1 # crypto_hash/sha256/cp/hash_sha256_cp.c:145:1
	popq	%rbx
	.cfi_def_cfa_offset 48
	popq	%r12
	.cfi_def_cfa_offset 40
	popq	%r13
	.cfi_def_cfa_offset 32
	popq	%r14
	.cfi_def_cfa_offset 24
	popq	%r15
	.cfi_def_cfa_offset 16
	popq	%rbp
	.cfi_def_cfa_offset 8
	retq
.Ltmp485:
.Lfunc_end2:
	.size	SHA256_Transform, .Lfunc_end2-SHA256_Transform
	.cfi_endproc
                                        # -- End function
	.globl	crypto_hash_sha256_final        # -- Begin function crypto_hash_sha256_final
	.p2align	4
	.type	crypto_hash_sha256_final,@function
crypto_hash_sha256_final:               # @crypto_hash_sha256_final
.Lfunc_begin3:
	.loc	3 234 0                         # crypto_hash/sha256/cp/hash_sha256_cp.c:234:0
	.cfi_startproc
# %bb.0:
	#DEBUG_VALUE: crypto_hash_sha256_final:state <- $rdi
	#DEBUG_VALUE: crypto_hash_sha256_final:out <- $rsi
	pushq	%r15
	.cfi_def_cfa_offset 16
	pushq	%r14
	.cfi_def_cfa_offset 24
	pushq	%rbx
	.cfi_def_cfa_offset 32
	subq	$288, %rsp                      # imm = 0x120
	.cfi_def_cfa_offset 320
	.cfi_offset %rbx, -32
	.cfi_offset %r14, -24
	.cfi_offset %r15, -16
	movq	%rsi, %r14
	movq	%rdi, %rbx
.Ltmp486:
	#DEBUG_VALUE: SHA256_Pad:state <- $rbx
	#DEBUG_VALUE: SHA256_Pad:tmp32 <- $rsp
	#MEMBARRIER
	.loc	3 160 33 prologue_end           # crypto_hash/sha256/cp/hash_sha256_cp.c:160:33 @[ crypto_hash/sha256/cp/hash_sha256_cp.c:237:5 ]
	movl	32(%rdi), %eax
	.loc	3 160 9 is_stmt 0               # crypto_hash/sha256/cp/hash_sha256_cp.c:160:9 @[ crypto_hash/sha256/cp/hash_sha256_cp.c:237:5 ]
	shrl	$3, %eax
	andl	$63, %eax
.Ltmp487:
	#DEBUG_VALUE: SHA256_Pad:r <- $eax
	.loc	3 161 11 is_stmt 1              # crypto_hash/sha256/cp/hash_sha256_cp.c:161:11 @[ crypto_hash/sha256/cp/hash_sha256_cp.c:237:5 ]
	cmpl	$56, %eax
	jae	.LBB3_1
.Ltmp488:
# %bb.2:                                # %.lr.ph.i
	#DEBUG_VALUE: crypto_hash_sha256_final:state <- $rbx
	#DEBUG_VALUE: crypto_hash_sha256_final:out <- $r14
	#DEBUG_VALUE: SHA256_Pad:state <- $rbx
	#DEBUG_VALUE: SHA256_Pad:tmp32 <- $rsp
	#DEBUG_VALUE: SHA256_Pad:r <- $eax
	#DEBUG_VALUE: SHA256_Pad:i <- 0
	.loc	3 162 9                         # crypto_hash/sha256/cp/hash_sha256_cp.c:162:9 @[ crypto_hash/sha256/cp/hash_sha256_cp.c:237:5 ]
	movl	%eax, %ecx
	leaq	(%rbx,%rcx), %rdi
	addq	$40, %rdi
	movl	$56, %edx
	subl	%eax, %edx
.Ltmp489:
	.loc	3 163 31                        # crypto_hash/sha256/cp/hash_sha256_cp.c:163:31 @[ crypto_hash/sha256/cp/hash_sha256_cp.c:237:5 ]
	leaq	PAD(%rip), %rsi
	callq	memcpy@PLT
.Ltmp490:
	.loc	3 0 31 is_stmt 0                # crypto_hash/sha256/cp/hash_sha256_cp.c:0:31
	jmp	.LBB3_3
.Ltmp491:
.LBB3_1:                                # %.preheader28.i
	#DEBUG_VALUE: crypto_hash_sha256_final:state <- $rbx
	#DEBUG_VALUE: crypto_hash_sha256_final:out <- $r14
	#DEBUG_VALUE: SHA256_Pad:state <- $rbx
	#DEBUG_VALUE: SHA256_Pad:tmp32 <- $rsp
	#DEBUG_VALUE: SHA256_Pad:r <- $eax
	movl	$64, %edx
	subl	%eax, %edx
.Ltmp492:
	#DEBUG_VALUE: SHA256_Pad:i <- 0
	.loc	3 166 9 is_stmt 1               # crypto_hash/sha256/cp/hash_sha256_cp.c:166:9 @[ crypto_hash/sha256/cp/hash_sha256_cp.c:237:5 ]
	movl	%eax, %eax
.Ltmp493:
	leaq	(%rbx,%rax), %rdi
	addq	$40, %rdi
.Ltmp494:
	.loc	3 167 31                        # crypto_hash/sha256/cp/hash_sha256_cp.c:167:31 @[ crypto_hash/sha256/cp/hash_sha256_cp.c:237:5 ]
	leaq	PAD(%rip), %rsi
	callq	memcpy@PLT
.Ltmp495:
	.loc	3 169 47                        # crypto_hash/sha256/cp/hash_sha256_cp.c:169:47 @[ crypto_hash/sha256/cp/hash_sha256_cp.c:237:5 ]
	leaq	40(%rbx), %rsi
	.loc	3 169 64 is_stmt 0              # crypto_hash/sha256/cp/hash_sha256_cp.c:169:64 @[ crypto_hash/sha256/cp/hash_sha256_cp.c:237:5 ]
	leaq	256(%rsp), %rcx
	movq	%rsp, %rdx
	.loc	3 169 9                         # crypto_hash/sha256/cp/hash_sha256_cp.c:169:9 @[ crypto_hash/sha256/cp/hash_sha256_cp.c:237:5 ]
	movq	%rbx, %rdi
	callq	SHA256_Transform
.Ltmp496:
	#DEBUG_VALUE: memset:__dest <- undef
	#DEBUG_VALUE: memset:__ch <- 0
	#DEBUG_VALUE: memset:__len <- 56
	.loc	4 59 10 is_stmt 1               # /usr/include/x86_64-linux-gnu/bits/string_fortified.h:59:10 @[ crypto_hash/sha256/cp/hash_sha256_cp.c:170:9 @[ crypto_hash/sha256/cp/hash_sha256_cp.c:237:5 ] ]
	xorps	%xmm0, %xmm0
	movups	%xmm0, 72(%rbx)
	movups	%xmm0, 56(%rbx)
	movups	%xmm0, 40(%rbx)
	movq	$0, 88(%rbx)
.Ltmp497:
.LBB3_3:                                # %SHA256_Pad.exit
	#DEBUG_VALUE: crypto_hash_sha256_final:state <- $rbx
	#DEBUG_VALUE: crypto_hash_sha256_final:out <- $r14
	#DEBUG_VALUE: SHA256_Pad:state <- $rbx
	#DEBUG_VALUE: SHA256_Pad:tmp32 <- $rsp
	#DEBUG_VALUE: SHA256_Pad:i <- 0
	.loc	3 172 25                        # crypto_hash/sha256/cp/hash_sha256_cp.c:172:25 @[ crypto_hash/sha256/cp/hash_sha256_cp.c:237:5 ]
	leaq	40(%rbx), %rsi
	.loc	3 172 43 is_stmt 0              # crypto_hash/sha256/cp/hash_sha256_cp.c:172:43 @[ crypto_hash/sha256/cp/hash_sha256_cp.c:237:5 ]
	movq	32(%rbx), %rax
	#DEBUG_VALUE: store64_be:w <- $rax
.Ltmp498:
	#DEBUG_VALUE: store64_be:dst <- [DW_OP_plus_uconst 96, DW_OP_stack_value] $rbx
	#DEBUG_VALUE: store64_be:w <- undef
	.loc	7 168 12 is_stmt 1              # ./include/sodium/private/common.h:168:12 @[ crypto_hash/sha256/cp/hash_sha256_cp.c:172:5 @[ crypto_hash/sha256/cp/hash_sha256_cp.c:237:5 ] ]
	bswapq	%rax
	movq	%rax, 96(%rbx)
.Ltmp499:
	.loc	3 173 60                        # crypto_hash/sha256/cp/hash_sha256_cp.c:173:60 @[ crypto_hash/sha256/cp/hash_sha256_cp.c:237:5 ]
	leaq	256(%rsp), %rcx
	movq	%rsp, %r15
	.loc	3 173 5 is_stmt 0               # crypto_hash/sha256/cp/hash_sha256_cp.c:173:5 @[ crypto_hash/sha256/cp/hash_sha256_cp.c:237:5 ]
	movq	%rbx, %rdi
	movq	%r15, %rdx
	callq	SHA256_Transform
.Ltmp500:
	#DEBUG_VALUE: be32enc_vect:dst <- $r14
	#DEBUG_VALUE: be32enc_vect:src <- $rbx
	#DEBUG_VALUE: be32enc_vect:len <- 32
	#DEBUG_VALUE: be32enc_vect:i <- 0
	.loc	3 46 36 is_stmt 1               # crypto_hash/sha256/cp/hash_sha256_cp.c:46:36 @[ crypto_hash/sha256/cp/hash_sha256_cp.c:238:5 ]
	movl	(%rbx), %eax
	#DEBUG_VALUE: store32_be:w <- $eax
.Ltmp501:
	#DEBUG_VALUE: store32_be:dst <- $r14
	#DEBUG_VALUE: store32_be:w <- undef
	.loc	7 199 12                        # ./include/sodium/private/common.h:199:12 @[ crypto_hash/sha256/cp/hash_sha256_cp.c:46:9 @[ crypto_hash/sha256/cp/hash_sha256_cp.c:238:5 ] ]
	bswapl	%eax
	movl	%eax, (%r14)
.Ltmp502:
	#DEBUG_VALUE: be32enc_vect:i <- 1
	.loc	3 46 36                         # crypto_hash/sha256/cp/hash_sha256_cp.c:46:36 @[ crypto_hash/sha256/cp/hash_sha256_cp.c:238:5 ]
	movl	4(%rbx), %eax
.Ltmp503:
	#DEBUG_VALUE: store32_be:w <- $eax
	#DEBUG_VALUE: store32_be:dst <- [DW_OP_plus_uconst 4, DW_OP_stack_value] $r14
	.loc	7 199 12                        # ./include/sodium/private/common.h:199:12 @[ crypto_hash/sha256/cp/hash_sha256_cp.c:46:9 @[ crypto_hash/sha256/cp/hash_sha256_cp.c:238:5 ] ]
	bswapl	%eax
.Ltmp504:
	movl	%eax, 4(%r14)
.Ltmp505:
	#DEBUG_VALUE: be32enc_vect:i <- 2
	.loc	3 46 36                         # crypto_hash/sha256/cp/hash_sha256_cp.c:46:36 @[ crypto_hash/sha256/cp/hash_sha256_cp.c:238:5 ]
	movl	8(%rbx), %eax
.Ltmp506:
	#DEBUG_VALUE: store32_be:w <- $eax
	#DEBUG_VALUE: store32_be:dst <- [DW_OP_plus_uconst 8, DW_OP_stack_value] $r14
	.loc	7 199 12                        # ./include/sodium/private/common.h:199:12 @[ crypto_hash/sha256/cp/hash_sha256_cp.c:46:9 @[ crypto_hash/sha256/cp/hash_sha256_cp.c:238:5 ] ]
	bswapl	%eax
.Ltmp507:
	movl	%eax, 8(%r14)
.Ltmp508:
	#DEBUG_VALUE: be32enc_vect:i <- 3
	.loc	3 46 36                         # crypto_hash/sha256/cp/hash_sha256_cp.c:46:36 @[ crypto_hash/sha256/cp/hash_sha256_cp.c:238:5 ]
	movl	12(%rbx), %eax
.Ltmp509:
	#DEBUG_VALUE: store32_be:w <- $eax
	#DEBUG_VALUE: store32_be:dst <- [DW_OP_plus_uconst 12, DW_OP_stack_value] $r14
	.loc	7 199 12                        # ./include/sodium/private/common.h:199:12 @[ crypto_hash/sha256/cp/hash_sha256_cp.c:46:9 @[ crypto_hash/sha256/cp/hash_sha256_cp.c:238:5 ] ]
	bswapl	%eax
.Ltmp510:
	movl	%eax, 12(%r14)
.Ltmp511:
	#DEBUG_VALUE: be32enc_vect:i <- 4
	.loc	3 46 36                         # crypto_hash/sha256/cp/hash_sha256_cp.c:46:36 @[ crypto_hash/sha256/cp/hash_sha256_cp.c:238:5 ]
	movl	16(%rbx), %eax
.Ltmp512:
	#DEBUG_VALUE: store32_be:w <- $eax
	#DEBUG_VALUE: store32_be:dst <- [DW_OP_plus_uconst 16, DW_OP_stack_value] $r14
	.loc	7 199 12                        # ./include/sodium/private/common.h:199:12 @[ crypto_hash/sha256/cp/hash_sha256_cp.c:46:9 @[ crypto_hash/sha256/cp/hash_sha256_cp.c:238:5 ] ]
	bswapl	%eax
.Ltmp513:
	movl	%eax, 16(%r14)
.Ltmp514:
	#DEBUG_VALUE: be32enc_vect:i <- 5
	.loc	3 46 36                         # crypto_hash/sha256/cp/hash_sha256_cp.c:46:36 @[ crypto_hash/sha256/cp/hash_sha256_cp.c:238:5 ]
	movl	20(%rbx), %eax
.Ltmp515:
	#DEBUG_VALUE: store32_be:w <- $eax
	#DEBUG_VALUE: store32_be:dst <- [DW_OP_plus_uconst 20, DW_OP_stack_value] $r14
	.loc	7 199 12                        # ./include/sodium/private/common.h:199:12 @[ crypto_hash/sha256/cp/hash_sha256_cp.c:46:9 @[ crypto_hash/sha256/cp/hash_sha256_cp.c:238:5 ] ]
	bswapl	%eax
.Ltmp516:
	movl	%eax, 20(%r14)
.Ltmp517:
	#DEBUG_VALUE: be32enc_vect:i <- 6
	.loc	3 46 36                         # crypto_hash/sha256/cp/hash_sha256_cp.c:46:36 @[ crypto_hash/sha256/cp/hash_sha256_cp.c:238:5 ]
	movl	24(%rbx), %eax
.Ltmp518:
	#DEBUG_VALUE: store32_be:w <- $eax
	#DEBUG_VALUE: store32_be:dst <- [DW_OP_plus_uconst 24, DW_OP_stack_value] $r14
	.loc	7 199 12                        # ./include/sodium/private/common.h:199:12 @[ crypto_hash/sha256/cp/hash_sha256_cp.c:46:9 @[ crypto_hash/sha256/cp/hash_sha256_cp.c:238:5 ] ]
	bswapl	%eax
.Ltmp519:
	movl	%eax, 24(%r14)
.Ltmp520:
	#DEBUG_VALUE: be32enc_vect:i <- 7
	.loc	3 46 36                         # crypto_hash/sha256/cp/hash_sha256_cp.c:46:36 @[ crypto_hash/sha256/cp/hash_sha256_cp.c:238:5 ]
	movl	28(%rbx), %eax
.Ltmp521:
	#DEBUG_VALUE: store32_be:w <- $eax
	#DEBUG_VALUE: store32_be:dst <- [DW_OP_plus_uconst 28, DW_OP_stack_value] $r14
	.loc	7 199 12                        # ./include/sodium/private/common.h:199:12 @[ crypto_hash/sha256/cp/hash_sha256_cp.c:46:9 @[ crypto_hash/sha256/cp/hash_sha256_cp.c:238:5 ] ]
	bswapl	%eax
.Ltmp522:
	movl	%eax, 28(%r14)
.Ltmp523:
	#DEBUG_VALUE: be32enc_vect:i <- 8
	.loc	3 239 5                         # crypto_hash/sha256/cp/hash_sha256_cp.c:239:5
	movl	$288, %esi                      # imm = 0x120
	movq	%r15, %rdi
	callq	sodium_memzero@PLT
.Ltmp524:
	.loc	3 240 5                         # crypto_hash/sha256/cp/hash_sha256_cp.c:240:5
	movl	$104, %esi
	movq	%rbx, %rdi
	callq	sodium_memzero@PLT
.Ltmp525:
	.loc	3 242 5                         # crypto_hash/sha256/cp/hash_sha256_cp.c:242:5
	xorl	%eax, %eax
	.loc	3 242 5 epilogue_begin is_stmt 0 # crypto_hash/sha256/cp/hash_sha256_cp.c:242:5
	addq	$288, %rsp                      # imm = 0x120
.Ltmp526:
	#DEBUG_VALUE: SHA256_Pad:tmp32 <- $r15
	.cfi_def_cfa_offset 32
	popq	%rbx
.Ltmp527:
	#DEBUG_VALUE: crypto_hash_sha256_final:state <- [DW_OP_LLVM_entry_value 1] $rdi
	.cfi_def_cfa_offset 24
	popq	%r14
.Ltmp528:
	#DEBUG_VALUE: crypto_hash_sha256_final:out <- [DW_OP_LLVM_entry_value 1] $rsi
	.cfi_def_cfa_offset 16
	popq	%r15
.Ltmp529:
	.cfi_def_cfa_offset 8
	retq
.Ltmp530:
.Lfunc_end3:
	.size	crypto_hash_sha256_final, .Lfunc_end3-crypto_hash_sha256_final
	.cfi_endproc
	.file	8 "./include/sodium" "crypto_hash_sha256.h"
                                        # -- End function
	.globl	crypto_hash_sha256              # -- Begin function crypto_hash_sha256
	.p2align	4
	.type	crypto_hash_sha256,@function
crypto_hash_sha256:                     # @crypto_hash_sha256
.Lfunc_begin4:
	.loc	3 248 0 is_stmt 1               # crypto_hash/sha256/cp/hash_sha256_cp.c:248:0
	.cfi_startproc
# %bb.0:
	#DEBUG_VALUE: crypto_hash_sha256:out <- $rdi
	#DEBUG_VALUE: crypto_hash_sha256:in <- $rsi
	#DEBUG_VALUE: crypto_hash_sha256:inlen <- $rdx
	pushq	%r14
	.cfi_def_cfa_offset 16
	pushq	%rbx
	.cfi_def_cfa_offset 24
	subq	$120, %rsp
	.cfi_def_cfa_offset 144
	.cfi_offset %rbx, -24
	.cfi_offset %r14, -16
	movq	%rdi, %rbx
	movq	%fs:40, %rax
	movq	%rax, 112(%rsp)
.Ltmp531:
	#DEBUG_VALUE: crypto_hash_sha256_init:state <- $rsp
	.loc	3 184 18 prologue_end           # crypto_hash/sha256/cp/hash_sha256_cp.c:184:18 @[ crypto_hash/sha256/cp/hash_sha256_cp.c:251:5 ]
	movq	$0, 32(%rsp)
.Ltmp532:
	#DEBUG_VALUE: memcpy:__dest <- $rsp
	#DEBUG_VALUE: memcpy:__len <- 32
	.loc	4 29 10                         # /usr/include/x86_64-linux-gnu/bits/string_fortified.h:29:10 @[ crypto_hash/sha256/cp/hash_sha256_cp.c:185:5 @[ crypto_hash/sha256/cp/hash_sha256_cp.c:251:5 ] ]
	movaps	crypto_hash_sha256_init.sha256_initial_state(%rip), %xmm0
	movaps	%xmm0, (%rsp)
	movaps	crypto_hash_sha256_init.sha256_initial_state+16(%rip), %xmm0
	movaps	%xmm0, 16(%rsp)
.Ltmp533:
	#DEBUG_VALUE: memcpy:__src <- undef
	.loc	4 0 10 is_stmt 0                # /usr/include/x86_64-linux-gnu/bits/string_fortified.h:0:10
	movq	%rsp, %r14
.Ltmp534:
	.loc	3 252 5 is_stmt 1               # crypto_hash/sha256/cp/hash_sha256_cp.c:252:5
	movq	%r14, %rdi
.Ltmp535:
	#DEBUG_VALUE: crypto_hash_sha256:out <- $rbx
	callq	crypto_hash_sha256_update
.Ltmp536:
	#DEBUG_VALUE: crypto_hash_sha256:inlen <- [DW_OP_LLVM_entry_value 1] $rdx
	#DEBUG_VALUE: crypto_hash_sha256:in <- [DW_OP_LLVM_entry_value 1] $rsi
	.loc	3 253 5                         # crypto_hash/sha256/cp/hash_sha256_cp.c:253:5
	movq	%r14, %rdi
	movq	%rbx, %rsi
	callq	crypto_hash_sha256_final
.Ltmp537:
	.loc	3 255 5                         # crypto_hash/sha256/cp/hash_sha256_cp.c:255:5
	movq	%fs:40, %rax
	cmpq	112(%rsp), %rax
	jne	.LBB4_2
.Ltmp538:
# %bb.1:                                # %SP_return
	#DEBUG_VALUE: crypto_hash_sha256:out <- $rbx
	#DEBUG_VALUE: crypto_hash_sha256:in <- [DW_OP_LLVM_entry_value 1] $rsi
	#DEBUG_VALUE: crypto_hash_sha256:inlen <- [DW_OP_LLVM_entry_value 1] $rdx
	xorl	%eax, %eax
	.loc	3 255 5 epilogue_begin is_stmt 0 # crypto_hash/sha256/cp/hash_sha256_cp.c:255:5
	addq	$120, %rsp
	.cfi_def_cfa_offset 24
	popq	%rbx
.Ltmp539:
	#DEBUG_VALUE: crypto_hash_sha256:out <- [DW_OP_LLVM_entry_value 1] $rdi
	.cfi_def_cfa_offset 16
	popq	%r14
	.cfi_def_cfa_offset 8
	retq
.Ltmp540:
.LBB4_2:                                # %CallStackCheckFailBlk
	.cfi_def_cfa_offset 144
	#DEBUG_VALUE: crypto_hash_sha256:out <- $rbx
	#DEBUG_VALUE: crypto_hash_sha256:in <- [DW_OP_LLVM_entry_value 1] $rsi
	#DEBUG_VALUE: crypto_hash_sha256:inlen <- [DW_OP_LLVM_entry_value 1] $rdx
	#DEBUG_VALUE: crypto_hash_sha256_init:state <- $r14
	#DEBUG_VALUE: memcpy:__dest <- $r14
	#DEBUG_VALUE: memcpy:__len <- 32
	.loc	3 0 0                           # crypto_hash/sha256/cp/hash_sha256_cp.c:0
	callq	__stack_chk_fail@PLT
.Ltmp541:
.Lfunc_end4:
	.size	crypto_hash_sha256, .Lfunc_end4-crypto_hash_sha256
	.cfi_endproc
                                        # -- End function
	.type	crypto_hash_sha256_init.sha256_initial_state,@object # @crypto_hash_sha256_init.sha256_initial_state
	.section	.rodata,"a",@progbits
	.p2align	4, 0x0
crypto_hash_sha256_init.sha256_initial_state:
	.long	1779033703                      # 0x6a09e667
	.long	3144134277                      # 0xbb67ae85
	.long	1013904242                      # 0x3c6ef372
	.long	2773480762                      # 0xa54ff53a
	.long	1359893119                      # 0x510e527f
	.long	2600822924                      # 0x9b05688c
	.long	528734635                       # 0x1f83d9ab
	.long	1541459225                      # 0x5be0cd19
	.size	crypto_hash_sha256_init.sha256_initial_state, 32

	.type	Krnd,@object                    # @Krnd
	.p2align	4, 0x0
Krnd:
	.long	1116352408                      # 0x428a2f98
	.long	1899447441                      # 0x71374491
	.long	3049323471                      # 0xb5c0fbcf
	.long	3921009573                      # 0xe9b5dba5
	.long	961987163                       # 0x3956c25b
	.long	1508970993                      # 0x59f111f1
	.long	2453635748                      # 0x923f82a4
	.long	2870763221                      # 0xab1c5ed5
	.long	3624381080                      # 0xd807aa98
	.long	310598401                       # 0x12835b01
	.long	607225278                       # 0x243185be
	.long	1426881987                      # 0x550c7dc3
	.long	1925078388                      # 0x72be5d74
	.long	2162078206                      # 0x80deb1fe
	.long	2614888103                      # 0x9bdc06a7
	.long	3248222580                      # 0xc19bf174
	.long	3835390401                      # 0xe49b69c1
	.long	4022224774                      # 0xefbe4786
	.long	264347078                       # 0xfc19dc6
	.long	604807628                       # 0x240ca1cc
	.long	770255983                       # 0x2de92c6f
	.long	1249150122                      # 0x4a7484aa
	.long	1555081692                      # 0x5cb0a9dc
	.long	1996064986                      # 0x76f988da
	.long	2554220882                      # 0x983e5152
	.long	2821834349                      # 0xa831c66d
	.long	2952996808                      # 0xb00327c8
	.long	3210313671                      # 0xbf597fc7
	.long	3336571891                      # 0xc6e00bf3
	.long	3584528711                      # 0xd5a79147
	.long	113926993                       # 0x6ca6351
	.long	338241895                       # 0x14292967
	.long	666307205                       # 0x27b70a85
	.long	773529912                       # 0x2e1b2138
	.long	1294757372                      # 0x4d2c6dfc
	.long	1396182291                      # 0x53380d13
	.long	1695183700                      # 0x650a7354
	.long	1986661051                      # 0x766a0abb
	.long	2177026350                      # 0x81c2c92e
	.long	2456956037                      # 0x92722c85
	.long	2730485921                      # 0xa2bfe8a1
	.long	2820302411                      # 0xa81a664b
	.long	3259730800                      # 0xc24b8b70
	.long	3345764771                      # 0xc76c51a3
	.long	3516065817                      # 0xd192e819
	.long	3600352804                      # 0xd6990624
	.long	4094571909                      # 0xf40e3585
	.long	275423344                       # 0x106aa070
	.long	430227734                       # 0x19a4c116
	.long	506948616                       # 0x1e376c08
	.long	659060556                       # 0x2748774c
	.long	883997877                       # 0x34b0bcb5
	.long	958139571                       # 0x391c0cb3
	.long	1322822218                      # 0x4ed8aa4a
	.long	1537002063                      # 0x5b9cca4f
	.long	1747873779                      # 0x682e6ff3
	.long	1955562222                      # 0x748f82ee
	.long	2024104815                      # 0x78a5636f
	.long	2227730452                      # 0x84c87814
	.long	2361852424                      # 0x8cc70208
	.long	2428436474                      # 0x90befffa
	.long	2756734187                      # 0xa4506ceb
	.long	3204031479                      # 0xbef9a3f7
	.long	3329325298                      # 0xc67178f2
	.size	Krnd, 256

	.type	PAD,@object                     # @PAD
	.p2align	4, 0x0
PAD:
	.byte	128                             # 0x80
	.zero	63
	.size	PAD, 64

	.section	".note.GNU-stack","",@progbits
	.addrsig
	.addrsig_sym __stack_chk_fail
	.addrsig_sym crypto_hash_sha256_init.sha256_initial_state