	.file	"hash_sha512_cp.c"
	.file	0 "/home/leizhenyuu/opt/Anonymous_Repo/libsodium_o2_attr_inline/src/libsodium" "hash_sha512_cp.c" md5 0x7bd8b5a219b040837a49cf69648bbeca
	.file	1 "/usr/include/x86_64-linux-gnu/bits" "types.h"
	.file	2 "/usr/include/x86_64-linux-gnu/bits" "stdint-uintn.h"
	.file	3 "crypto_hash/sha512/cp" "hash_sha512_cp.c"
	.text
	.globl	crypto_hash_sha512_init         # -- Begin function crypto_hash_sha512_init
	.p2align	4
	.type	crypto_hash_sha512_init,@function
crypto_hash_sha512_init:                # @crypto_hash_sha512_init
.Lfunc_begin0:
	.cfi_startproc
# %bb.0:
	#DEBUG_VALUE: crypto_hash_sha512_init:state <- $rdi
	#DEBUG_VALUE: memcpy:__len <- 64
	#DEBUG_VALUE: memcpy:__dest <- $rdi
	.loc	3 204 21 prologue_end           # crypto_hash/sha512/cp/hash_sha512_cp.c:204:21
	xorps	%xmm0, %xmm0
	movups	%xmm0, 64(%rdi)
.Ltmp0:
	.file	4 "/usr/include/x86_64-linux-gnu/bits" "string_fortified.h"
	.loc	4 29 10                         # /usr/include/x86_64-linux-gnu/bits/string_fortified.h:29:10 @[ crypto_hash/sha512/cp/hash_sha512_cp.c:205:5 ]
	movaps	crypto_hash_sha512_init.sha512_initial_state(%rip), %xmm0
	movups	%xmm0, (%rdi)
	movaps	crypto_hash_sha512_init.sha512_initial_state+16(%rip), %xmm0
	movups	%xmm0, 16(%rdi)
	movaps	crypto_hash_sha512_init.sha512_initial_state+32(%rip), %xmm0
	movups	%xmm0, 32(%rdi)
	movaps	crypto_hash_sha512_init.sha512_initial_state+48(%rip), %xmm0
	movups	%xmm0, 48(%rdi)
.Ltmp1:
	#DEBUG_VALUE: memcpy:__src <- undef
	.loc	3 207 5                         # crypto_hash/sha512/cp/hash_sha512_cp.c:207:5
	xorl	%eax, %eax
	retq
.Ltmp2:
.Lfunc_end0:
	.size	crypto_hash_sha512_init, .Lfunc_end0-crypto_hash_sha512_init
	.cfi_endproc
	.file	5 "/home/leizhenyuu/opt/Anonymous_Repo" "llvm-project/build/lib/clang/21/include/__stddef_size_t.h"
                                        # -- End function
	.globl	crypto_hash_sha512_update       # -- Begin function crypto_hash_sha512_update
	.p2align	4
	.type	crypto_hash_sha512_update,@function
crypto_hash_sha512_update:              # @crypto_hash_sha512_update
.Lfunc_begin1:
	.cfi_startproc
# %bb.0:
	#DEBUG_VALUE: crypto_hash_sha512_update:state <- $rdi
	#DEBUG_VALUE: crypto_hash_sha512_update:in <- $rsi
	#DEBUG_VALUE: crypto_hash_sha512_update:inlen <- $rdx
	.loc	3 219 15 prologue_end           # crypto_hash/sha512/cp/hash_sha512_cp.c:219:15
	testq	%rdx, %rdx
	je	.LBB1_54
.Ltmp3:
# %bb.1:
	#DEBUG_VALUE: crypto_hash_sha512_update:state <- $rdi
	#DEBUG_VALUE: crypto_hash_sha512_update:in <- $rsi
	#DEBUG_VALUE: crypto_hash_sha512_update:inlen <- $rdx
	pushq	%rbp
	.cfi_def_cfa_offset 16
	pushq	%r15
	.cfi_def_cfa_offset 24
	pushq	%r14
	.cfi_def_cfa_offset 32
	pushq	%r13
	.cfi_def_cfa_offset 40
	pushq	%r12
	.cfi_def_cfa_offset 48
	pushq	%rbx
	.cfi_def_cfa_offset 56
	subq	$712, %rsp                      # imm = 0x2C8
	.cfi_def_cfa_offset 768
	.cfi_offset %rbx, -56
	.cfi_offset %r12, -48
	.cfi_offset %r13, -40
	.cfi_offset %r14, -32
	.cfi_offset %r15, -24
	.cfi_offset %rbp, -16
	movq	%rsi, %rbx
	movq	%rdi, %r14
	#MEMBARRIER
	.loc	3 223 32                        # crypto_hash/sha512/cp/hash_sha512_cp.c:223:32
	movq	72(%rdi), %rcx
	.loc	3 223 48 is_stmt 0              # crypto_hash/sha512/cp/hash_sha512_cp.c:223:48
	movl	%ecx, %eax
	shrl	$3, %eax
	.loc	3 223 54                        # crypto_hash/sha512/cp/hash_sha512_cp.c:223:54
	andl	$127, %eax
.Ltmp4:
	#DEBUG_VALUE: crypto_hash_sha512_update:r <- $eax
	.loc	3 225 36 is_stmt 1              # crypto_hash/sha512/cp/hash_sha512_cp.c:225:36
	leaq	(,%rdx,8), %rsi
.Ltmp5:
	#DEBUG_VALUE: crypto_hash_sha512_update:in <- $rbx
	#DEBUG_VALUE: crypto_hash_sha512_update:bitlen <- [DW_OP_LLVM_fragment 64 64] $rsi
	.loc	3 226 36                        # crypto_hash/sha512/cp/hash_sha512_cp.c:226:36
	movq	%rdx, %rdi
.Ltmp6:
	#DEBUG_VALUE: crypto_hash_sha512_update:state <- $r14
	shrq	$61, %rdi
.Ltmp7:
	#DEBUG_VALUE: crypto_hash_sha512_update:bitlen <- [DW_OP_LLVM_fragment 0 64] $rdi
	.loc	3 228 26                        # crypto_hash/sha512/cp/hash_sha512_cp.c:228:26
	addq	%rcx, %rsi
.Ltmp8:
	movq	%rsi, 72(%r14)
.Ltmp9:
	.loc	3 232 21                        # crypto_hash/sha512/cp/hash_sha512_cp.c:232:21
	adcq	%rdi, 64(%r14)
	movl	$128, %r13d
.Ltmp10:
	.loc	3 233 21                        # crypto_hash/sha512/cp/hash_sha512_cp.c:233:21
	subq	%rax, %r13
	leaq	80(%r14), %r15
	.loc	3 233 15 is_stmt 0              # crypto_hash/sha512/cp/hash_sha512_cp.c:233:15
	movq	%rdx, %rbp
	subq	%r13, %rbp
.Ltmp11:
	#DEBUG_VALUE: crypto_hash_sha512_update:i <- 0
	jae	.LBB1_4
.Ltmp12:
# %bb.2:                                # %iter.check108
	#DEBUG_VALUE: crypto_hash_sha512_update:state <- $r14
	#DEBUG_VALUE: crypto_hash_sha512_update:in <- $rbx
	#DEBUG_VALUE: crypto_hash_sha512_update:inlen <- $rdx
	#DEBUG_VALUE: crypto_hash_sha512_update:r <- $eax
	#DEBUG_VALUE: crypto_hash_sha512_update:bitlen <- [DW_OP_LLVM_fragment 0 64] $rdi
	#DEBUG_VALUE: crypto_hash_sha512_update:i <- 0
	.loc	3 234 9 is_stmt 1               # crypto_hash/sha512/cp/hash_sha512_cp.c:234:9
	cmpq	$4, %rdx
	jb	.LBB1_3
.Ltmp13:
# %bb.22:                               # %vector.memcheck104
	#DEBUG_VALUE: crypto_hash_sha512_update:state <- $r14
	#DEBUG_VALUE: crypto_hash_sha512_update:in <- $rbx
	#DEBUG_VALUE: crypto_hash_sha512_update:inlen <- $rdx
	#DEBUG_VALUE: crypto_hash_sha512_update:r <- $eax
	#DEBUG_VALUE: crypto_hash_sha512_update:bitlen <- [DW_OP_LLVM_fragment 0 64] $rdi
	#DEBUG_VALUE: crypto_hash_sha512_update:i <- 0
	leaq	(%rax,%r14), %rcx
	subq	%rbx, %rcx
	addq	$80, %rcx
	cmpq	$32, %rcx
.Ltmp14:
	.loc	3 234 33 is_stmt 0              # crypto_hash/sha512/cp/hash_sha512_cp.c:234:33
	jae	.LBB1_26
.Ltmp15:
.LBB1_3:
	#DEBUG_VALUE: crypto_hash_sha512_update:state <- $r14
	#DEBUG_VALUE: crypto_hash_sha512_update:in <- $rbx
	#DEBUG_VALUE: crypto_hash_sha512_update:inlen <- $rdx
	#DEBUG_VALUE: crypto_hash_sha512_update:r <- $eax
	#DEBUG_VALUE: crypto_hash_sha512_update:bitlen <- [DW_OP_LLVM_fragment 0 64] $rdi
	#DEBUG_VALUE: crypto_hash_sha512_update:i <- 0
	.loc	3 0 33                          # crypto_hash/sha512/cp/hash_sha512_cp.c:0:33
	xorl	%ecx, %ecx
.Ltmp16:
.LBB1_47:                               # %.preheader.preheader
	#DEBUG_VALUE: crypto_hash_sha512_update:state <- $r14
	#DEBUG_VALUE: crypto_hash_sha512_update:in <- $rbx
	#DEBUG_VALUE: crypto_hash_sha512_update:inlen <- $rdx
	#DEBUG_VALUE: crypto_hash_sha512_update:r <- $eax
	#DEBUG_VALUE: crypto_hash_sha512_update:i <- 0
	.loc	3 234 9 is_stmt 1               # crypto_hash/sha512/cp/hash_sha512_cp.c:234:9
	movq	%rdx, %rdi
	movq	%rcx, %rsi
	andq	$3, %rdi
	je	.LBB1_50
.Ltmp17:
# %bb.48:                               # %.preheader.prol.preheader
	#DEBUG_VALUE: crypto_hash_sha512_update:state <- $r14
	#DEBUG_VALUE: crypto_hash_sha512_update:in <- $rbx
	#DEBUG_VALUE: crypto_hash_sha512_update:inlen <- $rdx
	#DEBUG_VALUE: crypto_hash_sha512_update:r <- $eax
	#DEBUG_VALUE: crypto_hash_sha512_update:i <- 0
	leaq	(%rax,%r14), %r8
	addq	$80, %r8
	movq	%rcx, %rsi
.Ltmp18:
	.loc	3 0 9 is_stmt 0                 # :0:9
.Ltmp19:
	.p2align	4
.LBB1_49:                               # %.preheader.prol
                                        # =>This Inner Loop Header: Depth=1
	#DEBUG_VALUE: crypto_hash_sha512_update:state <- $r14
	#DEBUG_VALUE: crypto_hash_sha512_update:in <- $rbx
	#DEBUG_VALUE: crypto_hash_sha512_update:inlen <- $rdx
	#DEBUG_VALUE: crypto_hash_sha512_update:r <- $eax
	#DEBUG_VALUE: crypto_hash_sha512_update:i <- $rsi
	.loc	3 235 33 is_stmt 1              # crypto_hash/sha512/cp/hash_sha512_cp.c:235:33
	movzbl	(%rbx,%rsi), %r9d
	.loc	3 235 31 is_stmt 0              # crypto_hash/sha512/cp/hash_sha512_cp.c:235:31
	movb	%r9b, (%r8,%rsi)
.Ltmp20:
	.loc	3 234 33 is_stmt 1              # crypto_hash/sha512/cp/hash_sha512_cp.c:234:33
	incq	%rsi
.Ltmp21:
	#DEBUG_VALUE: crypto_hash_sha512_update:i <- $rsi
	.loc	3 234 9 is_stmt 0               # crypto_hash/sha512/cp/hash_sha512_cp.c:234:9
	decq	%rdi
	jne	.LBB1_49
.Ltmp22:
.LBB1_50:                               # %.preheader.prol.loopexit
	#DEBUG_VALUE: crypto_hash_sha512_update:state <- $r14
	#DEBUG_VALUE: crypto_hash_sha512_update:in <- $rbx
	#DEBUG_VALUE: crypto_hash_sha512_update:inlen <- $rdx
	#DEBUG_VALUE: crypto_hash_sha512_update:r <- $eax
	subq	%rdx, %rcx
	cmpq	$-4, %rcx
	ja	.LBB1_53
.Ltmp23:
# %bb.51:                               # %.preheader.preheader.new
	#DEBUG_VALUE: crypto_hash_sha512_update:state <- $r14
	#DEBUG_VALUE: crypto_hash_sha512_update:in <- $rbx
	#DEBUG_VALUE: crypto_hash_sha512_update:inlen <- $rdx
	#DEBUG_VALUE: crypto_hash_sha512_update:r <- $eax
	addq	%r14, %rax
.Ltmp24:
	addq	$83, %rax
.Ltmp25:
	.loc	3 0 9                           # :0:9
.Ltmp26:
	.p2align	4
.LBB1_52:                               # %.preheader
                                        # =>This Inner Loop Header: Depth=1
	#DEBUG_VALUE: crypto_hash_sha512_update:state <- $r14
	#DEBUG_VALUE: crypto_hash_sha512_update:in <- $rbx
	#DEBUG_VALUE: crypto_hash_sha512_update:inlen <- $rdx
	#DEBUG_VALUE: crypto_hash_sha512_update:i <- $rsi
	.loc	3 235 33 is_stmt 1              # crypto_hash/sha512/cp/hash_sha512_cp.c:235:33
	movzbl	(%rbx,%rsi), %ecx
	.loc	3 235 31 is_stmt 0              # crypto_hash/sha512/cp/hash_sha512_cp.c:235:31
	movb	%cl, -3(%rax,%rsi)
.Ltmp27:
	#DEBUG_VALUE: crypto_hash_sha512_update:i <- [DW_OP_plus_uconst 1, DW_OP_stack_value] $rsi
	.loc	3 235 33                        # crypto_hash/sha512/cp/hash_sha512_cp.c:235:33
	movzbl	1(%rbx,%rsi), %ecx
	.loc	3 235 31                        # crypto_hash/sha512/cp/hash_sha512_cp.c:235:31
	movb	%cl, -2(%rax,%rsi)
.Ltmp28:
	#DEBUG_VALUE: crypto_hash_sha512_update:i <- [DW_OP_plus_uconst 2, DW_OP_stack_value] $rsi
	.loc	3 235 33                        # crypto_hash/sha512/cp/hash_sha512_cp.c:235:33
	movzbl	2(%rbx,%rsi), %ecx
	.loc	3 235 31                        # crypto_hash/sha512/cp/hash_sha512_cp.c:235:31
	movb	%cl, -1(%rax,%rsi)
.Ltmp29:
	#DEBUG_VALUE: crypto_hash_sha512_update:i <- [DW_OP_plus_uconst 3, DW_OP_stack_value] $rsi
	.loc	3 235 33                        # crypto_hash/sha512/cp/hash_sha512_cp.c:235:33
	movzbl	3(%rbx,%rsi), %ecx
	.loc	3 235 31                        # crypto_hash/sha512/cp/hash_sha512_cp.c:235:31
	movb	%cl, (%rax,%rsi)
.Ltmp30:
	.loc	3 234 33 is_stmt 1              # crypto_hash/sha512/cp/hash_sha512_cp.c:234:33
	addq	$4, %rsi
.Ltmp31:
	#DEBUG_VALUE: crypto_hash_sha512_update:i <- $rsi
	.loc	3 234 23 is_stmt 0              # crypto_hash/sha512/cp/hash_sha512_cp.c:234:23
	cmpq	%rsi, %rdx
.Ltmp32:
	.loc	3 234 9                         # crypto_hash/sha512/cp/hash_sha512_cp.c:234:9
	jne	.LBB1_52
	jmp	.LBB1_53
.Ltmp33:
.LBB1_4:                                # %iter.check
	#DEBUG_VALUE: crypto_hash_sha512_update:state <- $r14
	#DEBUG_VALUE: crypto_hash_sha512_update:in <- $rbx
	#DEBUG_VALUE: crypto_hash_sha512_update:inlen <- $rdx
	#DEBUG_VALUE: crypto_hash_sha512_update:r <- $eax
	#DEBUG_VALUE: crypto_hash_sha512_update:bitlen <- [DW_OP_LLVM_fragment 0 64] $rdi
	#DEBUG_VALUE: crypto_hash_sha512_update:i <- 0
	.loc	3 239 5 is_stmt 1               # crypto_hash/sha512/cp/hash_sha512_cp.c:239:5
	cmpl	$125, %eax
	jae	.LBB1_6
.Ltmp34:
# %bb.5:                                # %vector.memcheck
	#DEBUG_VALUE: crypto_hash_sha512_update:state <- $r14
	#DEBUG_VALUE: crypto_hash_sha512_update:in <- $rbx
	#DEBUG_VALUE: crypto_hash_sha512_update:inlen <- $rdx
	#DEBUG_VALUE: crypto_hash_sha512_update:r <- $eax
	#DEBUG_VALUE: crypto_hash_sha512_update:bitlen <- [DW_OP_LLVM_fragment 0 64] $rdi
	#DEBUG_VALUE: crypto_hash_sha512_update:i <- 0
	leaq	(%rax,%r14), %rcx
	subq	%rbx, %rcx
	addq	$80, %rcx
	cmpq	$32, %rcx
.Ltmp35:
	.loc	3 239 31 is_stmt 0              # crypto_hash/sha512/cp/hash_sha512_cp.c:239:31
	jae	.LBB1_24
.Ltmp36:
.LBB1_6:
	#DEBUG_VALUE: crypto_hash_sha512_update:state <- $r14
	#DEBUG_VALUE: crypto_hash_sha512_update:in <- $rbx
	#DEBUG_VALUE: crypto_hash_sha512_update:inlen <- $rdx
	#DEBUG_VALUE: crypto_hash_sha512_update:r <- $eax
	#DEBUG_VALUE: crypto_hash_sha512_update:bitlen <- [DW_OP_LLVM_fragment 0 64] $rdi
	#DEBUG_VALUE: crypto_hash_sha512_update:i <- 0
	.loc	3 0 31                          # crypto_hash/sha512/cp/hash_sha512_cp.c:0:31
	xorl	%ecx, %ecx
.Ltmp37:
.LBB1_7:                                # %.preheader50.preheader
	#DEBUG_VALUE: crypto_hash_sha512_update:state <- $r14
	#DEBUG_VALUE: crypto_hash_sha512_update:in <- $rbx
	#DEBUG_VALUE: crypto_hash_sha512_update:inlen <- [DW_OP_LLVM_entry_value 1] $rdx
	#DEBUG_VALUE: crypto_hash_sha512_update:r <- $eax
	#DEBUG_VALUE: crypto_hash_sha512_update:i <- 0
	.loc	3 239 5 is_stmt 1               # crypto_hash/sha512/cp/hash_sha512_cp.c:239:5
	addq	%r14, %rax
.Ltmp38:
	addq	$80, %rax
.Ltmp39:
	.loc	3 0 5 is_stmt 0                 # :0:5
.Ltmp40:
	.p2align	4
.LBB1_8:                                # %.preheader50
                                        # =>This Inner Loop Header: Depth=1
	#DEBUG_VALUE: crypto_hash_sha512_update:state <- $r14
	#DEBUG_VALUE: crypto_hash_sha512_update:in <- $rbx
	#DEBUG_VALUE: crypto_hash_sha512_update:inlen <- [DW_OP_LLVM_entry_value 1] $rdx
	#DEBUG_VALUE: crypto_hash_sha512_update:i <- $rcx
	.loc	3 240 29 is_stmt 1              # crypto_hash/sha512/cp/hash_sha512_cp.c:240:29
	movzbl	(%rbx,%rcx), %edx
	.loc	3 240 27 is_stmt 0              # crypto_hash/sha512/cp/hash_sha512_cp.c:240:27
	movb	%dl, (%rax,%rcx)
.Ltmp41:
	.loc	3 239 31 is_stmt 1              # crypto_hash/sha512/cp/hash_sha512_cp.c:239:31
	incq	%rcx
.Ltmp42:
	#DEBUG_VALUE: crypto_hash_sha512_update:i <- $rcx
	.loc	3 239 19 is_stmt 0              # crypto_hash/sha512/cp/hash_sha512_cp.c:239:19
	cmpq	%rcx, %r13
	jne	.LBB1_8
.Ltmp43:
.LBB1_9:                                # %.loopexit136
	#DEBUG_VALUE: crypto_hash_sha512_update:state <- $r14
	#DEBUG_VALUE: crypto_hash_sha512_update:in <- $rbx
	#DEBUG_VALUE: crypto_hash_sha512_update:inlen <- [DW_OP_LLVM_entry_value 1] $rdx
	.loc	3 242 60 is_stmt 1              # crypto_hash/sha512/cp/hash_sha512_cp.c:242:60
	leaq	640(%rsp), %r12
	movq	%rsp, %rdx
	.loc	3 242 5 is_stmt 0               # crypto_hash/sha512/cp/hash_sha512_cp.c:242:5
	movq	%r14, %rdi
	movq	%r15, %rsi
	movq	%r12, %rcx
	callq	SHA512_Transform
.Ltmp44:
	.loc	3 243 8 is_stmt 1               # crypto_hash/sha512/cp/hash_sha512_cp.c:243:8
	addq	%r13, %rbx
.Ltmp45:
	#DEBUG_VALUE: crypto_hash_sha512_update:in <- [DW_OP_LLVM_entry_value 1] $rsi
	#DEBUG_VALUE: crypto_hash_sha512_update:in <- $rbx
	#DEBUG_VALUE: crypto_hash_sha512_update:inlen <- undef
	.loc	3 246 18                        # crypto_hash/sha512/cp/hash_sha512_cp.c:246:18
	cmpq	$128, %rbp
	jb	.LBB1_12
.Ltmp46:
# %bb.10:
	#DEBUG_VALUE: crypto_hash_sha512_update:state <- $r14
	#DEBUG_VALUE: crypto_hash_sha512_update:in <- $rbx
	.loc	3 0 18 is_stmt 0                # crypto_hash/sha512/cp/hash_sha512_cp.c:0:18
	movq	%rsp, %r13
.Ltmp47:
	.p2align	4
.LBB1_11:                               # %.lr.ph
                                        # =>This Inner Loop Header: Depth=1
	#DEBUG_VALUE: crypto_hash_sha512_update:state <- $r14
	#DEBUG_VALUE: crypto_hash_sha512_update:in <- $rbx
	#DEBUG_VALUE: crypto_hash_sha512_update:in <- $rbx
	#DEBUG_VALUE: crypto_hash_sha512_update:inlen <- $rbp
	.loc	3 247 9 is_stmt 1               # crypto_hash/sha512/cp/hash_sha512_cp.c:247:9
	movq	%r14, %rdi
	movq	%rbx, %rsi
	movq	%r13, %rdx
	movq	%r12, %rcx
	callq	SHA512_Transform
.Ltmp48:
	.loc	3 248 12                        # crypto_hash/sha512/cp/hash_sha512_cp.c:248:12
	subq	$-128, %rbx
.Ltmp49:
	#DEBUG_VALUE: crypto_hash_sha512_update:in <- $rbx
	.loc	3 249 15                        # crypto_hash/sha512/cp/hash_sha512_cp.c:249:15
	addq	$-128, %rbp
.Ltmp50:
	#DEBUG_VALUE: crypto_hash_sha512_update:inlen <- $rbp
	.loc	3 246 18                        # crypto_hash/sha512/cp/hash_sha512_cp.c:246:18
	cmpq	$127, %rbp
	.loc	3 246 5 is_stmt 0               # crypto_hash/sha512/cp/hash_sha512_cp.c:246:5
	ja	.LBB1_11
.Ltmp51:
.LBB1_12:                               # %.preheader49
	#DEBUG_VALUE: crypto_hash_sha512_update:state <- $r14
	#DEBUG_VALUE: crypto_hash_sha512_update:in <- $rbx
	#DEBUG_VALUE: crypto_hash_sha512_update:i <- 0
	.loc	3 252 19 is_stmt 1              # crypto_hash/sha512/cp/hash_sha512_cp.c:252:19
	testq	%rbp, %rbp
.Ltmp52:
	.loc	3 252 5 is_stmt 0               # crypto_hash/sha512/cp/hash_sha512_cp.c:252:5
	je	.LBB1_21
.Ltmp53:
# %bb.13:                               # %iter.check76
	#DEBUG_VALUE: crypto_hash_sha512_update:state <- $r14
	#DEBUG_VALUE: crypto_hash_sha512_update:in <- $rbx
	#DEBUG_VALUE: crypto_hash_sha512_update:i <- 0
	cmpq	$3, %rbp
	jbe	.LBB1_15
.Ltmp54:
# %bb.14:                               # %vector.memcheck71
	#DEBUG_VALUE: crypto_hash_sha512_update:state <- $r14
	#DEBUG_VALUE: crypto_hash_sha512_update:in <- $rbx
	#DEBUG_VALUE: crypto_hash_sha512_update:i <- 0
	movq	%r14, %rax
	subq	%rbx, %rax
	addq	$80, %rax
	cmpq	$16, %rax
.Ltmp55:
	.loc	3 252 29                        # crypto_hash/sha512/cp/hash_sha512_cp.c:252:29
	jae	.LBB1_28
.Ltmp56:
.LBB1_15:
	#DEBUG_VALUE: crypto_hash_sha512_update:state <- $r14
	#DEBUG_VALUE: crypto_hash_sha512_update:in <- $rbx
	#DEBUG_VALUE: crypto_hash_sha512_update:i <- 0
	.loc	3 0 29                          # crypto_hash/sha512/cp/hash_sha512_cp.c:0:29
	xorl	%eax, %eax
.Ltmp57:
.LBB1_16:                               # %.lr.ph56.preheader
	#DEBUG_VALUE: crypto_hash_sha512_update:state <- $r14
	#DEBUG_VALUE: crypto_hash_sha512_update:in <- $rbx
	#DEBUG_VALUE: crypto_hash_sha512_update:i <- 0
	.loc	3 252 5 is_stmt 1               # crypto_hash/sha512/cp/hash_sha512_cp.c:252:5
	movq	%rbp, %rdx
	movq	%rax, %rcx
	andq	$3, %rdx
	je	.LBB1_19
.Ltmp58:
# %bb.17:                               # %.lr.ph56.prol.preheader
	#DEBUG_VALUE: crypto_hash_sha512_update:state <- $r14
	#DEBUG_VALUE: crypto_hash_sha512_update:in <- $rbx
	#DEBUG_VALUE: crypto_hash_sha512_update:i <- 0
	.loc	3 0 5 is_stmt 0                 # crypto_hash/sha512/cp/hash_sha512_cp.c:0:5
	movq	%rax, %rcx
.Ltmp59:
	.p2align	4
.LBB1_18:                               # %.lr.ph56.prol
                                        # =>This Inner Loop Header: Depth=1
	#DEBUG_VALUE: crypto_hash_sha512_update:state <- $r14
	#DEBUG_VALUE: crypto_hash_sha512_update:in <- $rbx
	#DEBUG_VALUE: crypto_hash_sha512_update:i <- $rcx
	.loc	3 253 25 is_stmt 1              # crypto_hash/sha512/cp/hash_sha512_cp.c:253:25
	movzbl	(%rbx,%rcx), %esi
	.loc	3 253 23 is_stmt 0              # crypto_hash/sha512/cp/hash_sha512_cp.c:253:23
	movb	%sil, (%r15,%rcx)
.Ltmp60:
	.loc	3 252 29 is_stmt 1              # crypto_hash/sha512/cp/hash_sha512_cp.c:252:29
	incq	%rcx
.Ltmp61:
	#DEBUG_VALUE: crypto_hash_sha512_update:i <- $rcx
	.loc	3 252 5 is_stmt 0               # crypto_hash/sha512/cp/hash_sha512_cp.c:252:5
	decq	%rdx
	jne	.LBB1_18
.Ltmp62:
.LBB1_19:                               # %.lr.ph56.prol.loopexit
	#DEBUG_VALUE: crypto_hash_sha512_update:state <- $r14
	#DEBUG_VALUE: crypto_hash_sha512_update:in <- $rbx
	subq	%rbp, %rax
	cmpq	$-4, %rax
	ja	.LBB1_21
.Ltmp63:
	.loc	3 0 5                           # :0:5
.Ltmp64:
	.p2align	4
.LBB1_20:                               # %.lr.ph56
                                        # =>This Inner Loop Header: Depth=1
	#DEBUG_VALUE: crypto_hash_sha512_update:state <- $r14
	#DEBUG_VALUE: crypto_hash_sha512_update:in <- $rbx
	#DEBUG_VALUE: crypto_hash_sha512_update:i <- $rcx
	.loc	3 253 25 is_stmt 1              # crypto_hash/sha512/cp/hash_sha512_cp.c:253:25
	movzbl	(%rbx,%rcx), %eax
	.loc	3 253 23 is_stmt 0              # crypto_hash/sha512/cp/hash_sha512_cp.c:253:23
	movb	%al, 80(%r14,%rcx)
.Ltmp65:
	#DEBUG_VALUE: crypto_hash_sha512_update:i <- [DW_OP_plus_uconst 1, DW_OP_stack_value] $rcx
	.loc	3 253 25                        # crypto_hash/sha512/cp/hash_sha512_cp.c:253:25
	movzbl	1(%rbx,%rcx), %eax
	.loc	3 253 23                        # crypto_hash/sha512/cp/hash_sha512_cp.c:253:23
	movb	%al, 81(%r14,%rcx)
.Ltmp66:
	#DEBUG_VALUE: crypto_hash_sha512_update:i <- [DW_OP_plus_uconst 2, DW_OP_stack_value] $rcx
	.loc	3 253 25                        # crypto_hash/sha512/cp/hash_sha512_cp.c:253:25
	movzbl	2(%rbx,%rcx), %eax
	.loc	3 253 23                        # crypto_hash/sha512/cp/hash_sha512_cp.c:253:23
	movb	%al, 82(%r14,%rcx)
.Ltmp67:
	#DEBUG_VALUE: crypto_hash_sha512_update:i <- [DW_OP_plus_uconst 3, DW_OP_stack_value] $rcx
	.loc	3 253 25                        # crypto_hash/sha512/cp/hash_sha512_cp.c:253:25
	movzbl	3(%rbx,%rcx), %eax
	.loc	3 253 23                        # crypto_hash/sha512/cp/hash_sha512_cp.c:253:23
	movb	%al, 83(%r14,%rcx)
.Ltmp68:
	.loc	3 252 29 is_stmt 1              # crypto_hash/sha512/cp/hash_sha512_cp.c:252:29
	addq	$4, %rcx
.Ltmp69:
	#DEBUG_VALUE: crypto_hash_sha512_update:i <- $rcx
	.loc	3 252 19 is_stmt 0              # crypto_hash/sha512/cp/hash_sha512_cp.c:252:19
	cmpq	%rcx, %rbp
	jne	.LBB1_20
.Ltmp70:
.LBB1_21:                               # %._crit_edge
	#DEBUG_VALUE: crypto_hash_sha512_update:state <- $r14
	#DEBUG_VALUE: crypto_hash_sha512_update:in <- $rbx
	.loc	3 0 19                          # crypto_hash/sha512/cp/hash_sha512_cp.c:0:19
	movq	%rsp, %rdi
	.loc	3 255 5 is_stmt 1               # crypto_hash/sha512/cp/hash_sha512_cp.c:255:5
	movl	$704, %esi                      # imm = 0x2C0
	callq	sodium_memzero@PLT
.Ltmp71:
.LBB1_53:
	#DEBUG_VALUE: crypto_hash_sha512_update:state <- $r14
	#DEBUG_VALUE: crypto_hash_sha512_update:in <- $rbx
	.loc	3 0 5 is_stmt 0                 # crypto_hash/sha512/cp/hash_sha512_cp.c:0:5
	addq	$712, %rsp                      # imm = 0x2C8
	.cfi_def_cfa_offset 56
	popq	%rbx
.Ltmp72:
	.cfi_def_cfa_offset 48
	popq	%r12
	.cfi_def_cfa_offset 40
	popq	%r13
	.cfi_def_cfa_offset 32
	popq	%r14
.Ltmp73:
	#DEBUG_VALUE: crypto_hash_sha512_update:state <- [DW_OP_LLVM_entry_value 1] $rdi
	.cfi_def_cfa_offset 24
	popq	%r15
	.cfi_def_cfa_offset 16
	popq	%rbp
	.cfi_def_cfa_offset 8
	.cfi_restore %rbx
	.cfi_restore %r12
	.cfi_restore %r13
	.cfi_restore %r14
	.cfi_restore %r15
	.cfi_restore %rbp
.Ltmp74:
.LBB1_54:                               # %.loopexit
	#DEBUG_VALUE: crypto_hash_sha512_update:state <- [DW_OP_LLVM_entry_value 1] $rdi
	.loc	3 258 1 is_stmt 1               # crypto_hash/sha512/cp/hash_sha512_cp.c:258:1
	xorl	%eax, %eax
	retq
.Ltmp75:
.LBB1_26:                               # %vector.main.loop.iter.check110
	.cfi_def_cfa_offset 768
	.cfi_offset %rbx, -56
	.cfi_offset %rbp, -16
	.cfi_offset %r12, -48
	.cfi_offset %r13, -40
	.cfi_offset %r14, -32
	.cfi_offset %r15, -24
	#DEBUG_VALUE: crypto_hash_sha512_update:state <- $r14
	#DEBUG_VALUE: crypto_hash_sha512_update:in <- $rbx
	#DEBUG_VALUE: crypto_hash_sha512_update:inlen <- $rdx
	#DEBUG_VALUE: crypto_hash_sha512_update:r <- $eax
	#DEBUG_VALUE: crypto_hash_sha512_update:bitlen <- [DW_OP_LLVM_fragment 0 64] $rdi
	#DEBUG_VALUE: crypto_hash_sha512_update:i <- 0
	.loc	3 234 9                         # crypto_hash/sha512/cp/hash_sha512_cp.c:234:9
	cmpq	$32, %rdx
	jae	.LBB1_39
.Ltmp76:
# %bb.27:
	#DEBUG_VALUE: crypto_hash_sha512_update:state <- $r14
	#DEBUG_VALUE: crypto_hash_sha512_update:in <- $rbx
	#DEBUG_VALUE: crypto_hash_sha512_update:inlen <- $rdx
	#DEBUG_VALUE: crypto_hash_sha512_update:r <- $eax
	#DEBUG_VALUE: crypto_hash_sha512_update:bitlen <- [DW_OP_LLVM_fragment 0 64] $rdi
	#DEBUG_VALUE: crypto_hash_sha512_update:i <- 0
	.loc	3 0 9 is_stmt 0                 # crypto_hash/sha512/cp/hash_sha512_cp.c:0:9
	xorl	%ecx, %ecx
	.loc	3 234 9                         # crypto_hash/sha512/cp/hash_sha512_cp.c:234:9
	jmp	.LBB1_44
.Ltmp77:
.LBB1_24:                               # %vector.main.loop.iter.check
	#DEBUG_VALUE: crypto_hash_sha512_update:state <- $r14
	#DEBUG_VALUE: crypto_hash_sha512_update:in <- $rbx
	#DEBUG_VALUE: crypto_hash_sha512_update:inlen <- $rdx
	#DEBUG_VALUE: crypto_hash_sha512_update:r <- $eax
	#DEBUG_VALUE: crypto_hash_sha512_update:bitlen <- [DW_OP_LLVM_fragment 0 64] $rdi
	#DEBUG_VALUE: crypto_hash_sha512_update:i <- 0
	.loc	3 239 5 is_stmt 1               # crypto_hash/sha512/cp/hash_sha512_cp.c:239:5
	cmpl	$96, %eax
	jbe	.LBB1_30
.Ltmp78:
# %bb.25:
	#DEBUG_VALUE: crypto_hash_sha512_update:state <- $r14
	#DEBUG_VALUE: crypto_hash_sha512_update:in <- $rbx
	#DEBUG_VALUE: crypto_hash_sha512_update:inlen <- $rdx
	#DEBUG_VALUE: crypto_hash_sha512_update:r <- $eax
	#DEBUG_VALUE: crypto_hash_sha512_update:bitlen <- [DW_OP_LLVM_fragment 0 64] $rdi
	#DEBUG_VALUE: crypto_hash_sha512_update:i <- 0
	.loc	3 0 5 is_stmt 0                 # crypto_hash/sha512/cp/hash_sha512_cp.c:0:5
	xorl	%ecx, %ecx
	.loc	3 239 5                         # crypto_hash/sha512/cp/hash_sha512_cp.c:239:5
	jmp	.LBB1_36
.Ltmp79:
.LBB1_28:                               # %vector.main.loop.iter.check78
	#DEBUG_VALUE: crypto_hash_sha512_update:state <- $r14
	#DEBUG_VALUE: crypto_hash_sha512_update:in <- $rbx
	#DEBUG_VALUE: crypto_hash_sha512_update:i <- 0
	.loc	3 252 5 is_stmt 1               # crypto_hash/sha512/cp/hash_sha512_cp.c:252:5
	cmpq	$16, %rbp
	jae	.LBB1_55
.Ltmp80:
# %bb.29:
	#DEBUG_VALUE: crypto_hash_sha512_update:state <- $r14
	#DEBUG_VALUE: crypto_hash_sha512_update:in <- $rbx
	#DEBUG_VALUE: crypto_hash_sha512_update:i <- 0
	.loc	3 0 5 is_stmt 0                 # crypto_hash/sha512/cp/hash_sha512_cp.c:0:5
	xorl	%eax, %eax
	.loc	3 252 5                         # crypto_hash/sha512/cp/hash_sha512_cp.c:252:5
	jmp	.LBB1_64
.Ltmp81:
.LBB1_39:                               # %vector.ph111
	#DEBUG_VALUE: crypto_hash_sha512_update:state <- $r14
	#DEBUG_VALUE: crypto_hash_sha512_update:in <- $rbx
	#DEBUG_VALUE: crypto_hash_sha512_update:inlen <- $rdx
	#DEBUG_VALUE: crypto_hash_sha512_update:r <- $eax
	#DEBUG_VALUE: crypto_hash_sha512_update:bitlen <- [DW_OP_LLVM_fragment 0 64] $rdi
	#DEBUG_VALUE: crypto_hash_sha512_update:i <- 0
	.loc	3 234 9 is_stmt 1               # crypto_hash/sha512/cp/hash_sha512_cp.c:234:9
	movq	%rdx, %rcx
	andq	$-32, %rcx
.Ltmp82:
	.loc	3 235 33                        # crypto_hash/sha512/cp/hash_sha512_cp.c:235:33
	movups	(%rbx), %xmm0
	movups	16(%rbx), %xmm1
	.loc	3 235 31 is_stmt 0              # crypto_hash/sha512/cp/hash_sha512_cp.c:235:31
	movups	%xmm0, (%r15,%rax)
	movups	%xmm1, 16(%r15,%rax)
.Ltmp83:
	.loc	3 234 33 is_stmt 1              # crypto_hash/sha512/cp/hash_sha512_cp.c:234:33
	cmpq	$32, %rcx
	je	.LBB1_42
.Ltmp84:
# %bb.40:                               # %vector.body114.1
	#DEBUG_VALUE: crypto_hash_sha512_update:state <- $r14
	#DEBUG_VALUE: crypto_hash_sha512_update:in <- $rbx
	#DEBUG_VALUE: crypto_hash_sha512_update:inlen <- $rdx
	#DEBUG_VALUE: crypto_hash_sha512_update:r <- $eax
	#DEBUG_VALUE: crypto_hash_sha512_update:bitlen <- [DW_OP_LLVM_fragment 0 64] $rdi
	#DEBUG_VALUE: crypto_hash_sha512_update:i <- 0
	.loc	3 235 33                        # crypto_hash/sha512/cp/hash_sha512_cp.c:235:33
	movups	32(%rbx), %xmm0
	movups	48(%rbx), %xmm1
	.loc	3 235 31 is_stmt 0              # crypto_hash/sha512/cp/hash_sha512_cp.c:235:31
	movups	%xmm0, 32(%rax,%r15)
	movups	%xmm1, 48(%rax,%r15)
.Ltmp85:
	.loc	3 234 33 is_stmt 1              # crypto_hash/sha512/cp/hash_sha512_cp.c:234:33
	cmpq	$64, %rcx
	je	.LBB1_42
.Ltmp86:
# %bb.41:                               # %vector.body114.2
	#DEBUG_VALUE: crypto_hash_sha512_update:state <- $r14
	#DEBUG_VALUE: crypto_hash_sha512_update:in <- $rbx
	#DEBUG_VALUE: crypto_hash_sha512_update:inlen <- $rdx
	#DEBUG_VALUE: crypto_hash_sha512_update:r <- $eax
	#DEBUG_VALUE: crypto_hash_sha512_update:bitlen <- [DW_OP_LLVM_fragment 0 64] $rdi
	#DEBUG_VALUE: crypto_hash_sha512_update:i <- 0
	.loc	3 235 33                        # crypto_hash/sha512/cp/hash_sha512_cp.c:235:33
	movups	64(%rbx), %xmm0
	movups	80(%rbx), %xmm1
	.loc	3 235 31 is_stmt 0              # crypto_hash/sha512/cp/hash_sha512_cp.c:235:31
	movups	%xmm0, 64(%rax,%r15)
	movups	%xmm1, 80(%rax,%r15)
.Ltmp87:
.LBB1_42:                               # %middle.block119
	#DEBUG_VALUE: crypto_hash_sha512_update:state <- $r14
	#DEBUG_VALUE: crypto_hash_sha512_update:in <- $rbx
	#DEBUG_VALUE: crypto_hash_sha512_update:inlen <- $rdx
	#DEBUG_VALUE: crypto_hash_sha512_update:r <- $eax
	#DEBUG_VALUE: crypto_hash_sha512_update:bitlen <- [DW_OP_LLVM_fragment 0 64] $rdi
	#DEBUG_VALUE: crypto_hash_sha512_update:i <- 0
	.loc	3 234 9 is_stmt 1               # crypto_hash/sha512/cp/hash_sha512_cp.c:234:9
	cmpq	%rcx, %rdx
	je	.LBB1_53
.Ltmp88:
# %bb.43:                               # %vec.epilog.iter.check124
	#DEBUG_VALUE: crypto_hash_sha512_update:state <- $r14
	#DEBUG_VALUE: crypto_hash_sha512_update:in <- $rbx
	#DEBUG_VALUE: crypto_hash_sha512_update:inlen <- $rdx
	#DEBUG_VALUE: crypto_hash_sha512_update:r <- $eax
	#DEBUG_VALUE: crypto_hash_sha512_update:bitlen <- [DW_OP_LLVM_fragment 0 64] $rdi
	#DEBUG_VALUE: crypto_hash_sha512_update:i <- 0
	testb	$28, %dl
	je	.LBB1_47
.Ltmp89:
.LBB1_44:                               # %vec.epilog.ph123
	#DEBUG_VALUE: crypto_hash_sha512_update:state <- $r14
	#DEBUG_VALUE: crypto_hash_sha512_update:in <- $rbx
	#DEBUG_VALUE: crypto_hash_sha512_update:inlen <- $rdx
	#DEBUG_VALUE: crypto_hash_sha512_update:r <- $eax
	#DEBUG_VALUE: crypto_hash_sha512_update:bitlen <- [DW_OP_LLVM_fragment 0 64] $rdi
	#DEBUG_VALUE: crypto_hash_sha512_update:i <- 0
	.loc	3 0 9 is_stmt 0                 # crypto_hash/sha512/cp/hash_sha512_cp.c:0:9
	movq	%rcx, %rsi
	.loc	3 234 9                         # crypto_hash/sha512/cp/hash_sha512_cp.c:234:9
	movq	%rdx, %rcx
	andq	$-4, %rcx
	leaq	(%rax,%r14), %rdi
.Ltmp90:
	addq	$80, %rdi
.Ltmp91:
	.loc	3 0 9                           # :0:9
.Ltmp92:
	.p2align	4
.LBB1_45:                               # %vec.epilog.vector.body129
                                        # =>This Inner Loop Header: Depth=1
	#DEBUG_VALUE: crypto_hash_sha512_update:state <- $r14
	#DEBUG_VALUE: crypto_hash_sha512_update:in <- $rbx
	#DEBUG_VALUE: crypto_hash_sha512_update:inlen <- $rdx
	#DEBUG_VALUE: crypto_hash_sha512_update:r <- $eax
	#DEBUG_VALUE: crypto_hash_sha512_update:i <- 0
	.loc	3 235 33 is_stmt 1              # crypto_hash/sha512/cp/hash_sha512_cp.c:235:33
	movl	(%rbx,%rsi), %r8d
	.loc	3 235 31 is_stmt 0              # crypto_hash/sha512/cp/hash_sha512_cp.c:235:31
	movl	%r8d, (%rdi,%rsi)
.Ltmp93:
	.loc	3 234 33 is_stmt 1              # crypto_hash/sha512/cp/hash_sha512_cp.c:234:33
	addq	$4, %rsi
	cmpq	%rsi, %rcx
	jne	.LBB1_45
.Ltmp94:
# %bb.46:                               # %vec.epilog.middle.block133
	#DEBUG_VALUE: crypto_hash_sha512_update:state <- $r14
	#DEBUG_VALUE: crypto_hash_sha512_update:in <- $rbx
	#DEBUG_VALUE: crypto_hash_sha512_update:inlen <- $rdx
	#DEBUG_VALUE: crypto_hash_sha512_update:r <- $eax
	#DEBUG_VALUE: crypto_hash_sha512_update:i <- 0
	.loc	3 234 9 is_stmt 0               # crypto_hash/sha512/cp/hash_sha512_cp.c:234:9
	cmpq	%rcx, %rdx
	je	.LBB1_53
	jmp	.LBB1_47
.Ltmp95:
.LBB1_30:                               # %vector.ph
	#DEBUG_VALUE: crypto_hash_sha512_update:state <- $r14
	#DEBUG_VALUE: crypto_hash_sha512_update:in <- $rbx
	#DEBUG_VALUE: crypto_hash_sha512_update:inlen <- $rdx
	#DEBUG_VALUE: crypto_hash_sha512_update:r <- $eax
	#DEBUG_VALUE: crypto_hash_sha512_update:bitlen <- [DW_OP_LLVM_fragment 0 64] $rdi
	#DEBUG_VALUE: crypto_hash_sha512_update:i <- 0
	.loc	3 239 5 is_stmt 1               # crypto_hash/sha512/cp/hash_sha512_cp.c:239:5
	movl	%r13d, %ecx
	andl	$-32, %ecx
.Ltmp96:
	.loc	3 240 29                        # crypto_hash/sha512/cp/hash_sha512_cp.c:240:29
	movups	(%rbx), %xmm0
	movups	16(%rbx), %xmm1
	.loc	3 240 27 is_stmt 0              # crypto_hash/sha512/cp/hash_sha512_cp.c:240:27
	movups	%xmm0, (%r15,%rax)
	movups	%xmm1, 16(%r15,%rax)
.Ltmp97:
	.loc	3 239 31 is_stmt 1              # crypto_hash/sha512/cp/hash_sha512_cp.c:239:31
	cmpq	$32, %rcx
	je	.LBB1_34
.Ltmp98:
# %bb.31:                               # %vector.body.1
	#DEBUG_VALUE: crypto_hash_sha512_update:state <- $r14
	#DEBUG_VALUE: crypto_hash_sha512_update:in <- $rbx
	#DEBUG_VALUE: crypto_hash_sha512_update:inlen <- $rdx
	#DEBUG_VALUE: crypto_hash_sha512_update:r <- $eax
	#DEBUG_VALUE: crypto_hash_sha512_update:bitlen <- [DW_OP_LLVM_fragment 0 64] $rdi
	#DEBUG_VALUE: crypto_hash_sha512_update:i <- 0
	.loc	3 240 29                        # crypto_hash/sha512/cp/hash_sha512_cp.c:240:29
	movups	32(%rbx), %xmm0
	movups	48(%rbx), %xmm1
	.loc	3 240 27 is_stmt 0              # crypto_hash/sha512/cp/hash_sha512_cp.c:240:27
	movups	%xmm0, 32(%rax,%r15)
	movups	%xmm1, 48(%rax,%r15)
.Ltmp99:
	.loc	3 239 31 is_stmt 1              # crypto_hash/sha512/cp/hash_sha512_cp.c:239:31
	cmpl	$64, %ecx
	je	.LBB1_34
.Ltmp100:
# %bb.32:                               # %vector.body.2
	#DEBUG_VALUE: crypto_hash_sha512_update:state <- $r14
	#DEBUG_VALUE: crypto_hash_sha512_update:in <- $rbx
	#DEBUG_VALUE: crypto_hash_sha512_update:inlen <- $rdx
	#DEBUG_VALUE: crypto_hash_sha512_update:r <- $eax
	#DEBUG_VALUE: crypto_hash_sha512_update:bitlen <- [DW_OP_LLVM_fragment 0 64] $rdi
	#DEBUG_VALUE: crypto_hash_sha512_update:i <- 0
	.loc	3 240 29                        # crypto_hash/sha512/cp/hash_sha512_cp.c:240:29
	movups	64(%rbx), %xmm0
	movups	80(%rbx), %xmm1
	.loc	3 240 27 is_stmt 0              # crypto_hash/sha512/cp/hash_sha512_cp.c:240:27
	movups	%xmm0, 64(%rax,%r15)
	movups	%xmm1, 80(%rax,%r15)
.Ltmp101:
	.loc	3 239 31 is_stmt 1              # crypto_hash/sha512/cp/hash_sha512_cp.c:239:31
	cmpl	$96, %ecx
	je	.LBB1_34
.Ltmp102:
# %bb.33:                               # %vector.body.3
	#DEBUG_VALUE: crypto_hash_sha512_update:state <- $r14
	#DEBUG_VALUE: crypto_hash_sha512_update:in <- $rbx
	#DEBUG_VALUE: crypto_hash_sha512_update:inlen <- $rdx
	#DEBUG_VALUE: crypto_hash_sha512_update:r <- $eax
	#DEBUG_VALUE: crypto_hash_sha512_update:bitlen <- [DW_OP_LLVM_fragment 0 64] $rdi
	#DEBUG_VALUE: crypto_hash_sha512_update:i <- 0
	.loc	3 240 29                        # crypto_hash/sha512/cp/hash_sha512_cp.c:240:29
	movups	96(%rbx), %xmm0
	movups	112(%rbx), %xmm1
	.loc	3 240 27 is_stmt 0              # crypto_hash/sha512/cp/hash_sha512_cp.c:240:27
	movups	%xmm0, 96(%rax,%r15)
	movups	%xmm1, 112(%rax,%r15)
.Ltmp103:
.LBB1_34:                               # %middle.block
	#DEBUG_VALUE: crypto_hash_sha512_update:state <- $r14
	#DEBUG_VALUE: crypto_hash_sha512_update:in <- $rbx
	#DEBUG_VALUE: crypto_hash_sha512_update:inlen <- $rdx
	#DEBUG_VALUE: crypto_hash_sha512_update:r <- $eax
	#DEBUG_VALUE: crypto_hash_sha512_update:bitlen <- [DW_OP_LLVM_fragment 0 64] $rdi
	#DEBUG_VALUE: crypto_hash_sha512_update:i <- 0
	.loc	3 239 5 is_stmt 1               # crypto_hash/sha512/cp/hash_sha512_cp.c:239:5
	cmpl	%ecx, %r13d
	je	.LBB1_9
.Ltmp104:
# %bb.35:                               # %vec.epilog.iter.check
	#DEBUG_VALUE: crypto_hash_sha512_update:state <- $r14
	#DEBUG_VALUE: crypto_hash_sha512_update:in <- $rbx
	#DEBUG_VALUE: crypto_hash_sha512_update:inlen <- $rdx
	#DEBUG_VALUE: crypto_hash_sha512_update:r <- $eax
	#DEBUG_VALUE: crypto_hash_sha512_update:bitlen <- [DW_OP_LLVM_fragment 0 64] $rdi
	#DEBUG_VALUE: crypto_hash_sha512_update:i <- 0
	testb	$28, %r13b
	je	.LBB1_7
.Ltmp105:
.LBB1_36:                               # %vec.epilog.ph
	#DEBUG_VALUE: crypto_hash_sha512_update:state <- $r14
	#DEBUG_VALUE: crypto_hash_sha512_update:in <- $rbx
	#DEBUG_VALUE: crypto_hash_sha512_update:inlen <- $rdx
	#DEBUG_VALUE: crypto_hash_sha512_update:r <- $eax
	#DEBUG_VALUE: crypto_hash_sha512_update:bitlen <- [DW_OP_LLVM_fragment 0 64] $rdi
	#DEBUG_VALUE: crypto_hash_sha512_update:i <- 0
	.loc	3 0 5 is_stmt 0                 # crypto_hash/sha512/cp/hash_sha512_cp.c:0:5
	movq	%rcx, %rdx
.Ltmp106:
	#DEBUG_VALUE: crypto_hash_sha512_update:inlen <- [DW_OP_LLVM_entry_value 1] $rdx
	.loc	3 239 5                         # crypto_hash/sha512/cp/hash_sha512_cp.c:239:5
	movl	%r13d, %ecx
	andl	$-4, %ecx
	leaq	(%rax,%r14), %rsi
	addq	$80, %rsi
.Ltmp107:
	.loc	3 0 5                           # :0:5
.Ltmp108:
	.p2align	4
.LBB1_37:                               # %vec.epilog.vector.body
                                        # =>This Inner Loop Header: Depth=1
	#DEBUG_VALUE: crypto_hash_sha512_update:state <- $r14
	#DEBUG_VALUE: crypto_hash_sha512_update:in <- $rbx
	#DEBUG_VALUE: crypto_hash_sha512_update:inlen <- [DW_OP_LLVM_entry_value 1] $rdx
	#DEBUG_VALUE: crypto_hash_sha512_update:r <- $eax
	#DEBUG_VALUE: crypto_hash_sha512_update:i <- 0
	.loc	3 240 29 is_stmt 1              # crypto_hash/sha512/cp/hash_sha512_cp.c:240:29
	movl	(%rbx,%rdx), %edi
	.loc	3 240 27 is_stmt 0              # crypto_hash/sha512/cp/hash_sha512_cp.c:240:27
	movl	%edi, (%rsi,%rdx)
.Ltmp109:
	.loc	3 239 31 is_stmt 1              # crypto_hash/sha512/cp/hash_sha512_cp.c:239:31
	addq	$4, %rdx
	cmpq	%rdx, %rcx
	jne	.LBB1_37
.Ltmp110:
# %bb.38:                               # %vec.epilog.middle.block
	#DEBUG_VALUE: crypto_hash_sha512_update:state <- $r14
	#DEBUG_VALUE: crypto_hash_sha512_update:in <- $rbx
	#DEBUG_VALUE: crypto_hash_sha512_update:inlen <- [DW_OP_LLVM_entry_value 1] $rdx
	#DEBUG_VALUE: crypto_hash_sha512_update:r <- $eax
	#DEBUG_VALUE: crypto_hash_sha512_update:i <- 0
	.loc	3 239 5 is_stmt 0               # crypto_hash/sha512/cp/hash_sha512_cp.c:239:5
	cmpl	%ecx, %r13d
	jne	.LBB1_7
	jmp	.LBB1_9
.Ltmp111:
.LBB1_55:                               # %vector.ph79
	#DEBUG_VALUE: crypto_hash_sha512_update:state <- $r14
	#DEBUG_VALUE: crypto_hash_sha512_update:in <- $rbx
	#DEBUG_VALUE: crypto_hash_sha512_update:i <- 0
	.loc	3 252 5 is_stmt 1               # crypto_hash/sha512/cp/hash_sha512_cp.c:252:5
	movl	%ebp, %eax
	andl	$112, %eax
.Ltmp112:
	.loc	3 253 25                        # crypto_hash/sha512/cp/hash_sha512_cp.c:253:25
	movups	(%rbx), %xmm0
	.loc	3 253 23 is_stmt 0              # crypto_hash/sha512/cp/hash_sha512_cp.c:253:23
	movups	%xmm0, 80(%r14)
.Ltmp113:
	.loc	3 252 29 is_stmt 1              # crypto_hash/sha512/cp/hash_sha512_cp.c:252:29
	cmpq	$16, %rax
	je	.LBB1_62
.Ltmp114:
# %bb.56:                               # %vector.body82.1
	#DEBUG_VALUE: crypto_hash_sha512_update:state <- $r14
	#DEBUG_VALUE: crypto_hash_sha512_update:in <- $rbx
	#DEBUG_VALUE: crypto_hash_sha512_update:i <- 0
	.loc	3 253 25                        # crypto_hash/sha512/cp/hash_sha512_cp.c:253:25
	movups	16(%rbx), %xmm0
	.loc	3 253 23 is_stmt 0              # crypto_hash/sha512/cp/hash_sha512_cp.c:253:23
	movups	%xmm0, 96(%r14)
.Ltmp115:
	.loc	3 252 29 is_stmt 1              # crypto_hash/sha512/cp/hash_sha512_cp.c:252:29
	cmpl	$32, %eax
	je	.LBB1_62
.Ltmp116:
# %bb.57:                               # %vector.body82.2
	#DEBUG_VALUE: crypto_hash_sha512_update:state <- $r14
	#DEBUG_VALUE: crypto_hash_sha512_update:in <- $rbx
	#DEBUG_VALUE: crypto_hash_sha512_update:i <- 0
	.loc	3 253 25                        # crypto_hash/sha512/cp/hash_sha512_cp.c:253:25
	movups	32(%rbx), %xmm0
	.loc	3 253 23 is_stmt 0              # crypto_hash/sha512/cp/hash_sha512_cp.c:253:23
	movups	%xmm0, 112(%r14)
.Ltmp117:
	.loc	3 252 29 is_stmt 1              # crypto_hash/sha512/cp/hash_sha512_cp.c:252:29
	cmpl	$48, %eax
	je	.LBB1_62
.Ltmp118:
# %bb.58:                               # %vector.body82.3
	#DEBUG_VALUE: crypto_hash_sha512_update:state <- $r14
	#DEBUG_VALUE: crypto_hash_sha512_update:in <- $rbx
	#DEBUG_VALUE: crypto_hash_sha512_update:i <- 0
	.loc	3 253 25                        # crypto_hash/sha512/cp/hash_sha512_cp.c:253:25
	movups	48(%rbx), %xmm0
	.loc	3 253 23 is_stmt 0              # crypto_hash/sha512/cp/hash_sha512_cp.c:253:23
	movups	%xmm0, 128(%r14)
.Ltmp119:
	.loc	3 252 29 is_stmt 1              # crypto_hash/sha512/cp/hash_sha512_cp.c:252:29
	cmpl	$64, %eax
	je	.LBB1_62
.Ltmp120:
# %bb.59:                               # %vector.body82.4
	#DEBUG_VALUE: crypto_hash_sha512_update:state <- $r14
	#DEBUG_VALUE: crypto_hash_sha512_update:in <- $rbx
	#DEBUG_VALUE: crypto_hash_sha512_update:i <- 0
	.loc	3 253 25                        # crypto_hash/sha512/cp/hash_sha512_cp.c:253:25
	movups	64(%rbx), %xmm0
	.loc	3 253 23 is_stmt 0              # crypto_hash/sha512/cp/hash_sha512_cp.c:253:23
	movups	%xmm0, 144(%r14)
.Ltmp121:
	.loc	3 252 29 is_stmt 1              # crypto_hash/sha512/cp/hash_sha512_cp.c:252:29
	cmpl	$80, %eax
	je	.LBB1_62
.Ltmp122:
# %bb.60:                               # %vector.body82.5
	#DEBUG_VALUE: crypto_hash_sha512_update:state <- $r14
	#DEBUG_VALUE: crypto_hash_sha512_update:in <- $rbx
	#DEBUG_VALUE: crypto_hash_sha512_update:i <- 0
	.loc	3 253 25                        # crypto_hash/sha512/cp/hash_sha512_cp.c:253:25
	movups	80(%rbx), %xmm0
	.loc	3 253 23 is_stmt 0              # crypto_hash/sha512/cp/hash_sha512_cp.c:253:23
	movups	%xmm0, 160(%r14)
.Ltmp123:
	.loc	3 252 29 is_stmt 1              # crypto_hash/sha512/cp/hash_sha512_cp.c:252:29
	cmpl	$96, %eax
	je	.LBB1_62
.Ltmp124:
# %bb.61:                               # %vector.body82.6
	#DEBUG_VALUE: crypto_hash_sha512_update:state <- $r14
	#DEBUG_VALUE: crypto_hash_sha512_update:in <- $rbx
	#DEBUG_VALUE: crypto_hash_sha512_update:i <- 0
	.loc	3 253 25                        # crypto_hash/sha512/cp/hash_sha512_cp.c:253:25
	movups	96(%rbx), %xmm0
	.loc	3 253 23 is_stmt 0              # crypto_hash/sha512/cp/hash_sha512_cp.c:253:23
	movups	%xmm0, 176(%r14)
.Ltmp125:
.LBB1_62:                               # %middle.block87
	#DEBUG_VALUE: crypto_hash_sha512_update:state <- $r14
	#DEBUG_VALUE: crypto_hash_sha512_update:in <- $rbx
	#DEBUG_VALUE: crypto_hash_sha512_update:i <- 0
	.loc	3 252 5 is_stmt 1               # crypto_hash/sha512/cp/hash_sha512_cp.c:252:5
	cmpq	%rax, %rbp
	je	.LBB1_21
.Ltmp126:
# %bb.63:                               # %vec.epilog.iter.check92
	#DEBUG_VALUE: crypto_hash_sha512_update:state <- $r14
	#DEBUG_VALUE: crypto_hash_sha512_update:in <- $rbx
	#DEBUG_VALUE: crypto_hash_sha512_update:i <- 0
	testb	$12, %bpl
	je	.LBB1_16
.Ltmp127:
.LBB1_64:                               # %vec.epilog.ph91
	#DEBUG_VALUE: crypto_hash_sha512_update:state <- $r14
	#DEBUG_VALUE: crypto_hash_sha512_update:in <- $rbx
	#DEBUG_VALUE: crypto_hash_sha512_update:i <- 0
	.loc	3 0 5 is_stmt 0                 # crypto_hash/sha512/cp/hash_sha512_cp.c:0:5
	movq	%rax, %rcx
	.loc	3 252 5                         # crypto_hash/sha512/cp/hash_sha512_cp.c:252:5
	movl	%ebp, %eax
	andl	$124, %eax
.Ltmp128:
	.loc	3 0 5                           # :0:5
.Ltmp129:
	.p2align	4
.LBB1_65:                               # %vec.epilog.vector.body97
                                        # =>This Inner Loop Header: Depth=1
	#DEBUG_VALUE: crypto_hash_sha512_update:state <- $r14
	#DEBUG_VALUE: crypto_hash_sha512_update:in <- $rbx
	#DEBUG_VALUE: crypto_hash_sha512_update:i <- 0
	.loc	3 253 25 is_stmt 1              # crypto_hash/sha512/cp/hash_sha512_cp.c:253:25
	movl	(%rbx,%rcx), %edx
	.loc	3 253 23 is_stmt 0              # crypto_hash/sha512/cp/hash_sha512_cp.c:253:23
	movl	%edx, (%r15,%rcx)
.Ltmp130:
	.loc	3 252 29 is_stmt 1              # crypto_hash/sha512/cp/hash_sha512_cp.c:252:29
	addq	$4, %rcx
	cmpq	%rcx, %rax
	jne	.LBB1_65
.Ltmp131:
# %bb.66:                               # %vec.epilog.middle.block101
	#DEBUG_VALUE: crypto_hash_sha512_update:state <- $r14
	#DEBUG_VALUE: crypto_hash_sha512_update:in <- $rbx
	#DEBUG_VALUE: crypto_hash_sha512_update:i <- 0
	.loc	3 252 5 is_stmt 0               # crypto_hash/sha512/cp/hash_sha512_cp.c:252:5
	cmpq	%rax, %rbp
	jne	.LBB1_16
	jmp	.LBB1_21
.Ltmp132:
.Lfunc_end1:
	.size	crypto_hash_sha512_update, .Lfunc_end1-crypto_hash_sha512_update
	.cfi_endproc
	.file	6 "./include/sodium" "utils.h"
                                        # -- End function
	.p2align	4                               # -- Begin function SHA512_Transform
	.type	SHA512_Transform,@function
SHA512_Transform:                       # @SHA512_Transform
.Lfunc_begin2:
	.loc	3 116 0 is_stmt 1               # crypto_hash/sha512/cp/hash_sha512_cp.c:116:0
	.cfi_startproc
# %bb.0:
	#DEBUG_VALUE: SHA512_Transform:state <- $rdi
	#DEBUG_VALUE: SHA512_Transform:block <- $rsi
	#DEBUG_VALUE: SHA512_Transform:W <- $rdx
	#DEBUG_VALUE: SHA512_Transform:S <- $rcx
	#DEBUG_VALUE: be64dec_vect:dst <- $rdx
	#DEBUG_VALUE: be64dec_vect:src <- $rsi
	pushq	%rbp
	.cfi_def_cfa_offset 16
	pushq	%r15
	.cfi_def_cfa_offset 24
	pushq	%r14
	.cfi_def_cfa_offset 32
	pushq	%r13
	.cfi_def_cfa_offset 40
	pushq	%r12
	.cfi_def_cfa_offset 48
	pushq	%rbx
	.cfi_def_cfa_offset 56
	.cfi_offset %rbx, -56
	.cfi_offset %r12, -48
	.cfi_offset %r13, -40
	.cfi_offset %r14, -32
	.cfi_offset %r15, -24
	.cfi_offset %rbp, -16
	movq	%rcx, -40(%rsp)                 # 8-byte Spill
.Ltmp133:
	#DEBUG_VALUE: SHA512_Transform:S <- [DW_OP_constu 40, DW_OP_minus] [$rsp+0]
	movq	%rdx, -48(%rsp)                 # 8-byte Spill
	#DEBUG_VALUE: be64dec_vect:dst <- [DW_OP_constu 48, DW_OP_minus] [$rsp+0]
.Ltmp134:
	#DEBUG_VALUE: SHA512_Transform:W <- [DW_OP_constu 48, DW_OP_minus] [$rsp+0]
	xorl	%eax, %eax
	#DEBUG_VALUE: be64dec_vect:len <- 128
	#DEBUG_VALUE: be64dec_vect:i <- 0
	movq	-48(%rsp), %rdx                 # 8-byte Reload
.Ltmp135:
	.loc	3 0 0 is_stmt 0                 # :0:0
.Ltmp136:
	.p2align	4
.LBB2_1:                                # =>This Inner Loop Header: Depth=1
	#DEBUG_VALUE: SHA512_Transform:state <- $rdi
	#DEBUG_VALUE: SHA512_Transform:block <- $rsi
	#DEBUG_VALUE: SHA512_Transform:W <- [DW_OP_constu 48, DW_OP_minus] [$rsp+0]
	#DEBUG_VALUE: SHA512_Transform:S <- [DW_OP_constu 40, DW_OP_minus] [$rsp+0]
	#DEBUG_VALUE: be64dec_vect:dst <- [DW_OP_constu 48, DW_OP_minus] [$rsp+0]
	#DEBUG_VALUE: be64dec_vect:src <- $rsi
	#DEBUG_VALUE: be64dec_vect:len <- 128
	#DEBUG_VALUE: be64dec_vect:i <- $rax
	#DEBUG_VALUE: load64_be:src <- [DW_OP_LLVM_arg 0, DW_OP_LLVM_arg 1, DW_OP_constu 3, DW_OP_shl, DW_OP_plus, DW_OP_stack_value] $rsi, $rax
	#DEBUG_VALUE: load64_be:w <- undef
	.file	7 "./include/sodium/private" "common.h"
	.loc	7 149 7 prologue_end is_stmt 1  # ./include/sodium/private/common.h:149:7 @[ crypto_hash/sha512/cp/hash_sha512_cp.c:56:18 @[ crypto_hash/sha512/cp/hash_sha512_cp.c:119:5 ] ]
	movq	(%rsi,%rax,8), %rcx
	bswapq	%rcx
.Ltmp137:
	#DEBUG_VALUE: load64_be:w <- $rcx
	.loc	3 56 16                         # crypto_hash/sha512/cp/hash_sha512_cp.c:56:16 @[ crypto_hash/sha512/cp/hash_sha512_cp.c:119:5 ]
	movq	%rcx, (%rdx,%rax,8)
.Ltmp138:
	.loc	3 55 31                         # crypto_hash/sha512/cp/hash_sha512_cp.c:55:31 @[ crypto_hash/sha512/cp/hash_sha512_cp.c:119:5 ]
	incq	%rax
.Ltmp139:
	#DEBUG_VALUE: be64dec_vect:i <- $rax
	.loc	3 55 19 is_stmt 0               # crypto_hash/sha512/cp/hash_sha512_cp.c:55:19 @[ crypto_hash/sha512/cp/hash_sha512_cp.c:119:5 ]
	cmpq	$16, %rax
.Ltmp140:
	.loc	3 55 5                          # crypto_hash/sha512/cp/hash_sha512_cp.c:55:5 @[ crypto_hash/sha512/cp/hash_sha512_cp.c:119:5 ]
	jne	.LBB2_1
.Ltmp141:
# %bb.2:                                # %be64dec_vect.exit
	#DEBUG_VALUE: SHA512_Transform:state <- $rdi
	#DEBUG_VALUE: SHA512_Transform:block <- $rsi
	#DEBUG_VALUE: SHA512_Transform:W <- [DW_OP_constu 48, DW_OP_minus] [$rsp+0]
	#DEBUG_VALUE: SHA512_Transform:S <- [DW_OP_constu 40, DW_OP_minus] [$rsp+0]
	#DEBUG_VALUE: memcpy:__dest <- [DW_OP_constu 40, DW_OP_minus, DW_OP_deref] $rsp
	#DEBUG_VALUE: memcpy:__src <- $rdi
	#DEBUG_VALUE: memcpy:__len <- 64
	.loc	4 29 10 is_stmt 1               # /usr/include/x86_64-linux-gnu/bits/string_fortified.h:29:10 @[ crypto_hash/sha512/cp/hash_sha512_cp.c:120:5 ]
	movups	(%rdi), %xmm0
	movups	16(%rdi), %xmm1
	movups	32(%rdi), %xmm2
	movq	%rdi, -16(%rsp)                 # 8-byte Spill
.Ltmp142:
	#DEBUG_VALUE: memcpy:__src <- [DW_OP_constu 16, DW_OP_minus, DW_OP_deref] $rsp
	#DEBUG_VALUE: SHA512_Transform:state <- [DW_OP_constu 16, DW_OP_minus] [$rsp+0]
	movups	48(%rdi), %xmm3
	movq	-40(%rsp), %rax                 # 8-byte Reload
	movups	%xmm3, 48(%rax)
	movups	%xmm2, 32(%rax)
	movups	%xmm1, 16(%rax)
	movups	%xmm0, (%rax)
	movq	$0, -32(%rsp)                   # 8-byte Folded Spill
.Ltmp143:
	#DEBUG_VALUE: SHA512_Transform:i <- 0
	.loc	4 0 10 is_stmt 0                # :0:10
.Ltmp144:
	.p2align	4
.LBB2_3:                                # =>This Inner Loop Header: Depth=1
	#DEBUG_VALUE: SHA512_Transform:state <- [DW_OP_constu 16, DW_OP_minus] [$rsp+0]
	#DEBUG_VALUE: SHA512_Transform:block <- [DW_OP_LLVM_entry_value 1] $rsi
	#DEBUG_VALUE: SHA512_Transform:W <- [DW_OP_constu 48, DW_OP_minus] [$rsp+0]
	#DEBUG_VALUE: SHA512_Transform:S <- [DW_OP_constu 40, DW_OP_minus] [$rsp+0]
	#DEBUG_VALUE: SHA512_Transform:i <- [DW_OP_constu 32, DW_OP_minus, DW_OP_deref_size 8, DW_OP_stack_value] $rsp
	movq	-40(%rsp), %rbp                 # 8-byte Reload
.Ltmp145:
	.loc	3 122 37 is_stmt 1              # crypto_hash/sha512/cp/hash_sha512_cp.c:122:37
	movq	32(%rbp), %r14
.Ltmp146:
	#DEBUG_VALUE: rotr64:x <- $r14
	#DEBUG_VALUE: rotr64:b <- 14
	.loc	7 58 21                         # ./include/sodium/private/common.h:58:21 @[ crypto_hash/sha512/cp/hash_sha512_cp.c:122:29 ]
	movq	%r14, %rax
	rolq	$50, %rax
.Ltmp147:
	#DEBUG_VALUE: rotr64:x <- $r14
	#DEBUG_VALUE: rotr64:b <- 18
	.loc	7 58 21 is_stmt 0               # ./include/sodium/private/common.h:58:21 @[ crypto_hash/sha512/cp/hash_sha512_cp.c:122:63 ]
	movq	%r14, %rcx
	rolq	$46, %rcx
.Ltmp148:
	.loc	3 122 61 is_stmt 1              # crypto_hash/sha512/cp/hash_sha512_cp.c:122:61
	xorq	%rax, %rcx
.Ltmp149:
	#DEBUG_VALUE: rotr64:x <- $r14
	#DEBUG_VALUE: rotr64:b <- 41
	.loc	7 58 21                         # ./include/sodium/private/common.h:58:21 @[ crypto_hash/sha512/cp/hash_sha512_cp.c:122:97 ]
	movq	%r14, %r9
	rolq	$23, %r9
.Ltmp150:
	.loc	3 122 95                        # crypto_hash/sha512/cp/hash_sha512_cp.c:122:95
	xorq	%rcx, %r9
	.loc	3 122 153 is_stmt 0             # crypto_hash/sha512/cp/hash_sha512_cp.c:122:153
	movq	40(%rbp), %rdi
	.loc	3 122 171                       # crypto_hash/sha512/cp/hash_sha512_cp.c:122:171
	movq	48(%rbp), %rax
	.loc	3 122 169                       # crypto_hash/sha512/cp/hash_sha512_cp.c:122:169
	movq	%rax, %rcx
	xorq	%rdi, %rcx
	.loc	3 122 150                       # crypto_hash/sha512/cp/hash_sha512_cp.c:122:150
	andq	%r14, %rcx
	movq	-48(%rsp), %r12                 # 8-byte Reload
	movq	-32(%rsp), %rdx                 # 8-byte Reload
	.loc	3 122 130                       # crypto_hash/sha512/cp/hash_sha512_cp.c:122:130
	addq	(%r12,%rdx,8), %r9
	leaq	Krnd(%rip), %rsi
	.loc	3 122 208                       # crypto_hash/sha512/cp/hash_sha512_cp.c:122:208
	addq	(%rsi,%rdx,8), %r9
	.loc	3 122 189                       # crypto_hash/sha512/cp/hash_sha512_cp.c:122:189
	xorq	%rax, %rcx
	.loc	3 122 219                       # crypto_hash/sha512/cp/hash_sha512_cp.c:122:219
	addq	%rcx, %r9
	.loc	3 122 25                        # crypto_hash/sha512/cp/hash_sha512_cp.c:122:25
	addq	56(%rbp), %r9
	movq	24(%rbp), %rsi
	.loc	3 122 250                       # crypto_hash/sha512/cp/hash_sha512_cp.c:122:250
	addq	%r9, %rsi
	movq	%rsi, 24(%rbp)
	.loc	3 122 298                       # crypto_hash/sha512/cp/hash_sha512_cp.c:122:298
	movq	(%rbp), %r13
.Ltmp151:
	#DEBUG_VALUE: rotr64:x <- $r13
	.loc	7 58 21 is_stmt 1               # ./include/sodium/private/common.h:58:21 @[ crypto_hash/sha512/cp/hash_sha512_cp.c:122:290 ]
	movq	%r13, %rcx
	rolq	$36, %rcx
.Ltmp152:
	#DEBUG_VALUE: rotr64:b <- 34
	#DEBUG_VALUE: rotr64:x <- $r13
	.loc	3 122 414                       # crypto_hash/sha512/cp/hash_sha512_cp.c:122:414
	movq	8(%rbp), %r8
	#DEBUG_VALUE: rotr64:b <- 28
.Ltmp153:
	.loc	7 58 21                         # ./include/sodium/private/common.h:58:21 @[ crypto_hash/sha512/cp/hash_sha512_cp.c:122:324 ]
	movq	%r13, %r10
	rolq	$30, %r10
.Ltmp154:
	.loc	3 122 322                       # crypto_hash/sha512/cp/hash_sha512_cp.c:122:322
	xorq	%rcx, %r10
.Ltmp155:
	#DEBUG_VALUE: rotr64:b <- 39
	#DEBUG_VALUE: rotr64:x <- $r13
	.loc	7 58 21                         # ./include/sodium/private/common.h:58:21 @[ crypto_hash/sha512/cp/hash_sha512_cp.c:122:358 ]
	movq	%r13, %rcx
	rolq	$25, %rcx
.Ltmp156:
	.loc	3 122 356                       # crypto_hash/sha512/cp/hash_sha512_cp.c:122:356
	xorq	%r10, %rcx
	.loc	3 122 432 is_stmt 0             # crypto_hash/sha512/cp/hash_sha512_cp.c:122:432
	movq	16(%rbp), %rbx
	.loc	3 122 430                       # crypto_hash/sha512/cp/hash_sha512_cp.c:122:430
	movq	%rbx, %r11
	orq	%r8, %r11
	.loc	3 122 411                       # crypto_hash/sha512/cp/hash_sha512_cp.c:122:411
	andq	%r13, %r11
	.loc	3 122 469                       # crypto_hash/sha512/cp/hash_sha512_cp.c:122:469
	movq	%rbx, %r10
	andq	%r8, %r10
	.loc	3 122 450                       # crypto_hash/sha512/cp/hash_sha512_cp.c:122:450
	orq	%r11, %r10
	.loc	3 122 391                       # crypto_hash/sha512/cp/hash_sha512_cp.c:122:391
	addq	%rcx, %r10
.Ltmp157:
	#DEBUG_VALUE: rotr64:x <- undef
	#DEBUG_VALUE: rotr64:b <- 14
	.loc	7 58 21 is_stmt 1               # ./include/sodium/private/common.h:58:21 @[ crypto_hash/sha512/cp/hash_sha512_cp.c:123:29 ]
	movq	%rsi, %rcx
	rolq	$50, %rcx
.Ltmp158:
	#DEBUG_VALUE: rotr64:x <- undef
	#DEBUG_VALUE: rotr64:b <- 18
	.loc	3 122 286                       # crypto_hash/sha512/cp/hash_sha512_cp.c:122:286
	addq	%r9, %r10
.Ltmp159:
	.loc	7 58 21                         # ./include/sodium/private/common.h:58:21 @[ crypto_hash/sha512/cp/hash_sha512_cp.c:123:63 ]
	movq	%rsi, %r9
	rolq	$46, %r9
.Ltmp160:
	#DEBUG_VALUE: rotr64:x <- undef
	#DEBUG_VALUE: rotr64:b <- 41
	.loc	3 122 286                       # crypto_hash/sha512/cp/hash_sha512_cp.c:122:286
	movq	%r10, 56(%rbp)
.Ltmp161:
	.loc	7 58 21                         # ./include/sodium/private/common.h:58:21 @[ crypto_hash/sha512/cp/hash_sha512_cp.c:123:97 ]
	movq	%rsi, %r15
	rolq	$23, %r15
.Ltmp162:
	.loc	3 123 61                        # crypto_hash/sha512/cp/hash_sha512_cp.c:123:61
	xorq	%rcx, %r9
	.loc	3 123 95 is_stmt 0              # crypto_hash/sha512/cp/hash_sha512_cp.c:123:95
	xorq	%r9, %r15
	.loc	3 123 169                       # crypto_hash/sha512/cp/hash_sha512_cp.c:123:169
	movq	%rdi, %r11
	xorq	%r14, %r11
	.loc	3 123 150                       # crypto_hash/sha512/cp/hash_sha512_cp.c:123:150
	andq	%rsi, %r11
	.loc	3 123 189                       # crypto_hash/sha512/cp/hash_sha512_cp.c:123:189
	xorq	%rdi, %r11
	.loc	3 123 130                       # crypto_hash/sha512/cp/hash_sha512_cp.c:123:130
	addq	%rax, %r11
	.loc	3 123 208                       # crypto_hash/sha512/cp/hash_sha512_cp.c:123:208
	addq	%r15, %r11
	.loc	3 123 219                       # crypto_hash/sha512/cp/hash_sha512_cp.c:123:219
	addq	8(%r12,%rdx,8), %r11
	.loc	3 123 25                        # crypto_hash/sha512/cp/hash_sha512_cp.c:123:25
	leaq	Krnd(%rip), %rax
	addq	8(%rax,%rdx,8), %r11
.Ltmp163:
	#DEBUG_VALUE: rotr64:x <- $r10
	#DEBUG_VALUE: rotr64:b <- 28
	.loc	7 58 21 is_stmt 1               # ./include/sodium/private/common.h:58:21 @[ crypto_hash/sha512/cp/hash_sha512_cp.c:123:290 ]
	movq	%r10, %rax
	rolq	$36, %rax
.Ltmp164:
	#DEBUG_VALUE: rotr64:x <- $r10
	#DEBUG_VALUE: rotr64:b <- 34
	.loc	3 123 250                       # crypto_hash/sha512/cp/hash_sha512_cp.c:123:250
	addq	%r11, %rbx
.Ltmp165:
	.loc	7 58 21                         # ./include/sodium/private/common.h:58:21 @[ crypto_hash/sha512/cp/hash_sha512_cp.c:123:324 ]
	movq	%r10, %rcx
	rolq	$30, %rcx
.Ltmp166:
	#DEBUG_VALUE: rotr64:x <- $r10
	#DEBUG_VALUE: rotr64:b <- 39
	.loc	3 123 250                       # crypto_hash/sha512/cp/hash_sha512_cp.c:123:250
	movq	%rbx, 16(%rbp)
.Ltmp167:
	.loc	7 58 21                         # ./include/sodium/private/common.h:58:21 @[ crypto_hash/sha512/cp/hash_sha512_cp.c:123:358 ]
	movq	%r10, %r15
	rolq	$25, %r15
.Ltmp168:
	.loc	3 123 322                       # crypto_hash/sha512/cp/hash_sha512_cp.c:123:322
	xorq	%rax, %rcx
	.loc	3 123 356 is_stmt 0             # crypto_hash/sha512/cp/hash_sha512_cp.c:123:356
	xorq	%rcx, %r15
	.loc	3 123 430                       # crypto_hash/sha512/cp/hash_sha512_cp.c:123:430
	movq	%r8, %rax
	orq	%r13, %rax
	.loc	3 123 411                       # crypto_hash/sha512/cp/hash_sha512_cp.c:123:411
	andq	%r10, %rax
	.loc	3 123 469                       # crypto_hash/sha512/cp/hash_sha512_cp.c:123:469
	movq	%r8, %r9
	andq	%r13, %r9
	.loc	3 123 450                       # crypto_hash/sha512/cp/hash_sha512_cp.c:123:450
	orq	%rax, %r9
	.loc	3 123 391                       # crypto_hash/sha512/cp/hash_sha512_cp.c:123:391
	addq	%r15, %r9
.Ltmp169:
	#DEBUG_VALUE: rotr64:x <- $rbx
	#DEBUG_VALUE: rotr64:b <- 14
	.loc	7 58 21 is_stmt 1               # ./include/sodium/private/common.h:58:21 @[ crypto_hash/sha512/cp/hash_sha512_cp.c:124:29 ]
	movq	%rbx, %rax
	rolq	$50, %rax
.Ltmp170:
	#DEBUG_VALUE: rotr64:x <- $rbx
	#DEBUG_VALUE: rotr64:b <- 18
	.loc	3 123 286                       # crypto_hash/sha512/cp/hash_sha512_cp.c:123:286
	addq	%r11, %r9
.Ltmp171:
	.loc	7 58 21                         # ./include/sodium/private/common.h:58:21 @[ crypto_hash/sha512/cp/hash_sha512_cp.c:124:63 ]
	movq	%rbx, %rcx
	rolq	$46, %rcx
.Ltmp172:
	#DEBUG_VALUE: rotr64:x <- $rbx
	#DEBUG_VALUE: rotr64:b <- 41
	.loc	3 123 286                       # crypto_hash/sha512/cp/hash_sha512_cp.c:123:286
	movq	%r9, 48(%rbp)
.Ltmp173:
	.loc	7 58 21                         # ./include/sodium/private/common.h:58:21 @[ crypto_hash/sha512/cp/hash_sha512_cp.c:124:97 ]
	movq	%rbx, %r11
	rolq	$23, %r11
.Ltmp174:
	.loc	3 124 61                        # crypto_hash/sha512/cp/hash_sha512_cp.c:124:61
	xorq	%rax, %rcx
	.loc	3 124 95 is_stmt 0              # crypto_hash/sha512/cp/hash_sha512_cp.c:124:95
	xorq	%rcx, %r11
	.loc	3 124 169                       # crypto_hash/sha512/cp/hash_sha512_cp.c:124:169
	movq	%rsi, %rax
	xorq	%r14, %rax
	.loc	3 124 150                       # crypto_hash/sha512/cp/hash_sha512_cp.c:124:150
	andq	%rbx, %rax
	.loc	3 124 189                       # crypto_hash/sha512/cp/hash_sha512_cp.c:124:189
	xorq	%r14, %rax
	movq	%r12, %r15
	.loc	3 124 130                       # crypto_hash/sha512/cp/hash_sha512_cp.c:124:130
	addq	16(%r12,%rdx,8), %rdi
	leaq	Krnd(%rip), %r12
	.loc	3 124 208                       # crypto_hash/sha512/cp/hash_sha512_cp.c:124:208
	addq	16(%r12,%rdx,8), %rdi
	.loc	3 124 219                       # crypto_hash/sha512/cp/hash_sha512_cp.c:124:219
	addq	%rax, %rdi
	.loc	3 124 25                        # crypto_hash/sha512/cp/hash_sha512_cp.c:124:25
	addq	%r11, %rdi
	.loc	3 124 250                       # crypto_hash/sha512/cp/hash_sha512_cp.c:124:250
	addq	%rdi, %r8
.Ltmp175:
	#DEBUG_VALUE: rotr64:x <- $r9
	#DEBUG_VALUE: rotr64:b <- 28
	.loc	7 58 21 is_stmt 1               # ./include/sodium/private/common.h:58:21 @[ crypto_hash/sha512/cp/hash_sha512_cp.c:124:290 ]
	movq	%r9, %rax
	rolq	$36, %rax
.Ltmp176:
	#DEBUG_VALUE: rotr64:x <- $r9
	#DEBUG_VALUE: rotr64:b <- 34
	.loc	3 124 250                       # crypto_hash/sha512/cp/hash_sha512_cp.c:124:250
	movq	%r8, 8(%rbp)
.Ltmp177:
	.loc	7 58 21                         # ./include/sodium/private/common.h:58:21 @[ crypto_hash/sha512/cp/hash_sha512_cp.c:124:324 ]
	movq	%r9, %rcx
	rolq	$30, %rcx
.Ltmp178:
	.loc	3 124 322                       # crypto_hash/sha512/cp/hash_sha512_cp.c:124:322
	xorq	%rax, %rcx
.Ltmp179:
	#DEBUG_VALUE: rotr64:x <- $r9
	#DEBUG_VALUE: rotr64:b <- 39
	.loc	7 58 21                         # ./include/sodium/private/common.h:58:21 @[ crypto_hash/sha512/cp/hash_sha512_cp.c:124:358 ]
	movq	%r9, %rax
	rolq	$25, %rax
.Ltmp180:
	.loc	3 124 356                       # crypto_hash/sha512/cp/hash_sha512_cp.c:124:356
	xorq	%rcx, %rax
	.loc	3 124 430 is_stmt 0             # crypto_hash/sha512/cp/hash_sha512_cp.c:124:430
	movq	%r10, %rcx
	orq	%r13, %rcx
	.loc	3 124 411                       # crypto_hash/sha512/cp/hash_sha512_cp.c:124:411
	andq	%r9, %rcx
	.loc	3 124 469                       # crypto_hash/sha512/cp/hash_sha512_cp.c:124:469
	movq	%r10, %r11
	andq	%r13, %r11
	.loc	3 124 450                       # crypto_hash/sha512/cp/hash_sha512_cp.c:124:450
	orq	%rcx, %r11
	.loc	3 124 391                       # crypto_hash/sha512/cp/hash_sha512_cp.c:124:391
	addq	%rax, %r11
	.loc	3 124 286                       # crypto_hash/sha512/cp/hash_sha512_cp.c:124:286
	addq	%rdi, %r11
.Ltmp181:
	#DEBUG_VALUE: rotr64:x <- $r8
	#DEBUG_VALUE: rotr64:b <- 14
	.loc	7 58 21 is_stmt 1               # ./include/sodium/private/common.h:58:21 @[ crypto_hash/sha512/cp/hash_sha512_cp.c:125:29 ]
	movq	%r8, %rax
	rolq	$50, %rax
.Ltmp182:
	#DEBUG_VALUE: rotr64:x <- $r8
	#DEBUG_VALUE: rotr64:b <- 18
	.loc	3 124 286                       # crypto_hash/sha512/cp/hash_sha512_cp.c:124:286
	movq	%r11, 40(%rbp)
.Ltmp183:
	.loc	7 58 21                         # ./include/sodium/private/common.h:58:21 @[ crypto_hash/sha512/cp/hash_sha512_cp.c:125:63 ]
	movq	%r8, %rcx
	rolq	$46, %rcx
.Ltmp184:
	.loc	3 125 61                        # crypto_hash/sha512/cp/hash_sha512_cp.c:125:61
	xorq	%rax, %rcx
.Ltmp185:
	#DEBUG_VALUE: rotr64:x <- $r8
	#DEBUG_VALUE: rotr64:b <- 41
	.loc	7 58 21                         # ./include/sodium/private/common.h:58:21 @[ crypto_hash/sha512/cp/hash_sha512_cp.c:125:97 ]
	movq	%r8, %rax
	rolq	$23, %rax
.Ltmp186:
	.loc	3 125 95                        # crypto_hash/sha512/cp/hash_sha512_cp.c:125:95
	xorq	%rcx, %rax
	.loc	3 125 169 is_stmt 0             # crypto_hash/sha512/cp/hash_sha512_cp.c:125:169
	movq	%rbx, %rcx
	xorq	%rsi, %rcx
	.loc	3 125 150                       # crypto_hash/sha512/cp/hash_sha512_cp.c:125:150
	andq	%r8, %rcx
	.loc	3 125 130                       # crypto_hash/sha512/cp/hash_sha512_cp.c:125:130
	addq	24(%r15,%rdx,8), %r14
.Ltmp187:
	.loc	3 0 130                         # crypto_hash/sha512/cp/hash_sha512_cp.c:0:130
	movq	%r15, %rdi
	.loc	3 125 208                       # crypto_hash/sha512/cp/hash_sha512_cp.c:125:208
	addq	24(%r12,%rdx,8), %r14
	movq	%r12, %r15
	.loc	3 125 189                       # crypto_hash/sha512/cp/hash_sha512_cp.c:125:189
	xorq	%rsi, %rcx
	.loc	3 125 219                       # crypto_hash/sha512/cp/hash_sha512_cp.c:125:219
	addq	%rcx, %r14
	.loc	3 125 25                        # crypto_hash/sha512/cp/hash_sha512_cp.c:125:25
	addq	%rax, %r14
	.loc	3 125 250                       # crypto_hash/sha512/cp/hash_sha512_cp.c:125:250
	addq	%r14, %r13
.Ltmp188:
	movq	%r13, (%rbp)
.Ltmp189:
	#DEBUG_VALUE: rotr64:x <- $r11
	#DEBUG_VALUE: rotr64:b <- 28
	.loc	7 58 21 is_stmt 1               # ./include/sodium/private/common.h:58:21 @[ crypto_hash/sha512/cp/hash_sha512_cp.c:125:290 ]
	movq	%r11, %rax
	rolq	$36, %rax
.Ltmp190:
	#DEBUG_VALUE: rotr64:x <- $r11
	#DEBUG_VALUE: rotr64:b <- 34
	.loc	7 58 21 is_stmt 0               # ./include/sodium/private/common.h:58:21 @[ crypto_hash/sha512/cp/hash_sha512_cp.c:125:324 ]
	movq	%r11, %rcx
	rolq	$30, %rcx
.Ltmp191:
	.loc	3 125 322 is_stmt 1             # crypto_hash/sha512/cp/hash_sha512_cp.c:125:322
	xorq	%rax, %rcx
.Ltmp192:
	#DEBUG_VALUE: rotr64:x <- $r11
	#DEBUG_VALUE: rotr64:b <- 39
	.loc	7 58 21                         # ./include/sodium/private/common.h:58:21 @[ crypto_hash/sha512/cp/hash_sha512_cp.c:125:358 ]
	movq	%r11, %rax
	rolq	$25, %rax
.Ltmp193:
	.loc	3 125 356                       # crypto_hash/sha512/cp/hash_sha512_cp.c:125:356
	xorq	%rcx, %rax
	.loc	3 125 430 is_stmt 0             # crypto_hash/sha512/cp/hash_sha512_cp.c:125:430
	movq	%r9, %rcx
	orq	%r10, %rcx
	.loc	3 125 411                       # crypto_hash/sha512/cp/hash_sha512_cp.c:125:411
	andq	%r11, %rcx
	.loc	3 125 469                       # crypto_hash/sha512/cp/hash_sha512_cp.c:125:469
	movq	%r9, %r12
	andq	%r10, %r12
	.loc	3 125 450                       # crypto_hash/sha512/cp/hash_sha512_cp.c:125:450
	orq	%rcx, %r12
	.loc	3 125 391                       # crypto_hash/sha512/cp/hash_sha512_cp.c:125:391
	addq	%rax, %r12
	.loc	3 125 286                       # crypto_hash/sha512/cp/hash_sha512_cp.c:125:286
	addq	%r14, %r12
	movq	%r12, 32(%rbp)
.Ltmp194:
	#DEBUG_VALUE: rotr64:x <- $r13
	#DEBUG_VALUE: rotr64:b <- 14
	.loc	7 58 21 is_stmt 1               # ./include/sodium/private/common.h:58:21 @[ crypto_hash/sha512/cp/hash_sha512_cp.c:126:29 ]
	movq	%r13, %rax
	rolq	$50, %rax
.Ltmp195:
	#DEBUG_VALUE: rotr64:x <- $r13
	#DEBUG_VALUE: rotr64:b <- 18
	.loc	7 58 21 is_stmt 0               # ./include/sodium/private/common.h:58:21 @[ crypto_hash/sha512/cp/hash_sha512_cp.c:126:63 ]
	movq	%r13, %rcx
	rolq	$46, %rcx
.Ltmp196:
	.loc	3 126 61 is_stmt 1              # crypto_hash/sha512/cp/hash_sha512_cp.c:126:61
	xorq	%rax, %rcx
.Ltmp197:
	#DEBUG_VALUE: rotr64:x <- $r13
	#DEBUG_VALUE: rotr64:b <- 41
	.loc	7 58 21                         # ./include/sodium/private/common.h:58:21 @[ crypto_hash/sha512/cp/hash_sha512_cp.c:126:97 ]
	movq	%r13, %rax
	rolq	$23, %rax
.Ltmp198:
	.loc	3 126 95                        # crypto_hash/sha512/cp/hash_sha512_cp.c:126:95
	xorq	%rcx, %rax
	.loc	3 126 169 is_stmt 0             # crypto_hash/sha512/cp/hash_sha512_cp.c:126:169
	movq	%r8, %rcx
	xorq	%rbx, %rcx
	.loc	3 126 150                       # crypto_hash/sha512/cp/hash_sha512_cp.c:126:150
	andq	%r13, %rcx
	.loc	3 126 189                       # crypto_hash/sha512/cp/hash_sha512_cp.c:126:189
	xorq	%rbx, %rcx
	.loc	3 126 130                       # crypto_hash/sha512/cp/hash_sha512_cp.c:126:130
	addq	32(%rdi,%rdx,8), %rsi
	.loc	3 126 208                       # crypto_hash/sha512/cp/hash_sha512_cp.c:126:208
	addq	32(%r15,%rdx,8), %rsi
	.loc	3 126 219                       # crypto_hash/sha512/cp/hash_sha512_cp.c:126:219
	addq	%rcx, %rsi
	.loc	3 126 25                        # crypto_hash/sha512/cp/hash_sha512_cp.c:126:25
	addq	%rax, %rsi
	.loc	3 126 250                       # crypto_hash/sha512/cp/hash_sha512_cp.c:126:250
	addq	%rsi, %r10
.Ltmp199:
	movq	%r10, 56(%rbp)
.Ltmp200:
	#DEBUG_VALUE: rotr64:x <- $r12
	#DEBUG_VALUE: rotr64:b <- 28
	.loc	7 58 21 is_stmt 1               # ./include/sodium/private/common.h:58:21 @[ crypto_hash/sha512/cp/hash_sha512_cp.c:126:290 ]
	movq	%r12, %rax
	rolq	$36, %rax
.Ltmp201:
	#DEBUG_VALUE: rotr64:x <- $r12
	#DEBUG_VALUE: rotr64:b <- 34
	.loc	7 58 21 is_stmt 0               # ./include/sodium/private/common.h:58:21 @[ crypto_hash/sha512/cp/hash_sha512_cp.c:126:324 ]
	movq	%r12, %rcx
	rolq	$30, %rcx
.Ltmp202:
	.loc	3 126 322 is_stmt 1             # crypto_hash/sha512/cp/hash_sha512_cp.c:126:322
	xorq	%rax, %rcx
.Ltmp203:
	#DEBUG_VALUE: rotr64:x <- $r12
	#DEBUG_VALUE: rotr64:b <- 39
	.loc	7 58 21                         # ./include/sodium/private/common.h:58:21 @[ crypto_hash/sha512/cp/hash_sha512_cp.c:126:358 ]
	movq	%r12, %rax
	rolq	$25, %rax
.Ltmp204:
	.loc	3 126 356                       # crypto_hash/sha512/cp/hash_sha512_cp.c:126:356
	xorq	%rcx, %rax
	.loc	3 126 430 is_stmt 0             # crypto_hash/sha512/cp/hash_sha512_cp.c:126:430
	movq	%r11, %rcx
	orq	%r9, %rcx
	.loc	3 126 411                       # crypto_hash/sha512/cp/hash_sha512_cp.c:126:411
	andq	%r12, %rcx
	.loc	3 126 469                       # crypto_hash/sha512/cp/hash_sha512_cp.c:126:469
	movq	%r11, %r14
	andq	%r9, %r14
	.loc	3 126 450                       # crypto_hash/sha512/cp/hash_sha512_cp.c:126:450
	orq	%rcx, %r14
	.loc	3 126 391                       # crypto_hash/sha512/cp/hash_sha512_cp.c:126:391
	addq	%rax, %r14
	.loc	3 126 286                       # crypto_hash/sha512/cp/hash_sha512_cp.c:126:286
	addq	%rsi, %r14
	movq	%r14, 24(%rbp)
.Ltmp205:
	#DEBUG_VALUE: rotr64:x <- $r10
	#DEBUG_VALUE: rotr64:b <- 14
	.loc	7 58 21 is_stmt 1               # ./include/sodium/private/common.h:58:21 @[ crypto_hash/sha512/cp/hash_sha512_cp.c:127:29 ]
	movq	%r10, %rax
	rolq	$50, %rax
.Ltmp206:
	#DEBUG_VALUE: rotr64:x <- $r10
	#DEBUG_VALUE: rotr64:b <- 18
	.loc	7 58 21 is_stmt 0               # ./include/sodium/private/common.h:58:21 @[ crypto_hash/sha512/cp/hash_sha512_cp.c:127:63 ]
	movq	%r10, %rcx
	rolq	$46, %rcx
.Ltmp207:
	.loc	3 127 61 is_stmt 1              # crypto_hash/sha512/cp/hash_sha512_cp.c:127:61
	xorq	%rax, %rcx
.Ltmp208:
	#DEBUG_VALUE: rotr64:x <- $r10
	#DEBUG_VALUE: rotr64:b <- 41
	.loc	7 58 21                         # ./include/sodium/private/common.h:58:21 @[ crypto_hash/sha512/cp/hash_sha512_cp.c:127:97 ]
	movq	%r10, %rax
	rolq	$23, %rax
.Ltmp209:
	.loc	3 127 95                        # crypto_hash/sha512/cp/hash_sha512_cp.c:127:95
	xorq	%rcx, %rax
	.loc	3 127 169 is_stmt 0             # crypto_hash/sha512/cp/hash_sha512_cp.c:127:169
	movq	%r13, %rcx
	xorq	%r8, %rcx
	.loc	3 127 150                       # crypto_hash/sha512/cp/hash_sha512_cp.c:127:150
	andq	%r10, %rcx
	.loc	3 127 130                       # crypto_hash/sha512/cp/hash_sha512_cp.c:127:130
	addq	40(%rdi,%rdx,8), %rbx
.Ltmp210:
	.loc	3 127 189                       # crypto_hash/sha512/cp/hash_sha512_cp.c:127:189
	xorq	%r8, %rcx
	.loc	3 127 208                       # crypto_hash/sha512/cp/hash_sha512_cp.c:127:208
	addq	40(%r15,%rdx,8), %rbx
	.loc	3 127 219                       # crypto_hash/sha512/cp/hash_sha512_cp.c:127:219
	addq	%rcx, %rbx
	.loc	3 127 25                        # crypto_hash/sha512/cp/hash_sha512_cp.c:127:25
	addq	%rax, %rbx
.Ltmp211:
	#DEBUG_VALUE: rotr64:x <- $r14
	#DEBUG_VALUE: rotr64:b <- 28
	.loc	7 58 21 is_stmt 1               # ./include/sodium/private/common.h:58:21 @[ crypto_hash/sha512/cp/hash_sha512_cp.c:127:290 ]
	movq	%r14, %rax
	rolq	$36, %rax
.Ltmp212:
	#DEBUG_VALUE: rotr64:x <- $r14
	#DEBUG_VALUE: rotr64:b <- 34
	.loc	3 127 250                       # crypto_hash/sha512/cp/hash_sha512_cp.c:127:250
	addq	%rbx, %r9
.Ltmp213:
	.loc	7 58 21                         # ./include/sodium/private/common.h:58:21 @[ crypto_hash/sha512/cp/hash_sha512_cp.c:127:324 ]
	movq	%r14, %rcx
	rolq	$30, %rcx
.Ltmp214:
	#DEBUG_VALUE: rotr64:x <- $r14
	#DEBUG_VALUE: rotr64:b <- 39
	.loc	3 127 250                       # crypto_hash/sha512/cp/hash_sha512_cp.c:127:250
	movq	%r9, 48(%rbp)
.Ltmp215:
	.loc	7 58 21                         # ./include/sodium/private/common.h:58:21 @[ crypto_hash/sha512/cp/hash_sha512_cp.c:127:358 ]
	movq	%r14, %rsi
	rolq	$25, %rsi
.Ltmp216:
	.loc	3 127 322                       # crypto_hash/sha512/cp/hash_sha512_cp.c:127:322
	xorq	%rax, %rcx
	.loc	3 127 356 is_stmt 0             # crypto_hash/sha512/cp/hash_sha512_cp.c:127:356
	xorq	%rcx, %rsi
	.loc	3 127 430                       # crypto_hash/sha512/cp/hash_sha512_cp.c:127:430
	movq	%r12, %rax
	orq	%r11, %rax
	.loc	3 127 411                       # crypto_hash/sha512/cp/hash_sha512_cp.c:127:411
	andq	%r14, %rax
	.loc	3 127 469                       # crypto_hash/sha512/cp/hash_sha512_cp.c:127:469
	movq	%r12, %r15
	andq	%r11, %r15
	.loc	3 127 450                       # crypto_hash/sha512/cp/hash_sha512_cp.c:127:450
	orq	%rax, %r15
	.loc	3 127 391                       # crypto_hash/sha512/cp/hash_sha512_cp.c:127:391
	addq	%rsi, %r15
.Ltmp217:
	#DEBUG_VALUE: rotr64:x <- $r9
	#DEBUG_VALUE: rotr64:b <- 14
	.loc	7 58 21 is_stmt 1               # ./include/sodium/private/common.h:58:21 @[ crypto_hash/sha512/cp/hash_sha512_cp.c:128:29 ]
	movq	%r9, %rax
	rolq	$50, %rax
.Ltmp218:
	#DEBUG_VALUE: rotr64:x <- $r9
	#DEBUG_VALUE: rotr64:b <- 18
	.loc	3 127 286                       # crypto_hash/sha512/cp/hash_sha512_cp.c:127:286
	addq	%rbx, %r15
.Ltmp219:
	.loc	7 58 21                         # ./include/sodium/private/common.h:58:21 @[ crypto_hash/sha512/cp/hash_sha512_cp.c:128:63 ]
	movq	%r9, %rcx
	rolq	$46, %rcx
.Ltmp220:
	#DEBUG_VALUE: rotr64:x <- $r9
	#DEBUG_VALUE: rotr64:b <- 41
	.loc	3 127 286                       # crypto_hash/sha512/cp/hash_sha512_cp.c:127:286
	movq	%r15, 16(%rbp)
.Ltmp221:
	.loc	7 58 21                         # ./include/sodium/private/common.h:58:21 @[ crypto_hash/sha512/cp/hash_sha512_cp.c:128:97 ]
	movq	%r9, %rsi
	rolq	$23, %rsi
.Ltmp222:
	.loc	3 128 61                        # crypto_hash/sha512/cp/hash_sha512_cp.c:128:61
	xorq	%rax, %rcx
	.loc	3 128 95 is_stmt 0              # crypto_hash/sha512/cp/hash_sha512_cp.c:128:95
	xorq	%rcx, %rsi
	.loc	3 128 169                       # crypto_hash/sha512/cp/hash_sha512_cp.c:128:169
	movq	%r10, %rax
	xorq	%r13, %rax
	.loc	3 128 150                       # crypto_hash/sha512/cp/hash_sha512_cp.c:128:150
	andq	%r9, %rax
	.loc	3 128 189                       # crypto_hash/sha512/cp/hash_sha512_cp.c:128:189
	xorq	%r13, %rax
	.loc	3 128 130                       # crypto_hash/sha512/cp/hash_sha512_cp.c:128:130
	addq	48(%rdi,%rdx,8), %r8
.Ltmp223:
	.loc	3 128 208                       # crypto_hash/sha512/cp/hash_sha512_cp.c:128:208
	leaq	Krnd(%rip), %rcx
	addq	48(%rcx,%rdx,8), %r8
	.loc	3 128 219                       # crypto_hash/sha512/cp/hash_sha512_cp.c:128:219
	addq	%rax, %r8
	.loc	3 128 25                        # crypto_hash/sha512/cp/hash_sha512_cp.c:128:25
	addq	%rsi, %r8
	.loc	3 128 250                       # crypto_hash/sha512/cp/hash_sha512_cp.c:128:250
	addq	%r8, %r11
.Ltmp224:
	#DEBUG_VALUE: rotr64:x <- $r15
	#DEBUG_VALUE: rotr64:b <- 28
	.loc	7 58 21 is_stmt 1               # ./include/sodium/private/common.h:58:21 @[ crypto_hash/sha512/cp/hash_sha512_cp.c:128:290 ]
	movq	%r15, %rax
	rolq	$36, %rax
.Ltmp225:
	#DEBUG_VALUE: rotr64:x <- $r15
	#DEBUG_VALUE: rotr64:b <- 34
	.loc	3 128 250                       # crypto_hash/sha512/cp/hash_sha512_cp.c:128:250
	movq	%r11, 40(%rbp)
.Ltmp226:
	.loc	7 58 21                         # ./include/sodium/private/common.h:58:21 @[ crypto_hash/sha512/cp/hash_sha512_cp.c:128:324 ]
	movq	%r15, %rcx
	rolq	$30, %rcx
.Ltmp227:
	.loc	3 128 322                       # crypto_hash/sha512/cp/hash_sha512_cp.c:128:322
	xorq	%rax, %rcx
.Ltmp228:
	#DEBUG_VALUE: rotr64:x <- $r15
	#DEBUG_VALUE: rotr64:b <- 39
	.loc	7 58 21                         # ./include/sodium/private/common.h:58:21 @[ crypto_hash/sha512/cp/hash_sha512_cp.c:128:358 ]
	movq	%r15, %rax
	rolq	$25, %rax
.Ltmp229:
	.loc	3 128 356                       # crypto_hash/sha512/cp/hash_sha512_cp.c:128:356
	xorq	%rcx, %rax
	.loc	3 128 430 is_stmt 0             # crypto_hash/sha512/cp/hash_sha512_cp.c:128:430
	movq	%r14, %rcx
	orq	%r12, %rcx
	.loc	3 128 411                       # crypto_hash/sha512/cp/hash_sha512_cp.c:128:411
	andq	%r15, %rcx
	.loc	3 128 469                       # crypto_hash/sha512/cp/hash_sha512_cp.c:128:469
	movq	%r14, %rbx
	andq	%r12, %rbx
	.loc	3 128 450                       # crypto_hash/sha512/cp/hash_sha512_cp.c:128:450
	orq	%rcx, %rbx
	.loc	3 128 391                       # crypto_hash/sha512/cp/hash_sha512_cp.c:128:391
	addq	%rax, %rbx
	.loc	3 128 286                       # crypto_hash/sha512/cp/hash_sha512_cp.c:128:286
	addq	%r8, %rbx
.Ltmp230:
	#DEBUG_VALUE: rotr64:x <- $r11
	#DEBUG_VALUE: rotr64:b <- 14
	.loc	7 58 21 is_stmt 1               # ./include/sodium/private/common.h:58:21 @[ crypto_hash/sha512/cp/hash_sha512_cp.c:129:29 ]
	movq	%r11, %rax
	rolq	$50, %rax
.Ltmp231:
	#DEBUG_VALUE: rotr64:x <- $r11
	#DEBUG_VALUE: rotr64:b <- 18
	.loc	3 128 286                       # crypto_hash/sha512/cp/hash_sha512_cp.c:128:286
	movq	%rbx, 8(%rbp)
.Ltmp232:
	.loc	7 58 21                         # ./include/sodium/private/common.h:58:21 @[ crypto_hash/sha512/cp/hash_sha512_cp.c:129:63 ]
	movq	%r11, %rcx
	rolq	$46, %rcx
.Ltmp233:
	.loc	3 129 61                        # crypto_hash/sha512/cp/hash_sha512_cp.c:129:61
	xorq	%rax, %rcx
.Ltmp234:
	#DEBUG_VALUE: rotr64:x <- $r11
	#DEBUG_VALUE: rotr64:b <- 41
	.loc	7 58 21                         # ./include/sodium/private/common.h:58:21 @[ crypto_hash/sha512/cp/hash_sha512_cp.c:129:97 ]
	movq	%r11, %rax
	rolq	$23, %rax
.Ltmp235:
	.loc	3 129 95                        # crypto_hash/sha512/cp/hash_sha512_cp.c:129:95
	xorq	%rcx, %rax
	.loc	3 129 169 is_stmt 0             # crypto_hash/sha512/cp/hash_sha512_cp.c:129:169
	movq	%r9, %rcx
	xorq	%r10, %rcx
	.loc	3 129 150                       # crypto_hash/sha512/cp/hash_sha512_cp.c:129:150
	andq	%r11, %rcx
	movq	%rdi, %rsi
	.loc	3 129 130                       # crypto_hash/sha512/cp/hash_sha512_cp.c:129:130
	addq	56(%rdi,%rdx,8), %r13
.Ltmp236:
	.loc	3 0 130                         # crypto_hash/sha512/cp/hash_sha512_cp.c:0:130
	leaq	Krnd(%rip), %rdi
	.loc	3 129 208                       # crypto_hash/sha512/cp/hash_sha512_cp.c:129:208
	addq	56(%rdi,%rdx,8), %r13
	.loc	3 129 189                       # crypto_hash/sha512/cp/hash_sha512_cp.c:129:189
	xorq	%r10, %rcx
	.loc	3 129 219                       # crypto_hash/sha512/cp/hash_sha512_cp.c:129:219
	addq	%rcx, %r13
	.loc	3 129 25                        # crypto_hash/sha512/cp/hash_sha512_cp.c:129:25
	addq	%rax, %r13
	.loc	3 129 250                       # crypto_hash/sha512/cp/hash_sha512_cp.c:129:250
	addq	%r13, %r12
.Ltmp237:
	movq	%r12, 32(%rbp)
.Ltmp238:
	#DEBUG_VALUE: rotr64:x <- $rbx
	#DEBUG_VALUE: rotr64:b <- 28
	.loc	7 58 21 is_stmt 1               # ./include/sodium/private/common.h:58:21 @[ crypto_hash/sha512/cp/hash_sha512_cp.c:129:290 ]
	movq	%rbx, %rax
	rolq	$36, %rax
.Ltmp239:
	#DEBUG_VALUE: rotr64:x <- $rbx
	#DEBUG_VALUE: rotr64:b <- 34
	.loc	7 58 21 is_stmt 0               # ./include/sodium/private/common.h:58:21 @[ crypto_hash/sha512/cp/hash_sha512_cp.c:129:324 ]
	movq	%rbx, %rcx
	rolq	$30, %rcx
.Ltmp240:
	.loc	3 129 322 is_stmt 1             # crypto_hash/sha512/cp/hash_sha512_cp.c:129:322
	xorq	%rax, %rcx
.Ltmp241:
	#DEBUG_VALUE: rotr64:x <- $rbx
	#DEBUG_VALUE: rotr64:b <- 39
	.loc	7 58 21                         # ./include/sodium/private/common.h:58:21 @[ crypto_hash/sha512/cp/hash_sha512_cp.c:129:358 ]
	movq	%rbx, %rax
	rolq	$25, %rax
.Ltmp242:
	.loc	3 129 356                       # crypto_hash/sha512/cp/hash_sha512_cp.c:129:356
	xorq	%rcx, %rax
	.loc	3 129 430 is_stmt 0             # crypto_hash/sha512/cp/hash_sha512_cp.c:129:430
	movq	%r15, %rcx
	orq	%r14, %rcx
	.loc	3 129 411                       # crypto_hash/sha512/cp/hash_sha512_cp.c:129:411
	andq	%rbx, %rcx
	.loc	3 129 469                       # crypto_hash/sha512/cp/hash_sha512_cp.c:129:469
	movq	%r15, %r8
	andq	%r14, %r8
	.loc	3 129 450                       # crypto_hash/sha512/cp/hash_sha512_cp.c:129:450
	orq	%rcx, %r8
	.loc	3 129 391                       # crypto_hash/sha512/cp/hash_sha512_cp.c:129:391
	addq	%rax, %r8
	.loc	3 129 286                       # crypto_hash/sha512/cp/hash_sha512_cp.c:129:286
	addq	%r13, %r8
	movq	%r8, (%rbp)
.Ltmp243:
	#DEBUG_VALUE: rotr64:x <- $r12
	#DEBUG_VALUE: rotr64:b <- 14
	.loc	7 58 21 is_stmt 1               # ./include/sodium/private/common.h:58:21 @[ crypto_hash/sha512/cp/hash_sha512_cp.c:130:29 ]
	movq	%r12, %rax
	rolq	$50, %rax
.Ltmp244:
	#DEBUG_VALUE: rotr64:x <- $r12
	#DEBUG_VALUE: rotr64:b <- 18
	.loc	7 58 21 is_stmt 0               # ./include/sodium/private/common.h:58:21 @[ crypto_hash/sha512/cp/hash_sha512_cp.c:130:63 ]
	movq	%r12, %rcx
	rolq	$46, %rcx
.Ltmp245:
	.loc	3 130 61 is_stmt 1              # crypto_hash/sha512/cp/hash_sha512_cp.c:130:61
	xorq	%rax, %rcx
.Ltmp246:
	#DEBUG_VALUE: rotr64:x <- $r12
	#DEBUG_VALUE: rotr64:b <- 41
	.loc	7 58 21                         # ./include/sodium/private/common.h:58:21 @[ crypto_hash/sha512/cp/hash_sha512_cp.c:130:97 ]
	movq	%r12, %rax
	rolq	$23, %rax
.Ltmp247:
	.loc	3 130 95                        # crypto_hash/sha512/cp/hash_sha512_cp.c:130:95
	xorq	%rcx, %rax
	.loc	3 130 169 is_stmt 0             # crypto_hash/sha512/cp/hash_sha512_cp.c:130:169
	movq	%r11, %rcx
	xorq	%r9, %rcx
	.loc	3 130 150                       # crypto_hash/sha512/cp/hash_sha512_cp.c:130:150
	andq	%r12, %rcx
	.loc	3 130 189                       # crypto_hash/sha512/cp/hash_sha512_cp.c:130:189
	xorq	%r9, %rcx
	.loc	3 130 130                       # crypto_hash/sha512/cp/hash_sha512_cp.c:130:130
	addq	64(%rsi,%rdx,8), %r10
.Ltmp248:
	.loc	3 130 208                       # crypto_hash/sha512/cp/hash_sha512_cp.c:130:208
	addq	64(%rdi,%rdx,8), %r10
	.loc	3 130 219                       # crypto_hash/sha512/cp/hash_sha512_cp.c:130:219
	addq	%rcx, %r10
	.loc	3 130 25                        # crypto_hash/sha512/cp/hash_sha512_cp.c:130:25
	addq	%rax, %r10
	.loc	3 130 250                       # crypto_hash/sha512/cp/hash_sha512_cp.c:130:250
	addq	%r10, %r14
.Ltmp249:
	movq	%r14, 24(%rbp)
.Ltmp250:
	#DEBUG_VALUE: rotr64:x <- $r8
	#DEBUG_VALUE: rotr64:b <- 28
	.loc	7 58 21 is_stmt 1               # ./include/sodium/private/common.h:58:21 @[ crypto_hash/sha512/cp/hash_sha512_cp.c:130:290 ]
	movq	%r8, %rax
	rolq	$36, %rax
.Ltmp251:
	#DEBUG_VALUE: rotr64:x <- $r8
	#DEBUG_VALUE: rotr64:b <- 34
	.loc	7 58 21 is_stmt 0               # ./include/sodium/private/common.h:58:21 @[ crypto_hash/sha512/cp/hash_sha512_cp.c:130:324 ]
	movq	%r8, %rcx
	rolq	$30, %rcx
.Ltmp252:
	.loc	3 130 322 is_stmt 1             # crypto_hash/sha512/cp/hash_sha512_cp.c:130:322
	xorq	%rax, %rcx
.Ltmp253:
	#DEBUG_VALUE: rotr64:x <- $r8
	#DEBUG_VALUE: rotr64:b <- 39
	.loc	7 58 21                         # ./include/sodium/private/common.h:58:21 @[ crypto_hash/sha512/cp/hash_sha512_cp.c:130:358 ]
	movq	%r8, %rax
	rolq	$25, %rax
.Ltmp254:
	.loc	3 130 356                       # crypto_hash/sha512/cp/hash_sha512_cp.c:130:356
	xorq	%rcx, %rax
	.loc	3 130 430 is_stmt 0             # crypto_hash/sha512/cp/hash_sha512_cp.c:130:430
	movq	%rbx, %rcx
	orq	%r15, %rcx
	.loc	3 130 411                       # crypto_hash/sha512/cp/hash_sha512_cp.c:130:411
	andq	%r8, %rcx
	.loc	3 130 469                       # crypto_hash/sha512/cp/hash_sha512_cp.c:130:469
	movq	%rbx, %r13
	andq	%r15, %r13
	.loc	3 130 450                       # crypto_hash/sha512/cp/hash_sha512_cp.c:130:450
	orq	%rcx, %r13
	.loc	3 130 391                       # crypto_hash/sha512/cp/hash_sha512_cp.c:130:391
	addq	%rax, %r13
	.loc	3 130 286                       # crypto_hash/sha512/cp/hash_sha512_cp.c:130:286
	addq	%r10, %r13
	movq	%r13, 56(%rbp)
.Ltmp255:
	#DEBUG_VALUE: rotr64:x <- $r14
	#DEBUG_VALUE: rotr64:b <- 14
	.loc	7 58 21 is_stmt 1               # ./include/sodium/private/common.h:58:21 @[ crypto_hash/sha512/cp/hash_sha512_cp.c:131:29 ]
	movq	%r14, %rax
	rolq	$50, %rax
.Ltmp256:
	#DEBUG_VALUE: rotr64:x <- $r14
	#DEBUG_VALUE: rotr64:b <- 18
	.loc	7 58 21 is_stmt 0               # ./include/sodium/private/common.h:58:21 @[ crypto_hash/sha512/cp/hash_sha512_cp.c:131:63 ]
	movq	%r14, %rcx
	rolq	$46, %rcx
.Ltmp257:
	.loc	3 131 61 is_stmt 1              # crypto_hash/sha512/cp/hash_sha512_cp.c:131:61
	xorq	%rax, %rcx
.Ltmp258:
	#DEBUG_VALUE: rotr64:x <- $r14
	#DEBUG_VALUE: rotr64:b <- 41
	.loc	7 58 21                         # ./include/sodium/private/common.h:58:21 @[ crypto_hash/sha512/cp/hash_sha512_cp.c:131:97 ]
	movq	%r14, %rax
	rolq	$23, %rax
.Ltmp259:
	.loc	3 131 95                        # crypto_hash/sha512/cp/hash_sha512_cp.c:131:95
	xorq	%rcx, %rax
	.loc	3 131 169 is_stmt 0             # crypto_hash/sha512/cp/hash_sha512_cp.c:131:169
	movq	%r12, %rcx
	xorq	%r11, %rcx
	.loc	3 131 150                       # crypto_hash/sha512/cp/hash_sha512_cp.c:131:150
	andq	%r14, %rcx
	.loc	3 131 130                       # crypto_hash/sha512/cp/hash_sha512_cp.c:131:130
	addq	72(%rsi,%rdx,8), %r9
.Ltmp260:
	.loc	3 0 130                         # crypto_hash/sha512/cp/hash_sha512_cp.c:0:130
	movq	%rsi, %rdi
	.loc	3 131 189                       # crypto_hash/sha512/cp/hash_sha512_cp.c:131:189
	xorq	%r11, %rcx
	.loc	3 131 208                       # crypto_hash/sha512/cp/hash_sha512_cp.c:131:208
	leaq	Krnd(%rip), %rsi
	addq	72(%rsi,%rdx,8), %r9
	.loc	3 131 219                       # crypto_hash/sha512/cp/hash_sha512_cp.c:131:219
	addq	%rcx, %r9
	.loc	3 131 25                        # crypto_hash/sha512/cp/hash_sha512_cp.c:131:25
	addq	%rax, %r9
.Ltmp261:
	#DEBUG_VALUE: rotr64:x <- $r13
	#DEBUG_VALUE: rotr64:b <- 28
	.loc	7 58 21 is_stmt 1               # ./include/sodium/private/common.h:58:21 @[ crypto_hash/sha512/cp/hash_sha512_cp.c:131:290 ]
	movq	%r13, %rax
	rolq	$36, %rax
.Ltmp262:
	#DEBUG_VALUE: rotr64:x <- $r13
	#DEBUG_VALUE: rotr64:b <- 34
	.loc	3 131 250                       # crypto_hash/sha512/cp/hash_sha512_cp.c:131:250
	addq	%r9, %r15
.Ltmp263:
	.loc	7 58 21                         # ./include/sodium/private/common.h:58:21 @[ crypto_hash/sha512/cp/hash_sha512_cp.c:131:324 ]
	movq	%r13, %rcx
	rolq	$30, %rcx
.Ltmp264:
	#DEBUG_VALUE: rotr64:x <- $r13
	#DEBUG_VALUE: rotr64:b <- 39
	.loc	3 131 250                       # crypto_hash/sha512/cp/hash_sha512_cp.c:131:250
	movq	%r15, 16(%rbp)
.Ltmp265:
	.loc	7 58 21                         # ./include/sodium/private/common.h:58:21 @[ crypto_hash/sha512/cp/hash_sha512_cp.c:131:358 ]
	movq	%r13, %rsi
	rolq	$25, %rsi
.Ltmp266:
	.loc	3 131 322                       # crypto_hash/sha512/cp/hash_sha512_cp.c:131:322
	xorq	%rax, %rcx
	.loc	3 131 356 is_stmt 0             # crypto_hash/sha512/cp/hash_sha512_cp.c:131:356
	xorq	%rcx, %rsi
	.loc	3 131 430                       # crypto_hash/sha512/cp/hash_sha512_cp.c:131:430
	movq	%r8, %rax
	orq	%rbx, %rax
	.loc	3 131 411                       # crypto_hash/sha512/cp/hash_sha512_cp.c:131:411
	andq	%r13, %rax
	.loc	3 131 469                       # crypto_hash/sha512/cp/hash_sha512_cp.c:131:469
	movq	%r8, %r10
	andq	%rbx, %r10
	.loc	3 131 450                       # crypto_hash/sha512/cp/hash_sha512_cp.c:131:450
	orq	%rax, %r10
	.loc	3 131 391                       # crypto_hash/sha512/cp/hash_sha512_cp.c:131:391
	addq	%rsi, %r10
.Ltmp267:
	#DEBUG_VALUE: rotr64:x <- $r15
	#DEBUG_VALUE: rotr64:b <- 14
	.loc	7 58 21 is_stmt 1               # ./include/sodium/private/common.h:58:21 @[ crypto_hash/sha512/cp/hash_sha512_cp.c:132:30 ]
	movq	%r15, %rax
	rolq	$50, %rax
.Ltmp268:
	#DEBUG_VALUE: rotr64:x <- $r15
	#DEBUG_VALUE: rotr64:b <- 18
	.loc	3 131 286                       # crypto_hash/sha512/cp/hash_sha512_cp.c:131:286
	addq	%r9, %r10
.Ltmp269:
	.loc	7 58 21                         # ./include/sodium/private/common.h:58:21 @[ crypto_hash/sha512/cp/hash_sha512_cp.c:132:65 ]
	movq	%r15, %rcx
	rolq	$46, %rcx
.Ltmp270:
	#DEBUG_VALUE: rotr64:x <- $r15
	#DEBUG_VALUE: rotr64:b <- 41
	.loc	3 131 286                       # crypto_hash/sha512/cp/hash_sha512_cp.c:131:286
	movq	%r10, 48(%rbp)
.Ltmp271:
	.loc	7 58 21                         # ./include/sodium/private/common.h:58:21 @[ crypto_hash/sha512/cp/hash_sha512_cp.c:132:100 ]
	movq	%r15, %rsi
	rolq	$23, %rsi
.Ltmp272:
	.loc	3 132 63                        # crypto_hash/sha512/cp/hash_sha512_cp.c:132:63
	xorq	%rax, %rcx
	.loc	3 132 98 is_stmt 0              # crypto_hash/sha512/cp/hash_sha512_cp.c:132:98
	xorq	%rcx, %rsi
	.loc	3 132 175                       # crypto_hash/sha512/cp/hash_sha512_cp.c:132:175
	movq	%r14, %rax
	xorq	%r12, %rax
	.loc	3 132 155                       # crypto_hash/sha512/cp/hash_sha512_cp.c:132:155
	andq	%r15, %rax
	.loc	3 132 196                       # crypto_hash/sha512/cp/hash_sha512_cp.c:132:196
	xorq	%r12, %rax
	.loc	3 132 134                       # crypto_hash/sha512/cp/hash_sha512_cp.c:132:134
	addq	80(%rdi,%rdx,8), %r11
.Ltmp273:
	.loc	3 0 134                         # crypto_hash/sha512/cp/hash_sha512_cp.c:0:134
	leaq	Krnd(%rip), %rdi
	.loc	3 132 216                       # crypto_hash/sha512/cp/hash_sha512_cp.c:132:216
	addq	80(%rdi,%rdx,8), %r11
	.loc	3 132 228                       # crypto_hash/sha512/cp/hash_sha512_cp.c:132:228
	addq	%rax, %r11
	.loc	3 132 26                        # crypto_hash/sha512/cp/hash_sha512_cp.c:132:26
	addq	%rsi, %r11
	.loc	3 132 261                       # crypto_hash/sha512/cp/hash_sha512_cp.c:132:261
	addq	%r11, %rbx
.Ltmp274:
	#DEBUG_VALUE: rotr64:x <- $r10
	#DEBUG_VALUE: rotr64:b <- 28
	.loc	7 58 21 is_stmt 1               # ./include/sodium/private/common.h:58:21 @[ crypto_hash/sha512/cp/hash_sha512_cp.c:132:303 ]
	movq	%r10, %rax
	rolq	$36, %rax
.Ltmp275:
	#DEBUG_VALUE: rotr64:x <- $r10
	#DEBUG_VALUE: rotr64:b <- 34
	.loc	3 132 261                       # crypto_hash/sha512/cp/hash_sha512_cp.c:132:261
	movq	%rbx, 8(%rbp)
.Ltmp276:
	.loc	7 58 21                         # ./include/sodium/private/common.h:58:21 @[ crypto_hash/sha512/cp/hash_sha512_cp.c:132:338 ]
	movq	%r10, %rcx
	rolq	$30, %rcx
.Ltmp277:
	.loc	3 132 336                       # crypto_hash/sha512/cp/hash_sha512_cp.c:132:336
	xorq	%rax, %rcx
.Ltmp278:
	#DEBUG_VALUE: rotr64:x <- $r10
	#DEBUG_VALUE: rotr64:b <- 39
	.loc	7 58 21                         # ./include/sodium/private/common.h:58:21 @[ crypto_hash/sha512/cp/hash_sha512_cp.c:132:373 ]
	movq	%r10, %rax
	rolq	$25, %rax
.Ltmp279:
	.loc	3 132 371                       # crypto_hash/sha512/cp/hash_sha512_cp.c:132:371
	xorq	%rcx, %rax
	.loc	3 132 448 is_stmt 0             # crypto_hash/sha512/cp/hash_sha512_cp.c:132:448
	movq	%r13, %rcx
	orq	%r8, %rcx
	.loc	3 132 428                       # crypto_hash/sha512/cp/hash_sha512_cp.c:132:428
	andq	%r10, %rcx
	.loc	3 132 489                       # crypto_hash/sha512/cp/hash_sha512_cp.c:132:489
	movq	%r13, %r9
	andq	%r8, %r9
	.loc	3 132 469                       # crypto_hash/sha512/cp/hash_sha512_cp.c:132:469
	orq	%rcx, %r9
	.loc	3 132 407                       # crypto_hash/sha512/cp/hash_sha512_cp.c:132:407
	addq	%rax, %r9
	.loc	3 132 299                       # crypto_hash/sha512/cp/hash_sha512_cp.c:132:299
	addq	%r11, %r9
.Ltmp280:
	#DEBUG_VALUE: rotr64:x <- $rbx
	#DEBUG_VALUE: rotr64:b <- 14
	.loc	7 58 21 is_stmt 1               # ./include/sodium/private/common.h:58:21 @[ crypto_hash/sha512/cp/hash_sha512_cp.c:133:30 ]
	movq	%rbx, %rax
	rolq	$50, %rax
.Ltmp281:
	#DEBUG_VALUE: rotr64:x <- $rbx
	#DEBUG_VALUE: rotr64:b <- 18
	.loc	3 132 299                       # crypto_hash/sha512/cp/hash_sha512_cp.c:132:299
	movq	%r9, 40(%rbp)
.Ltmp282:
	.loc	7 58 21                         # ./include/sodium/private/common.h:58:21 @[ crypto_hash/sha512/cp/hash_sha512_cp.c:133:65 ]
	movq	%rbx, %rcx
	rolq	$46, %rcx
.Ltmp283:
	.loc	3 133 63                        # crypto_hash/sha512/cp/hash_sha512_cp.c:133:63
	xorq	%rax, %rcx
.Ltmp284:
	#DEBUG_VALUE: rotr64:x <- $rbx
	#DEBUG_VALUE: rotr64:b <- 41
	.loc	7 58 21                         # ./include/sodium/private/common.h:58:21 @[ crypto_hash/sha512/cp/hash_sha512_cp.c:133:100 ]
	movq	%rbx, %rax
	rolq	$23, %rax
.Ltmp285:
	.loc	3 133 98                        # crypto_hash/sha512/cp/hash_sha512_cp.c:133:98
	xorq	%rcx, %rax
	.loc	3 133 175 is_stmt 0             # crypto_hash/sha512/cp/hash_sha512_cp.c:133:175
	movq	%r15, %rcx
	xorq	%r14, %rcx
	.loc	3 133 155                       # crypto_hash/sha512/cp/hash_sha512_cp.c:133:155
	andq	%rbx, %rcx
	.loc	3 133 196                       # crypto_hash/sha512/cp/hash_sha512_cp.c:133:196
	xorq	%r14, %rcx
	.loc	3 133 230                       # crypto_hash/sha512/cp/hash_sha512_cp.c:133:230
	movq	88(%rdi,%rdx,8), %rdi
	movq	-48(%rsp), %rsi                 # 8-byte Reload
	.loc	3 133 134                       # crypto_hash/sha512/cp/hash_sha512_cp.c:133:134
	addq	88(%rsi,%rdx,8), %rdi
	.loc	3 133 216                       # crypto_hash/sha512/cp/hash_sha512_cp.c:133:216
	addq	%r12, %rdi
.Ltmp286:
	#DEBUG_VALUE: rotr64:x <- $r9
	#DEBUG_VALUE: rotr64:b <- 28
	.loc	7 58 21 is_stmt 1               # ./include/sodium/private/common.h:58:21 @[ crypto_hash/sha512/cp/hash_sha512_cp.c:133:303 ]
	movq	%r9, %rsi
	rolq	$36, %rsi
.Ltmp287:
	#DEBUG_VALUE: rotr64:x <- $r9
	#DEBUG_VALUE: rotr64:b <- 34
	.loc	3 133 228                       # crypto_hash/sha512/cp/hash_sha512_cp.c:133:228
	addq	%rcx, %rdi
.Ltmp288:
	.loc	7 58 21                         # ./include/sodium/private/common.h:58:21 @[ crypto_hash/sha512/cp/hash_sha512_cp.c:133:338 ]
	movq	%r9, %rcx
	rolq	$30, %rcx
.Ltmp289:
	#DEBUG_VALUE: rotr64:x <- $r9
	#DEBUG_VALUE: rotr64:b <- 39
	.loc	3 133 26                        # crypto_hash/sha512/cp/hash_sha512_cp.c:133:26
	addq	%rax, %rdi
.Ltmp290:
	.loc	7 58 21                         # ./include/sodium/private/common.h:58:21 @[ crypto_hash/sha512/cp/hash_sha512_cp.c:133:373 ]
	movq	%r9, %r11
	rolq	$25, %r11
.Ltmp291:
	.loc	3 133 336                       # crypto_hash/sha512/cp/hash_sha512_cp.c:133:336
	xorq	%rsi, %rcx
	.loc	3 133 371 is_stmt 0             # crypto_hash/sha512/cp/hash_sha512_cp.c:133:371
	xorq	%rcx, %r11
	.loc	3 133 448                       # crypto_hash/sha512/cp/hash_sha512_cp.c:133:448
	movq	%r10, %rax
	orq	%r13, %rax
	.loc	3 133 428                       # crypto_hash/sha512/cp/hash_sha512_cp.c:133:428
	andq	%r9, %rax
	.loc	3 133 489                       # crypto_hash/sha512/cp/hash_sha512_cp.c:133:489
	movq	%r10, %rsi
	andq	%r13, %rsi
	.loc	3 133 469                       # crypto_hash/sha512/cp/hash_sha512_cp.c:133:469
	orq	%rax, %rsi
	.loc	3 134 230 is_stmt 1             # crypto_hash/sha512/cp/hash_sha512_cp.c:134:230
	leaq	Krnd(%rip), %rax
	movq	96(%rax,%rdx,8), %rax
	.loc	3 133 261                       # crypto_hash/sha512/cp/hash_sha512_cp.c:133:261
	addq	%rdi, %r8
.Ltmp292:
	movq	%r8, (%rbp)
	.loc	3 133 407 is_stmt 0             # crypto_hash/sha512/cp/hash_sha512_cp.c:133:407
	addq	%r11, %rsi
	.loc	3 133 299                       # crypto_hash/sha512/cp/hash_sha512_cp.c:133:299
	addq	%rdi, %rsi
.Ltmp293:
	#DEBUG_VALUE: rotr64:x <- $r8
	#DEBUG_VALUE: rotr64:b <- 14
	.loc	7 58 21 is_stmt 1               # ./include/sodium/private/common.h:58:21 @[ crypto_hash/sha512/cp/hash_sha512_cp.c:134:30 ]
	movq	%r8, %rcx
	rolq	$50, %rcx
.Ltmp294:
	#DEBUG_VALUE: rotr64:x <- $r8
	#DEBUG_VALUE: rotr64:b <- 18
	.loc	3 133 299                       # crypto_hash/sha512/cp/hash_sha512_cp.c:133:299
	movq	%rsi, 32(%rbp)
.Ltmp295:
	.loc	7 58 21                         # ./include/sodium/private/common.h:58:21 @[ crypto_hash/sha512/cp/hash_sha512_cp.c:134:65 ]
	movq	%r8, %rdi
	rolq	$46, %rdi
.Ltmp296:
	.loc	3 134 63                        # crypto_hash/sha512/cp/hash_sha512_cp.c:134:63
	xorq	%rcx, %rdi
.Ltmp297:
	#DEBUG_VALUE: rotr64:x <- $r8
	#DEBUG_VALUE: rotr64:b <- 41
	.loc	7 58 21                         # ./include/sodium/private/common.h:58:21 @[ crypto_hash/sha512/cp/hash_sha512_cp.c:134:100 ]
	movq	%r8, %rcx
	rolq	$23, %rcx
.Ltmp298:
	.loc	3 134 98                        # crypto_hash/sha512/cp/hash_sha512_cp.c:134:98
	xorq	%rdi, %rcx
	.loc	3 134 175 is_stmt 0             # crypto_hash/sha512/cp/hash_sha512_cp.c:134:175
	movq	%rbx, %rdi
	xorq	%r15, %rdi
	.loc	3 134 155                       # crypto_hash/sha512/cp/hash_sha512_cp.c:134:155
	andq	%r8, %rdi
	.loc	3 134 196                       # crypto_hash/sha512/cp/hash_sha512_cp.c:134:196
	xorq	%r15, %rdi
	movq	-48(%rsp), %r12                 # 8-byte Reload
.Ltmp299:
	.loc	3 134 134                       # crypto_hash/sha512/cp/hash_sha512_cp.c:134:134
	addq	96(%r12,%rdx,8), %rax
	.loc	3 134 216                       # crypto_hash/sha512/cp/hash_sha512_cp.c:134:216
	addq	%r14, %rax
	.loc	3 134 228                       # crypto_hash/sha512/cp/hash_sha512_cp.c:134:228
	addq	%rdi, %rax
	.loc	3 134 26                        # crypto_hash/sha512/cp/hash_sha512_cp.c:134:26
	addq	%rcx, %rax
	.loc	3 134 261                       # crypto_hash/sha512/cp/hash_sha512_cp.c:134:261
	addq	%rax, %r13
.Ltmp300:
	movq	%r13, 56(%rbp)
.Ltmp301:
	#DEBUG_VALUE: rotr64:x <- $rsi
	#DEBUG_VALUE: rotr64:b <- 28
	.loc	7 58 21 is_stmt 1               # ./include/sodium/private/common.h:58:21 @[ crypto_hash/sha512/cp/hash_sha512_cp.c:134:303 ]
	movq	%rsi, %rcx
	rolq	$36, %rcx
.Ltmp302:
	#DEBUG_VALUE: rotr64:x <- $rsi
	#DEBUG_VALUE: rotr64:b <- 34
	.loc	7 58 21 is_stmt 0               # ./include/sodium/private/common.h:58:21 @[ crypto_hash/sha512/cp/hash_sha512_cp.c:134:338 ]
	movq	%rsi, %rdi
	rolq	$30, %rdi
.Ltmp303:
	.loc	3 134 336 is_stmt 1             # crypto_hash/sha512/cp/hash_sha512_cp.c:134:336
	xorq	%rcx, %rdi
.Ltmp304:
	#DEBUG_VALUE: rotr64:x <- $rsi
	#DEBUG_VALUE: rotr64:b <- 39
	.loc	7 58 21                         # ./include/sodium/private/common.h:58:21 @[ crypto_hash/sha512/cp/hash_sha512_cp.c:134:373 ]
	movq	%rsi, %rcx
	rolq	$25, %rcx
.Ltmp305:
	.loc	3 134 371                       # crypto_hash/sha512/cp/hash_sha512_cp.c:134:371
	xorq	%rdi, %rcx
	.loc	3 134 448 is_stmt 0             # crypto_hash/sha512/cp/hash_sha512_cp.c:134:448
	movq	%r9, %r11
	orq	%r10, %r11
	.loc	3 134 428                       # crypto_hash/sha512/cp/hash_sha512_cp.c:134:428
	andq	%rsi, %r11
	.loc	3 134 489                       # crypto_hash/sha512/cp/hash_sha512_cp.c:134:489
	movq	%r9, %rdi
	andq	%r10, %rdi
	.loc	3 134 469                       # crypto_hash/sha512/cp/hash_sha512_cp.c:134:469
	orq	%r11, %rdi
	.loc	3 134 407                       # crypto_hash/sha512/cp/hash_sha512_cp.c:134:407
	addq	%rcx, %rdi
	.loc	3 134 299                       # crypto_hash/sha512/cp/hash_sha512_cp.c:134:299
	addq	%rax, %rdi
	movq	%rdi, 24(%rbp)
.Ltmp306:
	#DEBUG_VALUE: rotr64:x <- $r13
	#DEBUG_VALUE: rotr64:b <- 14
	.loc	7 58 21 is_stmt 1               # ./include/sodium/private/common.h:58:21 @[ crypto_hash/sha512/cp/hash_sha512_cp.c:135:30 ]
	movq	%r13, %rax
	rolq	$50, %rax
.Ltmp307:
	#DEBUG_VALUE: rotr64:x <- $r13
	#DEBUG_VALUE: rotr64:b <- 18
	.loc	7 58 21 is_stmt 0               # ./include/sodium/private/common.h:58:21 @[ crypto_hash/sha512/cp/hash_sha512_cp.c:135:65 ]
	movq	%r13, %rcx
	rolq	$46, %rcx
.Ltmp308:
	.loc	3 135 63 is_stmt 1              # crypto_hash/sha512/cp/hash_sha512_cp.c:135:63
	xorq	%rax, %rcx
.Ltmp309:
	#DEBUG_VALUE: rotr64:x <- $r13
	#DEBUG_VALUE: rotr64:b <- 41
	.loc	7 58 21                         # ./include/sodium/private/common.h:58:21 @[ crypto_hash/sha512/cp/hash_sha512_cp.c:135:100 ]
	movq	%r13, %r11
	rolq	$23, %r11
.Ltmp310:
	.loc	3 135 98                        # crypto_hash/sha512/cp/hash_sha512_cp.c:135:98
	xorq	%rcx, %r11
	.loc	3 135 175 is_stmt 0             # crypto_hash/sha512/cp/hash_sha512_cp.c:135:175
	movq	%r8, %rcx
	xorq	%rbx, %rcx
	.loc	3 135 155                       # crypto_hash/sha512/cp/hash_sha512_cp.c:135:155
	andq	%r13, %rcx
	.loc	3 135 196                       # crypto_hash/sha512/cp/hash_sha512_cp.c:135:196
	xorq	%rbx, %rcx
	leaq	Krnd(%rip), %rax
	.loc	3 135 230                       # crypto_hash/sha512/cp/hash_sha512_cp.c:135:230
	movq	104(%rax,%rdx,8), %rax
	.loc	3 135 134                       # crypto_hash/sha512/cp/hash_sha512_cp.c:135:134
	addq	104(%r12,%rdx,8), %rax
	.loc	3 135 216                       # crypto_hash/sha512/cp/hash_sha512_cp.c:135:216
	addq	%r15, %rax
	.loc	3 135 228                       # crypto_hash/sha512/cp/hash_sha512_cp.c:135:228
	addq	%rcx, %rax
	.loc	3 135 26                        # crypto_hash/sha512/cp/hash_sha512_cp.c:135:26
	addq	%r11, %rax
.Ltmp311:
	#DEBUG_VALUE: rotr64:x <- $rdi
	#DEBUG_VALUE: rotr64:b <- 28
	.loc	7 58 21 is_stmt 1               # ./include/sodium/private/common.h:58:21 @[ crypto_hash/sha512/cp/hash_sha512_cp.c:135:303 ]
	movq	%rdi, %rcx
	rolq	$36, %rcx
.Ltmp312:
	#DEBUG_VALUE: rotr64:x <- $rdi
	#DEBUG_VALUE: rotr64:b <- 34
	.loc	3 135 261                       # crypto_hash/sha512/cp/hash_sha512_cp.c:135:261
	addq	%rax, %r10
.Ltmp313:
	.loc	7 58 21                         # ./include/sodium/private/common.h:58:21 @[ crypto_hash/sha512/cp/hash_sha512_cp.c:135:338 ]
	movq	%rdi, %r11
	rolq	$30, %r11
.Ltmp314:
	#DEBUG_VALUE: rotr64:x <- $rdi
	#DEBUG_VALUE: rotr64:b <- 39
	.loc	3 135 261                       # crypto_hash/sha512/cp/hash_sha512_cp.c:135:261
	movq	%r10, 48(%rbp)
.Ltmp315:
	.loc	7 58 21                         # ./include/sodium/private/common.h:58:21 @[ crypto_hash/sha512/cp/hash_sha512_cp.c:135:373 ]
	movq	%rdi, %r14
.Ltmp316:
	rolq	$25, %r14
.Ltmp317:
	.loc	3 135 336                       # crypto_hash/sha512/cp/hash_sha512_cp.c:135:336
	xorq	%rcx, %r11
	.loc	3 135 371 is_stmt 0             # crypto_hash/sha512/cp/hash_sha512_cp.c:135:371
	xorq	%r11, %r14
	.loc	3 135 448                       # crypto_hash/sha512/cp/hash_sha512_cp.c:135:448
	movq	%rsi, %rcx
	orq	%r9, %rcx
	.loc	3 135 428                       # crypto_hash/sha512/cp/hash_sha512_cp.c:135:428
	andq	%rdi, %rcx
	.loc	3 135 489                       # crypto_hash/sha512/cp/hash_sha512_cp.c:135:489
	movq	%rsi, %r11
	andq	%r9, %r11
	.loc	3 135 469                       # crypto_hash/sha512/cp/hash_sha512_cp.c:135:469
	orq	%rcx, %r11
	.loc	3 135 407                       # crypto_hash/sha512/cp/hash_sha512_cp.c:135:407
	addq	%r14, %r11
.Ltmp318:
	#DEBUG_VALUE: rotr64:x <- $r10
	#DEBUG_VALUE: rotr64:b <- 14
	.loc	7 58 21 is_stmt 1               # ./include/sodium/private/common.h:58:21 @[ crypto_hash/sha512/cp/hash_sha512_cp.c:136:30 ]
	movq	%r10, %rcx
	rolq	$50, %rcx
.Ltmp319:
	#DEBUG_VALUE: rotr64:x <- $r10
	#DEBUG_VALUE: rotr64:b <- 18
	.loc	3 135 299                       # crypto_hash/sha512/cp/hash_sha512_cp.c:135:299
	addq	%rax, %r11
.Ltmp320:
	.loc	7 58 21                         # ./include/sodium/private/common.h:58:21 @[ crypto_hash/sha512/cp/hash_sha512_cp.c:136:65 ]
	movq	%r10, %rax
	rolq	$46, %rax
.Ltmp321:
	#DEBUG_VALUE: rotr64:x <- $r10
	#DEBUG_VALUE: rotr64:b <- 41
	.loc	3 135 299                       # crypto_hash/sha512/cp/hash_sha512_cp.c:135:299
	movq	%r11, 16(%rbp)
.Ltmp322:
	.loc	7 58 21                         # ./include/sodium/private/common.h:58:21 @[ crypto_hash/sha512/cp/hash_sha512_cp.c:136:100 ]
	movq	%r10, %r14
	rolq	$23, %r14
.Ltmp323:
	.loc	3 136 63                        # crypto_hash/sha512/cp/hash_sha512_cp.c:136:63
	xorq	%rcx, %rax
	.loc	3 136 98 is_stmt 0              # crypto_hash/sha512/cp/hash_sha512_cp.c:136:98
	xorq	%rax, %r14
	.loc	3 136 175                       # crypto_hash/sha512/cp/hash_sha512_cp.c:136:175
	movq	%r13, %rcx
	xorq	%r8, %rcx
	.loc	3 136 155                       # crypto_hash/sha512/cp/hash_sha512_cp.c:136:155
	andq	%r10, %rcx
	.loc	3 136 230                       # crypto_hash/sha512/cp/hash_sha512_cp.c:136:230
	leaq	Krnd(%rip), %rax
	movq	112(%rax,%rdx,8), %rax
	.loc	3 136 134                       # crypto_hash/sha512/cp/hash_sha512_cp.c:136:134
	addq	112(%r12,%rdx,8), %rax
	.loc	3 136 196                       # crypto_hash/sha512/cp/hash_sha512_cp.c:136:196
	xorq	%r8, %rcx
	.loc	3 136 216                       # crypto_hash/sha512/cp/hash_sha512_cp.c:136:216
	addq	%rbx, %rax
	.loc	3 136 228                       # crypto_hash/sha512/cp/hash_sha512_cp.c:136:228
	addq	%rcx, %rax
	.loc	3 136 26                        # crypto_hash/sha512/cp/hash_sha512_cp.c:136:26
	addq	%r14, %rax
	.loc	3 136 261                       # crypto_hash/sha512/cp/hash_sha512_cp.c:136:261
	addq	%rax, %r9
.Ltmp324:
	#DEBUG_VALUE: rotr64:x <- $r11
	#DEBUG_VALUE: rotr64:b <- 28
	.loc	7 58 21 is_stmt 1               # ./include/sodium/private/common.h:58:21 @[ crypto_hash/sha512/cp/hash_sha512_cp.c:136:303 ]
	movq	%r11, %rcx
	rolq	$36, %rcx
.Ltmp325:
	#DEBUG_VALUE: rotr64:x <- $r11
	#DEBUG_VALUE: rotr64:b <- 34
	.loc	7 58 21 is_stmt 0               # ./include/sodium/private/common.h:58:21 @[ crypto_hash/sha512/cp/hash_sha512_cp.c:136:338 ]
	movq	%r11, %r14
	rolq	$30, %r14
.Ltmp326:
	.loc	3 136 336 is_stmt 1             # crypto_hash/sha512/cp/hash_sha512_cp.c:136:336
	xorq	%rcx, %r14
.Ltmp327:
	#DEBUG_VALUE: rotr64:x <- $r11
	#DEBUG_VALUE: rotr64:b <- 39
	.loc	7 58 21                         # ./include/sodium/private/common.h:58:21 @[ crypto_hash/sha512/cp/hash_sha512_cp.c:136:373 ]
	movq	%r11, %rbx
.Ltmp328:
	rolq	$25, %rbx
.Ltmp329:
	.loc	3 136 371                       # crypto_hash/sha512/cp/hash_sha512_cp.c:136:371
	xorq	%r14, %rbx
	.loc	3 136 448 is_stmt 0             # crypto_hash/sha512/cp/hash_sha512_cp.c:136:448
	movq	%rdi, %r14
	orq	%rsi, %r14
	.loc	3 136 428                       # crypto_hash/sha512/cp/hash_sha512_cp.c:136:428
	andq	%r11, %r14
.Ltmp330:
	#DEBUG_VALUE: rotr64:x <- $r9
	#DEBUG_VALUE: rotr64:b <- 14
	#DEBUG_VALUE: rotr64:x <- $r9
	#DEBUG_VALUE: rotr64:b <- 18
	#DEBUG_VALUE: rotr64:x <- $r9
	#DEBUG_VALUE: rotr64:b <- 41
	#DEBUG_VALUE: rotr64:x <- undef
	#DEBUG_VALUE: rotr64:b <- 28
	#DEBUG_VALUE: rotr64:x <- undef
	#DEBUG_VALUE: rotr64:b <- 34
	#DEBUG_VALUE: rotr64:x <- undef
	#DEBUG_VALUE: rotr64:b <- 39
	.loc	3 137 448 is_stmt 1             # crypto_hash/sha512/cp/hash_sha512_cp.c:137:448
	movq	%r11, %r15
.Ltmp331:
	orq	%rdi, %r15
	.loc	3 137 489 is_stmt 0             # crypto_hash/sha512/cp/hash_sha512_cp.c:137:489
	andq	%rdi, %r11
.Ltmp332:
	.loc	3 136 489 is_stmt 1             # crypto_hash/sha512/cp/hash_sha512_cp.c:136:489
	andq	%rsi, %rdi
.Ltmp333:
	.loc	3 136 469 is_stmt 0             # crypto_hash/sha512/cp/hash_sha512_cp.c:136:469
	orq	%r14, %rdi
	.loc	3 136 407                       # crypto_hash/sha512/cp/hash_sha512_cp.c:136:407
	addq	%rbx, %rdi
.Ltmp334:
	.loc	7 58 21 is_stmt 1               # ./include/sodium/private/common.h:58:21 @[ crypto_hash/sha512/cp/hash_sha512_cp.c:137:65 ]
	movq	%r9, %rcx
.Ltmp335:
	.loc	7 58 21 is_stmt 0               # ./include/sodium/private/common.h:58:21 @[ crypto_hash/sha512/cp/hash_sha512_cp.c:137:30 ]
	movq	%r9, %rbx
	rolq	$50, %rbx
.Ltmp336:
	.loc	7 58 21                         # ./include/sodium/private/common.h:58:21 @[ crypto_hash/sha512/cp/hash_sha512_cp.c:137:65 ]
	rolq	$46, %rcx
.Ltmp337:
	.loc	3 136 299 is_stmt 1             # crypto_hash/sha512/cp/hash_sha512_cp.c:136:299
	addq	%rax, %rdi
.Ltmp338:
	#DEBUG_VALUE: rotr64:x <- $rdi
	#DEBUG_VALUE: rotr64:x <- $rdi
	#DEBUG_VALUE: rotr64:x <- $rdi
	.loc	3 137 63                        # crypto_hash/sha512/cp/hash_sha512_cp.c:137:63
	xorq	%rbx, %rcx
	.loc	3 136 261                       # crypto_hash/sha512/cp/hash_sha512_cp.c:136:261
	movq	%r9, 40(%rbp)
	.loc	3 137 175                       # crypto_hash/sha512/cp/hash_sha512_cp.c:137:175
	xorq	%r13, %r10
.Ltmp339:
	.loc	3 137 155 is_stmt 0             # crypto_hash/sha512/cp/hash_sha512_cp.c:137:155
	andq	%r9, %r10
.Ltmp340:
	.loc	7 58 21 is_stmt 1               # ./include/sodium/private/common.h:58:21 @[ crypto_hash/sha512/cp/hash_sha512_cp.c:137:100 ]
	rolq	$23, %r9
.Ltmp341:
	.loc	3 137 98                        # crypto_hash/sha512/cp/hash_sha512_cp.c:137:98
	xorq	%rcx, %r9
	.loc	3 136 299                       # crypto_hash/sha512/cp/hash_sha512_cp.c:136:299
	movq	%rdi, 8(%rbp)
	.loc	3 137 196                       # crypto_hash/sha512/cp/hash_sha512_cp.c:137:196
	xorq	%r13, %r10
	.loc	3 137 230 is_stmt 0             # crypto_hash/sha512/cp/hash_sha512_cp.c:137:230
	leaq	Krnd(%rip), %rax
	movq	120(%rax,%rdx,8), %rax
	.loc	3 137 134                       # crypto_hash/sha512/cp/hash_sha512_cp.c:137:134
	addq	120(%r12,%rdx,8), %rax
	.loc	3 137 216                       # crypto_hash/sha512/cp/hash_sha512_cp.c:137:216
	addq	%r8, %rax
	.loc	3 137 228                       # crypto_hash/sha512/cp/hash_sha512_cp.c:137:228
	addq	%r10, %rax
	.loc	3 137 26                        # crypto_hash/sha512/cp/hash_sha512_cp.c:137:26
	addq	%r9, %rax
	.loc	3 137 261                       # crypto_hash/sha512/cp/hash_sha512_cp.c:137:261
	addq	%rax, %rsi
.Ltmp342:
	.loc	7 58 21 is_stmt 1               # ./include/sodium/private/common.h:58:21 @[ crypto_hash/sha512/cp/hash_sha512_cp.c:137:338 ]
	movq	%rdi, %rcx
.Ltmp343:
	.loc	7 58 21 is_stmt 0               # ./include/sodium/private/common.h:58:21 @[ crypto_hash/sha512/cp/hash_sha512_cp.c:137:303 ]
	movq	%rdi, %r8
.Ltmp344:
	rolq	$36, %r8
.Ltmp345:
	.loc	7 58 21                         # ./include/sodium/private/common.h:58:21 @[ crypto_hash/sha512/cp/hash_sha512_cp.c:137:338 ]
	rolq	$30, %rcx
.Ltmp346:
	.loc	3 137 261 is_stmt 1             # crypto_hash/sha512/cp/hash_sha512_cp.c:137:261
	movq	%rsi, 32(%rbp)
	.loc	3 137 336 is_stmt 0             # crypto_hash/sha512/cp/hash_sha512_cp.c:137:336
	xorq	%r8, %rcx
	.loc	3 137 428                       # crypto_hash/sha512/cp/hash_sha512_cp.c:137:428
	andq	%rdi, %r15
.Ltmp347:
	.loc	7 58 21 is_stmt 1               # ./include/sodium/private/common.h:58:21 @[ crypto_hash/sha512/cp/hash_sha512_cp.c:137:373 ]
	rolq	$25, %rdi
.Ltmp348:
	.loc	3 137 371                       # crypto_hash/sha512/cp/hash_sha512_cp.c:137:371
	xorq	%rcx, %rdi
	.loc	3 137 469 is_stmt 0             # crypto_hash/sha512/cp/hash_sha512_cp.c:137:469
	orq	%r15, %r11
	.loc	3 137 407                       # crypto_hash/sha512/cp/hash_sha512_cp.c:137:407
	addq	%rdi, %r11
	.loc	3 137 299                       # crypto_hash/sha512/cp/hash_sha512_cp.c:137:299
	addq	%rax, %r11
	movq	%r11, (%rbp)
.Ltmp349:
	.loc	3 138 15 is_stmt 1              # crypto_hash/sha512/cp/hash_sha512_cp.c:138:15
	cmpq	$64, %rdx
	je	.LBB2_5
.Ltmp350:
# %bb.4:                                #   in Loop: Header=BB2_3 Depth=1
	#DEBUG_VALUE: SHA512_Transform:state <- [DW_OP_constu 16, DW_OP_minus] [$rsp+0]
	#DEBUG_VALUE: SHA512_Transform:block <- [DW_OP_LLVM_entry_value 1] $rsi
	#DEBUG_VALUE: SHA512_Transform:W <- [DW_OP_constu 48, DW_OP_minus] [$rsp+0]
	#DEBUG_VALUE: SHA512_Transform:S <- [DW_OP_constu 40, DW_OP_minus] [$rsp+0]
	#DEBUG_VALUE: SHA512_Transform:i <- [DW_OP_constu 32, DW_OP_minus, DW_OP_deref_size 8, DW_OP_stack_value] $rsp
	.loc	3 0 15 is_stmt 0                # crypto_hash/sha512/cp/hash_sha512_cp.c:0:15
	movq	-48(%rsp), %r8                  # 8-byte Reload
	movq	-32(%rsp), %r9                  # 8-byte Reload
	.loc	3 141 34 is_stmt 1              # crypto_hash/sha512/cp/hash_sha512_cp.c:141:34
	movq	112(%r8,%r9,8), %rbx
	#DEBUG_VALUE: rotr64:x <- $rbx
.Ltmp351:
	#DEBUG_VALUE: rotr64:b <- 19
	.loc	3 0 34 is_stmt 0                # crypto_hash/sha512/cp/hash_sha512_cp.c:0:34
	movq	%rbx, -8(%rsp)                  # 8-byte Spill
.Ltmp352:
	#DEBUG_VALUE: rotr64:x <- [DW_OP_constu 8, DW_OP_minus, DW_OP_deref] $rsp
	.loc	7 58 21 is_stmt 1               # ./include/sodium/private/common.h:58:21 @[ crypto_hash/sha512/cp/hash_sha512_cp.c:141:26 ]
	movq	%rbx, %rax
	rolq	$45, %rax
.Ltmp353:
	#DEBUG_VALUE: rotr64:x <- [DW_OP_constu 8, DW_OP_minus, DW_OP_deref] $rsp
	#DEBUG_VALUE: rotr64:b <- 61
	.loc	7 58 21 is_stmt 0               # ./include/sodium/private/common.h:58:21 @[ crypto_hash/sha512/cp/hash_sha512_cp.c:141:58 ]
	movq	%rbx, %rcx
	rolq	$3, %rcx
.Ltmp354:
	.loc	3 141 56 is_stmt 1              # crypto_hash/sha512/cp/hash_sha512_cp.c:141:56
	xorq	%rax, %rcx
	.loc	3 141 105 is_stmt 0             # crypto_hash/sha512/cp/hash_sha512_cp.c:141:105
	shrq	$6, %rbx
	.loc	3 141 88                        # crypto_hash/sha512/cp/hash_sha512_cp.c:141:88
	xorq	%rcx, %rbx
	.loc	3 141 114                       # crypto_hash/sha512/cp/hash_sha512_cp.c:141:114
	movq	72(%r8,%r9,8), %r12
	.loc	3 141 112                       # crypto_hash/sha512/cp/hash_sha512_cp.c:141:112
	addq	%r12, %rbx
	.loc	3 141 138                       # crypto_hash/sha512/cp/hash_sha512_cp.c:141:138
	movq	8(%r8,%r9,8), %r10
.Ltmp355:
	#DEBUG_VALUE: rotr64:x <- $r10
	#DEBUG_VALUE: rotr64:x <- undef
	#DEBUG_VALUE: rotr64:b <- 1
	.loc	7 58 21 is_stmt 1               # ./include/sodium/private/common.h:58:21 @[ crypto_hash/sha512/cp/hash_sha512_cp.c:141:130 ]
	movq	%r10, %rax
	rorq	%rax
.Ltmp356:
	#DEBUG_VALUE: rotr64:x <- $r10
	#DEBUG_VALUE: rotr64:b <- 8
	.loc	3 142 138                       # crypto_hash/sha512/cp/hash_sha512_cp.c:142:138
	movq	16(%r8,%r9,8), %rdx
.Ltmp357:
	#DEBUG_VALUE: rotr64:x <- $rdx
	.loc	7 58 21                         # ./include/sodium/private/common.h:58:21 @[ crypto_hash/sha512/cp/hash_sha512_cp.c:141:160 ]
	movq	%r10, %rcx
	rolq	$56, %rcx
.Ltmp358:
	.loc	3 141 158                       # crypto_hash/sha512/cp/hash_sha512_cp.c:141:158
	xorq	%rax, %rcx
	.loc	3 141 204 is_stmt 0             # crypto_hash/sha512/cp/hash_sha512_cp.c:141:204
	movq	%r10, %rax
	shrq	$7, %rax
	.loc	3 141 188                       # crypto_hash/sha512/cp/hash_sha512_cp.c:141:188
	xorq	%rcx, %rax
	.loc	3 141 127                       # crypto_hash/sha512/cp/hash_sha512_cp.c:141:127
	addq	(%r8,%r9,8), %rbx
	.loc	3 141 211                       # crypto_hash/sha512/cp/hash_sha512_cp.c:141:211
	addq	%rax, %rbx
	.loc	3 141 23                        # crypto_hash/sha512/cp/hash_sha512_cp.c:141:23
	movq	%rbx, 128(%r8,%r9,8)
	.loc	3 142 34 is_stmt 1              # crypto_hash/sha512/cp/hash_sha512_cp.c:142:34
	movq	120(%r8,%r9,8), %rsi
	#DEBUG_VALUE: rotr64:x <- $rsi
.Ltmp359:
	#DEBUG_VALUE: rotr64:b <- 19
	.loc	3 0 34 is_stmt 0                # crypto_hash/sha512/cp/hash_sha512_cp.c:0:34
	movq	%rsi, -24(%rsp)                 # 8-byte Spill
.Ltmp360:
	#DEBUG_VALUE: rotr64:x <- [DW_OP_constu 24, DW_OP_minus, DW_OP_deref] $rsp
	.loc	7 58 21 is_stmt 1               # ./include/sodium/private/common.h:58:21 @[ crypto_hash/sha512/cp/hash_sha512_cp.c:142:26 ]
	movq	%rsi, %rax
	rolq	$45, %rax
.Ltmp361:
	#DEBUG_VALUE: rotr64:b <- 61
	#DEBUG_VALUE: rotr64:x <- [DW_OP_constu 24, DW_OP_minus, DW_OP_deref] $rsp
	.loc	7 58 21 is_stmt 0               # ./include/sodium/private/common.h:58:21 @[ crypto_hash/sha512/cp/hash_sha512_cp.c:142:58 ]
	movq	%rsi, %rcx
	rolq	$3, %rcx
.Ltmp362:
	.loc	3 142 56 is_stmt 1              # crypto_hash/sha512/cp/hash_sha512_cp.c:142:56
	xorq	%rax, %rcx
	.loc	3 142 105 is_stmt 0             # crypto_hash/sha512/cp/hash_sha512_cp.c:142:105
	movq	%rsi, %rax
	shrq	$6, %rax
	.loc	3 142 88                        # crypto_hash/sha512/cp/hash_sha512_cp.c:142:88
	xorq	%rcx, %rax
	.loc	3 142 114                       # crypto_hash/sha512/cp/hash_sha512_cp.c:142:114
	movq	80(%r8,%r9,8), %r11
.Ltmp363:
	#DEBUG_VALUE: rotr64:b <- 1
	.loc	7 58 21 is_stmt 1               # ./include/sodium/private/common.h:58:21 @[ crypto_hash/sha512/cp/hash_sha512_cp.c:142:130 ]
	movq	%rdx, %rcx
	rorq	%rcx
.Ltmp364:
	#DEBUG_VALUE: rotr64:b <- 8
	#DEBUG_VALUE: rotr64:x <- $rdx
	.loc	7 58 21 is_stmt 0               # ./include/sodium/private/common.h:58:21 @[ crypto_hash/sha512/cp/hash_sha512_cp.c:142:160 ]
	movq	%rdx, %rsi
	rolq	$56, %rsi
.Ltmp365:
	.loc	3 142 158 is_stmt 1             # crypto_hash/sha512/cp/hash_sha512_cp.c:142:158
	xorq	%rcx, %rsi
	.loc	3 142 204 is_stmt 0             # crypto_hash/sha512/cp/hash_sha512_cp.c:142:204
	movq	%rdx, %rcx
	shrq	$7, %rcx
	.loc	3 142 188                       # crypto_hash/sha512/cp/hash_sha512_cp.c:142:188
	xorq	%rsi, %rcx
	.loc	3 142 112                       # crypto_hash/sha512/cp/hash_sha512_cp.c:142:112
	addq	%r11, %r10
.Ltmp366:
	.loc	3 142 127                       # crypto_hash/sha512/cp/hash_sha512_cp.c:142:127
	addq	%rax, %r10
.Ltmp367:
	#DEBUG_VALUE: rotr64:x <- $rbx
	#DEBUG_VALUE: rotr64:b <- 19
	.loc	7 58 21 is_stmt 1               # ./include/sodium/private/common.h:58:21 @[ crypto_hash/sha512/cp/hash_sha512_cp.c:143:26 ]
	movq	%rbx, %rax
	rolq	$45, %rax
.Ltmp368:
	#DEBUG_VALUE: rotr64:x <- $rbx
	#DEBUG_VALUE: rotr64:b <- 61
	.loc	3 142 211                       # crypto_hash/sha512/cp/hash_sha512_cp.c:142:211
	addq	%rcx, %r10
.Ltmp369:
	.loc	7 58 21                         # ./include/sodium/private/common.h:58:21 @[ crypto_hash/sha512/cp/hash_sha512_cp.c:143:58 ]
	movq	%rbx, %rcx
	rolq	$3, %rcx
.Ltmp370:
	.loc	3 142 23                        # crypto_hash/sha512/cp/hash_sha512_cp.c:142:23
	movq	%r10, 136(%r8,%r9,8)
	.loc	3 143 56                        # crypto_hash/sha512/cp/hash_sha512_cp.c:143:56
	xorq	%rax, %rcx
	.loc	3 143 105 is_stmt 0             # crypto_hash/sha512/cp/hash_sha512_cp.c:143:105
	movq	%rbx, %rax
	shrq	$6, %rax
	.loc	3 143 138                       # crypto_hash/sha512/cp/hash_sha512_cp.c:143:138
	movq	24(%r8,%r9,8), %rsi
.Ltmp371:
	#DEBUG_VALUE: rotr64:x <- $rsi
	#DEBUG_VALUE: rotr64:b <- 1
	.loc	7 58 21 is_stmt 1               # ./include/sodium/private/common.h:58:21 @[ crypto_hash/sha512/cp/hash_sha512_cp.c:143:130 ]
	movq	%rsi, %rdi
	rorq	%rdi
.Ltmp372:
	#DEBUG_VALUE: rotr64:b <- 8
	#DEBUG_VALUE: rotr64:x <- $rsi
	.loc	3 143 88                        # crypto_hash/sha512/cp/hash_sha512_cp.c:143:88
	xorq	%rcx, %rax
.Ltmp373:
	.loc	7 58 21                         # ./include/sodium/private/common.h:58:21 @[ crypto_hash/sha512/cp/hash_sha512_cp.c:143:160 ]
	movq	%rsi, %rcx
	rolq	$56, %rcx
.Ltmp374:
	.loc	3 143 114                       # crypto_hash/sha512/cp/hash_sha512_cp.c:143:114
	movq	88(%r8,%r9,8), %r14
	.loc	3 143 158 is_stmt 0             # crypto_hash/sha512/cp/hash_sha512_cp.c:143:158
	xorq	%rdi, %rcx
	.loc	3 143 204                       # crypto_hash/sha512/cp/hash_sha512_cp.c:143:204
	movq	%rsi, %rdi
	shrq	$7, %rdi
	.loc	3 143 188                       # crypto_hash/sha512/cp/hash_sha512_cp.c:143:188
	xorq	%rcx, %rdi
	.loc	3 143 112                       # crypto_hash/sha512/cp/hash_sha512_cp.c:143:112
	addq	%r14, %rdx
.Ltmp375:
	.loc	3 143 127                       # crypto_hash/sha512/cp/hash_sha512_cp.c:143:127
	addq	%rdi, %rdx
	.loc	3 143 211                       # crypto_hash/sha512/cp/hash_sha512_cp.c:143:211
	addq	%rax, %rdx
	.loc	3 143 23                        # crypto_hash/sha512/cp/hash_sha512_cp.c:143:23
	movq	%rdx, 144(%r8,%r9,8)
.Ltmp376:
	#DEBUG_VALUE: rotr64:x <- $r10
	#DEBUG_VALUE: rotr64:b <- 19
	.loc	7 58 21 is_stmt 1               # ./include/sodium/private/common.h:58:21 @[ crypto_hash/sha512/cp/hash_sha512_cp.c:144:26 ]
	movq	%r10, %rax
	rolq	$45, %rax
.Ltmp377:
	#DEBUG_VALUE: rotr64:x <- $r10
	#DEBUG_VALUE: rotr64:b <- 61
	.loc	7 58 21 is_stmt 0               # ./include/sodium/private/common.h:58:21 @[ crypto_hash/sha512/cp/hash_sha512_cp.c:144:58 ]
	movq	%r10, %rcx
	rolq	$3, %rcx
.Ltmp378:
	.loc	3 144 56 is_stmt 1              # crypto_hash/sha512/cp/hash_sha512_cp.c:144:56
	xorq	%rax, %rcx
	.loc	3 144 105 is_stmt 0             # crypto_hash/sha512/cp/hash_sha512_cp.c:144:105
	movq	%r10, %rdi
	shrq	$6, %rdi
	.loc	3 144 88                        # crypto_hash/sha512/cp/hash_sha512_cp.c:144:88
	xorq	%rcx, %rdi
	.loc	3 144 114                       # crypto_hash/sha512/cp/hash_sha512_cp.c:144:114
	movq	96(%r8,%r9,8), %r15
	.loc	3 144 138                       # crypto_hash/sha512/cp/hash_sha512_cp.c:144:138
	movq	32(%r8,%r9,8), %rcx
.Ltmp379:
	#DEBUG_VALUE: rotr64:x <- $rcx
	#DEBUG_VALUE: rotr64:b <- 1
	.loc	7 58 21 is_stmt 1               # ./include/sodium/private/common.h:58:21 @[ crypto_hash/sha512/cp/hash_sha512_cp.c:144:130 ]
	movq	%rcx, %rax
	rorq	%rax
.Ltmp380:
	#DEBUG_VALUE: rotr64:b <- 8
	#DEBUG_VALUE: rotr64:x <- $rcx
	.loc	7 58 21 is_stmt 0               # ./include/sodium/private/common.h:58:21 @[ crypto_hash/sha512/cp/hash_sha512_cp.c:144:160 ]
	movq	%rcx, %r13
	rolq	$56, %r13
.Ltmp381:
	.loc	3 144 158 is_stmt 1             # crypto_hash/sha512/cp/hash_sha512_cp.c:144:158
	xorq	%rax, %r13
	.loc	3 144 204 is_stmt 0             # crypto_hash/sha512/cp/hash_sha512_cp.c:144:204
	movq	%rcx, %rax
	shrq	$7, %rax
	.loc	3 144 188                       # crypto_hash/sha512/cp/hash_sha512_cp.c:144:188
	xorq	%r13, %rax
	.loc	3 144 112                       # crypto_hash/sha512/cp/hash_sha512_cp.c:144:112
	addq	%r15, %rsi
.Ltmp382:
	.loc	3 144 127                       # crypto_hash/sha512/cp/hash_sha512_cp.c:144:127
	addq	%rax, %rsi
.Ltmp383:
	#DEBUG_VALUE: rotr64:x <- $rdx
	#DEBUG_VALUE: rotr64:b <- 19
	#DEBUG_VALUE: rotr64:x <- $rdx
	#DEBUG_VALUE: rotr64:b <- 61
	#DEBUG_VALUE: rotr64:x <- undef
	#DEBUG_VALUE: rotr64:b <- 1
	#DEBUG_VALUE: rotr64:x <- undef
	#DEBUG_VALUE: rotr64:x <- undef
	#DEBUG_VALUE: rotr64:b <- 19
	#DEBUG_VALUE: rotr64:x <- undef
	#DEBUG_VALUE: rotr64:b <- 61
	#DEBUG_VALUE: rotr64:x <- undef
	#DEBUG_VALUE: rotr64:x <- undef
	#DEBUG_VALUE: rotr64:b <- 8
	#DEBUG_VALUE: rotr64:x <- undef
	#DEBUG_VALUE: rotr64:b <- 19
	#DEBUG_VALUE: rotr64:x <- undef
	#DEBUG_VALUE: rotr64:b <- 61
	#DEBUG_VALUE: rotr64:x <- undef
	#DEBUG_VALUE: rotr64:b <- 1
	#DEBUG_VALUE: rotr64:x <- undef
	#DEBUG_VALUE: rotr64:b <- 8
	#DEBUG_VALUE: rotr64:x <- undef
	#DEBUG_VALUE: rotr64:b <- 19
	#DEBUG_VALUE: rotr64:x <- undef
	#DEBUG_VALUE: rotr64:b <- 61
	#DEBUG_VALUE: rotr64:x <- undef
	#DEBUG_VALUE: rotr64:b <- 1
	#DEBUG_VALUE: rotr64:x <- undef
	#DEBUG_VALUE: rotr64:b <- 8
	#DEBUG_VALUE: rotr64:x <- undef
	#DEBUG_VALUE: rotr64:b <- 19
	#DEBUG_VALUE: rotr64:x <- undef
	#DEBUG_VALUE: rotr64:b <- 61
	#DEBUG_VALUE: rotr64:x <- undef
	#DEBUG_VALUE: rotr64:b <- 1
	#DEBUG_VALUE: rotr64:x <- undef
	#DEBUG_VALUE: rotr64:b <- 8
	#DEBUG_VALUE: rotr64:x <- undef
	#DEBUG_VALUE: rotr64:b <- 19
	#DEBUG_VALUE: rotr64:x <- undef
	#DEBUG_VALUE: rotr64:b <- 61
	#DEBUG_VALUE: rotr64:x <- $r11
	.loc	7 58 21 is_stmt 1               # ./include/sodium/private/common.h:58:21 @[ crypto_hash/sha512/cp/hash_sha512_cp.c:150:130 ]
	movq	%r11, %rax
	rorq	%rax
.Ltmp384:
	#DEBUG_VALUE: rotr64:b <- 8
	#DEBUG_VALUE: rotr64:x <- $r11
	.loc	3 144 211                       # crypto_hash/sha512/cp/hash_sha512_cp.c:144:211
	addq	%rdi, %rsi
.Ltmp385:
	#DEBUG_VALUE: rotr64:x <- $rsi
	#DEBUG_VALUE: rotr64:x <- $rsi
	.loc	7 58 21                         # ./include/sodium/private/common.h:58:21 @[ crypto_hash/sha512/cp/hash_sha512_cp.c:150:160 ]
	movq	%r11, %rdi
	rolq	$56, %rdi
.Ltmp386:
	.loc	7 58 21 is_stmt 0               # ./include/sodium/private/common.h:58:21 @[ crypto_hash/sha512/cp/hash_sha512_cp.c:145:58 ]
	movq	%rdx, %r13
.Ltmp387:
	.loc	3 150 158 is_stmt 1             # crypto_hash/sha512/cp/hash_sha512_cp.c:150:158
	xorq	%rax, %rdi
	.loc	3 145 105                       # crypto_hash/sha512/cp/hash_sha512_cp.c:145:105
	movq	%rdx, %rbp
	.loc	3 150 204                       # crypto_hash/sha512/cp/hash_sha512_cp.c:150:204
	shrq	$7, %r11
.Ltmp388:
	.loc	3 150 188 is_stmt 0             # crypto_hash/sha512/cp/hash_sha512_cp.c:150:188
	xorq	%rdi, %r11
	.loc	3 150 112                       # crypto_hash/sha512/cp/hash_sha512_cp.c:150:112
	addq	%r12, %r11
	.loc	3 150 127                       # crypto_hash/sha512/cp/hash_sha512_cp.c:150:127
	addq	%rdx, %r11
	#DEBUG_VALUE: rotr64:x <- undef
.Ltmp389:
	#DEBUG_VALUE: rotr64:b <- 19
	#DEBUG_VALUE: rotr64:x <- undef
	#DEBUG_VALUE: rotr64:b <- 61
	#DEBUG_VALUE: rotr64:x <- $r14
	.loc	7 58 21 is_stmt 1               # ./include/sodium/private/common.h:58:21 @[ crypto_hash/sha512/cp/hash_sha512_cp.c:145:26 ]
	rolq	$45, %rdx
.Ltmp390:
	#DEBUG_VALUE: rotr64:x <- $r13
	#DEBUG_VALUE: rotr64:x <- $r13
	.loc	7 58 21 is_stmt 0               # ./include/sodium/private/common.h:58:21 @[ crypto_hash/sha512/cp/hash_sha512_cp.c:145:58 ]
	rolq	$3, %r13
.Ltmp391:
	#DEBUG_VALUE: rotr64:x <- $rbp
	#DEBUG_VALUE: rotr64:x <- $rbp
	.loc	3 144 23 is_stmt 1              # crypto_hash/sha512/cp/hash_sha512_cp.c:144:23
	movq	%rsi, 152(%r8,%r9,8)
	.loc	3 145 56                        # crypto_hash/sha512/cp/hash_sha512_cp.c:145:56
	xorq	%rdx, %r13
	.loc	3 145 105 is_stmt 0             # crypto_hash/sha512/cp/hash_sha512_cp.c:145:105
	shrq	$6, %rbp
	.loc	3 145 88                        # crypto_hash/sha512/cp/hash_sha512_cp.c:145:88
	xorq	%r13, %rbp
	.loc	3 145 138                       # crypto_hash/sha512/cp/hash_sha512_cp.c:145:138
	movq	40(%r8,%r9,8), %rax
.Ltmp392:
	#DEBUG_VALUE: rotr64:x <- $rax
	#DEBUG_VALUE: rotr64:x <- $rax
	.loc	7 58 21 is_stmt 1               # ./include/sodium/private/common.h:58:21 @[ crypto_hash/sha512/cp/hash_sha512_cp.c:145:130 ]
	movq	%rax, %rdx
	rorq	%rdx
.Ltmp393:
	#DEBUG_VALUE: rotr64:b <- 8
	.loc	3 145 114                       # crypto_hash/sha512/cp/hash_sha512_cp.c:145:114
	movq	104(%r8,%r9,8), %r12
.Ltmp394:
	.loc	7 58 21                         # ./include/sodium/private/common.h:58:21 @[ crypto_hash/sha512/cp/hash_sha512_cp.c:145:160 ]
	movq	%rax, %rdi
	rolq	$56, %rdi
.Ltmp395:
	.loc	3 145 158                       # crypto_hash/sha512/cp/hash_sha512_cp.c:145:158
	xorq	%rdx, %rdi
	.loc	3 145 204 is_stmt 0             # crypto_hash/sha512/cp/hash_sha512_cp.c:145:204
	movq	%rax, %rdx
	shrq	$7, %rdx
	.loc	3 145 188                       # crypto_hash/sha512/cp/hash_sha512_cp.c:145:188
	xorq	%rdi, %rdx
	.loc	3 145 112                       # crypto_hash/sha512/cp/hash_sha512_cp.c:145:112
	addq	%r12, %rcx
.Ltmp396:
	.loc	3 145 127                       # crypto_hash/sha512/cp/hash_sha512_cp.c:145:127
	addq	%rdx, %rcx
	.loc	3 145 211                       # crypto_hash/sha512/cp/hash_sha512_cp.c:145:211
	addq	%rbp, %rcx
.Ltmp397:
	#DEBUG_VALUE: rotr64:x <- $rcx
	#DEBUG_VALUE: rotr64:x <- $rcx
	.loc	7 58 21 is_stmt 1               # ./include/sodium/private/common.h:58:21 @[ crypto_hash/sha512/cp/hash_sha512_cp.c:146:58 ]
	movq	%rsi, %r13
.Ltmp398:
	.loc	7 58 21 is_stmt 0               # ./include/sodium/private/common.h:58:21 @[ crypto_hash/sha512/cp/hash_sha512_cp.c:151:135 ]
	movq	%r14, %rdx
	rorq	%rdx
.Ltmp399:
	#DEBUG_VALUE: rotr64:b <- 8
	#DEBUG_VALUE: rotr64:x <- $r14
	.loc	7 58 21                         # ./include/sodium/private/common.h:58:21 @[ crypto_hash/sha512/cp/hash_sha512_cp.c:151:166 ]
	movq	%r14, %rbp
	rolq	$56, %rbp
.Ltmp400:
	.loc	3 151 164 is_stmt 1             # crypto_hash/sha512/cp/hash_sha512_cp.c:151:164
	xorq	%rdx, %rbp
	.loc	3 146 105                       # crypto_hash/sha512/cp/hash_sha512_cp.c:146:105
	movq	%rsi, %rdi
	.loc	3 151 212                       # crypto_hash/sha512/cp/hash_sha512_cp.c:151:212
	shrq	$7, %r14
.Ltmp401:
	.loc	3 151 195 is_stmt 0             # crypto_hash/sha512/cp/hash_sha512_cp.c:151:195
	xorq	%rbp, %r14
	.loc	3 151 116                       # crypto_hash/sha512/cp/hash_sha512_cp.c:151:116
	addq	%rsi, %r14
	#DEBUG_VALUE: rotr64:x <- undef
.Ltmp402:
	#DEBUG_VALUE: rotr64:b <- 19
	#DEBUG_VALUE: rotr64:x <- undef
	#DEBUG_VALUE: rotr64:b <- 61
	#DEBUG_VALUE: rotr64:x <- $r15
	.loc	7 58 21 is_stmt 1               # ./include/sodium/private/common.h:58:21 @[ crypto_hash/sha512/cp/hash_sha512_cp.c:146:26 ]
	rolq	$45, %rsi
.Ltmp403:
	.loc	7 58 21 is_stmt 0               # ./include/sodium/private/common.h:58:21 @[ crypto_hash/sha512/cp/hash_sha512_cp.c:146:58 ]
	rolq	$3, %r13
.Ltmp404:
	.loc	3 145 23 is_stmt 1              # crypto_hash/sha512/cp/hash_sha512_cp.c:145:23
	movq	%rcx, 160(%r8,%r9,8)
	.loc	3 146 56                        # crypto_hash/sha512/cp/hash_sha512_cp.c:146:56
	xorq	%rsi, %r13
	.loc	3 146 105 is_stmt 0             # crypto_hash/sha512/cp/hash_sha512_cp.c:146:105
	shrq	$6, %rdi
	.loc	3 146 88                        # crypto_hash/sha512/cp/hash_sha512_cp.c:146:88
	xorq	%r13, %rdi
	.loc	3 146 138                       # crypto_hash/sha512/cp/hash_sha512_cp.c:146:138
	movq	48(%r8,%r9,8), %rsi
.Ltmp405:
	#DEBUG_VALUE: rotr64:x <- $rsi
	#DEBUG_VALUE: rotr64:x <- $rsi
	.loc	7 58 21 is_stmt 1               # ./include/sodium/private/common.h:58:21 @[ crypto_hash/sha512/cp/hash_sha512_cp.c:146:130 ]
	movq	%rsi, %rdx
	rorq	%rdx
.Ltmp406:
	.loc	7 58 21 is_stmt 0               # ./include/sodium/private/common.h:58:21 @[ crypto_hash/sha512/cp/hash_sha512_cp.c:146:160 ]
	movq	%rsi, %r13
	rolq	$56, %r13
.Ltmp407:
	.loc	3 146 158 is_stmt 1             # crypto_hash/sha512/cp/hash_sha512_cp.c:146:158
	xorq	%rdx, %r13
	.loc	3 146 204 is_stmt 0             # crypto_hash/sha512/cp/hash_sha512_cp.c:146:204
	movq	%rsi, %rdx
	shrq	$7, %rdx
	.loc	3 146 188                       # crypto_hash/sha512/cp/hash_sha512_cp.c:146:188
	xorq	%r13, %rdx
	.loc	3 146 114                       # crypto_hash/sha512/cp/hash_sha512_cp.c:146:114
	movq	112(%r8,%r9,8), %rbp
	#DEBUG_VALUE: rotr64:b <- 1
	.loc	3 146 112                       # crypto_hash/sha512/cp/hash_sha512_cp.c:146:112
	addq	%rbp, %rax
.Ltmp408:
	.loc	7 58 21 is_stmt 1               # ./include/sodium/private/common.h:58:21 @[ crypto_hash/sha512/cp/hash_sha512_cp.c:152:135 ]
	movq	%r15, %r13
	rorq	%r13
.Ltmp409:
	#DEBUG_VALUE: rotr64:b <- 8
	#DEBUG_VALUE: rotr64:x <- $r15
	.loc	3 146 127                       # crypto_hash/sha512/cp/hash_sha512_cp.c:146:127
	addq	%rdx, %rax
.Ltmp410:
	.loc	7 58 21                         # ./include/sodium/private/common.h:58:21 @[ crypto_hash/sha512/cp/hash_sha512_cp.c:152:166 ]
	movq	%r15, %rdx
	rolq	$56, %rdx
.Ltmp411:
	.loc	3 146 211                       # crypto_hash/sha512/cp/hash_sha512_cp.c:146:211
	addq	%rdi, %rax
.Ltmp412:
	#DEBUG_VALUE: rotr64:x <- $rax
	#DEBUG_VALUE: rotr64:x <- $rax
	.loc	3 152 164                       # crypto_hash/sha512/cp/hash_sha512_cp.c:152:164
	xorq	%r13, %rdx
.Ltmp413:
	.loc	7 58 21                         # ./include/sodium/private/common.h:58:21 @[ crypto_hash/sha512/cp/hash_sha512_cp.c:147:58 ]
	movq	%rcx, %rdi
.Ltmp414:
	.loc	3 152 212                       # crypto_hash/sha512/cp/hash_sha512_cp.c:152:212
	shrq	$7, %r15
.Ltmp415:
	.loc	3 152 195 is_stmt 0             # crypto_hash/sha512/cp/hash_sha512_cp.c:152:195
	xorq	%rdx, %r15
	.loc	3 147 105 is_stmt 1             # crypto_hash/sha512/cp/hash_sha512_cp.c:147:105
	movq	%rcx, %r13
	.loc	3 152 116                       # crypto_hash/sha512/cp/hash_sha512_cp.c:152:116
	addq	%rcx, %r15
	#DEBUG_VALUE: rotr64:x <- undef
.Ltmp416:
	#DEBUG_VALUE: rotr64:b <- 19
	#DEBUG_VALUE: rotr64:x <- undef
	#DEBUG_VALUE: rotr64:b <- 61
	#DEBUG_VALUE: rotr64:x <- $r12
	.loc	7 58 21                         # ./include/sodium/private/common.h:58:21 @[ crypto_hash/sha512/cp/hash_sha512_cp.c:147:26 ]
	rolq	$45, %rcx
.Ltmp417:
	.loc	7 58 21 is_stmt 0               # ./include/sodium/private/common.h:58:21 @[ crypto_hash/sha512/cp/hash_sha512_cp.c:147:58 ]
	rolq	$3, %rdi
.Ltmp418:
	.loc	3 146 23 is_stmt 1              # crypto_hash/sha512/cp/hash_sha512_cp.c:146:23
	movq	%rax, 168(%r8,%r9,8)
	.loc	3 147 56                        # crypto_hash/sha512/cp/hash_sha512_cp.c:147:56
	xorq	%rcx, %rdi
	.loc	3 147 105 is_stmt 0             # crypto_hash/sha512/cp/hash_sha512_cp.c:147:105
	shrq	$6, %r13
	.loc	3 147 88                        # crypto_hash/sha512/cp/hash_sha512_cp.c:147:88
	xorq	%rdi, %r13
	.loc	3 147 138                       # crypto_hash/sha512/cp/hash_sha512_cp.c:147:138
	movq	56(%r8,%r9,8), %rdi
.Ltmp419:
	#DEBUG_VALUE: rotr64:x <- $rdi
	#DEBUG_VALUE: rotr64:x <- $rdi
	.loc	7 58 21 is_stmt 1               # ./include/sodium/private/common.h:58:21 @[ crypto_hash/sha512/cp/hash_sha512_cp.c:147:130 ]
	movq	%rdi, %rcx
	rorq	%rcx
.Ltmp420:
	.loc	7 58 21 is_stmt 0               # ./include/sodium/private/common.h:58:21 @[ crypto_hash/sha512/cp/hash_sha512_cp.c:147:160 ]
	movq	%rdi, %rdx
	rolq	$56, %rdx
.Ltmp421:
	.loc	3 147 158 is_stmt 1             # crypto_hash/sha512/cp/hash_sha512_cp.c:147:158
	xorq	%rcx, %rdx
	.loc	3 147 204 is_stmt 0             # crypto_hash/sha512/cp/hash_sha512_cp.c:147:204
	movq	%rdi, %rcx
	shrq	$7, %rcx
	.loc	3 147 188                       # crypto_hash/sha512/cp/hash_sha512_cp.c:147:188
	xorq	%rdx, %rcx
	.loc	3 147 112                       # crypto_hash/sha512/cp/hash_sha512_cp.c:147:112
	addq	-24(%rsp), %rsi                 # 8-byte Folded Reload
.Ltmp422:
	.loc	3 147 127                       # crypto_hash/sha512/cp/hash_sha512_cp.c:147:127
	addq	%rcx, %rsi
.Ltmp423:
	.loc	7 58 21 is_stmt 1               # ./include/sodium/private/common.h:58:21 @[ crypto_hash/sha512/cp/hash_sha512_cp.c:153:135 ]
	movq	%r12, %rcx
	rorq	%rcx
.Ltmp424:
	#DEBUG_VALUE: rotr64:b <- 8
	#DEBUG_VALUE: rotr64:x <- $r12
	.loc	3 147 211                       # crypto_hash/sha512/cp/hash_sha512_cp.c:147:211
	addq	%r13, %rsi
.Ltmp425:
	#DEBUG_VALUE: rotr64:x <- $rsi
	#DEBUG_VALUE: rotr64:x <- $rsi
	.loc	7 58 21                         # ./include/sodium/private/common.h:58:21 @[ crypto_hash/sha512/cp/hash_sha512_cp.c:153:166 ]
	movq	%r12, %rdx
	rolq	$56, %rdx
.Ltmp426:
	.loc	3 147 23                        # crypto_hash/sha512/cp/hash_sha512_cp.c:147:23
	movq	%rsi, 176(%r8,%r9,8)
	.loc	3 153 164                       # crypto_hash/sha512/cp/hash_sha512_cp.c:153:164
	xorq	%rcx, %rdx
.Ltmp427:
	.loc	7 58 21                         # ./include/sodium/private/common.h:58:21 @[ crypto_hash/sha512/cp/hash_sha512_cp.c:148:58 ]
	movq	%rax, %rcx
.Ltmp428:
	.loc	3 153 212                       # crypto_hash/sha512/cp/hash_sha512_cp.c:153:212
	shrq	$7, %r12
.Ltmp429:
	.loc	3 153 195 is_stmt 0             # crypto_hash/sha512/cp/hash_sha512_cp.c:153:195
	xorq	%rdx, %r12
	.loc	3 148 105 is_stmt 1             # crypto_hash/sha512/cp/hash_sha512_cp.c:148:105
	movq	%rax, %rdx
	.loc	3 153 116                       # crypto_hash/sha512/cp/hash_sha512_cp.c:153:116
	addq	%rax, %r12
	#DEBUG_VALUE: rotr64:x <- undef
.Ltmp430:
	#DEBUG_VALUE: rotr64:b <- 19
	#DEBUG_VALUE: rotr64:x <- undef
	#DEBUG_VALUE: rotr64:b <- 61
	#DEBUG_VALUE: rotr64:x <- $rbp
	#DEBUG_VALUE: rotr64:b <- 1
	.loc	7 58 21                         # ./include/sodium/private/common.h:58:21 @[ crypto_hash/sha512/cp/hash_sha512_cp.c:148:26 ]
	rolq	$45, %rax
.Ltmp431:
	.loc	7 58 21 is_stmt 0               # ./include/sodium/private/common.h:58:21 @[ crypto_hash/sha512/cp/hash_sha512_cp.c:148:58 ]
	rolq	$3, %rcx
.Ltmp432:
	.loc	3 148 56 is_stmt 1              # crypto_hash/sha512/cp/hash_sha512_cp.c:148:56
	xorq	%rax, %rcx
	.loc	3 148 105 is_stmt 0             # crypto_hash/sha512/cp/hash_sha512_cp.c:148:105
	shrq	$6, %rdx
	.loc	3 148 88                        # crypto_hash/sha512/cp/hash_sha512_cp.c:148:88
	xorq	%rcx, %rdx
	.loc	3 148 138                       # crypto_hash/sha512/cp/hash_sha512_cp.c:148:138
	movq	64(%r8,%r9,8), %rax
.Ltmp433:
	#DEBUG_VALUE: rotr64:x <- $rax
	#DEBUG_VALUE: rotr64:x <- $rax
	.loc	7 58 21 is_stmt 1               # ./include/sodium/private/common.h:58:21 @[ crypto_hash/sha512/cp/hash_sha512_cp.c:148:130 ]
	movq	%rax, %rcx
	rorq	%rcx
.Ltmp434:
	.loc	7 58 21 is_stmt 0               # ./include/sodium/private/common.h:58:21 @[ crypto_hash/sha512/cp/hash_sha512_cp.c:148:160 ]
	movq	%rax, %r13
	rolq	$56, %r13
.Ltmp435:
	.loc	3 148 158 is_stmt 1             # crypto_hash/sha512/cp/hash_sha512_cp.c:148:158
	xorq	%rcx, %r13
	.loc	3 149 112                       # crypto_hash/sha512/cp/hash_sha512_cp.c:149:112
	addq	%rax, %r10
.Ltmp436:
	.loc	3 148 204                       # crypto_hash/sha512/cp/hash_sha512_cp.c:148:204
	shrq	$7, %rax
.Ltmp437:
	.loc	3 148 188 is_stmt 0             # crypto_hash/sha512/cp/hash_sha512_cp.c:148:188
	xorq	%r13, %rax
	.loc	3 148 112                       # crypto_hash/sha512/cp/hash_sha512_cp.c:148:112
	addq	%rbx, %rdi
.Ltmp438:
	.loc	3 148 127                       # crypto_hash/sha512/cp/hash_sha512_cp.c:148:127
	addq	%rax, %rdi
	.loc	3 148 211                       # crypto_hash/sha512/cp/hash_sha512_cp.c:148:211
	addq	%rdx, %rdi
.Ltmp439:
	#DEBUG_VALUE: rotr64:x <- $rdi
	#DEBUG_VALUE: rotr64:x <- $rdi
	.loc	3 148 23                        # crypto_hash/sha512/cp/hash_sha512_cp.c:148:23
	movq	%rdi, 184(%r8,%r9,8)
.Ltmp440:
	.loc	7 58 21 is_stmt 1               # ./include/sodium/private/common.h:58:21 @[ crypto_hash/sha512/cp/hash_sha512_cp.c:149:58 ]
	movq	%rsi, %rcx
.Ltmp441:
	.loc	7 58 21 is_stmt 0               # ./include/sodium/private/common.h:58:21 @[ crypto_hash/sha512/cp/hash_sha512_cp.c:154:135 ]
	movq	%rbp, %rax
	rorq	%rax
.Ltmp442:
	#DEBUG_VALUE: rotr64:x <- $rbp
	#DEBUG_VALUE: rotr64:b <- 8
	.loc	7 58 21                         # ./include/sodium/private/common.h:58:21 @[ crypto_hash/sha512/cp/hash_sha512_cp.c:154:166 ]
	movq	%rbp, %rdx
	rolq	$56, %rdx
.Ltmp443:
	.loc	3 154 164 is_stmt 1             # crypto_hash/sha512/cp/hash_sha512_cp.c:154:164
	xorq	%rax, %rdx
	.loc	3 149 105                       # crypto_hash/sha512/cp/hash_sha512_cp.c:149:105
	movq	%rsi, %rax
	.loc	3 154 212                       # crypto_hash/sha512/cp/hash_sha512_cp.c:154:212
	shrq	$7, %rbp
.Ltmp444:
	.loc	3 154 195 is_stmt 0             # crypto_hash/sha512/cp/hash_sha512_cp.c:154:195
	xorq	%rdx, %rbp
	.loc	3 154 116                       # crypto_hash/sha512/cp/hash_sha512_cp.c:154:116
	addq	%rsi, %rbp
	#DEBUG_VALUE: rotr64:x <- undef
.Ltmp445:
	#DEBUG_VALUE: rotr64:b <- 19
	#DEBUG_VALUE: rotr64:x <- undef
	#DEBUG_VALUE: rotr64:b <- 61
	#DEBUG_VALUE: rotr64:x <- [DW_OP_constu 24, DW_OP_minus, DW_OP_deref] $rsp
	.loc	7 58 21 is_stmt 1               # ./include/sodium/private/common.h:58:21 @[ crypto_hash/sha512/cp/hash_sha512_cp.c:149:26 ]
	rolq	$45, %rsi
.Ltmp446:
	.loc	7 58 21 is_stmt 0               # ./include/sodium/private/common.h:58:21 @[ crypto_hash/sha512/cp/hash_sha512_cp.c:149:58 ]
	rolq	$3, %rcx
.Ltmp447:
	.loc	3 149 56 is_stmt 1              # crypto_hash/sha512/cp/hash_sha512_cp.c:149:56
	xorq	%rsi, %rcx
	.loc	3 149 105 is_stmt 0             # crypto_hash/sha512/cp/hash_sha512_cp.c:149:105
	shrq	$6, %rax
	.loc	3 149 88                        # crypto_hash/sha512/cp/hash_sha512_cp.c:149:88
	xorq	%rcx, %rax
	.loc	3 149 138                       # crypto_hash/sha512/cp/hash_sha512_cp.c:149:138
	movq	72(%r8,%r9,8), %rcx
.Ltmp448:
	#DEBUG_VALUE: rotr64:x <- $rcx
	#DEBUG_VALUE: rotr64:x <- $rcx
	.loc	7 58 21 is_stmt 1               # ./include/sodium/private/common.h:58:21 @[ crypto_hash/sha512/cp/hash_sha512_cp.c:149:130 ]
	movq	%rcx, %rdx
	rorq	%rdx
.Ltmp449:
	.loc	7 58 21 is_stmt 0               # ./include/sodium/private/common.h:58:21 @[ crypto_hash/sha512/cp/hash_sha512_cp.c:149:160 ]
	movq	%rcx, %rsi
	rolq	$56, %rsi
.Ltmp450:
	.loc	3 149 158 is_stmt 1             # crypto_hash/sha512/cp/hash_sha512_cp.c:149:158
	xorq	%rdx, %rsi
	.loc	3 149 204 is_stmt 0             # crypto_hash/sha512/cp/hash_sha512_cp.c:149:204
	shrq	$7, %rcx
.Ltmp451:
	.loc	3 149 188                       # crypto_hash/sha512/cp/hash_sha512_cp.c:149:188
	xorq	%rsi, %rcx
	movq	-24(%rsp), %rsi                 # 8-byte Reload
.Ltmp452:
	.loc	7 58 21 is_stmt 1               # ./include/sodium/private/common.h:58:21 @[ crypto_hash/sha512/cp/hash_sha512_cp.c:155:135 ]
	movq	%rsi, %rdx
	rorq	%rdx
.Ltmp453:
	#DEBUG_VALUE: rotr64:b <- 8
	#DEBUG_VALUE: rotr64:x <- [DW_OP_constu 24, DW_OP_minus, DW_OP_deref] $rsp
	.loc	3 149 127                       # crypto_hash/sha512/cp/hash_sha512_cp.c:149:127
	addq	%rcx, %r10
.Ltmp454:
	.loc	7 58 21                         # ./include/sodium/private/common.h:58:21 @[ crypto_hash/sha512/cp/hash_sha512_cp.c:155:166 ]
	movq	%rsi, %rcx
	rolq	$56, %rcx
.Ltmp455:
	.loc	3 149 211                       # crypto_hash/sha512/cp/hash_sha512_cp.c:149:211
	addq	%rax, %r10
.Ltmp456:
	#DEBUG_VALUE: rotr64:x <- $r10
	#DEBUG_VALUE: rotr64:x <- $r10
	.loc	3 155 164                       # crypto_hash/sha512/cp/hash_sha512_cp.c:155:164
	xorq	%rdx, %rcx
	.loc	3 155 212 is_stmt 0             # crypto_hash/sha512/cp/hash_sha512_cp.c:155:212
	shrq	$7, %rsi
	.loc	3 155 195                       # crypto_hash/sha512/cp/hash_sha512_cp.c:155:195
	xorq	%rcx, %rsi
.Ltmp457:
	.loc	7 58 21 is_stmt 1               # ./include/sodium/private/common.h:58:21 @[ crypto_hash/sha512/cp/hash_sha512_cp.c:150:58 ]
	movq	%rdi, %rax
.Ltmp458:
	.loc	3 155 116                       # crypto_hash/sha512/cp/hash_sha512_cp.c:155:116
	addq	-8(%rsp), %rsi                  # 8-byte Folded Reload
	.loc	3 155 132 is_stmt 0             # crypto_hash/sha512/cp/hash_sha512_cp.c:155:132
	addq	%rdi, %rsi
	#DEBUG_VALUE: rotr64:x <- undef
.Ltmp459:
	#DEBUG_VALUE: rotr64:b <- 19
	#DEBUG_VALUE: rotr64:x <- undef
	#DEBUG_VALUE: rotr64:b <- 61
	#DEBUG_VALUE: rotr64:x <- $rbx
	#DEBUG_VALUE: rotr64:b <- 1
	.loc	7 58 21 is_stmt 1               # ./include/sodium/private/common.h:58:21 @[ crypto_hash/sha512/cp/hash_sha512_cp.c:150:26 ]
	movq	%rdi, %rcx
	rolq	$45, %rcx
.Ltmp460:
	.loc	7 58 21 is_stmt 0               # ./include/sodium/private/common.h:58:21 @[ crypto_hash/sha512/cp/hash_sha512_cp.c:150:58 ]
	rolq	$3, %rax
.Ltmp461:
	.loc	3 150 56 is_stmt 1              # crypto_hash/sha512/cp/hash_sha512_cp.c:150:56
	xorq	%rcx, %rax
	.loc	3 150 105 is_stmt 0             # crypto_hash/sha512/cp/hash_sha512_cp.c:150:105
	shrq	$6, %rdi
.Ltmp462:
	.loc	3 150 88                        # crypto_hash/sha512/cp/hash_sha512_cp.c:150:88
	xorq	%rax, %rdi
	#DEBUG_VALUE: rotr64:b <- 1
.Ltmp463:
	.loc	7 58 21 is_stmt 1               # ./include/sodium/private/common.h:58:21 @[ crypto_hash/sha512/cp/hash_sha512_cp.c:151:60 ]
	movq	%r10, %rax
.Ltmp464:
	.loc	7 58 21 is_stmt 0               # ./include/sodium/private/common.h:58:21 @[ crypto_hash/sha512/cp/hash_sha512_cp.c:151:27 ]
	movq	%r10, %rcx
	rolq	$45, %rcx
.Ltmp465:
	.loc	3 150 211 is_stmt 1             # crypto_hash/sha512/cp/hash_sha512_cp.c:150:211
	addq	%rdi, %r11
.Ltmp466:
	#DEBUG_VALUE: rotr64:x <- $r11
	#DEBUG_VALUE: rotr64:x <- $r11
	.loc	7 58 21                         # ./include/sodium/private/common.h:58:21 @[ crypto_hash/sha512/cp/hash_sha512_cp.c:151:60 ]
	rolq	$3, %rax
.Ltmp467:
	.loc	3 151 58                        # crypto_hash/sha512/cp/hash_sha512_cp.c:151:58
	xorq	%rcx, %rax
.Ltmp468:
	.loc	7 58 21                         # ./include/sodium/private/common.h:58:21 @[ crypto_hash/sha512/cp/hash_sha512_cp.c:156:135 ]
	movq	%rbx, %rcx
	rorq	%rcx
.Ltmp469:
	#DEBUG_VALUE: rotr64:x <- $rbx
	#DEBUG_VALUE: rotr64:b <- 8
	.loc	7 58 21 is_stmt 0               # ./include/sodium/private/common.h:58:21 @[ crypto_hash/sha512/cp/hash_sha512_cp.c:156:166 ]
	movq	%rbx, %rdx
	rolq	$56, %rdx
.Ltmp470:
	.loc	3 156 164 is_stmt 1             # crypto_hash/sha512/cp/hash_sha512_cp.c:156:164
	xorq	%rcx, %rdx
	.loc	3 156 212 is_stmt 0             # crypto_hash/sha512/cp/hash_sha512_cp.c:156:212
	shrq	$7, %rbx
.Ltmp471:
	.loc	3 156 195                       # crypto_hash/sha512/cp/hash_sha512_cp.c:156:195
	xorq	%rdx, %rbx
	.loc	3 149 23 is_stmt 1              # crypto_hash/sha512/cp/hash_sha512_cp.c:149:23
	movq	%r10, 192(%r8,%r9,8)
	.loc	3 156 116                       # crypto_hash/sha512/cp/hash_sha512_cp.c:156:116
	addq	%r10, %rbx
	.loc	3 150 23                        # crypto_hash/sha512/cp/hash_sha512_cp.c:150:23
	movq	%r11, 200(%r8,%r9,8)
	.loc	3 151 109                       # crypto_hash/sha512/cp/hash_sha512_cp.c:151:109
	shrq	$6, %r10
.Ltmp472:
	.loc	3 151 132 is_stmt 0             # crypto_hash/sha512/cp/hash_sha512_cp.c:151:132
	addq	80(%r8,%r9,8), %r14
	.loc	3 151 91                        # crypto_hash/sha512/cp/hash_sha512_cp.c:151:91
	xorq	%rax, %r10
	#DEBUG_VALUE: rotr64:b <- 1
.Ltmp473:
	.loc	7 58 21 is_stmt 1               # ./include/sodium/private/common.h:58:21 @[ crypto_hash/sha512/cp/hash_sha512_cp.c:152:27 ]
	movq	%r11, %rax
	rolq	$45, %rax
.Ltmp474:
	.loc	3 151 219                       # crypto_hash/sha512/cp/hash_sha512_cp.c:151:219
	addq	%r10, %r14
.Ltmp475:
	#DEBUG_VALUE: rotr64:x <- $r14
	#DEBUG_VALUE: rotr64:x <- $r14
	.loc	7 58 21                         # ./include/sodium/private/common.h:58:21 @[ crypto_hash/sha512/cp/hash_sha512_cp.c:152:60 ]
	movq	%r11, %rcx
	rolq	$3, %rcx
.Ltmp476:
	.loc	3 151 24                        # crypto_hash/sha512/cp/hash_sha512_cp.c:151:24
	movq	%r14, 208(%r8,%r9,8)
	.loc	3 152 58                        # crypto_hash/sha512/cp/hash_sha512_cp.c:152:58
	xorq	%rax, %rcx
	.loc	3 152 132 is_stmt 0             # crypto_hash/sha512/cp/hash_sha512_cp.c:152:132
	addq	88(%r8,%r9,8), %r15
	.loc	3 152 109                       # crypto_hash/sha512/cp/hash_sha512_cp.c:152:109
	shrq	$6, %r11
.Ltmp477:
	.loc	7 58 21 is_stmt 1               # ./include/sodium/private/common.h:58:21 @[ crypto_hash/sha512/cp/hash_sha512_cp.c:153:27 ]
	movq	%r14, %rax
	rolq	$45, %rax
.Ltmp478:
	.loc	3 152 91                        # crypto_hash/sha512/cp/hash_sha512_cp.c:152:91
	xorq	%rcx, %r11
	#DEBUG_VALUE: rotr64:b <- 1
.Ltmp479:
	.loc	7 58 21                         # ./include/sodium/private/common.h:58:21 @[ crypto_hash/sha512/cp/hash_sha512_cp.c:153:60 ]
	movq	%r14, %rcx
	rolq	$3, %rcx
.Ltmp480:
	.loc	3 152 219                       # crypto_hash/sha512/cp/hash_sha512_cp.c:152:219
	addq	%r11, %r15
.Ltmp481:
	#DEBUG_VALUE: rotr64:x <- $r15
	#DEBUG_VALUE: rotr64:x <- $r15
	.loc	3 153 58                        # crypto_hash/sha512/cp/hash_sha512_cp.c:153:58
	xorq	%rax, %rcx
	.loc	3 152 24                        # crypto_hash/sha512/cp/hash_sha512_cp.c:152:24
	movq	%r15, 216(%r8,%r9,8)
	.loc	3 153 109                       # crypto_hash/sha512/cp/hash_sha512_cp.c:153:109
	shrq	$6, %r14
.Ltmp482:
	.loc	3 153 91 is_stmt 0              # crypto_hash/sha512/cp/hash_sha512_cp.c:153:91
	xorq	%rcx, %r14
	#DEBUG_VALUE: rotr64:b <- 1
	.loc	3 153 132                       # crypto_hash/sha512/cp/hash_sha512_cp.c:153:132
	addq	96(%r8,%r9,8), %r12
	.loc	3 153 219                       # crypto_hash/sha512/cp/hash_sha512_cp.c:153:219
	addq	%r14, %r12
.Ltmp483:
	#DEBUG_VALUE: rotr64:x <- $r12
	#DEBUG_VALUE: rotr64:x <- $r12
	.loc	7 58 21 is_stmt 1               # ./include/sodium/private/common.h:58:21 @[ crypto_hash/sha512/cp/hash_sha512_cp.c:154:27 ]
	movq	%r15, %rax
	rolq	$45, %rax
.Ltmp484:
	.loc	7 58 21 is_stmt 0               # ./include/sodium/private/common.h:58:21 @[ crypto_hash/sha512/cp/hash_sha512_cp.c:154:60 ]
	movq	%r15, %rcx
	rolq	$3, %rcx
.Ltmp485:
	.loc	3 154 58 is_stmt 1              # crypto_hash/sha512/cp/hash_sha512_cp.c:154:58
	xorq	%rax, %rcx
	.loc	3 153 24                        # crypto_hash/sha512/cp/hash_sha512_cp.c:153:24
	movq	%r12, 224(%r8,%r9,8)
	.loc	3 154 109                       # crypto_hash/sha512/cp/hash_sha512_cp.c:154:109
	shrq	$6, %r15
.Ltmp486:
	.loc	3 154 91 is_stmt 0              # crypto_hash/sha512/cp/hash_sha512_cp.c:154:91
	xorq	%rcx, %r15
	.loc	3 154 132                       # crypto_hash/sha512/cp/hash_sha512_cp.c:154:132
	addq	104(%r8,%r9,8), %rbp
	.loc	3 154 219                       # crypto_hash/sha512/cp/hash_sha512_cp.c:154:219
	addq	%r15, %rbp
.Ltmp487:
	#DEBUG_VALUE: rotr64:x <- $rbp
	#DEBUG_VALUE: rotr64:x <- $rbp
	.loc	7 58 21 is_stmt 1               # ./include/sodium/private/common.h:58:21 @[ crypto_hash/sha512/cp/hash_sha512_cp.c:155:27 ]
	movq	%r12, %rax
	rolq	$45, %rax
.Ltmp488:
	.loc	7 58 21 is_stmt 0               # ./include/sodium/private/common.h:58:21 @[ crypto_hash/sha512/cp/hash_sha512_cp.c:155:60 ]
	movq	%r12, %rcx
	rolq	$3, %rcx
.Ltmp489:
	.loc	3 155 58 is_stmt 1              # crypto_hash/sha512/cp/hash_sha512_cp.c:155:58
	xorq	%rax, %rcx
	.loc	3 155 109 is_stmt 0             # crypto_hash/sha512/cp/hash_sha512_cp.c:155:109
	shrq	$6, %r12
.Ltmp490:
	.loc	3 155 91                        # crypto_hash/sha512/cp/hash_sha512_cp.c:155:91
	xorq	%rcx, %r12
	#DEBUG_VALUE: rotr64:b <- 1
	.loc	3 154 24 is_stmt 1              # crypto_hash/sha512/cp/hash_sha512_cp.c:154:24
	movq	%rbp, 232(%r8,%r9,8)
	.loc	3 155 219                       # crypto_hash/sha512/cp/hash_sha512_cp.c:155:219
	addq	%r12, %rsi
	.loc	3 155 24 is_stmt 0              # crypto_hash/sha512/cp/hash_sha512_cp.c:155:24
	movq	%rsi, 240(%r8,%r9,8)
.Ltmp491:
	.loc	7 58 21 is_stmt 1               # ./include/sodium/private/common.h:58:21 @[ crypto_hash/sha512/cp/hash_sha512_cp.c:156:27 ]
	movq	%rbp, %rax
	rolq	$45, %rax
.Ltmp492:
	.loc	7 58 21 is_stmt 0               # ./include/sodium/private/common.h:58:21 @[ crypto_hash/sha512/cp/hash_sha512_cp.c:156:60 ]
	movq	%rbp, %rcx
	rolq	$3, %rcx
.Ltmp493:
	.loc	3 156 58 is_stmt 1              # crypto_hash/sha512/cp/hash_sha512_cp.c:156:58
	xorq	%rax, %rcx
	.loc	3 156 109 is_stmt 0             # crypto_hash/sha512/cp/hash_sha512_cp.c:156:109
	shrq	$6, %rbp
.Ltmp494:
	.loc	3 156 91                        # crypto_hash/sha512/cp/hash_sha512_cp.c:156:91
	xorq	%rcx, %rbp
	.loc	3 156 132                       # crypto_hash/sha512/cp/hash_sha512_cp.c:156:132
	addq	120(%r8,%r9,8), %rbx
	.loc	3 156 219                       # crypto_hash/sha512/cp/hash_sha512_cp.c:156:219
	addq	%rbp, %rbx
	.loc	3 156 24                        # crypto_hash/sha512/cp/hash_sha512_cp.c:156:24
	movq	%rbx, 248(%r8,%r9,8)
.Ltmp495:
	#DEBUG_VALUE: SHA512_Transform:i <- undef
	.loc	3 141 17 is_stmt 1              # crypto_hash/sha512/cp/hash_sha512_cp.c:141:17
	leaq	16(%r9), %rax
.Ltmp496:
	#DEBUG_VALUE: SHA512_Transform:i <- $rax
	.loc	3 0 17 is_stmt 0                # crypto_hash/sha512/cp/hash_sha512_cp.c:0:17
	movq	%rax, -32(%rsp)                 # 8-byte Spill
.Ltmp497:
	.loc	3 121 5 is_stmt 1               # crypto_hash/sha512/cp/hash_sha512_cp.c:121:5
	jmp	.LBB2_3
.Ltmp498:
.LBB2_5:                                # %split
	#DEBUG_VALUE: SHA512_Transform:state <- [DW_OP_constu 16, DW_OP_minus] [$rsp+0]
	#DEBUG_VALUE: SHA512_Transform:block <- [DW_OP_LLVM_entry_value 1] $rsi
	#DEBUG_VALUE: SHA512_Transform:W <- [DW_OP_constu 48, DW_OP_minus] [$rsp+0]
	#DEBUG_VALUE: SHA512_Transform:S <- [DW_OP_constu 40, DW_OP_minus] [$rsp+0]
	#DEBUG_VALUE: SHA512_Transform:i <- [DW_OP_constu 32, DW_OP_minus, DW_OP_deref_size 8, DW_OP_stack_value] $rsp
	#DEBUG_VALUE: SHA512_Transform:i <- 0
	.loc	3 0 5 is_stmt 0                 # crypto_hash/sha512/cp/hash_sha512_cp.c:0:5
	movq	-16(%rsp), %rdx                 # 8-byte Reload
.Ltmp499:
	.loc	3 159 18 is_stmt 1              # crypto_hash/sha512/cp/hash_sha512_cp.c:159:18
	addq	%r11, (%rdx)
.Ltmp500:
	#DEBUG_VALUE: SHA512_Transform:i <- 1
	.loc	3 0 18 is_stmt 0                # crypto_hash/sha512/cp/hash_sha512_cp.c:0:18
	movq	-40(%rsp), %rcx                 # 8-byte Reload
	.loc	3 159 21                        # crypto_hash/sha512/cp/hash_sha512_cp.c:159:21
	movq	8(%rcx), %rax
	.loc	3 159 18                        # crypto_hash/sha512/cp/hash_sha512_cp.c:159:18
	addq	%rax, 8(%rdx)
.Ltmp501:
	#DEBUG_VALUE: SHA512_Transform:i <- 2
	.loc	3 159 21                        # crypto_hash/sha512/cp/hash_sha512_cp.c:159:21
	movq	16(%rcx), %rax
	.loc	3 159 18                        # crypto_hash/sha512/cp/hash_sha512_cp.c:159:18
	addq	%rax, 16(%rdx)
.Ltmp502:
	#DEBUG_VALUE: SHA512_Transform:i <- 3
	.loc	3 159 21                        # crypto_hash/sha512/cp/hash_sha512_cp.c:159:21
	movq	24(%rcx), %rax
	.loc	3 159 18                        # crypto_hash/sha512/cp/hash_sha512_cp.c:159:18
	addq	%rax, 24(%rdx)
.Ltmp503:
	#DEBUG_VALUE: SHA512_Transform:i <- 4
	.loc	3 159 21                        # crypto_hash/sha512/cp/hash_sha512_cp.c:159:21
	movq	32(%rcx), %rax
	.loc	3 159 18                        # crypto_hash/sha512/cp/hash_sha512_cp.c:159:18
	addq	%rax, 32(%rdx)
.Ltmp504:
	#DEBUG_VALUE: SHA512_Transform:i <- 5
	.loc	3 159 21                        # crypto_hash/sha512/cp/hash_sha512_cp.c:159:21
	movq	40(%rcx), %rax
	.loc	3 159 18                        # crypto_hash/sha512/cp/hash_sha512_cp.c:159:18
	addq	%rax, 40(%rdx)
.Ltmp505:
	#DEBUG_VALUE: SHA512_Transform:i <- 6
	.loc	3 159 21                        # crypto_hash/sha512/cp/hash_sha512_cp.c:159:21
	movq	48(%rcx), %rax
	.loc	3 159 18                        # crypto_hash/sha512/cp/hash_sha512_cp.c:159:18
	addq	%rax, 48(%rdx)
.Ltmp506:
	#DEBUG_VALUE: SHA512_Transform:i <- 7
	.loc	3 159 21                        # crypto_hash/sha512/cp/hash_sha512_cp.c:159:21
	movq	56(%rcx), %rax
	.loc	3 159 18                        # crypto_hash/sha512/cp/hash_sha512_cp.c:159:18
	addq	%rax, 56(%rdx)
.Ltmp507:
	#DEBUG_VALUE: SHA512_Transform:i <- 8
	.loc	3 161 1 epilogue_begin is_stmt 1 # crypto_hash/sha512/cp/hash_sha512_cp.c:161:1
	popq	%rbx
	.cfi_def_cfa_offset 48
	popq	%r12
	.cfi_def_cfa_offset 40
	popq	%r13
	.cfi_def_cfa_offset 32
	popq	%r14
	.cfi_def_cfa_offset 24
	popq	%r15
	.cfi_def_cfa_offset 16
	popq	%rbp
	.cfi_def_cfa_offset 8
	retq
.Ltmp508:
.Lfunc_end2:
	.size	SHA512_Transform, .Lfunc_end2-SHA512_Transform
	.cfi_endproc
                                        # -- End function
	.globl	crypto_hash_sha512_final        # -- Begin function crypto_hash_sha512_final
	.p2align	4
	.type	crypto_hash_sha512_final,@function
crypto_hash_sha512_final:               # @crypto_hash_sha512_final
.Lfunc_begin3:
	.loc	3 262 0                         # crypto_hash/sha512/cp/hash_sha512_cp.c:262:0
	.cfi_startproc
# %bb.0:
	#DEBUG_VALUE: crypto_hash_sha512_final:state <- $rdi
	#DEBUG_VALUE: crypto_hash_sha512_final:out <- $rsi
	pushq	%r15
	.cfi_def_cfa_offset 16
	pushq	%r14
	.cfi_def_cfa_offset 24
	pushq	%rbx
	.cfi_def_cfa_offset 32
	subq	$704, %rsp                      # imm = 0x2C0
	.cfi_def_cfa_offset 736
	.cfi_offset %rbx, -32
	.cfi_offset %r14, -24
	.cfi_offset %r15, -16
	movq	%rsi, %r14
	movq	%rdi, %rbx
.Ltmp509:
	#DEBUG_VALUE: SHA512_Pad:state <- $rbx
	#DEBUG_VALUE: SHA512_Pad:tmp64 <- $rsp
	#MEMBARRIER
	.loc	3 179 26 prologue_end           # crypto_hash/sha512/cp/hash_sha512_cp.c:179:26 @[ crypto_hash/sha512/cp/hash_sha512_cp.c:265:5 ]
	movl	72(%rdi), %eax
	.loc	3 179 9 is_stmt 0               # crypto_hash/sha512/cp/hash_sha512_cp.c:179:9 @[ crypto_hash/sha512/cp/hash_sha512_cp.c:265:5 ]
	shrl	$3, %eax
	andl	$127, %eax
.Ltmp510:
	#DEBUG_VALUE: SHA512_Pad:r <- $eax
	.loc	3 180 11 is_stmt 1              # crypto_hash/sha512/cp/hash_sha512_cp.c:180:11 @[ crypto_hash/sha512/cp/hash_sha512_cp.c:265:5 ]
	cmpl	$112, %eax
	jae	.LBB3_1
.Ltmp511:
# %bb.2:                                # %.lr.ph.i
	#DEBUG_VALUE: crypto_hash_sha512_final:state <- $rbx
	#DEBUG_VALUE: crypto_hash_sha512_final:out <- $r14
	#DEBUG_VALUE: SHA512_Pad:state <- $rbx
	#DEBUG_VALUE: SHA512_Pad:tmp64 <- $rsp
	#DEBUG_VALUE: SHA512_Pad:r <- $eax
	#DEBUG_VALUE: SHA512_Pad:i <- 0
	.loc	3 181 9                         # crypto_hash/sha512/cp/hash_sha512_cp.c:181:9 @[ crypto_hash/sha512/cp/hash_sha512_cp.c:265:5 ]
	movl	%eax, %ecx
	leaq	(%rbx,%rcx), %rdi
	addq	$80, %rdi
	movl	$112, %edx
	subl	%eax, %edx
.Ltmp512:
	.loc	3 182 31                        # crypto_hash/sha512/cp/hash_sha512_cp.c:182:31 @[ crypto_hash/sha512/cp/hash_sha512_cp.c:265:5 ]
	leaq	PAD(%rip), %rsi
	callq	memcpy@PLT
.Ltmp513:
	.loc	3 0 31 is_stmt 0                # crypto_hash/sha512/cp/hash_sha512_cp.c:0:31
	jmp	.LBB3_3
.Ltmp514:
.LBB3_1:                                # %.preheader28.i
	#DEBUG_VALUE: crypto_hash_sha512_final:state <- $rbx
	#DEBUG_VALUE: crypto_hash_sha512_final:out <- $r14
	#DEBUG_VALUE: SHA512_Pad:state <- $rbx
	#DEBUG_VALUE: SHA512_Pad:tmp64 <- $rsp
	#DEBUG_VALUE: SHA512_Pad:r <- $eax
	movl	$128, %edx
	subl	%eax, %edx
.Ltmp515:
	#DEBUG_VALUE: SHA512_Pad:i <- 0
	.loc	3 185 9 is_stmt 1               # crypto_hash/sha512/cp/hash_sha512_cp.c:185:9 @[ crypto_hash/sha512/cp/hash_sha512_cp.c:265:5 ]
	movl	%eax, %eax
.Ltmp516:
	leaq	(%rbx,%rax), %rdi
	addq	$80, %rdi
.Ltmp517:
	.loc	3 186 31                        # crypto_hash/sha512/cp/hash_sha512_cp.c:186:31 @[ crypto_hash/sha512/cp/hash_sha512_cp.c:265:5 ]
	leaq	PAD(%rip), %rsi
	callq	memcpy@PLT
.Ltmp518:
	.loc	3 188 47                        # crypto_hash/sha512/cp/hash_sha512_cp.c:188:47 @[ crypto_hash/sha512/cp/hash_sha512_cp.c:265:5 ]
	leaq	80(%rbx), %rsi
	.loc	3 188 64 is_stmt 0              # crypto_hash/sha512/cp/hash_sha512_cp.c:188:64 @[ crypto_hash/sha512/cp/hash_sha512_cp.c:265:5 ]
	leaq	640(%rsp), %rcx
	movq	%rsp, %rdx
	.loc	3 188 9                         # crypto_hash/sha512/cp/hash_sha512_cp.c:188:9 @[ crypto_hash/sha512/cp/hash_sha512_cp.c:265:5 ]
	movq	%rbx, %rdi
	callq	SHA512_Transform
.Ltmp519:
	#DEBUG_VALUE: memset:__dest <- undef
	#DEBUG_VALUE: memset:__ch <- 0
	#DEBUG_VALUE: memset:__len <- 112
	.loc	4 59 10 is_stmt 1               # /usr/include/x86_64-linux-gnu/bits/string_fortified.h:59:10 @[ crypto_hash/sha512/cp/hash_sha512_cp.c:189:9 @[ crypto_hash/sha512/cp/hash_sha512_cp.c:265:5 ] ]
	xorps	%xmm0, %xmm0
	movups	%xmm0, 176(%rbx)
	movups	%xmm0, 160(%rbx)
	movups	%xmm0, 144(%rbx)
	movups	%xmm0, 128(%rbx)
	movups	%xmm0, 112(%rbx)
	movups	%xmm0, 96(%rbx)
	movups	%xmm0, 80(%rbx)
.Ltmp520:
.LBB3_3:                                # %SHA512_Pad.exit
	#DEBUG_VALUE: crypto_hash_sha512_final:state <- $rbx
	#DEBUG_VALUE: crypto_hash_sha512_final:out <- $r14
	#DEBUG_VALUE: SHA512_Pad:state <- $rbx
	#DEBUG_VALUE: SHA512_Pad:tmp64 <- $rsp
	#DEBUG_VALUE: SHA512_Pad:i <- 0
	#DEBUG_VALUE: be64enc_vect:len <- 16
	#DEBUG_VALUE: be64enc_vect:i <- 0
	#DEBUG_VALUE: be64enc_vect:dst <- [DW_OP_plus_uconst 192, DW_OP_stack_value] $rbx
	#DEBUG_VALUE: be64enc_vect:src <- [DW_OP_plus_uconst 64, DW_OP_stack_value] $rbx
	.loc	3 46 36                         # crypto_hash/sha512/cp/hash_sha512_cp.c:46:36 @[ crypto_hash/sha512/cp/hash_sha512_cp.c:191:5 @[ crypto_hash/sha512/cp/hash_sha512_cp.c:265:5 ] ]
	movq	64(%rbx), %rax
	#DEBUG_VALUE: store64_be:w <- $rax
.Ltmp521:
	#DEBUG_VALUE: be64enc_vect:i <- 1
	movq	72(%rbx), %rcx
	#DEBUG_VALUE: store64_be:w <- $rcx
.Ltmp522:
	#DEBUG_VALUE: store64_be:dst <- [DW_OP_plus_uconst 192, DW_OP_stack_value] $rbx
	#DEBUG_VALUE: store64_be:w <- undef
	.loc	7 168 12                        # ./include/sodium/private/common.h:168:12 @[ crypto_hash/sha512/cp/hash_sha512_cp.c:46:9 @[ crypto_hash/sha512/cp/hash_sha512_cp.c:191:5 @[ crypto_hash/sha512/cp/hash_sha512_cp.c:265:5 ] ] ]
	bswapq	%rax
.Ltmp523:
	#DEBUG_VALUE: store64_be:dst <- [DW_OP_plus_uconst 200, DW_OP_stack_value] $rbx
	bswapq	%rcx
	movq	%rax, 192(%rbx)
	movq	%rcx, 200(%rbx)
.Ltmp524:
	#DEBUG_VALUE: be64enc_vect:i <- 2
	.loc	3 191 26                        # crypto_hash/sha512/cp/hash_sha512_cp.c:191:26 @[ crypto_hash/sha512/cp/hash_sha512_cp.c:265:5 ]
	leaq	80(%rbx), %rsi
	.loc	3 192 60                        # crypto_hash/sha512/cp/hash_sha512_cp.c:192:60 @[ crypto_hash/sha512/cp/hash_sha512_cp.c:265:5 ]
	leaq	640(%rsp), %rcx
	movq	%rsp, %r15
	.loc	3 192 5 is_stmt 0               # crypto_hash/sha512/cp/hash_sha512_cp.c:192:5 @[ crypto_hash/sha512/cp/hash_sha512_cp.c:265:5 ]
	movq	%rbx, %rdi
	movq	%r15, %rdx
	callq	SHA512_Transform
.Ltmp525:
	#DEBUG_VALUE: be64enc_vect:dst <- $r14
	#DEBUG_VALUE: be64enc_vect:src <- $rbx
	#DEBUG_VALUE: be64enc_vect:len <- 64
	#DEBUG_VALUE: be64enc_vect:i <- 0
	.loc	3 46 36 is_stmt 1               # crypto_hash/sha512/cp/hash_sha512_cp.c:46:36 @[ crypto_hash/sha512/cp/hash_sha512_cp.c:266:5 ]
	movq	(%rbx), %rax
	#DEBUG_VALUE: store64_be:w <- $rax
.Ltmp526:
	#DEBUG_VALUE: store64_be:dst <- $r14
	#DEBUG_VALUE: store64_be:w <- undef
	.loc	7 168 12                        # ./include/sodium/private/common.h:168:12 @[ crypto_hash/sha512/cp/hash_sha512_cp.c:46:9 @[ crypto_hash/sha512/cp/hash_sha512_cp.c:266:5 ] ]
	bswapq	%rax
	movq	%rax, (%r14)
.Ltmp527:
	#DEBUG_VALUE: be64enc_vect:i <- 1
	.loc	3 46 36                         # crypto_hash/sha512/cp/hash_sha512_cp.c:46:36 @[ crypto_hash/sha512/cp/hash_sha512_cp.c:266:5 ]
	movq	8(%rbx), %rax
.Ltmp528:
	#DEBUG_VALUE: store64_be:w <- $rax
	#DEBUG_VALUE: store64_be:dst <- [DW_OP_plus_uconst 8, DW_OP_stack_value] $r14
	.loc	7 168 12                        # ./include/sodium/private/common.h:168:12 @[ crypto_hash/sha512/cp/hash_sha512_cp.c:46:9 @[ crypto_hash/sha512/cp/hash_sha512_cp.c:266:5 ] ]
	bswapq	%rax
.Ltmp529:
	movq	%rax, 8(%r14)
.Ltmp530:
	#DEBUG_VALUE: be64enc_vect:i <- 2
	.loc	3 46 36                         # crypto_hash/sha512/cp/hash_sha512_cp.c:46:36 @[ crypto_hash/sha512/cp/hash_sha512_cp.c:266:5 ]
	movq	16(%rbx), %rax
.Ltmp531:
	#DEBUG_VALUE: store64_be:w <- $rax
	#DEBUG_VALUE: store64_be:dst <- [DW_OP_plus_uconst 16, DW_OP_stack_value] $r14
	.loc	7 168 12                        # ./include/sodium/private/common.h:168:12 @[ crypto_hash/sha512/cp/hash_sha512_cp.c:46:9 @[ crypto_hash/sha512/cp/hash_sha512_cp.c:266:5 ] ]
	bswapq	%rax
.Ltmp532:
	movq	%rax, 16(%r14)
.Ltmp533:
	#DEBUG_VALUE: be64enc_vect:i <- 3
	.loc	3 46 36                         # crypto_hash/sha512/cp/hash_sha512_cp.c:46:36 @[ crypto_hash/sha512/cp/hash_sha512_cp.c:266:5 ]
	movq	24(%rbx), %rax
.Ltmp534:
	#DEBUG_VALUE: store64_be:w <- $rax
	#DEBUG_VALUE: store64_be:dst <- [DW_OP_plus_uconst 24, DW_OP_stack_value] $r14
	.loc	7 168 12                        # ./include/sodium/private/common.h:168:12 @[ crypto_hash/sha512/cp/hash_sha512_cp.c:46:9 @[ crypto_hash/sha512/cp/hash_sha512_cp.c:266:5 ] ]
	bswapq	%rax
.Ltmp535:
	movq	%rax, 24(%r14)
.Ltmp536:
	#DEBUG_VALUE: be64enc_vect:i <- 4
	.loc	3 46 36                         # crypto_hash/sha512/cp/hash_sha512_cp.c:46:36 @[ crypto_hash/sha512/cp/hash_sha512_cp.c:266:5 ]
	movq	32(%rbx), %rax
.Ltmp537:
	#DEBUG_VALUE: store64_be:w <- $rax
	#DEBUG_VALUE: store64_be:dst <- [DW_OP_plus_uconst 32, DW_OP_stack_value] $r14
	.loc	7 168 12                        # ./include/sodium/private/common.h:168:12 @[ crypto_hash/sha512/cp/hash_sha512_cp.c:46:9 @[ crypto_hash/sha512/cp/hash_sha512_cp.c:266:5 ] ]
	bswapq	%rax
.Ltmp538:
	movq	%rax, 32(%r14)
.Ltmp539:
	#DEBUG_VALUE: be64enc_vect:i <- 5
	.loc	3 46 36                         # crypto_hash/sha512/cp/hash_sha512_cp.c:46:36 @[ crypto_hash/sha512/cp/hash_sha512_cp.c:266:5 ]
	movq	40(%rbx), %rax
.Ltmp540:
	#DEBUG_VALUE: store64_be:w <- $rax
	#DEBUG_VALUE: store64_be:dst <- [DW_OP_plus_uconst 40, DW_OP_stack_value] $r14
	.loc	7 168 12                        # ./include/sodium/private/common.h:168:12 @[ crypto_hash/sha512/cp/hash_sha512_cp.c:46:9 @[ crypto_hash/sha512/cp/hash_sha512_cp.c:266:5 ] ]
	bswapq	%rax
.Ltmp541:
	movq	%rax, 40(%r14)
.Ltmp542:
	#DEBUG_VALUE: be64enc_vect:i <- 6
	.loc	3 46 36                         # crypto_hash/sha512/cp/hash_sha512_cp.c:46:36 @[ crypto_hash/sha512/cp/hash_sha512_cp.c:266:5 ]
	movq	48(%rbx), %rax
.Ltmp543:
	#DEBUG_VALUE: store64_be:w <- $rax
	#DEBUG_VALUE: store64_be:dst <- [DW_OP_plus_uconst 48, DW_OP_stack_value] $r14
	.loc	7 168 12                        # ./include/sodium/private/common.h:168:12 @[ crypto_hash/sha512/cp/hash_sha512_cp.c:46:9 @[ crypto_hash/sha512/cp/hash_sha512_cp.c:266:5 ] ]
	bswapq	%rax
.Ltmp544:
	movq	%rax, 48(%r14)
.Ltmp545:
	#DEBUG_VALUE: be64enc_vect:i <- 7
	.loc	3 46 36                         # crypto_hash/sha512/cp/hash_sha512_cp.c:46:36 @[ crypto_hash/sha512/cp/hash_sha512_cp.c:266:5 ]
	movq	56(%rbx), %rax
.Ltmp546:
	#DEBUG_VALUE: store64_be:w <- $rax
	#DEBUG_VALUE: store64_be:dst <- [DW_OP_plus_uconst 56, DW_OP_stack_value] $r14
	.loc	7 168 12                        # ./include/sodium/private/common.h:168:12 @[ crypto_hash/sha512/cp/hash_sha512_cp.c:46:9 @[ crypto_hash/sha512/cp/hash_sha512_cp.c:266:5 ] ]
	bswapq	%rax
.Ltmp547:
	movq	%rax, 56(%r14)
.Ltmp548:
	#DEBUG_VALUE: be64enc_vect:i <- 8
	.loc	3 267 5                         # crypto_hash/sha512/cp/hash_sha512_cp.c:267:5
	movl	$704, %esi                      # imm = 0x2C0
	movq	%r15, %rdi
	callq	sodium_memzero@PLT
.Ltmp549:
	.loc	3 268 5                         # crypto_hash/sha512/cp/hash_sha512_cp.c:268:5
	movl	$208, %esi
	movq	%rbx, %rdi
	callq	sodium_memzero@PLT
.Ltmp550:
	.loc	3 270 5                         # crypto_hash/sha512/cp/hash_sha512_cp.c:270:5
	xorl	%eax, %eax
	.loc	3 270 5 epilogue_begin is_stmt 0 # crypto_hash/sha512/cp/hash_sha512_cp.c:270:5
	addq	$704, %rsp                      # imm = 0x2C0
.Ltmp551:
	#DEBUG_VALUE: SHA512_Pad:tmp64 <- $r15
	.cfi_def_cfa_offset 32
	popq	%rbx
.Ltmp552:
	#DEBUG_VALUE: crypto_hash_sha512_final:state <- [DW_OP_LLVM_entry_value 1] $rdi
	.cfi_def_cfa_offset 24
	popq	%r14
.Ltmp553:
	#DEBUG_VALUE: crypto_hash_sha512_final:out <- [DW_OP_LLVM_entry_value 1] $rsi
	.cfi_def_cfa_offset 16
	popq	%r15
.Ltmp554:
	.cfi_def_cfa_offset 8
	retq
.Ltmp555:
.Lfunc_end3:
	.size	crypto_hash_sha512_final, .Lfunc_end3-crypto_hash_sha512_final
	.cfi_endproc
	.file	8 "./include/sodium" "crypto_hash_sha512.h"
                                        # -- End function
	.globl	crypto_hash_sha512              # -- Begin function crypto_hash_sha512
	.p2align	4
	.type	crypto_hash_sha512,@function
crypto_hash_sha512:                     # @crypto_hash_sha512
.Lfunc_begin4:
	.loc	3 276 0 is_stmt 1               # crypto_hash/sha512/cp/hash_sha512_cp.c:276:0
	.cfi_startproc
# %bb.0:
	#DEBUG_VALUE: crypto_hash_sha512:out <- $rdi
	#DEBUG_VALUE: crypto_hash_sha512:in <- $rsi
	#DEBUG_VALUE: crypto_hash_sha512:inlen <- $rdx
	pushq	%r14
	.cfi_def_cfa_offset 16
	pushq	%rbx
	.cfi_def_cfa_offset 24
	subq	$216, %rsp
	.cfi_def_cfa_offset 240
	.cfi_offset %rbx, -24
	.cfi_offset %r14, -16
	movq	%rdi, %rbx
	movq	%fs:40, %rax
	movq	%rax, 208(%rsp)
.Ltmp556:
	#DEBUG_VALUE: crypto_hash_sha512_init:state <- $rsp
	#DEBUG_VALUE: memcpy:__dest <- $rsp
	#DEBUG_VALUE: memcpy:__len <- 64
	.loc	3 204 21 prologue_end           # crypto_hash/sha512/cp/hash_sha512_cp.c:204:21 @[ crypto_hash/sha512/cp/hash_sha512_cp.c:279:5 ]
	xorps	%xmm0, %xmm0
	movaps	%xmm0, 64(%rsp)
.Ltmp557:
	.loc	4 29 10                         # /usr/include/x86_64-linux-gnu/bits/string_fortified.h:29:10 @[ crypto_hash/sha512/cp/hash_sha512_cp.c:205:5 @[ crypto_hash/sha512/cp/hash_sha512_cp.c:279:5 ] ]
	movaps	crypto_hash_sha512_init.sha512_initial_state(%rip), %xmm0
	movaps	%xmm0, (%rsp)
	movaps	crypto_hash_sha512_init.sha512_initial_state+16(%rip), %xmm0
	movaps	%xmm0, 16(%rsp)
	movaps	crypto_hash_sha512_init.sha512_initial_state+32(%rip), %xmm0
	movaps	%xmm0, 32(%rsp)
	movaps	crypto_hash_sha512_init.sha512_initial_state+48(%rip), %xmm0
	movaps	%xmm0, 48(%rsp)
.Ltmp558:
	#DEBUG_VALUE: memcpy:__src <- undef
	.loc	4 0 10 is_stmt 0                # /usr/include/x86_64-linux-gnu/bits/string_fortified.h:0:10
	movq	%rsp, %r14
.Ltmp559:
	.loc	3 280 5 is_stmt 1               # crypto_hash/sha512/cp/hash_sha512_cp.c:280:5
	movq	%r14, %rdi
.Ltmp560:
	#DEBUG_VALUE: crypto_hash_sha512:out <- $rbx
	callq	crypto_hash_sha512_update
.Ltmp561:
	#DEBUG_VALUE: crypto_hash_sha512:inlen <- [DW_OP_LLVM_entry_value 1] $rdx
	#DEBUG_VALUE: crypto_hash_sha512:in <- [DW_OP_LLVM_entry_value 1] $rsi
	.loc	3 281 5                         # crypto_hash/sha512/cp/hash_sha512_cp.c:281:5
	movq	%r14, %rdi
	movq	%rbx, %rsi
	callq	crypto_hash_sha512_final
.Ltmp562:
	.loc	3 283 5                         # crypto_hash/sha512/cp/hash_sha512_cp.c:283:5
	movq	%fs:40, %rax
	cmpq	208(%rsp), %rax
	jne	.LBB4_2
.Ltmp563:
# %bb.1:                                # %SP_return
	#DEBUG_VALUE: crypto_hash_sha512:out <- $rbx
	#DEBUG_VALUE: crypto_hash_sha512:in <- [DW_OP_LLVM_entry_value 1] $rsi
	#DEBUG_VALUE: crypto_hash_sha512:inlen <- [DW_OP_LLVM_entry_value 1] $rdx
	xorl	%eax, %eax
	.loc	3 283 5 epilogue_begin is_stmt 0 # crypto_hash/sha512/cp/hash_sha512_cp.c:283:5
	addq	$216, %rsp
	.cfi_def_cfa_offset 24
	popq	%rbx
.Ltmp564:
	#DEBUG_VALUE: crypto_hash_sha512:out <- [DW_OP_LLVM_entry_value 1] $rdi
	.cfi_def_cfa_offset 16
	popq	%r14
	.cfi_def_cfa_offset 8
	retq
.Ltmp565:
.LBB4_2:                                # %CallStackCheckFailBlk
	.cfi_def_cfa_offset 240
	#DEBUG_VALUE: crypto_hash_sha512:out <- $rbx
	#DEBUG_VALUE: crypto_hash_sha512:in <- [DW_OP_LLVM_entry_value 1] $rsi
	#DEBUG_VALUE: crypto_hash_sha512:inlen <- [DW_OP_LLVM_entry_value 1] $rdx
	#DEBUG_VALUE: crypto_hash_sha512_init:state <- $r14
	#DEBUG_VALUE: memcpy:__dest <- $r14
	#DEBUG_VALUE: memcpy:__len <- 64
	.loc	3 0 0                           # crypto_hash/sha512/cp/hash_sha512_cp.c:0
	callq	__stack_chk_fail@PLT
.Ltmp566:
.Lfunc_end4:
	.size	crypto_hash_sha512, .Lfunc_end4-crypto_hash_sha512
	.cfi_endproc
                                        # -- End function
	.type	crypto_hash_sha512_init.sha512_initial_state,@object # @crypto_hash_sha512_init.sha512_initial_state
	.section	.rodata,"a",@progbits
	.p2align	4, 0x0
crypto_hash_sha512_init.sha512_initial_state:
	.quad	7640891576956012808             # 0x6a09e667f3bcc908
	.quad	-4942790177534073029            # 0xbb67ae8584caa73b
	.quad	4354685564936845355             # 0x3c6ef372fe94f82b
	.quad	-6534734903238641935            # 0xa54ff53a5f1d36f1
	.quad	5840696475078001361             # 0x510e527fade682d1
	.quad	-7276294671716946913            # 0x9b05688c2b3e6c1f
	.quad	2270897969802886507             # 0x1f83d9abfb41bd6b
	.quad	6620516959819538809             # 0x5be0cd19137e2179
	.size	crypto_hash_sha512_init.sha512_initial_state, 64

	.type	Krnd,@object                    # @Krnd
	.p2align	4, 0x0
Krnd:
	.quad	4794697086780616226             # 0x428a2f98d728ae22
	.quad	8158064640168781261             # 0x7137449123ef65cd
	.quad	-5349999486874862801            # 0xb5c0fbcfec4d3b2f
	.quad	-1606136188198331460            # 0xe9b5dba58189dbbc
	.quad	4131703408338449720             # 0x3956c25bf348b538
	.quad	6480981068601479193             # 0x59f111f1b605d019
	.quad	-7908458776815382629            # 0x923f82a4af194f9b
	.quad	-6116909921290321640            # 0xab1c5ed5da6d8118
	.quad	-2880145864133508542            # 0xd807aa98a3030242
	.quad	1334009975649890238             # 0x12835b0145706fbe
	.quad	2608012711638119052             # 0x243185be4ee4b28c
	.quad	6128411473006802146             # 0x550c7dc3d5ffb4e2
	.quad	8268148722764581231             # 0x72be5d74f27b896f
	.quad	-9160688886553864527            # 0x80deb1fe3b1696b1
	.quad	-7215885187991268811            # 0x9bdc06a725c71235
	.quad	-4495734319001033068            # 0xc19bf174cf692694
	.quad	-1973867731355612462            # 0xe49b69c19ef14ad2
	.quad	-1171420211273849373            # 0xefbe4786384f25e3
	.quad	1135362057144423861             # 0xfc19dc68b8cd5b5
	.quad	2597628984639134821             # 0x240ca1cc77ac9c65
	.quad	3308224258029322869             # 0x2de92c6f592b0275
	.quad	5365058923640841347             # 0x4a7484aa6ea6e483
	.quad	6679025012923562964             # 0x5cb0a9dcbd41fbd4
	.quad	8573033837759648693             # 0x76f988da831153b5
	.quad	-7476448914759557205            # 0x983e5152ee66dfab
	.quad	-6327057829258317296            # 0xa831c66d2db43210
	.quad	-5763719355590565569            # 0xb00327c898fb213f
	.quad	-4658551843659510044            # 0xbf597fc7beef0ee4
	.quad	-4116276920077217854            # 0xc6e00bf33da88fc2
	.quad	-3051310485924567259            # 0xd5a79147930aa725
	.quad	489312712824947311              # 0x6ca6351e003826f
	.quad	1452737877330783856             # 0x142929670a0e6e70
	.quad	2861767655752347644             # 0x27b70a8546d22ffc
	.quad	3322285676063803686             # 0x2e1b21385c26c926
	.quad	5560940570517711597             # 0x4d2c6dfc5ac42aed
	.quad	5996557281743188959             # 0x53380d139d95b3df
	.quad	7280758554555802590             # 0x650a73548baf63de
	.quad	8532644243296465576             # 0x766a0abb3c77b2a8
	.quad	-9096487096722542874            # 0x81c2c92e47edaee6
	.quad	-7894198246740708037            # 0x92722c851482353b
	.quad	-6719396339535248540            # 0xa2bfe8a14cf10364
	.quad	-6333637450476146687            # 0xa81a664bbc423001
	.quad	-4446306890439682159            # 0xc24b8b70d0f89791
	.quad	-4076793802049405392            # 0xc76c51a30654be30
	.quad	-3345356375505022440            # 0xd192e819d6ef5218
	.quad	-2983346525034927856            # 0xd69906245565a910
	.quad	-860691631967231958             # 0xf40e35855771202a
	.quad	1182934255886127544             # 0x106aa07032bbd1b8
	.quad	1847814050463011016             # 0x19a4c116b8d2d0c8
	.quad	2177327727835720531             # 0x1e376c085141ab53
	.quad	2830643537854262169             # 0x2748774cdf8eeb99
	.quad	3796741975233480872             # 0x34b0bcb5e19b48a8
	.quad	4115178125766777443             # 0x391c0cb3c5c95a63
	.quad	5681478168544905931             # 0x4ed8aa4ae3418acb
	.quad	6601373596472566643             # 0x5b9cca4f7763e373
	.quad	7507060721942968483             # 0x682e6ff3d6b2b8a3
	.quad	8399075790359081724             # 0x748f82ee5defb2fc
	.quad	8693463985226723168             # 0x78a5636f43172f60
	.quad	-8878714635349349518            # 0x84c87814a1f0ab72
	.quad	-8302665154208450068            # 0x8cc702081a6439ec
	.quad	-8016688836872298968            # 0x90befffa23631e28
	.quad	-6606660893046293015            # 0xa4506cebde82bde9
	.quad	-4685533653050689259            # 0xbef9a3f7b2c67915
	.quad	-4147400797238176981            # 0xc67178f2e372532b
	.quad	-3880063495543823972            # 0xca273eceea26619c
	.quad	-3348786107499101689            # 0xd186b8c721c0c207
	.quad	-1523767162380948706            # 0xeada7dd6cde0eb1e
	.quad	-757361751448694408             # 0xf57d4f7fee6ed178
	.quad	500013540394364858              # 0x6f067aa72176fba
	.quad	748580250866718886              # 0xa637dc5a2c898a6
	.quad	1242879168328830382             # 0x113f9804bef90dae
	.quad	1977374033974150939             # 0x1b710b35131c471b
	.quad	2944078676154940804             # 0x28db77f523047d84
	.quad	3659926193048069267             # 0x32caab7b40c72493
	.quad	4368137639120453308             # 0x3c9ebe0a15c9bebc
	.quad	4836135668995329356             # 0x431d67c49c100d4c
	.quad	5532061633213252278             # 0x4cc5d4becb3e42b6
	.quad	6448918945643986474             # 0x597f299cfc657e2a
	.quad	6902733635092675308             # 0x5fcb6fab3ad6faec
	.quad	7801388544844847127             # 0x6c44198c4a475817
	.size	Krnd, 640

	.type	PAD,@object                     # @PAD
	.p2align	4, 0x0
PAD:
	.byte	128                             # 0x80
	.zero	127
	.size	PAD, 128

	.section	".note.GNU-stack","",@progbits
	.addrsig
	.addrsig_sym __stack_chk_fail
	.addrsig_sym crypto_hash_sha512_init.sha512_initial_state