	.file	"kdf_hkdf_sha256.c"
	.file	0 "/home/leizhenyuu/opt/Anonymous_Repo/libsodium_o2_attr_inline/src/libsodium" "kdf_hkdf_sha256.c" md5 0xc9d59885b9a733264634d87631136789
	.file	1 "/home/leizhenyuu/opt/Anonymous_Repo" "llvm-project/build/lib/clang/21/include/__stddef_size_t.h"
	.text
	.globl	crypto_kdf_hkdf_sha256_extract_init # -- Begin function crypto_kdf_hkdf_sha256_extract_init
	.p2align	4
	.type	crypto_kdf_hkdf_sha256_extract_init,@function
crypto_kdf_hkdf_sha256_extract_init:    # @crypto_kdf_hkdf_sha256_extract_init
.Lfunc_begin0:
	.cfi_startproc
# %bb.0:
	#DEBUG_VALUE: crypto_kdf_hkdf_sha256_extract_init:state <- $rdi
	#DEBUG_VALUE: crypto_kdf_hkdf_sha256_extract_init:salt <- $rsi
	#DEBUG_VALUE: crypto_kdf_hkdf_sha256_extract_init:salt_len <- $rdx
	.file	2 "crypto_kdf/hkdf" "kdf_hkdf_sha256.c"
	.loc	2 14 12 prologue_end            # crypto_kdf/hkdf/kdf_hkdf_sha256.c:14:12
	jmp	crypto_auth_hmacsha256_init@PLT # TAILCALL
.Ltmp0:
.Lfunc_end0:
	.size	crypto_kdf_hkdf_sha256_extract_init, .Lfunc_end0-crypto_kdf_hkdf_sha256_extract_init
	.cfi_endproc
	.file	3 "./include/sodium" "crypto_auth_hmacsha256.h"
	.file	4 "/usr/include/x86_64-linux-gnu/bits" "types.h"
	.file	5 "/usr/include/x86_64-linux-gnu/bits" "stdint-uintn.h"
	.file	6 "./include/sodium" "crypto_hash_sha256.h"
                                        # -- End function
	.globl	crypto_kdf_hkdf_sha256_extract_update # -- Begin function crypto_kdf_hkdf_sha256_extract_update
	.p2align	4
	.type	crypto_kdf_hkdf_sha256_extract_update,@function
crypto_kdf_hkdf_sha256_extract_update:  # @crypto_kdf_hkdf_sha256_extract_update
.Lfunc_begin1:
	.cfi_startproc
# %bb.0:
	#DEBUG_VALUE: crypto_kdf_hkdf_sha256_extract_update:state <- $rdi
	#DEBUG_VALUE: crypto_kdf_hkdf_sha256_extract_update:ikm <- $rsi
	#DEBUG_VALUE: crypto_kdf_hkdf_sha256_extract_update:ikm_len <- $rdx
	.loc	2 21 12 prologue_end            # crypto_kdf/hkdf/kdf_hkdf_sha256.c:21:12
	jmp	crypto_auth_hmacsha256_update@PLT # TAILCALL
.Ltmp1:
.Lfunc_end1:
	.size	crypto_kdf_hkdf_sha256_extract_update, .Lfunc_end1-crypto_kdf_hkdf_sha256_extract_update
	.cfi_endproc
                                        # -- End function
	.globl	crypto_kdf_hkdf_sha256_extract_final # -- Begin function crypto_kdf_hkdf_sha256_extract_final
	.p2align	4
	.type	crypto_kdf_hkdf_sha256_extract_final,@function
crypto_kdf_hkdf_sha256_extract_final:   # @crypto_kdf_hkdf_sha256_extract_final
.Lfunc_begin2:
	.loc	2 27 0                          # crypto_kdf/hkdf/kdf_hkdf_sha256.c:27:0
	.cfi_startproc
# %bb.0:
	#DEBUG_VALUE: crypto_kdf_hkdf_sha256_extract_final:state <- $rdi
	#DEBUG_VALUE: crypto_kdf_hkdf_sha256_extract_final:prk <- $rsi
	pushq	%rbx
	.cfi_def_cfa_offset 16
	.cfi_offset %rbx, -16
	movq	%rdi, %rbx
.Ltmp2:
	.loc	2 28 5 prologue_end             # crypto_kdf/hkdf/kdf_hkdf_sha256.c:28:5
	callq	crypto_auth_hmacsha256_final@PLT
.Ltmp3:
	#DEBUG_VALUE: crypto_kdf_hkdf_sha256_extract_final:prk <- [DW_OP_LLVM_entry_value 1] $rsi
	#DEBUG_VALUE: crypto_kdf_hkdf_sha256_extract_final:state <- $rbx
	.loc	2 29 5                          # crypto_kdf/hkdf/kdf_hkdf_sha256.c:29:5
	movl	$8, %esi
	movq	%rbx, %rdi
	callq	sodium_memzero@PLT
.Ltmp4:
	.loc	2 31 5                          # crypto_kdf/hkdf/kdf_hkdf_sha256.c:31:5
	xorl	%eax, %eax
	.loc	2 31 5 epilogue_begin is_stmt 0 # crypto_kdf/hkdf/kdf_hkdf_sha256.c:31:5
	popq	%rbx
.Ltmp5:
	#DEBUG_VALUE: crypto_kdf_hkdf_sha256_extract_final:state <- [DW_OP_LLVM_entry_value 1] $rdi
	.cfi_def_cfa_offset 8
	retq
.Ltmp6:
.Lfunc_end2:
	.size	crypto_kdf_hkdf_sha256_extract_final, .Lfunc_end2-crypto_kdf_hkdf_sha256_extract_final
	.cfi_endproc
	.file	7 "./include/sodium" "utils.h"
                                        # -- End function
	.globl	crypto_kdf_hkdf_sha256_extract  # -- Begin function crypto_kdf_hkdf_sha256_extract
	.p2align	4
	.type	crypto_kdf_hkdf_sha256_extract,@function
crypto_kdf_hkdf_sha256_extract:         # @crypto_kdf_hkdf_sha256_extract
.Lfunc_begin3:
	.loc	2 39 0 is_stmt 1                # crypto_kdf/hkdf/kdf_hkdf_sha256.c:39:0
	.cfi_startproc
# %bb.0:
	#DEBUG_VALUE: crypto_kdf_hkdf_sha256_extract:prk <- $rdi
	#DEBUG_VALUE: crypto_kdf_hkdf_sha256_extract:salt <- $rsi
	#DEBUG_VALUE: crypto_kdf_hkdf_sha256_extract:salt_len <- $rdx
	#DEBUG_VALUE: crypto_kdf_hkdf_sha256_extract:ikm <- $rcx
	#DEBUG_VALUE: crypto_kdf_hkdf_sha256_extract:ikm_len <- $r8
	pushq	%r15
	.cfi_def_cfa_offset 16
	pushq	%r14
	.cfi_def_cfa_offset 24
	pushq	%r12
	.cfi_def_cfa_offset 32
	pushq	%rbx
	.cfi_def_cfa_offset 40
	subq	$216, %rsp
	.cfi_def_cfa_offset 256
	.cfi_offset %rbx, -40
	.cfi_offset %r12, -32
	.cfi_offset %r14, -24
	.cfi_offset %r15, -16
	movq	%r8, %rbx
	movq	%rcx, %r14
	movq	%rdi, %r15
	movq	%fs:40, %rax
	movq	%rax, 208(%rsp)
.Ltmp7:
	#DEBUG_VALUE: crypto_kdf_hkdf_sha256_extract_init:state <- $rsp
	#DEBUG_VALUE: crypto_kdf_hkdf_sha256_extract_init:salt <- $rsi
	#DEBUG_VALUE: crypto_kdf_hkdf_sha256_extract_init:salt_len <- $rdx
	movq	%rsp, %r12
.Ltmp8:
	.loc	2 14 12 prologue_end            # crypto_kdf/hkdf/kdf_hkdf_sha256.c:14:12 @[ crypto_kdf/hkdf/kdf_hkdf_sha256.c:42:5 ]
	movq	%r12, %rdi
.Ltmp9:
	#DEBUG_VALUE: crypto_kdf_hkdf_sha256_extract:prk <- $r15
	callq	crypto_auth_hmacsha256_init@PLT
.Ltmp10:
	#DEBUG_VALUE: crypto_kdf_hkdf_sha256_extract:ikm_len <- $rbx
	#DEBUG_VALUE: crypto_kdf_hkdf_sha256_extract:ikm <- $r14
	#DEBUG_VALUE: crypto_kdf_hkdf_sha256_extract:salt_len <- [DW_OP_LLVM_entry_value 1] $rdx
	#DEBUG_VALUE: crypto_kdf_hkdf_sha256_extract:salt <- [DW_OP_LLVM_entry_value 1] $rsi
	#DEBUG_VALUE: crypto_kdf_hkdf_sha256_extract_update:state <- $rsp
	#DEBUG_VALUE: crypto_kdf_hkdf_sha256_extract_update:ikm <- $r14
	#DEBUG_VALUE: crypto_kdf_hkdf_sha256_extract_update:ikm_len <- $rbx
	.loc	2 21 12                         # crypto_kdf/hkdf/kdf_hkdf_sha256.c:21:12 @[ crypto_kdf/hkdf/kdf_hkdf_sha256.c:43:5 ]
	movq	%r12, %rdi
	movq	%r14, %rsi
	movq	%rbx, %rdx
	callq	crypto_auth_hmacsha256_update@PLT
.Ltmp11:
	#DEBUG_VALUE: crypto_kdf_hkdf_sha256_extract_final:state <- $rsp
	#DEBUG_VALUE: crypto_kdf_hkdf_sha256_extract_final:prk <- $r15
	.loc	2 28 5                          # crypto_kdf/hkdf/kdf_hkdf_sha256.c:28:5 @[ crypto_kdf/hkdf/kdf_hkdf_sha256.c:45:12 ]
	movq	%r12, %rdi
	movq	%r15, %rsi
	callq	crypto_auth_hmacsha256_final@PLT
.Ltmp12:
	.loc	2 29 5                          # crypto_kdf/hkdf/kdf_hkdf_sha256.c:29:5 @[ crypto_kdf/hkdf/kdf_hkdf_sha256.c:45:12 ]
	movl	$8, %esi
	movq	%r12, %rdi
	callq	sodium_memzero@PLT
.Ltmp13:
	.loc	2 45 5                          # crypto_kdf/hkdf/kdf_hkdf_sha256.c:45:5
	movq	%fs:40, %rax
	cmpq	208(%rsp), %rax
	jne	.LBB3_2
.Ltmp14:
# %bb.1:                                # %SP_return
	#DEBUG_VALUE: crypto_kdf_hkdf_sha256_extract:prk <- $r15
	#DEBUG_VALUE: crypto_kdf_hkdf_sha256_extract:salt <- [DW_OP_LLVM_entry_value 1] $rsi
	#DEBUG_VALUE: crypto_kdf_hkdf_sha256_extract:salt_len <- [DW_OP_LLVM_entry_value 1] $rdx
	#DEBUG_VALUE: crypto_kdf_hkdf_sha256_extract:ikm <- $r14
	#DEBUG_VALUE: crypto_kdf_hkdf_sha256_extract:ikm_len <- $rbx
	xorl	%eax, %eax
	.loc	2 45 5 epilogue_begin is_stmt 0 # crypto_kdf/hkdf/kdf_hkdf_sha256.c:45:5
	addq	$216, %rsp
	.cfi_def_cfa_offset 40
	popq	%rbx
.Ltmp15:
	#DEBUG_VALUE: crypto_kdf_hkdf_sha256_extract:ikm_len <- [DW_OP_LLVM_entry_value 1] $r8
	.cfi_def_cfa_offset 32
	popq	%r12
	.cfi_def_cfa_offset 24
	popq	%r14
.Ltmp16:
	#DEBUG_VALUE: crypto_kdf_hkdf_sha256_extract:ikm <- [DW_OP_LLVM_entry_value 1] $rcx
	.cfi_def_cfa_offset 16
	popq	%r15
.Ltmp17:
	#DEBUG_VALUE: crypto_kdf_hkdf_sha256_extract:prk <- [DW_OP_LLVM_entry_value 1] $rdi
	.cfi_def_cfa_offset 8
	retq
.Ltmp18:
.LBB3_2:                                # %CallStackCheckFailBlk
	.cfi_def_cfa_offset 256
	#DEBUG_VALUE: crypto_kdf_hkdf_sha256_extract:prk <- $r15
	#DEBUG_VALUE: crypto_kdf_hkdf_sha256_extract:salt <- [DW_OP_LLVM_entry_value 1] $rsi
	#DEBUG_VALUE: crypto_kdf_hkdf_sha256_extract:salt_len <- [DW_OP_LLVM_entry_value 1] $rdx
	#DEBUG_VALUE: crypto_kdf_hkdf_sha256_extract:ikm <- $r14
	#DEBUG_VALUE: crypto_kdf_hkdf_sha256_extract:ikm_len <- $rbx
	#DEBUG_VALUE: crypto_kdf_hkdf_sha256_extract_init:state <- $r12
	#DEBUG_VALUE: crypto_kdf_hkdf_sha256_extract_update:state <- $r12
	#DEBUG_VALUE: crypto_kdf_hkdf_sha256_extract_update:ikm <- $r14
	#DEBUG_VALUE: crypto_kdf_hkdf_sha256_extract_update:ikm_len <- $rbx
	#DEBUG_VALUE: crypto_kdf_hkdf_sha256_extract_final:state <- $r12
	#DEBUG_VALUE: crypto_kdf_hkdf_sha256_extract_final:prk <- $r15
	.loc	2 0 0                           # crypto_kdf/hkdf/kdf_hkdf_sha256.c:0
	callq	__stack_chk_fail@PLT
.Ltmp19:
.Lfunc_end3:
	.size	crypto_kdf_hkdf_sha256_extract, .Lfunc_end3-crypto_kdf_hkdf_sha256_extract
	.cfi_endproc
	.file	8 "./include/sodium" "crypto_kdf_hkdf_sha256.h"
                                        # -- End function
	.globl	crypto_kdf_hkdf_sha256_keygen   # -- Begin function crypto_kdf_hkdf_sha256_keygen
	.p2align	4
	.type	crypto_kdf_hkdf_sha256_keygen,@function
crypto_kdf_hkdf_sha256_keygen:          # @crypto_kdf_hkdf_sha256_keygen
.Lfunc_begin4:
	.cfi_startproc
# %bb.0:
	#DEBUG_VALUE: crypto_kdf_hkdf_sha256_keygen:prk <- $rdi
	.loc	2 51 5 prologue_end is_stmt 1   # crypto_kdf/hkdf/kdf_hkdf_sha256.c:51:5
	movl	$32, %esi
.Ltmp20:
	jmp	randombytes_buf@PLT             # TAILCALL
.Ltmp21:
.Lfunc_end4:
	.size	crypto_kdf_hkdf_sha256_keygen, .Lfunc_end4-crypto_kdf_hkdf_sha256_keygen
	.cfi_endproc
	.file	9 "./include/sodium" "randombytes.h"
                                        # -- End function
	.globl	crypto_kdf_hkdf_sha256_expand   # -- Begin function crypto_kdf_hkdf_sha256_expand
	.p2align	4
	.type	crypto_kdf_hkdf_sha256_expand,@function
crypto_kdf_hkdf_sha256_expand:          # @crypto_kdf_hkdf_sha256_expand
.Lfunc_begin5:
	.loc	2 58 0                          # crypto_kdf/hkdf/kdf_hkdf_sha256.c:58:0
	.cfi_startproc
# %bb.0:
	#DEBUG_VALUE: crypto_kdf_hkdf_sha256_expand:out <- $rdi
	#DEBUG_VALUE: crypto_kdf_hkdf_sha256_expand:out_len <- $rsi
	#DEBUG_VALUE: crypto_kdf_hkdf_sha256_expand:ctx <- $rdx
	#DEBUG_VALUE: crypto_kdf_hkdf_sha256_expand:ctx_len <- $rcx
	#DEBUG_VALUE: crypto_kdf_hkdf_sha256_expand:prk <- $r8
	pushq	%rbp
	.cfi_def_cfa_offset 16
	pushq	%r15
	.cfi_def_cfa_offset 24
	pushq	%r14
	.cfi_def_cfa_offset 32
	pushq	%r13
	.cfi_def_cfa_offset 40
	pushq	%r12
	.cfi_def_cfa_offset 48
	pushq	%rbx
	.cfi_def_cfa_offset 56
	subq	$280, %rsp                      # imm = 0x118
	.cfi_def_cfa_offset 336
	.cfi_offset %rbx, -56
	.cfi_offset %r12, -48
	.cfi_offset %r13, -40
	.cfi_offset %r14, -32
	.cfi_offset %r15, -24
	.cfi_offset %rbp, -16
	movq	%rcx, 16(%rsp)                  # 8-byte Spill
.Ltmp22:
	#DEBUG_VALUE: crypto_kdf_hkdf_sha256_expand:ctx_len <- [DW_OP_plus_uconst 16] [$rsp+0]
	movq	%rdx, 8(%rsp)                   # 8-byte Spill
.Ltmp23:
	#DEBUG_VALUE: crypto_kdf_hkdf_sha256_expand:ctx <- [DW_OP_plus_uconst 8] [$rsp+0]
	movq	%fs:40, %rax
	movq	%rax, 272(%rsp)
.Ltmp24:
	.loc	2 63 19 prologue_end            # crypto_kdf/hkdf/kdf_hkdf_sha256.c:63:19
	movb	$1, 7(%rsp)
.Ltmp25:
	.loc	2 65 17                         # crypto_kdf/hkdf/kdf_hkdf_sha256.c:65:17
	cmpq	$8160, %rsi                     # imm = 0x1FE0
	jbe	.LBB5_1
.Ltmp26:
# %bb.3:
	#DEBUG_VALUE: crypto_kdf_hkdf_sha256_expand:out <- $rdi
	#DEBUG_VALUE: crypto_kdf_hkdf_sha256_expand:out_len <- $rsi
	#DEBUG_VALUE: crypto_kdf_hkdf_sha256_expand:ctx <- [DW_OP_plus_uconst 8] [$rsp+0]
	#DEBUG_VALUE: crypto_kdf_hkdf_sha256_expand:ctx_len <- [DW_OP_plus_uconst 16] [$rsp+0]
	#DEBUG_VALUE: crypto_kdf_hkdf_sha256_expand:prk <- $r8
	.loc	2 66 11                         # crypto_kdf/hkdf/kdf_hkdf_sha256.c:66:11
	callq	__errno_location@PLT
.Ltmp27:
	#DEBUG_VALUE: crypto_kdf_hkdf_sha256_expand:prk <- [DW_OP_LLVM_entry_value 1] $r8
	#DEBUG_VALUE: crypto_kdf_hkdf_sha256_expand:out_len <- [DW_OP_LLVM_entry_value 1] $rsi
	#DEBUG_VALUE: crypto_kdf_hkdf_sha256_expand:out <- [DW_OP_LLVM_entry_value 1] $rdi
	.loc	2 66 32 is_stmt 0               # crypto_kdf/hkdf/kdf_hkdf_sha256.c:66:32
	movl	$22, (%rax)
	movl	$-1, %eax
	.loc	2 67 9 is_stmt 1                # crypto_kdf/hkdf/kdf_hkdf_sha256.c:67:9
	jmp	.LBB5_14
.Ltmp28:
.LBB5_1:                                # %.preheader
	#DEBUG_VALUE: crypto_kdf_hkdf_sha256_expand:out <- $rdi
	#DEBUG_VALUE: crypto_kdf_hkdf_sha256_expand:out_len <- $rsi
	#DEBUG_VALUE: crypto_kdf_hkdf_sha256_expand:ctx <- [DW_OP_plus_uconst 8] [$rsp+0]
	#DEBUG_VALUE: crypto_kdf_hkdf_sha256_expand:ctx_len <- [DW_OP_plus_uconst 16] [$rsp+0]
	#DEBUG_VALUE: crypto_kdf_hkdf_sha256_expand:prk <- $r8
	.loc	2 0 9 is_stmt 0                 # crypto_kdf/hkdf/kdf_hkdf_sha256.c:0:9
	movq	%r8, %r13
	movq	%rsi, %rbx
	movq	%rdi, %rbp
.Ltmp29:
	#DEBUG_VALUE: crypto_kdf_hkdf_sha256_expand:i <- 0
	.loc	2 69 35 is_stmt 1               # crypto_kdf/hkdf/kdf_hkdf_sha256.c:69:35
	cmpq	$32, %rsi
.Ltmp30:
	.loc	2 69 5 is_stmt 0                # crypto_kdf/hkdf/kdf_hkdf_sha256.c:69:5
	jae	.LBB5_4
.Ltmp31:
# %bb.2:
	#DEBUG_VALUE: crypto_kdf_hkdf_sha256_expand:out <- $rbp
	#DEBUG_VALUE: crypto_kdf_hkdf_sha256_expand:out_len <- $rbx
	#DEBUG_VALUE: crypto_kdf_hkdf_sha256_expand:ctx <- [DW_OP_plus_uconst 8] [$rsp+0]
	#DEBUG_VALUE: crypto_kdf_hkdf_sha256_expand:ctx_len <- [DW_OP_plus_uconst 16] [$rsp+0]
	#DEBUG_VALUE: crypto_kdf_hkdf_sha256_expand:prk <- $r13
	#DEBUG_VALUE: crypto_kdf_hkdf_sha256_expand:i <- 0
	.loc	2 0 5                           # crypto_kdf/hkdf/kdf_hkdf_sha256.c:0:5
	xorl	%r15d, %r15d
.Ltmp32:
	.loc	2 83 39 is_stmt 1               # crypto_kdf/hkdf/kdf_hkdf_sha256.c:83:39
	andq	$31, %rbx
.Ltmp33:
	#DEBUG_VALUE: crypto_kdf_hkdf_sha256_expand:out_len <- $rsi
	#DEBUG_VALUE: crypto_kdf_hkdf_sha256_expand:left <- $rbx
	jne	.LBB5_10
	jmp	.LBB5_13
.Ltmp34:
.LBB5_4:                                # %.lr.ph.preheader
	#DEBUG_VALUE: crypto_kdf_hkdf_sha256_expand:out <- $rbp
	#DEBUG_VALUE: crypto_kdf_hkdf_sha256_expand:out_len <- $rbx
	#DEBUG_VALUE: crypto_kdf_hkdf_sha256_expand:ctx <- [DW_OP_plus_uconst 8] [$rsp+0]
	#DEBUG_VALUE: crypto_kdf_hkdf_sha256_expand:ctx_len <- [DW_OP_plus_uconst 16] [$rsp+0]
	#DEBUG_VALUE: crypto_kdf_hkdf_sha256_expand:prk <- $r13
	#DEBUG_VALUE: crypto_kdf_hkdf_sha256_expand:i <- 0
	.loc	2 0 39 is_stmt 0                # crypto_kdf/hkdf/kdf_hkdf_sha256.c:0:39
	movl	$32, %r12d
	xorl	%r15d, %r15d
	movq	%rbp, %r14
.Ltmp35:
	#DEBUG_VALUE: crypto_kdf_hkdf_sha256_expand:out <- $r14
	leaq	64(%rsp), %rbp
	movq	%r14, 24(%rsp)                  # 8-byte Spill
.Ltmp36:
	#DEBUG_VALUE: crypto_kdf_hkdf_sha256_expand:out <- [DW_OP_plus_uconst 24] [$rsp+0]
	jmp	.LBB5_5
.Ltmp37:
	.p2align	4
.LBB5_7:                                #   in Loop: Header=BB5_5 Depth=1
	#DEBUG_VALUE: crypto_kdf_hkdf_sha256_expand:out <- [DW_OP_plus_uconst 24] [$rsp+0]
	#DEBUG_VALUE: crypto_kdf_hkdf_sha256_expand:out_len <- $rbx
	#DEBUG_VALUE: crypto_kdf_hkdf_sha256_expand:ctx <- [DW_OP_plus_uconst 8] [$rsp+0]
	#DEBUG_VALUE: crypto_kdf_hkdf_sha256_expand:ctx_len <- [DW_OP_plus_uconst 16] [$rsp+0]
	#DEBUG_VALUE: crypto_kdf_hkdf_sha256_expand:prk <- $r13
	#DEBUG_VALUE: crypto_kdf_hkdf_sha256_expand:i <- [DW_OP_consts 18446744073709551584, DW_OP_div, DW_OP_consts 32, DW_OP_mul, DW_OP_stack_value] $r15
	.loc	2 77 9 is_stmt 1                # crypto_kdf/hkdf/kdf_hkdf_sha256.c:77:9
	movq	%rbp, %rdi
	movq	8(%rsp), %rsi                   # 8-byte Reload
	movq	16(%rsp), %rdx                  # 8-byte Reload
	callq	crypto_auth_hmacsha256_update@PLT
.Ltmp38:
	.loc	2 79 9                          # crypto_kdf/hkdf/kdf_hkdf_sha256.c:79:9
	movl	$1, %edx
	movq	%rbp, %rdi
	leaq	7(%rsp), %rsi
	callq	crypto_auth_hmacsha256_update@PLT
.Ltmp39:
	.loc	2 80 9                          # crypto_kdf/hkdf/kdf_hkdf_sha256.c:80:9
	movq	%rbp, %rdi
	movq	%r14, %rsi
	callq	crypto_auth_hmacsha256_final@PLT
.Ltmp40:
	.loc	2 81 16                         # crypto_kdf/hkdf/kdf_hkdf_sha256.c:81:16
	incb	7(%rsp)
.Ltmp41:
	#DEBUG_VALUE: crypto_kdf_hkdf_sha256_expand:i <- $r12
	.loc	2 69 29                         # crypto_kdf/hkdf/kdf_hkdf_sha256.c:69:29
	addq	$32, %r12
.Ltmp42:
	.loc	2 69 35 is_stmt 0               # crypto_kdf/hkdf/kdf_hkdf_sha256.c:69:35
	addq	$-32, %r15
	addq	$32, %r14
	cmpq	%rbx, %r12
.Ltmp43:
	.loc	2 69 5                          # crypto_kdf/hkdf/kdf_hkdf_sha256.c:69:5
	ja	.LBB5_8
.Ltmp44:
.LBB5_5:                                # %.lr.ph
                                        # =>This Inner Loop Header: Depth=1
	#DEBUG_VALUE: crypto_kdf_hkdf_sha256_expand:out <- [DW_OP_plus_uconst 24] [$rsp+0]
	#DEBUG_VALUE: crypto_kdf_hkdf_sha256_expand:out_len <- $rbx
	#DEBUG_VALUE: crypto_kdf_hkdf_sha256_expand:ctx <- [DW_OP_plus_uconst 8] [$rsp+0]
	#DEBUG_VALUE: crypto_kdf_hkdf_sha256_expand:ctx_len <- [DW_OP_plus_uconst 16] [$rsp+0]
	#DEBUG_VALUE: crypto_kdf_hkdf_sha256_expand:prk <- $r13
	#DEBUG_VALUE: crypto_kdf_hkdf_sha256_expand:i <- [DW_OP_consts 18446744073709551584, DW_OP_div, DW_OP_consts 32, DW_OP_mul, DW_OP_stack_value] $r15
	.loc	2 71 9 is_stmt 1                # crypto_kdf/hkdf/kdf_hkdf_sha256.c:71:9
	movl	$32, %edx
	movq	%rbp, %rdi
	movq	%r13, %rsi
	callq	crypto_auth_hmacsha256_init@PLT
.Ltmp45:
	.loc	2 72 15                         # crypto_kdf/hkdf/kdf_hkdf_sha256.c:72:15
	testq	%r15, %r15
	je	.LBB5_7
.Ltmp46:
# %bb.6:                                #   in Loop: Header=BB5_5 Depth=1
	#DEBUG_VALUE: crypto_kdf_hkdf_sha256_expand:out <- [DW_OP_plus_uconst 24] [$rsp+0]
	#DEBUG_VALUE: crypto_kdf_hkdf_sha256_expand:out_len <- $rbx
	#DEBUG_VALUE: crypto_kdf_hkdf_sha256_expand:ctx <- [DW_OP_plus_uconst 8] [$rsp+0]
	#DEBUG_VALUE: crypto_kdf_hkdf_sha256_expand:ctx_len <- [DW_OP_plus_uconst 16] [$rsp+0]
	#DEBUG_VALUE: crypto_kdf_hkdf_sha256_expand:prk <- $r13
	#DEBUG_VALUE: crypto_kdf_hkdf_sha256_expand:i <- [DW_OP_consts 18446744073709551584, DW_OP_div, DW_OP_consts 32, DW_OP_mul, DW_OP_stack_value] $r15
	.loc	2 73 13                         # crypto_kdf/hkdf/kdf_hkdf_sha256.c:73:13
	leaq	-32(%r14), %rsi
	movl	$32, %edx
	movq	%rbp, %rdi
	callq	crypto_auth_hmacsha256_update@PLT
.Ltmp47:
	.loc	2 0 13 is_stmt 0                # crypto_kdf/hkdf/kdf_hkdf_sha256.c:0:13
	jmp	.LBB5_7
.Ltmp48:
.LBB5_8:                                # %._crit_edge.loopexit
	#DEBUG_VALUE: crypto_kdf_hkdf_sha256_expand:out <- [DW_OP_plus_uconst 24] [$rsp+0]
	#DEBUG_VALUE: crypto_kdf_hkdf_sha256_expand:out_len <- $rbx
	#DEBUG_VALUE: crypto_kdf_hkdf_sha256_expand:ctx <- [DW_OP_plus_uconst 8] [$rsp+0]
	#DEBUG_VALUE: crypto_kdf_hkdf_sha256_expand:ctx_len <- [DW_OP_plus_uconst 16] [$rsp+0]
	#DEBUG_VALUE: crypto_kdf_hkdf_sha256_expand:prk <- $r13
	.loc	2 83 25 is_stmt 1               # crypto_kdf/hkdf/kdf_hkdf_sha256.c:83:25
	negq	%r15
	movq	24(%rsp), %rbp                  # 8-byte Reload
	.loc	2 83 39 is_stmt 0               # crypto_kdf/hkdf/kdf_hkdf_sha256.c:83:39
	andq	$31, %rbx
.Ltmp49:
	#DEBUG_VALUE: crypto_kdf_hkdf_sha256_expand:out_len <- [DW_OP_LLVM_entry_value 1] $rsi
	#DEBUG_VALUE: crypto_kdf_hkdf_sha256_expand:left <- undef
	je	.LBB5_13
.Ltmp50:
.LBB5_10:
	#DEBUG_VALUE: crypto_kdf_hkdf_sha256_expand:out <- $rbp
	#DEBUG_VALUE: crypto_kdf_hkdf_sha256_expand:out_len <- [DW_OP_LLVM_entry_value 1] $rsi
	#DEBUG_VALUE: crypto_kdf_hkdf_sha256_expand:ctx <- [DW_OP_plus_uconst 8] [$rsp+0]
	#DEBUG_VALUE: crypto_kdf_hkdf_sha256_expand:ctx_len <- [DW_OP_plus_uconst 16] [$rsp+0]
	#DEBUG_VALUE: crypto_kdf_hkdf_sha256_expand:prk <- $r13
	.loc	2 0 39                          # crypto_kdf/hkdf/kdf_hkdf_sha256.c:0:39
	leaq	64(%rsp), %rdi
.Ltmp51:
	.loc	2 84 9 is_stmt 1                # crypto_kdf/hkdf/kdf_hkdf_sha256.c:84:9
	movl	$32, %edx
	movq	%r13, %rsi
	callq	crypto_auth_hmacsha256_init@PLT
.Ltmp52:
	.loc	2 85 15                         # crypto_kdf/hkdf/kdf_hkdf_sha256.c:85:15
	testq	%r15, %r15
	je	.LBB5_12
.Ltmp53:
# %bb.11:
	#DEBUG_VALUE: crypto_kdf_hkdf_sha256_expand:out <- $rbp
	#DEBUG_VALUE: crypto_kdf_hkdf_sha256_expand:out_len <- [DW_OP_LLVM_entry_value 1] $rsi
	#DEBUG_VALUE: crypto_kdf_hkdf_sha256_expand:ctx <- [DW_OP_plus_uconst 8] [$rsp+0]
	#DEBUG_VALUE: crypto_kdf_hkdf_sha256_expand:ctx_len <- [DW_OP_plus_uconst 16] [$rsp+0]
	#DEBUG_VALUE: crypto_kdf_hkdf_sha256_expand:prk <- $r13
	.loc	2 87 44                         # crypto_kdf/hkdf/kdf_hkdf_sha256.c:87:44
	leaq	(%r15,%rbp), %rsi
	addq	$-32, %rsi
	leaq	64(%rsp), %rdi
	.loc	2 86 13                         # crypto_kdf/hkdf/kdf_hkdf_sha256.c:86:13
	movl	$32, %edx
	callq	crypto_auth_hmacsha256_update@PLT
.Ltmp54:
.LBB5_12:
	#DEBUG_VALUE: crypto_kdf_hkdf_sha256_expand:out <- $rbp
	#DEBUG_VALUE: crypto_kdf_hkdf_sha256_expand:out_len <- [DW_OP_LLVM_entry_value 1] $rsi
	#DEBUG_VALUE: crypto_kdf_hkdf_sha256_expand:ctx <- [DW_OP_plus_uconst 8] [$rsp+0]
	#DEBUG_VALUE: crypto_kdf_hkdf_sha256_expand:ctx_len <- [DW_OP_plus_uconst 16] [$rsp+0]
	#DEBUG_VALUE: crypto_kdf_hkdf_sha256_expand:prk <- $r13
	.loc	2 0 13 is_stmt 0                # crypto_kdf/hkdf/kdf_hkdf_sha256.c:0:13
	leaq	64(%rsp), %r14
	.loc	2 90 9 is_stmt 1                # crypto_kdf/hkdf/kdf_hkdf_sha256.c:90:9
	movq	%r14, %rdi
	movq	8(%rsp), %rsi                   # 8-byte Reload
	movq	16(%rsp), %rdx                  # 8-byte Reload
	callq	crypto_auth_hmacsha256_update@PLT
.Ltmp55:
	.loc	2 0 9 is_stmt 0                 # crypto_kdf/hkdf/kdf_hkdf_sha256.c:0:9
	leaq	7(%rsp), %rsi
	.loc	2 92 9 is_stmt 1                # crypto_kdf/hkdf/kdf_hkdf_sha256.c:92:9
	movl	$1, %edx
	movq	%r14, %rdi
	callq	crypto_auth_hmacsha256_update@PLT
.Ltmp56:
	.loc	2 0 9 is_stmt 0                 # crypto_kdf/hkdf/kdf_hkdf_sha256.c:0:9
	leaq	32(%rsp), %r12
	.loc	2 93 9 is_stmt 1                # crypto_kdf/hkdf/kdf_hkdf_sha256.c:93:9
	movq	%r14, %rdi
	movq	%r12, %rsi
	callq	crypto_auth_hmacsha256_final@PLT
.Ltmp57:
	.loc	2 94 17                         # crypto_kdf/hkdf/kdf_hkdf_sha256.c:94:17
	addq	%r15, %rbp
.Ltmp58:
	#DEBUG_VALUE: crypto_kdf_hkdf_sha256_expand:out <- [DW_OP_LLVM_entry_value 1] $rdi
	#DEBUG_VALUE: memcpy:__dest <- $rbp
	#DEBUG_VALUE: memcpy:__src <- [DW_OP_plus_uconst 32, DW_OP_stack_value] $rsp
	#DEBUG_VALUE: memcpy:__len <- undef
	.file	10 "/usr/include/x86_64-linux-gnu/bits" "string_fortified.h"
	.loc	10 29 10                        # /usr/include/x86_64-linux-gnu/bits/string_fortified.h:29:10 @[ crypto_kdf/hkdf/kdf_hkdf_sha256.c:94:9 ]
	movq	%rbp, %rdi
	movq	%r12, %rsi
	movq	%rbx, %rdx
	callq	memcpy@PLT
.Ltmp59:
	.loc	2 95 9                          # crypto_kdf/hkdf/kdf_hkdf_sha256.c:95:9
	movl	$32, %esi
	movq	%r12, %rdi
	callq	sodium_memzero@PLT
.Ltmp60:
.LBB5_13:
	#DEBUG_VALUE: crypto_kdf_hkdf_sha256_expand:out <- [DW_OP_LLVM_entry_value 1] $rdi
	#DEBUG_VALUE: crypto_kdf_hkdf_sha256_expand:out_len <- [DW_OP_LLVM_entry_value 1] $rsi
	#DEBUG_VALUE: crypto_kdf_hkdf_sha256_expand:ctx <- [DW_OP_plus_uconst 8] [$rsp+0]
	#DEBUG_VALUE: crypto_kdf_hkdf_sha256_expand:ctx_len <- [DW_OP_plus_uconst 16] [$rsp+0]
	#DEBUG_VALUE: crypto_kdf_hkdf_sha256_expand:prk <- $r13
	.loc	2 0 9 is_stmt 0                 # crypto_kdf/hkdf/kdf_hkdf_sha256.c:0:9
	leaq	64(%rsp), %rdi
	.loc	2 97 5 is_stmt 1                # crypto_kdf/hkdf/kdf_hkdf_sha256.c:97:5
	movl	$208, %esi
	callq	sodium_memzero@PLT
.Ltmp61:
	.loc	2 0 5 is_stmt 0                 # crypto_kdf/hkdf/kdf_hkdf_sha256.c:0:5
	xorl	%eax, %eax
.Ltmp62:
.LBB5_14:
	#DEBUG_VALUE: crypto_kdf_hkdf_sha256_expand:out <- [DW_OP_LLVM_entry_value 1] $rdi
	#DEBUG_VALUE: crypto_kdf_hkdf_sha256_expand:out_len <- [DW_OP_LLVM_entry_value 1] $rsi
	#DEBUG_VALUE: crypto_kdf_hkdf_sha256_expand:ctx <- [DW_OP_plus_uconst 8] [$rsp+0]
	#DEBUG_VALUE: crypto_kdf_hkdf_sha256_expand:ctx_len <- [DW_OP_plus_uconst 16] [$rsp+0]
	#DEBUG_VALUE: crypto_kdf_hkdf_sha256_expand:prk <- [DW_OP_LLVM_entry_value 1] $r8
	.loc	2 100 1 is_stmt 1               # crypto_kdf/hkdf/kdf_hkdf_sha256.c:100:1
	movq	%fs:40, %rcx
	cmpq	272(%rsp), %rcx
	jne	.LBB5_16
.Ltmp63:
# %bb.15:                               # %SP_return
	#DEBUG_VALUE: crypto_kdf_hkdf_sha256_expand:out <- [DW_OP_LLVM_entry_value 1] $rdi
	#DEBUG_VALUE: crypto_kdf_hkdf_sha256_expand:out_len <- [DW_OP_LLVM_entry_value 1] $rsi
	#DEBUG_VALUE: crypto_kdf_hkdf_sha256_expand:ctx <- [DW_OP_plus_uconst 8] [$rsp+0]
	#DEBUG_VALUE: crypto_kdf_hkdf_sha256_expand:ctx_len <- [DW_OP_plus_uconst 16] [$rsp+0]
	#DEBUG_VALUE: crypto_kdf_hkdf_sha256_expand:prk <- [DW_OP_LLVM_entry_value 1] $r8
	.loc	2 100 1 epilogue_begin is_stmt 0 # crypto_kdf/hkdf/kdf_hkdf_sha256.c:100:1
	addq	$280, %rsp                      # imm = 0x118
	.cfi_def_cfa_offset 56
	popq	%rbx
	.cfi_def_cfa_offset 48
	popq	%r12
	.cfi_def_cfa_offset 40
	popq	%r13
	.cfi_def_cfa_offset 32
	popq	%r14
	.cfi_def_cfa_offset 24
	popq	%r15
	.cfi_def_cfa_offset 16
	popq	%rbp
	.cfi_def_cfa_offset 8
	retq
.Ltmp64:
.LBB5_16:                               # %CallStackCheckFailBlk
	.cfi_def_cfa_offset 336
	#DEBUG_VALUE: crypto_kdf_hkdf_sha256_expand:out <- [DW_OP_LLVM_entry_value 1] $rdi
	#DEBUG_VALUE: crypto_kdf_hkdf_sha256_expand:out_len <- [DW_OP_LLVM_entry_value 1] $rsi
	#DEBUG_VALUE: crypto_kdf_hkdf_sha256_expand:ctx <- [DW_OP_plus_uconst 8] [$rsp+0]
	#DEBUG_VALUE: crypto_kdf_hkdf_sha256_expand:ctx_len <- [DW_OP_plus_uconst 16] [$rsp+0]
	#DEBUG_VALUE: crypto_kdf_hkdf_sha256_expand:prk <- [DW_OP_LLVM_entry_value 1] $r8
	.loc	2 0 0                           # crypto_kdf/hkdf/kdf_hkdf_sha256.c:0
	callq	__stack_chk_fail@PLT
.Ltmp65:
.Lfunc_end5:
	.size	crypto_kdf_hkdf_sha256_expand, .Lfunc_end5-crypto_kdf_hkdf_sha256_expand
	.cfi_endproc
	.file	11 "/usr/include" "errno.h"
                                        # -- End function
	.globl	crypto_kdf_hkdf_sha256_keybytes # -- Begin function crypto_kdf_hkdf_sha256_keybytes
	.p2align	4
	.type	crypto_kdf_hkdf_sha256_keybytes,@function
crypto_kdf_hkdf_sha256_keybytes:        # @crypto_kdf_hkdf_sha256_keybytes
.Lfunc_begin6:
	.cfi_startproc
# %bb.0:
	.loc	2 105 5 prologue_end is_stmt 1  # crypto_kdf/hkdf/kdf_hkdf_sha256.c:105:5
	movl	$32, %eax
	retq
.Ltmp66:
.Lfunc_end6:
	.size	crypto_kdf_hkdf_sha256_keybytes, .Lfunc_end6-crypto_kdf_hkdf_sha256_keybytes
	.cfi_endproc
                                        # -- End function
	.globl	crypto_kdf_hkdf_sha256_bytes_min # -- Begin function crypto_kdf_hkdf_sha256_bytes_min
	.p2align	4
	.type	crypto_kdf_hkdf_sha256_bytes_min,@function
crypto_kdf_hkdf_sha256_bytes_min:       # @crypto_kdf_hkdf_sha256_bytes_min
.Lfunc_begin7:
	.cfi_startproc
# %bb.0:
	.loc	2 111 5 prologue_end            # crypto_kdf/hkdf/kdf_hkdf_sha256.c:111:5
	xorl	%eax, %eax
	retq
.Ltmp67:
.Lfunc_end7:
	.size	crypto_kdf_hkdf_sha256_bytes_min, .Lfunc_end7-crypto_kdf_hkdf_sha256_bytes_min
	.cfi_endproc
                                        # -- End function
	.globl	crypto_kdf_hkdf_sha256_bytes_max # -- Begin function crypto_kdf_hkdf_sha256_bytes_max
	.p2align	4
	.type	crypto_kdf_hkdf_sha256_bytes_max,@function
crypto_kdf_hkdf_sha256_bytes_max:       # @crypto_kdf_hkdf_sha256_bytes_max
.Lfunc_begin8:
	.cfi_startproc
# %bb.0:
	.loc	2 117 5 prologue_end            # crypto_kdf/hkdf/kdf_hkdf_sha256.c:117:5
	movl	$8160, %eax                     # imm = 0x1FE0
	retq
.Ltmp68:
.Lfunc_end8:
	.size	crypto_kdf_hkdf_sha256_bytes_max, .Lfunc_end8-crypto_kdf_hkdf_sha256_bytes_max
	.cfi_endproc
                                        # -- End function
	.globl	crypto_kdf_hkdf_sha256_statebytes # -- Begin function crypto_kdf_hkdf_sha256_statebytes
	.p2align	4
	.type	crypto_kdf_hkdf_sha256_statebytes,@function
crypto_kdf_hkdf_sha256_statebytes:      # @crypto_kdf_hkdf_sha256_statebytes
.Lfunc_begin9:
	.cfi_startproc
# %bb.0:
	.loc	2 122 5 prologue_end            # crypto_kdf/hkdf/kdf_hkdf_sha256.c:122:5
	movl	$208, %eax
	retq
.Ltmp69:
.Lfunc_end9:
	.size	crypto_kdf_hkdf_sha256_statebytes, .Lfunc_end9-crypto_kdf_hkdf_sha256_statebytes
	.cfi_endproc
                                        # -- End function
	.section	".note.GNU-stack","",@progbits
	.addrsig
	.addrsig_sym __stack_chk_fail