	.file	"kdf_blake2b.c"
	.text
	.globl	crypto_kdf_blake2b_bytes_min    # -- Begin function crypto_kdf_blake2b_bytes_min
	.p2align	4
	.type	crypto_kdf_blake2b_bytes_min,@function
crypto_kdf_blake2b_bytes_min:           # @crypto_kdf_blake2b_bytes_min
.Lfunc_begin0:
	.file	0 "/home/leizhenyuu/opt/Anonymous_Repo/libsodium_o2_attr_inline/src/libsodium" "kdf_blake2b.c" md5 0xc0e34d2a93866a6513ecaed4282a27af
	.cfi_startproc
# %bb.0:
	.file	1 "crypto_kdf/blake2b" "kdf_blake2b.c"
	.loc	1 10 5 prologue_end             # crypto_kdf/blake2b/kdf_blake2b.c:10:5
	movl	$16, %eax
	retq
.Ltmp0:
.Lfunc_end0:
	.size	crypto_kdf_blake2b_bytes_min, .Lfunc_end0-crypto_kdf_blake2b_bytes_min
	.cfi_endproc
                                        # -- End function
	.globl	crypto_kdf_blake2b_bytes_max    # -- Begin function crypto_kdf_blake2b_bytes_max
	.p2align	4
	.type	crypto_kdf_blake2b_bytes_max,@function
crypto_kdf_blake2b_bytes_max:           # @crypto_kdf_blake2b_bytes_max
.Lfunc_begin1:
	.cfi_startproc
# %bb.0:
	.loc	1 16 5 prologue_end             # crypto_kdf/blake2b/kdf_blake2b.c:16:5
	movl	$64, %eax
	retq
.Ltmp1:
.Lfunc_end1:
	.size	crypto_kdf_blake2b_bytes_max, .Lfunc_end1-crypto_kdf_blake2b_bytes_max
	.cfi_endproc
                                        # -- End function
	.globl	crypto_kdf_blake2b_contextbytes # -- Begin function crypto_kdf_blake2b_contextbytes
	.p2align	4
	.type	crypto_kdf_blake2b_contextbytes,@function
crypto_kdf_blake2b_contextbytes:        # @crypto_kdf_blake2b_contextbytes
.Lfunc_begin2:
	.cfi_startproc
# %bb.0:
	.loc	1 22 5 prologue_end             # crypto_kdf/blake2b/kdf_blake2b.c:22:5
	movl	$8, %eax
	retq
.Ltmp2:
.Lfunc_end2:
	.size	crypto_kdf_blake2b_contextbytes, .Lfunc_end2-crypto_kdf_blake2b_contextbytes
	.cfi_endproc
                                        # -- End function
	.globl	crypto_kdf_blake2b_keybytes     # -- Begin function crypto_kdf_blake2b_keybytes
	.p2align	4
	.type	crypto_kdf_blake2b_keybytes,@function
crypto_kdf_blake2b_keybytes:            # @crypto_kdf_blake2b_keybytes
.Lfunc_begin3:
	.cfi_startproc
# %bb.0:
	.loc	1 28 5 prologue_end             # crypto_kdf/blake2b/kdf_blake2b.c:28:5
	movl	$32, %eax
	retq
.Ltmp3:
.Lfunc_end3:
	.size	crypto_kdf_blake2b_keybytes, .Lfunc_end3-crypto_kdf_blake2b_keybytes
	.cfi_endproc
                                        # -- End function
	.globl	crypto_kdf_blake2b_derive_from_key # -- Begin function crypto_kdf_blake2b_derive_from_key
	.p2align	4
	.type	crypto_kdf_blake2b_derive_from_key,@function
crypto_kdf_blake2b_derive_from_key:     # @crypto_kdf_blake2b_derive_from_key
.Lfunc_begin4:
	.loc	1 35 0                          # crypto_kdf/blake2b/kdf_blake2b.c:35:0
	.cfi_startproc
# %bb.0:
	#DEBUG_VALUE: crypto_kdf_blake2b_derive_from_key:subkey <- $rdi
	#DEBUG_VALUE: crypto_kdf_blake2b_derive_from_key:subkey_len <- $rsi
	#DEBUG_VALUE: crypto_kdf_blake2b_derive_from_key:subkey_id <- $rdx
	#DEBUG_VALUE: crypto_kdf_blake2b_derive_from_key:ctx <- $rcx
	#DEBUG_VALUE: crypto_kdf_blake2b_derive_from_key:key <- $r8
	subq	$40, %rsp
	.cfi_def_cfa_offset 48
	movq	%fs:40, %rax
	movq	%rax, 32(%rsp)
.Ltmp4:
	#DEBUG_VALUE: memcpy:__dest <- [DW_OP_plus_uconst 16, DW_OP_stack_value] $rsp
	#DEBUG_VALUE: memcpy:__src <- $rcx
	#DEBUG_VALUE: memcpy:__len <- 8
	.file	2 "/usr/include/x86_64-linux-gnu/bits" "string_fortified.h"
	.loc	2 29 10 prologue_end            # /usr/include/x86_64-linux-gnu/bits/string_fortified.h:29:10 @[ crypto_kdf/blake2b/kdf_blake2b.c:39:5 ]
	movq	(%rcx), %rax
	movq	%rax, 16(%rsp)
.Ltmp5:
	#DEBUG_VALUE: memset:__ch <- 0
	#DEBUG_VALUE: memset:__len <- 8
	#DEBUG_VALUE: memset:__dest <- undef
	.loc	2 59 10                         # /usr/include/x86_64-linux-gnu/bits/string_fortified.h:59:10 @[ crypto_kdf/blake2b/kdf_blake2b.c:40:5 ]
	movq	$0, 24(%rsp)
.Ltmp6:
	#DEBUG_VALUE: store64_le:dst <- $rsp
	#DEBUG_VALUE: memcpy:__dest <- $rsp
	#DEBUG_VALUE: memcpy:__len <- 8
	.loc	2 29 10                         # /usr/include/x86_64-linux-gnu/bits/string_fortified.h:29:10 @[ ./include/sodium/private/common.h:87:5 @[ crypto_kdf/blake2b/kdf_blake2b.c:41:5 ] ]
	movq	%rdx, (%rsp)
.Ltmp7:
	#DEBUG_VALUE: memset:__ch <- 0
	#DEBUG_VALUE: memset:__len <- 8
	#DEBUG_VALUE: memset:__dest <- undef
	.loc	2 59 10                         # /usr/include/x86_64-linux-gnu/bits/string_fortified.h:59:10 @[ crypto_kdf/blake2b/kdf_blake2b.c:42:5 ]
	movq	$0, 8(%rsp)
.Ltmp8:
	.loc	1 43 25                         # crypto_kdf/blake2b/kdf_blake2b.c:43:25
	leaq	-65(%rsi), %rax
	cmpq	$-50, %rax
	ja	.LBB4_2
.Ltmp9:
# %bb.1:
	#DEBUG_VALUE: crypto_kdf_blake2b_derive_from_key:subkey <- $rdi
	#DEBUG_VALUE: crypto_kdf_blake2b_derive_from_key:subkey_len <- $rsi
	#DEBUG_VALUE: crypto_kdf_blake2b_derive_from_key:subkey_id <- $rdx
	#DEBUG_VALUE: crypto_kdf_blake2b_derive_from_key:ctx <- $rcx
	#DEBUG_VALUE: crypto_kdf_blake2b_derive_from_key:key <- $r8
	.loc	1 45 11                         # crypto_kdf/blake2b/kdf_blake2b.c:45:11
	callq	__errno_location@PLT
.Ltmp10:
	#DEBUG_VALUE: crypto_kdf_blake2b_derive_from_key:key <- [DW_OP_LLVM_entry_value 1] $r8
	#DEBUG_VALUE: crypto_kdf_blake2b_derive_from_key:ctx <- [DW_OP_LLVM_entry_value 1] $rcx
	#DEBUG_VALUE: crypto_kdf_blake2b_derive_from_key:subkey_id <- [DW_OP_LLVM_entry_value 1] $rdx
	#DEBUG_VALUE: crypto_kdf_blake2b_derive_from_key:subkey_len <- [DW_OP_LLVM_entry_value 1] $rsi
	#DEBUG_VALUE: crypto_kdf_blake2b_derive_from_key:subkey <- [DW_OP_LLVM_entry_value 1] $rdi
	.loc	1 45 32 is_stmt 0               # crypto_kdf/blake2b/kdf_blake2b.c:45:32
	movl	$22, (%rax)
	movl	$-1, %eax
	.loc	1 46 9 is_stmt 1                # crypto_kdf/blake2b/kdf_blake2b.c:46:9
	jmp	.LBB4_3
.Ltmp11:
.LBB4_2:
	#DEBUG_VALUE: crypto_kdf_blake2b_derive_from_key:subkey <- $rdi
	#DEBUG_VALUE: crypto_kdf_blake2b_derive_from_key:subkey_len <- $rsi
	#DEBUG_VALUE: crypto_kdf_blake2b_derive_from_key:subkey_id <- $rdx
	#DEBUG_VALUE: crypto_kdf_blake2b_derive_from_key:ctx <- $rcx
	#DEBUG_VALUE: crypto_kdf_blake2b_derive_from_key:key <- $r8
	.loc	1 0 9 is_stmt 0                 # crypto_kdf/blake2b/kdf_blake2b.c:0:9
	leaq	16(%rsp), %rax
	movq	%rsp, %r10
	.loc	1 48 12 is_stmt 1               # crypto_kdf/blake2b/kdf_blake2b.c:48:12
	movl	$32, %r9d
	xorl	%edx, %edx
.Ltmp12:
	#DEBUG_VALUE: crypto_kdf_blake2b_derive_from_key:subkey_id <- [DW_OP_LLVM_entry_value 1] $rdx
	xorl	%ecx, %ecx
.Ltmp13:
	#DEBUG_VALUE: crypto_kdf_blake2b_derive_from_key:ctx <- [DW_OP_LLVM_entry_value 1] $rcx
	pushq	%rax
	.cfi_adjust_cfa_offset 8
	pushq	%r10
	.cfi_adjust_cfa_offset 8
	callq	crypto_generichash_blake2b_salt_personal@PLT
.Ltmp14:
	#DEBUG_VALUE: crypto_kdf_blake2b_derive_from_key:key <- [DW_OP_LLVM_entry_value 1] $r8
	#DEBUG_VALUE: crypto_kdf_blake2b_derive_from_key:subkey_len <- [DW_OP_LLVM_entry_value 1] $rsi
	#DEBUG_VALUE: crypto_kdf_blake2b_derive_from_key:subkey <- [DW_OP_LLVM_entry_value 1] $rdi
	addq	$16, %rsp
	.cfi_adjust_cfa_offset -16
.Ltmp15:
.LBB4_3:
	#DEBUG_VALUE: crypto_kdf_blake2b_derive_from_key:subkey <- [DW_OP_LLVM_entry_value 1] $rdi
	#DEBUG_VALUE: crypto_kdf_blake2b_derive_from_key:subkey_len <- [DW_OP_LLVM_entry_value 1] $rsi
	#DEBUG_VALUE: crypto_kdf_blake2b_derive_from_key:subkey_id <- [DW_OP_LLVM_entry_value 1] $rdx
	#DEBUG_VALUE: crypto_kdf_blake2b_derive_from_key:ctx <- [DW_OP_LLVM_entry_value 1] $rcx
	#DEBUG_VALUE: crypto_kdf_blake2b_derive_from_key:key <- [DW_OP_LLVM_entry_value 1] $r8
	.loc	1 52 1                          # crypto_kdf/blake2b/kdf_blake2b.c:52:1
	movq	%fs:40, %rcx
	cmpq	32(%rsp), %rcx
	jne	.LBB4_5
.Ltmp16:
# %bb.4:                                # %SP_return
	#DEBUG_VALUE: crypto_kdf_blake2b_derive_from_key:subkey <- [DW_OP_LLVM_entry_value 1] $rdi
	#DEBUG_VALUE: crypto_kdf_blake2b_derive_from_key:subkey_len <- [DW_OP_LLVM_entry_value 1] $rsi
	#DEBUG_VALUE: crypto_kdf_blake2b_derive_from_key:subkey_id <- [DW_OP_LLVM_entry_value 1] $rdx
	#DEBUG_VALUE: crypto_kdf_blake2b_derive_from_key:ctx <- [DW_OP_LLVM_entry_value 1] $rcx
	#DEBUG_VALUE: crypto_kdf_blake2b_derive_from_key:key <- [DW_OP_LLVM_entry_value 1] $r8
	.loc	1 52 1 epilogue_begin is_stmt 0 # crypto_kdf/blake2b/kdf_blake2b.c:52:1
	addq	$40, %rsp
	.cfi_def_cfa_offset 8
	retq
.Ltmp17:
.LBB4_5:                                # %CallStackCheckFailBlk
	.cfi_def_cfa_offset 48
	#DEBUG_VALUE: crypto_kdf_blake2b_derive_from_key:subkey <- [DW_OP_LLVM_entry_value 1] $rdi
	#DEBUG_VALUE: crypto_kdf_blake2b_derive_from_key:subkey_len <- [DW_OP_LLVM_entry_value 1] $rsi
	#DEBUG_VALUE: crypto_kdf_blake2b_derive_from_key:subkey_id <- [DW_OP_LLVM_entry_value 1] $rdx
	#DEBUG_VALUE: crypto_kdf_blake2b_derive_from_key:ctx <- [DW_OP_LLVM_entry_value 1] $rcx
	#DEBUG_VALUE: crypto_kdf_blake2b_derive_from_key:key <- [DW_OP_LLVM_entry_value 1] $r8
	.loc	1 0 0                           # crypto_kdf/blake2b/kdf_blake2b.c:0
	callq	__stack_chk_fail@PLT
.Ltmp18:
.Lfunc_end4:
	.size	crypto_kdf_blake2b_derive_from_key, .Lfunc_end4-crypto_kdf_blake2b_derive_from_key
	.cfi_endproc
	.file	3 "/home/leizhenyuu/opt/Anonymous_Repo" "llvm-project/build/lib/clang/21/include/__stddef_size_t.h"
	.file	4 "./include/sodium/private" "common.h"
	.file	5 "/usr/include/x86_64-linux-gnu/bits" "types.h"
	.file	6 "/usr/include/x86_64-linux-gnu/bits" "stdint-uintn.h"
	.file	7 "/usr/include" "errno.h"
	.file	8 "./include/sodium" "crypto_generichash_blake2b.h"
                                        # -- End function
	.section	".note.GNU-stack","",@progbits
	.addrsig
	.addrsig_sym __stack_chk_fail