	.file	"keypair.c"
	.file	0 "/home/leizhenyuu/opt/Anonymous_Repo/libsodium_o2_attr_inline/src/libsodium" "keypair.c" md5 0x69ef2e7746d5418cd62d85d03d99d240
	.file	1 "./include/sodium/private" "common.h"
	.file	2 "/usr/include/x86_64-linux-gnu/bits" "types.h"
	.file	3 "/usr/include/x86_64-linux-gnu/bits" "stdint-uintn.h"
	.text
	.globl	crypto_sign_ed25519_seed_keypair # -- Begin function crypto_sign_ed25519_seed_keypair
	.p2align	4
	.type	crypto_sign_ed25519_seed_keypair,@function
crypto_sign_ed25519_seed_keypair:       # @crypto_sign_ed25519_seed_keypair
.Lfunc_begin0:
	.file	4 "crypto_sign/ed25519/ref10" "keypair.c"
	.loc	4 15 0                          # crypto_sign/ed25519/ref10/keypair.c:15:0
	.cfi_startproc
# %bb.0:
	#DEBUG_VALUE: crypto_sign_ed25519_seed_keypair:pk <- $rdi
	#DEBUG_VALUE: crypto_sign_ed25519_seed_keypair:sk <- $rsi
	#DEBUG_VALUE: crypto_sign_ed25519_seed_keypair:seed <- $rdx
	pushq	%r15
	.cfi_def_cfa_offset 16
	pushq	%r14
	.cfi_def_cfa_offset 24
	pushq	%r12
	.cfi_def_cfa_offset 32
	pushq	%rbx
	.cfi_def_cfa_offset 40
	subq	$168, %rsp
	.cfi_def_cfa_offset 208
	.cfi_offset %rbx, -40
	.cfi_offset %r12, -32
	.cfi_offset %r14, -24
	.cfi_offset %r15, -16
	movq	%rdx, %r15
	movq	%rsi, %rbx
	movq	%rdi, %r14
.Ltmp0:
	.loc	4 18 5 prologue_end             # crypto_sign/ed25519/ref10/keypair.c:18:5
	movl	$32, %edx
.Ltmp1:
	#DEBUG_VALUE: crypto_sign_ed25519_seed_keypair:seed <- $r15
	movq	%rsi, %rdi
.Ltmp2:
	#DEBUG_VALUE: crypto_sign_ed25519_seed_keypair:pk <- $r14
	movq	%r15, %rsi
.Ltmp3:
	#DEBUG_VALUE: crypto_sign_ed25519_seed_keypair:sk <- $rbx
	callq	crypto_hash_sha512@PLT
.Ltmp4:
	.loc	4 19 11                         # crypto_sign/ed25519/ref10/keypair.c:19:11
	andb	$-8, (%rbx)
	.loc	4 20 12                         # crypto_sign/ed25519/ref10/keypair.c:20:12
	movzbl	31(%rbx), %eax
	andb	$63, %al
	.loc	4 21 12                         # crypto_sign/ed25519/ref10/keypair.c:21:12
	orb	$64, %al
	movb	%al, 31(%rbx)
	leaq	8(%rsp), %r12
	.loc	4 23 5                          # crypto_sign/ed25519/ref10/keypair.c:23:5
	movq	%r12, %rdi
	movq	%rbx, %rsi
	callq	ge25519_scalarmult_base@PLT
.Ltmp5:
	.loc	4 24 5                          # crypto_sign/ed25519/ref10/keypair.c:24:5
	movq	%r14, %rdi
	movq	%r12, %rsi
	callq	ge25519_p3_tobytes@PLT
.Ltmp6:
	#DEBUG_VALUE: memmove:__dest <- $rbx
	#DEBUG_VALUE: memmove:__src <- $r15
	#DEBUG_VALUE: memmove:__len <- 32
	.file	5 "/usr/include/x86_64-linux-gnu/bits" "string_fortified.h"
	.loc	5 36 10                         # /usr/include/x86_64-linux-gnu/bits/string_fortified.h:36:10 @[ crypto_sign/ed25519/ref10/keypair.c:26:5 ]
	movups	(%r15), %xmm0
	movups	16(%r15), %xmm1
	movups	%xmm1, 16(%rbx)
	movups	%xmm0, (%rbx)
.Ltmp7:
	#DEBUG_VALUE: memmove:__src <- $r14
	#DEBUG_VALUE: memmove:__len <- 32
	#DEBUG_VALUE: memmove:__dest <- [DW_OP_plus_uconst 32, DW_OP_stack_value] $rbx
	.loc	5 36 10 is_stmt 0               # /usr/include/x86_64-linux-gnu/bits/string_fortified.h:36:10 @[ crypto_sign/ed25519/ref10/keypair.c:27:5 ]
	movups	(%r14), %xmm0
	movups	16(%r14), %xmm1
	movups	%xmm1, 48(%rbx)
	movups	%xmm0, 32(%rbx)
.Ltmp8:
	.loc	4 29 5 is_stmt 1                # crypto_sign/ed25519/ref10/keypair.c:29:5
	xorl	%eax, %eax
	.loc	4 29 5 epilogue_begin is_stmt 0 # crypto_sign/ed25519/ref10/keypair.c:29:5
	addq	$168, %rsp
	.cfi_def_cfa_offset 40
	popq	%rbx
.Ltmp9:
	#DEBUG_VALUE: crypto_sign_ed25519_seed_keypair:sk <- [DW_OP_LLVM_entry_value 1] $rsi
	.cfi_def_cfa_offset 32
	popq	%r12
	.cfi_def_cfa_offset 24
	popq	%r14
.Ltmp10:
	#DEBUG_VALUE: crypto_sign_ed25519_seed_keypair:pk <- [DW_OP_LLVM_entry_value 1] $rdi
	.cfi_def_cfa_offset 16
	popq	%r15
.Ltmp11:
	#DEBUG_VALUE: crypto_sign_ed25519_seed_keypair:seed <- [DW_OP_LLVM_entry_value 1] $rdx
	.cfi_def_cfa_offset 8
	retq
.Ltmp12:
.Lfunc_end0:
	.size	crypto_sign_ed25519_seed_keypair, .Lfunc_end0-crypto_sign_ed25519_seed_keypair
	.cfi_endproc
	.file	6 "/home/leizhenyuu/opt/Anonymous_Repo" "llvm-project/build/lib/clang/21/include/__stddef_size_t.h"
	.file	7 "./include/sodium" "crypto_hash_sha512.h"
	.file	8 "./include/sodium/private" "ed25519_ref10.h"
                                        # -- End function
	.globl	crypto_sign_ed25519_keypair     # -- Begin function crypto_sign_ed25519_keypair
	.p2align	4
	.type	crypto_sign_ed25519_keypair,@function
crypto_sign_ed25519_keypair:            # @crypto_sign_ed25519_keypair
.Lfunc_begin1:
	.loc	4 34 0 is_stmt 1                # crypto_sign/ed25519/ref10/keypair.c:34:0
	.cfi_startproc
# %bb.0:
	#DEBUG_VALUE: crypto_sign_ed25519_keypair:pk <- $rdi
	#DEBUG_VALUE: crypto_sign_ed25519_keypair:sk <- $rsi
	pushq	%r15
	.cfi_def_cfa_offset 16
	pushq	%r14
	.cfi_def_cfa_offset 24
	pushq	%r12
	.cfi_def_cfa_offset 32
	pushq	%rbx
	.cfi_def_cfa_offset 40
	subq	$200, %rsp
	.cfi_def_cfa_offset 240
	.cfi_offset %rbx, -40
	.cfi_offset %r12, -32
	.cfi_offset %r14, -24
	.cfi_offset %r15, -16
	movq	%rsi, %rbx
	movq	%rdi, %r15
	movq	%fs:40, %rax
	movq	%rax, 192(%rsp)
	leaq	160(%rsp), %r14
.Ltmp13:
	.loc	4 38 5 prologue_end             # crypto_sign/ed25519/ref10/keypair.c:38:5
	movl	$32, %esi
.Ltmp14:
	#DEBUG_VALUE: crypto_sign_ed25519_keypair:sk <- $rbx
	movq	%r14, %rdi
.Ltmp15:
	#DEBUG_VALUE: crypto_sign_ed25519_keypair:pk <- $r15
	callq	randombytes_buf@PLT
.Ltmp16:
	#DEBUG_VALUE: crypto_sign_ed25519_seed_keypair:A <- [DW_OP_deref] $rsp
	#DEBUG_VALUE: crypto_sign_ed25519_seed_keypair:pk <- $r15
	#DEBUG_VALUE: crypto_sign_ed25519_seed_keypair:sk <- $rbx
	#DEBUG_VALUE: crypto_sign_ed25519_seed_keypair:seed <- [DW_OP_plus_uconst 160, DW_OP_stack_value] $rsp
	.loc	4 18 5                          # crypto_sign/ed25519/ref10/keypair.c:18:5 @[ crypto_sign/ed25519/ref10/keypair.c:39:11 ]
	movl	$32, %edx
	movq	%rbx, %rdi
	movq	%r14, %rsi
	callq	crypto_hash_sha512@PLT
.Ltmp17:
	.loc	4 19 11                         # crypto_sign/ed25519/ref10/keypair.c:19:11 @[ crypto_sign/ed25519/ref10/keypair.c:39:11 ]
	andb	$-8, (%rbx)
	.loc	4 20 12                         # crypto_sign/ed25519/ref10/keypair.c:20:12 @[ crypto_sign/ed25519/ref10/keypair.c:39:11 ]
	movzbl	31(%rbx), %eax
	andb	$63, %al
	.loc	4 21 12                         # crypto_sign/ed25519/ref10/keypair.c:21:12 @[ crypto_sign/ed25519/ref10/keypair.c:39:11 ]
	orb	$64, %al
	movb	%al, 31(%rbx)
	movq	%rsp, %r12
	.loc	4 23 5                          # crypto_sign/ed25519/ref10/keypair.c:23:5 @[ crypto_sign/ed25519/ref10/keypair.c:39:11 ]
	movq	%r12, %rdi
	movq	%rbx, %rsi
	callq	ge25519_scalarmult_base@PLT
.Ltmp18:
	.loc	4 24 5                          # crypto_sign/ed25519/ref10/keypair.c:24:5 @[ crypto_sign/ed25519/ref10/keypair.c:39:11 ]
	movq	%r15, %rdi
	movq	%r12, %rsi
	callq	ge25519_p3_tobytes@PLT
.Ltmp19:
	#DEBUG_VALUE: memmove:__dest <- $rbx
	#DEBUG_VALUE: memmove:__src <- [DW_OP_plus_uconst 160, DW_OP_stack_value] $rsp
	#DEBUG_VALUE: memmove:__len <- 32
	.loc	5 36 10                         # /usr/include/x86_64-linux-gnu/bits/string_fortified.h:36:10 @[ crypto_sign/ed25519/ref10/keypair.c:26:5 @[ crypto_sign/ed25519/ref10/keypair.c:39:11 ] ]
	movaps	160(%rsp), %xmm0
	movaps	176(%rsp), %xmm1
	movups	%xmm1, 16(%rbx)
	movups	%xmm0, (%rbx)
.Ltmp20:
	#DEBUG_VALUE: memmove:__src <- $r15
	#DEBUG_VALUE: memmove:__len <- 32
	#DEBUG_VALUE: memmove:__dest <- [DW_OP_plus_uconst 32, DW_OP_stack_value] $rbx
	.loc	5 36 10 is_stmt 0               # /usr/include/x86_64-linux-gnu/bits/string_fortified.h:36:10 @[ crypto_sign/ed25519/ref10/keypair.c:27:5 @[ crypto_sign/ed25519/ref10/keypair.c:39:11 ] ]
	movups	(%r15), %xmm0
	movups	16(%r15), %xmm1
	movups	%xmm1, 48(%rbx)
	movups	%xmm0, 32(%rbx)
.Ltmp21:
	#DEBUG_VALUE: crypto_sign_ed25519_keypair:ret <- 0
	.loc	4 40 5 is_stmt 1                # crypto_sign/ed25519/ref10/keypair.c:40:5
	movl	$32, %esi
	movq	%r14, %rdi
	callq	sodium_memzero@PLT
.Ltmp22:
	.loc	4 42 5                          # crypto_sign/ed25519/ref10/keypair.c:42:5
	movq	%fs:40, %rax
	cmpq	192(%rsp), %rax
	jne	.LBB1_2
.Ltmp23:
# %bb.1:                                # %SP_return
	#DEBUG_VALUE: crypto_sign_ed25519_keypair:pk <- $r15
	#DEBUG_VALUE: crypto_sign_ed25519_keypair:sk <- $rbx
	#DEBUG_VALUE: crypto_sign_ed25519_keypair:ret <- 0
	xorl	%eax, %eax
	.loc	4 42 5 epilogue_begin is_stmt 0 # crypto_sign/ed25519/ref10/keypair.c:42:5
	addq	$200, %rsp
	.cfi_def_cfa_offset 40
	popq	%rbx
.Ltmp24:
	#DEBUG_VALUE: crypto_sign_ed25519_keypair:sk <- [DW_OP_LLVM_entry_value 1] $rsi
	.cfi_def_cfa_offset 32
	popq	%r12
	.cfi_def_cfa_offset 24
	popq	%r14
	.cfi_def_cfa_offset 16
	popq	%r15
.Ltmp25:
	#DEBUG_VALUE: crypto_sign_ed25519_keypair:pk <- [DW_OP_LLVM_entry_value 1] $rdi
	.cfi_def_cfa_offset 8
	retq
.Ltmp26:
.LBB1_2:                                # %CallStackCheckFailBlk
	.cfi_def_cfa_offset 240
	#DEBUG_VALUE: crypto_sign_ed25519_keypair:pk <- $r15
	#DEBUG_VALUE: crypto_sign_ed25519_keypair:sk <- $rbx
	#DEBUG_VALUE: crypto_sign_ed25519_seed_keypair:A <- [DW_OP_deref] $r12
	#DEBUG_VALUE: crypto_sign_ed25519_seed_keypair:pk <- $r15
	#DEBUG_VALUE: crypto_sign_ed25519_seed_keypair:sk <- $rbx
	#DEBUG_VALUE: crypto_sign_ed25519_seed_keypair:seed <- [DW_OP_plus_uconst 160, DW_OP_stack_value] $r12
	#DEBUG_VALUE: memmove:__dest <- $rbx
	#DEBUG_VALUE: memmove:__src <- [DW_OP_plus_uconst 160, DW_OP_stack_value] $r12
	#DEBUG_VALUE: memmove:__len <- 32
	#DEBUG_VALUE: memmove:__src <- $r15
	#DEBUG_VALUE: memmove:__len <- 32
	#DEBUG_VALUE: memmove:__dest <- [DW_OP_plus_uconst 32, DW_OP_stack_value] $rbx
	#DEBUG_VALUE: crypto_sign_ed25519_keypair:ret <- 0
	.loc	4 0 0                           # crypto_sign/ed25519/ref10/keypair.c:0
	callq	__stack_chk_fail@PLT
.Ltmp27:
.Lfunc_end1:
	.size	crypto_sign_ed25519_keypair, .Lfunc_end1-crypto_sign_ed25519_keypair
	.cfi_endproc
	.file	9 "./include/sodium" "randombytes.h"
	.file	10 "./include/sodium" "utils.h"
                                        # -- End function
	.globl	crypto_sign_ed25519_pk_to_curve25519 # -- Begin function crypto_sign_ed25519_pk_to_curve25519
	.p2align	4
	.type	crypto_sign_ed25519_pk_to_curve25519,@function
crypto_sign_ed25519_pk_to_curve25519:   # @crypto_sign_ed25519_pk_to_curve25519
.Lfunc_begin2:
	.loc	4 48 0 is_stmt 1                # crypto_sign/ed25519/ref10/keypair.c:48:0
	.cfi_startproc
# %bb.0:
	#DEBUG_VALUE: crypto_sign_ed25519_pk_to_curve25519:curve25519_pk <- $rdi
	#DEBUG_VALUE: crypto_sign_ed25519_pk_to_curve25519:ed25519_pk <- $rsi
	pushq	%rbp
	.cfi_def_cfa_offset 16
	pushq	%r15
	.cfi_def_cfa_offset 24
	pushq	%r14
	.cfi_def_cfa_offset 32
	pushq	%r13
	.cfi_def_cfa_offset 40
	pushq	%r12
	.cfi_def_cfa_offset 48
	pushq	%rbx
	.cfi_def_cfa_offset 56
	subq	$520, %rsp                      # imm = 0x208
	.cfi_def_cfa_offset 576
	.cfi_offset %rbx, -56
	.cfi_offset %r12, -48
	.cfi_offset %r13, -40
	.cfi_offset %r14, -32
	.cfi_offset %r15, -24
	.cfi_offset %rbp, -16
	movq	%rsi, %r14
	movq	%rdi, %r15
.Ltmp28:
	#DEBUG_VALUE: crypto_sign_ed25519_pk_to_curve25519:x <- [DW_OP_plus_uconst 320, DW_OP_deref] $rsp
	#DEBUG_VALUE: crypto_sign_ed25519_pk_to_curve25519:one_minus_y <- [DW_OP_plus_uconst 96, DW_OP_deref] $rsp
	.loc	4 53 9 prologue_end             # crypto_sign/ed25519/ref10/keypair.c:53:9
	movq	%rsi, %rdi
.Ltmp29:
	#DEBUG_VALUE: crypto_sign_ed25519_pk_to_curve25519:curve25519_pk <- $r15
	callq	ge25519_has_small_order@PLT
.Ltmp30:
	#DEBUG_VALUE: crypto_sign_ed25519_pk_to_curve25519:ed25519_pk <- $r14
	.loc	4 0 9 is_stmt 0                 # crypto_sign/ed25519/ref10/keypair.c:0:9
	movl	$-1, %ebx
	.loc	4 53 45                         # crypto_sign/ed25519/ref10/keypair.c:53:45
	testl	%eax, %eax
	.loc	4 53 50                         # crypto_sign/ed25519/ref10/keypair.c:53:50
	jne	.LBB2_4
.Ltmp31:
# %bb.1:
	#DEBUG_VALUE: crypto_sign_ed25519_pk_to_curve25519:curve25519_pk <- $r15
	#DEBUG_VALUE: crypto_sign_ed25519_pk_to_curve25519:ed25519_pk <- $r14
	#DEBUG_VALUE: crypto_sign_ed25519_pk_to_curve25519:x <- [DW_OP_plus_uconst 320, DW_OP_deref] $rsp
	#DEBUG_VALUE: crypto_sign_ed25519_pk_to_curve25519:one_minus_y <- [DW_OP_plus_uconst 96, DW_OP_deref] $rsp
	.loc	4 0 50                          # crypto_sign/ed25519/ref10/keypair.c:0:50
	leaq	360(%rsp), %rdi
	.loc	4 54 9 is_stmt 1                # crypto_sign/ed25519/ref10/keypair.c:54:9
	movq	%r14, %rsi
	callq	ge25519_frombytes_negate_vartime@PLT
.Ltmp32:
	.loc	4 54 58 is_stmt 0               # crypto_sign/ed25519/ref10/keypair.c:54:58
	testl	%eax, %eax
	.loc	4 54 63                         # crypto_sign/ed25519/ref10/keypair.c:54:63
	jne	.LBB2_4
.Ltmp33:
# %bb.2:
	#DEBUG_VALUE: crypto_sign_ed25519_pk_to_curve25519:curve25519_pk <- $r15
	#DEBUG_VALUE: crypto_sign_ed25519_pk_to_curve25519:ed25519_pk <- $r14
	#DEBUG_VALUE: crypto_sign_ed25519_pk_to_curve25519:x <- [DW_OP_plus_uconst 320, DW_OP_deref] $rsp
	#DEBUG_VALUE: crypto_sign_ed25519_pk_to_curve25519:one_minus_y <- [DW_OP_plus_uconst 96, DW_OP_deref] $rsp
	.loc	4 0 63                          # crypto_sign/ed25519/ref10/keypair.c:0:63
	leaq	360(%rsp), %rdi
	.loc	4 55 9 is_stmt 1                # crypto_sign/ed25519/ref10/keypair.c:55:9
	callq	ge25519_is_on_main_subgroup@PLT
.Ltmp34:
	.loc	4 55 41 is_stmt 0               # crypto_sign/ed25519/ref10/keypair.c:55:41
	testl	%eax, %eax
	.loc	4 54 63 is_stmt 1               # crypto_sign/ed25519/ref10/keypair.c:54:63
	je	.LBB2_4
.Ltmp35:
# %bb.3:
	#DEBUG_VALUE: crypto_sign_ed25519_pk_to_curve25519:curve25519_pk <- $r15
	#DEBUG_VALUE: crypto_sign_ed25519_pk_to_curve25519:ed25519_pk <- $r14
	#DEBUG_VALUE: crypto_sign_ed25519_pk_to_curve25519:x <- [DW_OP_plus_uconst 320, DW_OP_deref] $rsp
	#DEBUG_VALUE: crypto_sign_ed25519_pk_to_curve25519:one_minus_y <- [DW_OP_plus_uconst 96, DW_OP_deref] $rsp
	#DEBUG_VALUE: fe25519_1:h <- [DW_OP_plus_uconst 96, DW_OP_stack_value] $rsp
	#DEBUG_VALUE: crypto_sign_ed25519_pk_to_curve25519:one_minus_y <- [DW_OP_LLVM_fragment 0 64] 1
	#DEBUG_VALUE: crypto_sign_ed25519_pk_to_curve25519:one_minus_y <- [DW_OP_plus_uconst 96, DW_OP_plus_uconst 8, DW_OP_deref, DW_OP_LLVM_fragment 64 256] $rsp
	#DEBUG_VALUE: memset:__ch <- 0
	#DEBUG_VALUE: memset:__len <- 32
	#DEBUG_VALUE: memset:__dest <- undef
	#DEBUG_VALUE: fe25519_sub:h <- [DW_OP_plus_uconst 96, DW_OP_stack_value] $rsp
	#DEBUG_VALUE: fe25519_sub:f <- [DW_OP_plus_uconst 96, DW_OP_stack_value] $rsp
	#DEBUG_VALUE: fe25519_sub:mask <- 2251799813685247
	#DEBUG_VALUE: fe25519_sub:g <- [DW_OP_plus_uconst 360, DW_OP_plus_uconst 40, DW_OP_stack_value] $rsp
	.file	11 "./include/sodium/private" "ed25519_ref10_fe_51.h"
	.loc	11 58 10                        # ./include/sodium/private/ed25519_ref10_fe_51.h:58:10 @[ crypto_sign/ed25519/ref10/keypair.c:60:5 ]
	movq	400(%rsp), %rdx
.Ltmp36:
	#DEBUG_VALUE: fe25519_sub:h0 <- $rdx
	.loc	11 59 10                        # ./include/sodium/private/ed25519_ref10_fe_51.h:59:10 @[ crypto_sign/ed25519/ref10/keypair.c:60:5 ]
	movq	408(%rsp), %rbp
.Ltmp37:
	#DEBUG_VALUE: fe25519_sub:h1 <- $rbp
	.loc	11 60 10                        # ./include/sodium/private/ed25519_ref10_fe_51.h:60:10 @[ crypto_sign/ed25519/ref10/keypair.c:60:5 ]
	movq	416(%rsp), %rbx
.Ltmp38:
	#DEBUG_VALUE: fe25519_sub:h2 <- $rbx
	.loc	11 61 10                        # ./include/sodium/private/ed25519_ref10_fe_51.h:61:10 @[ crypto_sign/ed25519/ref10/keypair.c:60:5 ]
	movq	424(%rsp), %r12
.Ltmp39:
	#DEBUG_VALUE: fe25519_sub:h3 <- $r12
	.loc	11 62 10                        # ./include/sodium/private/ed25519_ref10_fe_51.h:62:10 @[ crypto_sign/ed25519/ref10/keypair.c:60:5 ]
	movq	432(%rsp), %r13
.Ltmp40:
	#DEBUG_VALUE: fe25519_sub:h4 <- $r13
	.loc	11 64 14                        # ./include/sodium/private/ed25519_ref10_fe_51.h:64:14 @[ crypto_sign/ed25519/ref10/keypair.c:60:5 ]
	movq	%rdx, %rax
	shrq	$51, %rax
	.loc	11 64 8 is_stmt 0               # ./include/sodium/private/ed25519_ref10_fe_51.h:64:8 @[ crypto_sign/ed25519/ref10/keypair.c:60:5 ]
	addq	%rbp, %rax
.Ltmp41:
	#DEBUG_VALUE: fe25519_sub:h1 <- $rax
	.loc	11 0 8                          # ./include/sodium/private/ed25519_ref10_fe_51.h:0:8
	movabsq	$2251799813685247, %r9          # imm = 0x7FFFFFFFFFFFF
	.loc	11 65 8 is_stmt 1               # ./include/sodium/private/ed25519_ref10_fe_51.h:65:8 @[ crypto_sign/ed25519/ref10/keypair.c:60:5 ]
	movq	%rdx, %rcx
	movq	%rdx, %r14
.Ltmp42:
	#DEBUG_VALUE: fe25519_sub:h0 <- $r14
	#DEBUG_VALUE: crypto_sign_ed25519_pk_to_curve25519:ed25519_pk <- [DW_OP_LLVM_entry_value 1] $rsi
	andq	%r9, %rcx
.Ltmp43:
	#DEBUG_VALUE: fe25519_sub:h0 <- $rcx
	.loc	11 66 14                        # ./include/sodium/private/ed25519_ref10_fe_51.h:66:14 @[ crypto_sign/ed25519/ref10/keypair.c:60:5 ]
	movq	%rax, %rdx
	shrq	$51, %rdx
	.loc	11 66 8 is_stmt 0               # ./include/sodium/private/ed25519_ref10_fe_51.h:66:8 @[ crypto_sign/ed25519/ref10/keypair.c:60:5 ]
	addq	%rbx, %rdx
.Ltmp44:
	#DEBUG_VALUE: fe25519_sub:h2 <- $rdx
	.loc	11 67 8 is_stmt 1               # ./include/sodium/private/ed25519_ref10_fe_51.h:67:8 @[ crypto_sign/ed25519/ref10/keypair.c:60:5 ]
	andq	%r9, %rax
.Ltmp45:
	#DEBUG_VALUE: fe25519_sub:h1 <- $rax
	.loc	11 68 14                        # ./include/sodium/private/ed25519_ref10_fe_51.h:68:14 @[ crypto_sign/ed25519/ref10/keypair.c:60:5 ]
	movq	%rdx, %rsi
	shrq	$51, %rsi
	.loc	11 68 8 is_stmt 0               # ./include/sodium/private/ed25519_ref10_fe_51.h:68:8 @[ crypto_sign/ed25519/ref10/keypair.c:60:5 ]
	addq	%r12, %rsi
.Ltmp46:
	#DEBUG_VALUE: fe25519_sub:h3 <- $rsi
	.loc	11 69 8 is_stmt 1               # ./include/sodium/private/ed25519_ref10_fe_51.h:69:8 @[ crypto_sign/ed25519/ref10/keypair.c:60:5 ]
	andq	%r9, %rdx
.Ltmp47:
	#DEBUG_VALUE: fe25519_sub:h2 <- $rdx
	.loc	11 70 14                        # ./include/sodium/private/ed25519_ref10_fe_51.h:70:14 @[ crypto_sign/ed25519/ref10/keypair.c:60:5 ]
	movq	%rsi, %rdi
	shrq	$51, %rdi
	.loc	11 70 8 is_stmt 0               # ./include/sodium/private/ed25519_ref10_fe_51.h:70:8 @[ crypto_sign/ed25519/ref10/keypair.c:60:5 ]
	addq	%r13, %rdi
.Ltmp48:
	#DEBUG_VALUE: fe25519_sub:h4 <- $rdi
	.loc	11 71 8 is_stmt 1               # ./include/sodium/private/ed25519_ref10_fe_51.h:71:8 @[ crypto_sign/ed25519/ref10/keypair.c:60:5 ]
	andq	%r9, %rsi
.Ltmp49:
	#DEBUG_VALUE: fe25519_sub:h3 <- $rsi
	.loc	11 72 23                        # ./include/sodium/private/ed25519_ref10_fe_51.h:72:23 @[ crypto_sign/ed25519/ref10/keypair.c:60:5 ]
	movq	%rdi, %r8
	shrq	$51, %r8
.Ltmp50:
	#DEBUG_VALUE: fe25519_sub:h0 <- undef
	.loc	11 73 8                         # ./include/sodium/private/ed25519_ref10_fe_51.h:73:8 @[ crypto_sign/ed25519/ref10/keypair.c:60:5 ]
	andq	%r9, %rdi
.Ltmp51:
	#DEBUG_VALUE: fe25519_sub:h4 <- $rdi
	.loc	11 75 38                        # ./include/sodium/private/ed25519_ref10_fe_51.h:75:38 @[ crypto_sign/ed25519/ref10/keypair.c:60:5 ]
	imulq	$-19, %r8, %r8
	subq	%rcx, %r8
	movabsq	$4503599627370494, %rcx         # imm = 0xFFFFFFFFFFFFE
	addq	%rcx, %r8
	addq	$-35, %r8
.Ltmp52:
	#DEBUG_VALUE: fe25519_sub:h0 <- $r8
	.loc	11 76 38                        # ./include/sodium/private/ed25519_ref10_fe_51.h:76:38 @[ crypto_sign/ed25519/ref10/keypair.c:60:5 ]
	movq	%rcx, %r9
	subq	%rax, %r9
.Ltmp53:
	#DEBUG_VALUE: fe25519_sub:h1 <- $r9
	.loc	11 77 38                        # ./include/sodium/private/ed25519_ref10_fe_51.h:77:38 @[ crypto_sign/ed25519/ref10/keypair.c:60:5 ]
	movq	%rcx, %rax
	subq	%rdx, %rax
.Ltmp54:
	#DEBUG_VALUE: fe25519_sub:h2 <- $rax
	.loc	11 78 38                        # ./include/sodium/private/ed25519_ref10_fe_51.h:78:38 @[ crypto_sign/ed25519/ref10/keypair.c:60:5 ]
	movq	%rcx, %rdx
	subq	%rsi, %rdx
.Ltmp55:
	#DEBUG_VALUE: fe25519_sub:h3 <- $rdx
	.loc	11 79 38                        # ./include/sodium/private/ed25519_ref10_fe_51.h:79:38 @[ crypto_sign/ed25519/ref10/keypair.c:60:5 ]
	subq	%rdi, %rcx
.Ltmp56:
	#DEBUG_VALUE: fe25519_sub:h4 <- $rcx
	.loc	11 81 10                        # ./include/sodium/private/ed25519_ref10_fe_51.h:81:10 @[ crypto_sign/ed25519/ref10/keypair.c:60:5 ]
	movq	%r8, 96(%rsp)
.Ltmp57:
	#DEBUG_VALUE: crypto_sign_ed25519_pk_to_curve25519:one_minus_y <- [DW_OP_plus_uconst 96, DW_OP_deref] $rsp
	.loc	11 82 10                        # ./include/sodium/private/ed25519_ref10_fe_51.h:82:10 @[ crypto_sign/ed25519/ref10/keypair.c:60:5 ]
	movq	%r9, 104(%rsp)
	.loc	11 83 10                        # ./include/sodium/private/ed25519_ref10_fe_51.h:83:10 @[ crypto_sign/ed25519/ref10/keypair.c:60:5 ]
	movq	%rax, 112(%rsp)
	.loc	11 84 10                        # ./include/sodium/private/ed25519_ref10_fe_51.h:84:10 @[ crypto_sign/ed25519/ref10/keypair.c:60:5 ]
	movq	%rdx, 120(%rsp)
	.loc	11 85 10                        # ./include/sodium/private/ed25519_ref10_fe_51.h:85:10 @[ crypto_sign/ed25519/ref10/keypair.c:60:5 ]
	movq	%rcx, 128(%rsp)
.Ltmp58:
	#DEBUG_VALUE: fe25519_1:h <- [DW_OP_plus_uconst 320, DW_OP_stack_value] $rsp
	#DEBUG_VALUE: crypto_sign_ed25519_pk_to_curve25519:x <- [DW_OP_LLVM_fragment 0 64] 1
	#DEBUG_VALUE: crypto_sign_ed25519_pk_to_curve25519:x <- [DW_OP_plus_uconst 320, DW_OP_plus_uconst 8, DW_OP_deref, DW_OP_LLVM_fragment 64 256] $rsp
	#DEBUG_VALUE: memset:__ch <- 0
	#DEBUG_VALUE: memset:__len <- 32
	#DEBUG_VALUE: fe25519_add:h <- [DW_OP_plus_uconst 320, DW_OP_stack_value] $rsp
	#DEBUG_VALUE: fe25519_add:f <- [DW_OP_plus_uconst 320, DW_OP_stack_value] $rsp
	#DEBUG_VALUE: memset:__dest <- undef
	#DEBUG_VALUE: fe25519_add:g <- [DW_OP_plus_uconst 360, DW_OP_plus_uconst 40, DW_OP_stack_value] $rsp
	.loc	11 35 24                        # ./include/sodium/private/ed25519_ref10_fe_51.h:35:24 @[ crypto_sign/ed25519/ref10/keypair.c:62:5 ]
	incq	%r14
.Ltmp59:
	#DEBUG_VALUE: fe25519_add:h0 <- $r14
	#DEBUG_VALUE: fe25519_add:h1 <- $rbp
	#DEBUG_VALUE: fe25519_add:h2 <- $rbx
	#DEBUG_VALUE: fe25519_add:h3 <- $r12
	#DEBUG_VALUE: crypto_sign_ed25519_pk_to_curve25519:x <- [DW_OP_LLVM_fragment 0 64] $r14
	#DEBUG_VALUE: fe25519_add:h4 <- $r13
	#DEBUG_VALUE: crypto_sign_ed25519_pk_to_curve25519:x <- [DW_OP_LLVM_fragment 256 64] $r13
	#DEBUG_VALUE: crypto_sign_ed25519_pk_to_curve25519:x <- [DW_OP_LLVM_fragment 192 64] $r12
	#DEBUG_VALUE: crypto_sign_ed25519_pk_to_curve25519:x <- [DW_OP_LLVM_fragment 128 64] $rbx
	#DEBUG_VALUE: crypto_sign_ed25519_pk_to_curve25519:x <- [DW_OP_LLVM_fragment 64 64] $rbp
	.loc	11 0 24 is_stmt 0               # ./include/sodium/private/ed25519_ref10_fe_51.h:0:24
	movq	%r14, 8(%rsp)                   # 8-byte Spill
.Ltmp60:
	#DEBUG_VALUE: fe25519_add:h0 <- [DW_OP_plus_uconst 8, DW_OP_deref] $rsp
	#DEBUG_VALUE: crypto_sign_ed25519_pk_to_curve25519:x <- [DW_OP_plus_uconst 8, DW_OP_deref, DW_OP_LLVM_fragment 0 64] $rsp
	leaq	96(%rsp), %rdi
.Ltmp61:
	.loc	4 63 5 is_stmt 1                # crypto_sign/ed25519/ref10/keypair.c:63:5
	movq	%rdi, %rsi
	callq	fe25519_invert@PLT
.Ltmp62:
	#DEBUG_VALUE: fe25519_mul:h <- [DW_OP_plus_uconst 320, DW_OP_stack_value] $rsp
	#DEBUG_VALUE: fe25519_mul:f <- [DW_OP_plus_uconst 320, DW_OP_stack_value] $rsp
	#DEBUG_VALUE: fe25519_mul:g <- [DW_OP_plus_uconst 96, DW_OP_stack_value] $rsp
	#DEBUG_VALUE: fe25519_mul:mask <- 2251799813685247
	#DEBUG_VALUE: fe25519_mul:f0 <- [DW_OP_plus_uconst 8, DW_OP_deref] $rsp
	#DEBUG_VALUE: fe25519_mul:f4 <- $r13
	#DEBUG_VALUE: fe25519_mul:f3 <- $r12
	#DEBUG_VALUE: fe25519_mul:f2 <- $rbx
	#DEBUG_VALUE: fe25519_mul:f1 <- $rbp
	.loc	11 248 10                       # ./include/sodium/private/ed25519_ref10_fe_51.h:248:10 @[ crypto_sign/ed25519/ref10/keypair.c:64:5 ]
	movq	96(%rsp), %rax
.Ltmp63:
	#DEBUG_VALUE: fe25519_mul:g0 <- undef
	.loc	11 0 10 is_stmt 0               # ./include/sodium/private/ed25519_ref10_fe_51.h:0:10
	movq	%rax, 88(%rsp)                  # 8-byte Spill
	.loc	11 251 10 is_stmt 1             # ./include/sodium/private/ed25519_ref10_fe_51.h:251:10 @[ crypto_sign/ed25519/ref10/keypair.c:64:5 ]
	movq	120(%rsp), %r9
.Ltmp64:
	#DEBUG_VALUE: fe25519_mul:g3 <- undef
	.loc	11 0 10 is_stmt 0               # ./include/sodium/private/ed25519_ref10_fe_51.h:0:10
	movq	%r9, 16(%rsp)                   # 8-byte Spill
	.loc	11 252 10 is_stmt 1             # ./include/sodium/private/ed25519_ref10_fe_51.h:252:10 @[ crypto_sign/ed25519/ref10/keypair.c:64:5 ]
	movq	128(%rsp), %r8
.Ltmp65:
	#DEBUG_VALUE: fe25519_mul:g4 <- undef
	.loc	11 0 10 is_stmt 0               # ./include/sodium/private/ed25519_ref10_fe_51.h:0:10
	movq	%r8, 40(%rsp)                   # 8-byte Spill
	movq	%rbp, 24(%rsp)                  # 8-byte Spill
.Ltmp66:
	#DEBUG_VALUE: fe25519_mul:f1 <- [DW_OP_plus_uconst 24, DW_OP_deref] $rsp
	#DEBUG_VALUE: fe25519_add:h1 <- [DW_OP_plus_uconst 24, DW_OP_deref] $rsp
	#DEBUG_VALUE: crypto_sign_ed25519_pk_to_curve25519:x <- [DW_OP_plus_uconst 24, DW_OP_deref, DW_OP_LLVM_fragment 64 64] $rsp
	.loc	11 254 19 is_stmt 1             # ./include/sodium/private/ed25519_ref10_fe_51.h:254:19 @[ crypto_sign/ed25519/ref10/keypair.c:64:5 ]
	leaq	(%rbp,%rbp,8), %rcx
	leaq	(,%rcx,2), %rcx
	addq	%rbp, %rcx
.Ltmp67:
	#DEBUG_VALUE: fe25519_mul:f1_19 <- $rcx
	.loc	11 0 19 is_stmt 0               # ./include/sodium/private/ed25519_ref10_fe_51.h:0:19
	movq	%rbx, 32(%rsp)                  # 8-byte Spill
.Ltmp68:
	#DEBUG_VALUE: fe25519_mul:f2 <- [DW_OP_plus_uconst 32, DW_OP_deref] $rsp
	#DEBUG_VALUE: fe25519_add:h2 <- [DW_OP_plus_uconst 32, DW_OP_deref] $rsp
	#DEBUG_VALUE: crypto_sign_ed25519_pk_to_curve25519:x <- [DW_OP_plus_uconst 32, DW_OP_deref, DW_OP_LLVM_fragment 128 64] $rsp
	.loc	11 255 19 is_stmt 1             # ./include/sodium/private/ed25519_ref10_fe_51.h:255:19 @[ crypto_sign/ed25519/ref10/keypair.c:64:5 ]
	leaq	(%rbx,%rbx,8), %rsi
.Ltmp69:
	#DEBUG_VALUE: fe25519_mul:f2_19 <- undef
	#DEBUG_VALUE: fe25519_mul:f3_19 <- undef
	#DEBUG_VALUE: fe25519_mul:f4_19 <- undef
	.loc	11 259 28                       # ./include/sodium/private/ed25519_ref10_fe_51.h:259:28 @[ crypto_sign/ed25519/ref10/keypair.c:64:5 ]
	mulq	%r14
	movq	%rax, %rdi
	movq	%rdx, 56(%rsp)                  # 8-byte Spill
	.loc	11 255 19                       # ./include/sodium/private/ed25519_ref10_fe_51.h:255:19 @[ crypto_sign/ed25519/ref10/keypair.c:64:5 ]
	leaq	(%rbx,%rsi,2), %rsi
.Ltmp70:
	#DEBUG_VALUE: fe25519_mul:f2_19 <- $rsi
	#DEBUG_VALUE: fe25519_mul:r0 <- [DW_OP_LLVM_fragment 0 64] $rdi
	#DEBUG_VALUE: fe25519_mul:r0 <- [DW_OP_plus_uconst 56, DW_OP_deref, DW_OP_LLVM_fragment 64 64] $rsp
	.loc	11 0 19 is_stmt 0               # ./include/sodium/private/ed25519_ref10_fe_51.h:0:19
	movq	%rsi, 80(%rsp)                  # 8-byte Spill
	.loc	11 260 31 is_stmt 1             # ./include/sodium/private/ed25519_ref10_fe_51.h:260:31 @[ crypto_sign/ed25519/ref10/keypair.c:64:5 ]
	movq	%r8, %rax
	#DEBUG_VALUE: fe25519_sub:h2 <- $rdi
	mulq	%rcx
	movq	%rdx, 72(%rsp)                  # 8-byte Spill
.Ltmp71:
	#DEBUG_VALUE: fe25519_mul:r0 <- undef
	movq	%rax, %r14
	.loc	11 261 31                       # ./include/sodium/private/ed25519_ref10_fe_51.h:261:31 @[ crypto_sign/ed25519/ref10/keypair.c:64:5 ]
	movq	%r9, %rax
	mulq	%rsi
	movq	%rax, %r9
	#DEBUG_VALUE: fe25519_sub:h1 <- [DW_OP_plus_uconst 16, DW_OP_deref] $rsp
	movq	%r15, 312(%rsp)                 # 8-byte Spill
.Ltmp72:
	#DEBUG_VALUE: crypto_sign_ed25519_pk_to_curve25519:curve25519_pk <- [DW_OP_plus_uconst 312] [$rsp+0]
	movq	%rdx, %r15
	movq	%r12, 280(%rsp)                 # 8-byte Spill
.Ltmp73:
	#DEBUG_VALUE: fe25519_mul:f3 <- [DW_OP_plus_uconst 280, DW_OP_deref] $rsp
	#DEBUG_VALUE: fe25519_add:h3 <- [DW_OP_plus_uconst 280, DW_OP_deref] $rsp
	#DEBUG_VALUE: crypto_sign_ed25519_pk_to_curve25519:x <- [DW_OP_plus_uconst 280, DW_OP_deref, DW_OP_LLVM_fragment 192 64] $rsp
	.loc	11 256 19                       # ./include/sodium/private/ed25519_ref10_fe_51.h:256:19 @[ crypto_sign/ed25519/ref10/keypair.c:64:5 ]
	leaq	(%r12,%r12,8), %rax
	leaq	(%r12,%rax,2), %rcx
.Ltmp74:
	#DEBUG_VALUE: fe25519_mul:f3_19 <- $rcx
	.loc	11 0 19 is_stmt 0               # ./include/sodium/private/ed25519_ref10_fe_51.h:0:19
	movq	%rcx, 64(%rsp)                  # 8-byte Spill
	.loc	11 250 10 is_stmt 1             # ./include/sodium/private/ed25519_ref10_fe_51.h:250:10 @[ crypto_sign/ed25519/ref10/keypair.c:64:5 ]
	movq	112(%rsp), %rbx
.Ltmp75:
	#DEBUG_VALUE: fe25519_mul:g2 <- undef
	.loc	11 262 31                       # ./include/sodium/private/ed25519_ref10_fe_51.h:262:31 @[ crypto_sign/ed25519/ref10/keypair.c:64:5 ]
	movq	%rbx, %rax
	mulq	%rcx
	movq	%rax, %r8
	#DEBUG_VALUE: fe25519_sub:h0 <- [DW_OP_plus_uconst 40, DW_OP_deref] $rsp
	movq	%rdx, %rsi
.Ltmp76:
	.loc	11 0 31 is_stmt 0               # ./include/sodium/private/ed25519_ref10_fe_51.h:0:31
	movq	%r13, 304(%rsp)                 # 8-byte Spill
.Ltmp77:
	#DEBUG_VALUE: fe25519_mul:f4 <- [DW_OP_plus_uconst 304, DW_OP_deref] $rsp
	#DEBUG_VALUE: fe25519_add:h4 <- [DW_OP_plus_uconst 304, DW_OP_deref] $rsp
	#DEBUG_VALUE: crypto_sign_ed25519_pk_to_curve25519:x <- [DW_OP_plus_uconst 304, DW_OP_deref, DW_OP_LLVM_fragment 256 64] $rsp
	.loc	11 257 19 is_stmt 1             # ./include/sodium/private/ed25519_ref10_fe_51.h:257:19 @[ crypto_sign/ed25519/ref10/keypair.c:64:5 ]
	leaq	(,%r13,8), %rax
	addq	%r13, %rax
	leaq	(,%rax,2), %rbp
	addq	%r13, %rbp
.Ltmp78:
	#DEBUG_VALUE: fe25519_mul:f4_19 <- $rbp
	.loc	11 249 10                       # ./include/sodium/private/ed25519_ref10_fe_51.h:249:10 @[ crypto_sign/ed25519/ref10/keypair.c:64:5 ]
	movq	104(%rsp), %r10
.Ltmp79:
	#DEBUG_VALUE: fe25519_mul:g1 <- undef
	.loc	11 263 31                       # ./include/sodium/private/ed25519_ref10_fe_51.h:263:31 @[ crypto_sign/ed25519/ref10/keypair.c:64:5 ]
	movq	%r10, %rax
	mulq	%rbp
	movq	%rbp, 48(%rsp)                  # 8-byte Spill
	movq	%rdx, %r11
	.loc	11 260 8                        # ./include/sodium/private/ed25519_ref10_fe_51.h:260:8 @[ crypto_sign/ed25519/ref10/keypair.c:64:5 ]
	addq	%rdi, %rax
	adcq	56(%rsp), %r11                  # 8-byte Folded Reload
	.loc	11 261 8                        # ./include/sodium/private/ed25519_ref10_fe_51.h:261:8 @[ crypto_sign/ed25519/ref10/keypair.c:64:5 ]
	addq	%r8, %rax
	adcq	%rsi, %r11
	.loc	11 262 8                        # ./include/sodium/private/ed25519_ref10_fe_51.h:262:8 @[ crypto_sign/ed25519/ref10/keypair.c:64:5 ]
	addq	%r9, %rax
	adcq	%r15, %r11
	.loc	11 263 8                        # ./include/sodium/private/ed25519_ref10_fe_51.h:263:8 @[ crypto_sign/ed25519/ref10/keypair.c:64:5 ]
	addq	%r14, %rax
.Ltmp80:
	#DEBUG_VALUE: fe25519_mul:r0 <- [DW_OP_LLVM_fragment 0 64] $rax
	.loc	11 0 8 is_stmt 0                # ./include/sodium/private/ed25519_ref10_fe_51.h:0:8
	movq	%rax, 152(%rsp)                 # 8-byte Spill
.Ltmp81:
	#DEBUG_VALUE: fe25519_mul:r0 <- [DW_OP_plus_uconst 152, DW_OP_deref, DW_OP_LLVM_fragment 0 64] $rsp
	.loc	11 263 8                        # ./include/sodium/private/ed25519_ref10_fe_51.h:263:8 @[ crypto_sign/ed25519/ref10/keypair.c:64:5 ]
	adcq	72(%rsp), %r11                  # 8-byte Folded Reload
.Ltmp82:
	#DEBUG_VALUE: fe25519_mul:r0 <- [DW_OP_LLVM_fragment 64 64] $r11
	.loc	11 265 28 is_stmt 1             # ./include/sodium/private/ed25519_ref10_fe_51.h:265:28 @[ crypto_sign/ed25519/ref10/keypair.c:64:5 ]
	movq	%r10, %rax
	movq	%r10, %r15
	movq	%r10, 144(%rsp)                 # 8-byte Spill
	movq	8(%rsp), %r13                   # 8-byte Reload
	mulq	%r13
	movq	%rdx, %rsi
	movq	%rax, %rdi
.Ltmp83:
	#DEBUG_VALUE: fe25519_mul:r1 <- [DW_OP_LLVM_fragment 0 64] $rdi
	#DEBUG_VALUE: fe25519_mul:r1 <- [DW_OP_LLVM_fragment 64 64] $rsi
	.loc	11 0 28 is_stmt 0               # ./include/sodium/private/ed25519_ref10_fe_51.h:0:28
	movq	88(%rsp), %r8                   # 8-byte Reload
	.loc	11 266 29 is_stmt 1             # ./include/sodium/private/ed25519_ref10_fe_51.h:266:29 @[ crypto_sign/ed25519/ref10/keypair.c:64:5 ]
	movq	%r8, %rax
	movq	24(%rsp), %r10                  # 8-byte Reload
	mulq	%r10
	.loc	11 266 8 is_stmt 0              # ./include/sodium/private/ed25519_ref10_fe_51.h:266:8 @[ crypto_sign/ed25519/ref10/keypair.c:64:5 ]
	addq	%rdi, %rax
.Ltmp84:
	#DEBUG_VALUE: fe25519_mul:r1 <- [DW_OP_LLVM_fragment 0 64] $rax
	.loc	11 0 8                          # ./include/sodium/private/ed25519_ref10_fe_51.h:0:8
	movq	%rax, 272(%rsp)                 # 8-byte Spill
.Ltmp85:
	#DEBUG_VALUE: fe25519_mul:r1 <- [DW_OP_plus_uconst 272, DW_OP_deref, DW_OP_LLVM_fragment 0 64] $rsp
	.loc	11 266 8                        # ./include/sodium/private/ed25519_ref10_fe_51.h:266:8 @[ crypto_sign/ed25519/ref10/keypair.c:64:5 ]
	adcq	%rsi, %rdx
.Ltmp86:
	#DEBUG_VALUE: fe25519_mul:r1 <- [DW_OP_LLVM_fragment 64 64] $rdx
	.loc	11 0 8                          # ./include/sodium/private/ed25519_ref10_fe_51.h:0:8
	movq	%rdx, 264(%rsp)                 # 8-byte Spill
.Ltmp87:
	#DEBUG_VALUE: fe25519_mul:r1 <- [DW_OP_plus_uconst 264, DW_OP_deref, DW_OP_LLVM_fragment 64 64] $rsp
	movq	40(%rsp), %r12                  # 8-byte Reload
	.loc	11 267 31 is_stmt 1             # ./include/sodium/private/ed25519_ref10_fe_51.h:267:31 @[ crypto_sign/ed25519/ref10/keypair.c:64:5 ]
	movq	%r12, %rax
	mulq	80(%rsp)                        # 8-byte Folded Reload
	movq	%rdx, 80(%rsp)                  # 8-byte Spill
.Ltmp88:
	#DEBUG_VALUE: fe25519_mul:r1 <- undef
	.loc	11 0 31 is_stmt 0               # ./include/sodium/private/ed25519_ref10_fe_51.h:0:31
	movq	%rax, 56(%rsp)                  # 8-byte Spill
	movq	16(%rsp), %r9                   # 8-byte Reload
	.loc	11 268 31 is_stmt 1             # ./include/sodium/private/ed25519_ref10_fe_51.h:268:31 @[ crypto_sign/ed25519/ref10/keypair.c:64:5 ]
	movq	%r9, %rax
	movq	64(%rsp), %rcx                  # 8-byte Reload
.Ltmp89:
	mulq	%rcx
	movq	%rdx, 256(%rsp)                 # 8-byte Spill
	movq	%rax, 224(%rsp)                 # 8-byte Spill
	movq	%rbx, %r14
	.loc	11 269 31                       # ./include/sodium/private/ed25519_ref10_fe_51.h:269:31 @[ crypto_sign/ed25519/ref10/keypair.c:64:5 ]
	movq	%rbx, %rax
	mulq	%rbp
	movq	%rdx, %rbp
.Ltmp90:
	movq	%rax, %rsi
	.loc	11 271 28                       # ./include/sodium/private/ed25519_ref10_fe_51.h:271:28 @[ crypto_sign/ed25519/ref10/keypair.c:64:5 ]
	movq	%rbx, %rax
	mulq	%r13
	movq	%rdx, 72(%rsp)                  # 8-byte Spill
	movq	%rax, 296(%rsp)                 # 8-byte Spill
.Ltmp91:
	#DEBUG_VALUE: fe25519_mul:r2 <- [DW_OP_plus_uconst 296, DW_OP_deref, DW_OP_LLVM_fragment 0 64] $rsp
	#DEBUG_VALUE: fe25519_mul:r2 <- [DW_OP_plus_uconst 72, DW_OP_deref, DW_OP_LLVM_fragment 64 64] $rsp
	.loc	11 272 29                       # ./include/sodium/private/ed25519_ref10_fe_51.h:272:29 @[ crypto_sign/ed25519/ref10/keypair.c:64:5 ]
	movq	%r15, %rax
	mulq	%r10
	movq	%rdx, 248(%rsp)                 # 8-byte Spill
.Ltmp92:
	#DEBUG_VALUE: fe25519_mul:r2 <- undef
	.loc	11 0 29 is_stmt 0               # ./include/sodium/private/ed25519_ref10_fe_51.h:0:29
	movq	%rax, 216(%rsp)                 # 8-byte Spill
	.loc	11 273 29 is_stmt 1             # ./include/sodium/private/ed25519_ref10_fe_51.h:273:29 @[ crypto_sign/ed25519/ref10/keypair.c:64:5 ]
	movq	%r8, %rax
	movq	%r8, %r13
	movq	32(%rsp), %rbx                  # 8-byte Reload
	mulq	%rbx
	movq	%rdx, %r15
	movq	%rax, %rdi
	.loc	11 274 31                       # ./include/sodium/private/ed25519_ref10_fe_51.h:274:31 @[ crypto_sign/ed25519/ref10/keypair.c:64:5 ]
	movq	%r12, %rax
	movq	%r12, %r8
	mulq	%rcx
	movq	%rdx, 240(%rsp)                 # 8-byte Spill
	movq	%rax, 208(%rsp)                 # 8-byte Spill
	.loc	11 275 31                       # ./include/sodium/private/ed25519_ref10_fe_51.h:275:31 @[ crypto_sign/ed25519/ref10/keypair.c:64:5 ]
	movq	%r9, %rax
	movq	48(%rsp), %r12                  # 8-byte Reload
	mulq	%r12
	movq	%rdx, 192(%rsp)                 # 8-byte Spill
	movq	%rax, 176(%rsp)                 # 8-byte Spill
	.loc	11 277 28                       # ./include/sodium/private/ed25519_ref10_fe_51.h:277:28 @[ crypto_sign/ed25519/ref10/keypair.c:64:5 ]
	movq	%r9, %rax
	movq	8(%rsp), %rcx                   # 8-byte Reload
	mulq	%rcx
	movq	%rdx, 64(%rsp)                  # 8-byte Spill
	movq	%rax, 288(%rsp)                 # 8-byte Spill
.Ltmp93:
	#DEBUG_VALUE: fe25519_mul:r3 <- [DW_OP_plus_uconst 288, DW_OP_deref, DW_OP_LLVM_fragment 0 64] $rsp
	#DEBUG_VALUE: fe25519_mul:r3 <- [DW_OP_plus_uconst 64, DW_OP_deref, DW_OP_LLVM_fragment 64 64] $rsp
	.loc	11 278 29                       # ./include/sodium/private/ed25519_ref10_fe_51.h:278:29 @[ crypto_sign/ed25519/ref10/keypair.c:64:5 ]
	movq	%r14, %rax
	mulq	%r10
	movq	%rdx, 232(%rsp)                 # 8-byte Spill
.Ltmp94:
	#DEBUG_VALUE: fe25519_mul:r3 <- undef
	.loc	11 0 29 is_stmt 0               # ./include/sodium/private/ed25519_ref10_fe_51.h:0:29
	movq	%rax, 200(%rsp)                 # 8-byte Spill
	movq	144(%rsp), %r10                 # 8-byte Reload
	.loc	11 279 29 is_stmt 1             # ./include/sodium/private/ed25519_ref10_fe_51.h:279:29 @[ crypto_sign/ed25519/ref10/keypair.c:64:5 ]
	movq	%r10, %rax
	mulq	%rbx
	movq	%rdx, 184(%rsp)                 # 8-byte Spill
	movq	%rax, 168(%rsp)                 # 8-byte Spill
	.loc	11 280 29                       # ./include/sodium/private/ed25519_ref10_fe_51.h:280:29 @[ crypto_sign/ed25519/ref10/keypair.c:64:5 ]
	movq	%r13, %rax
	movq	280(%rsp), %r13                 # 8-byte Reload
	mulq	%r13
	movq	%rdx, %rbx
	movq	%rax, %r9
	.loc	11 281 31                       # ./include/sodium/private/ed25519_ref10_fe_51.h:281:31 @[ crypto_sign/ed25519/ref10/keypair.c:64:5 ]
	movq	%r8, %rax
	mulq	%r12
	movq	%rdx, 48(%rsp)                  # 8-byte Spill
	movq	%rax, 160(%rsp)                 # 8-byte Spill
	.loc	11 283 28                       # ./include/sodium/private/ed25519_ref10_fe_51.h:283:28 @[ crypto_sign/ed25519/ref10/keypair.c:64:5 ]
	movq	%r8, %rax
	mulq	%rcx
	movq	%rdx, %r12
	movq	%rax, 8(%rsp)                   # 8-byte Spill
.Ltmp95:
	#DEBUG_VALUE: fe25519_mul:f0 <- $rcx
	#DEBUG_VALUE: fe25519_add:h0 <- $rcx
	#DEBUG_VALUE: crypto_sign_ed25519_pk_to_curve25519:x <- [DW_OP_LLVM_fragment 0 64] $rcx
	#DEBUG_VALUE: fe25519_mul:r4 <- [DW_OP_plus_uconst 8, DW_OP_deref, DW_OP_LLVM_fragment 0 64] $rsp
	#DEBUG_VALUE: fe25519_mul:r4 <- [DW_OP_LLVM_fragment 64 64] $r12
	.loc	11 0 28 is_stmt 0               # ./include/sodium/private/ed25519_ref10_fe_51.h:0:28
	movq	16(%rsp), %rax                  # 8-byte Reload
	.loc	11 284 29 is_stmt 1             # ./include/sodium/private/ed25519_ref10_fe_51.h:284:29 @[ crypto_sign/ed25519/ref10/keypair.c:64:5 ]
	mulq	24(%rsp)                        # 8-byte Folded Reload
	movq	%rdx, 24(%rsp)                  # 8-byte Spill
.Ltmp96:
	#DEBUG_VALUE: fe25519_mul:f1 <- undef
	#DEBUG_VALUE: fe25519_add:h1 <- undef
	#DEBUG_VALUE: crypto_sign_ed25519_pk_to_curve25519:x <- [DW_OP_LLVM_fragment 64 64] undef
	#DEBUG_VALUE: fe25519_mul:r4 <- undef
	.loc	11 0 29 is_stmt 0               # ./include/sodium/private/ed25519_ref10_fe_51.h:0:29
	movq	%rax, 16(%rsp)                  # 8-byte Spill
	#DEBUG_VALUE: fe25519_sub:h1 <- undef
	.loc	11 285 29 is_stmt 1             # ./include/sodium/private/ed25519_ref10_fe_51.h:285:29 @[ crypto_sign/ed25519/ref10/keypair.c:64:5 ]
	movq	%r14, %rax
	mulq	32(%rsp)                        # 8-byte Folded Reload
	movq	%rdx, 32(%rsp)                  # 8-byte Spill
.Ltmp97:
	#DEBUG_VALUE: fe25519_mul:f2 <- undef
	#DEBUG_VALUE: fe25519_add:h2 <- undef
	#DEBUG_VALUE: crypto_sign_ed25519_pk_to_curve25519:x <- [DW_OP_LLVM_fragment 128 64] undef
	.loc	11 0 29 is_stmt 0               # ./include/sodium/private/ed25519_ref10_fe_51.h:0:29
	movq	%rax, 40(%rsp)                  # 8-byte Spill
	#DEBUG_VALUE: fe25519_sub:h0 <- $r8
	.loc	11 286 29 is_stmt 1             # ./include/sodium/private/ed25519_ref10_fe_51.h:286:29 @[ crypto_sign/ed25519/ref10/keypair.c:64:5 ]
	movq	%r10, %rax
	mulq	%r13
	movq	%rdx, %r13
	movq	%rax, %rcx
.Ltmp98:
	.loc	11 0 29 is_stmt 0               # ./include/sodium/private/ed25519_ref10_fe_51.h:0:29
	movq	88(%rsp), %rax                  # 8-byte Reload
	.loc	11 287 29 is_stmt 1             # ./include/sodium/private/ed25519_ref10_fe_51.h:287:29 @[ crypto_sign/ed25519/ref10/keypair.c:64:5 ]
	mulq	304(%rsp)                       # 8-byte Folded Reload
	.loc	11 290 16                       # ./include/sodium/private/ed25519_ref10_fe_51.h:290:16 @[ crypto_sign/ed25519/ref10/keypair.c:64:5 ]
	movq	%r11, %r8
	shrq	$51, %r8
.Ltmp99:
	#DEBUG_VALUE: fe25519_mul:carry <- [DW_OP_LLVM_fragment 64 64] $r8
	.loc	11 0 16 is_stmt 0               # ./include/sodium/private/ed25519_ref10_fe_51.h:0:16
	movq	152(%rsp), %r14                 # 8-byte Reload
	.loc	11 290 16                       # ./include/sodium/private/ed25519_ref10_fe_51.h:290:16 @[ crypto_sign/ed25519/ref10/keypair.c:64:5 ]
	shldq	$13, %r14, %r11
.Ltmp100:
	.loc	11 0 16                         # ./include/sodium/private/ed25519_ref10_fe_51.h:0:16
	movabsq	$2251799813685247, %r10         # imm = 0x7FFFFFFFFFFFF
	.loc	11 289 27 is_stmt 1             # ./include/sodium/private/ed25519_ref10_fe_51.h:289:27 @[ crypto_sign/ed25519/ref10/keypair.c:64:5 ]
	andq	%r10, %r14
.Ltmp101:
	#DEBUG_VALUE: fe25519_mul:r00 <- $r14
	#DEBUG_VALUE: fe25519_mul:carry <- [DW_OP_LLVM_fragment 0 64] $r11
	.loc	11 267 8                        # ./include/sodium/private/ed25519_ref10_fe_51.h:267:8 @[ crypto_sign/ed25519/ref10/keypair.c:64:5 ]
	addq	272(%rsp), %rsi                 # 8-byte Folded Reload
	adcq	264(%rsp), %rbp                 # 8-byte Folded Reload
	.loc	11 268 8                        # ./include/sodium/private/ed25519_ref10_fe_51.h:268:8 @[ crypto_sign/ed25519/ref10/keypair.c:64:5 ]
	addq	224(%rsp), %rsi                 # 8-byte Folded Reload
	adcq	256(%rsp), %rbp                 # 8-byte Folded Reload
	.loc	11 269 8                        # ./include/sodium/private/ed25519_ref10_fe_51.h:269:8 @[ crypto_sign/ed25519/ref10/keypair.c:64:5 ]
	addq	56(%rsp), %rsi                  # 8-byte Folded Reload
.Ltmp102:
	#DEBUG_VALUE: fe25519_mul:r1 <- [DW_OP_LLVM_fragment 0 64] $rsi
	adcq	80(%rsp), %rbp                  # 8-byte Folded Reload
.Ltmp103:
	#DEBUG_VALUE: fe25519_mul:r1 <- [DW_OP_LLVM_fragment 64 64] $rbp
	.loc	11 291 8                        # ./include/sodium/private/ed25519_ref10_fe_51.h:291:8 @[ crypto_sign/ed25519/ref10/keypair.c:64:5 ]
	addq	%r11, %rsi
.Ltmp104:
	#DEBUG_VALUE: fe25519_mul:r1 <- [DW_OP_LLVM_fragment 0 64] $rsi
	adcq	%r8, %rbp
.Ltmp105:
	.loc	11 293 16                       # ./include/sodium/private/ed25519_ref10_fe_51.h:293:16 @[ crypto_sign/ed25519/ref10/keypair.c:64:5 ]
	movq	%rbp, %r8
.Ltmp106:
	shrq	$51, %r8
.Ltmp107:
	#DEBUG_VALUE: fe25519_mul:carry <- [DW_OP_LLVM_fragment 64 64] $r8
	shldq	$13, %rsi, %rbp
.Ltmp108:
	#DEBUG_VALUE: fe25519_mul:r1 <- [DW_OP_LLVM_fragment 64 64] undef
	.loc	11 292 27                       # ./include/sodium/private/ed25519_ref10_fe_51.h:292:27 @[ crypto_sign/ed25519/ref10/keypair.c:64:5 ]
	andq	%r10, %rsi
.Ltmp109:
	#DEBUG_VALUE: fe25519_mul:r01 <- $rsi
	#DEBUG_VALUE: fe25519_mul:carry <- [DW_OP_LLVM_fragment 0 64] $rbp
	.loc	11 272 8                        # ./include/sodium/private/ed25519_ref10_fe_51.h:272:8 @[ crypto_sign/ed25519/ref10/keypair.c:64:5 ]
	addq	216(%rsp), %rdi                 # 8-byte Folded Reload
	adcq	248(%rsp), %r15                 # 8-byte Folded Reload
	.loc	11 273 8                        # ./include/sodium/private/ed25519_ref10_fe_51.h:273:8 @[ crypto_sign/ed25519/ref10/keypair.c:64:5 ]
	addq	296(%rsp), %rdi                 # 8-byte Folded Reload
	adcq	72(%rsp), %r15                  # 8-byte Folded Reload
	.loc	11 274 8                        # ./include/sodium/private/ed25519_ref10_fe_51.h:274:8 @[ crypto_sign/ed25519/ref10/keypair.c:64:5 ]
	addq	176(%rsp), %rdi                 # 8-byte Folded Reload
	adcq	192(%rsp), %r15                 # 8-byte Folded Reload
	.loc	11 275 8                        # ./include/sodium/private/ed25519_ref10_fe_51.h:275:8 @[ crypto_sign/ed25519/ref10/keypair.c:64:5 ]
	addq	208(%rsp), %rdi                 # 8-byte Folded Reload
.Ltmp110:
	#DEBUG_VALUE: fe25519_mul:r2 <- [DW_OP_LLVM_fragment 0 64] $rdi
	adcq	240(%rsp), %r15                 # 8-byte Folded Reload
.Ltmp111:
	#DEBUG_VALUE: fe25519_mul:r2 <- [DW_OP_LLVM_fragment 64 64] $r15
	.loc	11 294 8                        # ./include/sodium/private/ed25519_ref10_fe_51.h:294:8 @[ crypto_sign/ed25519/ref10/keypair.c:64:5 ]
	addq	%rbp, %rdi
.Ltmp112:
	#DEBUG_VALUE: fe25519_mul:r2 <- [DW_OP_LLVM_fragment 0 64] $rdi
	adcq	%r8, %r15
.Ltmp113:
	.loc	11 296 16                       # ./include/sodium/private/ed25519_ref10_fe_51.h:296:16 @[ crypto_sign/ed25519/ref10/keypair.c:64:5 ]
	movq	%r15, %r8
.Ltmp114:
	shrq	$51, %r8
.Ltmp115:
	#DEBUG_VALUE: fe25519_mul:carry <- [DW_OP_LLVM_fragment 64 64] $r8
	shldq	$13, %rdi, %r15
.Ltmp116:
	#DEBUG_VALUE: fe25519_mul:r2 <- [DW_OP_LLVM_fragment 64 64] undef
	.loc	11 295 27                       # ./include/sodium/private/ed25519_ref10_fe_51.h:295:27 @[ crypto_sign/ed25519/ref10/keypair.c:64:5 ]
	andq	%r10, %rdi
.Ltmp117:
	#DEBUG_VALUE: fe25519_mul:r02 <- $rdi
	#DEBUG_VALUE: fe25519_mul:carry <- [DW_OP_LLVM_fragment 0 64] $r15
	.loc	11 278 8                        # ./include/sodium/private/ed25519_ref10_fe_51.h:278:8 @[ crypto_sign/ed25519/ref10/keypair.c:64:5 ]
	addq	168(%rsp), %r9                  # 8-byte Folded Reload
	adcq	184(%rsp), %rbx                 # 8-byte Folded Reload
	.loc	11 279 8                        # ./include/sodium/private/ed25519_ref10_fe_51.h:279:8 @[ crypto_sign/ed25519/ref10/keypair.c:64:5 ]
	addq	200(%rsp), %r9                  # 8-byte Folded Reload
	adcq	232(%rsp), %rbx                 # 8-byte Folded Reload
	.loc	11 280 8                        # ./include/sodium/private/ed25519_ref10_fe_51.h:280:8 @[ crypto_sign/ed25519/ref10/keypair.c:64:5 ]
	addq	288(%rsp), %r9                  # 8-byte Folded Reload
.Ltmp118:
	#DEBUG_VALUE: fe25519_mul:r3 <- [DW_OP_LLVM_fragment 0 64] $r9
	adcq	64(%rsp), %rbx                  # 8-byte Folded Reload
.Ltmp119:
	#DEBUG_VALUE: fe25519_mul:r3 <- [DW_OP_LLVM_fragment 64 64] $rbx
	.loc	11 281 8                        # ./include/sodium/private/ed25519_ref10_fe_51.h:281:8 @[ crypto_sign/ed25519/ref10/keypair.c:64:5 ]
	addq	160(%rsp), %r9                  # 8-byte Folded Reload
.Ltmp120:
	#DEBUG_VALUE: fe25519_mul:r3 <- [DW_OP_LLVM_fragment 0 64] $r9
	adcq	48(%rsp), %rbx                  # 8-byte Folded Reload
.Ltmp121:
	#DEBUG_VALUE: fe25519_mul:r3 <- [DW_OP_LLVM_fragment 64 64] $rbx
	.loc	11 297 8                        # ./include/sodium/private/ed25519_ref10_fe_51.h:297:8 @[ crypto_sign/ed25519/ref10/keypair.c:64:5 ]
	addq	%r15, %r9
.Ltmp122:
	#DEBUG_VALUE: fe25519_mul:r3 <- [DW_OP_LLVM_fragment 0 64] $r9
	adcq	%r8, %rbx
.Ltmp123:
	.loc	11 299 16                       # ./include/sodium/private/ed25519_ref10_fe_51.h:299:16 @[ crypto_sign/ed25519/ref10/keypair.c:64:5 ]
	movq	%rbx, %r8
.Ltmp124:
	shrq	$51, %r8
.Ltmp125:
	#DEBUG_VALUE: fe25519_mul:carry <- [DW_OP_LLVM_fragment 64 64] $r8
	shldq	$13, %r9, %rbx
.Ltmp126:
	#DEBUG_VALUE: fe25519_mul:r3 <- [DW_OP_LLVM_fragment 64 64] undef
	.loc	11 298 27                       # ./include/sodium/private/ed25519_ref10_fe_51.h:298:27 @[ crypto_sign/ed25519/ref10/keypair.c:64:5 ]
	andq	%r10, %r9
.Ltmp127:
	#DEBUG_VALUE: fe25519_mul:r03 <- $r9
	#DEBUG_VALUE: fe25519_mul:carry <- [DW_OP_LLVM_fragment 0 64] $rbx
	.loc	11 284 8                        # ./include/sodium/private/ed25519_ref10_fe_51.h:284:8 @[ crypto_sign/ed25519/ref10/keypair.c:64:5 ]
	addq	%rcx, %rax
	adcq	%r13, %rdx
	.loc	11 285 8                        # ./include/sodium/private/ed25519_ref10_fe_51.h:285:8 @[ crypto_sign/ed25519/ref10/keypair.c:64:5 ]
	addq	40(%rsp), %rax                  # 8-byte Folded Reload
	adcq	32(%rsp), %rdx                  # 8-byte Folded Reload
	.loc	11 286 8                        # ./include/sodium/private/ed25519_ref10_fe_51.h:286:8 @[ crypto_sign/ed25519/ref10/keypair.c:64:5 ]
	addq	16(%rsp), %rax                  # 8-byte Folded Reload
	adcq	24(%rsp), %rdx                  # 8-byte Folded Reload
	.loc	11 287 8                        # ./include/sodium/private/ed25519_ref10_fe_51.h:287:8 @[ crypto_sign/ed25519/ref10/keypair.c:64:5 ]
	addq	8(%rsp), %rax                   # 8-byte Folded Reload
.Ltmp128:
	#DEBUG_VALUE: fe25519_mul:r4 <- [DW_OP_LLVM_fragment 0 64] $rax
	adcq	%r12, %rdx
.Ltmp129:
	#DEBUG_VALUE: fe25519_mul:r4 <- [DW_OP_LLVM_fragment 64 64] $rdx
	.loc	11 300 8                        # ./include/sodium/private/ed25519_ref10_fe_51.h:300:8 @[ crypto_sign/ed25519/ref10/keypair.c:64:5 ]
	addq	%rbx, %rax
.Ltmp130:
	#DEBUG_VALUE: fe25519_mul:r4 <- [DW_OP_LLVM_fragment 0 64] $rax
	adcq	%r8, %rdx
.Ltmp131:
	.loc	11 302 16                       # ./include/sodium/private/ed25519_ref10_fe_51.h:302:16 @[ crypto_sign/ed25519/ref10/keypair.c:64:5 ]
	shldq	$13, %rax, %rdx
.Ltmp132:
	#DEBUG_VALUE: fe25519_mul:r4 <- [DW_OP_LLVM_fragment 64 64] undef
	#DEBUG_VALUE: fe25519_mul:r04 <- undef
	#DEBUG_VALUE: fe25519_mul:carry <- [DW_OP_LLVM_fragment 0 64] $rdx
	#DEBUG_VALUE: fe25519_mul:carry <- [DW_OP_LLVM_fragment 64 64] undef
	.loc	11 303 18                       # ./include/sodium/private/ed25519_ref10_fe_51.h:303:18 @[ crypto_sign/ed25519/ref10/keypair.c:64:5 ]
	leaq	(%rdx,%rdx,8), %r8
	leaq	(%rdx,%r8,2), %rdx
.Ltmp133:
	.loc	11 303 9 is_stmt 0              # ./include/sodium/private/ed25519_ref10_fe_51.h:303:9 @[ crypto_sign/ed25519/ref10/keypair.c:64:5 ]
	addq	%r14, %rdx
.Ltmp134:
	#DEBUG_VALUE: fe25519_mul:r00 <- $rdx
	.loc	11 304 17 is_stmt 1             # ./include/sodium/private/ed25519_ref10_fe_51.h:304:17 @[ crypto_sign/ed25519/ref10/keypair.c:64:5 ]
	movq	%rdx, %rcx
	shrq	$51, %rcx
.Ltmp135:
	#DEBUG_VALUE: fe25519_mul:carry <- [DW_OP_LLVM_convert 64 7, DW_OP_LLVM_convert 128 7, DW_OP_stack_value] $rcx
	.loc	11 306 9                        # ./include/sodium/private/ed25519_ref10_fe_51.h:306:9 @[ crypto_sign/ed25519/ref10/keypair.c:64:5 ]
	addq	%rsi, %rcx
.Ltmp136:
	#DEBUG_VALUE: fe25519_mul:r00 <- undef
	#DEBUG_VALUE: fe25519_mul:r01 <- $rcx
	.loc	11 307 17                       # ./include/sodium/private/ed25519_ref10_fe_51.h:307:17 @[ crypto_sign/ed25519/ref10/keypair.c:64:5 ]
	movq	%rcx, %rsi
	shrq	$51, %rsi
.Ltmp137:
	#DEBUG_VALUE: fe25519_mul:carry <- [DW_OP_LLVM_convert 64 7, DW_OP_LLVM_convert 128 7, DW_OP_stack_value] $rsi
	.loc	11 309 9                        # ./include/sodium/private/ed25519_ref10_fe_51.h:309:9 @[ crypto_sign/ed25519/ref10/keypair.c:64:5 ]
	addq	%rdi, %rsi
.Ltmp138:
	.loc	11 301 27                       # ./include/sodium/private/ed25519_ref10_fe_51.h:301:27 @[ crypto_sign/ed25519/ref10/keypair.c:64:5 ]
	andq	%r10, %rax
.Ltmp139:
	#DEBUG_VALUE: fe25519_mul:r04 <- $rax
	.loc	11 305 9                        # ./include/sodium/private/ed25519_ref10_fe_51.h:305:9 @[ crypto_sign/ed25519/ref10/keypair.c:64:5 ]
	andq	%r10, %rdx
.Ltmp140:
	#DEBUG_VALUE: fe25519_mul:r00 <- $rdx
	.loc	11 308 9                        # ./include/sodium/private/ed25519_ref10_fe_51.h:308:9 @[ crypto_sign/ed25519/ref10/keypair.c:64:5 ]
	andq	%r10, %rcx
.Ltmp141:
	#DEBUG_VALUE: fe25519_mul:r01 <- $rcx
	#DEBUG_VALUE: fe25519_mul:r02 <- $rsi
	.loc	11 311 10                       # ./include/sodium/private/ed25519_ref10_fe_51.h:311:10 @[ crypto_sign/ed25519/ref10/keypair.c:64:5 ]
	movq	%rdx, 320(%rsp)
.Ltmp142:
	#DEBUG_VALUE: crypto_sign_ed25519_pk_to_curve25519:x <- [DW_OP_plus_uconst 320, DW_OP_deref, DW_OP_LLVM_fragment 0 64] $rsp
	.loc	11 312 10                       # ./include/sodium/private/ed25519_ref10_fe_51.h:312:10 @[ crypto_sign/ed25519/ref10/keypair.c:64:5 ]
	movq	%rcx, 328(%rsp)
.Ltmp143:
	#DEBUG_VALUE: crypto_sign_ed25519_pk_to_curve25519:x <- [DW_OP_plus_uconst 320, DW_OP_deref, DW_OP_LLVM_fragment 0 128] $rsp
	.loc	11 313 10                       # ./include/sodium/private/ed25519_ref10_fe_51.h:313:10 @[ crypto_sign/ed25519/ref10/keypair.c:64:5 ]
	movq	%rsi, 336(%rsp)
.Ltmp144:
	#DEBUG_VALUE: crypto_sign_ed25519_pk_to_curve25519:x <- [DW_OP_plus_uconst 320, DW_OP_deref, DW_OP_LLVM_fragment 0 192] $rsp
	.loc	11 314 10                       # ./include/sodium/private/ed25519_ref10_fe_51.h:314:10 @[ crypto_sign/ed25519/ref10/keypair.c:64:5 ]
	movq	%r9, 344(%rsp)
.Ltmp145:
	#DEBUG_VALUE: crypto_sign_ed25519_pk_to_curve25519:x <- [DW_OP_plus_uconst 320, DW_OP_deref, DW_OP_LLVM_fragment 0 256] $rsp
	.loc	11 315 10                       # ./include/sodium/private/ed25519_ref10_fe_51.h:315:10 @[ crypto_sign/ed25519/ref10/keypair.c:64:5 ]
	movq	%rax, 352(%rsp)
.Ltmp146:
	#DEBUG_VALUE: crypto_sign_ed25519_pk_to_curve25519:x <- [DW_OP_plus_uconst 320, DW_OP_deref] $rsp
	.loc	11 0 10 is_stmt 0               # ./include/sodium/private/ed25519_ref10_fe_51.h:0:10
	leaq	320(%rsp), %rsi
.Ltmp147:
	movq	312(%rsp), %rdi                 # 8-byte Reload
.Ltmp148:
	.loc	4 65 5 is_stmt 1                # crypto_sign/ed25519/ref10/keypair.c:65:5
	callq	fe25519_tobytes@PLT
.Ltmp149:
	.loc	4 0 5 is_stmt 0                 # crypto_sign/ed25519/ref10/keypair.c:0:5
	xorl	%ebx, %ebx
.Ltmp150:
.LBB2_4:
	#DEBUG_VALUE: crypto_sign_ed25519_pk_to_curve25519:curve25519_pk <- [DW_OP_LLVM_entry_value 1] $rdi
	#DEBUG_VALUE: crypto_sign_ed25519_pk_to_curve25519:ed25519_pk <- [DW_OP_LLVM_entry_value 1] $rsi
	#DEBUG_VALUE: crypto_sign_ed25519_pk_to_curve25519:x <- [DW_OP_plus_uconst 320, DW_OP_deref] $rsp
	#DEBUG_VALUE: crypto_sign_ed25519_pk_to_curve25519:one_minus_y <- [DW_OP_plus_uconst 96, DW_OP_deref] $rsp
	.loc	4 68 1 is_stmt 1                # crypto_sign/ed25519/ref10/keypair.c:68:1
	movl	%ebx, %eax
	.loc	4 68 1 epilogue_begin is_stmt 0 # crypto_sign/ed25519/ref10/keypair.c:68:1
	addq	$520, %rsp                      # imm = 0x208
	.cfi_def_cfa_offset 56
	popq	%rbx
	.cfi_def_cfa_offset 48
	popq	%r12
	.cfi_def_cfa_offset 40
	popq	%r13
	.cfi_def_cfa_offset 32
	popq	%r14
	.cfi_def_cfa_offset 24
	popq	%r15
	.cfi_def_cfa_offset 16
	popq	%rbp
	.cfi_def_cfa_offset 8
	retq
.Ltmp151:
.Lfunc_end2:
	.size	crypto_sign_ed25519_pk_to_curve25519, .Lfunc_end2-crypto_sign_ed25519_pk_to_curve25519
	.cfi_endproc
                                        # -- End function
	.globl	crypto_sign_ed25519_sk_to_curve25519 # -- Begin function crypto_sign_ed25519_sk_to_curve25519
	.p2align	4
	.type	crypto_sign_ed25519_sk_to_curve25519,@function
crypto_sign_ed25519_sk_to_curve25519:   # @crypto_sign_ed25519_sk_to_curve25519
.Lfunc_begin3:
	.loc	4 73 0 is_stmt 1                # crypto_sign/ed25519/ref10/keypair.c:73:0
	.cfi_startproc
# %bb.0:
	#DEBUG_VALUE: crypto_sign_ed25519_sk_to_curve25519:curve25519_sk <- $rdi
	#DEBUG_VALUE: crypto_sign_ed25519_sk_to_curve25519:ed25519_sk <- $rsi
	pushq	%r14
	.cfi_def_cfa_offset 16
	pushq	%rbx
	.cfi_def_cfa_offset 24
	subq	$72, %rsp
	.cfi_def_cfa_offset 96
	.cfi_offset %rbx, -24
	.cfi_offset %r14, -16
	movq	%rdi, %rbx
	movq	%fs:40, %rax
	movq	%rax, 64(%rsp)
.Ltmp152:
	#DEBUG_VALUE: crypto_sign_ed25519_sk_to_curve25519:h <- [DW_OP_deref] $rsp
	movq	%rsp, %r14
.Ltmp153:
	.loc	4 76 5 prologue_end             # crypto_sign/ed25519/ref10/keypair.c:76:5
	movl	$32, %edx
	movq	%r14, %rdi
.Ltmp154:
	#DEBUG_VALUE: crypto_sign_ed25519_sk_to_curve25519:curve25519_sk <- $rbx
	callq	crypto_hash_sha512@PLT
.Ltmp155:
	#DEBUG_VALUE: crypto_sign_ed25519_sk_to_curve25519:ed25519_sk <- [DW_OP_LLVM_entry_value 1] $rsi
	.loc	4 77 10                         # crypto_sign/ed25519/ref10/keypair.c:77:10
	andb	$-8, (%rsp)
	.loc	4 78 11                         # crypto_sign/ed25519/ref10/keypair.c:78:11
	movzbl	31(%rsp), %eax
	andb	$63, %al
.Ltmp156:
	#DEBUG_VALUE: crypto_sign_ed25519_sk_to_curve25519:h <- [DW_OP_deref, DW_OP_LLVM_fragment 0 248] $rsp
	#DEBUG_VALUE: crypto_sign_ed25519_sk_to_curve25519:h <- [DW_OP_plus_uconst 32, DW_OP_deref, DW_OP_LLVM_fragment 256 256] $rsp
	#DEBUG_VALUE: crypto_sign_ed25519_sk_to_curve25519:h <- [DW_OP_constu 63, DW_OP_and, DW_OP_stack_value, DW_OP_LLVM_fragment 248 8] undef
	.loc	4 79 11                         # crypto_sign/ed25519/ref10/keypair.c:79:11
	orb	$64, %al
	movb	%al, 31(%rsp)
.Ltmp157:
	#DEBUG_VALUE: crypto_sign_ed25519_sk_to_curve25519:h <- [DW_OP_deref] $rsp
	#DEBUG_VALUE: memcpy:__dest <- $rbx
	#DEBUG_VALUE: memcpy:__src <- $rsp
	#DEBUG_VALUE: memcpy:__len <- 32
	.loc	5 29 10                         # /usr/include/x86_64-linux-gnu/bits/string_fortified.h:29:10 @[ crypto_sign/ed25519/ref10/keypair.c:80:5 ]
	movaps	(%rsp), %xmm0
	movups	%xmm0, (%rbx)
	movq	16(%rsp), %rax
	movq	%rax, 16(%rbx)
	movl	24(%rsp), %eax
	movl	%eax, 24(%rbx)
	movzwl	28(%rsp), %eax
	movw	%ax, 28(%rbx)
	movzbl	30(%rsp), %eax
	movb	%al, 30(%rbx)
	movzbl	31(%rsp), %eax
	movb	%al, 31(%rbx)
.Ltmp158:
	.loc	4 81 5                          # crypto_sign/ed25519/ref10/keypair.c:81:5
	movl	$64, %esi
	movq	%r14, %rdi
	callq	sodium_memzero@PLT
.Ltmp159:
	.loc	4 83 5                          # crypto_sign/ed25519/ref10/keypair.c:83:5
	movq	%fs:40, %rax
	cmpq	64(%rsp), %rax
	jne	.LBB3_2
.Ltmp160:
# %bb.1:                                # %SP_return
	#DEBUG_VALUE: crypto_sign_ed25519_sk_to_curve25519:curve25519_sk <- $rbx
	#DEBUG_VALUE: crypto_sign_ed25519_sk_to_curve25519:ed25519_sk <- [DW_OP_LLVM_entry_value 1] $rsi
	#DEBUG_VALUE: crypto_sign_ed25519_sk_to_curve25519:h <- [DW_OP_deref] $r14
	xorl	%eax, %eax
	.loc	4 83 5 epilogue_begin is_stmt 0 # crypto_sign/ed25519/ref10/keypair.c:83:5
	addq	$72, %rsp
	.cfi_def_cfa_offset 24
	popq	%rbx
.Ltmp161:
	#DEBUG_VALUE: crypto_sign_ed25519_sk_to_curve25519:curve25519_sk <- [DW_OP_LLVM_entry_value 1] $rdi
	.cfi_def_cfa_offset 16
	popq	%r14
.Ltmp162:
	.cfi_def_cfa_offset 8
	retq
.Ltmp163:
.LBB3_2:                                # %CallStackCheckFailBlk
	.cfi_def_cfa_offset 96
	#DEBUG_VALUE: crypto_sign_ed25519_sk_to_curve25519:curve25519_sk <- $rbx
	#DEBUG_VALUE: crypto_sign_ed25519_sk_to_curve25519:ed25519_sk <- [DW_OP_LLVM_entry_value 1] $rsi
	#DEBUG_VALUE: crypto_sign_ed25519_sk_to_curve25519:h <- [DW_OP_deref] $r14
	#DEBUG_VALUE: memcpy:__dest <- $rbx
	#DEBUG_VALUE: memcpy:__src <- $r14
	#DEBUG_VALUE: memcpy:__len <- 32
	.loc	4 0 0                           # crypto_sign/ed25519/ref10/keypair.c:0
	callq	__stack_chk_fail@PLT
.Ltmp164:
.Lfunc_end3:
	.size	crypto_sign_ed25519_sk_to_curve25519, .Lfunc_end3-crypto_sign_ed25519_sk_to_curve25519
	.cfi_endproc
                                        # -- End function
	.section	".note.GNU-stack","",@progbits
	.addrsig
	.addrsig_sym __stack_chk_fail