	.file	"obsolete.c"
	.file	0 "/home/leizhenyuu/opt/Anonymous_Repo/libsodium_o2_attr_inline/src/libsodium" "obsolete.c" md5 0x3afd36dbdef74db356bfa344b184b17d
	.file	1 "/home/leizhenyuu/opt/Anonymous_Repo" "llvm-project/build/lib/clang/21/include/__stddef_size_t.h"
	.text
	.globl	crypto_sign_edwards25519sha512batch_keypair # -- Begin function crypto_sign_edwards25519sha512batch_keypair
	.p2align	4
	.type	crypto_sign_edwards25519sha512batch_keypair,@function
crypto_sign_edwards25519sha512batch_keypair: # @crypto_sign_edwards25519sha512batch_keypair
.Lfunc_begin0:
	.file	2 "crypto_sign/ed25519/ref10" "obsolete.c"
	.loc	2 17 0                          # crypto_sign/ed25519/ref10/obsolete.c:17:0
	.cfi_startproc
# %bb.0:
	#DEBUG_VALUE: crypto_sign_edwards25519sha512batch_keypair:pk <- $rdi
	#DEBUG_VALUE: crypto_sign_edwards25519sha512batch_keypair:sk <- $rsi
	pushq	%r15
	.cfi_def_cfa_offset 16
	pushq	%r14
	.cfi_def_cfa_offset 24
	pushq	%rbx
	.cfi_def_cfa_offset 32
	subq	$160, %rsp
	.cfi_def_cfa_offset 192
	.cfi_offset %rbx, -32
	.cfi_offset %r14, -24
	.cfi_offset %r15, -16
	movq	%rsi, %rbx
	movq	%rdi, %r14
.Ltmp0:
	.loc	2 20 5 prologue_end             # crypto_sign/ed25519/ref10/obsolete.c:20:5
	movl	$32, %esi
.Ltmp1:
	#DEBUG_VALUE: crypto_sign_edwards25519sha512batch_keypair:sk <- $rbx
	movq	%rbx, %rdi
.Ltmp2:
	#DEBUG_VALUE: crypto_sign_edwards25519sha512batch_keypair:pk <- $r14
	callq	randombytes_buf@PLT
.Ltmp3:
	.loc	2 21 5                          # crypto_sign/ed25519/ref10/obsolete.c:21:5
	movl	$32, %edx
	movq	%rbx, %rdi
	movq	%rbx, %rsi
	callq	crypto_hash_sha512@PLT
.Ltmp4:
	.loc	2 22 11                         # crypto_sign/ed25519/ref10/obsolete.c:22:11
	andb	$-8, (%rbx)
	.loc	2 23 12                         # crypto_sign/ed25519/ref10/obsolete.c:23:12
	movzbl	31(%rbx), %eax
	andb	$63, %al
	.loc	2 24 12                         # crypto_sign/ed25519/ref10/obsolete.c:24:12
	orb	$64, %al
	movb	%al, 31(%rbx)
	movq	%rsp, %r15
	.loc	2 25 5                          # crypto_sign/ed25519/ref10/obsolete.c:25:5
	movq	%r15, %rdi
	movq	%rbx, %rsi
	callq	ge25519_scalarmult_base@PLT
.Ltmp5:
	.loc	2 26 5                          # crypto_sign/ed25519/ref10/obsolete.c:26:5
	movq	%r14, %rdi
	movq	%r15, %rsi
	callq	ge25519_p3_tobytes@PLT
.Ltmp6:
	.loc	2 28 5                          # crypto_sign/ed25519/ref10/obsolete.c:28:5
	xorl	%eax, %eax
	.loc	2 28 5 epilogue_begin is_stmt 0 # crypto_sign/ed25519/ref10/obsolete.c:28:5
	addq	$160, %rsp
	.cfi_def_cfa_offset 32
	popq	%rbx
.Ltmp7:
	#DEBUG_VALUE: crypto_sign_edwards25519sha512batch_keypair:sk <- [DW_OP_LLVM_entry_value 1] $rsi
	.cfi_def_cfa_offset 24
	popq	%r14
.Ltmp8:
	#DEBUG_VALUE: crypto_sign_edwards25519sha512batch_keypair:pk <- [DW_OP_LLVM_entry_value 1] $rdi
	.cfi_def_cfa_offset 16
	popq	%r15
	.cfi_def_cfa_offset 8
	retq
.Ltmp9:
.Lfunc_end0:
	.size	crypto_sign_edwards25519sha512batch_keypair, .Lfunc_end0-crypto_sign_edwards25519sha512batch_keypair
	.cfi_endproc
	.file	3 "./include/sodium" "randombytes.h"
	.file	4 "./include/sodium" "crypto_hash_sha512.h"
	.file	5 "./include/sodium/private" "ed25519_ref10.h"
	.file	6 "/usr/include/x86_64-linux-gnu/bits" "types.h"
	.file	7 "/usr/include/x86_64-linux-gnu/bits" "stdint-uintn.h"
                                        # -- End function
	.globl	crypto_sign_edwards25519sha512batch # -- Begin function crypto_sign_edwards25519sha512batch
	.p2align	4
	.type	crypto_sign_edwards25519sha512batch,@function
crypto_sign_edwards25519sha512batch:    # @crypto_sign_edwards25519sha512batch
.Lfunc_begin1:
	.loc	2 37 0 is_stmt 1                # crypto_sign/ed25519/ref10/obsolete.c:37:0
	.cfi_startproc
# %bb.0:
	#DEBUG_VALUE: crypto_sign_edwards25519sha512batch:sm <- $rdi
	#DEBUG_VALUE: crypto_sign_edwards25519sha512batch:smlen_p <- $rsi
	#DEBUG_VALUE: crypto_sign_edwards25519sha512batch:m <- $rdx
	#DEBUG_VALUE: crypto_sign_edwards25519sha512batch:mlen <- $rcx
	#DEBUG_VALUE: crypto_sign_edwards25519sha512batch:sk <- $r8
	pushq	%rbp
	.cfi_def_cfa_offset 16
	pushq	%r15
	.cfi_def_cfa_offset 24
	pushq	%r14
	.cfi_def_cfa_offset 32
	pushq	%r13
	.cfi_def_cfa_offset 40
	pushq	%r12
	.cfi_def_cfa_offset 48
	pushq	%rbx
	.cfi_def_cfa_offset 56
	subq	$744, %rsp                      # imm = 0x2E8
	.cfi_def_cfa_offset 800
	.cfi_offset %rbx, -56
	.cfi_offset %r12, -48
	.cfi_offset %r13, -40
	.cfi_offset %r14, -32
	.cfi_offset %r15, -24
	.cfi_offset %rbp, -16
	movq	%r8, %r13
	movq	%rcx, %rbx
	movq	%rdx, %r14
	movq	%rdx, (%rsp)                    # 8-byte Spill
.Ltmp10:
	#DEBUG_VALUE: crypto_sign_edwards25519sha512batch:m <- [$rsp+0]
	movq	%rsi, 8(%rsp)                   # 8-byte Spill
.Ltmp11:
	#DEBUG_VALUE: crypto_sign_edwards25519sha512batch:smlen_p <- [DW_OP_plus_uconst 8] [$rsp+0]
	movq	%rdi, %r15
	movq	%fs:40, %rax
	movq	%rax, 736(%rsp)
	leaq	528(%rsp), %rbp
.Ltmp12:
	.loc	2 45 5 prologue_end             # crypto_sign/ed25519/ref10/obsolete.c:45:5
	movq	%rbp, %rdi
.Ltmp13:
	#DEBUG_VALUE: crypto_sign_edwards25519sha512batch:sm <- $r15
	callq	crypto_hash_sha512_init@PLT
.Ltmp14:
	#DEBUG_VALUE: crypto_sign_edwards25519sha512batch:sk <- $r13
	#DEBUG_VALUE: crypto_sign_edwards25519sha512batch:mlen <- $rbx
	.loc	2 46 39                         # crypto_sign/ed25519/ref10/obsolete.c:46:39
	leaq	32(%r13), %rsi
	.loc	2 46 5 is_stmt 0                # crypto_sign/ed25519/ref10/obsolete.c:46:5
	movl	$32, %edx
	movq	%rbp, %rdi
	callq	crypto_hash_sha512_update@PLT
.Ltmp15:
	.loc	2 47 5 is_stmt 1                # crypto_sign/ed25519/ref10/obsolete.c:47:5
	movq	%rbp, %rdi
	movq	%r14, %rsi
	movq	%rbx, %rdx
	callq	crypto_hash_sha512_update@PLT
.Ltmp16:
	.loc	2 0 5 is_stmt 0                 # crypto_sign/ed25519/ref10/obsolete.c:0:5
	leaq	464(%rsp), %r12
	.loc	2 48 5 is_stmt 1                # crypto_sign/ed25519/ref10/obsolete.c:48:5
	movq	%rbp, %rdi
	movq	%r12, %rsi
	callq	crypto_hash_sha512_final@PLT
.Ltmp17:
	.loc	2 0 5 is_stmt 0                 # crypto_sign/ed25519/ref10/obsolete.c:0:5
	leaq	176(%rsp), %r14
	.loc	2 49 5 is_stmt 1                # crypto_sign/ed25519/ref10/obsolete.c:49:5
	movq	%r14, %rdi
	movq	%r13, %rsi
	callq	ge25519_scalarmult_base@PLT
.Ltmp18:
	.loc	2 50 28                         # crypto_sign/ed25519/ref10/obsolete.c:50:28
	leaq	368(%rsp), %rdi
	.loc	2 50 5 is_stmt 0                # crypto_sign/ed25519/ref10/obsolete.c:50:5
	movq	%r14, %rsi
	callq	ge25519_p3_tobytes@PLT
.Ltmp19:
	.loc	2 51 5 is_stmt 1                # crypto_sign/ed25519/ref10/obsolete.c:51:5
	movq	%r12, %rdi
	callq	sc25519_reduce@PLT
.Ltmp20:
	.loc	2 0 5 is_stmt 0                 # crypto_sign/ed25519/ref10/obsolete.c:0:5
	leaq	16(%rsp), %r14
	.loc	2 52 5 is_stmt 1                # crypto_sign/ed25519/ref10/obsolete.c:52:5
	movq	%r14, %rdi
	movq	%r12, %rsi
	callq	ge25519_scalarmult_base@PLT
.Ltmp21:
	.loc	2 0 5 is_stmt 0                 # crypto_sign/ed25519/ref10/obsolete.c:0:5
	leaq	336(%rsp), %r12
	.loc	2 53 5 is_stmt 1                # crypto_sign/ed25519/ref10/obsolete.c:53:5
	movq	%r12, %rdi
	movq	%r14, %rsi
	callq	ge25519_p3_tobytes@PLT
.Ltmp22:
	.loc	2 54 5                          # crypto_sign/ed25519/ref10/obsolete.c:54:5
	movq	%rbp, %rdi
	callq	crypto_hash_sha512_init@PLT
.Ltmp23:
	.loc	2 55 5                          # crypto_sign/ed25519/ref10/obsolete.c:55:5
	movl	$32, %edx
	movq	%rbp, %rdi
	movq	%r12, %rsi
	callq	crypto_hash_sha512_update@PLT
.Ltmp24:
	.loc	2 56 5                          # crypto_sign/ed25519/ref10/obsolete.c:56:5
	movq	%rbp, %rdi
	movq	(%rsp), %r12                    # 8-byte Reload
	movq	%r12, %rsi
	movq	%rbx, %rdx
	callq	crypto_hash_sha512_update@PLT
.Ltmp25:
	.loc	2 0 5 is_stmt 0                 # crypto_sign/ed25519/ref10/obsolete.c:0:5
	leaq	400(%rsp), %r14
	.loc	2 57 5 is_stmt 1                # crypto_sign/ed25519/ref10/obsolete.c:57:5
	movq	%rbp, %rdi
	movq	%r14, %rsi
	callq	crypto_hash_sha512_final@PLT
.Ltmp26:
	.loc	2 58 5                          # crypto_sign/ed25519/ref10/obsolete.c:58:5
	movq	%r14, %rdi
	callq	sc25519_reduce@PLT
.Ltmp27:
	.loc	2 59 5                          # crypto_sign/ed25519/ref10/obsolete.c:59:5
	leaq	368(%rsp), %rdi
	movq	%r14, %rsi
	leaq	464(%rsp), %rdx
	movq	%r13, %rcx
	callq	sc25519_muladd@PLT
.Ltmp28:
	.loc	2 60 5                          # crypto_sign/ed25519/ref10/obsolete.c:60:5
	movl	$64, %esi
	movq	%r14, %rdi
	callq	sodium_memzero@PLT
.Ltmp29:
	.loc	2 61 16                         # crypto_sign/ed25519/ref10/obsolete.c:61:16
	leaq	32(%r15), %rdi
.Ltmp30:
	#DEBUG_VALUE: memmove:__dest <- $rdi
	#DEBUG_VALUE: memmove:__src <- [DW_OP_deref] $rsp
	#DEBUG_VALUE: memmove:__len <- $rbx
	.file	8 "/usr/include/x86_64-linux-gnu/bits" "string_fortified.h"
	.loc	8 36 10                         # /usr/include/x86_64-linux-gnu/bits/string_fortified.h:36:10 @[ crypto_sign/ed25519/ref10/obsolete.c:61:5 ]
	movq	%r12, %rsi
	movq	%rbx, %rdx
	callq	memmove@PLT
.Ltmp31:
	#DEBUG_VALUE: memcpy:__dest <- $r15
	#DEBUG_VALUE: memcpy:__src <- [DW_OP_plus_uconst 336, DW_OP_stack_value] $rsp
	#DEBUG_VALUE: memcpy:__len <- 32
	.loc	8 29 10                         # /usr/include/x86_64-linux-gnu/bits/string_fortified.h:29:10 @[ crypto_sign/ed25519/ref10/obsolete.c:62:5 ]
	movaps	336(%rsp), %xmm0
	movaps	352(%rsp), %xmm1
	movups	%xmm1, 16(%r15)
	movups	%xmm0, (%r15)
.Ltmp32:
	#DEBUG_VALUE: memcpy:__src <- undef
	#DEBUG_VALUE: memcpy:__len <- 32
	#DEBUG_VALUE: memcpy:__dest <- [DW_OP_LLVM_arg 0, DW_OP_LLVM_arg 1, DW_OP_plus, DW_OP_stack_value] undef, undef
	.loc	8 29 10 is_stmt 0               # /usr/include/x86_64-linux-gnu/bits/string_fortified.h:29:10 @[ crypto_sign/ed25519/ref10/obsolete.c:63:5 ]
	movaps	368(%rsp), %xmm0
	movaps	384(%rsp), %xmm1
	movups	%xmm0, 32(%r15,%rbx)
	movups	%xmm1, 48(%r15,%rbx)
.Ltmp33:
	.loc	2 64 21 is_stmt 1               # crypto_sign/ed25519/ref10/obsolete.c:64:21
	addq	$64, %rbx
.Ltmp34:
	#DEBUG_VALUE: crypto_sign_edwards25519sha512batch:mlen <- [DW_OP_LLVM_entry_value 1] $rcx
	.loc	2 0 21 is_stmt 0                # crypto_sign/ed25519/ref10/obsolete.c:0:21
	movq	8(%rsp), %rax                   # 8-byte Reload
	.loc	2 64 14                         # crypto_sign/ed25519/ref10/obsolete.c:64:14
	movq	%rbx, (%rax)
	.loc	2 66 5 is_stmt 1                # crypto_sign/ed25519/ref10/obsolete.c:66:5
	movq	%fs:40, %rax
	cmpq	736(%rsp), %rax
	jne	.LBB1_2
.Ltmp35:
# %bb.1:                                # %SP_return
	#DEBUG_VALUE: crypto_sign_edwards25519sha512batch:sm <- $r15
	#DEBUG_VALUE: crypto_sign_edwards25519sha512batch:smlen_p <- [DW_OP_plus_uconst 8] [$rsp+0]
	#DEBUG_VALUE: crypto_sign_edwards25519sha512batch:m <- [$rsp+0]
	#DEBUG_VALUE: crypto_sign_edwards25519sha512batch:mlen <- [DW_OP_LLVM_entry_value 1] $rcx
	#DEBUG_VALUE: crypto_sign_edwards25519sha512batch:sk <- $r13
	xorl	%eax, %eax
	.loc	2 66 5 epilogue_begin is_stmt 0 # crypto_sign/ed25519/ref10/obsolete.c:66:5
	addq	$744, %rsp                      # imm = 0x2E8
	.cfi_def_cfa_offset 56
	popq	%rbx
	.cfi_def_cfa_offset 48
	popq	%r12
	.cfi_def_cfa_offset 40
	popq	%r13
.Ltmp36:
	#DEBUG_VALUE: crypto_sign_edwards25519sha512batch:sk <- [DW_OP_LLVM_entry_value 1] $r8
	.cfi_def_cfa_offset 32
	popq	%r14
	.cfi_def_cfa_offset 24
	popq	%r15
.Ltmp37:
	#DEBUG_VALUE: crypto_sign_edwards25519sha512batch:sm <- [DW_OP_LLVM_entry_value 1] $rdi
	.cfi_def_cfa_offset 16
	popq	%rbp
	.cfi_def_cfa_offset 8
	retq
.Ltmp38:
.LBB1_2:                                # %CallStackCheckFailBlk
	.cfi_def_cfa_offset 800
	#DEBUG_VALUE: crypto_sign_edwards25519sha512batch:sm <- $r15
	#DEBUG_VALUE: crypto_sign_edwards25519sha512batch:smlen_p <- [DW_OP_plus_uconst 8] [$rsp+0]
	#DEBUG_VALUE: crypto_sign_edwards25519sha512batch:m <- [$rsp+0]
	#DEBUG_VALUE: crypto_sign_edwards25519sha512batch:mlen <- [DW_OP_LLVM_entry_value 1] $rcx
	#DEBUG_VALUE: crypto_sign_edwards25519sha512batch:sk <- $r13
	#DEBUG_VALUE: memmove:__src <- [DW_OP_deref] $rsp
	#DEBUG_VALUE: memcpy:__dest <- $r15
	#DEBUG_VALUE: memcpy:__src <- [DW_OP_plus_uconst 336, DW_OP_stack_value] $rsp
	#DEBUG_VALUE: memcpy:__len <- 32
	#DEBUG_VALUE: memcpy:__len <- 32
	.loc	2 0 0                           # crypto_sign/ed25519/ref10/obsolete.c:0
	callq	__stack_chk_fail@PLT
.Ltmp39:
.Lfunc_end1:
	.size	crypto_sign_edwards25519sha512batch, .Lfunc_end1-crypto_sign_edwards25519sha512batch
	.cfi_endproc
	.file	9 "./include/sodium" "utils.h"
                                        # -- End function
	.globl	crypto_sign_edwards25519sha512batch_open # -- Begin function crypto_sign_edwards25519sha512batch_open
	.p2align	4
	.type	crypto_sign_edwards25519sha512batch_open,@function
crypto_sign_edwards25519sha512batch_open: # @crypto_sign_edwards25519sha512batch_open
.Lfunc_begin2:
	.loc	2 75 0 is_stmt 1                # crypto_sign/ed25519/ref10/obsolete.c:75:0
	.cfi_startproc
# %bb.0:
	#DEBUG_VALUE: crypto_sign_edwards25519sha512batch_open:m <- $rdi
	#DEBUG_VALUE: crypto_sign_edwards25519sha512batch_open:mlen_p <- $rsi
	#DEBUG_VALUE: crypto_sign_edwards25519sha512batch_open:sm <- $rdx
	#DEBUG_VALUE: crypto_sign_edwards25519sha512batch_open:smlen <- $rcx
	#DEBUG_VALUE: crypto_sign_edwards25519sha512batch_open:pk <- $r8
	pushq	%rbp
	.cfi_def_cfa_offset 16
	pushq	%r15
	.cfi_def_cfa_offset 24
	pushq	%r14
	.cfi_def_cfa_offset 32
	pushq	%r13
	.cfi_def_cfa_offset 40
	pushq	%r12
	.cfi_def_cfa_offset 48
	pushq	%rbx
	.cfi_def_cfa_offset 56
	subq	$1064, %rsp                     # imm = 0x428
	.cfi_def_cfa_offset 1120
	.cfi_offset %rbx, -56
	.cfi_offset %r12, -48
	.cfi_offset %r13, -40
	.cfi_offset %r14, -32
	.cfi_offset %r15, -24
	.cfi_offset %rbp, -16
	movq	%fs:40, %rax
	movq	%rax, 1056(%rsp)
.Ltmp40:
	.loc	2 86 13 prologue_end            # crypto_sign/ed25519/ref10/obsolete.c:86:13
	movq	$0, (%rsi)
	movl	$-1, %eax
.Ltmp41:
	.loc	2 87 15                         # crypto_sign/ed25519/ref10/obsolete.c:87:15
	cmpq	$64, %rcx
	.loc	2 87 20 is_stmt 0               # crypto_sign/ed25519/ref10/obsolete.c:87:20
	jb	.LBB2_12
.Ltmp42:
# %bb.1:
	#DEBUG_VALUE: crypto_sign_edwards25519sha512batch_open:m <- $rdi
	#DEBUG_VALUE: crypto_sign_edwards25519sha512batch_open:mlen_p <- $rsi
	#DEBUG_VALUE: crypto_sign_edwards25519sha512batch_open:sm <- $rdx
	#DEBUG_VALUE: crypto_sign_edwards25519sha512batch_open:smlen <- $rcx
	#DEBUG_VALUE: crypto_sign_edwards25519sha512batch_open:pk <- $r8
	#DEBUG_VALUE: crypto_sign_edwards25519sha512batch_open:mlen <- undef
	.loc	2 91 23 is_stmt 1               # crypto_sign/ed25519/ref10/obsolete.c:91:23
	cmpb	$31, -1(%rdx,%rcx)
	ja	.LBB2_12
.Ltmp43:
# %bb.2:
	#DEBUG_VALUE: crypto_sign_edwards25519sha512batch_open:m <- $rdi
	#DEBUG_VALUE: crypto_sign_edwards25519sha512batch_open:mlen_p <- $rsi
	#DEBUG_VALUE: crypto_sign_edwards25519sha512batch_open:sm <- $rdx
	#DEBUG_VALUE: crypto_sign_edwards25519sha512batch_open:smlen <- $rcx
	#DEBUG_VALUE: crypto_sign_edwards25519sha512batch_open:pk <- $r8
	.loc	2 0 23 is_stmt 0                # crypto_sign/ed25519/ref10/obsolete.c:0:23
	movq	%rcx, %r13
.Ltmp44:
	#DEBUG_VALUE: crypto_sign_edwards25519sha512batch_open:smlen <- $r13
	movq	%rsi, %rbp
.Ltmp45:
	#DEBUG_VALUE: crypto_sign_edwards25519sha512batch_open:mlen_p <- $rbp
	movq	%rdi, %rbx
.Ltmp46:
	#DEBUG_VALUE: crypto_sign_edwards25519sha512batch_open:m <- $rbx
	movq	%rdx, %r14
.Ltmp47:
	#DEBUG_VALUE: crypto_sign_edwards25519sha512batch_open:sm <- $r14
	movq	%r8, %r15
.Ltmp48:
	.loc	2 94 9 is_stmt 1                # crypto_sign/ed25519/ref10/obsolete.c:94:9
	movq	%r8, %rdi
	callq	ge25519_has_small_order@PLT
.Ltmp49:
	#DEBUG_VALUE: crypto_sign_edwards25519sha512batch_open:pk <- $r15
	.loc	2 94 37 is_stmt 0               # crypto_sign/ed25519/ref10/obsolete.c:94:37
	testl	%eax, %eax
	.loc	2 94 42                         # crypto_sign/ed25519/ref10/obsolete.c:94:42
	jne	.LBB2_3
.Ltmp50:
# %bb.4:
	#DEBUG_VALUE: crypto_sign_edwards25519sha512batch_open:m <- $rbx
	#DEBUG_VALUE: crypto_sign_edwards25519sha512batch_open:mlen_p <- $rbp
	#DEBUG_VALUE: crypto_sign_edwards25519sha512batch_open:sm <- $r14
	#DEBUG_VALUE: crypto_sign_edwards25519sha512batch_open:smlen <- $r13
	#DEBUG_VALUE: crypto_sign_edwards25519sha512batch_open:pk <- $r15
	.loc	2 0 42                          # crypto_sign/ed25519/ref10/obsolete.c:0:42
	leaq	168(%rsp), %rdi
	.loc	2 95 9 is_stmt 1                # crypto_sign/ed25519/ref10/obsolete.c:95:9
	movq	%r15, %rsi
	callq	ge25519_frombytes_negate_vartime@PLT
.Ltmp51:
	.loc	2 95 50 is_stmt 0               # crypto_sign/ed25519/ref10/obsolete.c:95:50
	testl	%eax, %eax
	.loc	2 95 55                         # crypto_sign/ed25519/ref10/obsolete.c:95:55
	jne	.LBB2_3
.Ltmp52:
# %bb.6:
	#DEBUG_VALUE: crypto_sign_edwards25519sha512batch_open:m <- $rbx
	#DEBUG_VALUE: crypto_sign_edwards25519sha512batch_open:mlen_p <- $rbp
	#DEBUG_VALUE: crypto_sign_edwards25519sha512batch_open:sm <- $r14
	#DEBUG_VALUE: crypto_sign_edwards25519sha512batch_open:smlen <- $r13
	#DEBUG_VALUE: crypto_sign_edwards25519sha512batch_open:pk <- $r15
	.loc	2 96 9 is_stmt 1                # crypto_sign/ed25519/ref10/obsolete.c:96:9
	movq	%r14, %rdi
	callq	ge25519_has_small_order@PLT
.Ltmp53:
	.loc	2 96 37 is_stmt 0               # crypto_sign/ed25519/ref10/obsolete.c:96:37
	testl	%eax, %eax
	.loc	2 96 42                         # crypto_sign/ed25519/ref10/obsolete.c:96:42
	jne	.LBB2_3
.Ltmp54:
# %bb.8:
	#DEBUG_VALUE: crypto_sign_edwards25519sha512batch_open:m <- $rbx
	#DEBUG_VALUE: crypto_sign_edwards25519sha512batch_open:mlen_p <- $rbp
	#DEBUG_VALUE: crypto_sign_edwards25519sha512batch_open:sm <- $r14
	#DEBUG_VALUE: crypto_sign_edwards25519sha512batch_open:smlen <- $r13
	#DEBUG_VALUE: crypto_sign_edwards25519sha512batch_open:pk <- $r15
	.loc	2 0 42                          # crypto_sign/ed25519/ref10/obsolete.c:0:42
	leaq	8(%rsp), %rdi
	.loc	2 97 9 is_stmt 1                # crypto_sign/ed25519/ref10/obsolete.c:97:9
	movq	%r14, %rsi
	callq	ge25519_frombytes_negate_vartime@PLT
.Ltmp55:
	.loc	2 97 50 is_stmt 0               # crypto_sign/ed25519/ref10/obsolete.c:97:50
	testl	%eax, %eax
	.loc	2 96 42 is_stmt 1               # crypto_sign/ed25519/ref10/obsolete.c:96:42
	je	.LBB2_10
.Ltmp56:
.LBB2_3:
	#DEBUG_VALUE: crypto_sign_edwards25519sha512batch_open:m <- $rbx
	#DEBUG_VALUE: crypto_sign_edwards25519sha512batch_open:mlen_p <- $rbp
	#DEBUG_VALUE: crypto_sign_edwards25519sha512batch_open:sm <- $r14
	#DEBUG_VALUE: crypto_sign_edwards25519sha512batch_open:smlen <- $r13
	#DEBUG_VALUE: crypto_sign_edwards25519sha512batch_open:pk <- $r15
	.loc	2 0 42 is_stmt 0                # crypto_sign/ed25519/ref10/obsolete.c:0:42
	movl	$-1, %eax
.Ltmp57:
.LBB2_12:
	#DEBUG_VALUE: crypto_sign_edwards25519sha512batch_open:m <- [DW_OP_LLVM_entry_value 1] $rdi
	#DEBUG_VALUE: crypto_sign_edwards25519sha512batch_open:mlen_p <- [DW_OP_LLVM_entry_value 1] $rsi
	#DEBUG_VALUE: crypto_sign_edwards25519sha512batch_open:sm <- [DW_OP_LLVM_entry_value 1] $rdx
	#DEBUG_VALUE: crypto_sign_edwards25519sha512batch_open:smlen <- [DW_OP_LLVM_entry_value 1] $rcx
	#DEBUG_VALUE: crypto_sign_edwards25519sha512batch_open:pk <- [DW_OP_LLVM_entry_value 1] $r8
	.loc	2 117 1 is_stmt 1               # crypto_sign/ed25519/ref10/obsolete.c:117:1
	movq	%fs:40, %rcx
	cmpq	1056(%rsp), %rcx
	jne	.LBB2_14
.Ltmp58:
# %bb.13:                               # %SP_return
	#DEBUG_VALUE: crypto_sign_edwards25519sha512batch_open:m <- [DW_OP_LLVM_entry_value 1] $rdi
	#DEBUG_VALUE: crypto_sign_edwards25519sha512batch_open:mlen_p <- [DW_OP_LLVM_entry_value 1] $rsi
	#DEBUG_VALUE: crypto_sign_edwards25519sha512batch_open:sm <- [DW_OP_LLVM_entry_value 1] $rdx
	#DEBUG_VALUE: crypto_sign_edwards25519sha512batch_open:smlen <- [DW_OP_LLVM_entry_value 1] $rcx
	#DEBUG_VALUE: crypto_sign_edwards25519sha512batch_open:pk <- [DW_OP_LLVM_entry_value 1] $r8
	.loc	2 117 1 epilogue_begin is_stmt 0 # crypto_sign/ed25519/ref10/obsolete.c:117:1
	addq	$1064, %rsp                     # imm = 0x428
	.cfi_def_cfa_offset 56
	popq	%rbx
	.cfi_def_cfa_offset 48
	popq	%r12
	.cfi_def_cfa_offset 40
	popq	%r13
	.cfi_def_cfa_offset 32
	popq	%r14
	.cfi_def_cfa_offset 24
	popq	%r15
	.cfi_def_cfa_offset 16
	popq	%rbp
	.cfi_def_cfa_offset 8
	retq
.Ltmp59:
.LBB2_10:
	.cfi_def_cfa_offset 1120
	#DEBUG_VALUE: crypto_sign_edwards25519sha512batch_open:m <- $rbx
	#DEBUG_VALUE: crypto_sign_edwards25519sha512batch_open:mlen_p <- $rbp
	#DEBUG_VALUE: crypto_sign_edwards25519sha512batch_open:sm <- $r14
	#DEBUG_VALUE: crypto_sign_edwards25519sha512batch_open:smlen <- $r13
	#DEBUG_VALUE: crypto_sign_edwards25519sha512batch_open:pk <- $r15
	.loc	2 0 0                           # crypto_sign/ed25519/ref10/obsolete.c:0
	leaq	-64(%r13), %rax
.Ltmp60:
	#DEBUG_VALUE: crypto_sign_edwards25519sha512batch_open:mlen <- $rax
	movq	%rax, (%rsp)                    # 8-byte Spill
	leaq	328(%rsp), %rdi
	leaq	168(%rsp), %rsi
	.loc	2 100 5 is_stmt 1               # crypto_sign/ed25519/ref10/obsolete.c:100:5
	callq	ge25519_p3_to_cached@PLT
.Ltmp61:
	.loc	2 101 36                        # crypto_sign/ed25519/ref10/obsolete.c:101:36
	addq	$-32, %r13
.Ltmp62:
	#DEBUG_VALUE: crypto_sign_edwards25519sha512batch_open:smlen <- [DW_OP_LLVM_entry_value 1] $rcx
	.loc	2 0 36 is_stmt 0                # crypto_sign/ed25519/ref10/obsolete.c:0:36
	leaq	992(%rsp), %r15
.Ltmp63:
	#DEBUG_VALUE: crypto_sign_edwards25519sha512batch_open:pk <- [DW_OP_LLVM_entry_value 1] $r8
	.loc	2 101 5                         # crypto_sign/ed25519/ref10/obsolete.c:101:5
	movq	%r15, %rdi
	movq	%r14, %rsi
	movq	%r13, %rdx
	callq	crypto_hash_sha512@PLT
.Ltmp64:
	.loc	2 102 5 is_stmt 1               # crypto_sign/ed25519/ref10/obsolete.c:102:5
	movq	%r15, %rdi
	callq	sc25519_reduce@PLT
.Ltmp65:
	.loc	2 0 5 is_stmt 0                 # crypto_sign/ed25519/ref10/obsolete.c:0:5
	leaq	608(%rsp), %r13
	leaq	8(%rsp), %rdx
	.loc	2 103 5 is_stmt 1               # crypto_sign/ed25519/ref10/obsolete.c:103:5
	movq	%r13, %rdi
	movq	%r15, %rsi
	callq	ge25519_scalarmult@PLT
.Ltmp66:
	.loc	2 0 5 is_stmt 0                 # crypto_sign/ed25519/ref10/obsolete.c:0:5
	leaq	768(%rsp), %r15
	.loc	2 104 5 is_stmt 1               # crypto_sign/ed25519/ref10/obsolete.c:104:5
	movq	%r15, %rdi
	movq	%r13, %rsi
	leaq	328(%rsp), %rdx
	callq	ge25519_add@PLT
.Ltmp67:
	.loc	2 0 5 is_stmt 0                 # crypto_sign/ed25519/ref10/obsolete.c:0:5
	leaq	488(%rsp), %r13
	.loc	2 105 5 is_stmt 1               # crypto_sign/ed25519/ref10/obsolete.c:105:5
	movq	%r13, %rdi
	movq	%r15, %rsi
	callq	ge25519_p1p1_to_p2@PLT
.Ltmp68:
	.loc	2 0 5 is_stmt 0                 # crypto_sign/ed25519/ref10/obsolete.c:0:5
	leaq	960(%rsp), %r15
	.loc	2 106 5 is_stmt 1               # crypto_sign/ed25519/ref10/obsolete.c:106:5
	movq	%r15, %rdi
	movq	%r13, %rsi
	movq	(%rsp), %r13                    # 8-byte Reload
	callq	ge25519_tobytes@PLT
.Ltmp69:
	.loc	2 107 12                        # crypto_sign/ed25519/ref10/obsolete.c:107:12
	xorb	$-128, 991(%rsp)
	.loc	2 108 41                        # crypto_sign/ed25519/ref10/obsolete.c:108:41
	leaq	(%r14,%r13), %rsi
	addq	$32, %rsi
	.loc	2 108 5 is_stmt 0               # crypto_sign/ed25519/ref10/obsolete.c:108:5
	leaq	8(%rsp), %rdi
	callq	ge25519_scalarmult_base@PLT
.Ltmp70:
	.loc	2 0 5                           # crypto_sign/ed25519/ref10/obsolete.c:0:5
	leaq	928(%rsp), %r12
	.loc	2 109 5 is_stmt 1               # crypto_sign/ed25519/ref10/obsolete.c:109:5
	movq	%r12, %rdi
	leaq	8(%rsp), %rsi
	callq	ge25519_p3_tobytes@PLT
.Ltmp71:
	.loc	2 110 9                         # crypto_sign/ed25519/ref10/obsolete.c:110:9
	movq	%r15, %rdi
	movq	%r12, %rsi
	callq	crypto_verify_32@PLT
.Ltmp72:
	.loc	2 110 34 is_stmt 0              # crypto_sign/ed25519/ref10/obsolete.c:110:34
	testl	%eax, %eax
	movl	$-1, %eax
	jne	.LBB2_12
.Ltmp73:
# %bb.11:
	#DEBUG_VALUE: crypto_sign_edwards25519sha512batch_open:m <- $rbx
	#DEBUG_VALUE: crypto_sign_edwards25519sha512batch_open:mlen_p <- $rbp
	#DEBUG_VALUE: crypto_sign_edwards25519sha512batch_open:sm <- $r14
	#DEBUG_VALUE: crypto_sign_edwards25519sha512batch_open:smlen <- [DW_OP_LLVM_entry_value 1] $rcx
	#DEBUG_VALUE: crypto_sign_edwards25519sha512batch_open:pk <- [DW_OP_LLVM_entry_value 1] $r8
	#DEBUG_VALUE: crypto_sign_edwards25519sha512batch_open:mlen <- [DW_OP_deref] $rsp
	.loc	2 0 0                           # crypto_sign/ed25519/ref10/obsolete.c:0
	addq	$32, %r14
.Ltmp74:
	#DEBUG_VALUE: crypto_sign_edwards25519sha512batch_open:sm <- [DW_OP_LLVM_entry_value 1] $rdx
	.loc	2 113 13 is_stmt 1              # crypto_sign/ed25519/ref10/obsolete.c:113:13
	movq	%r13, (%rbp)
.Ltmp75:
	#DEBUG_VALUE: memmove:__dest <- $rbx
	#DEBUG_VALUE: memmove:__src <- $r14
	#DEBUG_VALUE: memmove:__len <- [DW_OP_deref] $rsp
	.loc	8 36 10                         # /usr/include/x86_64-linux-gnu/bits/string_fortified.h:36:10 @[ crypto_sign/ed25519/ref10/obsolete.c:114:5 ]
	movq	%rbx, %rdi
	movq	%r14, %rsi
	movq	%r13, %rdx
	callq	memmove@PLT
.Ltmp76:
	.loc	8 0 10 is_stmt 0                # /usr/include/x86_64-linux-gnu/bits/string_fortified.h:0:10
	xorl	%eax, %eax
	jmp	.LBB2_12
.Ltmp77:
.LBB2_14:                               # %CallStackCheckFailBlk
	#DEBUG_VALUE: crypto_sign_edwards25519sha512batch_open:m <- [DW_OP_LLVM_entry_value 1] $rdi
	#DEBUG_VALUE: crypto_sign_edwards25519sha512batch_open:mlen_p <- [DW_OP_LLVM_entry_value 1] $rsi
	#DEBUG_VALUE: crypto_sign_edwards25519sha512batch_open:sm <- [DW_OP_LLVM_entry_value 1] $rdx
	#DEBUG_VALUE: crypto_sign_edwards25519sha512batch_open:smlen <- [DW_OP_LLVM_entry_value 1] $rcx
	#DEBUG_VALUE: crypto_sign_edwards25519sha512batch_open:pk <- [DW_OP_LLVM_entry_value 1] $r8
	callq	__stack_chk_fail@PLT
.Ltmp78:
.Lfunc_end2:
	.size	crypto_sign_edwards25519sha512batch_open, .Lfunc_end2-crypto_sign_edwards25519sha512batch_open
	.cfi_endproc
	.file	10 "./include/sodium" "crypto_verify_32.h"
                                        # -- End function
	.section	".note.GNU-stack","",@progbits
	.addrsig
	.addrsig_sym __stack_chk_fail