	.file	"open.c"
	.file	0 "/home/leizhenyuu/opt/Anonymous_Repo/libsodium_o2_attr_inline/src/libsodium" "open.c" md5 0x6ce104cff519af4c11a3d2dbbc5d2085
	.text
	.hidden	_crypto_sign_ed25519_verify_detached # -- Begin function _crypto_sign_ed25519_verify_detached
	.globl	_crypto_sign_ed25519_verify_detached
	.p2align	4
	.type	_crypto_sign_ed25519_verify_detached,@function
_crypto_sign_ed25519_verify_detached:   # @_crypto_sign_ed25519_verify_detached
.Lfunc_begin0:
	.file	1 "crypto_sign/ed25519/ref10" "open.c"
	.loc	1 20 0                          # crypto_sign/ed25519/ref10/open.c:20:0
	.cfi_startproc
# %bb.0:
	#DEBUG_VALUE: _crypto_sign_ed25519_verify_detached:sig <- $rdi
	#DEBUG_VALUE: _crypto_sign_ed25519_verify_detached:m <- $rsi
	#DEBUG_VALUE: _crypto_sign_ed25519_verify_detached:mlen <- $rdx
	#DEBUG_VALUE: _crypto_sign_ed25519_verify_detached:pk <- $rcx
	#DEBUG_VALUE: _crypto_sign_ed25519_verify_detached:prehashed <- $r8d
	pushq	%rbp
	.cfi_def_cfa_offset 16
	pushq	%r15
	.cfi_def_cfa_offset 24
	pushq	%r14
	.cfi_def_cfa_offset 32
	pushq	%r13
	.cfi_def_cfa_offset 40
	pushq	%r12
	.cfi_def_cfa_offset 48
	pushq	%rbx
	.cfi_def_cfa_offset 56
	subq	$600, %rsp                      # imm = 0x258
	.cfi_def_cfa_offset 656
	.cfi_offset %rbx, -56
	.cfi_offset %r12, -48
	.cfi_offset %r13, -40
	.cfi_offset %r14, -32
	.cfi_offset %r15, -24
	.cfi_offset %rbp, -16
	movl	%r8d, %r15d
	movq	%rcx, %r13
	movq	%rdx, (%rsp)                    # 8-byte Spill
.Ltmp0:
	#DEBUG_VALUE: _crypto_sign_ed25519_verify_detached:mlen <- [$rsp+0]
	movq	%rsi, %r12
	movq	%rdi, %rbx
	movq	%fs:40, %rax
	movq	%rax, 592(%rsp)
	#MEMBARRIER
.Ltmp1:
	.loc	1 33 34 prologue_end            # crypto_sign/ed25519/ref10/open.c:33:34
	leaq	32(%rdi), %r14
	.loc	1 33 9 is_stmt 0                # crypto_sign/ed25519/ref10/open.c:33:9
	movq	%r14, %rdi
.Ltmp2:
	#DEBUG_VALUE: _crypto_sign_ed25519_verify_detached:sig <- $rbx
	callq	sc25519_is_canonical@PLT
.Ltmp3:
	#DEBUG_VALUE: _crypto_sign_ed25519_verify_detached:prehashed <- $r15d
	#DEBUG_VALUE: _crypto_sign_ed25519_verify_detached:pk <- $r13
	#DEBUG_VALUE: _crypto_sign_ed25519_verify_detached:m <- $r12
	.loc	1 0 9                           # crypto_sign/ed25519/ref10/open.c:0:9
	movl	$-1, %ebp
	.loc	1 33 40                         # crypto_sign/ed25519/ref10/open.c:33:40
	testl	%eax, %eax
	.loc	1 33 45                         # crypto_sign/ed25519/ref10/open.c:33:45
	je	.LBB0_6
.Ltmp4:
# %bb.1:
	#DEBUG_VALUE: _crypto_sign_ed25519_verify_detached:sig <- $rbx
	#DEBUG_VALUE: _crypto_sign_ed25519_verify_detached:m <- $r12
	#DEBUG_VALUE: _crypto_sign_ed25519_verify_detached:mlen <- [$rsp+0]
	#DEBUG_VALUE: _crypto_sign_ed25519_verify_detached:pk <- $r13
	#DEBUG_VALUE: _crypto_sign_ed25519_verify_detached:prehashed <- $r15d
	.loc	1 34 9 is_stmt 1                # crypto_sign/ed25519/ref10/open.c:34:9
	movq	%rbx, %rdi
	callq	ge25519_has_small_order@PLT
.Ltmp5:
	.loc	1 34 38 is_stmt 0               # crypto_sign/ed25519/ref10/open.c:34:38
	testl	%eax, %eax
	.loc	1 33 45 is_stmt 1               # crypto_sign/ed25519/ref10/open.c:33:45
	je	.LBB0_2
.Ltmp6:
.LBB0_6:
	#DEBUG_VALUE: _crypto_sign_ed25519_verify_detached:sig <- $rbx
	#DEBUG_VALUE: _crypto_sign_ed25519_verify_detached:m <- [DW_OP_LLVM_entry_value 1] $rsi
	#DEBUG_VALUE: _crypto_sign_ed25519_verify_detached:mlen <- [$rsp+0]
	#DEBUG_VALUE: _crypto_sign_ed25519_verify_detached:pk <- $r13
	#DEBUG_VALUE: _crypto_sign_ed25519_verify_detached:prehashed <- [DW_OP_LLVM_entry_value 1] $r8d
	.loc	1 57 1                          # crypto_sign/ed25519/ref10/open.c:57:1
	movq	%fs:40, %rax
	cmpq	592(%rsp), %rax
	jne	.LBB0_8
.Ltmp7:
# %bb.7:                                # %SP_return
	#DEBUG_VALUE: _crypto_sign_ed25519_verify_detached:sig <- $rbx
	#DEBUG_VALUE: _crypto_sign_ed25519_verify_detached:m <- [DW_OP_LLVM_entry_value 1] $rsi
	#DEBUG_VALUE: _crypto_sign_ed25519_verify_detached:mlen <- [$rsp+0]
	#DEBUG_VALUE: _crypto_sign_ed25519_verify_detached:pk <- $r13
	#DEBUG_VALUE: _crypto_sign_ed25519_verify_detached:prehashed <- [DW_OP_LLVM_entry_value 1] $r8d
	movl	%ebp, %eax
	.loc	1 57 1 epilogue_begin is_stmt 0 # crypto_sign/ed25519/ref10/open.c:57:1
	addq	$600, %rsp                      # imm = 0x258
	.cfi_def_cfa_offset 56
	popq	%rbx
.Ltmp8:
	#DEBUG_VALUE: _crypto_sign_ed25519_verify_detached:sig <- [DW_OP_LLVM_entry_value 1] $rdi
	.cfi_def_cfa_offset 48
	popq	%r12
	.cfi_def_cfa_offset 40
	popq	%r13
.Ltmp9:
	#DEBUG_VALUE: _crypto_sign_ed25519_verify_detached:pk <- [DW_OP_LLVM_entry_value 1] $rcx
	.cfi_def_cfa_offset 32
	popq	%r14
	.cfi_def_cfa_offset 24
	popq	%r15
	.cfi_def_cfa_offset 16
	popq	%rbp
	.cfi_def_cfa_offset 8
	retq
.Ltmp10:
.LBB0_2:
	.cfi_def_cfa_offset 656
	#DEBUG_VALUE: _crypto_sign_ed25519_verify_detached:sig <- $rbx
	#DEBUG_VALUE: _crypto_sign_ed25519_verify_detached:m <- $r12
	#DEBUG_VALUE: _crypto_sign_ed25519_verify_detached:mlen <- [$rsp+0]
	#DEBUG_VALUE: _crypto_sign_ed25519_verify_detached:pk <- $r13
	#DEBUG_VALUE: _crypto_sign_ed25519_verify_detached:prehashed <- $r15d
	.loc	1 37 9 is_stmt 1                # crypto_sign/ed25519/ref10/open.c:37:9
	movq	%r13, %rdi
	callq	ge25519_is_canonical@PLT
.Ltmp11:
	.loc	1 37 34 is_stmt 0               # crypto_sign/ed25519/ref10/open.c:37:34
	testl	%eax, %eax
	.loc	1 37 39                         # crypto_sign/ed25519/ref10/open.c:37:39
	je	.LBB0_6
.Ltmp12:
# %bb.3:
	#DEBUG_VALUE: _crypto_sign_ed25519_verify_detached:sig <- $rbx
	#DEBUG_VALUE: _crypto_sign_ed25519_verify_detached:m <- $r12
	#DEBUG_VALUE: _crypto_sign_ed25519_verify_detached:mlen <- [$rsp+0]
	#DEBUG_VALUE: _crypto_sign_ed25519_verify_detached:pk <- $r13
	#DEBUG_VALUE: _crypto_sign_ed25519_verify_detached:prehashed <- $r15d
	.loc	1 38 9 is_stmt 1                # crypto_sign/ed25519/ref10/open.c:38:9
	movq	%r13, %rdi
	callq	ge25519_has_small_order@PLT
.Ltmp13:
	.loc	1 38 37 is_stmt 0               # crypto_sign/ed25519/ref10/open.c:38:37
	testl	%eax, %eax
	.loc	1 37 39 is_stmt 1               # crypto_sign/ed25519/ref10/open.c:37:39
	jne	.LBB0_6
.Ltmp14:
# %bb.4:
	#DEBUG_VALUE: _crypto_sign_ed25519_verify_detached:sig <- $rbx
	#DEBUG_VALUE: _crypto_sign_ed25519_verify_detached:m <- $r12
	#DEBUG_VALUE: _crypto_sign_ed25519_verify_detached:mlen <- [$rsp+0]
	#DEBUG_VALUE: _crypto_sign_ed25519_verify_detached:pk <- $r13
	#DEBUG_VALUE: _crypto_sign_ed25519_verify_detached:prehashed <- $r15d
	.loc	1 0 39 is_stmt 0                # crypto_sign/ed25519/ref10/open.c:0:39
	leaq	8(%rsp), %rdi
.Ltmp15:
	.loc	1 42 9 is_stmt 1                # crypto_sign/ed25519/ref10/open.c:42:9
	movq	%r13, %rsi
	callq	ge25519_frombytes_negate_vartime@PLT
.Ltmp16:
	.loc	1 42 50 is_stmt 0               # crypto_sign/ed25519/ref10/open.c:42:50
	testl	%eax, %eax
	jne	.LBB0_6
.Ltmp17:
# %bb.5:
	#DEBUG_VALUE: _crypto_sign_ed25519_verify_detached:sig <- $rbx
	#DEBUG_VALUE: _crypto_sign_ed25519_verify_detached:m <- $r12
	#DEBUG_VALUE: _crypto_sign_ed25519_verify_detached:mlen <- [$rsp+0]
	#DEBUG_VALUE: _crypto_sign_ed25519_verify_detached:pk <- $r13
	#DEBUG_VALUE: _crypto_sign_ed25519_verify_detached:prehashed <- $r15d
	.loc	1 0 50                          # crypto_sign/ed25519/ref10/open.c:0:50
	leaq	384(%rsp), %rbp
	.loc	1 45 5 is_stmt 1                # crypto_sign/ed25519/ref10/open.c:45:5
	movq	%rbp, %rdi
	movl	%r15d, %esi
	callq	_crypto_sign_ed25519_ref10_hinit@PLT
.Ltmp18:
	.loc	1 46 5                          # crypto_sign/ed25519/ref10/open.c:46:5
	movl	$32, %edx
	movq	%rbp, %rdi
	movq	%rbx, %rsi
	callq	crypto_hash_sha512_update@PLT
.Ltmp19:
	.loc	1 47 5                          # crypto_sign/ed25519/ref10/open.c:47:5
	movl	$32, %edx
	movq	%rbp, %rdi
	movq	%r13, %rsi
	callq	crypto_hash_sha512_update@PLT
.Ltmp20:
	.loc	1 48 5                          # crypto_sign/ed25519/ref10/open.c:48:5
	movq	%rbp, %rdi
	movq	%r12, %rsi
	movq	(%rsp), %rdx                    # 8-byte Reload
	callq	crypto_hash_sha512_update@PLT
.Ltmp21:
	.loc	1 0 5 is_stmt 0                 # crypto_sign/ed25519/ref10/open.c:0:5
	leaq	320(%rsp), %r15
.Ltmp22:
	#DEBUG_VALUE: _crypto_sign_ed25519_verify_detached:prehashed <- [DW_OP_LLVM_entry_value 1] $r8d
	.loc	1 49 5 is_stmt 1                # crypto_sign/ed25519/ref10/open.c:49:5
	movq	%rbp, %rdi
	movq	%r15, %rsi
	callq	crypto_hash_sha512_final@PLT
.Ltmp23:
	.loc	1 50 5                          # crypto_sign/ed25519/ref10/open.c:50:5
	movq	%r15, %rdi
	callq	sc25519_reduce@PLT
.Ltmp24:
	.loc	1 0 5 is_stmt 0                 # crypto_sign/ed25519/ref10/open.c:0:5
	leaq	168(%rsp), %r12
.Ltmp25:
	#DEBUG_VALUE: _crypto_sign_ed25519_verify_detached:m <- [DW_OP_LLVM_entry_value 1] $rsi
	leaq	8(%rsp), %rdx
	.loc	1 52 5 is_stmt 1                # crypto_sign/ed25519/ref10/open.c:52:5
	movq	%r12, %rdi
	movq	%r15, %rsi
	movq	%r14, %rcx
	callq	ge25519_double_scalarmult_vartime@PLT
.Ltmp26:
	.loc	1 0 5 is_stmt 0                 # crypto_sign/ed25519/ref10/open.c:0:5
	leaq	288(%rsp), %r14
	.loc	1 53 5 is_stmt 1                # crypto_sign/ed25519/ref10/open.c:53:5
	movq	%r14, %rdi
	movq	%r12, %rsi
	callq	ge25519_tobytes@PLT
.Ltmp27:
	.loc	1 55 12                         # crypto_sign/ed25519/ref10/open.c:55:12
	movq	%r14, %rdi
	movq	%rbx, %rsi
	callq	crypto_verify_32@PLT
.Ltmp28:
	.loc	1 55 54 is_stmt 0               # crypto_sign/ed25519/ref10/open.c:55:54
	cmpq	%rbx, %r14
	movl	$-1, %r15d
	.loc	1 55 42                         # crypto_sign/ed25519/ref10/open.c:55:42
	cmovnel	%eax, %r15d
	.loc	1 56 12 is_stmt 1               # crypto_sign/ed25519/ref10/open.c:56:12
	movl	$32, %edx
	movq	%rbx, %rdi
	movq	%r14, %rsi
	callq	sodium_memcmp@PLT
.Ltmp29:
	movl	%eax, %ebp
	.loc	1 55 63                         # crypto_sign/ed25519/ref10/open.c:55:63
	orl	%r15d, %ebp
	jmp	.LBB0_6
.Ltmp30:
.LBB0_8:                                # %CallStackCheckFailBlk
	#DEBUG_VALUE: _crypto_sign_ed25519_verify_detached:sig <- $rbx
	#DEBUG_VALUE: _crypto_sign_ed25519_verify_detached:m <- [DW_OP_LLVM_entry_value 1] $rsi
	#DEBUG_VALUE: _crypto_sign_ed25519_verify_detached:mlen <- [$rsp+0]
	#DEBUG_VALUE: _crypto_sign_ed25519_verify_detached:pk <- $r13
	#DEBUG_VALUE: _crypto_sign_ed25519_verify_detached:prehashed <- [DW_OP_LLVM_entry_value 1] $r8d
	.loc	1 0 0 is_stmt 0                 # crypto_sign/ed25519/ref10/open.c:0
	callq	__stack_chk_fail@PLT
.Ltmp31:
.Lfunc_end0:
	.size	_crypto_sign_ed25519_verify_detached, .Lfunc_end0-_crypto_sign_ed25519_verify_detached
	.cfi_endproc
	.file	2 "./include/sodium/private" "ed25519_ref10.h"
	.file	3 "/usr/include/x86_64-linux-gnu/bits" "types.h"
	.file	4 "/usr/include/x86_64-linux-gnu/bits" "stdint-uintn.h"
	.file	5 "crypto_sign/ed25519/ref10" "sign_ed25519_ref10.h"
	.file	6 "./include/sodium" "crypto_hash_sha512.h"
	.file	7 "./include/sodium" "crypto_verify_32.h"
	.file	8 "./include/sodium" "utils.h"
	.file	9 "/home/leizhenyuu/opt/Anonymous_Repo" "llvm-project/build/lib/clang/21/include/__stddef_size_t.h"
                                        # -- End function
	.globl	crypto_sign_ed25519_verify_detached # -- Begin function crypto_sign_ed25519_verify_detached
	.p2align	4
	.type	crypto_sign_ed25519_verify_detached,@function
crypto_sign_ed25519_verify_detached:    # @crypto_sign_ed25519_verify_detached
.Lfunc_begin1:
	.cfi_startproc
# %bb.0:
	#DEBUG_VALUE: crypto_sign_ed25519_verify_detached:sig <- $rdi
	#DEBUG_VALUE: crypto_sign_ed25519_verify_detached:m <- $rsi
	#DEBUG_VALUE: crypto_sign_ed25519_verify_detached:mlen <- $rdx
	#DEBUG_VALUE: crypto_sign_ed25519_verify_detached:pk <- $rcx
	.loc	1 65 12 prologue_end is_stmt 1  # crypto_sign/ed25519/ref10/open.c:65:12
	xorl	%r8d, %r8d
.Ltmp32:
	jmp	_crypto_sign_ed25519_verify_detached # TAILCALL
.Ltmp33:
.Lfunc_end1:
	.size	crypto_sign_ed25519_verify_detached, .Lfunc_end1-crypto_sign_ed25519_verify_detached
	.cfi_endproc
                                        # -- End function
	.globl	crypto_sign_ed25519_open        # -- Begin function crypto_sign_ed25519_open
	.p2align	4
	.type	crypto_sign_ed25519_open,@function
crypto_sign_ed25519_open:               # @crypto_sign_ed25519_open
.Lfunc_begin2:
	.loc	1 72 0                          # crypto_sign/ed25519/ref10/open.c:72:0
	.cfi_startproc
# %bb.0:
	#DEBUG_VALUE: crypto_sign_ed25519_open:m <- $rdi
	#DEBUG_VALUE: crypto_sign_ed25519_open:mlen_p <- $rsi
	#DEBUG_VALUE: crypto_sign_ed25519_open:sm <- $rdx
	#DEBUG_VALUE: crypto_sign_ed25519_open:smlen <- $rcx
	#DEBUG_VALUE: crypto_sign_ed25519_open:pk <- $r8
	pushq	%r15
	.cfi_def_cfa_offset 16
	pushq	%r14
	.cfi_def_cfa_offset 24
	pushq	%r12
	.cfi_def_cfa_offset 32
	pushq	%rbx
	.cfi_def_cfa_offset 40
	pushq	%rax
	.cfi_def_cfa_offset 48
	.cfi_offset %rbx, -40
	.cfi_offset %r12, -32
	.cfi_offset %r14, -24
	.cfi_offset %r15, -16
	movq	%rsi, %r14
.Ltmp34:
	.loc	1 75 15 prologue_end            # crypto_sign/ed25519/ref10/open.c:75:15
	cmpq	$64, %rcx
	.loc	1 75 20 is_stmt 0               # crypto_sign/ed25519/ref10/open.c:75:20
	jb	.LBB2_4
.Ltmp35:
# %bb.1:
	#DEBUG_VALUE: crypto_sign_ed25519_open:m <- $rdi
	#DEBUG_VALUE: crypto_sign_ed25519_open:mlen_p <- $r14
	#DEBUG_VALUE: crypto_sign_ed25519_open:sm <- $rdx
	#DEBUG_VALUE: crypto_sign_ed25519_open:smlen <- $rcx
	#DEBUG_VALUE: crypto_sign_ed25519_open:pk <- $r8
	.loc	1 0 20                          # crypto_sign/ed25519/ref10/open.c:0:20
	movq	%rcx, %rbx
	movq	%rdi, %r15
	.loc	1 75 29                         # crypto_sign/ed25519/ref10/open.c:75:29
	addq	$-64, %rbx
.Ltmp36:
	#DEBUG_VALUE: crypto_sign_ed25519_open:mlen <- $rbx
	.loc	1 79 52 is_stmt 1               # crypto_sign/ed25519/ref10/open.c:79:52
	leaq	64(%rdx), %r12
.Ltmp37:
	#DEBUG_VALUE: crypto_sign_ed25519_verify_detached:m <- $r12
	#DEBUG_VALUE: crypto_sign_ed25519_verify_detached:sig <- $rdx
	#DEBUG_VALUE: crypto_sign_ed25519_verify_detached:mlen <- $rbx
	#DEBUG_VALUE: crypto_sign_ed25519_verify_detached:pk <- $r8
	.loc	1 65 12                         # crypto_sign/ed25519/ref10/open.c:65:12 @[ crypto_sign/ed25519/ref10/open.c:79:9 ]
	movq	%rdx, %rdi
.Ltmp38:
	#DEBUG_VALUE: crypto_sign_ed25519_open:m <- $r15
	movq	%r12, %rsi
	movq	%rbx, %rdx
.Ltmp39:
	#DEBUG_VALUE: crypto_sign_ed25519_verify_detached:sig <- $rdi
	#DEBUG_VALUE: crypto_sign_ed25519_open:sm <- $rdi
	movq	%r8, %rcx
.Ltmp40:
	#DEBUG_VALUE: crypto_sign_ed25519_open:smlen <- [DW_OP_LLVM_entry_value 1] $rcx
	xorl	%r8d, %r8d
.Ltmp41:
	#DEBUG_VALUE: crypto_sign_ed25519_verify_detached:pk <- $rcx
	#DEBUG_VALUE: crypto_sign_ed25519_open:pk <- $rcx
	callq	_crypto_sign_ed25519_verify_detached
.Ltmp42:
	#DEBUG_VALUE: crypto_sign_ed25519_open:pk <- [DW_OP_LLVM_entry_value 1] $r8
	#DEBUG_VALUE: crypto_sign_ed25519_open:smlen <- [DW_OP_LLVM_entry_value 1] $r8
	#DEBUG_VALUE: crypto_sign_ed25519_open:sm <- [DW_OP_LLVM_entry_value 1] $rdx
	.loc	1 79 68                         # crypto_sign/ed25519/ref10/open.c:79:68
	testl	%eax, %eax
	je	.LBB2_6
.Ltmp43:
# %bb.2:
	#DEBUG_VALUE: crypto_sign_ed25519_open:m <- $r15
	#DEBUG_VALUE: crypto_sign_ed25519_open:mlen_p <- $r14
	#DEBUG_VALUE: crypto_sign_ed25519_open:sm <- [DW_OP_LLVM_entry_value 1] $rdx
	#DEBUG_VALUE: crypto_sign_ed25519_open:smlen <- [DW_OP_LLVM_entry_value 1] $rcx
	#DEBUG_VALUE: crypto_sign_ed25519_open:pk <- [DW_OP_LLVM_entry_value 1] $r8
	#DEBUG_VALUE: crypto_sign_ed25519_open:mlen <- $rbx
	.loc	1 80 15                         # crypto_sign/ed25519/ref10/open.c:80:15
	testq	%r15, %r15
	je	.LBB2_4
.Ltmp44:
# %bb.3:
	#DEBUG_VALUE: crypto_sign_ed25519_open:m <- $r15
	#DEBUG_VALUE: crypto_sign_ed25519_open:mlen_p <- $r14
	#DEBUG_VALUE: crypto_sign_ed25519_open:sm <- [DW_OP_LLVM_entry_value 1] $rdx
	#DEBUG_VALUE: crypto_sign_ed25519_open:smlen <- [DW_OP_LLVM_entry_value 1] $rcx
	#DEBUG_VALUE: crypto_sign_ed25519_open:pk <- [DW_OP_LLVM_entry_value 1] $r8
	#DEBUG_VALUE: crypto_sign_ed25519_open:mlen <- $rbx
	#DEBUG_VALUE: memset:__dest <- $r15
	#DEBUG_VALUE: memset:__ch <- 0
	#DEBUG_VALUE: memset:__len <- $rbx
	.file	10 "/usr/include/x86_64-linux-gnu/bits" "string_fortified.h"
	.loc	10 59 10                        # /usr/include/x86_64-linux-gnu/bits/string_fortified.h:59:10 @[ crypto_sign/ed25519/ref10/open.c:81:13 ]
	movq	%r15, %rdi
	xorl	%esi, %esi
	movq	%rbx, %rdx
	callq	memset@PLT
.Ltmp45:
.LBB2_4:
	#DEBUG_VALUE: crypto_sign_ed25519_open:m <- [DW_OP_LLVM_entry_value 1] $rdi
	#DEBUG_VALUE: crypto_sign_ed25519_open:mlen_p <- $r14
	#DEBUG_VALUE: crypto_sign_ed25519_open:sm <- [DW_OP_LLVM_entry_value 1] $rdx
	#DEBUG_VALUE: crypto_sign_ed25519_open:smlen <- [DW_OP_LLVM_entry_value 1] $rcx
	#DEBUG_VALUE: crypto_sign_ed25519_open:pk <- [DW_OP_LLVM_entry_value 1] $r8
	#DEBUG_LABEL: crypto_sign_ed25519_open:badsig
	.loc	10 0 10 is_stmt 0               # /usr/include/x86_64-linux-gnu/bits/string_fortified.h:0:10
	movl	$-1, %eax
.Ltmp46:
	.loc	1 94 16 is_stmt 1               # crypto_sign/ed25519/ref10/open.c:94:16
	testq	%r14, %r14
	je	.LBB2_10
.Ltmp47:
# %bb.5:
	#DEBUG_VALUE: crypto_sign_ed25519_open:m <- [DW_OP_LLVM_entry_value 1] $rdi
	#DEBUG_VALUE: crypto_sign_ed25519_open:mlen_p <- $r14
	#DEBUG_VALUE: crypto_sign_ed25519_open:sm <- [DW_OP_LLVM_entry_value 1] $rdx
	#DEBUG_VALUE: crypto_sign_ed25519_open:smlen <- [DW_OP_LLVM_entry_value 1] $rcx
	#DEBUG_VALUE: crypto_sign_ed25519_open:pk <- [DW_OP_LLVM_entry_value 1] $r8
	.loc	1 95 17                         # crypto_sign/ed25519/ref10/open.c:95:17
	movq	$0, (%r14)
.Ltmp48:
.LBB2_10:
	#DEBUG_VALUE: crypto_sign_ed25519_open:m <- [DW_OP_LLVM_entry_value 1] $rdi
	#DEBUG_VALUE: crypto_sign_ed25519_open:mlen_p <- $r14
	#DEBUG_VALUE: crypto_sign_ed25519_open:sm <- [DW_OP_LLVM_entry_value 1] $rdx
	#DEBUG_VALUE: crypto_sign_ed25519_open:smlen <- [DW_OP_LLVM_entry_value 1] $rcx
	#DEBUG_VALUE: crypto_sign_ed25519_open:pk <- [DW_OP_LLVM_entry_value 1] $r8
	.loc	1 98 1 epilogue_begin           # crypto_sign/ed25519/ref10/open.c:98:1
	addq	$8, %rsp
	.cfi_def_cfa_offset 40
	popq	%rbx
	.cfi_def_cfa_offset 32
	popq	%r12
	.cfi_def_cfa_offset 24
	popq	%r14
.Ltmp49:
	#DEBUG_VALUE: crypto_sign_ed25519_open:mlen_p <- [DW_OP_LLVM_entry_value 1] $rsi
	.cfi_def_cfa_offset 16
	popq	%r15
	.cfi_def_cfa_offset 8
	retq
.Ltmp50:
.LBB2_6:
	.cfi_def_cfa_offset 48
	#DEBUG_VALUE: crypto_sign_ed25519_open:m <- $r15
	#DEBUG_VALUE: crypto_sign_ed25519_open:mlen_p <- $r14
	#DEBUG_VALUE: crypto_sign_ed25519_open:sm <- [DW_OP_LLVM_entry_value 1] $rdx
	#DEBUG_VALUE: crypto_sign_ed25519_open:smlen <- [DW_OP_LLVM_entry_value 1] $rcx
	#DEBUG_VALUE: crypto_sign_ed25519_open:pk <- [DW_OP_LLVM_entry_value 1] $r8
	#DEBUG_VALUE: crypto_sign_ed25519_open:mlen <- $rbx
	.loc	1 85 16                         # crypto_sign/ed25519/ref10/open.c:85:16
	testq	%r14, %r14
	je	.LBB2_8
.Ltmp51:
# %bb.7:
	#DEBUG_VALUE: crypto_sign_ed25519_open:m <- $r15
	#DEBUG_VALUE: crypto_sign_ed25519_open:mlen_p <- $r14
	#DEBUG_VALUE: crypto_sign_ed25519_open:sm <- [DW_OP_LLVM_entry_value 1] $rdx
	#DEBUG_VALUE: crypto_sign_ed25519_open:smlen <- [DW_OP_LLVM_entry_value 1] $rcx
	#DEBUG_VALUE: crypto_sign_ed25519_open:pk <- [DW_OP_LLVM_entry_value 1] $r8
	#DEBUG_VALUE: crypto_sign_ed25519_open:mlen <- $rbx
	.loc	1 86 17                         # crypto_sign/ed25519/ref10/open.c:86:17
	movq	%rbx, (%r14)
.Ltmp52:
.LBB2_8:
	#DEBUG_VALUE: crypto_sign_ed25519_open:m <- $r15
	#DEBUG_VALUE: crypto_sign_ed25519_open:mlen_p <- $r14
	#DEBUG_VALUE: crypto_sign_ed25519_open:sm <- [DW_OP_LLVM_entry_value 1] $rdx
	#DEBUG_VALUE: crypto_sign_ed25519_open:smlen <- [DW_OP_LLVM_entry_value 1] $rcx
	#DEBUG_VALUE: crypto_sign_ed25519_open:pk <- [DW_OP_LLVM_entry_value 1] $r8
	#DEBUG_VALUE: crypto_sign_ed25519_open:mlen <- $rbx
	.loc	1 0 17 is_stmt 0                # crypto_sign/ed25519/ref10/open.c:0:17
	xorl	%eax, %eax
.Ltmp53:
	.loc	1 88 11 is_stmt 1               # crypto_sign/ed25519/ref10/open.c:88:11
	testq	%r15, %r15
	je	.LBB2_10
.Ltmp54:
# %bb.9:
	#DEBUG_VALUE: crypto_sign_ed25519_open:m <- $r15
	#DEBUG_VALUE: crypto_sign_ed25519_open:mlen_p <- $r14
	#DEBUG_VALUE: crypto_sign_ed25519_open:sm <- [DW_OP_LLVM_entry_value 1] $rdx
	#DEBUG_VALUE: crypto_sign_ed25519_open:smlen <- [DW_OP_LLVM_entry_value 1] $rcx
	#DEBUG_VALUE: crypto_sign_ed25519_open:pk <- [DW_OP_LLVM_entry_value 1] $r8
	#DEBUG_VALUE: crypto_sign_ed25519_open:mlen <- $rbx
	#DEBUG_VALUE: memmove:__dest <- $r15
	#DEBUG_VALUE: memmove:__src <- $r12
	#DEBUG_VALUE: memmove:__len <- $rbx
	.loc	10 36 10                        # /usr/include/x86_64-linux-gnu/bits/string_fortified.h:36:10 @[ crypto_sign/ed25519/ref10/open.c:89:9 ]
	movq	%r15, %rdi
	movq	%r12, %rsi
	movq	%rbx, %rdx
	callq	memmove@PLT
.Ltmp55:
	.loc	10 0 10 is_stmt 0               # /usr/include/x86_64-linux-gnu/bits/string_fortified.h:0:10
	xorl	%eax, %eax
	jmp	.LBB2_10
.Ltmp56:
.Lfunc_end2:
	.size	crypto_sign_ed25519_open, .Lfunc_end2-crypto_sign_ed25519_open
	.cfi_endproc
                                        # -- End function
	.section	".note.GNU-stack","",@progbits
	.addrsig
	.addrsig_sym __stack_chk_fail