	.file	"pbkdf2-sha256.c"
	.file	0 "/home/leizhenyuu/opt/Anonymous_Repo/libsodium_o2_attr_inline/src/libsodium" "pbkdf2-sha256.c" md5 0x5012f16e2d08a73e3d2b0ebad314b714
	.file	1 "/usr/include/x86_64-linux-gnu/bits" "types.h"
	.file	2 "/usr/include/x86_64-linux-gnu/bits" "stdint-uintn.h"
	.text
	.hidden	escrypt_PBKDF2_SHA256           # -- Begin function escrypt_PBKDF2_SHA256
	.globl	escrypt_PBKDF2_SHA256
	.p2align	4
	.type	escrypt_PBKDF2_SHA256,@function
escrypt_PBKDF2_SHA256:                  # @escrypt_PBKDF2_SHA256
.Lfunc_begin0:
	.file	3 "crypto_pwhash/scryptsalsa208sha256" "pbkdf2-sha256.c"
	.loc	3 50 0                          # crypto_pwhash/scryptsalsa208sha256/pbkdf2-sha256.c:50:0
	.cfi_startproc
# %bb.0:
	#DEBUG_VALUE: escrypt_PBKDF2_SHA256:passwd <- $rdi
	#DEBUG_VALUE: escrypt_PBKDF2_SHA256:passwdlen <- $rsi
	#DEBUG_VALUE: escrypt_PBKDF2_SHA256:salt <- $rdx
	#DEBUG_VALUE: escrypt_PBKDF2_SHA256:saltlen <- $rcx
	#DEBUG_VALUE: escrypt_PBKDF2_SHA256:c <- $r8
	#DEBUG_VALUE: escrypt_PBKDF2_SHA256:buf <- $r9
	pushq	%rbp
	.cfi_def_cfa_offset 16
	pushq	%r15
	.cfi_def_cfa_offset 24
	pushq	%r14
	.cfi_def_cfa_offset 32
	pushq	%r13
	.cfi_def_cfa_offset 40
	pushq	%r12
	.cfi_def_cfa_offset 48
	pushq	%rbx
	.cfi_def_cfa_offset 56
	subq	$568, %rsp                      # imm = 0x238
	.cfi_def_cfa_offset 624
	.cfi_offset %rbx, -56
	.cfi_offset %r12, -48
	.cfi_offset %r13, -40
	.cfi_offset %r14, -32
	.cfi_offset %r15, -24
	.cfi_offset %rbp, -16
.Ltmp0:
	#DEBUG_VALUE: escrypt_PBKDF2_SHA256:dkLen <- [DW_OP_plus_uconst 624] [$rsp+0]
	movq	624(%rsp), %r12
	movq	%fs:40, %rax
	movq	%rax, 560(%rsp)
	movabsq	$137438953441, %rax             # imm = 0x1FFFFFFFE1
.Ltmp1:
	.loc	3 63 15 prologue_end            # crypto_pwhash/scryptsalsa208sha256/pbkdf2-sha256.c:63:15
	cmpq	%rax, %r12
	jae	.LBB0_10
.Ltmp2:
# %bb.1:
	#DEBUG_VALUE: escrypt_PBKDF2_SHA256:passwd <- $rdi
	#DEBUG_VALUE: escrypt_PBKDF2_SHA256:passwdlen <- $rsi
	#DEBUG_VALUE: escrypt_PBKDF2_SHA256:salt <- $rdx
	#DEBUG_VALUE: escrypt_PBKDF2_SHA256:saltlen <- $rcx
	#DEBUG_VALUE: escrypt_PBKDF2_SHA256:c <- $r8
	#DEBUG_VALUE: escrypt_PBKDF2_SHA256:buf <- $r9
	#DEBUG_VALUE: escrypt_PBKDF2_SHA256:dkLen <- [DW_OP_plus_uconst 624] [$rsp+0]
	.loc	3 0 15 is_stmt 0                # crypto_pwhash/scryptsalsa208sha256/pbkdf2-sha256.c:0:15
	movq	%r9, %r15
	movq	%r8, %r14
	movq	%rcx, %rbx
	movq	%rdx, %r13
	movq	%rsi, %rcx
.Ltmp3:
	#DEBUG_VALUE: escrypt_PBKDF2_SHA256:saltlen <- $rbx
	movq	%rdi, %rdx
.Ltmp4:
	#DEBUG_VALUE: escrypt_PBKDF2_SHA256:salt <- $r13
	leaq	352(%rsp), %rbp
	.loc	3 67 5 is_stmt 1                # crypto_pwhash/scryptsalsa208sha256/pbkdf2-sha256.c:67:5
	movq	%rbp, %rdi
.Ltmp5:
	#DEBUG_VALUE: escrypt_PBKDF2_SHA256:passwd <- $rdx
	.loc	3 0 5 is_stmt 0                 # crypto_pwhash/scryptsalsa208sha256/pbkdf2-sha256.c:0:5
	movq	%rdx, 16(%rsp)                  # 8-byte Spill
.Ltmp6:
	#DEBUG_VALUE: escrypt_PBKDF2_SHA256:passwd <- [DW_OP_plus_uconst 16] [$rsp+0]
	.loc	3 67 5                          # crypto_pwhash/scryptsalsa208sha256/pbkdf2-sha256.c:67:5
	movq	%rdx, %rsi
.Ltmp7:
	#DEBUG_VALUE: escrypt_PBKDF2_SHA256:passwdlen <- $rcx
	.loc	3 0 5                           # crypto_pwhash/scryptsalsa208sha256/pbkdf2-sha256.c:0:5
	movq	%rcx, 24(%rsp)                  # 8-byte Spill
.Ltmp8:
	#DEBUG_VALUE: escrypt_PBKDF2_SHA256:passwdlen <- [DW_OP_plus_uconst 24] [$rsp+0]
	.loc	3 67 5                          # crypto_pwhash/scryptsalsa208sha256/pbkdf2-sha256.c:67:5
	movq	%rcx, %rdx
	callq	crypto_auth_hmacsha256_init@PLT
.Ltmp9:
	#DEBUG_VALUE: escrypt_PBKDF2_SHA256:buf <- $r15
	#DEBUG_VALUE: escrypt_PBKDF2_SHA256:c <- $r14
	.loc	3 68 5 is_stmt 1                # crypto_pwhash/scryptsalsa208sha256/pbkdf2-sha256.c:68:5
	movq	%rbp, %rdi
	movq	%r13, %rsi
	movq	%rbx, %rdx
	callq	crypto_auth_hmacsha256_update@PLT
.Ltmp10:
	#DEBUG_VALUE: escrypt_PBKDF2_SHA256:i <- 0
	.loc	3 70 24                         # crypto_pwhash/scryptsalsa208sha256/pbkdf2-sha256.c:70:24
	testq	%r12, %r12
.Ltmp11:
	.loc	3 70 5 is_stmt 0                # crypto_pwhash/scryptsalsa208sha256/pbkdf2-sha256.c:70:5
	je	.LBB0_8
.Ltmp12:
# %bb.2:                                # %.lr.ph32
	#DEBUG_VALUE: escrypt_PBKDF2_SHA256:passwd <- [DW_OP_plus_uconst 16] [$rsp+0]
	#DEBUG_VALUE: escrypt_PBKDF2_SHA256:passwdlen <- [DW_OP_plus_uconst 24] [$rsp+0]
	#DEBUG_VALUE: escrypt_PBKDF2_SHA256:salt <- $r13
	#DEBUG_VALUE: escrypt_PBKDF2_SHA256:saltlen <- $rbx
	#DEBUG_VALUE: escrypt_PBKDF2_SHA256:c <- $r14
	#DEBUG_VALUE: escrypt_PBKDF2_SHA256:buf <- $r15
	#DEBUG_VALUE: escrypt_PBKDF2_SHA256:dkLen <- [DW_OP_plus_uconst 624] [$rsp+0]
	#DEBUG_VALUE: escrypt_PBKDF2_SHA256:i <- 0
	.loc	3 0 5                           # crypto_pwhash/scryptsalsa208sha256/pbkdf2-sha256.c:0:5
	xorl	%ebp, %ebp
	leaq	144(%rsp), %r13
.Ltmp13:
	#DEBUG_VALUE: escrypt_PBKDF2_SHA256:salt <- [DW_OP_LLVM_entry_value 1] $rdx
	leaq	352(%rsp), %rbx
.Ltmp14:
	#DEBUG_VALUE: escrypt_PBKDF2_SHA256:saltlen <- [DW_OP_LLVM_entry_value 1] $rcx
	xorl	%eax, %eax
	movq	%r15, 8(%rsp)                   # 8-byte Spill
.Ltmp15:
	#DEBUG_VALUE: escrypt_PBKDF2_SHA256:buf <- [DW_OP_plus_uconst 8] [$rsp+0]
	jmp	.LBB0_3
.Ltmp16:
	.p2align	4
.LBB0_6:                                # %._crit_edge.loopexit
                                        #   in Loop: Header=BB0_3 Depth=1
	#DEBUG_VALUE: escrypt_PBKDF2_SHA256:passwd <- [DW_OP_plus_uconst 16] [$rsp+0]
	#DEBUG_VALUE: escrypt_PBKDF2_SHA256:passwdlen <- [DW_OP_plus_uconst 24] [$rsp+0]
	#DEBUG_VALUE: escrypt_PBKDF2_SHA256:salt <- [DW_OP_LLVM_entry_value 1] $rdx
	#DEBUG_VALUE: escrypt_PBKDF2_SHA256:saltlen <- [DW_OP_LLVM_entry_value 1] $rcx
	#DEBUG_VALUE: escrypt_PBKDF2_SHA256:c <- $rbx
	#DEBUG_VALUE: escrypt_PBKDF2_SHA256:buf <- [DW_OP_plus_uconst 8] [$rsp+0]
	#DEBUG_VALUE: escrypt_PBKDF2_SHA256:dkLen <- [DW_OP_plus_uconst 624] [$rsp+0]
	#DEBUG_VALUE: escrypt_PBKDF2_SHA256:j <- $r15
	#DEBUG_VALUE: escrypt_PBKDF2_SHA256:k <- 0
	.loc	3 84 22 is_stmt 1               # crypto_pwhash/scryptsalsa208sha256/pbkdf2-sha256.c:84:22
	movaps	%xmm1, 80(%rsp)
	movaps	%xmm0, 96(%rsp)
	movq	8(%rsp), %r15                   # 8-byte Reload
.Ltmp17:
	.loc	3 0 22 is_stmt 0                # crypto_pwhash/scryptsalsa208sha256/pbkdf2-sha256.c:0:22
	movq	%rbx, %r14
.Ltmp18:
	#DEBUG_VALUE: escrypt_PBKDF2_SHA256:c <- $r14
	movq	624(%rsp), %r12
	leaq	352(%rsp), %rbx
	movq	32(%rsp), %rbp                  # 8-byte Reload
.Ltmp19:
.LBB0_7:                                # %._crit_edge
                                        #   in Loop: Header=BB0_3 Depth=1
	#DEBUG_VALUE: escrypt_PBKDF2_SHA256:passwd <- [DW_OP_plus_uconst 16] [$rsp+0]
	#DEBUG_VALUE: escrypt_PBKDF2_SHA256:passwdlen <- [DW_OP_plus_uconst 24] [$rsp+0]
	#DEBUG_VALUE: escrypt_PBKDF2_SHA256:salt <- [DW_OP_LLVM_entry_value 1] $rdx
	#DEBUG_VALUE: escrypt_PBKDF2_SHA256:saltlen <- [DW_OP_LLVM_entry_value 1] $rcx
	#DEBUG_VALUE: escrypt_PBKDF2_SHA256:c <- $r14
	#DEBUG_VALUE: escrypt_PBKDF2_SHA256:buf <- [DW_OP_plus_uconst 8] [$rsp+0]
	#DEBUG_VALUE: escrypt_PBKDF2_SHA256:dkLen <- [DW_OP_plus_uconst 624] [$rsp+0]
	.loc	3 89 22 is_stmt 1               # crypto_pwhash/scryptsalsa208sha256/pbkdf2-sha256.c:89:22
	movq	%r12, %rdx
	subq	%rbp, %rdx
.Ltmp20:
	#DEBUG_VALUE: escrypt_PBKDF2_SHA256:clen <- $rdx
	.loc	3 90 18                         # crypto_pwhash/scryptsalsa208sha256/pbkdf2-sha256.c:90:18
	cmpq	$32, %rdx
	movl	$32, %eax
	cmovaeq	%rax, %rdx
.Ltmp21:
	#DEBUG_VALUE: escrypt_PBKDF2_SHA256:clen <- $rdx
	#DEBUG_VALUE: memcpy:__len <- $rdx
	.loc	3 93 17                         # crypto_pwhash/scryptsalsa208sha256/pbkdf2-sha256.c:93:17
	addq	%r15, %rbp
.Ltmp22:
	#DEBUG_VALUE: memcpy:__dest <- $rbp
	#DEBUG_VALUE: memcpy:__src <- [DW_OP_plus_uconst 80, DW_OP_stack_value] $rsp
	.file	4 "/usr/include/x86_64-linux-gnu/bits" "string_fortified.h"
	.loc	4 29 10                         # /usr/include/x86_64-linux-gnu/bits/string_fortified.h:29:10 @[ crypto_pwhash/scryptsalsa208sha256/pbkdf2-sha256.c:93:9 ]
	movq	%rbp, %rdi
	leaq	80(%rsp), %rsi
	callq	memcpy@PLT
.Ltmp23:
	#DEBUG_VALUE: escrypt_PBKDF2_SHA256:i <- [DW_OP_plus_uconst 40, DW_OP_deref] $rsp
	.loc	4 0 10 is_stmt 0                # /usr/include/x86_64-linux-gnu/bits/string_fortified.h:0:10
	movq	40(%rsp), %rax                  # 8-byte Reload
.Ltmp24:
	.loc	3 70 19 is_stmt 1               # crypto_pwhash/scryptsalsa208sha256/pbkdf2-sha256.c:70:19
	movq	%rax, %rbp
.Ltmp25:
	shlq	$5, %rbp
	.loc	3 70 24 is_stmt 0               # crypto_pwhash/scryptsalsa208sha256/pbkdf2-sha256.c:70:24
	cmpq	%r12, %rbp
.Ltmp26:
	.loc	3 70 5                          # crypto_pwhash/scryptsalsa208sha256/pbkdf2-sha256.c:70:5
	jae	.LBB0_8
.Ltmp27:
.LBB0_3:                                # =>This Loop Header: Depth=1
                                        #     Child Loop BB0_5 Depth 2
	#DEBUG_VALUE: escrypt_PBKDF2_SHA256:passwd <- [DW_OP_plus_uconst 16] [$rsp+0]
	#DEBUG_VALUE: escrypt_PBKDF2_SHA256:passwdlen <- [DW_OP_plus_uconst 24] [$rsp+0]
	#DEBUG_VALUE: escrypt_PBKDF2_SHA256:salt <- [DW_OP_LLVM_entry_value 1] $rdx
	#DEBUG_VALUE: escrypt_PBKDF2_SHA256:saltlen <- [DW_OP_LLVM_entry_value 1] $rcx
	#DEBUG_VALUE: escrypt_PBKDF2_SHA256:c <- $r14
	#DEBUG_VALUE: escrypt_PBKDF2_SHA256:buf <- [DW_OP_plus_uconst 8] [$rsp+0]
	#DEBUG_VALUE: escrypt_PBKDF2_SHA256:dkLen <- [DW_OP_plus_uconst 624] [$rsp+0]
	#DEBUG_VALUE: escrypt_PBKDF2_SHA256:i <- $rax
	.loc	3 71 42 is_stmt 1               # crypto_pwhash/scryptsalsa208sha256/pbkdf2-sha256.c:71:42
	incq	%rax
.Ltmp28:
	#DEBUG_VALUE: store32_be:w <- [DW_OP_LLVM_convert 64 7, DW_OP_LLVM_convert 32 7, DW_OP_stack_value] $rax
	#DEBUG_VALUE: store32_be:dst <- [DW_OP_plus_uconst 4, DW_OP_stack_value] $rsp
	#DEBUG_VALUE: store32_be:w <- [DW_OP_LLVM_convert 64 7, DW_OP_LLVM_convert 32 7, DW_OP_constu 8, DW_OP_shr, DW_OP_stack_value] $rax
	#DEBUG_VALUE: store32_be:w <- [DW_OP_LLVM_convert 64 7, DW_OP_LLVM_convert 32 7, DW_OP_constu 16, DW_OP_shr, DW_OP_stack_value] $rax
	#DEBUG_VALUE: store32_be:w <- [DW_OP_LLVM_convert 64 7, DW_OP_LLVM_convert 32 7, DW_OP_constu 24, DW_OP_shr, DW_OP_stack_value] $rax
	.loc	3 0 42 is_stmt 0                # crypto_pwhash/scryptsalsa208sha256/pbkdf2-sha256.c:0:42
	movq	%rax, 40(%rsp)                  # 8-byte Spill
.Ltmp29:
	#DEBUG_VALUE: store32_be:w <- [DW_OP_plus_uconst 40, DW_OP_deref_size 8, DW_OP_LLVM_convert 64 7, DW_OP_LLVM_convert 32 7, DW_OP_constu 24, DW_OP_shr, DW_OP_stack_value] $rsp
                                        # kill: def $eax killed $eax killed $rax
	.file	5 "./include/sodium/private" "common.h"
	.loc	5 199 12 is_stmt 1              # ./include/sodium/private/common.h:199:12 @[ crypto_pwhash/scryptsalsa208sha256/pbkdf2-sha256.c:71:9 ]
	bswapl	%eax
	movl	%eax, 4(%rsp)
.Ltmp30:
	#DEBUG_VALUE: memcpy:__dest <- [DW_OP_plus_uconst 144, DW_OP_stack_value] $rsp
	#DEBUG_VALUE: memcpy:__src <- [DW_OP_plus_uconst 352, DW_OP_stack_value] $rsp
	#DEBUG_VALUE: memcpy:__len <- 208
	.loc	4 29 10                         # /usr/include/x86_64-linux-gnu/bits/string_fortified.h:29:10 @[ crypto_pwhash/scryptsalsa208sha256/pbkdf2-sha256.c:72:9 ]
	movl	$208, %edx
	movq	%r13, %rdi
	movq	%rbx, %rsi
	callq	memcpy@PLT
.Ltmp31:
	.loc	3 73 9                          # crypto_pwhash/scryptsalsa208sha256/pbkdf2-sha256.c:73:9
	movl	$4, %edx
	movq	%r13, %rdi
	leaq	4(%rsp), %rsi
	callq	crypto_auth_hmacsha256_update@PLT
.Ltmp32:
	.loc	3 74 9                          # crypto_pwhash/scryptsalsa208sha256/pbkdf2-sha256.c:74:9
	movq	%r13, %rdi
	leaq	112(%rsp), %rsi
	callq	crypto_auth_hmacsha256_final@PLT
.Ltmp33:
	.loc	4 29 10                         # /usr/include/x86_64-linux-gnu/bits/string_fortified.h:29:10 @[ crypto_pwhash/scryptsalsa208sha256/pbkdf2-sha256.c:76:9 ]
	movaps	112(%rsp), %xmm0
	movaps	128(%rsp), %xmm1
	movaps	%xmm0, 80(%rsp)
	movaps	%xmm1, 96(%rsp)
.Ltmp34:
	#DEBUG_VALUE: escrypt_PBKDF2_SHA256:j <- 2
	.loc	4 0 10 is_stmt 0                # /usr/include/x86_64-linux-gnu/bits/string_fortified.h:0:10
	cmpq	$2, %r14
.Ltmp35:
	#DEBUG_VALUE: memcpy:__dest <- [DW_OP_plus_uconst 80, DW_OP_stack_value] $rsp
	#DEBUG_VALUE: memcpy:__src <- [DW_OP_plus_uconst 112, DW_OP_stack_value] $rsp
	#DEBUG_VALUE: memcpy:__len <- 32
	.loc	3 78 9 is_stmt 1                # crypto_pwhash/scryptsalsa208sha256/pbkdf2-sha256.c:78:9
	jb	.LBB0_7
.Ltmp36:
# %bb.4:                                # %.lr.ph.preheader
                                        #   in Loop: Header=BB0_3 Depth=1
	#DEBUG_VALUE: escrypt_PBKDF2_SHA256:passwd <- [DW_OP_plus_uconst 16] [$rsp+0]
	#DEBUG_VALUE: escrypt_PBKDF2_SHA256:passwdlen <- [DW_OP_plus_uconst 24] [$rsp+0]
	#DEBUG_VALUE: escrypt_PBKDF2_SHA256:salt <- [DW_OP_LLVM_entry_value 1] $rdx
	#DEBUG_VALUE: escrypt_PBKDF2_SHA256:saltlen <- [DW_OP_LLVM_entry_value 1] $rcx
	#DEBUG_VALUE: escrypt_PBKDF2_SHA256:c <- $r14
	#DEBUG_VALUE: escrypt_PBKDF2_SHA256:buf <- [DW_OP_plus_uconst 8] [$rsp+0]
	#DEBUG_VALUE: escrypt_PBKDF2_SHA256:dkLen <- [DW_OP_plus_uconst 624] [$rsp+0]
	#DEBUG_VALUE: store32_be:w <- [DW_OP_plus_uconst 40, DW_OP_deref_size 8, DW_OP_LLVM_convert 64 7, DW_OP_LLVM_convert 32 7, DW_OP_constu 24, DW_OP_shr, DW_OP_stack_value] $rsp
	#DEBUG_VALUE: store32_be:dst <- [DW_OP_plus_uconst 4, DW_OP_stack_value] $rsp
	#DEBUG_VALUE: memcpy:__dest <- [DW_OP_plus_uconst 144, DW_OP_stack_value] $rsp
	#DEBUG_VALUE: memcpy:__src <- [DW_OP_plus_uconst 352, DW_OP_stack_value] $rsp
	#DEBUG_VALUE: memcpy:__len <- 208
	#DEBUG_VALUE: escrypt_PBKDF2_SHA256:j <- 2
	#DEBUG_VALUE: memcpy:__dest <- [DW_OP_plus_uconst 80, DW_OP_stack_value] $rsp
	#DEBUG_VALUE: memcpy:__src <- [DW_OP_plus_uconst 112, DW_OP_stack_value] $rsp
	#DEBUG_VALUE: memcpy:__len <- 32
	.loc	3 0 9 is_stmt 0                 # crypto_pwhash/scryptsalsa208sha256/pbkdf2-sha256.c:0:9
	movq	%rbp, 32(%rsp)                  # 8-byte Spill
	movaps	80(%rsp), %xmm1
	movaps	96(%rsp), %xmm0
	movl	$2, %r15d
	movq	24(%rsp), %r12                  # 8-byte Reload
	movq	%r14, %rbx
.Ltmp37:
	#DEBUG_VALUE: escrypt_PBKDF2_SHA256:c <- $rbx
	movq	16(%rsp), %r14                  # 8-byte Reload
	leaq	112(%rsp), %rbp
.Ltmp38:
	.p2align	4
.LBB0_5:                                # %.lr.ph
                                        #   Parent Loop BB0_3 Depth=1
                                        # =>  This Inner Loop Header: Depth=2
	#DEBUG_VALUE: escrypt_PBKDF2_SHA256:passwd <- [DW_OP_plus_uconst 16] [$rsp+0]
	#DEBUG_VALUE: escrypt_PBKDF2_SHA256:passwdlen <- [DW_OP_plus_uconst 24] [$rsp+0]
	#DEBUG_VALUE: escrypt_PBKDF2_SHA256:salt <- [DW_OP_LLVM_entry_value 1] $rdx
	#DEBUG_VALUE: escrypt_PBKDF2_SHA256:saltlen <- [DW_OP_LLVM_entry_value 1] $rcx
	#DEBUG_VALUE: escrypt_PBKDF2_SHA256:c <- $rbx
	#DEBUG_VALUE: escrypt_PBKDF2_SHA256:buf <- [DW_OP_plus_uconst 8] [$rsp+0]
	#DEBUG_VALUE: escrypt_PBKDF2_SHA256:dkLen <- [DW_OP_plus_uconst 624] [$rsp+0]
	#DEBUG_VALUE: escrypt_PBKDF2_SHA256:j <- $r15
	movaps	%xmm1, 48(%rsp)                 # 16-byte Spill
	movaps	%xmm0, 64(%rsp)                 # 16-byte Spill
.Ltmp39:
	.loc	3 79 13 is_stmt 1               # crypto_pwhash/scryptsalsa208sha256/pbkdf2-sha256.c:79:13
	movq	%r13, %rdi
	movq	%r14, %rsi
	movq	%r12, %rdx
	callq	crypto_auth_hmacsha256_init@PLT
.Ltmp40:
	.loc	3 80 13                         # crypto_pwhash/scryptsalsa208sha256/pbkdf2-sha256.c:80:13
	movl	$32, %edx
	movq	%r13, %rdi
	movq	%rbp, %rsi
	callq	crypto_auth_hmacsha256_update@PLT
.Ltmp41:
	.loc	3 81 13                         # crypto_pwhash/scryptsalsa208sha256/pbkdf2-sha256.c:81:13
	movq	%r13, %rdi
	movq	%rbp, %rsi
	callq	crypto_auth_hmacsha256_final@PLT
.Ltmp42:
	.loc	3 0 13 is_stmt 0                # crypto_pwhash/scryptsalsa208sha256/pbkdf2-sha256.c:0:13
	movaps	48(%rsp), %xmm1                 # 16-byte Reload
	movaps	64(%rsp), %xmm0                 # 16-byte Reload
.Ltmp43:
	#DEBUG_VALUE: escrypt_PBKDF2_SHA256:k <- 0
	.loc	3 84 22 is_stmt 1               # crypto_pwhash/scryptsalsa208sha256/pbkdf2-sha256.c:84:22
	xorps	112(%rsp), %xmm1
	xorps	128(%rsp), %xmm0
.Ltmp44:
	.loc	3 78 30                         # crypto_pwhash/scryptsalsa208sha256/pbkdf2-sha256.c:78:30
	incq	%r15
.Ltmp45:
	#DEBUG_VALUE: escrypt_PBKDF2_SHA256:j <- $r15
	.loc	3 78 23 is_stmt 0               # crypto_pwhash/scryptsalsa208sha256/pbkdf2-sha256.c:78:23
	cmpq	%rbx, %r15
.Ltmp46:
	.loc	3 78 9                          # crypto_pwhash/scryptsalsa208sha256/pbkdf2-sha256.c:78:9
	jbe	.LBB0_5
	jmp	.LBB0_6
.Ltmp47:
.LBB0_8:                                # %._crit_edge33
	#DEBUG_VALUE: escrypt_PBKDF2_SHA256:passwd <- [DW_OP_plus_uconst 16] [$rsp+0]
	#DEBUG_VALUE: escrypt_PBKDF2_SHA256:passwdlen <- [DW_OP_plus_uconst 24] [$rsp+0]
	#DEBUG_VALUE: escrypt_PBKDF2_SHA256:salt <- [DW_OP_LLVM_entry_value 1] $rdx
	#DEBUG_VALUE: escrypt_PBKDF2_SHA256:saltlen <- [DW_OP_LLVM_entry_value 1] $rcx
	#DEBUG_VALUE: escrypt_PBKDF2_SHA256:c <- $r14
	#DEBUG_VALUE: escrypt_PBKDF2_SHA256:buf <- [DW_OP_LLVM_entry_value 1] $r9
	#DEBUG_VALUE: escrypt_PBKDF2_SHA256:dkLen <- [DW_OP_plus_uconst 624] [$rsp+0]
	.loc	3 0 9                           # crypto_pwhash/scryptsalsa208sha256/pbkdf2-sha256.c:0:9
	leaq	352(%rsp), %rdi
	.loc	3 95 5 is_stmt 1                # crypto_pwhash/scryptsalsa208sha256/pbkdf2-sha256.c:95:5
	movl	$208, %esi
	callq	sodium_memzero@PLT
.Ltmp48:
	.loc	3 96 1                          # crypto_pwhash/scryptsalsa208sha256/pbkdf2-sha256.c:96:1
	movq	%fs:40, %rax
	cmpq	560(%rsp), %rax
	jne	.LBB0_9
.Ltmp49:
# %bb.11:                               # %SP_return
	#DEBUG_VALUE: escrypt_PBKDF2_SHA256:passwd <- [DW_OP_plus_uconst 16] [$rsp+0]
	#DEBUG_VALUE: escrypt_PBKDF2_SHA256:passwdlen <- [DW_OP_plus_uconst 24] [$rsp+0]
	#DEBUG_VALUE: escrypt_PBKDF2_SHA256:salt <- [DW_OP_LLVM_entry_value 1] $rdx
	#DEBUG_VALUE: escrypt_PBKDF2_SHA256:saltlen <- [DW_OP_LLVM_entry_value 1] $rcx
	#DEBUG_VALUE: escrypt_PBKDF2_SHA256:c <- $r14
	#DEBUG_VALUE: escrypt_PBKDF2_SHA256:buf <- [DW_OP_LLVM_entry_value 1] $r9
	#DEBUG_VALUE: escrypt_PBKDF2_SHA256:dkLen <- [DW_OP_plus_uconst 624] [$rsp+0]
	.loc	3 96 1 epilogue_begin is_stmt 0 # crypto_pwhash/scryptsalsa208sha256/pbkdf2-sha256.c:96:1
	addq	$568, %rsp                      # imm = 0x238
	.cfi_def_cfa_offset 56
	popq	%rbx
	.cfi_def_cfa_offset 48
	popq	%r12
	.cfi_def_cfa_offset 40
	popq	%r13
	.cfi_def_cfa_offset 32
	popq	%r14
.Ltmp50:
	#DEBUG_VALUE: escrypt_PBKDF2_SHA256:c <- [DW_OP_LLVM_entry_value 1] $r8
	.cfi_def_cfa_offset 24
	popq	%r15
	.cfi_def_cfa_offset 16
	popq	%rbp
	.cfi_def_cfa_offset 8
	retq
.Ltmp51:
.LBB0_10:
	.cfi_def_cfa_offset 624
	#DEBUG_VALUE: escrypt_PBKDF2_SHA256:passwd <- $rdi
	#DEBUG_VALUE: escrypt_PBKDF2_SHA256:passwdlen <- $rsi
	#DEBUG_VALUE: escrypt_PBKDF2_SHA256:salt <- $rdx
	#DEBUG_VALUE: escrypt_PBKDF2_SHA256:saltlen <- $rcx
	#DEBUG_VALUE: escrypt_PBKDF2_SHA256:c <- $r8
	#DEBUG_VALUE: escrypt_PBKDF2_SHA256:buf <- $r9
	#DEBUG_VALUE: escrypt_PBKDF2_SHA256:dkLen <- [DW_OP_plus_uconst 624] [$rsp+0]
	.loc	3 64 9 is_stmt 1                # crypto_pwhash/scryptsalsa208sha256/pbkdf2-sha256.c:64:9
	callq	sodium_misuse@PLT
.Ltmp52:
	#DEBUG_VALUE: escrypt_PBKDF2_SHA256:buf <- [DW_OP_LLVM_entry_value 1] $r9
	#DEBUG_VALUE: escrypt_PBKDF2_SHA256:c <- [DW_OP_LLVM_entry_value 1] $r8
	#DEBUG_VALUE: escrypt_PBKDF2_SHA256:saltlen <- [DW_OP_LLVM_entry_value 1] $rcx
	#DEBUG_VALUE: escrypt_PBKDF2_SHA256:salt <- [DW_OP_LLVM_entry_value 1] $rdx
	#DEBUG_VALUE: escrypt_PBKDF2_SHA256:passwdlen <- [DW_OP_LLVM_entry_value 1] $rsi
	#DEBUG_VALUE: escrypt_PBKDF2_SHA256:passwd <- [DW_OP_LLVM_entry_value 1] $rdi
.LBB0_9:                                # %CallStackCheckFailBlk
	#DEBUG_VALUE: escrypt_PBKDF2_SHA256:passwd <- [DW_OP_plus_uconst 16] [$rsp+0]
	#DEBUG_VALUE: escrypt_PBKDF2_SHA256:passwdlen <- [DW_OP_plus_uconst 24] [$rsp+0]
	#DEBUG_VALUE: escrypt_PBKDF2_SHA256:salt <- [DW_OP_LLVM_entry_value 1] $rdx
	#DEBUG_VALUE: escrypt_PBKDF2_SHA256:saltlen <- [DW_OP_LLVM_entry_value 1] $rcx
	#DEBUG_VALUE: escrypt_PBKDF2_SHA256:c <- $r14
	#DEBUG_VALUE: escrypt_PBKDF2_SHA256:buf <- [DW_OP_LLVM_entry_value 1] $r9
	#DEBUG_VALUE: escrypt_PBKDF2_SHA256:dkLen <- [DW_OP_plus_uconst 624] [$rsp+0]
	.loc	3 0 0 is_stmt 0                 # crypto_pwhash/scryptsalsa208sha256/pbkdf2-sha256.c:0
	callq	__stack_chk_fail@PLT
.Ltmp53:
.Lfunc_end0:
	.size	escrypt_PBKDF2_SHA256, .Lfunc_end0-escrypt_PBKDF2_SHA256
	.cfi_endproc
	.file	6 "/home/leizhenyuu/opt/Anonymous_Repo" "llvm-project/build/lib/clang/21/include/__stddef_size_t.h"
	.file	7 "./include/sodium" "crypto_auth_hmacsha256.h"
	.file	8 "./include/sodium" "crypto_hash_sha256.h"
	.file	9 "./include/sodium" "utils.h"
	.file	10 "./include/sodium" "core.h"
                                        # -- End function
	.section	".note.GNU-stack","",@progbits
	.addrsig
	.addrsig_sym __stack_chk_fail