	.file	"poly1305_donna.c"
	.file	0 "/home/leizhenyuu/opt/Anonymous_Repo/libsodium_o2_attr_inline/src/libsodium" "poly1305_donna.c" md5 0xc82763f7f229c7daec27af361db11b5c
	.file	1 "crypto_onetimeauth/poly1305/donna/.." "onetimeauth_poly1305.h"
	.file	2 "./include/sodium" "crypto_onetimeauth_poly1305.h"
	.file	3 "crypto_onetimeauth/poly1305/donna" "poly1305_donna.c"
	.file	4 "./include/sodium/private" "common.h"
	.file	5 "crypto_onetimeauth/poly1305/donna" "poly1305_donna64.h"
	.text
	.p2align	4                               # -- Begin function crypto_onetimeauth_poly1305_donna
	.type	crypto_onetimeauth_poly1305_donna,@function
crypto_onetimeauth_poly1305_donna:      # @crypto_onetimeauth_poly1305_donna
.Lfunc_begin0:
	.loc	3 62 0                          # crypto_onetimeauth/poly1305/donna/poly1305_donna.c:62:0
	.cfi_startproc
# %bb.0:
	#DEBUG_VALUE: crypto_onetimeauth_poly1305_donna:out <- $rdi
	#DEBUG_VALUE: crypto_onetimeauth_poly1305_donna:m <- $rsi
	#DEBUG_VALUE: crypto_onetimeauth_poly1305_donna:inlen <- $rdx
	#DEBUG_VALUE: crypto_onetimeauth_poly1305_donna:key <- $rcx
	pushq	%rbp
	.cfi_def_cfa_offset 16
	.cfi_offset %rbp, -16
	movq	%rsp, %rbp
	.cfi_def_cfa_register %rbp
	pushq	%r14
	pushq	%rbx
	andq	$-64, %rsp
	subq	$192, %rsp
	.cfi_offset %rbx, -32
	.cfi_offset %r14, -24
	movq	%rdi, %rbx
	movq	%fs:40, %rax
	movq	%rax, 152(%rsp)
.Ltmp0:
	#DEBUG_VALUE: crypto_onetimeauth_poly1305_donna:state <- [DW_OP_deref] $rsp
	#DEBUG_VALUE: poly1305_init:st <- $rsp
	#DEBUG_VALUE: poly1305_init:key <- $rcx
	#DEBUG_VALUE: load64_le:src <- $rcx
	#DEBUG_VALUE: memcpy:__src <- $rcx
	#DEBUG_VALUE: memcpy:__len <- 8
	.file	6 "/usr/include/x86_64-linux-gnu/bits" "string_fortified.h"
	.loc	6 29 10 prologue_end            # /usr/include/x86_64-linux-gnu/bits/string_fortified.h:29:10 @[ ./include/sodium/private/common.h:67:5 @[ crypto_onetimeauth/poly1305/donna/poly1305_donna64.h:40:10 @[ crypto_onetimeauth/poly1305/donna/poly1305_donna.c:65:5 ] ] ]
	movq	(%rcx), %rax
.Ltmp1:
	#DEBUG_VALUE: poly1305_init:t0 <- $rax
	#DEBUG_VALUE: memcpy:__len <- 8
	#DEBUG_VALUE: load64_le:src <- [DW_OP_plus_uconst 8, DW_OP_stack_value] $rcx
	#DEBUG_VALUE: memcpy:__src <- [DW_OP_plus_uconst 8, DW_OP_stack_value] $rcx
	.loc	6 29 10 is_stmt 0               # /usr/include/x86_64-linux-gnu/bits/string_fortified.h:29:10 @[ ./include/sodium/private/common.h:67:5 @[ crypto_onetimeauth/poly1305/donna/poly1305_donna64.h:41:10 @[ crypto_onetimeauth/poly1305/donna/poly1305_donna.c:65:5 ] ] ]
	movq	8(%rcx), %rdi
.Ltmp2:
	#DEBUG_VALUE: crypto_onetimeauth_poly1305_donna:out <- $rbx
	#DEBUG_VALUE: poly1305_init:t1 <- $rdi
	.loc	6 0 10                          # /usr/include/x86_64-linux-gnu/bits/string_fortified.h:0:10
	movabsq	$17575274610687, %r8            # imm = 0xFFC0FFFFFFF
.Ltmp3:
	.loc	5 44 21 is_stmt 1               # crypto_onetimeauth/poly1305/donna/poly1305_donna64.h:44:21 @[ crypto_onetimeauth/poly1305/donna/poly1305_donna.c:65:5 ]
	andq	%rax, %r8
	.loc	5 44 14 is_stmt 0               # crypto_onetimeauth/poly1305/donna/poly1305_donna64.h:44:14 @[ crypto_onetimeauth/poly1305/donna/poly1305_donna.c:65:5 ]
	movq	%r8, (%rsp)
	.loc	5 45 28 is_stmt 1               # crypto_onetimeauth/poly1305/donna/poly1305_donna64.h:45:28 @[ crypto_onetimeauth/poly1305/donna/poly1305_donna.c:65:5 ]
	shrdq	$44, %rdi, %rax
.Ltmp4:
	.loc	5 0 28 is_stmt 0                # crypto_onetimeauth/poly1305/donna/poly1305_donna64.h:0:28
	movabsq	$17592181915647, %r8            # imm = 0xFFFFFC0FFFF
	.loc	5 45 42                         # crypto_onetimeauth/poly1305/donna/poly1305_donna64.h:45:42 @[ crypto_onetimeauth/poly1305/donna/poly1305_donna.c:65:5 ]
	andq	%rax, %r8
	.loc	5 45 14                         # crypto_onetimeauth/poly1305/donna/poly1305_donna64.h:45:14 @[ crypto_onetimeauth/poly1305/donna/poly1305_donna.c:65:5 ]
	movq	%r8, 8(%rsp)
	.loc	5 46 21 is_stmt 1               # crypto_onetimeauth/poly1305/donna/poly1305_donna64.h:46:21 @[ crypto_onetimeauth/poly1305/donna/poly1305_donna.c:65:5 ]
	shrq	$24, %rdi
.Ltmp5:
	.loc	5 0 21 is_stmt 0                # crypto_onetimeauth/poly1305/donna/poly1305_donna64.h:0:21
	movabsq	$68719475727, %rax              # imm = 0xFFFFFFC0F
	.loc	5 46 29                         # crypto_onetimeauth/poly1305/donna/poly1305_donna64.h:46:29 @[ crypto_onetimeauth/poly1305/donna/poly1305_donna.c:65:5 ]
	andq	%rdi, %rax
	.loc	5 46 14                         # crypto_onetimeauth/poly1305/donna/poly1305_donna64.h:46:14 @[ crypto_onetimeauth/poly1305/donna/poly1305_donna.c:65:5 ]
	movq	%rax, 16(%rsp)
.Ltmp6:
	#DEBUG_VALUE: memcpy:__len <- 8
	#DEBUG_VALUE: load64_le:src <- [DW_OP_plus_uconst 16, DW_OP_stack_value] $rcx
	#DEBUG_VALUE: memcpy:__src <- [DW_OP_plus_uconst 16, DW_OP_stack_value] $rcx
	.loc	5 50 14 is_stmt 1               # crypto_onetimeauth/poly1305/donna/poly1305_donna64.h:50:14 @[ crypto_onetimeauth/poly1305/donna/poly1305_donna.c:65:5 ]
	xorps	%xmm0, %xmm0
	movups	%xmm0, 24(%rsp)
	movq	$0, 40(%rsp)
.Ltmp7:
	#DEBUG_VALUE: crypto_onetimeauth_poly1305_donna:state <- [DW_OP_LLVM_fragment 384 64] undef
	#DEBUG_VALUE: crypto_onetimeauth_poly1305_donna:state <- [DW_OP_deref, DW_OP_LLVM_fragment 0 384] $rsp
	#DEBUG_VALUE: crypto_onetimeauth_poly1305_donna:state <- [DW_OP_plus_uconst 56, DW_OP_deref, DW_OP_LLVM_fragment 448 320] $rsp
	#DEBUG_VALUE: memcpy:__len <- 8
	.loc	6 29 10                         # /usr/include/x86_64-linux-gnu/bits/string_fortified.h:29:10 @[ ./include/sodium/private/common.h:67:5 @[ crypto_onetimeauth/poly1305/donna/poly1305_donna64.h:54:18 @[ crypto_onetimeauth/poly1305/donna/poly1305_donna.c:65:5 ] ] ]
	movups	16(%rcx), %xmm0
.Ltmp8:
	.loc	5 54 16                         # crypto_onetimeauth/poly1305/donna/poly1305_donna64.h:54:16 @[ crypto_onetimeauth/poly1305/donna/poly1305_donna.c:65:5 ]
	movaps	%xmm0, 48(%rsp)
.Ltmp9:
	#DEBUG_VALUE: crypto_onetimeauth_poly1305_donna:state <- [DW_OP_deref] $rsp
	.loc	5 57 18                         # crypto_onetimeauth/poly1305/donna/poly1305_donna64.h:57:18 @[ crypto_onetimeauth/poly1305/donna/poly1305_donna.c:65:5 ]
	movq	$0, 64(%rsp)
	.loc	5 58 15                         # crypto_onetimeauth/poly1305/donna/poly1305_donna64.h:58:15 @[ crypto_onetimeauth/poly1305/donna/poly1305_donna.c:65:5 ]
	movb	$0, 88(%rsp)
	movq	%rsp, %r14
.Ltmp10:
	.loc	3 66 5                          # crypto_onetimeauth/poly1305/donna/poly1305_donna.c:66:5
	movq	%r14, %rdi
	callq	poly1305_update
.Ltmp11:
	#DEBUG_VALUE: crypto_onetimeauth_poly1305_donna:key <- [DW_OP_LLVM_entry_value 1] $rcx
	#DEBUG_VALUE: crypto_onetimeauth_poly1305_donna:inlen <- [DW_OP_LLVM_entry_value 1] $rdx
	#DEBUG_VALUE: crypto_onetimeauth_poly1305_donna:m <- [DW_OP_LLVM_entry_value 1] $rsi
	.loc	3 67 5                          # crypto_onetimeauth/poly1305/donna/poly1305_donna.c:67:5
	movq	%r14, %rdi
	movq	%rbx, %rsi
	callq	poly1305_finish
.Ltmp12:
	.loc	3 69 5                          # crypto_onetimeauth/poly1305/donna/poly1305_donna.c:69:5
	movq	%fs:40, %rax
	cmpq	152(%rsp), %rax
	jne	.LBB0_2
.Ltmp13:
# %bb.1:                                # %SP_return
	#DEBUG_VALUE: crypto_onetimeauth_poly1305_donna:out <- $rbx
	#DEBUG_VALUE: crypto_onetimeauth_poly1305_donna:m <- [DW_OP_LLVM_entry_value 1] $rsi
	#DEBUG_VALUE: crypto_onetimeauth_poly1305_donna:inlen <- [DW_OP_LLVM_entry_value 1] $rdx
	#DEBUG_VALUE: crypto_onetimeauth_poly1305_donna:key <- [DW_OP_LLVM_entry_value 1] $rcx
	#DEBUG_VALUE: crypto_onetimeauth_poly1305_donna:state <- [DW_OP_deref] $r14
	xorl	%eax, %eax
	leaq	-16(%rbp), %rsp
	.loc	3 69 5 epilogue_begin is_stmt 0 # crypto_onetimeauth/poly1305/donna/poly1305_donna.c:69:5
	popq	%rbx
.Ltmp14:
	#DEBUG_VALUE: crypto_onetimeauth_poly1305_donna:out <- [DW_OP_LLVM_entry_value 1] $rdi
	popq	%r14
.Ltmp15:
	popq	%rbp
	.cfi_def_cfa %rsp, 8
	retq
.Ltmp16:
.LBB0_2:                                # %CallStackCheckFailBlk
	.cfi_def_cfa %rbp, 16
	#DEBUG_VALUE: crypto_onetimeauth_poly1305_donna:out <- $rbx
	#DEBUG_VALUE: crypto_onetimeauth_poly1305_donna:m <- [DW_OP_LLVM_entry_value 1] $rsi
	#DEBUG_VALUE: crypto_onetimeauth_poly1305_donna:inlen <- [DW_OP_LLVM_entry_value 1] $rdx
	#DEBUG_VALUE: crypto_onetimeauth_poly1305_donna:key <- [DW_OP_LLVM_entry_value 1] $rcx
	#DEBUG_VALUE: crypto_onetimeauth_poly1305_donna:state <- [DW_OP_deref] $r14
	#DEBUG_VALUE: poly1305_init:st <- $r14
	#DEBUG_VALUE: memcpy:__len <- 8
	#DEBUG_VALUE: memcpy:__len <- 8
	#DEBUG_VALUE: memcpy:__len <- 8
	.loc	3 0 0                           # crypto_onetimeauth/poly1305/donna/poly1305_donna.c:0
	callq	__stack_chk_fail@PLT
.Ltmp17:
.Lfunc_end0:
	.size	crypto_onetimeauth_poly1305_donna, .Lfunc_end0-crypto_onetimeauth_poly1305_donna
	.cfi_endproc
	.file	7 "/home/leizhenyuu/opt/Anonymous_Repo" "llvm-project/build/lib/clang/21/include/__stddef_size_t.h"
	.file	8 "/usr/include/x86_64-linux-gnu/bits" "types.h"
	.file	9 "/usr/include/x86_64-linux-gnu/bits" "stdint-uintn.h"
                                        # -- End function
	.p2align	4                               # -- Begin function crypto_onetimeauth_poly1305_donna_verify
	.type	crypto_onetimeauth_poly1305_donna_verify,@function
crypto_onetimeauth_poly1305_donna_verify: # @crypto_onetimeauth_poly1305_donna_verify
.Lfunc_begin1:
	.loc	3 107 0 is_stmt 1               # crypto_onetimeauth/poly1305/donna/poly1305_donna.c:107:0
	.cfi_startproc
# %bb.0:
	#DEBUG_VALUE: crypto_onetimeauth_poly1305_donna_verify:h <- $rdi
	#DEBUG_VALUE: crypto_onetimeauth_poly1305_donna_verify:in <- $rsi
	#DEBUG_VALUE: crypto_onetimeauth_poly1305_donna_verify:inlen <- $rdx
	#DEBUG_VALUE: crypto_onetimeauth_poly1305_donna_verify:k <- $rcx
	pushq	%rbp
	.cfi_def_cfa_offset 16
	.cfi_offset %rbp, -16
	movq	%rsp, %rbp
	.cfi_def_cfa_register %rbp
	pushq	%r15
	pushq	%r14
	pushq	%rbx
	andq	$-64, %rsp
	subq	$256, %rsp                      # imm = 0x100
	.cfi_offset %rbx, -40
	.cfi_offset %r14, -32
	.cfi_offset %r15, -24
	movq	%rdi, %rbx
	movq	%fs:40, %rax
	movq	%rax, 208(%rsp)
.Ltmp18:
	#DEBUG_VALUE: crypto_onetimeauth_poly1305_donna:state <- [DW_OP_plus_uconst 64, DW_OP_deref] $rsp
	#DEBUG_VALUE: crypto_onetimeauth_poly1305_donna:out <- [DW_OP_plus_uconst 48, DW_OP_stack_value] $rsp
	#DEBUG_VALUE: crypto_onetimeauth_poly1305_donna:m <- $rsi
	#DEBUG_VALUE: crypto_onetimeauth_poly1305_donna:inlen <- $rdx
	#DEBUG_VALUE: crypto_onetimeauth_poly1305_donna:key <- $rcx
	#DEBUG_VALUE: poly1305_init:st <- [DW_OP_plus_uconst 64, DW_OP_stack_value] $rsp
	#DEBUG_VALUE: poly1305_init:key <- $rcx
	#DEBUG_VALUE: load64_le:src <- $rcx
	#DEBUG_VALUE: memcpy:__src <- $rcx
	#DEBUG_VALUE: memcpy:__len <- 8
	.loc	6 29 10 prologue_end            # /usr/include/x86_64-linux-gnu/bits/string_fortified.h:29:10 @[ ./include/sodium/private/common.h:67:5 @[ crypto_onetimeauth/poly1305/donna/poly1305_donna64.h:40:10 @[ crypto_onetimeauth/poly1305/donna/poly1305_donna.c:65:5 @[ crypto_onetimeauth/poly1305/donna/poly1305_donna.c:110:5 ] ] ] ]
	movq	(%rcx), %rax
.Ltmp19:
	#DEBUG_VALUE: poly1305_init:t0 <- $rax
	#DEBUG_VALUE: memcpy:__len <- 8
	#DEBUG_VALUE: load64_le:src <- [DW_OP_plus_uconst 8, DW_OP_stack_value] $rcx
	#DEBUG_VALUE: memcpy:__src <- [DW_OP_plus_uconst 8, DW_OP_stack_value] $rcx
	.loc	6 29 10 is_stmt 0               # /usr/include/x86_64-linux-gnu/bits/string_fortified.h:29:10 @[ ./include/sodium/private/common.h:67:5 @[ crypto_onetimeauth/poly1305/donna/poly1305_donna64.h:41:10 @[ crypto_onetimeauth/poly1305/donna/poly1305_donna.c:65:5 @[ crypto_onetimeauth/poly1305/donna/poly1305_donna.c:110:5 ] ] ] ]
	movq	8(%rcx), %rdi
.Ltmp20:
	#DEBUG_VALUE: crypto_onetimeauth_poly1305_donna_verify:h <- $rbx
	#DEBUG_VALUE: poly1305_init:t1 <- $rdi
	.loc	6 0 10                          # /usr/include/x86_64-linux-gnu/bits/string_fortified.h:0:10
	movabsq	$17575274610687, %r8            # imm = 0xFFC0FFFFFFF
.Ltmp21:
	.loc	5 44 21 is_stmt 1               # crypto_onetimeauth/poly1305/donna/poly1305_donna64.h:44:21 @[ crypto_onetimeauth/poly1305/donna/poly1305_donna.c:65:5 @[ crypto_onetimeauth/poly1305/donna/poly1305_donna.c:110:5 ] ]
	andq	%rax, %r8
	.loc	5 44 14 is_stmt 0               # crypto_onetimeauth/poly1305/donna/poly1305_donna64.h:44:14 @[ crypto_onetimeauth/poly1305/donna/poly1305_donna.c:65:5 @[ crypto_onetimeauth/poly1305/donna/poly1305_donna.c:110:5 ] ]
	movq	%r8, 64(%rsp)
	.loc	5 45 28 is_stmt 1               # crypto_onetimeauth/poly1305/donna/poly1305_donna64.h:45:28 @[ crypto_onetimeauth/poly1305/donna/poly1305_donna.c:65:5 @[ crypto_onetimeauth/poly1305/donna/poly1305_donna.c:110:5 ] ]
	shrdq	$44, %rdi, %rax
.Ltmp22:
	.loc	5 0 28 is_stmt 0                # crypto_onetimeauth/poly1305/donna/poly1305_donna64.h:0:28
	movabsq	$17592181915647, %r8            # imm = 0xFFFFFC0FFFF
	.loc	5 45 42                         # crypto_onetimeauth/poly1305/donna/poly1305_donna64.h:45:42 @[ crypto_onetimeauth/poly1305/donna/poly1305_donna.c:65:5 @[ crypto_onetimeauth/poly1305/donna/poly1305_donna.c:110:5 ] ]
	andq	%rax, %r8
	.loc	5 45 14                         # crypto_onetimeauth/poly1305/donna/poly1305_donna64.h:45:14 @[ crypto_onetimeauth/poly1305/donna/poly1305_donna.c:65:5 @[ crypto_onetimeauth/poly1305/donna/poly1305_donna.c:110:5 ] ]
	movq	%r8, 72(%rsp)
	.loc	5 46 21 is_stmt 1               # crypto_onetimeauth/poly1305/donna/poly1305_donna64.h:46:21 @[ crypto_onetimeauth/poly1305/donna/poly1305_donna.c:65:5 @[ crypto_onetimeauth/poly1305/donna/poly1305_donna.c:110:5 ] ]
	shrq	$24, %rdi
.Ltmp23:
	.loc	5 0 21 is_stmt 0                # crypto_onetimeauth/poly1305/donna/poly1305_donna64.h:0:21
	movabsq	$68719475727, %rax              # imm = 0xFFFFFFC0F
	.loc	5 46 29                         # crypto_onetimeauth/poly1305/donna/poly1305_donna64.h:46:29 @[ crypto_onetimeauth/poly1305/donna/poly1305_donna.c:65:5 @[ crypto_onetimeauth/poly1305/donna/poly1305_donna.c:110:5 ] ]
	andq	%rdi, %rax
	.loc	5 46 14                         # crypto_onetimeauth/poly1305/donna/poly1305_donna64.h:46:14 @[ crypto_onetimeauth/poly1305/donna/poly1305_donna.c:65:5 @[ crypto_onetimeauth/poly1305/donna/poly1305_donna.c:110:5 ] ]
	movq	%rax, 80(%rsp)
.Ltmp24:
	#DEBUG_VALUE: memcpy:__len <- 8
	#DEBUG_VALUE: load64_le:src <- [DW_OP_plus_uconst 16, DW_OP_stack_value] $rcx
	#DEBUG_VALUE: memcpy:__src <- [DW_OP_plus_uconst 16, DW_OP_stack_value] $rcx
	.loc	5 50 14 is_stmt 1               # crypto_onetimeauth/poly1305/donna/poly1305_donna64.h:50:14 @[ crypto_onetimeauth/poly1305/donna/poly1305_donna.c:65:5 @[ crypto_onetimeauth/poly1305/donna/poly1305_donna.c:110:5 ] ]
	xorps	%xmm0, %xmm0
	movups	%xmm0, 88(%rsp)
	movq	$0, 104(%rsp)
.Ltmp25:
	#DEBUG_VALUE: crypto_onetimeauth_poly1305_donna:state <- [DW_OP_LLVM_fragment 384 64] undef
	#DEBUG_VALUE: crypto_onetimeauth_poly1305_donna:state <- [DW_OP_plus_uconst 64, DW_OP_deref, DW_OP_LLVM_fragment 0 384] $rsp
	#DEBUG_VALUE: crypto_onetimeauth_poly1305_donna:state <- [DW_OP_plus_uconst 64, DW_OP_plus_uconst 56, DW_OP_deref, DW_OP_LLVM_fragment 448 320] $rsp
	#DEBUG_VALUE: memcpy:__len <- 8
	.loc	6 29 10                         # /usr/include/x86_64-linux-gnu/bits/string_fortified.h:29:10 @[ ./include/sodium/private/common.h:67:5 @[ crypto_onetimeauth/poly1305/donna/poly1305_donna64.h:54:18 @[ crypto_onetimeauth/poly1305/donna/poly1305_donna.c:65:5 @[ crypto_onetimeauth/poly1305/donna/poly1305_donna.c:110:5 ] ] ] ]
	movups	16(%rcx), %xmm0
.Ltmp26:
	.loc	5 54 16                         # crypto_onetimeauth/poly1305/donna/poly1305_donna64.h:54:16 @[ crypto_onetimeauth/poly1305/donna/poly1305_donna.c:65:5 @[ crypto_onetimeauth/poly1305/donna/poly1305_donna.c:110:5 ] ]
	movaps	%xmm0, 112(%rsp)
.Ltmp27:
	#DEBUG_VALUE: crypto_onetimeauth_poly1305_donna:state <- [DW_OP_plus_uconst 64, DW_OP_deref] $rsp
	.loc	5 57 18                         # crypto_onetimeauth/poly1305/donna/poly1305_donna64.h:57:18 @[ crypto_onetimeauth/poly1305/donna/poly1305_donna.c:65:5 @[ crypto_onetimeauth/poly1305/donna/poly1305_donna.c:110:5 ] ]
	movq	$0, 128(%rsp)
	.loc	5 58 15                         # crypto_onetimeauth/poly1305/donna/poly1305_donna64.h:58:15 @[ crypto_onetimeauth/poly1305/donna/poly1305_donna.c:65:5 @[ crypto_onetimeauth/poly1305/donna/poly1305_donna.c:110:5 ] ]
	movb	$0, 152(%rsp)
	leaq	64(%rsp), %r14
.Ltmp28:
	.loc	3 66 5                          # crypto_onetimeauth/poly1305/donna/poly1305_donna.c:66:5 @[ crypto_onetimeauth/poly1305/donna/poly1305_donna.c:110:5 ]
	movq	%r14, %rdi
	callq	poly1305_update
.Ltmp29:
	#DEBUG_VALUE: crypto_onetimeauth_poly1305_donna_verify:k <- [DW_OP_LLVM_entry_value 1] $rcx
	#DEBUG_VALUE: crypto_onetimeauth_poly1305_donna_verify:inlen <- [DW_OP_LLVM_entry_value 1] $rdx
	#DEBUG_VALUE: crypto_onetimeauth_poly1305_donna_verify:in <- [DW_OP_LLVM_entry_value 1] $rsi
	.loc	3 0 5 is_stmt 0                 # crypto_onetimeauth/poly1305/donna/poly1305_donna.c:0:5
	leaq	48(%rsp), %r15
	.loc	3 67 5 is_stmt 1                # crypto_onetimeauth/poly1305/donna/poly1305_donna.c:67:5 @[ crypto_onetimeauth/poly1305/donna/poly1305_donna.c:110:5 ]
	movq	%r14, %rdi
	movq	%r15, %rsi
	callq	poly1305_finish
.Ltmp30:
	.loc	3 112 12                        # crypto_onetimeauth/poly1305/donna/poly1305_donna.c:112:12
	movq	%rbx, %rdi
	movq	%r15, %rsi
	callq	crypto_verify_16@PLT
.Ltmp31:
	.loc	3 112 5 is_stmt 0               # crypto_onetimeauth/poly1305/donna/poly1305_donna.c:112:5
	movq	%fs:40, %rcx
	cmpq	208(%rsp), %rcx
	jne	.LBB1_2
.Ltmp32:
# %bb.1:                                # %SP_return
	#DEBUG_VALUE: crypto_onetimeauth_poly1305_donna_verify:h <- $rbx
	#DEBUG_VALUE: crypto_onetimeauth_poly1305_donna_verify:in <- [DW_OP_LLVM_entry_value 1] $rsi
	#DEBUG_VALUE: crypto_onetimeauth_poly1305_donna_verify:inlen <- [DW_OP_LLVM_entry_value 1] $rdx
	#DEBUG_VALUE: crypto_onetimeauth_poly1305_donna_verify:k <- [DW_OP_LLVM_entry_value 1] $rcx
	leaq	-24(%rbp), %rsp
	.loc	3 112 5 epilogue_begin          # crypto_onetimeauth/poly1305/donna/poly1305_donna.c:112:5
	popq	%rbx
.Ltmp33:
	#DEBUG_VALUE: crypto_onetimeauth_poly1305_donna_verify:h <- [DW_OP_LLVM_entry_value 1] $rdi
	popq	%r14
	popq	%r15
	popq	%rbp
	.cfi_def_cfa %rsp, 8
	retq
.Ltmp34:
.LBB1_2:                                # %CallStackCheckFailBlk
	.cfi_def_cfa %rbp, 16
	#DEBUG_VALUE: crypto_onetimeauth_poly1305_donna_verify:h <- $rbx
	#DEBUG_VALUE: crypto_onetimeauth_poly1305_donna_verify:in <- [DW_OP_LLVM_entry_value 1] $rsi
	#DEBUG_VALUE: crypto_onetimeauth_poly1305_donna_verify:inlen <- [DW_OP_LLVM_entry_value 1] $rdx
	#DEBUG_VALUE: crypto_onetimeauth_poly1305_donna_verify:k <- [DW_OP_LLVM_entry_value 1] $rcx
	#DEBUG_VALUE: crypto_onetimeauth_poly1305_donna:state <- [DW_OP_plus_uconst 64, DW_OP_deref] $rsp
	#DEBUG_VALUE: crypto_onetimeauth_poly1305_donna:out <- [DW_OP_plus_uconst 48, DW_OP_stack_value] $rsp
	#DEBUG_VALUE: poly1305_init:st <- [DW_OP_plus_uconst 64, DW_OP_stack_value] $rsp
	#DEBUG_VALUE: memcpy:__len <- 8
	#DEBUG_VALUE: memcpy:__len <- 8
	#DEBUG_VALUE: memcpy:__len <- 8
	.loc	3 0 0                           # crypto_onetimeauth/poly1305/donna/poly1305_donna.c:0
	callq	__stack_chk_fail@PLT
.Ltmp35:
.Lfunc_end1:
	.size	crypto_onetimeauth_poly1305_donna_verify, .Lfunc_end1-crypto_onetimeauth_poly1305_donna_verify
	.cfi_endproc
	.file	10 "./include/sodium" "crypto_verify_16.h"
                                        # -- End function
	.p2align	4                               # -- Begin function crypto_onetimeauth_poly1305_donna_init
	.type	crypto_onetimeauth_poly1305_donna_init,@function
crypto_onetimeauth_poly1305_donna_init: # @crypto_onetimeauth_poly1305_donna_init
.Lfunc_begin2:
	.cfi_startproc
# %bb.0:
	#DEBUG_VALUE: crypto_onetimeauth_poly1305_donna_init:state <- $rdi
	#DEBUG_VALUE: crypto_onetimeauth_poly1305_donna_init:key <- $rsi
	#DEBUG_VALUE: poly1305_init:st <- $rdi
	#DEBUG_VALUE: poly1305_init:key <- $rsi
	#DEBUG_VALUE: load64_le:src <- $rsi
	#DEBUG_VALUE: memcpy:__src <- $rsi
	#DEBUG_VALUE: memcpy:__len <- 8
	.loc	6 29 10 prologue_end is_stmt 1  # /usr/include/x86_64-linux-gnu/bits/string_fortified.h:29:10 @[ ./include/sodium/private/common.h:67:5 @[ crypto_onetimeauth/poly1305/donna/poly1305_donna64.h:40:10 @[ crypto_onetimeauth/poly1305/donna/poly1305_donna.c:78:5 ] ] ]
	movq	(%rsi), %rax
.Ltmp36:
	#DEBUG_VALUE: poly1305_init:t0 <- $rax
	#DEBUG_VALUE: memcpy:__len <- 8
	#DEBUG_VALUE: load64_le:src <- [DW_OP_plus_uconst 8, DW_OP_stack_value] $rsi
	#DEBUG_VALUE: memcpy:__src <- [DW_OP_plus_uconst 8, DW_OP_stack_value] $rsi
	.loc	6 29 10 is_stmt 0               # /usr/include/x86_64-linux-gnu/bits/string_fortified.h:29:10 @[ ./include/sodium/private/common.h:67:5 @[ crypto_onetimeauth/poly1305/donna/poly1305_donna64.h:41:10 @[ crypto_onetimeauth/poly1305/donna/poly1305_donna.c:78:5 ] ] ]
	movq	8(%rsi), %rcx
.Ltmp37:
	#DEBUG_VALUE: poly1305_init:t1 <- $rcx
	.loc	6 0 10                          # /usr/include/x86_64-linux-gnu/bits/string_fortified.h:0:10
	movabsq	$17575274610687, %rdx           # imm = 0xFFC0FFFFFFF
.Ltmp38:
	.loc	5 44 21 is_stmt 1               # crypto_onetimeauth/poly1305/donna/poly1305_donna64.h:44:21 @[ crypto_onetimeauth/poly1305/donna/poly1305_donna.c:78:5 ]
	andq	%rax, %rdx
	.loc	5 44 14 is_stmt 0               # crypto_onetimeauth/poly1305/donna/poly1305_donna64.h:44:14 @[ crypto_onetimeauth/poly1305/donna/poly1305_donna.c:78:5 ]
	movq	%rdx, (%rdi)
	.loc	5 45 28 is_stmt 1               # crypto_onetimeauth/poly1305/donna/poly1305_donna64.h:45:28 @[ crypto_onetimeauth/poly1305/donna/poly1305_donna.c:78:5 ]
	shrdq	$44, %rcx, %rax
.Ltmp39:
	.loc	5 0 28 is_stmt 0                # crypto_onetimeauth/poly1305/donna/poly1305_donna64.h:0:28
	movabsq	$17592181915647, %rdx           # imm = 0xFFFFFC0FFFF
	.loc	5 45 42                         # crypto_onetimeauth/poly1305/donna/poly1305_donna64.h:45:42 @[ crypto_onetimeauth/poly1305/donna/poly1305_donna.c:78:5 ]
	andq	%rax, %rdx
	.loc	5 45 14                         # crypto_onetimeauth/poly1305/donna/poly1305_donna64.h:45:14 @[ crypto_onetimeauth/poly1305/donna/poly1305_donna.c:78:5 ]
	movq	%rdx, 8(%rdi)
	.loc	5 46 21 is_stmt 1               # crypto_onetimeauth/poly1305/donna/poly1305_donna64.h:46:21 @[ crypto_onetimeauth/poly1305/donna/poly1305_donna.c:78:5 ]
	shrq	$24, %rcx
.Ltmp40:
	.loc	5 0 21 is_stmt 0                # crypto_onetimeauth/poly1305/donna/poly1305_donna64.h:0:21
	movabsq	$68719475727, %rax              # imm = 0xFFFFFFC0F
	.loc	5 46 29                         # crypto_onetimeauth/poly1305/donna/poly1305_donna64.h:46:29 @[ crypto_onetimeauth/poly1305/donna/poly1305_donna.c:78:5 ]
	andq	%rcx, %rax
	.loc	5 46 14                         # crypto_onetimeauth/poly1305/donna/poly1305_donna64.h:46:14 @[ crypto_onetimeauth/poly1305/donna/poly1305_donna.c:78:5 ]
	movq	%rax, 16(%rdi)
.Ltmp41:
	#DEBUG_VALUE: memcpy:__len <- 8
	#DEBUG_VALUE: load64_le:src <- [DW_OP_plus_uconst 16, DW_OP_stack_value] $rsi
	#DEBUG_VALUE: memcpy:__src <- [DW_OP_plus_uconst 16, DW_OP_stack_value] $rsi
	.loc	5 50 14 is_stmt 1               # crypto_onetimeauth/poly1305/donna/poly1305_donna64.h:50:14 @[ crypto_onetimeauth/poly1305/donna/poly1305_donna.c:78:5 ]
	xorps	%xmm0, %xmm0
	movups	%xmm0, 24(%rdi)
	movq	$0, 40(%rdi)
.Ltmp42:
	.loc	6 29 10                         # /usr/include/x86_64-linux-gnu/bits/string_fortified.h:29:10 @[ ./include/sodium/private/common.h:67:5 @[ crypto_onetimeauth/poly1305/donna/poly1305_donna64.h:54:18 @[ crypto_onetimeauth/poly1305/donna/poly1305_donna.c:78:5 ] ] ]
	movq	16(%rsi), %rax
.Ltmp43:
	.loc	5 54 16                         # crypto_onetimeauth/poly1305/donna/poly1305_donna64.h:54:16 @[ crypto_onetimeauth/poly1305/donna/poly1305_donna.c:78:5 ]
	movq	%rax, 48(%rdi)
.Ltmp44:
	#DEBUG_VALUE: memcpy:__len <- 8
	#DEBUG_VALUE: load64_le:src <- [DW_OP_plus_uconst 24, DW_OP_stack_value] $rsi
	#DEBUG_VALUE: memcpy:__src <- [DW_OP_plus_uconst 24, DW_OP_stack_value] $rsi
	.loc	6 29 10                         # /usr/include/x86_64-linux-gnu/bits/string_fortified.h:29:10 @[ ./include/sodium/private/common.h:67:5 @[ crypto_onetimeauth/poly1305/donna/poly1305_donna64.h:55:18 @[ crypto_onetimeauth/poly1305/donna/poly1305_donna.c:78:5 ] ] ]
	movq	24(%rsi), %rax
.Ltmp45:
	.loc	5 55 16                         # crypto_onetimeauth/poly1305/donna/poly1305_donna64.h:55:16 @[ crypto_onetimeauth/poly1305/donna/poly1305_donna.c:78:5 ]
	movq	%rax, 56(%rdi)
	.loc	5 57 18                         # crypto_onetimeauth/poly1305/donna/poly1305_donna64.h:57:18 @[ crypto_onetimeauth/poly1305/donna/poly1305_donna.c:78:5 ]
	movq	$0, 64(%rdi)
	.loc	5 58 15                         # crypto_onetimeauth/poly1305/donna/poly1305_donna64.h:58:15 @[ crypto_onetimeauth/poly1305/donna/poly1305_donna.c:78:5 ]
	movb	$0, 88(%rdi)
.Ltmp46:
	.loc	3 80 5                          # crypto_onetimeauth/poly1305/donna/poly1305_donna.c:80:5
	xorl	%eax, %eax
	retq
.Ltmp47:
.Lfunc_end2:
	.size	crypto_onetimeauth_poly1305_donna_init, .Lfunc_end2-crypto_onetimeauth_poly1305_donna_init
	.cfi_endproc
                                        # -- End function
	.p2align	4                               # -- Begin function crypto_onetimeauth_poly1305_donna_update
	.type	crypto_onetimeauth_poly1305_donna_update,@function
crypto_onetimeauth_poly1305_donna_update: # @crypto_onetimeauth_poly1305_donna_update
.Lfunc_begin3:
	.loc	3 87 0                          # crypto_onetimeauth/poly1305/donna/poly1305_donna.c:87:0
	.cfi_startproc
# %bb.0:
	#DEBUG_VALUE: crypto_onetimeauth_poly1305_donna_update:state <- $rdi
	#DEBUG_VALUE: crypto_onetimeauth_poly1305_donna_update:in <- $rsi
	#DEBUG_VALUE: crypto_onetimeauth_poly1305_donna_update:inlen <- $rdx
	pushq	%rax
	.cfi_def_cfa_offset 16
.Ltmp48:
	.loc	3 88 5 prologue_end             # crypto_onetimeauth/poly1305/donna/poly1305_donna.c:88:5
	callq	poly1305_update
.Ltmp49:
	#DEBUG_VALUE: crypto_onetimeauth_poly1305_donna_update:inlen <- [DW_OP_LLVM_entry_value 1] $rdx
	#DEBUG_VALUE: crypto_onetimeauth_poly1305_donna_update:in <- [DW_OP_LLVM_entry_value 1] $rsi
	#DEBUG_VALUE: crypto_onetimeauth_poly1305_donna_update:state <- [DW_OP_LLVM_entry_value 1] $rdi
	.loc	3 90 5                          # crypto_onetimeauth/poly1305/donna/poly1305_donna.c:90:5
	xorl	%eax, %eax
	.loc	3 90 5 epilogue_begin is_stmt 0 # crypto_onetimeauth/poly1305/donna/poly1305_donna.c:90:5
	popq	%rcx
	.cfi_def_cfa_offset 8
	retq
.Ltmp50:
.Lfunc_end3:
	.size	crypto_onetimeauth_poly1305_donna_update, .Lfunc_end3-crypto_onetimeauth_poly1305_donna_update
	.cfi_endproc
                                        # -- End function
	.p2align	4                               # -- Begin function crypto_onetimeauth_poly1305_donna_final
	.type	crypto_onetimeauth_poly1305_donna_final,@function
crypto_onetimeauth_poly1305_donna_final: # @crypto_onetimeauth_poly1305_donna_final
.Lfunc_begin4:
	.loc	3 96 0 is_stmt 1                # crypto_onetimeauth/poly1305/donna/poly1305_donna.c:96:0
	.cfi_startproc
# %bb.0:
	#DEBUG_VALUE: crypto_onetimeauth_poly1305_donna_final:state <- $rdi
	#DEBUG_VALUE: crypto_onetimeauth_poly1305_donna_final:out <- $rsi
	pushq	%rax
	.cfi_def_cfa_offset 16
.Ltmp51:
	.loc	3 97 5 prologue_end             # crypto_onetimeauth/poly1305/donna/poly1305_donna.c:97:5
	callq	poly1305_finish
.Ltmp52:
	#DEBUG_VALUE: crypto_onetimeauth_poly1305_donna_final:out <- [DW_OP_LLVM_entry_value 1] $rsi
	#DEBUG_VALUE: crypto_onetimeauth_poly1305_donna_final:state <- [DW_OP_LLVM_entry_value 1] $rdi
	.loc	3 99 5                          # crypto_onetimeauth/poly1305/donna/poly1305_donna.c:99:5
	xorl	%eax, %eax
	.loc	3 99 5 epilogue_begin is_stmt 0 # crypto_onetimeauth/poly1305/donna/poly1305_donna.c:99:5
	popq	%rcx
	.cfi_def_cfa_offset 8
	retq
.Ltmp53:
.Lfunc_end4:
	.size	crypto_onetimeauth_poly1305_donna_final, .Lfunc_end4-crypto_onetimeauth_poly1305_donna_final
	.cfi_endproc
                                        # -- End function
	.p2align	4                               # -- Begin function poly1305_update
	.type	poly1305_update,@function
poly1305_update:                        # @poly1305_update
.Lfunc_begin5:
	.loc	3 17 0 is_stmt 1                # crypto_onetimeauth/poly1305/donna/poly1305_donna.c:17:0
	.cfi_startproc
# %bb.0:
	#DEBUG_VALUE: poly1305_update:st <- $rdi
	#DEBUG_VALUE: poly1305_update:m <- $rsi
	#DEBUG_VALUE: poly1305_update:bytes <- $rdx
	pushq	%r15
	.cfi_def_cfa_offset 16
	pushq	%r14
	.cfi_def_cfa_offset 24
	pushq	%r12
	.cfi_def_cfa_offset 32
	pushq	%rbx
	.cfi_def_cfa_offset 40
	pushq	%rax
	.cfi_def_cfa_offset 48
	.cfi_offset %rbx, -40
	.cfi_offset %r12, -32
	.cfi_offset %r14, -24
	.cfi_offset %r15, -16
	movq	%rdx, %rbx
	movq	%rsi, %r15
	movq	%rdi, %r14
.Ltmp54:
	.loc	3 21 13 prologue_end            # crypto_onetimeauth/poly1305/donna/poly1305_donna.c:21:13
	movq	64(%rdi), %rcx
	.loc	3 21 9 is_stmt 0                # crypto_onetimeauth/poly1305/donna/poly1305_donna.c:21:9
	testq	%rcx, %rcx
	je	.LBB5_12
.Ltmp55:
# %bb.1:
	#DEBUG_VALUE: poly1305_update:st <- $r14
	#DEBUG_VALUE: poly1305_update:m <- $r15
	#DEBUG_VALUE: poly1305_update:bytes <- $rbx
	.loc	3 0 9                           # crypto_onetimeauth/poly1305/donna/poly1305_donna.c:0:9
	movl	$16, %eax
.Ltmp56:
	.loc	3 22 39 is_stmt 1               # crypto_onetimeauth/poly1305/donna/poly1305_donna.c:22:39
	subq	%rcx, %rax
.Ltmp57:
	#DEBUG_VALUE: want <- $rax
	.loc	3 24 18                         # crypto_onetimeauth/poly1305/donna/poly1305_donna.c:24:18
	cmpq	%rbx, %rax
	cmovaeq	%rbx, %rax
.Ltmp58:
	#DEBUG_VALUE: want <- $rax
	#DEBUG_VALUE: poly1305_update:i <- 0
	.loc	3 27 23                         # crypto_onetimeauth/poly1305/donna/poly1305_donna.c:27:23
	testq	%rax, %rax
.Ltmp59:
	.loc	3 27 9 is_stmt 0                # crypto_onetimeauth/poly1305/donna/poly1305_donna.c:27:9
	je	.LBB5_10
.Ltmp60:
# %bb.2:                                # %.lr.ph
	#DEBUG_VALUE: poly1305_update:st <- $r14
	#DEBUG_VALUE: poly1305_update:m <- $r15
	#DEBUG_VALUE: poly1305_update:bytes <- $rbx
	#DEBUG_VALUE: want <- $rax
	#DEBUG_VALUE: poly1305_update:i <- 0
	movl	%eax, %ecx
	andl	$3, %ecx
	cmpq	$4, %rax
	jae	.LBB5_4
.Ltmp61:
# %bb.3:
	#DEBUG_VALUE: poly1305_update:st <- $r14
	#DEBUG_VALUE: poly1305_update:m <- $r15
	#DEBUG_VALUE: poly1305_update:bytes <- $rbx
	#DEBUG_VALUE: want <- $rax
	#DEBUG_VALUE: poly1305_update:i <- 0
	.loc	3 0 9                           # crypto_onetimeauth/poly1305/donna/poly1305_donna.c:0:9
	xorl	%edx, %edx
	.loc	3 27 9                          # crypto_onetimeauth/poly1305/donna/poly1305_donna.c:27:9
	jmp	.LBB5_6
.Ltmp62:
.LBB5_4:                                # %.lr.ph.new
	#DEBUG_VALUE: poly1305_update:st <- $r14
	#DEBUG_VALUE: poly1305_update:m <- $r15
	#DEBUG_VALUE: poly1305_update:bytes <- $rbx
	#DEBUG_VALUE: want <- $rax
	#DEBUG_VALUE: poly1305_update:i <- 0
	movq	%rax, %rsi
	andq	$-4, %rsi
	xorl	%edx, %edx
.Ltmp63:
	.loc	3 0 9                           # :0:9
.Ltmp64:
	.p2align	4
.LBB5_5:                                # =>This Inner Loop Header: Depth=1
	#DEBUG_VALUE: poly1305_update:st <- $r14
	#DEBUG_VALUE: poly1305_update:m <- $r15
	#DEBUG_VALUE: poly1305_update:bytes <- $rbx
	#DEBUG_VALUE: want <- $rax
	#DEBUG_VALUE: poly1305_update:i <- $rdx
	.loc	3 28 44 is_stmt 1               # crypto_onetimeauth/poly1305/donna/poly1305_donna.c:28:44
	movzbl	(%r15,%rdx), %edi
	movq	64(%r14), %r8
	.loc	3 28 42 is_stmt 0               # crypto_onetimeauth/poly1305/donna/poly1305_donna.c:28:42
	addq	%r14, %r8
	movb	%dil, 72(%rdx,%r8)
.Ltmp65:
	#DEBUG_VALUE: poly1305_update:i <- [DW_OP_constu 1, DW_OP_or, DW_OP_stack_value] $rdx
	.loc	3 28 44                         # crypto_onetimeauth/poly1305/donna/poly1305_donna.c:28:44
	movzbl	1(%r15,%rdx), %edi
	movq	64(%r14), %r8
	.loc	3 28 42                         # crypto_onetimeauth/poly1305/donna/poly1305_donna.c:28:42
	addq	%r14, %r8
	movb	%dil, 73(%rdx,%r8)
.Ltmp66:
	#DEBUG_VALUE: poly1305_update:i <- [DW_OP_constu 2, DW_OP_or, DW_OP_stack_value] $rdx
	.loc	3 28 44                         # crypto_onetimeauth/poly1305/donna/poly1305_donna.c:28:44
	movzbl	2(%r15,%rdx), %edi
	movq	64(%r14), %r8
	.loc	3 28 42                         # crypto_onetimeauth/poly1305/donna/poly1305_donna.c:28:42
	addq	%r14, %r8
	movb	%dil, 74(%rdx,%r8)
.Ltmp67:
	#DEBUG_VALUE: poly1305_update:i <- [DW_OP_constu 3, DW_OP_or, DW_OP_stack_value] $rdx
	.loc	3 28 44                         # crypto_onetimeauth/poly1305/donna/poly1305_donna.c:28:44
	movzbl	3(%r15,%rdx), %edi
	movq	64(%r14), %r8
	.loc	3 28 42                         # crypto_onetimeauth/poly1305/donna/poly1305_donna.c:28:42
	addq	%r14, %r8
	movb	%dil, 75(%rdx,%r8)
.Ltmp68:
	.loc	3 27 32 is_stmt 1               # crypto_onetimeauth/poly1305/donna/poly1305_donna.c:27:32
	addq	$4, %rdx
.Ltmp69:
	#DEBUG_VALUE: poly1305_update:i <- $rdx
	.loc	3 27 9 is_stmt 0                # crypto_onetimeauth/poly1305/donna/poly1305_donna.c:27:9
	cmpq	%rdx, %rsi
	jne	.LBB5_5
.Ltmp70:
.LBB5_6:                                # %._crit_edge.loopexit.unr-lcssa
	#DEBUG_VALUE: poly1305_update:st <- $r14
	#DEBUG_VALUE: poly1305_update:m <- $r15
	#DEBUG_VALUE: poly1305_update:bytes <- $rbx
	#DEBUG_VALUE: want <- $rax
	testq	%rcx, %rcx
	je	.LBB5_9
.Ltmp71:
# %bb.7:                                # %.epil.preheader.preheader
	#DEBUG_VALUE: poly1305_update:st <- $r14
	#DEBUG_VALUE: poly1305_update:m <- $r15
	#DEBUG_VALUE: poly1305_update:bytes <- $rbx
	#DEBUG_VALUE: want <- $rax
	leaq	(%rdx,%r14), %rsi
	addq	$72, %rsi
	addq	%r15, %rdx
	xorl	%edi, %edi
.Ltmp72:
	.loc	3 0 9                           # :0:9
.Ltmp73:
	.p2align	4
.LBB5_8:                                # %.epil.preheader
                                        # =>This Inner Loop Header: Depth=1
	#DEBUG_VALUE: poly1305_update:st <- $r14
	#DEBUG_VALUE: poly1305_update:m <- $r15
	#DEBUG_VALUE: poly1305_update:bytes <- $rbx
	#DEBUG_VALUE: want <- $rax
	#DEBUG_VALUE: poly1305_update:i <- undef
	.loc	3 28 44 is_stmt 1               # crypto_onetimeauth/poly1305/donna/poly1305_donna.c:28:44
	movzbl	(%rdx,%rdi), %r8d
	movq	64(%r14), %r9
	.loc	3 28 42 is_stmt 0               # crypto_onetimeauth/poly1305/donna/poly1305_donna.c:28:42
	addq	%rsi, %r9
	movb	%r8b, (%rdi,%r9)
.Ltmp74:
	.loc	3 27 9 is_stmt 1                # crypto_onetimeauth/poly1305/donna/poly1305_donna.c:27:9
	incq	%rdi
	cmpq	%rdi, %rcx
	jne	.LBB5_8
.Ltmp75:
.LBB5_9:                                # %._crit_edge.loopexit
	#DEBUG_VALUE: poly1305_update:st <- $r14
	#DEBUG_VALUE: poly1305_update:m <- $r15
	#DEBUG_VALUE: poly1305_update:bytes <- $rbx
	#DEBUG_VALUE: want <- $rax
	.loc	3 32 22                         # crypto_onetimeauth/poly1305/donna/poly1305_donna.c:32:22
	movq	64(%r14), %rcx
.Ltmp76:
.LBB5_10:                               # %._crit_edge
	#DEBUG_VALUE: poly1305_update:st <- $r14
	#DEBUG_VALUE: poly1305_update:m <- $r15
	#DEBUG_VALUE: poly1305_update:bytes <- $rbx
	#DEBUG_VALUE: want <- $rax
	#DEBUG_VALUE: poly1305_update:bytes <- [DW_OP_LLVM_arg 0, DW_OP_LLVM_arg 0, DW_OP_minus, DW_OP_stack_value] undef
	#DEBUG_VALUE: poly1305_update:m <- [DW_OP_LLVM_arg 0, DW_OP_LLVM_arg 0, DW_OP_plus, DW_OP_stack_value] undef
	.loc	3 32 22                         # crypto_onetimeauth/poly1305/donna/poly1305_donna.c:32:22
	addq	%rax, %rcx
	movq	%rcx, 64(%r14)
.Ltmp77:
	.loc	3 33 26                         # crypto_onetimeauth/poly1305/donna/poly1305_donna.c:33:26
	cmpq	$16, %rcx
	jb	.LBB5_23
.Ltmp78:
# %bb.11:
	#DEBUG_VALUE: poly1305_update:st <- $r14
	#DEBUG_VALUE: want <- $rax
	.loc	3 31 11                         # crypto_onetimeauth/poly1305/donna/poly1305_donna.c:31:11
	addq	%rax, %r15
.Ltmp79:
	#DEBUG_VALUE: poly1305_update:m <- $r15
	.loc	3 30 15                         # crypto_onetimeauth/poly1305/donna/poly1305_donna.c:30:15
	subq	%rax, %rbx
.Ltmp80:
	#DEBUG_VALUE: poly1305_update:bytes <- $rbx
	.loc	3 36 33                         # crypto_onetimeauth/poly1305/donna/poly1305_donna.c:36:33
	leaq	72(%r14), %rsi
	.loc	3 36 9 is_stmt 0                # crypto_onetimeauth/poly1305/donna/poly1305_donna.c:36:9
	movl	$16, %edx
	movq	%r14, %rdi
	callq	poly1305_blocks
.Ltmp81:
	.loc	3 37 22 is_stmt 1               # crypto_onetimeauth/poly1305/donna/poly1305_donna.c:37:22
	movq	$0, 64(%r14)
.Ltmp82:
.LBB5_12:
	#DEBUG_VALUE: poly1305_update:st <- $r14
	#DEBUG_VALUE: poly1305_update:m <- $r15
	#DEBUG_VALUE: poly1305_update:bytes <- $rbx
	#DEBUG_VALUE: poly1305_update:m <- $r15
	#DEBUG_VALUE: poly1305_update:bytes <- $rbx
	.loc	3 41 15                         # crypto_onetimeauth/poly1305/donna/poly1305_donna.c:41:15
	cmpq	$16, %rbx
	jb	.LBB5_14
.Ltmp83:
# %bb.13:
	#DEBUG_VALUE: poly1305_update:st <- $r14
	#DEBUG_VALUE: poly1305_update:m <- $r15
	#DEBUG_VALUE: poly1305_update:bytes <- $rbx
	.loc	3 42 42                         # crypto_onetimeauth/poly1305/donna/poly1305_donna.c:42:42
	movq	%rbx, %r12
	andq	$-16, %r12
.Ltmp84:
	#DEBUG_VALUE: want <- $r12
	.loc	3 44 9                          # crypto_onetimeauth/poly1305/donna/poly1305_donna.c:44:9
	movq	%r14, %rdi
	movq	%r15, %rsi
	movq	%r12, %rdx
	callq	poly1305_blocks
.Ltmp85:
	.loc	3 45 11                         # crypto_onetimeauth/poly1305/donna/poly1305_donna.c:45:11
	addq	%r12, %r15
.Ltmp86:
	#DEBUG_VALUE: poly1305_update:m <- $r15
	.loc	3 46 15                         # crypto_onetimeauth/poly1305/donna/poly1305_donna.c:46:15
	andl	$15, %ebx
.Ltmp87:
	#DEBUG_VALUE: poly1305_update:bytes <- $ebx
.LBB5_14:
	#DEBUG_VALUE: poly1305_update:st <- $r14
	#DEBUG_VALUE: poly1305_update:m <- $r15
	#DEBUG_VALUE: poly1305_update:m <- $r15
	#DEBUG_VALUE: poly1305_update:bytes <- $rbx
	.loc	3 50 9                          # crypto_onetimeauth/poly1305/donna/poly1305_donna.c:50:9
	testq	%rbx, %rbx
	je	.LBB5_23
.Ltmp88:
# %bb.15:                               # %.preheader
	#DEBUG_VALUE: poly1305_update:st <- $r14
	#DEBUG_VALUE: poly1305_update:m <- $r15
	#DEBUG_VALUE: poly1305_update:bytes <- $rbx
	#DEBUG_VALUE: poly1305_update:i <- 0
	.loc	3 51 9                          # crypto_onetimeauth/poly1305/donna/poly1305_donna.c:51:9
	movl	%ebx, %eax
	andl	$3, %eax
	cmpq	$4, %rbx
	jae	.LBB5_17
.Ltmp89:
# %bb.16:
	#DEBUG_VALUE: poly1305_update:st <- $r14
	#DEBUG_VALUE: poly1305_update:m <- $r15
	#DEBUG_VALUE: poly1305_update:bytes <- $rbx
	#DEBUG_VALUE: poly1305_update:i <- 0
	.loc	3 0 9 is_stmt 0                 # crypto_onetimeauth/poly1305/donna/poly1305_donna.c:0:9
	xorl	%ecx, %ecx
	.loc	3 51 9                          # crypto_onetimeauth/poly1305/donna/poly1305_donna.c:51:9
	jmp	.LBB5_19
.Ltmp90:
.LBB5_17:                               # %.preheader.new
	#DEBUG_VALUE: poly1305_update:st <- $r14
	#DEBUG_VALUE: poly1305_update:m <- $r15
	#DEBUG_VALUE: poly1305_update:bytes <- $rbx
	#DEBUG_VALUE: poly1305_update:i <- 0
	movl	%ebx, %edx
	andl	$12, %edx
	xorl	%ecx, %ecx
.Ltmp91:
	.loc	3 0 9                           # :0:9
.Ltmp92:
	.p2align	4
.LBB5_18:                               # =>This Inner Loop Header: Depth=1
	#DEBUG_VALUE: poly1305_update:st <- $r14
	#DEBUG_VALUE: poly1305_update:m <- $r15
	#DEBUG_VALUE: poly1305_update:bytes <- $rbx
	#DEBUG_VALUE: poly1305_update:i <- $rcx
	.loc	3 52 44 is_stmt 1               # crypto_onetimeauth/poly1305/donna/poly1305_donna.c:52:44
	movzbl	(%r15,%rcx), %esi
	movq	64(%r14), %rdi
	.loc	3 52 42 is_stmt 0               # crypto_onetimeauth/poly1305/donna/poly1305_donna.c:52:42
	addq	%r14, %rdi
	movb	%sil, 72(%rcx,%rdi)
.Ltmp93:
	#DEBUG_VALUE: poly1305_update:i <- [DW_OP_constu 1, DW_OP_or, DW_OP_stack_value] $rcx
	.loc	3 52 44                         # crypto_onetimeauth/poly1305/donna/poly1305_donna.c:52:44
	movzbl	1(%r15,%rcx), %esi
	movq	64(%r14), %rdi
	.loc	3 52 42                         # crypto_onetimeauth/poly1305/donna/poly1305_donna.c:52:42
	addq	%r14, %rdi
	movb	%sil, 73(%rcx,%rdi)
.Ltmp94:
	#DEBUG_VALUE: poly1305_update:i <- [DW_OP_constu 2, DW_OP_or, DW_OP_stack_value] $rcx
	.loc	3 52 44                         # crypto_onetimeauth/poly1305/donna/poly1305_donna.c:52:44
	movzbl	2(%r15,%rcx), %esi
	movq	64(%r14), %rdi
	.loc	3 52 42                         # crypto_onetimeauth/poly1305/donna/poly1305_donna.c:52:42
	addq	%r14, %rdi
	movb	%sil, 74(%rcx,%rdi)
.Ltmp95:
	#DEBUG_VALUE: poly1305_update:i <- [DW_OP_constu 3, DW_OP_or, DW_OP_stack_value] $rcx
	.loc	3 52 44                         # crypto_onetimeauth/poly1305/donna/poly1305_donna.c:52:44
	movzbl	3(%r15,%rcx), %esi
	movq	64(%r14), %rdi
	.loc	3 52 42                         # crypto_onetimeauth/poly1305/donna/poly1305_donna.c:52:42
	addq	%r14, %rdi
	movb	%sil, 75(%rcx,%rdi)
.Ltmp96:
	.loc	3 51 33 is_stmt 1               # crypto_onetimeauth/poly1305/donna/poly1305_donna.c:51:33
	addq	$4, %rcx
.Ltmp97:
	#DEBUG_VALUE: poly1305_update:i <- $rcx
	.loc	3 51 9 is_stmt 0                # crypto_onetimeauth/poly1305/donna/poly1305_donna.c:51:9
	cmpq	%rcx, %rdx
	jne	.LBB5_18
.Ltmp98:
.LBB5_19:                               # %.unr-lcssa
	#DEBUG_VALUE: poly1305_update:st <- $r14
	#DEBUG_VALUE: poly1305_update:m <- $r15
	#DEBUG_VALUE: poly1305_update:bytes <- $rbx
	testq	%rax, %rax
	je	.LBB5_22
.Ltmp99:
# %bb.20:                               # %.epil.preheader57.preheader
	#DEBUG_VALUE: poly1305_update:st <- $r14
	#DEBUG_VALUE: poly1305_update:m <- $r15
	#DEBUG_VALUE: poly1305_update:bytes <- $rbx
	leaq	(%rcx,%r14), %rdx
	addq	$72, %rdx
	addq	%rcx, %r15
.Ltmp100:
	.loc	3 0 9                           # crypto_onetimeauth/poly1305/donna/poly1305_donna.c:0:9
	xorl	%ecx, %ecx
.Ltmp101:
	.p2align	4
.LBB5_21:                               # %.epil.preheader57
                                        # =>This Inner Loop Header: Depth=1
	#DEBUG_VALUE: poly1305_update:st <- $r14
	#DEBUG_VALUE: poly1305_update:bytes <- $rbx
	#DEBUG_VALUE: poly1305_update:i <- [DW_OP_LLVM_arg 0, DW_OP_LLVM_arg 1, DW_OP_plus, DW_OP_stack_value] undef, undef
	.loc	3 52 44 is_stmt 1               # crypto_onetimeauth/poly1305/donna/poly1305_donna.c:52:44
	movzbl	(%r15,%rcx), %esi
	movq	64(%r14), %rdi
	.loc	3 52 42 is_stmt 0               # crypto_onetimeauth/poly1305/donna/poly1305_donna.c:52:42
	addq	%rdx, %rdi
	movb	%sil, (%rcx,%rdi)
.Ltmp102:
	#DEBUG_VALUE: poly1305_update:i <- [DW_OP_LLVM_arg 0, DW_OP_consts 1, DW_OP_LLVM_arg 1, DW_OP_plus, DW_OP_plus, DW_OP_stack_value] undef, undef
	.loc	3 51 9 is_stmt 1                # crypto_onetimeauth/poly1305/donna/poly1305_donna.c:51:9
	incq	%rcx
	cmpq	%rcx, %rax
	jne	.LBB5_21
.Ltmp103:
.LBB5_22:                               # %.epilog-lcssa
	#DEBUG_VALUE: poly1305_update:st <- $r14
	#DEBUG_VALUE: poly1305_update:bytes <- $rbx
	.loc	3 54 22                         # crypto_onetimeauth/poly1305/donna/poly1305_donna.c:54:22
	addq	%rbx, 64(%r14)
.Ltmp104:
.LBB5_23:                               # %.critedge
	#DEBUG_VALUE: poly1305_update:st <- $r14
	.loc	3 56 1 epilogue_begin           # crypto_onetimeauth/poly1305/donna/poly1305_donna.c:56:1
	addq	$8, %rsp
	.cfi_def_cfa_offset 40
	popq	%rbx
	.cfi_def_cfa_offset 32
	popq	%r12
	.cfi_def_cfa_offset 24
	popq	%r14
.Ltmp105:
	#DEBUG_VALUE: poly1305_update:st <- [DW_OP_LLVM_entry_value 1] $rdi
	.cfi_def_cfa_offset 16
	popq	%r15
	.cfi_def_cfa_offset 8
	retq
.Ltmp106:
.Lfunc_end5:
	.size	poly1305_update, .Lfunc_end5-poly1305_update
	.cfi_endproc
                                        # -- End function
	.p2align	4                               # -- Begin function poly1305_finish
	.type	poly1305_finish,@function
poly1305_finish:                        # @poly1305_finish
.Lfunc_begin6:
	.loc	5 137 0                         # crypto_onetimeauth/poly1305/donna/poly1305_donna64.h:137:0
	.cfi_startproc
# %bb.0:
	#DEBUG_VALUE: poly1305_finish:st <- $rdi
	#DEBUG_VALUE: poly1305_finish:mac <- $rsi
	pushq	%r15
	.cfi_def_cfa_offset 16
	pushq	%r14
	.cfi_def_cfa_offset 24
	pushq	%r12
	.cfi_def_cfa_offset 32
	pushq	%rbx
	.cfi_def_cfa_offset 40
	pushq	%rax
	.cfi_def_cfa_offset 48
	.cfi_offset %rbx, -40
	.cfi_offset %r12, -32
	.cfi_offset %r14, -24
	.cfi_offset %r15, -16
	movq	%rsi, %r14
	movq	%rdi, %rbx
.Ltmp107:
	.loc	5 144 13 prologue_end           # crypto_onetimeauth/poly1305/donna/poly1305_donna64.h:144:13
	movq	64(%rdi), %rax
	.loc	5 144 9 is_stmt 0               # crypto_onetimeauth/poly1305/donna/poly1305_donna64.h:144:9
	testq	%rax, %rax
	je	.LBB6_4
.Ltmp108:
# %bb.1:
	#DEBUG_VALUE: poly1305_finish:st <- $rbx
	#DEBUG_VALUE: poly1305_finish:mac <- $r14
	#DEBUG_VALUE: i <- $rax
	.loc	5 147 13 is_stmt 1              # crypto_onetimeauth/poly1305/donna/poly1305_donna64.h:147:13
	leaq	72(%rbx), %r15
	.loc	5 147 23 is_stmt 0              # crypto_onetimeauth/poly1305/donna/poly1305_donna64.h:147:23
	movb	$1, 72(%rbx,%rax)
.Ltmp109:
	#DEBUG_VALUE: i <- [DW_OP_plus_uconst 1, DW_OP_stack_value] $rax
	.loc	5 149 0 is_stmt 1               # crypto_onetimeauth/poly1305/donna/poly1305_donna64.h:149
	leaq	1(%rax), %rcx
.Ltmp110:
	.loc	5 149 27 is_stmt 0              # crypto_onetimeauth/poly1305/donna/poly1305_donna64.h:149:27
	cmpq	$15, %rcx
.Ltmp111:
	.loc	5 149 9                         # crypto_onetimeauth/poly1305/donna/poly1305_donna64.h:149:9
	ja	.LBB6_3
.Ltmp112:
# %bb.2:                                # %.lr.ph.preheader
	#DEBUG_VALUE: poly1305_finish:st <- $rbx
	#DEBUG_VALUE: poly1305_finish:mac <- $r14
	#DEBUG_VALUE: i <- [DW_OP_plus_uconst 1, DW_OP_stack_value] $rax
	leaq	(%rbx,%rax), %rdi
	addq	$73, %rdi
	movl	$15, %edx
	subq	%rax, %rdx
.Ltmp113:
	.loc	5 150 27 is_stmt 1              # crypto_onetimeauth/poly1305/donna/poly1305_donna64.h:150:27
	xorl	%esi, %esi
	callq	memset@PLT
.Ltmp114:
	#DEBUG_VALUE: i <- undef
.LBB6_3:                                # %._crit_edge
	#DEBUG_VALUE: poly1305_finish:st <- $rbx
	#DEBUG_VALUE: poly1305_finish:mac <- $r14
	.loc	5 152 19                        # crypto_onetimeauth/poly1305/donna/poly1305_donna64.h:152:19
	movb	$1, 88(%rbx)
	.loc	5 153 9                         # crypto_onetimeauth/poly1305/donna/poly1305_donna64.h:153:9
	movl	$16, %edx
	movq	%rbx, %rdi
	movq	%r15, %rsi
	callq	poly1305_blocks
.Ltmp115:
.LBB6_4:
	#DEBUG_VALUE: poly1305_finish:st <- $rbx
	#DEBUG_VALUE: poly1305_finish:mac <- $r14
	#DEBUG_VALUE: poly1305_finish:h0 <- undef
	.loc	5 158 10                        # crypto_onetimeauth/poly1305/donna/poly1305_donna64.h:158:10
	movq	32(%rbx), %rdx
.Ltmp116:
	#DEBUG_VALUE: poly1305_finish:h1 <- $rdx
	#DEBUG_VALUE: poly1305_finish:h2 <- [DW_OP_LLVM_arg 0, DW_OP_LLVM_arg 2, DW_OP_and, DW_OP_LLVM_arg 1, DW_OP_or, DW_OP_stack_value] undef, undef, undef
	.loc	5 200 10                        # crypto_onetimeauth/poly1305/donna/poly1305_donna64.h:200:10
	movq	48(%rbx), %rax
.Ltmp117:
	#DEBUG_VALUE: poly1305_finish:t0 <- $rax
	#DEBUG_VALUE: poly1305_finish:h2 <- undef
	.loc	5 161 12                        # crypto_onetimeauth/poly1305/donna/poly1305_donna64.h:161:12
	movq	%rdx, %rdi
	shrq	$44, %rdi
.Ltmp118:
	#DEBUG_VALUE: poly1305_finish:c <- $rdi
	.loc	5 0 12 is_stmt 0                # crypto_onetimeauth/poly1305/donna/poly1305_donna64.h:0:12
	movabsq	$17592186044415, %rcx           # imm = 0xFFFFFFFFFFF
	.loc	5 162 8 is_stmt 1               # crypto_onetimeauth/poly1305/donna/poly1305_donna64.h:162:8
	andq	%rcx, %rdx
.Ltmp119:
	#DEBUG_VALUE: poly1305_finish:h1 <- $rdx
	.loc	5 163 8                         # crypto_onetimeauth/poly1305/donna/poly1305_donna64.h:163:8
	addq	40(%rbx), %rdi
.Ltmp120:
	#DEBUG_VALUE: poly1305_finish:h2 <- $rdi
	.loc	5 164 12                        # crypto_onetimeauth/poly1305/donna/poly1305_donna64.h:164:12
	movq	%rdi, %rsi
	shrq	$42, %rsi
.Ltmp121:
	#DEBUG_VALUE: poly1305_finish:c <- $rsi
	.loc	5 0 12 is_stmt 0                # crypto_onetimeauth/poly1305/donna/poly1305_donna64.h:0:12
	movabsq	$4398046511103, %r8             # imm = 0x3FFFFFFFFFF
	.loc	5 165 8 is_stmt 1               # crypto_onetimeauth/poly1305/donna/poly1305_donna64.h:165:8
	andq	%r8, %rdi
.Ltmp122:
	#DEBUG_VALUE: poly1305_finish:h2 <- $rdi
	.loc	5 166 13                        # crypto_onetimeauth/poly1305/donna/poly1305_donna64.h:166:13
	leaq	(%rsi,%rsi,4), %r9
	.loc	5 166 8 is_stmt 0               # crypto_onetimeauth/poly1305/donna/poly1305_donna64.h:166:8
	addq	24(%rbx), %r9
.Ltmp123:
	#DEBUG_VALUE: poly1305_finish:h0 <- $r9
	.loc	5 167 12 is_stmt 1              # crypto_onetimeauth/poly1305/donna/poly1305_donna64.h:167:12
	movq	%r9, %r10
	shrq	$44, %r10
.Ltmp124:
	#DEBUG_VALUE: poly1305_finish:c <- $r10
	.loc	5 169 8                         # crypto_onetimeauth/poly1305/donna/poly1305_donna64.h:169:8
	addq	%rdx, %r10
.Ltmp125:
	.loc	5 168 8                         # crypto_onetimeauth/poly1305/donna/poly1305_donna64.h:168:8
	andq	%rcx, %r9
.Ltmp126:
	#DEBUG_VALUE: poly1305_finish:h0 <- $r9
	#DEBUG_VALUE: poly1305_finish:h1 <- $r10
	.loc	5 170 12                        # crypto_onetimeauth/poly1305/donna/poly1305_donna64.h:170:12
	movq	%r10, %rsi
	shrq	$44, %rsi
.Ltmp127:
	#DEBUG_VALUE: poly1305_finish:c <- $rsi
	.loc	5 172 8                         # crypto_onetimeauth/poly1305/donna/poly1305_donna64.h:172:8
	addq	%rdi, %rsi
.Ltmp128:
	.loc	5 171 8                         # crypto_onetimeauth/poly1305/donna/poly1305_donna64.h:171:8
	andq	%rcx, %r10
.Ltmp129:
	#DEBUG_VALUE: poly1305_finish:h1 <- $r10
	#DEBUG_VALUE: poly1305_finish:h2 <- $rsi
	.loc	5 173 12                        # crypto_onetimeauth/poly1305/donna/poly1305_donna64.h:173:12
	movq	%rsi, %rdx
	shrq	$42, %rdx
.Ltmp130:
	#DEBUG_VALUE: poly1305_finish:c <- $rdx
	.loc	5 174 8                         # crypto_onetimeauth/poly1305/donna/poly1305_donna64.h:174:8
	andq	%rsi, %r8
.Ltmp131:
	#DEBUG_VALUE: poly1305_finish:h2 <- [DW_OP_constu 4398046511103, DW_OP_and, DW_OP_stack_value] $rsi
	.loc	5 175 13                        # crypto_onetimeauth/poly1305/donna/poly1305_donna64.h:175:13
	leaq	(%rdx,%rdx,4), %rdi
	.loc	5 175 8 is_stmt 0               # crypto_onetimeauth/poly1305/donna/poly1305_donna64.h:175:8
	addq	%r9, %rdi
.Ltmp132:
	#DEBUG_VALUE: poly1305_finish:h0 <- $rdi
	.loc	5 176 12 is_stmt 1              # crypto_onetimeauth/poly1305/donna/poly1305_donna64.h:176:12
	movq	%rdi, %rdx
.Ltmp133:
	shrq	$44, %rdx
.Ltmp134:
	#DEBUG_VALUE: poly1305_finish:c <- $rdx
	.loc	5 178 8                         # crypto_onetimeauth/poly1305/donna/poly1305_donna64.h:178:8
	addq	%r10, %rdx
.Ltmp135:
	.loc	5 177 8                         # crypto_onetimeauth/poly1305/donna/poly1305_donna64.h:177:8
	andq	%rcx, %rdi
.Ltmp136:
	#DEBUG_VALUE: poly1305_finish:h0 <- $rdi
	#DEBUG_VALUE: poly1305_finish:h1 <- $rdx
	.loc	5 181 13                        # crypto_onetimeauth/poly1305/donna/poly1305_donna64.h:181:13
	leaq	5(%rdi), %r9
.Ltmp137:
	#DEBUG_VALUE: poly1305_finish:g0 <- $r9
	.loc	5 182 12                        # crypto_onetimeauth/poly1305/donna/poly1305_donna64.h:182:12
	movq	%r9, %r10
	shrq	$44, %r10
.Ltmp138:
	#DEBUG_VALUE: poly1305_finish:c <- $r10
	#DEBUG_VALUE: poly1305_finish:g0 <- undef
	.loc	5 184 13                        # crypto_onetimeauth/poly1305/donna/poly1305_donna64.h:184:13
	addq	%rdx, %r10
.Ltmp139:
	#DEBUG_VALUE: poly1305_finish:g1 <- $r10
	.loc	5 185 12                        # crypto_onetimeauth/poly1305/donna/poly1305_donna64.h:185:12
	movq	%r10, %r11
	shrq	$44, %r11
.Ltmp140:
	#DEBUG_VALUE: poly1305_finish:c <- $r11
	#DEBUG_VALUE: poly1305_finish:g1 <- undef
	.loc	5 187 13                        # crypto_onetimeauth/poly1305/donna/poly1305_donna64.h:187:13
	addq	%r8, %r11
.Ltmp141:
	.loc	5 0 13 is_stmt 0                # crypto_onetimeauth/poly1305/donna/poly1305_donna64.h:0:13
	movabsq	$-4398046511104, %r15           # imm = 0xFFFFFC0000000000
	.loc	5 187 17                        # crypto_onetimeauth/poly1305/donna/poly1305_donna64.h:187:17
	addq	%r11, %r15
.Ltmp142:
	#DEBUG_VALUE: poly1305_finish:g2 <- [DW_OP_constu 4398046511104, DW_OP_minus, DW_OP_stack_value] $r11
	.loc	5 190 16 is_stmt 1              # crypto_onetimeauth/poly1305/donna/poly1305_donna64.h:190:16
	movq	%r15, %r8
	sarq	$63, %r8
	shrq	$63, %r15
	.loc	5 190 59 is_stmt 0              # crypto_onetimeauth/poly1305/donna/poly1305_donna64.h:190:59
	decq	%r15
.Ltmp143:
	#DEBUG_VALUE: poly1305_finish:mask <- $r15
	.loc	5 183 8 is_stmt 1               # crypto_onetimeauth/poly1305/donna/poly1305_donna64.h:183:8
	movq	%r15, %r12
	andq	%rcx, %r12
	.loc	5 191 8                         # crypto_onetimeauth/poly1305/donna/poly1305_donna64.h:191:8
	andq	%r12, %r9
.Ltmp144:
	#DEBUG_VALUE: poly1305_finish:g0 <- $r9
	.loc	5 192 8                         # crypto_onetimeauth/poly1305/donna/poly1305_donna64.h:192:8
	andq	%r10, %r12
.Ltmp145:
	#DEBUG_VALUE: poly1305_finish:g1 <- $r12
	.loc	5 193 8                         # crypto_onetimeauth/poly1305/donna/poly1305_donna64.h:193:8
	andq	%r11, %r15
.Ltmp146:
	#DEBUG_VALUE: poly1305_finish:g2 <- [DW_OP_LLVM_arg 0, DW_OP_LLVM_arg 1, DW_OP_and, DW_OP_stack_value] undef, undef
	#DEBUG_VALUE: poly1305_finish:mask <- $r8
	.loc	5 195 14                        # crypto_onetimeauth/poly1305/donna/poly1305_donna64.h:195:14
	andq	%r8, %rdi
.Ltmp147:
	.loc	5 195 22 is_stmt 0              # crypto_onetimeauth/poly1305/donna/poly1305_donna64.h:195:22
	orq	%r9, %rdi
.Ltmp148:
	#DEBUG_VALUE: poly1305_finish:h0 <- $rdi
	.loc	5 196 14 is_stmt 1              # crypto_onetimeauth/poly1305/donna/poly1305_donna64.h:196:14
	andq	%r8, %rdx
.Ltmp149:
	.loc	5 196 22 is_stmt 0              # crypto_onetimeauth/poly1305/donna/poly1305_donna64.h:196:22
	orq	%r12, %rdx
.Ltmp150:
	#DEBUG_VALUE: poly1305_finish:h1 <- $rdx
	.loc	5 197 14 is_stmt 1              # crypto_onetimeauth/poly1305/donna/poly1305_donna64.h:197:14
	andq	%rsi, %r8
.Ltmp151:
	.loc	5 197 22 is_stmt 0              # crypto_onetimeauth/poly1305/donna/poly1305_donna64.h:197:22
	orq	%r15, %r8
	.loc	5 201 10 is_stmt 1              # crypto_onetimeauth/poly1305/donna/poly1305_donna64.h:201:10
	movq	56(%rbx), %rsi
.Ltmp152:
	#DEBUG_VALUE: poly1305_finish:t1 <- $rsi
	.loc	5 203 17                        # crypto_onetimeauth/poly1305/donna/poly1305_donna64.h:203:17
	movq	%rax, %r9
.Ltmp153:
	andq	%rcx, %r9
	.loc	5 203 8 is_stmt 0               # crypto_onetimeauth/poly1305/donna/poly1305_donna64.h:203:8
	addq	%rdi, %r9
.Ltmp154:
	#DEBUG_VALUE: poly1305_finish:h0 <- $r9
	.loc	5 204 13 is_stmt 1              # crypto_onetimeauth/poly1305/donna/poly1305_donna64.h:204:13
	movq	%r9, %rdi
	shrq	$44, %rdi
.Ltmp155:
	#DEBUG_VALUE: poly1305_finish:c <- $rdi
	#DEBUG_VALUE: poly1305_finish:h0 <- undef
	.loc	5 206 24                        # crypto_onetimeauth/poly1305/donna/poly1305_donna64.h:206:24
	shrdq	$44, %rsi, %rax
.Ltmp156:
	.loc	5 205 8                         # crypto_onetimeauth/poly1305/donna/poly1305_donna64.h:205:8
	andq	%rcx, %r9
.Ltmp157:
	#DEBUG_VALUE: poly1305_finish:h0 <- $r9
	.loc	5 206 38                        # crypto_onetimeauth/poly1305/donna/poly1305_donna64.h:206:38
	andq	%rcx, %rax
	.loc	5 206 55 is_stmt 0              # crypto_onetimeauth/poly1305/donna/poly1305_donna64.h:206:55
	addq	%rdx, %rax
	.loc	5 206 8                         # crypto_onetimeauth/poly1305/donna/poly1305_donna64.h:206:8
	addq	%rdi, %rax
.Ltmp158:
	#DEBUG_VALUE: poly1305_finish:h1 <- $rax
	.loc	5 207 13 is_stmt 1              # crypto_onetimeauth/poly1305/donna/poly1305_donna64.h:207:13
	movq	%rax, %rcx
	shrq	$44, %rcx
.Ltmp159:
	#DEBUG_VALUE: poly1305_finish:c <- $rcx
	#DEBUG_VALUE: poly1305_finish:h1 <- [DW_OP_constu 17592186044415, DW_OP_and, DW_OP_stack_value] $rax
	.loc	5 209 17                        # crypto_onetimeauth/poly1305/donna/poly1305_donna64.h:209:17
	shrq	$24, %rsi
.Ltmp160:
	.loc	5 209 42 is_stmt 0              # crypto_onetimeauth/poly1305/donna/poly1305_donna64.h:209:42
	addq	%r8, %rsi
	.loc	5 209 8                         # crypto_onetimeauth/poly1305/donna/poly1305_donna64.h:209:8
	addq	%rcx, %rsi
.Ltmp161:
	#DEBUG_VALUE: poly1305_finish:h2 <- [DW_OP_constu 4398046511103, DW_OP_and, DW_OP_stack_value] $rsi
	.loc	5 213 21 is_stmt 1              # crypto_onetimeauth/poly1305/donna/poly1305_donna64.h:213:21
	movq	%rax, %rcx
.Ltmp162:
	shlq	$44, %rcx
	.loc	5 213 15 is_stmt 0              # crypto_onetimeauth/poly1305/donna/poly1305_donna64.h:213:15
	orq	%r9, %rcx
.Ltmp163:
	#DEBUG_VALUE: poly1305_finish:h0 <- $rcx
	.loc	5 214 14 is_stmt 1              # crypto_onetimeauth/poly1305/donna/poly1305_donna64.h:214:14
	shrq	$20, %rax
.Ltmp164:
	andl	$16777215, %eax                 # imm = 0xFFFFFF
	.loc	5 214 27 is_stmt 0              # crypto_onetimeauth/poly1305/donna/poly1305_donna64.h:214:27
	shlq	$24, %rsi
.Ltmp165:
	.loc	5 214 21                        # crypto_onetimeauth/poly1305/donna/poly1305_donna64.h:214:21
	orq	%rax, %rsi
.Ltmp166:
	#DEBUG_VALUE: poly1305_finish:h1 <- $rsi
	#DEBUG_VALUE: store64_le:dst <- $r14
	#DEBUG_VALUE: store64_le:w <- undef
	#DEBUG_VALUE: memcpy:__dest <- $r14
	#DEBUG_VALUE: memcpy:__src <- undef
	#DEBUG_VALUE: memcpy:__len <- 8
	.loc	6 29 10 is_stmt 1               # /usr/include/x86_64-linux-gnu/bits/string_fortified.h:29:10 @[ ./include/sodium/private/common.h:87:5 @[ crypto_onetimeauth/poly1305/donna/poly1305_donna64.h:216:5 ] ]
	movq	%rcx, (%r14)
.Ltmp167:
	#DEBUG_VALUE: store64_le:w <- undef
	#DEBUG_VALUE: memcpy:__src <- undef
	#DEBUG_VALUE: memcpy:__len <- 8
	#DEBUG_VALUE: store64_le:dst <- [DW_OP_plus_uconst 8, DW_OP_stack_value] $r14
	#DEBUG_VALUE: memcpy:__dest <- [DW_OP_plus_uconst 8, DW_OP_stack_value] $r14
	.loc	6 29 10 is_stmt 0               # /usr/include/x86_64-linux-gnu/bits/string_fortified.h:29:10 @[ ./include/sodium/private/common.h:87:5 @[ crypto_onetimeauth/poly1305/donna/poly1305_donna64.h:217:5 ] ]
	movq	%rsi, 8(%r14)
.Ltmp168:
	.loc	5 220 5 is_stmt 1               # crypto_onetimeauth/poly1305/donna/poly1305_donna64.h:220:5
	movl	$96, %esi
.Ltmp169:
	movq	%rbx, %rdi
	.loc	5 220 5 epilogue_begin is_stmt 0 # crypto_onetimeauth/poly1305/donna/poly1305_donna64.h:220:5
	addq	$8, %rsp
	.cfi_def_cfa_offset 40
	popq	%rbx
.Ltmp170:
	#DEBUG_VALUE: poly1305_finish:st <- $rdi
	.cfi_def_cfa_offset 32
	popq	%r12
.Ltmp171:
	.cfi_def_cfa_offset 24
	popq	%r14
.Ltmp172:
	#DEBUG_VALUE: poly1305_finish:mac <- [DW_OP_LLVM_entry_value 1] $rsi
	.cfi_def_cfa_offset 16
	popq	%r15
	.cfi_def_cfa_offset 8
.Ltmp173:
	jmp	sodium_memzero@PLT              # TAILCALL
.Ltmp174:
.Lfunc_end6:
	.size	poly1305_finish, .Lfunc_end6-poly1305_finish
	.cfi_endproc
	.file	11 "./include/sodium" "utils.h"
                                        # -- End function
	.p2align	4                               # -- Begin function poly1305_blocks
	.type	poly1305_blocks,@function
poly1305_blocks:                        # @poly1305_blocks
.Lfunc_begin7:
	.loc	5 64 0 is_stmt 1                # crypto_onetimeauth/poly1305/donna/poly1305_donna64.h:64:0
	.cfi_startproc
# %bb.0:
	#DEBUG_VALUE: poly1305_blocks:st <- $rdi
	#DEBUG_VALUE: poly1305_blocks:m <- $rsi
	#DEBUG_VALUE: poly1305_blocks:bytes <- $rdx
	pushq	%rbp
	.cfi_def_cfa_offset 16
	pushq	%r15
	.cfi_def_cfa_offset 24
	pushq	%r14
	.cfi_def_cfa_offset 32
	pushq	%r13
	.cfi_def_cfa_offset 40
	pushq	%r12
	.cfi_def_cfa_offset 48
	pushq	%rbx
	.cfi_def_cfa_offset 56
	.cfi_offset %rbx, -56
	.cfi_offset %r12, -48
	.cfi_offset %r13, -40
	.cfi_offset %r14, -32
	.cfi_offset %r15, -24
	.cfi_offset %rbp, -16
	movq	%rdx, %rcx
.Ltmp175:
	.loc	5 66 9 prologue_end             # crypto_onetimeauth/poly1305/donna/poly1305_donna64.h:66:9
	xorl	%eax, %eax
	cmpb	$0, 88(%rdi)
	sete	%al
	shlq	$40, %rax
.Ltmp176:
	#DEBUG_VALUE: poly1305_blocks:hibit <- $rax
	.loc	5 0 9 is_stmt 0                 # crypto_onetimeauth/poly1305/donna/poly1305_donna64.h:0:9
	movq	%rax, -16(%rsp)                 # 8-byte Spill
.Ltmp177:
	#DEBUG_VALUE: poly1305_blocks:hibit <- [DW_OP_constu 16, DW_OP_minus, DW_OP_deref] $rsp
	.loc	5 73 10 is_stmt 1               # crypto_onetimeauth/poly1305/donna/poly1305_donna64.h:73:10
	movq	(%rdi), %rax
.Ltmp178:
	#DEBUG_VALUE: poly1305_blocks:r0 <- $rax
	.loc	5 0 10 is_stmt 0                # crypto_onetimeauth/poly1305/donna/poly1305_donna64.h:0:10
	movq	%rax, -32(%rsp)                 # 8-byte Spill
.Ltmp179:
	#DEBUG_VALUE: poly1305_blocks:r0 <- [DW_OP_constu 32, DW_OP_minus, DW_OP_deref] $rsp
	.loc	5 74 10 is_stmt 1               # crypto_onetimeauth/poly1305/donna/poly1305_donna64.h:74:10
	movq	8(%rdi), %r9
.Ltmp180:
	#DEBUG_VALUE: poly1305_blocks:r1 <- $r9
	.loc	5 75 10                         # crypto_onetimeauth/poly1305/donna/poly1305_donna64.h:75:10
	movq	16(%rdi), %r10
.Ltmp181:
	#DEBUG_VALUE: poly1305_blocks:r2 <- $r10
	.loc	5 77 10                         # crypto_onetimeauth/poly1305/donna/poly1305_donna64.h:77:10
	movq	24(%rdi), %rdx
.Ltmp182:
	#DEBUG_VALUE: poly1305_blocks:bytes <- $rcx
	#DEBUG_VALUE: poly1305_blocks:h0 <- $rdx
	.loc	5 78 10                         # crypto_onetimeauth/poly1305/donna/poly1305_donna64.h:78:10
	movq	32(%rdi), %rax
.Ltmp183:
	#DEBUG_VALUE: poly1305_blocks:h1 <- $rax
	.loc	5 0 10 is_stmt 0                # crypto_onetimeauth/poly1305/donna/poly1305_donna64.h:0:10
	movq	%rdi, -64(%rsp)                 # 8-byte Spill
.Ltmp184:
	#DEBUG_VALUE: poly1305_blocks:st <- [DW_OP_constu 64, DW_OP_minus] [$rsp+0]
	.loc	5 79 10 is_stmt 1               # crypto_onetimeauth/poly1305/donna/poly1305_donna64.h:79:10
	movq	40(%rdi), %r8
.Ltmp185:
	#DEBUG_VALUE: poly1305_blocks:h2 <- $r8
	.loc	5 0 10 is_stmt 0                # crypto_onetimeauth/poly1305/donna/poly1305_donna64.h:0:10
	movq	%r9, -24(%rsp)                  # 8-byte Spill
.Ltmp186:
	#DEBUG_VALUE: poly1305_blocks:r1 <- [DW_OP_constu 24, DW_OP_minus, DW_OP_deref] $rsp
	.loc	5 81 13 is_stmt 1               # crypto_onetimeauth/poly1305/donna/poly1305_donna64.h:81:13
	leaq	(,%r9,4), %r9
	leaq	(%r9,%r9,4), %rdi
.Ltmp187:
	#DEBUG_VALUE: poly1305_blocks:s1 <- $rdi
	.loc	5 0 13 is_stmt 0                # crypto_onetimeauth/poly1305/donna/poly1305_donna64.h:0:13
	movq	%rdi, -48(%rsp)                 # 8-byte Spill
.Ltmp188:
	#DEBUG_VALUE: poly1305_blocks:s1 <- [DW_OP_constu 48, DW_OP_minus, DW_OP_deref] $rsp
	movq	%r10, -40(%rsp)                 # 8-byte Spill
.Ltmp189:
	#DEBUG_VALUE: poly1305_blocks:r2 <- [DW_OP_constu 40, DW_OP_minus, DW_OP_deref] $rsp
	.loc	5 82 13 is_stmt 1               # crypto_onetimeauth/poly1305/donna/poly1305_donna64.h:82:13
	leaq	(,%r10,4), %r9
	leaq	(%r9,%r9,4), %rdi
.Ltmp190:
	#DEBUG_VALUE: poly1305_blocks:s2 <- $rdi
	.loc	5 0 13 is_stmt 0                # crypto_onetimeauth/poly1305/donna/poly1305_donna64.h:0:13
	movq	%rdi, -56(%rsp)                 # 8-byte Spill
.Ltmp191:
	#DEBUG_VALUE: poly1305_blocks:s2 <- [DW_OP_constu 56, DW_OP_minus, DW_OP_deref] $rsp
	.p2align	4
.LBB7_1:                                # =>This Inner Loop Header: Depth=1
	#DEBUG_VALUE: poly1305_blocks:st <- [DW_OP_constu 64, DW_OP_minus] [$rsp+0]
	#DEBUG_VALUE: poly1305_blocks:m <- $rsi
	#DEBUG_VALUE: poly1305_blocks:bytes <- $rcx
	#DEBUG_VALUE: poly1305_blocks:hibit <- [DW_OP_constu 16, DW_OP_minus, DW_OP_deref] $rsp
	#DEBUG_VALUE: poly1305_blocks:r0 <- [DW_OP_constu 32, DW_OP_minus, DW_OP_deref] $rsp
	#DEBUG_VALUE: poly1305_blocks:r1 <- [DW_OP_constu 24, DW_OP_minus, DW_OP_deref] $rsp
	#DEBUG_VALUE: poly1305_blocks:r2 <- [DW_OP_constu 40, DW_OP_minus, DW_OP_deref] $rsp
	#DEBUG_VALUE: poly1305_blocks:h0 <- $rdx
	#DEBUG_VALUE: poly1305_blocks:h1 <- $rax
	#DEBUG_VALUE: poly1305_blocks:h2 <- $r8
	#DEBUG_VALUE: poly1305_blocks:s1 <- [DW_OP_constu 48, DW_OP_minus, DW_OP_deref] $rsp
	#DEBUG_VALUE: poly1305_blocks:s2 <- [DW_OP_constu 56, DW_OP_minus, DW_OP_deref] $rsp
	#DEBUG_VALUE: poly1305_blocks:m <- $rsi
	#DEBUG_VALUE: poly1305_blocks:bytes <- $rcx
	#DEBUG_VALUE: poly1305_blocks:h0 <- $rdx
	#DEBUG_VALUE: poly1305_blocks:h1 <- $rax
	#DEBUG_VALUE: poly1305_blocks:h2 <- $r8
	#DEBUG_VALUE: load64_le:w <- undef
	#DEBUG_VALUE: load64_le:src <- $rsi
	#DEBUG_VALUE: memcpy:__dest <- undef
	#DEBUG_VALUE: memcpy:__src <- $rsi
	#DEBUG_VALUE: memcpy:__len <- 8
	movq	%rcx, -8(%rsp)                  # 8-byte Spill
.Ltmp192:
	#DEBUG_VALUE: poly1305_blocks:bytes <- [DW_OP_constu 8, DW_OP_minus, DW_OP_deref] $rsp
	.loc	5 93 46 is_stmt 1               # crypto_onetimeauth/poly1305/donna/poly1305_donna64.h:93:46
	addq	-16(%rsp), %r8                  # 8-byte Folded Reload
.Ltmp193:
	.loc	6 29 10                         # /usr/include/x86_64-linux-gnu/bits/string_fortified.h:29:10 @[ ./include/sodium/private/common.h:67:5 @[ crypto_onetimeauth/poly1305/donna/poly1305_donna64.h:88:14 ] ]
	movq	(%rsi), %rbx
.Ltmp194:
	#DEBUG_VALUE: t0 <- $rbx
	#DEBUG_VALUE: load64_le:w <- undef
	#DEBUG_VALUE: memcpy:__dest <- undef
	#DEBUG_VALUE: memcpy:__len <- 8
	#DEBUG_VALUE: load64_le:src <- [DW_OP_plus_uconst 8, DW_OP_stack_value] $rsi
	#DEBUG_VALUE: memcpy:__src <- [DW_OP_plus_uconst 8, DW_OP_stack_value] $rsi
	.loc	6 29 10 is_stmt 0               # /usr/include/x86_64-linux-gnu/bits/string_fortified.h:29:10 @[ ./include/sodium/private/common.h:67:5 @[ crypto_onetimeauth/poly1305/donna/poly1305_donna64.h:89:14 ] ]
	movq	8(%rsi), %r10
.Ltmp195:
	#DEBUG_VALUE: t1 <- $r10
	.loc	5 91 18 is_stmt 1               # crypto_onetimeauth/poly1305/donna/poly1305_donna64.h:91:18
	movq	%rbx, %r14
	movabsq	$17592186044415, %rbp           # imm = 0xFFFFFFFFFFF
	andq	%rbp, %r14
	.loc	5 91 12 is_stmt 0               # crypto_onetimeauth/poly1305/donna/poly1305_donna64.h:91:12
	addq	%rdx, %r14
.Ltmp196:
	#DEBUG_VALUE: poly1305_blocks:h0 <- $r14
	.loc	5 92 27 is_stmt 1               # crypto_onetimeauth/poly1305/donna/poly1305_donna64.h:92:27
	shrdq	$44, %r10, %rbx
.Ltmp197:
	.loc	5 92 41 is_stmt 0               # crypto_onetimeauth/poly1305/donna/poly1305_donna64.h:92:41
	andq	%rbp, %rbx
	.loc	5 92 12                         # crypto_onetimeauth/poly1305/donna/poly1305_donna64.h:92:12
	addq	%rax, %rbx
.Ltmp198:
	#DEBUG_VALUE: poly1305_blocks:h1 <- $rbx
	.loc	5 93 21 is_stmt 1               # crypto_onetimeauth/poly1305/donna/poly1305_donna64.h:93:21
	shrq	$24, %r10
.Ltmp199:
	.loc	5 93 12 is_stmt 0               # crypto_onetimeauth/poly1305/donna/poly1305_donna64.h:93:12
	addq	%r8, %r10
.Ltmp200:
	#DEBUG_VALUE: poly1305_blocks:h2 <- $r10
	.loc	5 96 30 is_stmt 1               # crypto_onetimeauth/poly1305/donna/poly1305_donna64.h:96:30
	movq	%r14, %rax
	movq	-32(%rsp), %rcx                 # 8-byte Reload
	mulq	%rcx
	movq	%rdx, %r8
	movq	%rax, %r9
.Ltmp201:
	#DEBUG_VALUE: poly1305_blocks:d0 <- [DW_OP_LLVM_fragment 0 64] $rax
	#DEBUG_VALUE: poly1305_blocks:d0 <- [DW_OP_LLVM_fragment 64 64] $rdx
	.loc	5 97 29                         # crypto_onetimeauth/poly1305/donna/poly1305_donna64.h:97:29
	movq	%rbx, %rax
.Ltmp202:
	#DEBUG_VALUE: poly1305_blocks:d0 <- [DW_OP_LLVM_fragment 0 64] $r9
	.loc	5 0 29 is_stmt 0                # crypto_onetimeauth/poly1305/donna/poly1305_donna64.h:0:29
	movq	-56(%rsp), %rbp                 # 8-byte Reload
	.loc	5 97 29                         # crypto_onetimeauth/poly1305/donna/poly1305_donna64.h:97:29
	mulq	%rbp
.Ltmp203:
	#DEBUG_VALUE: poly1305_blocks:d0 <- [DW_OP_LLVM_fragment 64 64] $r8
	movq	%rdx, %r15
	movq	%rax, %r12
.Ltmp204:
	#DEBUG_VALUE: poly1305_blocks:d <- [DW_OP_LLVM_fragment 0 64] $r12
	#DEBUG_VALUE: poly1305_blocks:d <- [DW_OP_LLVM_fragment 64 64] $r15
	.loc	5 98 12 is_stmt 1               # crypto_onetimeauth/poly1305/donna/poly1305_donna64.h:98:12
	addq	%r9, %r12
.Ltmp205:
	#DEBUG_VALUE: poly1305_blocks:d <- [DW_OP_LLVM_fragment 0 64] $rax
	#DEBUG_VALUE: poly1305_blocks:d0 <- [DW_OP_LLVM_fragment 0 64] $r12
	adcq	%r8, %r15
.Ltmp206:
	#DEBUG_VALUE: poly1305_blocks:d <- [DW_OP_LLVM_fragment 64 64] $rdx
	#DEBUG_VALUE: poly1305_blocks:d0 <- [DW_OP_LLVM_fragment 64 64] $r15
	.loc	5 99 29                         # crypto_onetimeauth/poly1305/donna/poly1305_donna64.h:99:29
	movq	%r10, %rax
.Ltmp207:
	mulq	-48(%rsp)                       # 8-byte Folded Reload
.Ltmp208:
	movq	%rdx, %r9
	movq	%rax, %r11
.Ltmp209:
	#DEBUG_VALUE: poly1305_blocks:d <- [DW_OP_LLVM_fragment 0 64] undef
	#DEBUG_VALUE: poly1305_blocks:d <- [DW_OP_LLVM_fragment 64 64] undef
	.loc	5 100 12                        # crypto_onetimeauth/poly1305/donna/poly1305_donna64.h:100:12
	addq	%r12, %r11
.Ltmp210:
	#DEBUG_VALUE: poly1305_blocks:d0 <- [DW_OP_LLVM_fragment 0 64] $r11
	adcq	%r15, %r9
.Ltmp211:
	#DEBUG_VALUE: poly1305_blocks:d0 <- [DW_OP_LLVM_fragment 64 64] $r9
	.loc	5 101 30                        # crypto_onetimeauth/poly1305/donna/poly1305_donna64.h:101:30
	movq	%r14, %rax
	movq	-24(%rsp), %rdi                 # 8-byte Reload
	mulq	%rdi
	movq	%rdx, %r8
	movq	%rax, %r15
.Ltmp212:
	#DEBUG_VALUE: poly1305_blocks:d1 <- [DW_OP_LLVM_fragment 0 64] $r15
	#DEBUG_VALUE: poly1305_blocks:d1 <- [DW_OP_LLVM_fragment 64 64] $rdx
	.loc	5 102 29                        # crypto_onetimeauth/poly1305/donna/poly1305_donna64.h:102:29
	movq	%rbx, %rax
	mulq	%rcx
.Ltmp213:
	#DEBUG_VALUE: poly1305_blocks:d1 <- [DW_OP_LLVM_fragment 64 64] $r8
	movq	%rdx, %r12
	movq	%rax, %r13
.Ltmp214:
	#DEBUG_VALUE: poly1305_blocks:d <- [DW_OP_LLVM_fragment 0 64] $r13
	#DEBUG_VALUE: poly1305_blocks:d <- [DW_OP_LLVM_fragment 64 64] $r12
	.loc	5 103 12                        # crypto_onetimeauth/poly1305/donna/poly1305_donna64.h:103:12
	addq	%r15, %r13
.Ltmp215:
	#DEBUG_VALUE: poly1305_blocks:d <- [DW_OP_LLVM_fragment 0 64] $rax
	#DEBUG_VALUE: poly1305_blocks:d1 <- [DW_OP_LLVM_fragment 0 64] $r13
	adcq	%r8, %r12
.Ltmp216:
	#DEBUG_VALUE: poly1305_blocks:d <- [DW_OP_LLVM_fragment 64 64] $rdx
	#DEBUG_VALUE: poly1305_blocks:d1 <- [DW_OP_LLVM_fragment 64 64] $r12
	.loc	5 104 29                        # crypto_onetimeauth/poly1305/donna/poly1305_donna64.h:104:29
	movq	%r10, %rax
.Ltmp217:
	mulq	%rbp
.Ltmp218:
	movq	%rax, %r15
.Ltmp219:
	#DEBUG_VALUE: poly1305_blocks:d <- [DW_OP_LLVM_fragment 0 64] $r15
	#DEBUG_VALUE: poly1305_blocks:d <- [DW_OP_LLVM_fragment 64 64] $rdx
	.loc	5 105 12                        # crypto_onetimeauth/poly1305/donna/poly1305_donna64.h:105:12
	addq	%r13, %r15
.Ltmp220:
	#DEBUG_VALUE: poly1305_blocks:d <- [DW_OP_LLVM_fragment 0 64] $rax
	#DEBUG_VALUE: poly1305_blocks:d1 <- [DW_OP_LLVM_fragment 0 64] $r15
	.loc	5 104 29                        # crypto_onetimeauth/poly1305/donna/poly1305_donna64.h:104:29
	movq	%rdx, %r8
	.loc	5 105 12                        # crypto_onetimeauth/poly1305/donna/poly1305_donna64.h:105:12
	adcq	%r12, %r8
.Ltmp221:
	#DEBUG_VALUE: poly1305_blocks:d1 <- [DW_OP_LLVM_fragment 64 64] $r8
	.loc	5 106 30                        # crypto_onetimeauth/poly1305/donna/poly1305_donna64.h:106:30
	movq	%r14, %rax
.Ltmp222:
	mulq	-40(%rsp)                       # 8-byte Folded Reload
.Ltmp223:
	movq	%rdx, %r14
.Ltmp224:
	movq	%rax, %r12
.Ltmp225:
	#DEBUG_VALUE: poly1305_blocks:d2 <- [DW_OP_LLVM_fragment 0 64] undef
	#DEBUG_VALUE: poly1305_blocks:d2 <- [DW_OP_LLVM_fragment 64 64] undef
	.loc	5 107 29                        # crypto_onetimeauth/poly1305/donna/poly1305_donna64.h:107:29
	movq	%rbx, %rax
.Ltmp226:
	#DEBUG_VALUE: poly1305_blocks:d <- [DW_OP_LLVM_fragment 0 64] $r12
	mulq	%rdi
	movq	%rdx, %rbx
.Ltmp227:
	movq	%rax, %r13
.Ltmp228:
	#DEBUG_VALUE: poly1305_blocks:d <- [DW_OP_LLVM_fragment 0 64] $r13
	#DEBUG_VALUE: poly1305_blocks:d <- [DW_OP_LLVM_fragment 64 64] $rbx
	.loc	5 108 12                        # crypto_onetimeauth/poly1305/donna/poly1305_donna64.h:108:12
	addq	%r12, %r13
.Ltmp229:
	#DEBUG_VALUE: poly1305_blocks:d <- [DW_OP_LLVM_fragment 0 64] $rax
	#DEBUG_VALUE: poly1305_blocks:d2 <- [DW_OP_LLVM_fragment 0 64] $r13
	adcq	%r14, %rbx
.Ltmp230:
	#DEBUG_VALUE: poly1305_blocks:d <- [DW_OP_LLVM_fragment 64 64] $rdx
	#DEBUG_VALUE: poly1305_blocks:d2 <- [DW_OP_LLVM_fragment 64 64] $rbx
	.loc	5 109 29                        # crypto_onetimeauth/poly1305/donna/poly1305_donna64.h:109:29
	movq	%r10, %rax
.Ltmp231:
	mulq	%rcx
.Ltmp232:
	.loc	5 0 29 is_stmt 0                # crypto_onetimeauth/poly1305/donna/poly1305_donna64.h:0:29
	movq	-8(%rsp), %rcx                  # 8-byte Reload
.Ltmp233:
	#DEBUG_VALUE: poly1305_blocks:d <- [DW_OP_LLVM_fragment 0 64] $rax
	#DEBUG_VALUE: poly1305_blocks:d <- [DW_OP_LLVM_fragment 64 64] $rdx
	.loc	5 110 12 is_stmt 1              # crypto_onetimeauth/poly1305/donna/poly1305_donna64.h:110:12
	addq	%r13, %rax
.Ltmp234:
	#DEBUG_VALUE: poly1305_blocks:d2 <- [DW_OP_LLVM_fragment 0 64] $rax
	adcq	%rbx, %rdx
.Ltmp235:
	#DEBUG_VALUE: poly1305_blocks:d2 <- [DW_OP_LLVM_fragment 64 64] $rdx
	.loc	5 113 38                        # crypto_onetimeauth/poly1305/donna/poly1305_donna64.h:113:38
	shldq	$20, %r11, %r9
.Ltmp236:
	#DEBUG_VALUE: poly1305_blocks:c <- [DW_OP_LLVM_convert 128 7, DW_OP_LLVM_convert 64 7, DW_OP_stack_value, DW_OP_LLVM_fragment 0 64] $r9
	#DEBUG_VALUE: poly1305_blocks:c <- [DW_OP_LLVM_fragment 64 64] undef
	.loc	5 0 38 is_stmt 0                # crypto_onetimeauth/poly1305/donna/poly1305_donna64.h:0:38
	movabsq	$17592186044415, %r10           # imm = 0xFFFFFFFFFFF
.Ltmp237:
	.loc	5 114 40 is_stmt 1              # crypto_onetimeauth/poly1305/donna/poly1305_donna64.h:114:40
	andq	%r10, %r11
.Ltmp238:
	#DEBUG_VALUE: poly1305_blocks:h0 <- $r11
	.loc	5 115 12                        # crypto_onetimeauth/poly1305/donna/poly1305_donna64.h:115:12
	addq	%r15, %r9
.Ltmp239:
	#DEBUG_VALUE: poly1305_blocks:d1 <- [DW_OP_LLVM_fragment 0 64] $r9
	adcq	$0, %r8
.Ltmp240:
	#DEBUG_VALUE: poly1305_blocks:d1 <- [DW_OP_LLVM_fragment 64 64] $r8
	.loc	5 116 38                        # crypto_onetimeauth/poly1305/donna/poly1305_donna64.h:116:38
	shldq	$20, %r9, %r8
.Ltmp241:
	#DEBUG_VALUE: poly1305_blocks:c <- [DW_OP_LLVM_convert 128 7, DW_OP_LLVM_convert 64 7, DW_OP_stack_value, DW_OP_LLVM_fragment 0 64] $r8
	.loc	5 117 40                        # crypto_onetimeauth/poly1305/donna/poly1305_donna64.h:117:40
	andq	%r10, %r9
.Ltmp242:
	#DEBUG_VALUE: poly1305_blocks:h1 <- $r9
	.loc	5 118 12                        # crypto_onetimeauth/poly1305/donna/poly1305_donna64.h:118:12
	addq	%rax, %r8
.Ltmp243:
	#DEBUG_VALUE: poly1305_blocks:d2 <- [DW_OP_LLVM_fragment 0 64] $r8
	adcq	$0, %rdx
.Ltmp244:
	#DEBUG_VALUE: poly1305_blocks:d2 <- [DW_OP_LLVM_fragment 64 64] $rdx
	.loc	5 119 38                        # crypto_onetimeauth/poly1305/donna/poly1305_donna64.h:119:38
	shldq	$22, %r8, %rdx
.Ltmp245:
	#DEBUG_VALUE: poly1305_blocks:c <- $rdx
	#DEBUG_VALUE: poly1305_blocks:h2 <- undef
	.loc	5 121 17                        # crypto_onetimeauth/poly1305/donna/poly1305_donna64.h:121:17
	leaq	(%rdx,%rdx,4), %rdx
.Ltmp246:
	.loc	5 121 12 is_stmt 0              # crypto_onetimeauth/poly1305/donna/poly1305_donna64.h:121:12
	addq	%r11, %rdx
.Ltmp247:
	#DEBUG_VALUE: poly1305_blocks:h0 <- $rdx
	.loc	5 122 17 is_stmt 1              # crypto_onetimeauth/poly1305/donna/poly1305_donna64.h:122:17
	movq	%rdx, %rax
	shrq	$44, %rax
.Ltmp248:
	#DEBUG_VALUE: poly1305_blocks:c <- $rax
	.loc	5 124 12                        # crypto_onetimeauth/poly1305/donna/poly1305_donna64.h:124:12
	addq	%r9, %rax
.Ltmp249:
	.loc	5 120 40                        # crypto_onetimeauth/poly1305/donna/poly1305_donna64.h:120:40
	movabsq	$4398046511103, %rdi            # imm = 0x3FFFFFFFFFF
	andq	%rdi, %r8
.Ltmp250:
	#DEBUG_VALUE: poly1305_blocks:h2 <- $r8
	.loc	5 123 12                        # crypto_onetimeauth/poly1305/donna/poly1305_donna64.h:123:12
	andq	%r10, %rdx
.Ltmp251:
	#DEBUG_VALUE: poly1305_blocks:h0 <- $rdx
	#DEBUG_VALUE: poly1305_blocks:h1 <- $rax
	.loc	5 126 11                        # crypto_onetimeauth/poly1305/donna/poly1305_donna64.h:126:11
	addq	$16, %rsi
.Ltmp252:
	#DEBUG_VALUE: poly1305_blocks:m <- $rsi
	.loc	5 127 15                        # crypto_onetimeauth/poly1305/donna/poly1305_donna64.h:127:15
	addq	$-16, %rcx
.Ltmp253:
	#DEBUG_VALUE: poly1305_blocks:bytes <- $rcx
	.loc	5 84 18                         # crypto_onetimeauth/poly1305/donna/poly1305_donna64.h:84:18
	cmpq	$15, %rcx
	.loc	5 84 5 is_stmt 0                # crypto_onetimeauth/poly1305/donna/poly1305_donna64.h:84:5
	ja	.LBB7_1
.Ltmp254:
# %bb.2:
	#DEBUG_VALUE: poly1305_blocks:st <- [DW_OP_constu 64, DW_OP_minus] [$rsp+0]
	#DEBUG_VALUE: poly1305_blocks:m <- $rsi
	#DEBUG_VALUE: poly1305_blocks:bytes <- $rcx
	#DEBUG_VALUE: poly1305_blocks:hibit <- [DW_OP_constu 16, DW_OP_minus, DW_OP_deref] $rsp
	#DEBUG_VALUE: poly1305_blocks:r0 <- [DW_OP_constu 32, DW_OP_minus, DW_OP_deref] $rsp
	#DEBUG_VALUE: poly1305_blocks:r1 <- [DW_OP_constu 24, DW_OP_minus, DW_OP_deref] $rsp
	#DEBUG_VALUE: poly1305_blocks:r2 <- [DW_OP_constu 40, DW_OP_minus, DW_OP_deref] $rsp
	#DEBUG_VALUE: poly1305_blocks:h0 <- $rdx
	#DEBUG_VALUE: poly1305_blocks:h1 <- $rax
	#DEBUG_VALUE: poly1305_blocks:h2 <- $r8
	#DEBUG_VALUE: poly1305_blocks:s1 <- [DW_OP_constu 48, DW_OP_minus, DW_OP_deref] $rsp
	#DEBUG_VALUE: poly1305_blocks:s2 <- [DW_OP_constu 56, DW_OP_minus, DW_OP_deref] $rsp
	.loc	5 0 5                           # crypto_onetimeauth/poly1305/donna/poly1305_donna64.h:0:5
	movq	-64(%rsp), %rcx                 # 8-byte Reload
.Ltmp255:
	.loc	5 130 14 is_stmt 1              # crypto_onetimeauth/poly1305/donna/poly1305_donna64.h:130:14
	movq	%rdx, 24(%rcx)
	.loc	5 131 14                        # crypto_onetimeauth/poly1305/donna/poly1305_donna64.h:131:14
	movq	%rax, 32(%rcx)
	.loc	5 132 14                        # crypto_onetimeauth/poly1305/donna/poly1305_donna64.h:132:14
	movq	%r8, 40(%rcx)
	.loc	5 133 1 epilogue_begin          # crypto_onetimeauth/poly1305/donna/poly1305_donna64.h:133:1
	popq	%rbx
	.cfi_def_cfa_offset 48
	popq	%r12
	.cfi_def_cfa_offset 40
	popq	%r13
	.cfi_def_cfa_offset 32
	popq	%r14
	.cfi_def_cfa_offset 24
	popq	%r15
	.cfi_def_cfa_offset 16
	popq	%rbp
	.cfi_def_cfa_offset 8
	retq
.Ltmp256:
.Lfunc_end7:
	.size	poly1305_blocks, .Lfunc_end7-poly1305_blocks
	.cfi_endproc
                                        # -- End function
	.hidden	crypto_onetimeauth_poly1305_donna_implementation # @crypto_onetimeauth_poly1305_donna_implementation
	.type	crypto_onetimeauth_poly1305_donna_implementation,@object
	.data
	.globl	crypto_onetimeauth_poly1305_donna_implementation
	.p2align	3, 0x0
crypto_onetimeauth_poly1305_donna_implementation:
	.quad	crypto_onetimeauth_poly1305_donna
	.quad	crypto_onetimeauth_poly1305_donna_verify
	.quad	crypto_onetimeauth_poly1305_donna_init
	.quad	crypto_onetimeauth_poly1305_donna_update
	.quad	crypto_onetimeauth_poly1305_donna_final
	.size	crypto_onetimeauth_poly1305_donna_implementation, 40

	.section	".note.GNU-stack","",@progbits
	.addrsig
	.addrsig_sym crypto_onetimeauth_poly1305_donna
	.addrsig_sym crypto_onetimeauth_poly1305_donna_verify
	.addrsig_sym crypto_onetimeauth_poly1305_donna_init
	.addrsig_sym crypto_onetimeauth_poly1305_donna_update
	.addrsig_sym crypto_onetimeauth_poly1305_donna_final
	.addrsig_sym __stack_chk_fail