	.file	"pwhash_scryptsalsa208sha256_sse.c"
	.file	0 "/home/leizhenyuu/opt/Anonymous_Repo/libsodium_o2_attr_inline/src/libsodium" "pwhash_scryptsalsa208sha256_sse.c" md5 0x01230b66544f55f0f9d470fb430f3f54
	.file	1 "/usr/include/x86_64-linux-gnu/bits" "types.h"
	.file	2 "/usr/include/x86_64-linux-gnu/bits" "stdint-uintn.h"
	.file	3 "/home/leizhenyuu/opt/Anonymous_Repo" "llvm-project/build/lib/clang/21/include/__stddef_size_t.h"
	.file	4 "/home/leizhenyuu/opt/Anonymous_Repo" "llvm-project/build/lib/clang/21/include/emmintrin.h"
	.file	5 "/usr/include" "stdint.h"
	.file	6 "/home/leizhenyuu/opt/Anonymous_Repo" "llvm-project/build/lib/clang/21/include/xmmintrin.h"
	.text
	.hidden	escrypt_kdf_sse                 # -- Begin function escrypt_kdf_sse
	.globl	escrypt_kdf_sse
	.p2align	4
	.type	escrypt_kdf_sse,@function
escrypt_kdf_sse:                        # @escrypt_kdf_sse
.Lfunc_begin0:
	.file	7 "crypto_pwhash/scryptsalsa208sha256/sse" "pwhash_scryptsalsa208sha256_sse.c"
	.loc	7 313 0                         # crypto_pwhash/scryptsalsa208sha256/sse/pwhash_scryptsalsa208sha256_sse.c:313:0
	.cfi_startproc
# %bb.0:
	#DEBUG_VALUE: escrypt_kdf_sse:local <- $rdi
	#DEBUG_VALUE: escrypt_kdf_sse:passwd <- $rsi
	#DEBUG_VALUE: escrypt_kdf_sse:passwdlen <- $rdx
	#DEBUG_VALUE: escrypt_kdf_sse:salt <- $rcx
	#DEBUG_VALUE: escrypt_kdf_sse:saltlen <- $r8
	#DEBUG_VALUE: escrypt_kdf_sse:N <- $r9
	pushq	%rbp
	.cfi_def_cfa_offset 16
	pushq	%r15
	.cfi_def_cfa_offset 24
	pushq	%r14
	.cfi_def_cfa_offset 32
	pushq	%r13
	.cfi_def_cfa_offset 40
	pushq	%r12
	.cfi_def_cfa_offset 48
	pushq	%rbx
	.cfi_def_cfa_offset 56
	subq	$136, %rsp
	.cfi_def_cfa_offset 192
	.cfi_offset %rbx, -56
	.cfi_offset %r12, -48
	.cfi_offset %r13, -40
	.cfi_offset %r14, -32
	.cfi_offset %r15, -24
	.cfi_offset %rbp, -16
.Ltmp0:
	#DEBUG_VALUE: escrypt_kdf_sse:_r <- [DW_OP_plus_uconst 192] [$rsp+0]
	#DEBUG_VALUE: escrypt_kdf_sse:_p <- [DW_OP_plus_uconst 200] [$rsp+0]
	#DEBUG_VALUE: escrypt_kdf_sse:buf <- [DW_OP_plus_uconst 208] [$rsp+0]
	#DEBUG_VALUE: escrypt_kdf_sse:buflen <- [DW_OP_plus_uconst 216] [$rsp+0]
	#DEBUG_VALUE: escrypt_kdf_sse:r <- undef
	#DEBUG_VALUE: escrypt_kdf_sse:p <- undef
	movabsq	$137438953441, %rax             # imm = 0x1FFFFFFFE1
.Ltmp1:
	.loc	7 323 16 prologue_end           # crypto_pwhash/scryptsalsa208sha256/sse/pwhash_scryptsalsa208sha256_sse.c:323:16
	cmpq	%rax, 216(%rsp)
	jae	.LBB0_3
.Ltmp2:
# %bb.1:
	#DEBUG_VALUE: escrypt_kdf_sse:local <- $rdi
	#DEBUG_VALUE: escrypt_kdf_sse:passwd <- $rsi
	#DEBUG_VALUE: escrypt_kdf_sse:passwdlen <- $rdx
	#DEBUG_VALUE: escrypt_kdf_sse:salt <- $rcx
	#DEBUG_VALUE: escrypt_kdf_sse:saltlen <- $r8
	#DEBUG_VALUE: escrypt_kdf_sse:N <- $r9
	#DEBUG_VALUE: escrypt_kdf_sse:_r <- [DW_OP_plus_uconst 192] [$rsp+0]
	#DEBUG_VALUE: escrypt_kdf_sse:_p <- [DW_OP_plus_uconst 200] [$rsp+0]
	#DEBUG_VALUE: escrypt_kdf_sse:buf <- [DW_OP_plus_uconst 208] [$rsp+0]
	#DEBUG_VALUE: escrypt_kdf_sse:buflen <- [DW_OP_plus_uconst 216] [$rsp+0]
	.loc	7 0 16 is_stmt 0                # crypto_pwhash/scryptsalsa208sha256/sse/pwhash_scryptsalsa208sha256_sse.c:0:16
	movl	200(%rsp), %r15d
.Ltmp3:
	#DEBUG_VALUE: escrypt_kdf_sse:p <- $r15d
	movl	192(%rsp), %r13d
.Ltmp4:
	#DEBUG_VALUE: escrypt_kdf_sse:r <- $r13d
	.loc	7 329 23 is_stmt 1              # crypto_pwhash/scryptsalsa208sha256/sse/pwhash_scryptsalsa208sha256_sse.c:329:23
	movq	%r15, %rax
	imulq	%r13, %rax
	.loc	7 329 39 is_stmt 0              # crypto_pwhash/scryptsalsa208sha256/sse/pwhash_scryptsalsa208sha256_sse.c:329:39
	cmpq	$1073741824, %rax               # imm = 0x40000000
	jae	.LBB0_3
.Ltmp5:
# %bb.2:
	#DEBUG_VALUE: escrypt_kdf_sse:local <- $rdi
	#DEBUG_VALUE: escrypt_kdf_sse:passwd <- $rsi
	#DEBUG_VALUE: escrypt_kdf_sse:passwdlen <- $rdx
	#DEBUG_VALUE: escrypt_kdf_sse:salt <- $rcx
	#DEBUG_VALUE: escrypt_kdf_sse:saltlen <- $r8
	#DEBUG_VALUE: escrypt_kdf_sse:N <- $r9
	#DEBUG_VALUE: escrypt_kdf_sse:_r <- [DW_OP_plus_uconst 192] [$rsp+0]
	#DEBUG_VALUE: escrypt_kdf_sse:_p <- [DW_OP_plus_uconst 200] [$rsp+0]
	#DEBUG_VALUE: escrypt_kdf_sse:buf <- [DW_OP_plus_uconst 208] [$rsp+0]
	#DEBUG_VALUE: escrypt_kdf_sse:buflen <- [DW_OP_plus_uconst 216] [$rsp+0]
	#DEBUG_VALUE: escrypt_kdf_sse:r <- $r13d
	#DEBUG_VALUE: escrypt_kdf_sse:p <- $r15d
	.loc	7 333 11 is_stmt 1              # crypto_pwhash/scryptsalsa208sha256/sse/pwhash_scryptsalsa208sha256_sse.c:333:11
	movq	%r9, %rax
	shrq	$32, %rax
	je	.LBB0_6
.Ltmp6:
.LBB0_3:
	#DEBUG_VALUE: escrypt_kdf_sse:local <- $rdi
	#DEBUG_VALUE: escrypt_kdf_sse:passwd <- $rsi
	#DEBUG_VALUE: escrypt_kdf_sse:passwdlen <- $rdx
	#DEBUG_VALUE: escrypt_kdf_sse:salt <- $rcx
	#DEBUG_VALUE: escrypt_kdf_sse:saltlen <- $r8
	#DEBUG_VALUE: escrypt_kdf_sse:N <- $r9
	#DEBUG_VALUE: escrypt_kdf_sse:_r <- [DW_OP_plus_uconst 192] [$rsp+0]
	#DEBUG_VALUE: escrypt_kdf_sse:_p <- [DW_OP_plus_uconst 200] [$rsp+0]
	#DEBUG_VALUE: escrypt_kdf_sse:buf <- [DW_OP_plus_uconst 208] [$rsp+0]
	#DEBUG_VALUE: escrypt_kdf_sse:buflen <- [DW_OP_plus_uconst 216] [$rsp+0]
	.loc	7 0 0 is_stmt 0                 # crypto_pwhash/scryptsalsa208sha256/sse/pwhash_scryptsalsa208sha256_sse.c:0
	callq	__errno_location@PLT
.Ltmp7:
	#DEBUG_VALUE: escrypt_kdf_sse:N <- [DW_OP_LLVM_entry_value 1] $r9
	#DEBUG_VALUE: escrypt_kdf_sse:saltlen <- [DW_OP_LLVM_entry_value 1] $r8
	#DEBUG_VALUE: escrypt_kdf_sse:salt <- [DW_OP_LLVM_entry_value 1] $rcx
	#DEBUG_VALUE: escrypt_kdf_sse:passwdlen <- [DW_OP_LLVM_entry_value 1] $rdx
	#DEBUG_VALUE: escrypt_kdf_sse:passwd <- [DW_OP_LLVM_entry_value 1] $rsi
	#DEBUG_VALUE: escrypt_kdf_sse:local <- [DW_OP_LLVM_entry_value 1] $rdi
	movl	$27, (%rax)
.Ltmp8:
.LBB0_4:
	#DEBUG_VALUE: escrypt_kdf_sse:local <- [DW_OP_LLVM_entry_value 1] $rdi
	#DEBUG_VALUE: escrypt_kdf_sse:passwd <- [DW_OP_LLVM_entry_value 1] $rsi
	#DEBUG_VALUE: escrypt_kdf_sse:passwdlen <- [DW_OP_LLVM_entry_value 1] $rdx
	#DEBUG_VALUE: escrypt_kdf_sse:salt <- [DW_OP_LLVM_entry_value 1] $rcx
	#DEBUG_VALUE: escrypt_kdf_sse:saltlen <- [DW_OP_LLVM_entry_value 1] $r8
	#DEBUG_VALUE: escrypt_kdf_sse:N <- [DW_OP_LLVM_entry_value 1] $r9
	#DEBUG_VALUE: escrypt_kdf_sse:_r <- [DW_OP_plus_uconst 192] [$rsp+0]
	#DEBUG_VALUE: escrypt_kdf_sse:_p <- [DW_OP_plus_uconst 200] [$rsp+0]
	#DEBUG_VALUE: escrypt_kdf_sse:buf <- [DW_OP_plus_uconst 208] [$rsp+0]
	#DEBUG_VALUE: escrypt_kdf_sse:buflen <- [DW_OP_plus_uconst 216] [$rsp+0]
	movl	$-1, %eax
.Ltmp9:
.LBB0_5:
	#DEBUG_VALUE: escrypt_kdf_sse:local <- [DW_OP_LLVM_entry_value 1] $rdi
	#DEBUG_VALUE: escrypt_kdf_sse:passwd <- [DW_OP_LLVM_entry_value 1] $rsi
	#DEBUG_VALUE: escrypt_kdf_sse:passwdlen <- [DW_OP_LLVM_entry_value 1] $rdx
	#DEBUG_VALUE: escrypt_kdf_sse:salt <- [DW_OP_LLVM_entry_value 1] $rcx
	#DEBUG_VALUE: escrypt_kdf_sse:saltlen <- [DW_OP_LLVM_entry_value 1] $r8
	#DEBUG_VALUE: escrypt_kdf_sse:N <- [DW_OP_LLVM_entry_value 1] $r9
	#DEBUG_VALUE: escrypt_kdf_sse:_r <- [DW_OP_plus_uconst 192] [$rsp+0]
	#DEBUG_VALUE: escrypt_kdf_sse:_p <- [DW_OP_plus_uconst 200] [$rsp+0]
	#DEBUG_VALUE: escrypt_kdf_sse:buf <- [DW_OP_plus_uconst 208] [$rsp+0]
	#DEBUG_VALUE: escrypt_kdf_sse:buflen <- [DW_OP_plus_uconst 216] [$rsp+0]
	.loc	7 400 1 epilogue_begin is_stmt 1 # crypto_pwhash/scryptsalsa208sha256/sse/pwhash_scryptsalsa208sha256_sse.c:400:1
	addq	$136, %rsp
	.cfi_def_cfa_offset 56
	popq	%rbx
	.cfi_def_cfa_offset 48
	popq	%r12
	.cfi_def_cfa_offset 40
	popq	%r13
	.cfi_def_cfa_offset 32
	popq	%r14
	.cfi_def_cfa_offset 24
	popq	%r15
	.cfi_def_cfa_offset 16
	popq	%rbp
	.cfi_def_cfa_offset 8
	retq
.Ltmp10:
.LBB0_6:
	.cfi_def_cfa_offset 192
	#DEBUG_VALUE: escrypt_kdf_sse:local <- $rdi
	#DEBUG_VALUE: escrypt_kdf_sse:passwd <- $rsi
	#DEBUG_VALUE: escrypt_kdf_sse:passwdlen <- $rdx
	#DEBUG_VALUE: escrypt_kdf_sse:salt <- $rcx
	#DEBUG_VALUE: escrypt_kdf_sse:saltlen <- $r8
	#DEBUG_VALUE: escrypt_kdf_sse:N <- $r9
	#DEBUG_VALUE: escrypt_kdf_sse:_r <- [DW_OP_plus_uconst 192] [$rsp+0]
	#DEBUG_VALUE: escrypt_kdf_sse:_p <- [DW_OP_plus_uconst 200] [$rsp+0]
	#DEBUG_VALUE: escrypt_kdf_sse:buf <- [DW_OP_plus_uconst 208] [$rsp+0]
	#DEBUG_VALUE: escrypt_kdf_sse:buflen <- [DW_OP_plus_uconst 216] [$rsp+0]
	#DEBUG_VALUE: escrypt_kdf_sse:r <- $r13d
	#DEBUG_VALUE: escrypt_kdf_sse:p <- $r15d
	.loc	7 0 1 is_stmt 0                 # crypto_pwhash/scryptsalsa208sha256/sse/pwhash_scryptsalsa208sha256_sse.c:0:1
	cmpq	$2, %r9
.Ltmp11:
	.loc	7 337 30 is_stmt 1              # crypto_pwhash/scryptsalsa208sha256/sse/pwhash_scryptsalsa208sha256_sse.c:337:30
	jb	.LBB0_9
.Ltmp12:
# %bb.7:
	#DEBUG_VALUE: escrypt_kdf_sse:local <- $rdi
	#DEBUG_VALUE: escrypt_kdf_sse:passwd <- $rsi
	#DEBUG_VALUE: escrypt_kdf_sse:passwdlen <- $rdx
	#DEBUG_VALUE: escrypt_kdf_sse:salt <- $rcx
	#DEBUG_VALUE: escrypt_kdf_sse:saltlen <- $r8
	#DEBUG_VALUE: escrypt_kdf_sse:N <- $r9
	#DEBUG_VALUE: escrypt_kdf_sse:_r <- [DW_OP_plus_uconst 192] [$rsp+0]
	#DEBUG_VALUE: escrypt_kdf_sse:_p <- [DW_OP_plus_uconst 200] [$rsp+0]
	#DEBUG_VALUE: escrypt_kdf_sse:buf <- [DW_OP_plus_uconst 208] [$rsp+0]
	#DEBUG_VALUE: escrypt_kdf_sse:buflen <- [DW_OP_plus_uconst 216] [$rsp+0]
	#DEBUG_VALUE: escrypt_kdf_sse:r <- $r13d
	#DEBUG_VALUE: escrypt_kdf_sse:p <- $r15d
	.loc	7 337 0 is_stmt 0               # crypto_pwhash/scryptsalsa208sha256/sse/pwhash_scryptsalsa208sha256_sse.c:337
	leaq	-1(%r9), %r11
	movq	%r9, %rax
	andq	%r11, %rax
	.loc	7 337 30                        # crypto_pwhash/scryptsalsa208sha256/sse/pwhash_scryptsalsa208sha256_sse.c:337:30
	jne	.LBB0_9
.Ltmp13:
# %bb.8:
	#DEBUG_VALUE: escrypt_kdf_sse:local <- $rdi
	#DEBUG_VALUE: escrypt_kdf_sse:passwd <- $rsi
	#DEBUG_VALUE: escrypt_kdf_sse:passwdlen <- $rdx
	#DEBUG_VALUE: escrypt_kdf_sse:salt <- $rcx
	#DEBUG_VALUE: escrypt_kdf_sse:saltlen <- $r8
	#DEBUG_VALUE: escrypt_kdf_sse:N <- $r9
	#DEBUG_VALUE: escrypt_kdf_sse:_r <- [DW_OP_plus_uconst 192] [$rsp+0]
	#DEBUG_VALUE: escrypt_kdf_sse:_p <- [DW_OP_plus_uconst 200] [$rsp+0]
	#DEBUG_VALUE: escrypt_kdf_sse:buf <- [DW_OP_plus_uconst 208] [$rsp+0]
	#DEBUG_VALUE: escrypt_kdf_sse:buflen <- [DW_OP_plus_uconst 216] [$rsp+0]
	#DEBUG_VALUE: escrypt_kdf_sse:r <- $r13d
	#DEBUG_VALUE: escrypt_kdf_sse:p <- $r15d
	.loc	7 341 11 is_stmt 1              # crypto_pwhash/scryptsalsa208sha256/sse/pwhash_scryptsalsa208sha256_sse.c:341:11
	testl	%r13d, %r13d
	setne	%al
	testl	%r15d, %r15d
	setne	%r10b
	.loc	7 341 16 is_stmt 0              # crypto_pwhash/scryptsalsa208sha256/sse/pwhash_scryptsalsa208sha256_sse.c:341:16
	testb	%r10b, %al
	jne	.LBB0_10
.Ltmp14:
.LBB0_9:
	#DEBUG_VALUE: escrypt_kdf_sse:local <- $rdi
	#DEBUG_VALUE: escrypt_kdf_sse:passwd <- $rsi
	#DEBUG_VALUE: escrypt_kdf_sse:passwdlen <- $rdx
	#DEBUG_VALUE: escrypt_kdf_sse:salt <- $rcx
	#DEBUG_VALUE: escrypt_kdf_sse:saltlen <- $r8
	#DEBUG_VALUE: escrypt_kdf_sse:N <- $r9
	#DEBUG_VALUE: escrypt_kdf_sse:_r <- [DW_OP_plus_uconst 192] [$rsp+0]
	#DEBUG_VALUE: escrypt_kdf_sse:_p <- [DW_OP_plus_uconst 200] [$rsp+0]
	#DEBUG_VALUE: escrypt_kdf_sse:buf <- [DW_OP_plus_uconst 208] [$rsp+0]
	#DEBUG_VALUE: escrypt_kdf_sse:buflen <- [DW_OP_plus_uconst 216] [$rsp+0]
	#DEBUG_VALUE: escrypt_kdf_sse:r <- $r13d
	#DEBUG_VALUE: escrypt_kdf_sse:p <- $r15d
	.loc	7 0 0                           # crypto_pwhash/scryptsalsa208sha256/sse/pwhash_scryptsalsa208sha256_sse.c:0
	callq	__errno_location@PLT
.Ltmp15:
	#DEBUG_VALUE: escrypt_kdf_sse:N <- [DW_OP_LLVM_entry_value 1] $r9
	#DEBUG_VALUE: escrypt_kdf_sse:saltlen <- [DW_OP_LLVM_entry_value 1] $r8
	#DEBUG_VALUE: escrypt_kdf_sse:salt <- [DW_OP_LLVM_entry_value 1] $rcx
	#DEBUG_VALUE: escrypt_kdf_sse:passwdlen <- [DW_OP_LLVM_entry_value 1] $rdx
	#DEBUG_VALUE: escrypt_kdf_sse:passwd <- [DW_OP_LLVM_entry_value 1] $rsi
	#DEBUG_VALUE: escrypt_kdf_sse:local <- [DW_OP_LLVM_entry_value 1] $rdi
	movl	$22, (%rax)
	jmp	.LBB0_4
.Ltmp16:
.LBB0_10:
	#DEBUG_VALUE: escrypt_kdf_sse:local <- $rdi
	#DEBUG_VALUE: escrypt_kdf_sse:passwd <- $rsi
	#DEBUG_VALUE: escrypt_kdf_sse:passwdlen <- $rdx
	#DEBUG_VALUE: escrypt_kdf_sse:salt <- $rcx
	#DEBUG_VALUE: escrypt_kdf_sse:saltlen <- $r8
	#DEBUG_VALUE: escrypt_kdf_sse:N <- $r9
	#DEBUG_VALUE: escrypt_kdf_sse:_r <- [DW_OP_plus_uconst 192] [$rsp+0]
	#DEBUG_VALUE: escrypt_kdf_sse:_p <- [DW_OP_plus_uconst 200] [$rsp+0]
	#DEBUG_VALUE: escrypt_kdf_sse:buf <- [DW_OP_plus_uconst 208] [$rsp+0]
	#DEBUG_VALUE: escrypt_kdf_sse:buflen <- [DW_OP_plus_uconst 216] [$rsp+0]
	#DEBUG_VALUE: escrypt_kdf_sse:r <- $r13d
	#DEBUG_VALUE: escrypt_kdf_sse:p <- $r15d
	movq	%rdx, 40(%rsp)                  # 8-byte Spill
.Ltmp17:
	#DEBUG_VALUE: escrypt_kdf_sse:passwdlen <- [DW_OP_plus_uconst 40] [$rsp+0]
	movabsq	$144115188075855871, %rax       # imm = 0x1FFFFFFFFFFFFFF
.Ltmp18:
	.loc	7 346 45 is_stmt 1              # crypto_pwhash/scryptsalsa208sha256/sse/pwhash_scryptsalsa208sha256_sse.c:346:45
	xorl	%edx, %edx
	divq	%r15
	.loc	7 346 12 is_stmt 0              # crypto_pwhash/scryptsalsa208sha256/sse/pwhash_scryptsalsa208sha256_sse.c:346:12
	cmpq	%r13, %rax
	.loc	7 346 50                        # crypto_pwhash/scryptsalsa208sha256/sse/pwhash_scryptsalsa208sha256_sse.c:346:50
	jb	.LBB0_29
.Ltmp19:
# %bb.11:
	#DEBUG_VALUE: escrypt_kdf_sse:local <- $rdi
	#DEBUG_VALUE: escrypt_kdf_sse:passwd <- $rsi
	#DEBUG_VALUE: escrypt_kdf_sse:passwdlen <- [DW_OP_plus_uconst 40] [$rsp+0]
	#DEBUG_VALUE: escrypt_kdf_sse:salt <- $rcx
	#DEBUG_VALUE: escrypt_kdf_sse:saltlen <- $r8
	#DEBUG_VALUE: escrypt_kdf_sse:N <- $r9
	#DEBUG_VALUE: escrypt_kdf_sse:_r <- [DW_OP_plus_uconst 192] [$rsp+0]
	#DEBUG_VALUE: escrypt_kdf_sse:_p <- [DW_OP_plus_uconst 200] [$rsp+0]
	#DEBUG_VALUE: escrypt_kdf_sse:buf <- [DW_OP_plus_uconst 208] [$rsp+0]
	#DEBUG_VALUE: escrypt_kdf_sse:buflen <- [DW_OP_plus_uconst 216] [$rsp+0]
	#DEBUG_VALUE: escrypt_kdf_sse:r <- $r13d
	#DEBUG_VALUE: escrypt_kdf_sse:p <- $r15d
	.loc	7 0 50                          # crypto_pwhash/scryptsalsa208sha256/sse/pwhash_scryptsalsa208sha256_sse.c:0:50
	movabsq	$144115188075855871, %rax       # imm = 0x1FFFFFFFFFFFFFF
	.loc	7 350 45 is_stmt 1              # crypto_pwhash/scryptsalsa208sha256/sse/pwhash_scryptsalsa208sha256_sse.c:350:45
	xorl	%edx, %edx
	divq	%r13
	.loc	7 350 12 is_stmt 0              # crypto_pwhash/scryptsalsa208sha256/sse/pwhash_scryptsalsa208sha256_sse.c:350:12
	cmpq	%rax, %r9
	.loc	7 346 50 is_stmt 1              # crypto_pwhash/scryptsalsa208sha256/sse/pwhash_scryptsalsa208sha256_sse.c:346:50
	ja	.LBB0_29
.Ltmp20:
# %bb.12:
	#DEBUG_VALUE: escrypt_kdf_sse:local <- $rdi
	#DEBUG_VALUE: escrypt_kdf_sse:passwd <- $rsi
	#DEBUG_VALUE: escrypt_kdf_sse:passwdlen <- [DW_OP_plus_uconst 40] [$rsp+0]
	#DEBUG_VALUE: escrypt_kdf_sse:salt <- $rcx
	#DEBUG_VALUE: escrypt_kdf_sse:saltlen <- $r8
	#DEBUG_VALUE: escrypt_kdf_sse:N <- $r9
	#DEBUG_VALUE: escrypt_kdf_sse:_r <- [DW_OP_plus_uconst 192] [$rsp+0]
	#DEBUG_VALUE: escrypt_kdf_sse:_p <- [DW_OP_plus_uconst 200] [$rsp+0]
	#DEBUG_VALUE: escrypt_kdf_sse:buf <- [DW_OP_plus_uconst 208] [$rsp+0]
	#DEBUG_VALUE: escrypt_kdf_sse:buflen <- [DW_OP_plus_uconst 216] [$rsp+0]
	#DEBUG_VALUE: escrypt_kdf_sse:r <- $r13d
	#DEBUG_VALUE: escrypt_kdf_sse:p <- $r15d
	.loc	7 357 27                        # crypto_pwhash/scryptsalsa208sha256/sse/pwhash_scryptsalsa208sha256_sse.c:357:27
	movq	%r13, %rbp
	shlq	$7, %rbp
	.loc	7 357 31 is_stmt 0              # crypto_pwhash/scryptsalsa208sha256/sse/pwhash_scryptsalsa208sha256_sse.c:357:31
	movq	%rbp, %r12
	imulq	%r15, %r12
.Ltmp21:
	#DEBUG_VALUE: escrypt_kdf_sse:B_size <- $r12
	.loc	7 358 31 is_stmt 1              # crypto_pwhash/scryptsalsa208sha256/sse/pwhash_scryptsalsa208sha256_sse.c:358:31
	movq	%rbp, %r14
	imulq	%r9, %r14
.Ltmp22:
	#DEBUG_VALUE: escrypt_kdf_sse:V_size <- $r14
	.loc	7 359 19                        # crypto_pwhash/scryptsalsa208sha256/sse/pwhash_scryptsalsa208sha256_sse.c:359:19
	movq	%r12, %rax
	addq	%r14, %rax
.Ltmp23:
	#DEBUG_VALUE: escrypt_kdf_sse:need <- $rax
	.loc	7 361 14                        # crypto_pwhash/scryptsalsa208sha256/sse/pwhash_scryptsalsa208sha256_sse.c:361:14
	jb	.LBB0_29
.Ltmp24:
# %bb.13:
	#DEBUG_VALUE: escrypt_kdf_sse:local <- $rdi
	#DEBUG_VALUE: escrypt_kdf_sse:passwd <- $rsi
	#DEBUG_VALUE: escrypt_kdf_sse:passwdlen <- [DW_OP_plus_uconst 40] [$rsp+0]
	#DEBUG_VALUE: escrypt_kdf_sse:salt <- $rcx
	#DEBUG_VALUE: escrypt_kdf_sse:saltlen <- $r8
	#DEBUG_VALUE: escrypt_kdf_sse:N <- $r9
	#DEBUG_VALUE: escrypt_kdf_sse:_r <- [DW_OP_plus_uconst 192] [$rsp+0]
	#DEBUG_VALUE: escrypt_kdf_sse:_p <- [DW_OP_plus_uconst 200] [$rsp+0]
	#DEBUG_VALUE: escrypt_kdf_sse:buf <- [DW_OP_plus_uconst 208] [$rsp+0]
	#DEBUG_VALUE: escrypt_kdf_sse:buflen <- [DW_OP_plus_uconst 216] [$rsp+0]
	#DEBUG_VALUE: escrypt_kdf_sse:r <- $r13d
	#DEBUG_VALUE: escrypt_kdf_sse:p <- $r15d
	#DEBUG_VALUE: escrypt_kdf_sse:B_size <- $r12
	#DEBUG_VALUE: escrypt_kdf_sse:V_size <- $r14
	#DEBUG_VALUE: escrypt_kdf_sse:need <- $rax
	.loc	7 366 28                        # crypto_pwhash/scryptsalsa208sha256/sse/pwhash_scryptsalsa208sha256_sse.c:366:28
	movq	%r13, %r10
	shlq	$8, %r10
.Ltmp25:
	#DEBUG_VALUE: escrypt_kdf_sse:XY_size <- undef
	.loc	7 367 10                        # crypto_pwhash/scryptsalsa208sha256/sse/pwhash_scryptsalsa208sha256_sse.c:367:10
	leaq	(%rax,%r10), %rbx
	addq	$64, %rbx
.Ltmp26:
	#DEBUG_VALUE: escrypt_kdf_sse:need <- $rbx
	.loc	7 369 14                        # crypto_pwhash/scryptsalsa208sha256/sse/pwhash_scryptsalsa208sha256_sse.c:369:14
	cmpq	%r10, %rbx
	jbe	.LBB0_29
.Ltmp27:
# %bb.14:
	#DEBUG_VALUE: escrypt_kdf_sse:local <- $rdi
	#DEBUG_VALUE: escrypt_kdf_sse:passwd <- $rsi
	#DEBUG_VALUE: escrypt_kdf_sse:passwdlen <- [DW_OP_plus_uconst 40] [$rsp+0]
	#DEBUG_VALUE: escrypt_kdf_sse:salt <- $rcx
	#DEBUG_VALUE: escrypt_kdf_sse:saltlen <- $r8
	#DEBUG_VALUE: escrypt_kdf_sse:N <- $r9
	#DEBUG_VALUE: escrypt_kdf_sse:_r <- [DW_OP_plus_uconst 192] [$rsp+0]
	#DEBUG_VALUE: escrypt_kdf_sse:_p <- [DW_OP_plus_uconst 200] [$rsp+0]
	#DEBUG_VALUE: escrypt_kdf_sse:buf <- [DW_OP_plus_uconst 208] [$rsp+0]
	#DEBUG_VALUE: escrypt_kdf_sse:buflen <- [DW_OP_plus_uconst 216] [$rsp+0]
	#DEBUG_VALUE: escrypt_kdf_sse:r <- $r13d
	#DEBUG_VALUE: escrypt_kdf_sse:p <- $r15d
	#DEBUG_VALUE: escrypt_kdf_sse:B_size <- $r12
	#DEBUG_VALUE: escrypt_kdf_sse:V_size <- $r14
	#DEBUG_VALUE: escrypt_kdf_sse:need <- $rbx
	.loc	7 0 14 is_stmt 0                # crypto_pwhash/scryptsalsa208sha256/sse/pwhash_scryptsalsa208sha256_sse.c:0:14
	movq	%r10, 128(%rsp)                 # 8-byte Spill
	movq	%r11, 56(%rsp)                  # 8-byte Spill
	movq	%r9, 48(%rsp)                   # 8-byte Spill
.Ltmp28:
	#DEBUG_VALUE: escrypt_kdf_sse:N <- [DW_OP_plus_uconst 48] [$rsp+0]
	movq	%r8, 24(%rsp)                   # 8-byte Spill
.Ltmp29:
	#DEBUG_VALUE: escrypt_kdf_sse:saltlen <- [DW_OP_plus_uconst 24] [$rsp+0]
	.loc	7 374 21 is_stmt 1              # crypto_pwhash/scryptsalsa208sha256/sse/pwhash_scryptsalsa208sha256_sse.c:374:21
	cmpq	%rbx, 16(%rdi)
	movq	%rbp, 8(%rsp)                   # 8-byte Spill
	jae	.LBB0_17
.Ltmp30:
# %bb.15:
	#DEBUG_VALUE: escrypt_kdf_sse:local <- $rdi
	#DEBUG_VALUE: escrypt_kdf_sse:passwd <- $rsi
	#DEBUG_VALUE: escrypt_kdf_sse:passwdlen <- [DW_OP_plus_uconst 40] [$rsp+0]
	#DEBUG_VALUE: escrypt_kdf_sse:salt <- $rcx
	#DEBUG_VALUE: escrypt_kdf_sse:saltlen <- [DW_OP_plus_uconst 24] [$rsp+0]
	#DEBUG_VALUE: escrypt_kdf_sse:N <- [DW_OP_plus_uconst 48] [$rsp+0]
	#DEBUG_VALUE: escrypt_kdf_sse:_r <- [DW_OP_plus_uconst 192] [$rsp+0]
	#DEBUG_VALUE: escrypt_kdf_sse:_p <- [DW_OP_plus_uconst 200] [$rsp+0]
	#DEBUG_VALUE: escrypt_kdf_sse:buf <- [DW_OP_plus_uconst 208] [$rsp+0]
	#DEBUG_VALUE: escrypt_kdf_sse:buflen <- [DW_OP_plus_uconst 216] [$rsp+0]
	#DEBUG_VALUE: escrypt_kdf_sse:r <- $r13d
	#DEBUG_VALUE: escrypt_kdf_sse:p <- $r15d
	#DEBUG_VALUE: escrypt_kdf_sse:B_size <- $r12
	#DEBUG_VALUE: escrypt_kdf_sse:V_size <- $r14
	#DEBUG_VALUE: escrypt_kdf_sse:need <- $rbx
	.loc	7 0 21 is_stmt 0                # crypto_pwhash/scryptsalsa208sha256/sse/pwhash_scryptsalsa208sha256_sse.c:0:21
	movq	%rcx, %r13
.Ltmp31:
	#DEBUG_VALUE: escrypt_kdf_sse:salt <- $r13
	movq	%rsi, %rbp
.Ltmp32:
	#DEBUG_VALUE: escrypt_kdf_sse:passwd <- $rbp
	movq	%rdi, %r15
.Ltmp33:
	.loc	7 375 13 is_stmt 1              # crypto_pwhash/scryptsalsa208sha256/sse/pwhash_scryptsalsa208sha256_sse.c:375:13
	callq	escrypt_free_region@PLT
.Ltmp34:
	#DEBUG_VALUE: escrypt_kdf_sse:local <- $r15
	movl	%eax, %ecx
	movl	$-1, %eax
	testl	%ecx, %ecx
	jne	.LBB0_5
.Ltmp35:
# %bb.16:
	#DEBUG_VALUE: escrypt_kdf_sse:local <- $r15
	#DEBUG_VALUE: escrypt_kdf_sse:passwd <- $rbp
	#DEBUG_VALUE: escrypt_kdf_sse:passwdlen <- [DW_OP_plus_uconst 40] [$rsp+0]
	#DEBUG_VALUE: escrypt_kdf_sse:salt <- $r13
	#DEBUG_VALUE: escrypt_kdf_sse:saltlen <- [DW_OP_plus_uconst 24] [$rsp+0]
	#DEBUG_VALUE: escrypt_kdf_sse:N <- [DW_OP_plus_uconst 48] [$rsp+0]
	#DEBUG_VALUE: escrypt_kdf_sse:_r <- [DW_OP_plus_uconst 192] [$rsp+0]
	#DEBUG_VALUE: escrypt_kdf_sse:_p <- [DW_OP_plus_uconst 200] [$rsp+0]
	#DEBUG_VALUE: escrypt_kdf_sse:buf <- [DW_OP_plus_uconst 208] [$rsp+0]
	#DEBUG_VALUE: escrypt_kdf_sse:buflen <- [DW_OP_plus_uconst 216] [$rsp+0]
	#DEBUG_VALUE: escrypt_kdf_sse:B_size <- $r12
	#DEBUG_VALUE: escrypt_kdf_sse:V_size <- $r14
	#DEBUG_VALUE: escrypt_kdf_sse:need <- $rbx
	.loc	7 378 14                        # crypto_pwhash/scryptsalsa208sha256/sse/pwhash_scryptsalsa208sha256_sse.c:378:14
	movq	%r15, %rdi
	movq	%rbx, %rsi
	callq	escrypt_alloc_region@PLT
.Ltmp36:
	.loc	7 0 14 is_stmt 0                # crypto_pwhash/scryptsalsa208sha256/sse/pwhash_scryptsalsa208sha256_sse.c:0:14
	movq	%r15, %rdi
	.loc	7 378 14                        # crypto_pwhash/scryptsalsa208sha256/sse/pwhash_scryptsalsa208sha256_sse.c:378:14
	movq	%rax, %rcx
	movl	$-1, %eax
	testq	%rcx, %rcx
	movq	%rbp, %rsi
	movq	%r13, %rcx
	movl	200(%rsp), %r15d
.Ltmp37:
	#DEBUG_VALUE: escrypt_kdf_sse:local <- $rdi
	.loc	7 0 14                          # crypto_pwhash/scryptsalsa208sha256/sse/pwhash_scryptsalsa208sha256_sse.c:0:14
	movl	192(%rsp), %r13d
.Ltmp38:
	#DEBUG_VALUE: escrypt_kdf_sse:salt <- $rcx
	movq	8(%rsp), %rbp                   # 8-byte Reload
.Ltmp39:
	.loc	7 378 13                        # crypto_pwhash/scryptsalsa208sha256/sse/pwhash_scryptsalsa208sha256_sse.c:378:13
	je	.LBB0_5
.Ltmp40:
.LBB0_17:                               # %.lr.ph
	#DEBUG_VALUE: escrypt_kdf_sse:local <- [DW_OP_LLVM_entry_value 1] $rdi
	#DEBUG_VALUE: escrypt_kdf_sse:passwd <- [DW_OP_LLVM_entry_value 1] $rsi
	#DEBUG_VALUE: escrypt_kdf_sse:passwdlen <- [DW_OP_plus_uconst 40] [$rsp+0]
	#DEBUG_VALUE: escrypt_kdf_sse:salt <- [DW_OP_LLVM_entry_value 1] $rcx
	#DEBUG_VALUE: escrypt_kdf_sse:saltlen <- [DW_OP_plus_uconst 24] [$rsp+0]
	#DEBUG_VALUE: escrypt_kdf_sse:N <- [DW_OP_plus_uconst 48] [$rsp+0]
	#DEBUG_VALUE: escrypt_kdf_sse:_r <- [DW_OP_plus_uconst 192] [$rsp+0]
	#DEBUG_VALUE: escrypt_kdf_sse:_p <- [DW_OP_plus_uconst 200] [$rsp+0]
	#DEBUG_VALUE: escrypt_kdf_sse:buf <- [DW_OP_plus_uconst 208] [$rsp+0]
	#DEBUG_VALUE: escrypt_kdf_sse:buflen <- [DW_OP_plus_uconst 216] [$rsp+0]
	#DEBUG_VALUE: escrypt_kdf_sse:B_size <- $r12
	#DEBUG_VALUE: escrypt_kdf_sse:V_size <- $r14
	#DEBUG_VALUE: escrypt_kdf_sse:need <- $rbx
	.loc	7 382 28 is_stmt 1              # crypto_pwhash/scryptsalsa208sha256/sse/pwhash_scryptsalsa208sha256_sse.c:382:28
	movq	8(%rdi), %r9
.Ltmp41:
	#DEBUG_VALUE: escrypt_kdf_sse:B <- $r9
	.loc	7 383 37                        # crypto_pwhash/scryptsalsa208sha256/sse/pwhash_scryptsalsa208sha256_sse.c:383:37
	leaq	(%r9,%r12), %rax
.Ltmp42:
	#DEBUG_VALUE: escrypt_kdf_sse:V <- $rax
	.loc	7 0 37 is_stmt 0                # crypto_pwhash/scryptsalsa208sha256/sse/pwhash_scryptsalsa208sha256_sse.c:0:37
	movq	%rax, 16(%rsp)                  # 8-byte Spill
.Ltmp43:
	#DEBUG_VALUE: escrypt_kdf_sse:V <- [DW_OP_plus_uconst 16, DW_OP_deref] $rsp
	.loc	7 384 38 is_stmt 1              # crypto_pwhash/scryptsalsa208sha256/sse/pwhash_scryptsalsa208sha256_sse.c:384:38
	addq	%rax, %r14
.Ltmp44:
	#DEBUG_VALUE: escrypt_kdf_sse:XY <- $r14
	.loc	7 387 5                         # crypto_pwhash/scryptsalsa208sha256/sse/pwhash_scryptsalsa208sha256_sse.c:387:5
	movq	%r12, (%rsp)
	movl	$1, %r8d
	movq	%rsi, 64(%rsp)                  # 8-byte Spill
	movq	%rsi, %rdi
	movq	40(%rsp), %rsi                  # 8-byte Reload
	movq	%rcx, %rdx
	movq	24(%rsp), %rcx                  # 8-byte Reload
	movq	%r14, %rbx
.Ltmp45:
	#DEBUG_VALUE: escrypt_kdf_sse:XY <- $rbx
	.loc	7 0 5 is_stmt 0                 # crypto_pwhash/scryptsalsa208sha256/sse/pwhash_scryptsalsa208sha256_sse.c:0:5
	movq	%r9, %r14
	.loc	7 387 5                         # crypto_pwhash/scryptsalsa208sha256/sse/pwhash_scryptsalsa208sha256_sse.c:387:5
	callq	escrypt_PBKDF2_SHA256@PLT
.Ltmp46:
	#DEBUG_VALUE: escrypt_kdf_sse:B <- $r14
	#DEBUG_VALUE: escrypt_kdf_sse:i <- 0
	.loc	7 0 5                           # crypto_pwhash/scryptsalsa208sha256/sse/pwhash_scryptsalsa208sha256_sse.c:0:5
	leaq	(,%r13,2), %rdi
	leaq	(%rbx,%rbp), %rcx
.Ltmp47:
	.loc	7 390 5 is_stmt 1               # crypto_pwhash/scryptsalsa208sha256/sse/pwhash_scryptsalsa208sha256_sse.c:390:5
	movq	%r15, %rax
	shlq	$7, %rax
	leaq	256(%rax), %rdx
	imulq	%r13, %rdx
	addq	%r14, %rdx
	movq	%rdx, 80(%rsp)                  # 8-byte Spill
	leaq	128(%rax), %rdx
	imulq	%r13, %rdx
	addq	%r14, %rdx
	movq	%rdx, 72(%rsp)                  # 8-byte Spill
	movq	48(%rsp), %r8                   # 8-byte Reload
	movq	%r8, %r10
	shlq	$7, %r10
	addq	%rax, %r10
	imulq	%r13, %r10
	movl	$60, %r13d
	xorl	%eax, %eax
	movq	%rbx, 32(%rsp)                  # 8-byte Spill
.Ltmp48:
	#DEBUG_VALUE: escrypt_kdf_sse:XY <- [DW_OP_plus_uconst 32, DW_OP_deref] $rsp
	#DEBUG_VALUE: escrypt_kdf_sse:need <- [DW_OP_plus_uconst 32, DW_OP_deref] $rsp
	.loc	7 0 5 is_stmt 0                 # crypto_pwhash/scryptsalsa208sha256/sse/pwhash_scryptsalsa208sha256_sse.c:0:5
	movq	%r14, 112(%rsp)                 # 8-byte Spill
.Ltmp49:
	#DEBUG_VALUE: escrypt_kdf_sse:B <- [DW_OP_plus_uconst 112, DW_OP_deref] $rsp
	movq	%rdi, 104(%rsp)                 # 8-byte Spill
	movq	%rcx, 24(%rsp)                  # 8-byte Spill
.Ltmp50:
	#DEBUG_VALUE: escrypt_kdf_sse:saltlen <- undef
	movq	%r12, 96(%rsp)                  # 8-byte Spill
.Ltmp51:
	#DEBUG_VALUE: escrypt_kdf_sse:B_size <- [DW_OP_plus_uconst 96, DW_OP_deref] $rsp
	movq	%r10, 88(%rsp)                  # 8-byte Spill
.Ltmp52:
.LBB0_18:                               # =>This Loop Header: Depth=1
                                        #     Child Loop BB0_19 Depth 2
                                        #     Child Loop BB0_22 Depth 2
                                        #     Child Loop BB0_24 Depth 2
                                        #     Child Loop BB0_26 Depth 2
	#DEBUG_VALUE: escrypt_kdf_sse:local <- [DW_OP_LLVM_entry_value 1] $rdi
	#DEBUG_VALUE: escrypt_kdf_sse:passwd <- [DW_OP_LLVM_entry_value 1] $rsi
	#DEBUG_VALUE: escrypt_kdf_sse:passwdlen <- [DW_OP_plus_uconst 40] [$rsp+0]
	#DEBUG_VALUE: escrypt_kdf_sse:salt <- [DW_OP_LLVM_entry_value 1] $rcx
	#DEBUG_VALUE: escrypt_kdf_sse:saltlen <- [DW_OP_LLVM_entry_value 1] $r8
	#DEBUG_VALUE: escrypt_kdf_sse:N <- [DW_OP_plus_uconst 48] [$rsp+0]
	#DEBUG_VALUE: escrypt_kdf_sse:_r <- [DW_OP_plus_uconst 192] [$rsp+0]
	#DEBUG_VALUE: escrypt_kdf_sse:_p <- [DW_OP_plus_uconst 200] [$rsp+0]
	#DEBUG_VALUE: escrypt_kdf_sse:buf <- [DW_OP_plus_uconst 208] [$rsp+0]
	#DEBUG_VALUE: escrypt_kdf_sse:buflen <- [DW_OP_plus_uconst 216] [$rsp+0]
	#DEBUG_VALUE: escrypt_kdf_sse:B_size <- [DW_OP_plus_uconst 96, DW_OP_deref] $rsp
	#DEBUG_VALUE: escrypt_kdf_sse:B <- [DW_OP_plus_uconst 112, DW_OP_deref] $rsp
	#DEBUG_VALUE: escrypt_kdf_sse:V <- [DW_OP_plus_uconst 16, DW_OP_deref] $rsp
	#DEBUG_VALUE: escrypt_kdf_sse:XY <- [DW_OP_plus_uconst 32, DW_OP_deref] $rsp
	#DEBUG_VALUE: escrypt_kdf_sse:i <- $rax
	#DEBUG_VALUE: smix:B <- [DW_OP_LLVM_arg 0, DW_OP_plus_uconst 112, DW_OP_deref, DW_OP_LLVM_arg 1, DW_OP_plus_uconst 8, DW_OP_deref, DW_OP_LLVM_arg 2, DW_OP_mul, DW_OP_plus, DW_OP_stack_value] $rsp, $rsp, $rax
	#DEBUG_VALUE: smix:r <- undef
	#DEBUG_VALUE: smix:N <- [DW_OP_plus_uconst 48, DW_OP_deref] $rsp
	#DEBUG_VALUE: smix:V <- [DW_OP_plus_uconst 16, DW_OP_deref] $rsp
	#DEBUG_VALUE: smix:XY <- [DW_OP_plus_uconst 32, DW_OP_deref] $rsp
	#DEBUG_VALUE: smix:s <- [DW_OP_plus_uconst 8, DW_OP_deref] $rsp
	#DEBUG_VALUE: smix:X <- [DW_OP_plus_uconst 16, DW_OP_deref] $rsp
	#DEBUG_VALUE: smix:X32 <- [DW_OP_plus_uconst 16, DW_OP_deref] $rsp
	#DEBUG_VALUE: smix:k <- 0
	movq	%rax, 120(%rsp)                 # 8-byte Spill
	#DEBUG_VALUE: smix:B <- [DW_OP_LLVM_arg 0, DW_OP_plus_uconst 112, DW_OP_deref, DW_OP_LLVM_arg 1, DW_OP_plus_uconst 8, DW_OP_deref, DW_OP_LLVM_arg 2, DW_OP_plus_uconst 120, DW_OP_deref, DW_OP_mul, DW_OP_plus, DW_OP_stack_value] $rsp, $rsp, $rsp
.Ltmp53:
	#DEBUG_VALUE: escrypt_kdf_sse:i <- [DW_OP_plus_uconst 120, DW_OP_deref_size 8, DW_OP_stack_value] $rsp
	movq	%r14, %rax
	movq	%rdi, %rcx
.Ltmp54:
	.p2align	4
.LBB0_19:                               # %.preheader82.i
                                        #   Parent Loop BB0_18 Depth=1
                                        # =>  This Inner Loop Header: Depth=2
	#DEBUG_VALUE: escrypt_kdf_sse:local <- [DW_OP_LLVM_entry_value 1] $rdi
	#DEBUG_VALUE: escrypt_kdf_sse:passwd <- [DW_OP_LLVM_entry_value 1] $rsi
	#DEBUG_VALUE: escrypt_kdf_sse:passwdlen <- [DW_OP_plus_uconst 40] [$rsp+0]
	#DEBUG_VALUE: escrypt_kdf_sse:salt <- [DW_OP_LLVM_entry_value 1] $rcx
	#DEBUG_VALUE: escrypt_kdf_sse:saltlen <- [DW_OP_LLVM_entry_value 1] $r8
	#DEBUG_VALUE: escrypt_kdf_sse:N <- [DW_OP_plus_uconst 48] [$rsp+0]
	#DEBUG_VALUE: escrypt_kdf_sse:_r <- [DW_OP_plus_uconst 192] [$rsp+0]
	#DEBUG_VALUE: escrypt_kdf_sse:_p <- [DW_OP_plus_uconst 200] [$rsp+0]
	#DEBUG_VALUE: escrypt_kdf_sse:buf <- [DW_OP_plus_uconst 208] [$rsp+0]
	#DEBUG_VALUE: escrypt_kdf_sse:buflen <- [DW_OP_plus_uconst 216] [$rsp+0]
	#DEBUG_VALUE: escrypt_kdf_sse:B_size <- [DW_OP_plus_uconst 96, DW_OP_deref] $rsp
	#DEBUG_VALUE: escrypt_kdf_sse:B <- [DW_OP_plus_uconst 112, DW_OP_deref] $rsp
	#DEBUG_VALUE: escrypt_kdf_sse:V <- [DW_OP_plus_uconst 16, DW_OP_deref] $rsp
	#DEBUG_VALUE: escrypt_kdf_sse:XY <- [DW_OP_plus_uconst 32, DW_OP_deref] $rsp
	#DEBUG_VALUE: escrypt_kdf_sse:i <- [DW_OP_plus_uconst 120, DW_OP_deref_size 8, DW_OP_stack_value] $rsp
	#DEBUG_VALUE: smix:B <- [DW_OP_LLVM_arg 0, DW_OP_plus_uconst 112, DW_OP_deref, DW_OP_LLVM_arg 1, DW_OP_plus_uconst 8, DW_OP_deref, DW_OP_LLVM_arg 2, DW_OP_plus_uconst 120, DW_OP_deref, DW_OP_mul, DW_OP_plus, DW_OP_stack_value] $rsp, $rsp, $rsp
	#DEBUG_VALUE: smix:N <- [DW_OP_plus_uconst 48, DW_OP_deref] $rsp
	#DEBUG_VALUE: smix:V <- [DW_OP_plus_uconst 16, DW_OP_deref] $rsp
	#DEBUG_VALUE: smix:XY <- [DW_OP_plus_uconst 32, DW_OP_deref] $rsp
	#DEBUG_VALUE: smix:s <- [DW_OP_plus_uconst 8, DW_OP_deref] $rsp
	#DEBUG_VALUE: smix:X <- [DW_OP_plus_uconst 16, DW_OP_deref] $rsp
	#DEBUG_VALUE: smix:X32 <- [DW_OP_plus_uconst 16, DW_OP_deref] $rsp
	#DEBUG_VALUE: smix:k <- [DW_OP_LLVM_arg 0, DW_OP_consts 2, DW_OP_LLVM_arg 1, DW_OP_LLVM_convert 64 7, DW_OP_mul, DW_OP_minus, DW_OP_consts 18446744073709551615, DW_OP_div, DW_OP_stack_value] undef, undef
	#DEBUG_VALUE: smix:i <- 0
	#DEBUG_VALUE: load32_le:w <- undef
	#DEBUG_VALUE: load32_le:src <- undef
	#DEBUG_VALUE: memcpy:__dest <- undef
	#DEBUG_VALUE: memcpy:__src <- undef
	#DEBUG_VALUE: memcpy:__len <- 4
	.file	8 "/usr/include/x86_64-linux-gnu/bits" "string_fortified.h"
	.loc	8 29 10 is_stmt 1               # /usr/include/x86_64-linux-gnu/bits/string_fortified.h:29:10 @[ ./include/sodium/private/common.h:106:5 @[ crypto_pwhash/scryptsalsa208sha256/sse/pwhash_scryptsalsa208sha256_sse.c:244:31 @[ crypto_pwhash/scryptsalsa208sha256/sse/pwhash_scryptsalsa208sha256_sse.c:392:9 ] ] ]
	movl	-60(%rax,%r13), %edx
.Ltmp55:
	.loc	7 244 29                        # crypto_pwhash/scryptsalsa208sha256/sse/pwhash_scryptsalsa208sha256_sse.c:244:29 @[ crypto_pwhash/scryptsalsa208sha256/sse/pwhash_scryptsalsa208sha256_sse.c:392:9 ]
	movl	%edx, (%rax,%r12)
.Ltmp56:
	#DEBUG_VALUE: smix:i <- 1
	.loc	8 29 10                         # /usr/include/x86_64-linux-gnu/bits/string_fortified.h:29:10 @[ ./include/sodium/private/common.h:106:5 @[ crypto_pwhash/scryptsalsa208sha256/sse/pwhash_scryptsalsa208sha256_sse.c:244:31 @[ crypto_pwhash/scryptsalsa208sha256/sse/pwhash_scryptsalsa208sha256_sse.c:392:9 ] ] ]
	movl	-40(%rax,%r13), %edx
.Ltmp57:
	.loc	7 244 29                        # crypto_pwhash/scryptsalsa208sha256/sse/pwhash_scryptsalsa208sha256_sse.c:244:29 @[ crypto_pwhash/scryptsalsa208sha256/sse/pwhash_scryptsalsa208sha256_sse.c:392:9 ]
	movl	%edx, 4(%rax,%r12)
.Ltmp58:
	#DEBUG_VALUE: smix:i <- 2
	.loc	8 29 10                         # /usr/include/x86_64-linux-gnu/bits/string_fortified.h:29:10 @[ ./include/sodium/private/common.h:106:5 @[ crypto_pwhash/scryptsalsa208sha256/sse/pwhash_scryptsalsa208sha256_sse.c:244:31 @[ crypto_pwhash/scryptsalsa208sha256/sse/pwhash_scryptsalsa208sha256_sse.c:392:9 ] ] ]
	movl	-20(%rax,%r13), %edx
.Ltmp59:
	.loc	7 244 29                        # crypto_pwhash/scryptsalsa208sha256/sse/pwhash_scryptsalsa208sha256_sse.c:244:29 @[ crypto_pwhash/scryptsalsa208sha256/sse/pwhash_scryptsalsa208sha256_sse.c:392:9 ]
	movl	%edx, 8(%rax,%r12)
.Ltmp60:
	#DEBUG_VALUE: smix:i <- 3
	.loc	8 29 10                         # /usr/include/x86_64-linux-gnu/bits/string_fortified.h:29:10 @[ ./include/sodium/private/common.h:106:5 @[ crypto_pwhash/scryptsalsa208sha256/sse/pwhash_scryptsalsa208sha256_sse.c:244:31 @[ crypto_pwhash/scryptsalsa208sha256/sse/pwhash_scryptsalsa208sha256_sse.c:392:9 ] ] ]
	movl	(%rax,%r13), %edx
.Ltmp61:
	.loc	7 244 29                        # crypto_pwhash/scryptsalsa208sha256/sse/pwhash_scryptsalsa208sha256_sse.c:244:29 @[ crypto_pwhash/scryptsalsa208sha256/sse/pwhash_scryptsalsa208sha256_sse.c:392:9 ]
	movl	%edx, 12(%rax,%r12)
.Ltmp62:
	#DEBUG_VALUE: smix:i <- 4
	.loc	8 29 10                         # /usr/include/x86_64-linux-gnu/bits/string_fortified.h:29:10 @[ ./include/sodium/private/common.h:106:5 @[ crypto_pwhash/scryptsalsa208sha256/sse/pwhash_scryptsalsa208sha256_sse.c:244:31 @[ crypto_pwhash/scryptsalsa208sha256/sse/pwhash_scryptsalsa208sha256_sse.c:392:9 ] ] ]
	movl	-44(%rax,%r13), %edx
.Ltmp63:
	.loc	7 244 29                        # crypto_pwhash/scryptsalsa208sha256/sse/pwhash_scryptsalsa208sha256_sse.c:244:29 @[ crypto_pwhash/scryptsalsa208sha256/sse/pwhash_scryptsalsa208sha256_sse.c:392:9 ]
	movl	%edx, 16(%rax,%r12)
.Ltmp64:
	#DEBUG_VALUE: smix:i <- 5
	.loc	8 29 10                         # /usr/include/x86_64-linux-gnu/bits/string_fortified.h:29:10 @[ ./include/sodium/private/common.h:106:5 @[ crypto_pwhash/scryptsalsa208sha256/sse/pwhash_scryptsalsa208sha256_sse.c:244:31 @[ crypto_pwhash/scryptsalsa208sha256/sse/pwhash_scryptsalsa208sha256_sse.c:392:9 ] ] ]
	movl	-24(%rax,%r13), %edx
.Ltmp65:
	.loc	7 244 29                        # crypto_pwhash/scryptsalsa208sha256/sse/pwhash_scryptsalsa208sha256_sse.c:244:29 @[ crypto_pwhash/scryptsalsa208sha256/sse/pwhash_scryptsalsa208sha256_sse.c:392:9 ]
	movl	%edx, 20(%rax,%r12)
.Ltmp66:
	#DEBUG_VALUE: smix:i <- 6
	.loc	8 29 10                         # /usr/include/x86_64-linux-gnu/bits/string_fortified.h:29:10 @[ ./include/sodium/private/common.h:106:5 @[ crypto_pwhash/scryptsalsa208sha256/sse/pwhash_scryptsalsa208sha256_sse.c:244:31 @[ crypto_pwhash/scryptsalsa208sha256/sse/pwhash_scryptsalsa208sha256_sse.c:392:9 ] ] ]
	movl	-4(%rax,%r13), %edx
.Ltmp67:
	.loc	7 244 29                        # crypto_pwhash/scryptsalsa208sha256/sse/pwhash_scryptsalsa208sha256_sse.c:244:29 @[ crypto_pwhash/scryptsalsa208sha256/sse/pwhash_scryptsalsa208sha256_sse.c:392:9 ]
	movl	%edx, 24(%rax,%r12)
.Ltmp68:
	#DEBUG_VALUE: smix:i <- 7
	.loc	8 29 10                         # /usr/include/x86_64-linux-gnu/bits/string_fortified.h:29:10 @[ ./include/sodium/private/common.h:106:5 @[ crypto_pwhash/scryptsalsa208sha256/sse/pwhash_scryptsalsa208sha256_sse.c:244:31 @[ crypto_pwhash/scryptsalsa208sha256/sse/pwhash_scryptsalsa208sha256_sse.c:392:9 ] ] ]
	movl	-48(%rax,%r13), %edx
.Ltmp69:
	.loc	7 244 29                        # crypto_pwhash/scryptsalsa208sha256/sse/pwhash_scryptsalsa208sha256_sse.c:244:29 @[ crypto_pwhash/scryptsalsa208sha256/sse/pwhash_scryptsalsa208sha256_sse.c:392:9 ]
	movl	%edx, 28(%rax,%r12)
.Ltmp70:
	#DEBUG_VALUE: smix:i <- 8
	.loc	8 29 10                         # /usr/include/x86_64-linux-gnu/bits/string_fortified.h:29:10 @[ ./include/sodium/private/common.h:106:5 @[ crypto_pwhash/scryptsalsa208sha256/sse/pwhash_scryptsalsa208sha256_sse.c:244:31 @[ crypto_pwhash/scryptsalsa208sha256/sse/pwhash_scryptsalsa208sha256_sse.c:392:9 ] ] ]
	movl	-28(%rax,%r13), %edx
.Ltmp71:
	.loc	7 244 29                        # crypto_pwhash/scryptsalsa208sha256/sse/pwhash_scryptsalsa208sha256_sse.c:244:29 @[ crypto_pwhash/scryptsalsa208sha256/sse/pwhash_scryptsalsa208sha256_sse.c:392:9 ]
	movl	%edx, 32(%rax,%r12)
.Ltmp72:
	#DEBUG_VALUE: smix:i <- 9
	.loc	8 29 10                         # /usr/include/x86_64-linux-gnu/bits/string_fortified.h:29:10 @[ ./include/sodium/private/common.h:106:5 @[ crypto_pwhash/scryptsalsa208sha256/sse/pwhash_scryptsalsa208sha256_sse.c:244:31 @[ crypto_pwhash/scryptsalsa208sha256/sse/pwhash_scryptsalsa208sha256_sse.c:392:9 ] ] ]
	movl	-8(%rax,%r13), %edx
.Ltmp73:
	.loc	7 244 29                        # crypto_pwhash/scryptsalsa208sha256/sse/pwhash_scryptsalsa208sha256_sse.c:244:29 @[ crypto_pwhash/scryptsalsa208sha256/sse/pwhash_scryptsalsa208sha256_sse.c:392:9 ]
	movl	%edx, 36(%rax,%r12)
.Ltmp74:
	#DEBUG_VALUE: smix:i <- 10
	.loc	8 29 10                         # /usr/include/x86_64-linux-gnu/bits/string_fortified.h:29:10 @[ ./include/sodium/private/common.h:106:5 @[ crypto_pwhash/scryptsalsa208sha256/sse/pwhash_scryptsalsa208sha256_sse.c:244:31 @[ crypto_pwhash/scryptsalsa208sha256/sse/pwhash_scryptsalsa208sha256_sse.c:392:9 ] ] ]
	movl	-52(%rax,%r13), %edx
.Ltmp75:
	.loc	7 244 29                        # crypto_pwhash/scryptsalsa208sha256/sse/pwhash_scryptsalsa208sha256_sse.c:244:29 @[ crypto_pwhash/scryptsalsa208sha256/sse/pwhash_scryptsalsa208sha256_sse.c:392:9 ]
	movl	%edx, 40(%rax,%r12)
.Ltmp76:
	#DEBUG_VALUE: smix:i <- 11
	.loc	8 29 10                         # /usr/include/x86_64-linux-gnu/bits/string_fortified.h:29:10 @[ ./include/sodium/private/common.h:106:5 @[ crypto_pwhash/scryptsalsa208sha256/sse/pwhash_scryptsalsa208sha256_sse.c:244:31 @[ crypto_pwhash/scryptsalsa208sha256/sse/pwhash_scryptsalsa208sha256_sse.c:392:9 ] ] ]
	movl	-32(%rax,%r13), %edx
.Ltmp77:
	.loc	7 244 29                        # crypto_pwhash/scryptsalsa208sha256/sse/pwhash_scryptsalsa208sha256_sse.c:244:29 @[ crypto_pwhash/scryptsalsa208sha256/sse/pwhash_scryptsalsa208sha256_sse.c:392:9 ]
	movl	%edx, 44(%rax,%r12)
.Ltmp78:
	#DEBUG_VALUE: smix:i <- 12
	.loc	8 29 10                         # /usr/include/x86_64-linux-gnu/bits/string_fortified.h:29:10 @[ ./include/sodium/private/common.h:106:5 @[ crypto_pwhash/scryptsalsa208sha256/sse/pwhash_scryptsalsa208sha256_sse.c:244:31 @[ crypto_pwhash/scryptsalsa208sha256/sse/pwhash_scryptsalsa208sha256_sse.c:392:9 ] ] ]
	movl	-12(%rax,%r13), %edx
.Ltmp79:
	.loc	7 244 29                        # crypto_pwhash/scryptsalsa208sha256/sse/pwhash_scryptsalsa208sha256_sse.c:244:29 @[ crypto_pwhash/scryptsalsa208sha256/sse/pwhash_scryptsalsa208sha256_sse.c:392:9 ]
	movl	%edx, 48(%rax,%r12)
.Ltmp80:
	#DEBUG_VALUE: smix:i <- 13
	.loc	8 29 10                         # /usr/include/x86_64-linux-gnu/bits/string_fortified.h:29:10 @[ ./include/sodium/private/common.h:106:5 @[ crypto_pwhash/scryptsalsa208sha256/sse/pwhash_scryptsalsa208sha256_sse.c:244:31 @[ crypto_pwhash/scryptsalsa208sha256/sse/pwhash_scryptsalsa208sha256_sse.c:392:9 ] ] ]
	movl	-56(%rax,%r13), %edx
.Ltmp81:
	.loc	7 244 29                        # crypto_pwhash/scryptsalsa208sha256/sse/pwhash_scryptsalsa208sha256_sse.c:244:29 @[ crypto_pwhash/scryptsalsa208sha256/sse/pwhash_scryptsalsa208sha256_sse.c:392:9 ]
	movl	%edx, 52(%rax,%r12)
.Ltmp82:
	#DEBUG_VALUE: smix:i <- 14
	.loc	8 29 10                         # /usr/include/x86_64-linux-gnu/bits/string_fortified.h:29:10 @[ ./include/sodium/private/common.h:106:5 @[ crypto_pwhash/scryptsalsa208sha256/sse/pwhash_scryptsalsa208sha256_sse.c:244:31 @[ crypto_pwhash/scryptsalsa208sha256/sse/pwhash_scryptsalsa208sha256_sse.c:392:9 ] ] ]
	movl	-36(%rax,%r13), %edx
.Ltmp83:
	.loc	7 244 29                        # crypto_pwhash/scryptsalsa208sha256/sse/pwhash_scryptsalsa208sha256_sse.c:244:29 @[ crypto_pwhash/scryptsalsa208sha256/sse/pwhash_scryptsalsa208sha256_sse.c:392:9 ]
	movl	%edx, 56(%rax,%r12)
.Ltmp84:
	#DEBUG_VALUE: smix:i <- 15
	.loc	8 29 10                         # /usr/include/x86_64-linux-gnu/bits/string_fortified.h:29:10 @[ ./include/sodium/private/common.h:106:5 @[ crypto_pwhash/scryptsalsa208sha256/sse/pwhash_scryptsalsa208sha256_sse.c:244:31 @[ crypto_pwhash/scryptsalsa208sha256/sse/pwhash_scryptsalsa208sha256_sse.c:392:9 ] ] ]
	movl	-16(%rax,%r13), %edx
.Ltmp85:
	.loc	7 244 29                        # crypto_pwhash/scryptsalsa208sha256/sse/pwhash_scryptsalsa208sha256_sse.c:244:29 @[ crypto_pwhash/scryptsalsa208sha256/sse/pwhash_scryptsalsa208sha256_sse.c:392:9 ]
	movl	%edx, 60(%rax,%r12)
.Ltmp86:
	#DEBUG_VALUE: smix:i <- 16
	#DEBUG_VALUE: smix:k <- [DW_OP_LLVM_arg 0, DW_OP_consts 2, DW_OP_LLVM_arg 1, DW_OP_LLVM_convert 64 7, DW_OP_mul, DW_OP_minus, DW_OP_consts 18446744073709551615, DW_OP_div, DW_OP_consts 1, DW_OP_plus, DW_OP_stack_value] undef, undef
	.loc	7 242 19                        # crypto_pwhash/scryptsalsa208sha256/sse/pwhash_scryptsalsa208sha256_sse.c:242:19 @[ crypto_pwhash/scryptsalsa208sha256/sse/pwhash_scryptsalsa208sha256_sse.c:392:9 ]
	addq	$64, %rax
	decq	%rcx
.Ltmp87:
	.loc	7 242 5 is_stmt 0               # crypto_pwhash/scryptsalsa208sha256/sse/pwhash_scryptsalsa208sha256_sse.c:242:5 @[ crypto_pwhash/scryptsalsa208sha256/sse/pwhash_scryptsalsa208sha256_sse.c:392:9 ]
	jne	.LBB0_19
.Ltmp88:
# %bb.20:                               # %.preheader81.i
                                        #   in Loop: Header=BB0_18 Depth=1
	#DEBUG_VALUE: escrypt_kdf_sse:local <- [DW_OP_LLVM_entry_value 1] $rdi
	#DEBUG_VALUE: escrypt_kdf_sse:passwd <- [DW_OP_LLVM_entry_value 1] $rsi
	#DEBUG_VALUE: escrypt_kdf_sse:passwdlen <- [DW_OP_plus_uconst 40] [$rsp+0]
	#DEBUG_VALUE: escrypt_kdf_sse:salt <- [DW_OP_LLVM_entry_value 1] $rcx
	#DEBUG_VALUE: escrypt_kdf_sse:saltlen <- [DW_OP_LLVM_entry_value 1] $r8
	#DEBUG_VALUE: escrypt_kdf_sse:N <- [DW_OP_plus_uconst 48] [$rsp+0]
	#DEBUG_VALUE: escrypt_kdf_sse:_r <- [DW_OP_plus_uconst 192] [$rsp+0]
	#DEBUG_VALUE: escrypt_kdf_sse:_p <- [DW_OP_plus_uconst 200] [$rsp+0]
	#DEBUG_VALUE: escrypt_kdf_sse:buf <- [DW_OP_plus_uconst 208] [$rsp+0]
	#DEBUG_VALUE: escrypt_kdf_sse:buflen <- [DW_OP_plus_uconst 216] [$rsp+0]
	#DEBUG_VALUE: escrypt_kdf_sse:B_size <- [DW_OP_plus_uconst 96, DW_OP_deref] $rsp
	#DEBUG_VALUE: escrypt_kdf_sse:B <- [DW_OP_plus_uconst 112, DW_OP_deref] $rsp
	#DEBUG_VALUE: escrypt_kdf_sse:V <- [DW_OP_plus_uconst 16, DW_OP_deref] $rsp
	#DEBUG_VALUE: escrypt_kdf_sse:XY <- [DW_OP_plus_uconst 32, DW_OP_deref] $rsp
	#DEBUG_VALUE: escrypt_kdf_sse:i <- [DW_OP_plus_uconst 120, DW_OP_deref_size 8, DW_OP_stack_value] $rsp
	#DEBUG_VALUE: smix:B <- [DW_OP_LLVM_arg 0, DW_OP_plus_uconst 112, DW_OP_deref, DW_OP_LLVM_arg 1, DW_OP_plus_uconst 8, DW_OP_deref, DW_OP_LLVM_arg 2, DW_OP_plus_uconst 120, DW_OP_deref, DW_OP_mul, DW_OP_plus, DW_OP_stack_value] $rsp, $rsp, $rsp
	#DEBUG_VALUE: smix:N <- [DW_OP_plus_uconst 48, DW_OP_deref] $rsp
	#DEBUG_VALUE: smix:V <- [DW_OP_plus_uconst 16, DW_OP_deref] $rsp
	#DEBUG_VALUE: smix:XY <- [DW_OP_plus_uconst 32, DW_OP_deref] $rsp
	#DEBUG_VALUE: smix:s <- [DW_OP_plus_uconst 8, DW_OP_deref] $rsp
	#DEBUG_VALUE: smix:X <- [DW_OP_plus_uconst 16, DW_OP_deref] $rsp
	#DEBUG_VALUE: smix:X32 <- [DW_OP_plus_uconst 16, DW_OP_deref] $rsp
	#DEBUG_VALUE: smix:i <- 16
	.loc	7 0 5                           # crypto_pwhash/scryptsalsa208sha256/sse/pwhash_scryptsalsa208sha256_sse.c:0:5
	movl	$1, %r12d
	#DEBUG_VALUE: smix:X <- [DW_OP_plus_uconst 16, DW_OP_deref] $rsp
.Ltmp89:
	#DEBUG_VALUE: smix:i <- 1
	movq	16(%rsp), %r15                  # 8-byte Reload
	cmpq	$3, %r8
	movl	192(%rsp), %ebp
.Ltmp90:
	.loc	7 249 5 is_stmt 1               # crypto_pwhash/scryptsalsa208sha256/sse/pwhash_scryptsalsa208sha256_sse.c:249:5 @[ crypto_pwhash/scryptsalsa208sha256/sse/pwhash_scryptsalsa208sha256_sse.c:392:9 ]
	jb	.LBB0_23
.Ltmp91:
# %bb.21:                               # %.lr.ph.i.preheader
                                        #   in Loop: Header=BB0_18 Depth=1
	#DEBUG_VALUE: escrypt_kdf_sse:local <- [DW_OP_LLVM_entry_value 1] $rdi
	#DEBUG_VALUE: escrypt_kdf_sse:passwd <- [DW_OP_LLVM_entry_value 1] $rsi
	#DEBUG_VALUE: escrypt_kdf_sse:passwdlen <- [DW_OP_plus_uconst 40] [$rsp+0]
	#DEBUG_VALUE: escrypt_kdf_sse:salt <- [DW_OP_LLVM_entry_value 1] $rcx
	#DEBUG_VALUE: escrypt_kdf_sse:saltlen <- [DW_OP_LLVM_entry_value 1] $r8
	#DEBUG_VALUE: escrypt_kdf_sse:N <- [DW_OP_plus_uconst 48] [$rsp+0]
	#DEBUG_VALUE: escrypt_kdf_sse:_r <- [DW_OP_plus_uconst 192] [$rsp+0]
	#DEBUG_VALUE: escrypt_kdf_sse:_p <- [DW_OP_plus_uconst 200] [$rsp+0]
	#DEBUG_VALUE: escrypt_kdf_sse:buf <- [DW_OP_plus_uconst 208] [$rsp+0]
	#DEBUG_VALUE: escrypt_kdf_sse:buflen <- [DW_OP_plus_uconst 216] [$rsp+0]
	#DEBUG_VALUE: escrypt_kdf_sse:B_size <- [DW_OP_plus_uconst 96, DW_OP_deref] $rsp
	#DEBUG_VALUE: escrypt_kdf_sse:B <- [DW_OP_plus_uconst 112, DW_OP_deref] $rsp
	#DEBUG_VALUE: escrypt_kdf_sse:V <- [DW_OP_plus_uconst 16, DW_OP_deref] $rsp
	#DEBUG_VALUE: escrypt_kdf_sse:XY <- [DW_OP_plus_uconst 32, DW_OP_deref] $rsp
	#DEBUG_VALUE: escrypt_kdf_sse:i <- [DW_OP_plus_uconst 120, DW_OP_deref_size 8, DW_OP_stack_value] $rsp
	#DEBUG_VALUE: smix:B <- [DW_OP_LLVM_arg 0, DW_OP_plus_uconst 112, DW_OP_deref, DW_OP_LLVM_arg 1, DW_OP_plus_uconst 8, DW_OP_deref, DW_OP_LLVM_arg 2, DW_OP_plus_uconst 120, DW_OP_deref, DW_OP_mul, DW_OP_plus, DW_OP_stack_value] $rsp, $rsp, $rsp
	#DEBUG_VALUE: smix:N <- [DW_OP_plus_uconst 48, DW_OP_deref] $rsp
	#DEBUG_VALUE: smix:V <- [DW_OP_plus_uconst 16, DW_OP_deref] $rsp
	#DEBUG_VALUE: smix:XY <- [DW_OP_plus_uconst 32, DW_OP_deref] $rsp
	#DEBUG_VALUE: smix:s <- [DW_OP_plus_uconst 8, DW_OP_deref] $rsp
	#DEBUG_VALUE: smix:X <- [DW_OP_plus_uconst 16, DW_OP_deref] $rsp
	#DEBUG_VALUE: smix:X32 <- [DW_OP_plus_uconst 16, DW_OP_deref] $rsp
	#DEBUG_VALUE: smix:i <- 1
	.loc	7 0 5 is_stmt 0                 # crypto_pwhash/scryptsalsa208sha256/sse/pwhash_scryptsalsa208sha256_sse.c:0:5
	movq	72(%rsp), %rbx                  # 8-byte Reload
	movq	80(%rsp), %r14                  # 8-byte Reload
	movq	16(%rsp), %r15                  # 8-byte Reload
.Ltmp92:
	.p2align	4
.LBB0_22:                               # %.lr.ph.i
                                        #   Parent Loop BB0_18 Depth=1
                                        # =>  This Inner Loop Header: Depth=2
	#DEBUG_VALUE: escrypt_kdf_sse:local <- [DW_OP_LLVM_entry_value 1] $rdi
	#DEBUG_VALUE: escrypt_kdf_sse:passwd <- [DW_OP_LLVM_entry_value 1] $rsi
	#DEBUG_VALUE: escrypt_kdf_sse:passwdlen <- [DW_OP_plus_uconst 40] [$rsp+0]
	#DEBUG_VALUE: escrypt_kdf_sse:salt <- [DW_OP_LLVM_entry_value 1] $rcx
	#DEBUG_VALUE: escrypt_kdf_sse:saltlen <- [DW_OP_LLVM_entry_value 1] $r8
	#DEBUG_VALUE: escrypt_kdf_sse:N <- [DW_OP_plus_uconst 48] [$rsp+0]
	#DEBUG_VALUE: escrypt_kdf_sse:_r <- [DW_OP_plus_uconst 192] [$rsp+0]
	#DEBUG_VALUE: escrypt_kdf_sse:_p <- [DW_OP_plus_uconst 200] [$rsp+0]
	#DEBUG_VALUE: escrypt_kdf_sse:buf <- [DW_OP_plus_uconst 208] [$rsp+0]
	#DEBUG_VALUE: escrypt_kdf_sse:buflen <- [DW_OP_plus_uconst 216] [$rsp+0]
	#DEBUG_VALUE: escrypt_kdf_sse:B_size <- [DW_OP_plus_uconst 96, DW_OP_deref] $rsp
	#DEBUG_VALUE: escrypt_kdf_sse:B <- [DW_OP_plus_uconst 112, DW_OP_deref] $rsp
	#DEBUG_VALUE: escrypt_kdf_sse:V <- [DW_OP_plus_uconst 16, DW_OP_deref] $rsp
	#DEBUG_VALUE: escrypt_kdf_sse:XY <- [DW_OP_plus_uconst 32, DW_OP_deref] $rsp
	#DEBUG_VALUE: escrypt_kdf_sse:i <- [DW_OP_plus_uconst 120, DW_OP_deref_size 8, DW_OP_stack_value] $rsp
	#DEBUG_VALUE: smix:B <- [DW_OP_LLVM_arg 0, DW_OP_plus_uconst 112, DW_OP_deref, DW_OP_LLVM_arg 1, DW_OP_plus_uconst 8, DW_OP_deref, DW_OP_LLVM_arg 2, DW_OP_plus_uconst 120, DW_OP_deref, DW_OP_mul, DW_OP_plus, DW_OP_stack_value] $rsp, $rsp, $rsp
	#DEBUG_VALUE: smix:N <- [DW_OP_plus_uconst 48, DW_OP_deref] $rsp
	#DEBUG_VALUE: smix:V <- [DW_OP_plus_uconst 16, DW_OP_deref] $rsp
	#DEBUG_VALUE: smix:XY <- [DW_OP_plus_uconst 32, DW_OP_deref] $rsp
	#DEBUG_VALUE: smix:s <- [DW_OP_plus_uconst 8, DW_OP_deref] $rsp
	#DEBUG_VALUE: smix:X <- $r15
	#DEBUG_VALUE: smix:X32 <- [DW_OP_plus_uconst 16, DW_OP_deref] $rsp
	#DEBUG_VALUE: smix:X <- $r15
	#DEBUG_VALUE: smix:i <- $r12
	#DEBUG_VALUE: smix:Y <- $rbx
	.loc	7 253 9 is_stmt 1               # crypto_pwhash/scryptsalsa208sha256/sse/pwhash_scryptsalsa208sha256_sse.c:253:9 @[ crypto_pwhash/scryptsalsa208sha256/sse/pwhash_scryptsalsa208sha256_sse.c:392:9 ]
	movq	%r15, %rdi
	movq	%rbx, %rsi
	movq	%rbp, %rdx
	callq	blockmix_salsa8
.Ltmp93:
	#DEBUG_VALUE: smix:X <- $r14
	.loc	7 257 13                        # crypto_pwhash/scryptsalsa208sha256/sse/pwhash_scryptsalsa208sha256_sse.c:257:13 @[ crypto_pwhash/scryptsalsa208sha256/sse/pwhash_scryptsalsa208sha256_sse.c:392:9 ]
	movq	%r14, %r15
	.loc	7 258 9                         # crypto_pwhash/scryptsalsa208sha256/sse/pwhash_scryptsalsa208sha256_sse.c:258:9 @[ crypto_pwhash/scryptsalsa208sha256/sse/pwhash_scryptsalsa208sha256_sse.c:392:9 ]
	movq	%rbx, %rdi
	movq	%r14, %rsi
	movq	%rbp, %rdx
	callq	blockmix_salsa8
.Ltmp94:
	.loc	7 0 9 is_stmt 0                 # crypto_pwhash/scryptsalsa208sha256/sse/pwhash_scryptsalsa208sha256_sse.c:0:9
	movq	128(%rsp), %rax                 # 8-byte Reload
.Ltmp95:
	.loc	7 249 30 is_stmt 1              # crypto_pwhash/scryptsalsa208sha256/sse/pwhash_scryptsalsa208sha256_sse.c:249:30 @[ crypto_pwhash/scryptsalsa208sha256/sse/pwhash_scryptsalsa208sha256_sse.c:392:9 ]
	addq	$2, %r12
.Ltmp96:
	#DEBUG_VALUE: smix:i <- $r12
	.loc	7 249 19 is_stmt 0              # crypto_pwhash/scryptsalsa208sha256/sse/pwhash_scryptsalsa208sha256_sse.c:249:19 @[ crypto_pwhash/scryptsalsa208sha256/sse/pwhash_scryptsalsa208sha256_sse.c:392:9 ]
	addq	%rax, %r14
.Ltmp97:
	#DEBUG_VALUE: smix:X <- $r15
	addq	%rax, %rbx
.Ltmp98:
	cmpq	56(%rsp), %r12                  # 8-byte Folded Reload
.Ltmp99:
	.loc	7 249 5                         # crypto_pwhash/scryptsalsa208sha256/sse/pwhash_scryptsalsa208sha256_sse.c:249:5 @[ crypto_pwhash/scryptsalsa208sha256/sse/pwhash_scryptsalsa208sha256_sse.c:392:9 ]
	jb	.LBB0_22
.Ltmp100:
.LBB0_23:                               # %._crit_edge.i
                                        #   in Loop: Header=BB0_18 Depth=1
	#DEBUG_VALUE: escrypt_kdf_sse:local <- [DW_OP_LLVM_entry_value 1] $rdi
	#DEBUG_VALUE: escrypt_kdf_sse:passwd <- [DW_OP_LLVM_entry_value 1] $rsi
	#DEBUG_VALUE: escrypt_kdf_sse:passwdlen <- [DW_OP_plus_uconst 40] [$rsp+0]
	#DEBUG_VALUE: escrypt_kdf_sse:salt <- [DW_OP_LLVM_entry_value 1] $rcx
	#DEBUG_VALUE: escrypt_kdf_sse:saltlen <- [DW_OP_LLVM_entry_value 1] $r8
	#DEBUG_VALUE: escrypt_kdf_sse:N <- [DW_OP_plus_uconst 48] [$rsp+0]
	#DEBUG_VALUE: escrypt_kdf_sse:_r <- [DW_OP_plus_uconst 192] [$rsp+0]
	#DEBUG_VALUE: escrypt_kdf_sse:_p <- [DW_OP_plus_uconst 200] [$rsp+0]
	#DEBUG_VALUE: escrypt_kdf_sse:buf <- [DW_OP_plus_uconst 208] [$rsp+0]
	#DEBUG_VALUE: escrypt_kdf_sse:buflen <- [DW_OP_plus_uconst 216] [$rsp+0]
	#DEBUG_VALUE: escrypt_kdf_sse:B_size <- [DW_OP_plus_uconst 96, DW_OP_deref] $rsp
	#DEBUG_VALUE: escrypt_kdf_sse:B <- [DW_OP_plus_uconst 112, DW_OP_deref] $rsp
	#DEBUG_VALUE: escrypt_kdf_sse:V <- [DW_OP_plus_uconst 16, DW_OP_deref] $rsp
	#DEBUG_VALUE: escrypt_kdf_sse:XY <- [DW_OP_plus_uconst 32, DW_OP_deref] $rsp
	#DEBUG_VALUE: escrypt_kdf_sse:i <- [DW_OP_plus_uconst 120, DW_OP_deref_size 8, DW_OP_stack_value] $rsp
	#DEBUG_VALUE: smix:B <- [DW_OP_LLVM_arg 0, DW_OP_plus_uconst 112, DW_OP_deref, DW_OP_LLVM_arg 1, DW_OP_plus_uconst 8, DW_OP_deref, DW_OP_LLVM_arg 2, DW_OP_plus_uconst 120, DW_OP_deref, DW_OP_mul, DW_OP_plus, DW_OP_stack_value] $rsp, $rsp, $rsp
	#DEBUG_VALUE: smix:N <- [DW_OP_plus_uconst 48, DW_OP_deref] $rsp
	#DEBUG_VALUE: smix:V <- [DW_OP_plus_uconst 16, DW_OP_deref] $rsp
	#DEBUG_VALUE: smix:XY <- [DW_OP_plus_uconst 32, DW_OP_deref] $rsp
	#DEBUG_VALUE: smix:s <- [DW_OP_plus_uconst 8, DW_OP_deref] $rsp
	#DEBUG_VALUE: smix:X <- $r15
	#DEBUG_VALUE: smix:X32 <- [DW_OP_plus_uconst 16, DW_OP_deref] $rsp
	.loc	7 0 5                           # crypto_pwhash/scryptsalsa208sha256/sse/pwhash_scryptsalsa208sha256_sse.c:0:5
	movq	8(%rsp), %rbx                   # 8-byte Reload
	.loc	7 263 41 is_stmt 1              # crypto_pwhash/scryptsalsa208sha256/sse/pwhash_scryptsalsa208sha256_sse.c:263:41 @[ crypto_pwhash/scryptsalsa208sha256/sse/pwhash_scryptsalsa208sha256_sse.c:392:9 ]
	imulq	%rbx, %r12
	.loc	7 263 37 is_stmt 0              # crypto_pwhash/scryptsalsa208sha256/sse/pwhash_scryptsalsa208sha256_sse.c:263:37 @[ crypto_pwhash/scryptsalsa208sha256/sse/pwhash_scryptsalsa208sha256_sse.c:392:9 ]
	addq	16(%rsp), %r12                  # 8-byte Folded Reload
.Ltmp101:
	#DEBUG_VALUE: smix:Y <- $r12
	.loc	7 264 5 is_stmt 1               # crypto_pwhash/scryptsalsa208sha256/sse/pwhash_scryptsalsa208sha256_sse.c:264:5 @[ crypto_pwhash/scryptsalsa208sha256/sse/pwhash_scryptsalsa208sha256_sse.c:392:9 ]
	movq	%r15, %rdi
	movq	%r12, %rsi
	movq	%rbp, %rdx
	callq	blockmix_salsa8
.Ltmp102:
	#DEBUG_VALUE: smix:X <- [DW_OP_plus_uconst 32, DW_OP_deref] $rsp
	.loc	7 269 5                         # crypto_pwhash/scryptsalsa208sha256/sse/pwhash_scryptsalsa208sha256_sse.c:269:5 @[ crypto_pwhash/scryptsalsa208sha256/sse/pwhash_scryptsalsa208sha256_sse.c:392:9 ]
	movq	%r12, %rdi
	movq	32(%rsp), %r12                  # 8-byte Reload
.Ltmp103:
	movq	%r12, %rsi
	movq	%rbp, %rdx
	callq	blockmix_salsa8
.Ltmp104:
	#DEBUG_VALUE: smix:X32 <- [DW_OP_plus_uconst 32, DW_OP_deref] $rsp
	#DEBUG_VALUE: smix:Y <- [DW_OP_plus_uconst 24, DW_OP_deref] $rsp
	#DEBUG_VALUE: integerify:B <- [DW_OP_plus_uconst 32, DW_OP_deref] $rsp
	#DEBUG_VALUE: integerify:r <- undef
	#DEBUG_VALUE: integerify:X <- [DW_OP_LLVM_arg 0, DW_OP_plus_uconst 32, DW_OP_deref, DW_OP_LLVM_arg 1, DW_OP_plus_uconst 8, DW_OP_deref, DW_OP_plus, DW_OP_constu 64, DW_OP_minus, DW_OP_stack_value] $rsp, $rsp
	.loc	7 217 36                        # crypto_pwhash/scryptsalsa208sha256/sse/pwhash_scryptsalsa208sha256_sse.c:217:36 @[ crypto_pwhash/scryptsalsa208sha256/sse/pwhash_scryptsalsa208sha256_sse.c:275:9 @[ crypto_pwhash/scryptsalsa208sha256/sse/pwhash_scryptsalsa208sha256_sse.c:392:9 ] ]
	movl	-64(%r12,%rbx), %eax
.Ltmp105:
	#DEBUG_VALUE: integerify:X0 <- undef
	#DEBUG_VALUE: integerify:X13 <- undef
	.loc	7 220 14                        # crypto_pwhash/scryptsalsa208sha256/sse/pwhash_scryptsalsa208sha256_sse.c:220:14 @[ crypto_pwhash/scryptsalsa208sha256/sse/pwhash_scryptsalsa208sha256_sse.c:275:9 @[ crypto_pwhash/scryptsalsa208sha256/sse/pwhash_scryptsalsa208sha256_sse.c:392:9 ] ]
	movl	-12(%r12,%rbx), %esi
	.loc	7 220 30 is_stmt 0              # crypto_pwhash/scryptsalsa208sha256/sse/pwhash_scryptsalsa208sha256_sse.c:220:30 @[ crypto_pwhash/scryptsalsa208sha256/sse/pwhash_scryptsalsa208sha256_sse.c:275:9 @[ crypto_pwhash/scryptsalsa208sha256/sse/pwhash_scryptsalsa208sha256_sse.c:392:9 ] ]
	shlq	$32, %rsi
	.loc	7 220 37                        # crypto_pwhash/scryptsalsa208sha256/sse/pwhash_scryptsalsa208sha256_sse.c:220:37 @[ crypto_pwhash/scryptsalsa208sha256/sse/pwhash_scryptsalsa208sha256_sse.c:275:9 @[ crypto_pwhash/scryptsalsa208sha256/sse/pwhash_scryptsalsa208sha256_sse.c:392:9 ] ]
	orq	%rax, %rsi
.Ltmp106:
	#DEBUG_VALUE: smix:j <- [DW_OP_LLVM_arg 0, DW_OP_LLVM_arg 1, DW_OP_and, DW_OP_stack_value] undef, undef
	#DEBUG_VALUE: smix:i <- 0
	.loc	7 0 37                          # crypto_pwhash/scryptsalsa208sha256/sse/pwhash_scryptsalsa208sha256_sse.c:0:37
	xorl	%ebx, %ebx
.Ltmp107:
	.p2align	4
.LBB0_24:                               #   Parent Loop BB0_18 Depth=1
                                        # =>  This Inner Loop Header: Depth=2
	#DEBUG_VALUE: escrypt_kdf_sse:local <- [DW_OP_LLVM_entry_value 1] $rdi
	#DEBUG_VALUE: escrypt_kdf_sse:passwd <- [DW_OP_LLVM_entry_value 1] $rsi
	#DEBUG_VALUE: escrypt_kdf_sse:passwdlen <- [DW_OP_plus_uconst 40] [$rsp+0]
	#DEBUG_VALUE: escrypt_kdf_sse:salt <- [DW_OP_LLVM_entry_value 1] $rcx
	#DEBUG_VALUE: escrypt_kdf_sse:saltlen <- [DW_OP_LLVM_entry_value 1] $r8
	#DEBUG_VALUE: escrypt_kdf_sse:N <- [DW_OP_plus_uconst 48] [$rsp+0]
	#DEBUG_VALUE: escrypt_kdf_sse:_r <- [DW_OP_plus_uconst 192] [$rsp+0]
	#DEBUG_VALUE: escrypt_kdf_sse:_p <- [DW_OP_plus_uconst 200] [$rsp+0]
	#DEBUG_VALUE: escrypt_kdf_sse:buf <- [DW_OP_plus_uconst 208] [$rsp+0]
	#DEBUG_VALUE: escrypt_kdf_sse:buflen <- [DW_OP_plus_uconst 216] [$rsp+0]
	#DEBUG_VALUE: escrypt_kdf_sse:B_size <- [DW_OP_plus_uconst 96, DW_OP_deref] $rsp
	#DEBUG_VALUE: escrypt_kdf_sse:B <- [DW_OP_plus_uconst 112, DW_OP_deref] $rsp
	#DEBUG_VALUE: escrypt_kdf_sse:V <- [DW_OP_plus_uconst 16, DW_OP_deref] $rsp
	#DEBUG_VALUE: escrypt_kdf_sse:XY <- [DW_OP_plus_uconst 32, DW_OP_deref] $rsp
	#DEBUG_VALUE: escrypt_kdf_sse:i <- [DW_OP_plus_uconst 120, DW_OP_deref_size 8, DW_OP_stack_value] $rsp
	#DEBUG_VALUE: smix:B <- [DW_OP_LLVM_arg 0, DW_OP_plus_uconst 112, DW_OP_deref, DW_OP_LLVM_arg 1, DW_OP_plus_uconst 8, DW_OP_deref, DW_OP_LLVM_arg 2, DW_OP_plus_uconst 120, DW_OP_deref, DW_OP_mul, DW_OP_plus, DW_OP_stack_value] $rsp, $rsp, $rsp
	#DEBUG_VALUE: smix:N <- [DW_OP_plus_uconst 48, DW_OP_deref] $rsp
	#DEBUG_VALUE: smix:V <- [DW_OP_plus_uconst 16, DW_OP_deref] $rsp
	#DEBUG_VALUE: smix:XY <- [DW_OP_plus_uconst 32, DW_OP_deref] $rsp
	#DEBUG_VALUE: smix:s <- [DW_OP_plus_uconst 8, DW_OP_deref] $rsp
	#DEBUG_VALUE: smix:X <- [DW_OP_plus_uconst 32, DW_OP_deref] $rsp
	#DEBUG_VALUE: smix:X32 <- [DW_OP_plus_uconst 32, DW_OP_deref] $rsp
	#DEBUG_VALUE: smix:Y <- [DW_OP_plus_uconst 24, DW_OP_deref] $rsp
	#DEBUG_VALUE: smix:j <- [DW_OP_LLVM_arg 0, DW_OP_LLVM_arg 1, DW_OP_and, DW_OP_stack_value] undef, undef
	#DEBUG_VALUE: smix:i <- $rbx
	movq	56(%rsp), %r14                  # 8-byte Reload
	andq	%r14, %rsi
.Ltmp108:
	#DEBUG_VALUE: smix:j <- $rsi
	.loc	7 279 56 is_stmt 1              # crypto_pwhash/scryptsalsa208sha256/sse/pwhash_scryptsalsa208sha256_sse.c:279:56 @[ crypto_pwhash/scryptsalsa208sha256/sse/pwhash_scryptsalsa208sha256_sse.c:392:9 ]
	imulq	8(%rsp), %rsi                   # 8-byte Folded Reload
.Ltmp109:
	.loc	7 0 56 is_stmt 0                # crypto_pwhash/scryptsalsa208sha256/sse/pwhash_scryptsalsa208sha256_sse.c:0:56
	movq	16(%rsp), %rbp                  # 8-byte Reload
	.loc	7 279 52                        # crypto_pwhash/scryptsalsa208sha256/sse/pwhash_scryptsalsa208sha256_sse.c:279:52 @[ crypto_pwhash/scryptsalsa208sha256/sse/pwhash_scryptsalsa208sha256_sse.c:392:9 ]
	addq	%rbp, %rsi
.Ltmp110:
	#DEBUG_VALUE: V_j <- $rsi
	.loc	7 0 52                          # crypto_pwhash/scryptsalsa208sha256/sse/pwhash_scryptsalsa208sha256_sse.c:0:52
	movq	32(%rsp), %rdi                  # 8-byte Reload
	movq	24(%rsp), %r12                  # 8-byte Reload
	.loc	7 283 13 is_stmt 1              # crypto_pwhash/scryptsalsa208sha256/sse/pwhash_scryptsalsa208sha256_sse.c:283:13 @[ crypto_pwhash/scryptsalsa208sha256/sse/pwhash_scryptsalsa208sha256_sse.c:392:9 ]
	movq	%r12, %rdx
	movl	192(%rsp), %r15d
	movq	%r15, %rcx
	callq	blockmix_salsa8_xor
.Ltmp111:
                                        # kill: def $eax killed $eax def $rax
	.loc	7 283 47 is_stmt 0              # crypto_pwhash/scryptsalsa208sha256/sse/pwhash_scryptsalsa208sha256_sse.c:283:47 @[ crypto_pwhash/scryptsalsa208sha256/sse/pwhash_scryptsalsa208sha256_sse.c:392:9 ]
	andl	%r14d, %eax
.Ltmp112:
	#DEBUG_VALUE: smix:j <- $eax
	.loc	7 284 47 is_stmt 1              # crypto_pwhash/scryptsalsa208sha256/sse/pwhash_scryptsalsa208sha256_sse.c:284:47 @[ crypto_pwhash/scryptsalsa208sha256/sse/pwhash_scryptsalsa208sha256_sse.c:392:9 ]
	imulq	8(%rsp), %rax                   # 8-byte Folded Reload
.Ltmp113:
	.loc	7 284 43 is_stmt 0              # crypto_pwhash/scryptsalsa208sha256/sse/pwhash_scryptsalsa208sha256_sse.c:284:43 @[ crypto_pwhash/scryptsalsa208sha256/sse/pwhash_scryptsalsa208sha256_sse.c:392:9 ]
	leaq	(%rax,%rbp), %rsi
.Ltmp114:
	#DEBUG_VALUE: V_j <- $rsi
	.loc	7 288 13 is_stmt 1              # crypto_pwhash/scryptsalsa208sha256/sse/pwhash_scryptsalsa208sha256_sse.c:288:13 @[ crypto_pwhash/scryptsalsa208sha256/sse/pwhash_scryptsalsa208sha256_sse.c:392:9 ]
	movq	%r12, %rdi
	movq	32(%rsp), %rdx                  # 8-byte Reload
	movq	%r15, %rcx
	callq	blockmix_salsa8_xor
.Ltmp115:
	.loc	7 0 13 is_stmt 0                # crypto_pwhash/scryptsalsa208sha256/sse/pwhash_scryptsalsa208sha256_sse.c:0:13
	movq	48(%rsp), %r8                   # 8-byte Reload
	.loc	7 288 13                        # crypto_pwhash/scryptsalsa208sha256/sse/pwhash_scryptsalsa208sha256_sse.c:288:13 @[ crypto_pwhash/scryptsalsa208sha256/sse/pwhash_scryptsalsa208sha256_sse.c:392:9 ]
	movl	%eax, %esi
.Ltmp116:
	#DEBUG_VALUE: smix:j <- [DW_OP_LLVM_arg 0, DW_OP_LLVM_arg 1, DW_OP_and, DW_OP_stack_value] undef, undef
	.loc	7 278 26 is_stmt 1              # crypto_pwhash/scryptsalsa208sha256/sse/pwhash_scryptsalsa208sha256_sse.c:278:26 @[ crypto_pwhash/scryptsalsa208sha256/sse/pwhash_scryptsalsa208sha256_sse.c:392:9 ]
	addq	$2, %rbx
.Ltmp117:
	#DEBUG_VALUE: smix:i <- $rbx
	.loc	7 278 19 is_stmt 0              # crypto_pwhash/scryptsalsa208sha256/sse/pwhash_scryptsalsa208sha256_sse.c:278:19 @[ crypto_pwhash/scryptsalsa208sha256/sse/pwhash_scryptsalsa208sha256_sse.c:392:9 ]
	cmpq	%r8, %rbx
.Ltmp118:
	.loc	7 278 5                         # crypto_pwhash/scryptsalsa208sha256/sse/pwhash_scryptsalsa208sha256_sse.c:278:5 @[ crypto_pwhash/scryptsalsa208sha256/sse/pwhash_scryptsalsa208sha256_sse.c:392:9 ]
	jb	.LBB0_24
.Ltmp119:
# %bb.25:                               # %.preheader.i.preheader
                                        #   in Loop: Header=BB0_18 Depth=1
	#DEBUG_VALUE: escrypt_kdf_sse:local <- [DW_OP_LLVM_entry_value 1] $rdi
	#DEBUG_VALUE: escrypt_kdf_sse:passwd <- [DW_OP_LLVM_entry_value 1] $rsi
	#DEBUG_VALUE: escrypt_kdf_sse:passwdlen <- [DW_OP_plus_uconst 40] [$rsp+0]
	#DEBUG_VALUE: escrypt_kdf_sse:salt <- [DW_OP_LLVM_entry_value 1] $rcx
	#DEBUG_VALUE: escrypt_kdf_sse:saltlen <- [DW_OP_LLVM_entry_value 1] $r8
	#DEBUG_VALUE: escrypt_kdf_sse:N <- [DW_OP_plus_uconst 48] [$rsp+0]
	#DEBUG_VALUE: escrypt_kdf_sse:_r <- [DW_OP_plus_uconst 192] [$rsp+0]
	#DEBUG_VALUE: escrypt_kdf_sse:_p <- [DW_OP_plus_uconst 200] [$rsp+0]
	#DEBUG_VALUE: escrypt_kdf_sse:buf <- [DW_OP_plus_uconst 208] [$rsp+0]
	#DEBUG_VALUE: escrypt_kdf_sse:buflen <- [DW_OP_plus_uconst 216] [$rsp+0]
	#DEBUG_VALUE: escrypt_kdf_sse:B_size <- [DW_OP_plus_uconst 96, DW_OP_deref] $rsp
	#DEBUG_VALUE: escrypt_kdf_sse:B <- [DW_OP_plus_uconst 112, DW_OP_deref] $rsp
	#DEBUG_VALUE: escrypt_kdf_sse:V <- [DW_OP_plus_uconst 16, DW_OP_deref] $rsp
	#DEBUG_VALUE: escrypt_kdf_sse:XY <- [DW_OP_plus_uconst 32, DW_OP_deref] $rsp
	#DEBUG_VALUE: escrypt_kdf_sse:i <- [DW_OP_plus_uconst 120, DW_OP_deref_size 8, DW_OP_stack_value] $rsp
	#DEBUG_VALUE: smix:B <- [DW_OP_LLVM_arg 0, DW_OP_plus_uconst 112, DW_OP_deref, DW_OP_LLVM_arg 1, DW_OP_plus_uconst 8, DW_OP_deref, DW_OP_LLVM_arg 2, DW_OP_plus_uconst 120, DW_OP_deref, DW_OP_mul, DW_OP_plus, DW_OP_stack_value] $rsp, $rsp, $rsp
	#DEBUG_VALUE: smix:N <- [DW_OP_plus_uconst 48, DW_OP_deref] $rsp
	#DEBUG_VALUE: smix:V <- [DW_OP_plus_uconst 16, DW_OP_deref] $rsp
	#DEBUG_VALUE: smix:XY <- [DW_OP_plus_uconst 32, DW_OP_deref] $rsp
	#DEBUG_VALUE: smix:s <- [DW_OP_plus_uconst 8, DW_OP_deref] $rsp
	#DEBUG_VALUE: smix:X <- [DW_OP_plus_uconst 32, DW_OP_deref] $rsp
	#DEBUG_VALUE: smix:X32 <- [DW_OP_plus_uconst 32, DW_OP_deref] $rsp
	#DEBUG_VALUE: smix:i <- $rbx
	#DEBUG_VALUE: smix:Y <- [DW_OP_plus_uconst 24, DW_OP_deref] $rsp
	.loc	7 0 5                           # crypto_pwhash/scryptsalsa208sha256/sse/pwhash_scryptsalsa208sha256_sse.c:0:5
	movq	104(%rsp), %rdi                 # 8-byte Reload
	movq	%rdi, %rax
	movq	112(%rsp), %r14                 # 8-byte Reload
	movq	%r14, %rcx
	movl	200(%rsp), %esi
	movq	88(%rsp), %r10                  # 8-byte Reload
.Ltmp120:
	.p2align	4
.LBB0_26:                               # %.preheader.i
                                        #   Parent Loop BB0_18 Depth=1
                                        # =>  This Inner Loop Header: Depth=2
	#DEBUG_VALUE: escrypt_kdf_sse:local <- [DW_OP_LLVM_entry_value 1] $rdi
	#DEBUG_VALUE: escrypt_kdf_sse:passwd <- [DW_OP_LLVM_entry_value 1] $rsi
	#DEBUG_VALUE: escrypt_kdf_sse:passwdlen <- [DW_OP_plus_uconst 40] [$rsp+0]
	#DEBUG_VALUE: escrypt_kdf_sse:salt <- [DW_OP_LLVM_entry_value 1] $rcx
	#DEBUG_VALUE: escrypt_kdf_sse:saltlen <- [DW_OP_LLVM_entry_value 1] $r8
	#DEBUG_VALUE: escrypt_kdf_sse:N <- [DW_OP_plus_uconst 48] [$rsp+0]
	#DEBUG_VALUE: escrypt_kdf_sse:_r <- [DW_OP_plus_uconst 192] [$rsp+0]
	#DEBUG_VALUE: escrypt_kdf_sse:_p <- [DW_OP_plus_uconst 200] [$rsp+0]
	#DEBUG_VALUE: escrypt_kdf_sse:buf <- [DW_OP_plus_uconst 208] [$rsp+0]
	#DEBUG_VALUE: escrypt_kdf_sse:buflen <- [DW_OP_plus_uconst 216] [$rsp+0]
	#DEBUG_VALUE: escrypt_kdf_sse:B_size <- [DW_OP_plus_uconst 96, DW_OP_deref] $rsp
	#DEBUG_VALUE: escrypt_kdf_sse:B <- [DW_OP_plus_uconst 112, DW_OP_deref] $rsp
	#DEBUG_VALUE: escrypt_kdf_sse:V <- [DW_OP_plus_uconst 16, DW_OP_deref] $rsp
	#DEBUG_VALUE: escrypt_kdf_sse:XY <- [DW_OP_plus_uconst 32, DW_OP_deref] $rsp
	#DEBUG_VALUE: escrypt_kdf_sse:i <- [DW_OP_plus_uconst 120, DW_OP_deref_size 8, DW_OP_stack_value] $rsp
	#DEBUG_VALUE: smix:B <- [DW_OP_LLVM_arg 0, DW_OP_plus_uconst 112, DW_OP_deref, DW_OP_LLVM_arg 1, DW_OP_plus_uconst 8, DW_OP_deref, DW_OP_LLVM_arg 2, DW_OP_plus_uconst 120, DW_OP_deref, DW_OP_mul, DW_OP_plus, DW_OP_stack_value] $rsp, $rsp, $rsp
	#DEBUG_VALUE: smix:N <- [DW_OP_plus_uconst 48, DW_OP_deref] $rsp
	#DEBUG_VALUE: smix:V <- [DW_OP_plus_uconst 16, DW_OP_deref] $rsp
	#DEBUG_VALUE: smix:XY <- [DW_OP_plus_uconst 32, DW_OP_deref] $rsp
	#DEBUG_VALUE: smix:s <- [DW_OP_plus_uconst 8, DW_OP_deref] $rsp
	#DEBUG_VALUE: smix:X <- [DW_OP_plus_uconst 32, DW_OP_deref] $rsp
	#DEBUG_VALUE: smix:X32 <- [DW_OP_plus_uconst 32, DW_OP_deref] $rsp
	#DEBUG_VALUE: smix:Y <- [DW_OP_plus_uconst 24, DW_OP_deref] $rsp
	#DEBUG_VALUE: smix:k <- [DW_OP_LLVM_arg 0, DW_OP_LLVM_arg 1, DW_OP_plus_uconst 112, DW_OP_deref, DW_OP_minus, DW_OP_consts 64, DW_OP_div, DW_OP_stack_value] $rcx, $rsp
	#DEBUG_VALUE: smix:i <- 0
	.loc	7 294 60 is_stmt 1              # crypto_pwhash/scryptsalsa208sha256/sse/pwhash_scryptsalsa208sha256_sse.c:294:60 @[ crypto_pwhash/scryptsalsa208sha256/sse/pwhash_scryptsalsa208sha256_sse.c:392:9 ]
	movl	(%rcx,%r10), %edx
.Ltmp121:
	#DEBUG_VALUE: store32_le:dst <- undef
	#DEBUG_VALUE: store32_le:w <- undef
	#DEBUG_VALUE: memcpy:__dest <- undef
	#DEBUG_VALUE: memcpy:__src <- undef
	#DEBUG_VALUE: memcpy:__len <- 4
	.loc	8 29 10                         # /usr/include/x86_64-linux-gnu/bits/string_fortified.h:29:10 @[ ./include/sodium/private/common.h:122:5 @[ crypto_pwhash/scryptsalsa208sha256/sse/pwhash_scryptsalsa208sha256_sse.c:294:13 @[ crypto_pwhash/scryptsalsa208sha256/sse/pwhash_scryptsalsa208sha256_sse.c:392:9 ] ] ]
	movl	%edx, -60(%rcx,%r13)
.Ltmp122:
	#DEBUG_VALUE: smix:i <- 1
	.loc	7 294 60                        # crypto_pwhash/scryptsalsa208sha256/sse/pwhash_scryptsalsa208sha256_sse.c:294:60 @[ crypto_pwhash/scryptsalsa208sha256/sse/pwhash_scryptsalsa208sha256_sse.c:392:9 ]
	movl	4(%rcx,%r10), %edx
.Ltmp123:
	.loc	8 29 10                         # /usr/include/x86_64-linux-gnu/bits/string_fortified.h:29:10 @[ ./include/sodium/private/common.h:122:5 @[ crypto_pwhash/scryptsalsa208sha256/sse/pwhash_scryptsalsa208sha256_sse.c:294:13 @[ crypto_pwhash/scryptsalsa208sha256/sse/pwhash_scryptsalsa208sha256_sse.c:392:9 ] ] ]
	movl	%edx, -40(%rcx,%r13)
.Ltmp124:
	#DEBUG_VALUE: smix:i <- 2
	.loc	7 294 60                        # crypto_pwhash/scryptsalsa208sha256/sse/pwhash_scryptsalsa208sha256_sse.c:294:60 @[ crypto_pwhash/scryptsalsa208sha256/sse/pwhash_scryptsalsa208sha256_sse.c:392:9 ]
	movl	8(%rcx,%r10), %edx
.Ltmp125:
	.loc	8 29 10                         # /usr/include/x86_64-linux-gnu/bits/string_fortified.h:29:10 @[ ./include/sodium/private/common.h:122:5 @[ crypto_pwhash/scryptsalsa208sha256/sse/pwhash_scryptsalsa208sha256_sse.c:294:13 @[ crypto_pwhash/scryptsalsa208sha256/sse/pwhash_scryptsalsa208sha256_sse.c:392:9 ] ] ]
	movl	%edx, -20(%rcx,%r13)
.Ltmp126:
	#DEBUG_VALUE: smix:i <- 3
	.loc	7 294 60                        # crypto_pwhash/scryptsalsa208sha256/sse/pwhash_scryptsalsa208sha256_sse.c:294:60 @[ crypto_pwhash/scryptsalsa208sha256/sse/pwhash_scryptsalsa208sha256_sse.c:392:9 ]
	movl	12(%rcx,%r10), %edx
.Ltmp127:
	.loc	8 29 10                         # /usr/include/x86_64-linux-gnu/bits/string_fortified.h:29:10 @[ ./include/sodium/private/common.h:122:5 @[ crypto_pwhash/scryptsalsa208sha256/sse/pwhash_scryptsalsa208sha256_sse.c:294:13 @[ crypto_pwhash/scryptsalsa208sha256/sse/pwhash_scryptsalsa208sha256_sse.c:392:9 ] ] ]
	movl	%edx, (%rcx,%r13)
.Ltmp128:
	#DEBUG_VALUE: smix:i <- 4
	.loc	7 294 60                        # crypto_pwhash/scryptsalsa208sha256/sse/pwhash_scryptsalsa208sha256_sse.c:294:60 @[ crypto_pwhash/scryptsalsa208sha256/sse/pwhash_scryptsalsa208sha256_sse.c:392:9 ]
	movl	16(%rcx,%r10), %edx
.Ltmp129:
	.loc	8 29 10                         # /usr/include/x86_64-linux-gnu/bits/string_fortified.h:29:10 @[ ./include/sodium/private/common.h:122:5 @[ crypto_pwhash/scryptsalsa208sha256/sse/pwhash_scryptsalsa208sha256_sse.c:294:13 @[ crypto_pwhash/scryptsalsa208sha256/sse/pwhash_scryptsalsa208sha256_sse.c:392:9 ] ] ]
	movl	%edx, -44(%rcx,%r13)
.Ltmp130:
	#DEBUG_VALUE: smix:i <- 5
	.loc	7 294 60                        # crypto_pwhash/scryptsalsa208sha256/sse/pwhash_scryptsalsa208sha256_sse.c:294:60 @[ crypto_pwhash/scryptsalsa208sha256/sse/pwhash_scryptsalsa208sha256_sse.c:392:9 ]
	movl	20(%rcx,%r10), %edx
.Ltmp131:
	.loc	8 29 10                         # /usr/include/x86_64-linux-gnu/bits/string_fortified.h:29:10 @[ ./include/sodium/private/common.h:122:5 @[ crypto_pwhash/scryptsalsa208sha256/sse/pwhash_scryptsalsa208sha256_sse.c:294:13 @[ crypto_pwhash/scryptsalsa208sha256/sse/pwhash_scryptsalsa208sha256_sse.c:392:9 ] ] ]
	movl	%edx, -24(%rcx,%r13)
.Ltmp132:
	#DEBUG_VALUE: smix:i <- 6
	.loc	7 294 60                        # crypto_pwhash/scryptsalsa208sha256/sse/pwhash_scryptsalsa208sha256_sse.c:294:60 @[ crypto_pwhash/scryptsalsa208sha256/sse/pwhash_scryptsalsa208sha256_sse.c:392:9 ]
	movl	24(%rcx,%r10), %edx
.Ltmp133:
	.loc	8 29 10                         # /usr/include/x86_64-linux-gnu/bits/string_fortified.h:29:10 @[ ./include/sodium/private/common.h:122:5 @[ crypto_pwhash/scryptsalsa208sha256/sse/pwhash_scryptsalsa208sha256_sse.c:294:13 @[ crypto_pwhash/scryptsalsa208sha256/sse/pwhash_scryptsalsa208sha256_sse.c:392:9 ] ] ]
	movl	%edx, -4(%rcx,%r13)
.Ltmp134:
	#DEBUG_VALUE: smix:i <- 7
	.loc	7 294 60                        # crypto_pwhash/scryptsalsa208sha256/sse/pwhash_scryptsalsa208sha256_sse.c:294:60 @[ crypto_pwhash/scryptsalsa208sha256/sse/pwhash_scryptsalsa208sha256_sse.c:392:9 ]
	movl	28(%rcx,%r10), %edx
.Ltmp135:
	.loc	8 29 10                         # /usr/include/x86_64-linux-gnu/bits/string_fortified.h:29:10 @[ ./include/sodium/private/common.h:122:5 @[ crypto_pwhash/scryptsalsa208sha256/sse/pwhash_scryptsalsa208sha256_sse.c:294:13 @[ crypto_pwhash/scryptsalsa208sha256/sse/pwhash_scryptsalsa208sha256_sse.c:392:9 ] ] ]
	movl	%edx, -48(%rcx,%r13)
.Ltmp136:
	#DEBUG_VALUE: smix:i <- 8
	.loc	7 294 60                        # crypto_pwhash/scryptsalsa208sha256/sse/pwhash_scryptsalsa208sha256_sse.c:294:60 @[ crypto_pwhash/scryptsalsa208sha256/sse/pwhash_scryptsalsa208sha256_sse.c:392:9 ]
	movl	32(%rcx,%r10), %edx
.Ltmp137:
	.loc	8 29 10                         # /usr/include/x86_64-linux-gnu/bits/string_fortified.h:29:10 @[ ./include/sodium/private/common.h:122:5 @[ crypto_pwhash/scryptsalsa208sha256/sse/pwhash_scryptsalsa208sha256_sse.c:294:13 @[ crypto_pwhash/scryptsalsa208sha256/sse/pwhash_scryptsalsa208sha256_sse.c:392:9 ] ] ]
	movl	%edx, -28(%rcx,%r13)
.Ltmp138:
	#DEBUG_VALUE: smix:i <- 9
	.loc	7 294 60                        # crypto_pwhash/scryptsalsa208sha256/sse/pwhash_scryptsalsa208sha256_sse.c:294:60 @[ crypto_pwhash/scryptsalsa208sha256/sse/pwhash_scryptsalsa208sha256_sse.c:392:9 ]
	movl	36(%rcx,%r10), %edx
.Ltmp139:
	.loc	8 29 10                         # /usr/include/x86_64-linux-gnu/bits/string_fortified.h:29:10 @[ ./include/sodium/private/common.h:122:5 @[ crypto_pwhash/scryptsalsa208sha256/sse/pwhash_scryptsalsa208sha256_sse.c:294:13 @[ crypto_pwhash/scryptsalsa208sha256/sse/pwhash_scryptsalsa208sha256_sse.c:392:9 ] ] ]
	movl	%edx, -8(%rcx,%r13)
.Ltmp140:
	#DEBUG_VALUE: smix:i <- 10
	.loc	7 294 60                        # crypto_pwhash/scryptsalsa208sha256/sse/pwhash_scryptsalsa208sha256_sse.c:294:60 @[ crypto_pwhash/scryptsalsa208sha256/sse/pwhash_scryptsalsa208sha256_sse.c:392:9 ]
	movl	40(%rcx,%r10), %edx
.Ltmp141:
	.loc	8 29 10                         # /usr/include/x86_64-linux-gnu/bits/string_fortified.h:29:10 @[ ./include/sodium/private/common.h:122:5 @[ crypto_pwhash/scryptsalsa208sha256/sse/pwhash_scryptsalsa208sha256_sse.c:294:13 @[ crypto_pwhash/scryptsalsa208sha256/sse/pwhash_scryptsalsa208sha256_sse.c:392:9 ] ] ]
	movl	%edx, -52(%rcx,%r13)
.Ltmp142:
	#DEBUG_VALUE: smix:i <- 11
	.loc	7 294 60                        # crypto_pwhash/scryptsalsa208sha256/sse/pwhash_scryptsalsa208sha256_sse.c:294:60 @[ crypto_pwhash/scryptsalsa208sha256/sse/pwhash_scryptsalsa208sha256_sse.c:392:9 ]
	movl	44(%rcx,%r10), %edx
.Ltmp143:
	.loc	8 29 10                         # /usr/include/x86_64-linux-gnu/bits/string_fortified.h:29:10 @[ ./include/sodium/private/common.h:122:5 @[ crypto_pwhash/scryptsalsa208sha256/sse/pwhash_scryptsalsa208sha256_sse.c:294:13 @[ crypto_pwhash/scryptsalsa208sha256/sse/pwhash_scryptsalsa208sha256_sse.c:392:9 ] ] ]
	movl	%edx, -32(%rcx,%r13)
.Ltmp144:
	#DEBUG_VALUE: smix:i <- 12
	.loc	7 294 60                        # crypto_pwhash/scryptsalsa208sha256/sse/pwhash_scryptsalsa208sha256_sse.c:294:60 @[ crypto_pwhash/scryptsalsa208sha256/sse/pwhash_scryptsalsa208sha256_sse.c:392:9 ]
	movl	48(%rcx,%r10), %edx
.Ltmp145:
	.loc	8 29 10                         # /usr/include/x86_64-linux-gnu/bits/string_fortified.h:29:10 @[ ./include/sodium/private/common.h:122:5 @[ crypto_pwhash/scryptsalsa208sha256/sse/pwhash_scryptsalsa208sha256_sse.c:294:13 @[ crypto_pwhash/scryptsalsa208sha256/sse/pwhash_scryptsalsa208sha256_sse.c:392:9 ] ] ]
	movl	%edx, -12(%rcx,%r13)
.Ltmp146:
	#DEBUG_VALUE: smix:i <- 13
	.loc	7 294 60                        # crypto_pwhash/scryptsalsa208sha256/sse/pwhash_scryptsalsa208sha256_sse.c:294:60 @[ crypto_pwhash/scryptsalsa208sha256/sse/pwhash_scryptsalsa208sha256_sse.c:392:9 ]
	movl	52(%rcx,%r10), %edx
.Ltmp147:
	.loc	8 29 10                         # /usr/include/x86_64-linux-gnu/bits/string_fortified.h:29:10 @[ ./include/sodium/private/common.h:122:5 @[ crypto_pwhash/scryptsalsa208sha256/sse/pwhash_scryptsalsa208sha256_sse.c:294:13 @[ crypto_pwhash/scryptsalsa208sha256/sse/pwhash_scryptsalsa208sha256_sse.c:392:9 ] ] ]
	movl	%edx, -56(%rcx,%r13)
.Ltmp148:
	#DEBUG_VALUE: smix:i <- 14
	.loc	7 294 60                        # crypto_pwhash/scryptsalsa208sha256/sse/pwhash_scryptsalsa208sha256_sse.c:294:60 @[ crypto_pwhash/scryptsalsa208sha256/sse/pwhash_scryptsalsa208sha256_sse.c:392:9 ]
	movl	56(%rcx,%r10), %edx
.Ltmp149:
	.loc	8 29 10                         # /usr/include/x86_64-linux-gnu/bits/string_fortified.h:29:10 @[ ./include/sodium/private/common.h:122:5 @[ crypto_pwhash/scryptsalsa208sha256/sse/pwhash_scryptsalsa208sha256_sse.c:294:13 @[ crypto_pwhash/scryptsalsa208sha256/sse/pwhash_scryptsalsa208sha256_sse.c:392:9 ] ] ]
	movl	%edx, -36(%rcx,%r13)
.Ltmp150:
	#DEBUG_VALUE: smix:i <- 15
	.loc	7 294 60                        # crypto_pwhash/scryptsalsa208sha256/sse/pwhash_scryptsalsa208sha256_sse.c:294:60 @[ crypto_pwhash/scryptsalsa208sha256/sse/pwhash_scryptsalsa208sha256_sse.c:392:9 ]
	movl	60(%rcx,%r10), %edx
.Ltmp151:
	.loc	8 29 10                         # /usr/include/x86_64-linux-gnu/bits/string_fortified.h:29:10 @[ ./include/sodium/private/common.h:122:5 @[ crypto_pwhash/scryptsalsa208sha256/sse/pwhash_scryptsalsa208sha256_sse.c:294:13 @[ crypto_pwhash/scryptsalsa208sha256/sse/pwhash_scryptsalsa208sha256_sse.c:392:9 ] ] ]
	movl	%edx, -16(%rcx,%r13)
.Ltmp152:
	#DEBUG_VALUE: smix:i <- 16
	#DEBUG_VALUE: smix:k <- [DW_OP_LLVM_arg 0, DW_OP_LLVM_arg 1, DW_OP_plus_uconst 112, DW_OP_deref, DW_OP_minus, DW_OP_consts 64, DW_OP_div, DW_OP_consts 1, DW_OP_plus, DW_OP_stack_value] $rcx, $rsp
	.loc	7 292 19                        # crypto_pwhash/scryptsalsa208sha256/sse/pwhash_scryptsalsa208sha256_sse.c:292:19 @[ crypto_pwhash/scryptsalsa208sha256/sse/pwhash_scryptsalsa208sha256_sse.c:392:9 ]
	addq	$64, %rcx
.Ltmp153:
	decq	%rax
.Ltmp154:
	.loc	7 292 5 is_stmt 0               # crypto_pwhash/scryptsalsa208sha256/sse/pwhash_scryptsalsa208sha256_sse.c:292:5 @[ crypto_pwhash/scryptsalsa208sha256/sse/pwhash_scryptsalsa208sha256_sse.c:392:9 ]
	jne	.LBB0_26
.Ltmp155:
# %bb.27:                               # %smix.exit
                                        #   in Loop: Header=BB0_18 Depth=1
	#DEBUG_VALUE: escrypt_kdf_sse:local <- [DW_OP_LLVM_entry_value 1] $rdi
	#DEBUG_VALUE: escrypt_kdf_sse:passwd <- [DW_OP_LLVM_entry_value 1] $rsi
	#DEBUG_VALUE: escrypt_kdf_sse:passwdlen <- [DW_OP_plus_uconst 40] [$rsp+0]
	#DEBUG_VALUE: escrypt_kdf_sse:salt <- [DW_OP_LLVM_entry_value 1] $rcx
	#DEBUG_VALUE: escrypt_kdf_sse:saltlen <- [DW_OP_LLVM_entry_value 1] $r8
	#DEBUG_VALUE: escrypt_kdf_sse:N <- [DW_OP_plus_uconst 48] [$rsp+0]
	#DEBUG_VALUE: escrypt_kdf_sse:_r <- [DW_OP_plus_uconst 192] [$rsp+0]
	#DEBUG_VALUE: escrypt_kdf_sse:_p <- [DW_OP_plus_uconst 200] [$rsp+0]
	#DEBUG_VALUE: escrypt_kdf_sse:buf <- [DW_OP_plus_uconst 208] [$rsp+0]
	#DEBUG_VALUE: escrypt_kdf_sse:buflen <- [DW_OP_plus_uconst 216] [$rsp+0]
	#DEBUG_VALUE: escrypt_kdf_sse:B_size <- [DW_OP_plus_uconst 96, DW_OP_deref] $rsp
	#DEBUG_VALUE: escrypt_kdf_sse:B <- [DW_OP_plus_uconst 112, DW_OP_deref] $rsp
	#DEBUG_VALUE: escrypt_kdf_sse:V <- [DW_OP_plus_uconst 16, DW_OP_deref] $rsp
	#DEBUG_VALUE: escrypt_kdf_sse:XY <- [DW_OP_plus_uconst 32, DW_OP_deref] $rsp
	#DEBUG_VALUE: escrypt_kdf_sse:i <- [DW_OP_plus_uconst 120, DW_OP_deref_size 8, DW_OP_stack_value] $rsp
	.loc	7 0 5                           # crypto_pwhash/scryptsalsa208sha256/sse/pwhash_scryptsalsa208sha256_sse.c:0:5
	movq	120(%rsp), %rax                 # 8-byte Reload
	.loc	7 390 25 is_stmt 1              # crypto_pwhash/scryptsalsa208sha256/sse/pwhash_scryptsalsa208sha256_sse.c:390:25
	incq	%rax
.Ltmp156:
	#DEBUG_VALUE: escrypt_kdf_sse:i <- $rax
	.loc	7 390 5 is_stmt 0               # crypto_pwhash/scryptsalsa208sha256/sse/pwhash_scryptsalsa208sha256_sse.c:390:5
	addq	8(%rsp), %r13                   # 8-byte Folded Reload
.Ltmp157:
	.loc	7 390 19                        # crypto_pwhash/scryptsalsa208sha256/sse/pwhash_scryptsalsa208sha256_sse.c:390:19
	cmpq	%rsi, %rax
	movq	96(%rsp), %r12                  # 8-byte Reload
.Ltmp158:
	.loc	7 390 5                         # crypto_pwhash/scryptsalsa208sha256/sse/pwhash_scryptsalsa208sha256_sse.c:390:5
	jne	.LBB0_18
.Ltmp159:
# %bb.28:                               # %._crit_edge
	#DEBUG_VALUE: escrypt_kdf_sse:local <- [DW_OP_LLVM_entry_value 1] $rdi
	#DEBUG_VALUE: escrypt_kdf_sse:passwd <- [DW_OP_LLVM_entry_value 1] $rsi
	#DEBUG_VALUE: escrypt_kdf_sse:passwdlen <- [DW_OP_plus_uconst 40] [$rsp+0]
	#DEBUG_VALUE: escrypt_kdf_sse:salt <- [DW_OP_LLVM_entry_value 1] $rcx
	#DEBUG_VALUE: escrypt_kdf_sse:saltlen <- [DW_OP_LLVM_entry_value 1] $r8
	#DEBUG_VALUE: escrypt_kdf_sse:N <- [DW_OP_plus_uconst 48] [$rsp+0]
	#DEBUG_VALUE: escrypt_kdf_sse:_r <- [DW_OP_plus_uconst 192] [$rsp+0]
	#DEBUG_VALUE: escrypt_kdf_sse:_p <- [DW_OP_plus_uconst 200] [$rsp+0]
	#DEBUG_VALUE: escrypt_kdf_sse:buf <- [DW_OP_plus_uconst 208] [$rsp+0]
	#DEBUG_VALUE: escrypt_kdf_sse:buflen <- [DW_OP_plus_uconst 216] [$rsp+0]
	#DEBUG_VALUE: escrypt_kdf_sse:B_size <- [DW_OP_plus_uconst 96, DW_OP_deref] $rsp
	#DEBUG_VALUE: escrypt_kdf_sse:B <- [DW_OP_plus_uconst 112, DW_OP_deref] $rsp
	#DEBUG_VALUE: escrypt_kdf_sse:V <- [DW_OP_plus_uconst 16, DW_OP_deref] $rsp
	#DEBUG_VALUE: escrypt_kdf_sse:XY <- [DW_OP_plus_uconst 32, DW_OP_deref] $rsp
	#DEBUG_VALUE: escrypt_kdf_sse:i <- $rax
	.loc	7 396 5 is_stmt 1               # crypto_pwhash/scryptsalsa208sha256/sse/pwhash_scryptsalsa208sha256_sse.c:396:5
	movq	216(%rsp), %rax
.Ltmp160:
	movq	%rax, (%rsp)
	movl	$1, %r8d
	movq	64(%rsp), %rdi                  # 8-byte Reload
	movq	40(%rsp), %rsi                  # 8-byte Reload
	movq	%r14, %rdx
	movq	%r12, %rcx
	movq	208(%rsp), %r9
	callq	escrypt_PBKDF2_SHA256@PLT
.Ltmp161:
	.loc	7 0 5 is_stmt 0                 # crypto_pwhash/scryptsalsa208sha256/sse/pwhash_scryptsalsa208sha256_sse.c:0:5
	xorl	%eax, %eax
	jmp	.LBB0_5
.Ltmp162:
.LBB0_29:
	#DEBUG_VALUE: escrypt_kdf_sse:local <- $rdi
	#DEBUG_VALUE: escrypt_kdf_sse:passwd <- $rsi
	#DEBUG_VALUE: escrypt_kdf_sse:passwdlen <- [DW_OP_plus_uconst 40] [$rsp+0]
	#DEBUG_VALUE: escrypt_kdf_sse:salt <- $rcx
	#DEBUG_VALUE: escrypt_kdf_sse:saltlen <- $r8
	#DEBUG_VALUE: escrypt_kdf_sse:N <- $r9
	#DEBUG_VALUE: escrypt_kdf_sse:_r <- [DW_OP_plus_uconst 192] [$rsp+0]
	#DEBUG_VALUE: escrypt_kdf_sse:_p <- [DW_OP_plus_uconst 200] [$rsp+0]
	#DEBUG_VALUE: escrypt_kdf_sse:buf <- [DW_OP_plus_uconst 208] [$rsp+0]
	#DEBUG_VALUE: escrypt_kdf_sse:buflen <- [DW_OP_plus_uconst 216] [$rsp+0]
	#DEBUG_VALUE: escrypt_kdf_sse:r <- $r13d
	#DEBUG_VALUE: escrypt_kdf_sse:p <- $r15d
	callq	__errno_location@PLT
.Ltmp163:
	#DEBUG_VALUE: escrypt_kdf_sse:N <- [DW_OP_LLVM_entry_value 1] $r9
	#DEBUG_VALUE: escrypt_kdf_sse:saltlen <- [DW_OP_LLVM_entry_value 1] $r8
	#DEBUG_VALUE: escrypt_kdf_sse:salt <- [DW_OP_LLVM_entry_value 1] $rcx
	#DEBUG_VALUE: escrypt_kdf_sse:passwd <- [DW_OP_LLVM_entry_value 1] $rsi
	#DEBUG_VALUE: escrypt_kdf_sse:local <- [DW_OP_LLVM_entry_value 1] $rdi
	movl	$12, (%rax)
	jmp	.LBB0_4
.Ltmp164:
.Lfunc_end0:
	.size	escrypt_kdf_sse, .Lfunc_end0-escrypt_kdf_sse
	.cfi_endproc
	.file	9 "./include/sodium/private" "common.h"
	.file	10 "/usr/include" "errno.h"
	.file	11 "crypto_pwhash/scryptsalsa208sha256/sse/.." "crypto_scrypt.h"
	.file	12 "crypto_pwhash/scryptsalsa208sha256/sse/.." "pbkdf2-sha256.h"
                                        # -- End function
	.p2align	4                               # -- Begin function blockmix_salsa8
	.type	blockmix_salsa8,@function
blockmix_salsa8:                        # @blockmix_salsa8
.Lfunc_begin1:
	.cfi_startproc
# %bb.0:
	#DEBUG_VALUE: blockmix_salsa8:Bin <- $rdi
	#DEBUG_VALUE: blockmix_salsa8:Bout <- $rsi
	#DEBUG_VALUE: blockmix_salsa8:r <- $rdx
	.loc	7 115 10 prologue_end is_stmt 1 # crypto_pwhash/scryptsalsa208sha256/sse/pwhash_scryptsalsa208sha256_sse.c:115:10
	movq	%rdx, %rax
	shlq	$7, %rax
.Ltmp165:
	#DEBUG_VALUE: blockmix_salsa8:X0 <- undef
	#DEBUG_VALUE: blockmix_salsa8:X1 <- undef
	#DEBUG_VALUE: blockmix_salsa8:X2 <- undef
	#DEBUG_VALUE: blockmix_salsa8:X3 <- undef
	.loc	7 123 43                        # crypto_pwhash/scryptsalsa208sha256/sse/pwhash_scryptsalsa208sha256_sse.c:123:43
	movdqa	(%rdi), %xmm7
	.loc	7 123 90 is_stmt 0              # crypto_pwhash/scryptsalsa208sha256/sse/pwhash_scryptsalsa208sha256_sse.c:123:90
	movdqa	16(%rdi), %xmm6
	.loc	7 123 137                       # crypto_pwhash/scryptsalsa208sha256/sse/pwhash_scryptsalsa208sha256_sse.c:123:137
	movdqa	32(%rdi), %xmm5
	.loc	7 123 184                       # crypto_pwhash/scryptsalsa208sha256/sse/pwhash_scryptsalsa208sha256_sse.c:123:184
	movdqa	48(%rdi), %xmm4
	.loc	7 123 25                        # crypto_pwhash/scryptsalsa208sha256/sse/pwhash_scryptsalsa208sha256_sse.c:123:25
	pxor	-64(%rdi,%rax), %xmm7
.Ltmp166:
	#DEBUG_VALUE: blockmix_salsa8:X0 <- $xmm7
	#DEBUG_VALUE: Y0 <- $xmm7
	.loc	7 123 72                        # crypto_pwhash/scryptsalsa208sha256/sse/pwhash_scryptsalsa208sha256_sse.c:123:72
	pxor	-48(%rdi,%rax), %xmm6
.Ltmp167:
	#DEBUG_VALUE: blockmix_salsa8:X1 <- $xmm6
	#DEBUG_VALUE: Y1 <- $xmm6
	.loc	7 123 119                       # crypto_pwhash/scryptsalsa208sha256/sse/pwhash_scryptsalsa208sha256_sse.c:123:119
	pxor	-32(%rdi,%rax), %xmm5
.Ltmp168:
	#DEBUG_VALUE: blockmix_salsa8:X2 <- $xmm5
	#DEBUG_VALUE: Y2 <- $xmm5
	.loc	7 123 166                       # crypto_pwhash/scryptsalsa208sha256/sse/pwhash_scryptsalsa208sha256_sse.c:123:166
	pxor	-16(%rdi,%rax), %xmm4
.Ltmp169:
	#DEBUG_VALUE: blockmix_salsa8:X3 <- $xmm4
	#DEBUG_VALUE: Y3 <- $xmm4
	.loc	7 123 209                       # crypto_pwhash/scryptsalsa208sha256/sse/pwhash_scryptsalsa208sha256_sse.c:123:209
	movdqa	%xmm4, %xmm1
	paddd	%xmm7, %xmm1
.Ltmp170:
	#DEBUG_VALUE: blockmix_salsa8:X1 <- [DW_OP_LLVM_arg 0, DW_OP_LLVM_arg 0, DW_OP_LLVM_arg 0, DW_OP_shl, DW_OP_xor, DW_OP_stack_value] undef
	#DEBUG_VALUE: T <- $xmm1
	.loc	7 123 283                       # crypto_pwhash/scryptsalsa208sha256/sse/pwhash_scryptsalsa208sha256_sse.c:123:283
	movdqa	%xmm1, %xmm0
	psrld	$25, %xmm0
	pslld	$7, %xmm1
.Ltmp171:
	por	%xmm0, %xmm1
.Ltmp172:
	#DEBUG_VALUE: blockmix_salsa8:X1 <- undef
	.loc	7 123 345                       # crypto_pwhash/scryptsalsa208sha256/sse/pwhash_scryptsalsa208sha256_sse.c:123:345
	pxor	%xmm6, %xmm1
	movdqa	%xmm1, %xmm2
	paddd	%xmm7, %xmm2
.Ltmp173:
	#DEBUG_VALUE: blockmix_salsa8:X2 <- [DW_OP_LLVM_arg 0, DW_OP_LLVM_arg 0, DW_OP_LLVM_arg 0, DW_OP_shl, DW_OP_xor, DW_OP_stack_value] undef
	#DEBUG_VALUE: T <- $xmm2
	.loc	7 123 419                       # crypto_pwhash/scryptsalsa208sha256/sse/pwhash_scryptsalsa208sha256_sse.c:123:419
	movdqa	%xmm2, %xmm0
	psrld	$23, %xmm0
	pslld	$9, %xmm2
.Ltmp174:
	por	%xmm0, %xmm2
.Ltmp175:
	#DEBUG_VALUE: blockmix_salsa8:X2 <- undef
	.loc	7 123 481                       # crypto_pwhash/scryptsalsa208sha256/sse/pwhash_scryptsalsa208sha256_sse.c:123:481
	pxor	%xmm5, %xmm2
	movdqa	%xmm2, %xmm0
	paddd	%xmm1, %xmm0
.Ltmp176:
	#DEBUG_VALUE: blockmix_salsa8:X3 <- [DW_OP_LLVM_arg 0, DW_OP_LLVM_arg 0, DW_OP_LLVM_arg 0, DW_OP_shl, DW_OP_xor, DW_OP_stack_value] undef
	#DEBUG_VALUE: T <- $xmm0
	.loc	7 123 556                       # crypto_pwhash/scryptsalsa208sha256/sse/pwhash_scryptsalsa208sha256_sse.c:123:556
	movdqa	%xmm0, %xmm3
	psrld	$19, %xmm3
	pslld	$13, %xmm0
.Ltmp177:
	por	%xmm3, %xmm0
.Ltmp178:
	#DEBUG_VALUE: blockmix_salsa8:X3 <- undef
	.loc	7 123 619                       # crypto_pwhash/scryptsalsa208sha256/sse/pwhash_scryptsalsa208sha256_sse.c:123:619
	pxor	%xmm4, %xmm0
.Ltmp179:
	#DEBUG_VALUE: blockmix_salsa8:X2 <- undef
	.loc	7 123 908                       # crypto_pwhash/scryptsalsa208sha256/sse/pwhash_scryptsalsa208sha256_sse.c:123:908
	pshufd	$57, %xmm0, %xmm3               # xmm3 = xmm0[1,2,3,0]
.Ltmp180:
	.loc	7 123 619                       # crypto_pwhash/scryptsalsa208sha256/sse/pwhash_scryptsalsa208sha256_sse.c:123:619
	paddd	%xmm2, %xmm0
.Ltmp181:
	#DEBUG_VALUE: blockmix_salsa8:X0 <- [DW_OP_LLVM_arg 0, DW_OP_LLVM_arg 0, DW_OP_LLVM_arg 0, DW_OP_shl, DW_OP_xor, DW_OP_stack_value] undef
	#DEBUG_VALUE: T <- $xmm0
	.loc	7 123 694                       # crypto_pwhash/scryptsalsa208sha256/sse/pwhash_scryptsalsa208sha256_sse.c:123:694
	movdqa	%xmm0, %xmm8
	psrld	$14, %xmm8
	pslld	$18, %xmm0
.Ltmp182:
	por	%xmm8, %xmm0
	pxor	%xmm7, %xmm0
.Ltmp183:
	#DEBUG_VALUE: blockmix_salsa8:X0 <- undef
	.loc	7 123 758                       # crypto_pwhash/scryptsalsa208sha256/sse/pwhash_scryptsalsa208sha256_sse.c:123:758
	pshufd	$147, %xmm1, %xmm8              # xmm8 = xmm1[3,0,1,2]
.Ltmp184:
	#DEBUG_VALUE: blockmix_salsa8:X1 <- $xmm8
	.loc	7 123 833                       # crypto_pwhash/scryptsalsa208sha256/sse/pwhash_scryptsalsa208sha256_sse.c:123:833
	pshufd	$78, %xmm2, %xmm1               # xmm1 = xmm2[2,3,0,1]
.Ltmp185:
	#DEBUG_VALUE: blockmix_salsa8:X2 <- $xmm1
	#DEBUG_VALUE: blockmix_salsa8:X3 <- $xmm3
	.loc	7 123 982                       # crypto_pwhash/scryptsalsa208sha256/sse/pwhash_scryptsalsa208sha256_sse.c:123:982
	movdqa	%xmm8, %xmm2
	paddd	%xmm0, %xmm2
.Ltmp186:
	#DEBUG_VALUE: T <- $xmm2
	.loc	7 123 1028                      # crypto_pwhash/scryptsalsa208sha256/sse/pwhash_scryptsalsa208sha256_sse.c:123:1028
	movdqa	%xmm2, %xmm9
	pslld	$7, %xmm9
	.loc	7 123 1010                      # crypto_pwhash/scryptsalsa208sha256/sse/pwhash_scryptsalsa208sha256_sse.c:123:1010
	pxor	%xmm3, %xmm9
.Ltmp187:
	#DEBUG_VALUE: blockmix_salsa8:X3 <- $xmm9
	.loc	7 123 1074                      # crypto_pwhash/scryptsalsa208sha256/sse/pwhash_scryptsalsa208sha256_sse.c:123:1074
	psrld	$25, %xmm2
.Ltmp188:
	.loc	7 123 1056                      # crypto_pwhash/scryptsalsa208sha256/sse/pwhash_scryptsalsa208sha256_sse.c:123:1056
	pxor	%xmm9, %xmm2
.Ltmp189:
	#DEBUG_VALUE: blockmix_salsa8:X3 <- $xmm2
	.loc	7 123 1118                      # crypto_pwhash/scryptsalsa208sha256/sse/pwhash_scryptsalsa208sha256_sse.c:123:1118
	movdqa	%xmm2, %xmm3
	paddd	%xmm0, %xmm3
.Ltmp190:
	#DEBUG_VALUE: T <- $xmm3
	.loc	7 123 1164                      # crypto_pwhash/scryptsalsa208sha256/sse/pwhash_scryptsalsa208sha256_sse.c:123:1164
	movdqa	%xmm3, %xmm9
	pslld	$9, %xmm9
	.loc	7 123 1146                      # crypto_pwhash/scryptsalsa208sha256/sse/pwhash_scryptsalsa208sha256_sse.c:123:1146
	pxor	%xmm1, %xmm9
.Ltmp191:
	#DEBUG_VALUE: blockmix_salsa8:X2 <- $xmm9
	.loc	7 123 1210                      # crypto_pwhash/scryptsalsa208sha256/sse/pwhash_scryptsalsa208sha256_sse.c:123:1210
	psrld	$23, %xmm3
.Ltmp192:
	.loc	7 123 1192                      # crypto_pwhash/scryptsalsa208sha256/sse/pwhash_scryptsalsa208sha256_sse.c:123:1192
	pxor	%xmm9, %xmm3
.Ltmp193:
	#DEBUG_VALUE: blockmix_salsa8:X2 <- $xmm3
	.loc	7 123 1254                      # crypto_pwhash/scryptsalsa208sha256/sse/pwhash_scryptsalsa208sha256_sse.c:123:1254
	movdqa	%xmm3, %xmm1
	paddd	%xmm2, %xmm1
.Ltmp194:
	#DEBUG_VALUE: T <- $xmm1
	.loc	7 123 1329                      # crypto_pwhash/scryptsalsa208sha256/sse/pwhash_scryptsalsa208sha256_sse.c:123:1329
	movdqa	%xmm1, %xmm9
	psrld	$19, %xmm9
	pslld	$13, %xmm1
.Ltmp195:
	por	%xmm9, %xmm1
	pxor	%xmm8, %xmm1
.Ltmp196:
	.loc	7 123 1531                      # crypto_pwhash/scryptsalsa208sha256/sse/pwhash_scryptsalsa208sha256_sse.c:123:1531
	pshufd	$57, %xmm1, %xmm8               # xmm8 = xmm1[1,2,3,0]
.Ltmp197:
	#DEBUG_VALUE: blockmix_salsa8:X1 <- $xmm1
	.loc	7 123 1392                      # crypto_pwhash/scryptsalsa208sha256/sse/pwhash_scryptsalsa208sha256_sse.c:123:1392
	paddd	%xmm3, %xmm1
.Ltmp198:
	#DEBUG_VALUE: T <- $xmm1
	.loc	7 123 1467                      # crypto_pwhash/scryptsalsa208sha256/sse/pwhash_scryptsalsa208sha256_sse.c:123:1467
	movdqa	%xmm1, %xmm9
	psrld	$14, %xmm9
	pslld	$18, %xmm1
.Ltmp199:
	por	%xmm9, %xmm1
	pxor	%xmm0, %xmm1
.Ltmp200:
	#DEBUG_VALUE: blockmix_salsa8:X1 <- $xmm8
	.loc	7 123 1606                      # crypto_pwhash/scryptsalsa208sha256/sse/pwhash_scryptsalsa208sha256_sse.c:123:1606
	pshufd	$78, %xmm3, %xmm0               # xmm0 = xmm3[2,3,0,1]
.Ltmp201:
	#DEBUG_VALUE: blockmix_salsa8:X2 <- $xmm0
	.loc	7 123 1681                      # crypto_pwhash/scryptsalsa208sha256/sse/pwhash_scryptsalsa208sha256_sse.c:123:1681
	pshufd	$147, %xmm2, %xmm3              # xmm3 = xmm2[3,0,1,2]
.Ltmp202:
	#DEBUG_VALUE: blockmix_salsa8:X3 <- $xmm3
	.loc	7 123 1755                      # crypto_pwhash/scryptsalsa208sha256/sse/pwhash_scryptsalsa208sha256_sse.c:123:1755
	movdqa	%xmm3, %xmm2
	paddd	%xmm1, %xmm2
.Ltmp203:
	#DEBUG_VALUE: T <- $xmm2
	.loc	7 123 1801                      # crypto_pwhash/scryptsalsa208sha256/sse/pwhash_scryptsalsa208sha256_sse.c:123:1801
	movdqa	%xmm2, %xmm9
	pslld	$7, %xmm9
	.loc	7 123 1783                      # crypto_pwhash/scryptsalsa208sha256/sse/pwhash_scryptsalsa208sha256_sse.c:123:1783
	pxor	%xmm8, %xmm9
.Ltmp204:
	#DEBUG_VALUE: blockmix_salsa8:X1 <- $xmm9
	.loc	7 123 1847                      # crypto_pwhash/scryptsalsa208sha256/sse/pwhash_scryptsalsa208sha256_sse.c:123:1847
	psrld	$25, %xmm2
.Ltmp205:
	.loc	7 123 1829                      # crypto_pwhash/scryptsalsa208sha256/sse/pwhash_scryptsalsa208sha256_sse.c:123:1829
	pxor	%xmm9, %xmm2
.Ltmp206:
	#DEBUG_VALUE: blockmix_salsa8:X1 <- $xmm2
	.loc	7 123 1891                      # crypto_pwhash/scryptsalsa208sha256/sse/pwhash_scryptsalsa208sha256_sse.c:123:1891
	movdqa	%xmm2, %xmm8
	paddd	%xmm1, %xmm8
.Ltmp207:
	#DEBUG_VALUE: T <- $xmm8
	.loc	7 123 1937                      # crypto_pwhash/scryptsalsa208sha256/sse/pwhash_scryptsalsa208sha256_sse.c:123:1937
	movdqa	%xmm8, %xmm9
	pslld	$9, %xmm9
	.loc	7 123 1919                      # crypto_pwhash/scryptsalsa208sha256/sse/pwhash_scryptsalsa208sha256_sse.c:123:1919
	pxor	%xmm0, %xmm9
.Ltmp208:
	#DEBUG_VALUE: blockmix_salsa8:X2 <- $xmm9
	.loc	7 123 1983                      # crypto_pwhash/scryptsalsa208sha256/sse/pwhash_scryptsalsa208sha256_sse.c:123:1983
	psrld	$23, %xmm8
.Ltmp209:
	.loc	7 123 1965                      # crypto_pwhash/scryptsalsa208sha256/sse/pwhash_scryptsalsa208sha256_sse.c:123:1965
	pxor	%xmm9, %xmm8
.Ltmp210:
	#DEBUG_VALUE: blockmix_salsa8:X2 <- $xmm8
	.loc	7 123 2027                      # crypto_pwhash/scryptsalsa208sha256/sse/pwhash_scryptsalsa208sha256_sse.c:123:2027
	movdqa	%xmm8, %xmm0
	paddd	%xmm2, %xmm0
.Ltmp211:
	#DEBUG_VALUE: T <- $xmm0
	.loc	7 123 2102                      # crypto_pwhash/scryptsalsa208sha256/sse/pwhash_scryptsalsa208sha256_sse.c:123:2102
	movdqa	%xmm0, %xmm9
	psrld	$19, %xmm9
	pslld	$13, %xmm0
.Ltmp212:
	por	%xmm9, %xmm0
	pxor	%xmm3, %xmm0
.Ltmp213:
	#DEBUG_VALUE: blockmix_salsa8:X2 <- undef
	.loc	7 123 2454                      # crypto_pwhash/scryptsalsa208sha256/sse/pwhash_scryptsalsa208sha256_sse.c:123:2454
	pshufd	$57, %xmm0, %xmm3               # xmm3 = xmm0[1,2,3,0]
.Ltmp214:
	#DEBUG_VALUE: blockmix_salsa8:X3 <- $xmm0
	.loc	7 123 2165                      # crypto_pwhash/scryptsalsa208sha256/sse/pwhash_scryptsalsa208sha256_sse.c:123:2165
	paddd	%xmm8, %xmm0
.Ltmp215:
	#DEBUG_VALUE: T <- $xmm0
	.loc	7 123 2240                      # crypto_pwhash/scryptsalsa208sha256/sse/pwhash_scryptsalsa208sha256_sse.c:123:2240
	movdqa	%xmm0, %xmm9
	psrld	$14, %xmm9
	pslld	$18, %xmm0
.Ltmp216:
	por	%xmm9, %xmm0
	pxor	%xmm1, %xmm0
.Ltmp217:
	.loc	7 123 2304                      # crypto_pwhash/scryptsalsa208sha256/sse/pwhash_scryptsalsa208sha256_sse.c:123:2304
	pshufd	$147, %xmm2, %xmm9              # xmm9 = xmm2[3,0,1,2]
.Ltmp218:
	#DEBUG_VALUE: blockmix_salsa8:X1 <- $xmm9
	.loc	7 123 2379                      # crypto_pwhash/scryptsalsa208sha256/sse/pwhash_scryptsalsa208sha256_sse.c:123:2379
	pshufd	$78, %xmm8, %xmm1               # xmm1 = xmm8[2,3,0,1]
.Ltmp219:
	#DEBUG_VALUE: blockmix_salsa8:X2 <- $xmm1
	#DEBUG_VALUE: blockmix_salsa8:X3 <- $xmm3
	.loc	7 123 2528                      # crypto_pwhash/scryptsalsa208sha256/sse/pwhash_scryptsalsa208sha256_sse.c:123:2528
	movdqa	%xmm9, %xmm2
	paddd	%xmm0, %xmm2
.Ltmp220:
	#DEBUG_VALUE: T <- $xmm2
	.loc	7 123 2574                      # crypto_pwhash/scryptsalsa208sha256/sse/pwhash_scryptsalsa208sha256_sse.c:123:2574
	movdqa	%xmm2, %xmm8
	pslld	$7, %xmm8
	.loc	7 123 2556                      # crypto_pwhash/scryptsalsa208sha256/sse/pwhash_scryptsalsa208sha256_sse.c:123:2556
	pxor	%xmm3, %xmm8
.Ltmp221:
	#DEBUG_VALUE: blockmix_salsa8:X3 <- $xmm8
	.loc	7 123 2620                      # crypto_pwhash/scryptsalsa208sha256/sse/pwhash_scryptsalsa208sha256_sse.c:123:2620
	psrld	$25, %xmm2
.Ltmp222:
	.loc	7 123 2602                      # crypto_pwhash/scryptsalsa208sha256/sse/pwhash_scryptsalsa208sha256_sse.c:123:2602
	pxor	%xmm8, %xmm2
.Ltmp223:
	#DEBUG_VALUE: blockmix_salsa8:X3 <- $xmm2
	.loc	7 123 2664                      # crypto_pwhash/scryptsalsa208sha256/sse/pwhash_scryptsalsa208sha256_sse.c:123:2664
	movdqa	%xmm2, %xmm3
	paddd	%xmm0, %xmm3
.Ltmp224:
	#DEBUG_VALUE: T <- $xmm3
	.loc	7 123 2710                      # crypto_pwhash/scryptsalsa208sha256/sse/pwhash_scryptsalsa208sha256_sse.c:123:2710
	movdqa	%xmm3, %xmm8
	pslld	$9, %xmm8
	.loc	7 123 2692                      # crypto_pwhash/scryptsalsa208sha256/sse/pwhash_scryptsalsa208sha256_sse.c:123:2692
	pxor	%xmm1, %xmm8
.Ltmp225:
	#DEBUG_VALUE: blockmix_salsa8:X2 <- $xmm8
	.loc	7 123 2756                      # crypto_pwhash/scryptsalsa208sha256/sse/pwhash_scryptsalsa208sha256_sse.c:123:2756
	psrld	$23, %xmm3
.Ltmp226:
	.loc	7 123 2738                      # crypto_pwhash/scryptsalsa208sha256/sse/pwhash_scryptsalsa208sha256_sse.c:123:2738
	pxor	%xmm8, %xmm3
.Ltmp227:
	#DEBUG_VALUE: blockmix_salsa8:X2 <- $xmm3
	.loc	7 123 2800                      # crypto_pwhash/scryptsalsa208sha256/sse/pwhash_scryptsalsa208sha256_sse.c:123:2800
	movdqa	%xmm3, %xmm1
	paddd	%xmm2, %xmm1
.Ltmp228:
	#DEBUG_VALUE: T <- $xmm1
	.loc	7 123 2875                      # crypto_pwhash/scryptsalsa208sha256/sse/pwhash_scryptsalsa208sha256_sse.c:123:2875
	movdqa	%xmm1, %xmm8
	psrld	$19, %xmm8
	pslld	$13, %xmm1
.Ltmp229:
	por	%xmm8, %xmm1
	pxor	%xmm9, %xmm1
.Ltmp230:
	.loc	7 123 3077                      # crypto_pwhash/scryptsalsa208sha256/sse/pwhash_scryptsalsa208sha256_sse.c:123:3077
	pshufd	$57, %xmm1, %xmm8               # xmm8 = xmm1[1,2,3,0]
.Ltmp231:
	#DEBUG_VALUE: blockmix_salsa8:X1 <- $xmm1
	.loc	7 123 2938                      # crypto_pwhash/scryptsalsa208sha256/sse/pwhash_scryptsalsa208sha256_sse.c:123:2938
	paddd	%xmm3, %xmm1
.Ltmp232:
	#DEBUG_VALUE: T <- $xmm1
	.loc	7 123 3013                      # crypto_pwhash/scryptsalsa208sha256/sse/pwhash_scryptsalsa208sha256_sse.c:123:3013
	movdqa	%xmm1, %xmm9
	psrld	$14, %xmm9
	pslld	$18, %xmm1
.Ltmp233:
	por	%xmm9, %xmm1
	pxor	%xmm0, %xmm1
.Ltmp234:
	#DEBUG_VALUE: blockmix_salsa8:X1 <- $xmm8
	.loc	7 123 3152                      # crypto_pwhash/scryptsalsa208sha256/sse/pwhash_scryptsalsa208sha256_sse.c:123:3152
	pshufd	$78, %xmm3, %xmm3               # xmm3 = xmm3[2,3,0,1]
.Ltmp235:
	#DEBUG_VALUE: blockmix_salsa8:X2 <- $xmm3
	.loc	7 123 3227                      # crypto_pwhash/scryptsalsa208sha256/sse/pwhash_scryptsalsa208sha256_sse.c:123:3227
	pshufd	$147, %xmm2, %xmm9              # xmm9 = xmm2[3,0,1,2]
.Ltmp236:
	#DEBUG_VALUE: blockmix_salsa8:X3 <- $xmm9
	.loc	7 123 3301                      # crypto_pwhash/scryptsalsa208sha256/sse/pwhash_scryptsalsa208sha256_sse.c:123:3301
	movdqa	%xmm9, %xmm0
	paddd	%xmm1, %xmm0
.Ltmp237:
	#DEBUG_VALUE: T <- $xmm0
	.loc	7 123 3347                      # crypto_pwhash/scryptsalsa208sha256/sse/pwhash_scryptsalsa208sha256_sse.c:123:3347
	movdqa	%xmm0, %xmm2
	pslld	$7, %xmm2
	.loc	7 123 3329                      # crypto_pwhash/scryptsalsa208sha256/sse/pwhash_scryptsalsa208sha256_sse.c:123:3329
	pxor	%xmm8, %xmm2
.Ltmp238:
	#DEBUG_VALUE: blockmix_salsa8:X1 <- $xmm2
	.loc	7 123 3393                      # crypto_pwhash/scryptsalsa208sha256/sse/pwhash_scryptsalsa208sha256_sse.c:123:3393
	psrld	$25, %xmm0
.Ltmp239:
	.loc	7 123 3375                      # crypto_pwhash/scryptsalsa208sha256/sse/pwhash_scryptsalsa208sha256_sse.c:123:3375
	pxor	%xmm2, %xmm0
.Ltmp240:
	#DEBUG_VALUE: blockmix_salsa8:X1 <- $xmm0
	.loc	7 123 3437                      # crypto_pwhash/scryptsalsa208sha256/sse/pwhash_scryptsalsa208sha256_sse.c:123:3437
	movdqa	%xmm0, %xmm8
	paddd	%xmm1, %xmm8
.Ltmp241:
	#DEBUG_VALUE: T <- $xmm8
	.loc	7 123 3483                      # crypto_pwhash/scryptsalsa208sha256/sse/pwhash_scryptsalsa208sha256_sse.c:123:3483
	movdqa	%xmm8, %xmm2
	pslld	$9, %xmm2
	.loc	7 123 3465                      # crypto_pwhash/scryptsalsa208sha256/sse/pwhash_scryptsalsa208sha256_sse.c:123:3465
	pxor	%xmm3, %xmm2
.Ltmp242:
	#DEBUG_VALUE: blockmix_salsa8:X2 <- $xmm2
	.loc	7 123 3529                      # crypto_pwhash/scryptsalsa208sha256/sse/pwhash_scryptsalsa208sha256_sse.c:123:3529
	psrld	$23, %xmm8
.Ltmp243:
	.loc	7 123 3511                      # crypto_pwhash/scryptsalsa208sha256/sse/pwhash_scryptsalsa208sha256_sse.c:123:3511
	pxor	%xmm2, %xmm8
.Ltmp244:
	#DEBUG_VALUE: blockmix_salsa8:X2 <- $xmm8
	.loc	7 123 3573                      # crypto_pwhash/scryptsalsa208sha256/sse/pwhash_scryptsalsa208sha256_sse.c:123:3573
	movdqa	%xmm8, %xmm2
	paddd	%xmm0, %xmm2
.Ltmp245:
	#DEBUG_VALUE: T <- $xmm2
	.loc	7 123 3648                      # crypto_pwhash/scryptsalsa208sha256/sse/pwhash_scryptsalsa208sha256_sse.c:123:3648
	movdqa	%xmm2, %xmm3
	psrld	$19, %xmm3
	pslld	$13, %xmm2
.Ltmp246:
	por	%xmm3, %xmm2
	pxor	%xmm9, %xmm2
.Ltmp247:
	#DEBUG_VALUE: blockmix_salsa8:X2 <- undef
	.loc	7 123 4000                      # crypto_pwhash/scryptsalsa208sha256/sse/pwhash_scryptsalsa208sha256_sse.c:123:4000
	pshufd	$57, %xmm2, %xmm3               # xmm3 = xmm2[1,2,3,0]
.Ltmp248:
	#DEBUG_VALUE: blockmix_salsa8:X3 <- $xmm2
	.loc	7 123 3711                      # crypto_pwhash/scryptsalsa208sha256/sse/pwhash_scryptsalsa208sha256_sse.c:123:3711
	paddd	%xmm8, %xmm2
.Ltmp249:
	#DEBUG_VALUE: T <- $xmm2
	.loc	7 123 3786                      # crypto_pwhash/scryptsalsa208sha256/sse/pwhash_scryptsalsa208sha256_sse.c:123:3786
	movdqa	%xmm2, %xmm9
	psrld	$14, %xmm9
	pslld	$18, %xmm2
.Ltmp250:
	por	%xmm9, %xmm2
	pxor	%xmm1, %xmm2
.Ltmp251:
	.loc	7 123 3850                      # crypto_pwhash/scryptsalsa208sha256/sse/pwhash_scryptsalsa208sha256_sse.c:123:3850
	pshufd	$147, %xmm0, %xmm9              # xmm9 = xmm0[3,0,1,2]
.Ltmp252:
	#DEBUG_VALUE: blockmix_salsa8:X1 <- $xmm9
	.loc	7 123 3925                      # crypto_pwhash/scryptsalsa208sha256/sse/pwhash_scryptsalsa208sha256_sse.c:123:3925
	pshufd	$78, %xmm8, %xmm0               # xmm0 = xmm8[2,3,0,1]
.Ltmp253:
	#DEBUG_VALUE: blockmix_salsa8:X2 <- $xmm0
	#DEBUG_VALUE: blockmix_salsa8:X3 <- $xmm3
	.loc	7 123 4074                      # crypto_pwhash/scryptsalsa208sha256/sse/pwhash_scryptsalsa208sha256_sse.c:123:4074
	movdqa	%xmm9, %xmm1
	paddd	%xmm2, %xmm1
.Ltmp254:
	#DEBUG_VALUE: T <- $xmm1
	.loc	7 123 4120                      # crypto_pwhash/scryptsalsa208sha256/sse/pwhash_scryptsalsa208sha256_sse.c:123:4120
	movdqa	%xmm1, %xmm8
	pslld	$7, %xmm8
	.loc	7 123 4102                      # crypto_pwhash/scryptsalsa208sha256/sse/pwhash_scryptsalsa208sha256_sse.c:123:4102
	pxor	%xmm3, %xmm8
.Ltmp255:
	#DEBUG_VALUE: blockmix_salsa8:X3 <- $xmm8
	.loc	7 123 4166                      # crypto_pwhash/scryptsalsa208sha256/sse/pwhash_scryptsalsa208sha256_sse.c:123:4166
	psrld	$25, %xmm1
.Ltmp256:
	.loc	7 123 4148                      # crypto_pwhash/scryptsalsa208sha256/sse/pwhash_scryptsalsa208sha256_sse.c:123:4148
	pxor	%xmm8, %xmm1
.Ltmp257:
	#DEBUG_VALUE: blockmix_salsa8:X3 <- $xmm1
	.loc	7 123 4210                      # crypto_pwhash/scryptsalsa208sha256/sse/pwhash_scryptsalsa208sha256_sse.c:123:4210
	movdqa	%xmm1, %xmm3
	paddd	%xmm2, %xmm3
.Ltmp258:
	#DEBUG_VALUE: T <- $xmm3
	.loc	7 123 4256                      # crypto_pwhash/scryptsalsa208sha256/sse/pwhash_scryptsalsa208sha256_sse.c:123:4256
	movdqa	%xmm3, %xmm8
	pslld	$9, %xmm8
	.loc	7 123 4238                      # crypto_pwhash/scryptsalsa208sha256/sse/pwhash_scryptsalsa208sha256_sse.c:123:4238
	pxor	%xmm0, %xmm8
.Ltmp259:
	#DEBUG_VALUE: blockmix_salsa8:X2 <- $xmm8
	.loc	7 123 4302                      # crypto_pwhash/scryptsalsa208sha256/sse/pwhash_scryptsalsa208sha256_sse.c:123:4302
	psrld	$23, %xmm3
.Ltmp260:
	.loc	7 123 4284                      # crypto_pwhash/scryptsalsa208sha256/sse/pwhash_scryptsalsa208sha256_sse.c:123:4284
	pxor	%xmm8, %xmm3
.Ltmp261:
	#DEBUG_VALUE: blockmix_salsa8:X2 <- $xmm3
	.loc	7 123 4346                      # crypto_pwhash/scryptsalsa208sha256/sse/pwhash_scryptsalsa208sha256_sse.c:123:4346
	movdqa	%xmm3, %xmm0
	paddd	%xmm1, %xmm0
.Ltmp262:
	#DEBUG_VALUE: T <- $xmm0
	.loc	7 123 4421                      # crypto_pwhash/scryptsalsa208sha256/sse/pwhash_scryptsalsa208sha256_sse.c:123:4421
	movdqa	%xmm0, %xmm8
	psrld	$19, %xmm8
	pslld	$13, %xmm0
.Ltmp263:
	por	%xmm8, %xmm0
	pxor	%xmm9, %xmm0
.Ltmp264:
	.loc	7 123 4623                      # crypto_pwhash/scryptsalsa208sha256/sse/pwhash_scryptsalsa208sha256_sse.c:123:4623
	pshufd	$57, %xmm0, %xmm8               # xmm8 = xmm0[1,2,3,0]
.Ltmp265:
	#DEBUG_VALUE: blockmix_salsa8:X1 <- $xmm0
	.loc	7 123 4484                      # crypto_pwhash/scryptsalsa208sha256/sse/pwhash_scryptsalsa208sha256_sse.c:123:4484
	paddd	%xmm3, %xmm0
.Ltmp266:
	#DEBUG_VALUE: T <- $xmm0
	.loc	7 123 4559                      # crypto_pwhash/scryptsalsa208sha256/sse/pwhash_scryptsalsa208sha256_sse.c:123:4559
	movdqa	%xmm0, %xmm9
	psrld	$14, %xmm9
	pslld	$18, %xmm0
.Ltmp267:
	por	%xmm9, %xmm0
	pxor	%xmm2, %xmm0
.Ltmp268:
	#DEBUG_VALUE: blockmix_salsa8:X1 <- $xmm8
	.loc	7 123 4698                      # crypto_pwhash/scryptsalsa208sha256/sse/pwhash_scryptsalsa208sha256_sse.c:123:4698
	pshufd	$78, %xmm3, %xmm2               # xmm2 = xmm3[2,3,0,1]
.Ltmp269:
	#DEBUG_VALUE: blockmix_salsa8:X2 <- $xmm2
	.loc	7 123 4773                      # crypto_pwhash/scryptsalsa208sha256/sse/pwhash_scryptsalsa208sha256_sse.c:123:4773
	pshufd	$147, %xmm1, %xmm3              # xmm3 = xmm1[3,0,1,2]
.Ltmp270:
	#DEBUG_VALUE: blockmix_salsa8:X3 <- $xmm3
	.loc	7 123 4847                      # crypto_pwhash/scryptsalsa208sha256/sse/pwhash_scryptsalsa208sha256_sse.c:123:4847
	movdqa	%xmm3, %xmm1
	paddd	%xmm0, %xmm1
.Ltmp271:
	#DEBUG_VALUE: T <- $xmm1
	.loc	7 123 4893                      # crypto_pwhash/scryptsalsa208sha256/sse/pwhash_scryptsalsa208sha256_sse.c:123:4893
	movdqa	%xmm1, %xmm9
	pslld	$7, %xmm9
	.loc	7 123 4875                      # crypto_pwhash/scryptsalsa208sha256/sse/pwhash_scryptsalsa208sha256_sse.c:123:4875
	pxor	%xmm8, %xmm9
.Ltmp272:
	#DEBUG_VALUE: blockmix_salsa8:X1 <- $xmm9
	.loc	7 123 4939                      # crypto_pwhash/scryptsalsa208sha256/sse/pwhash_scryptsalsa208sha256_sse.c:123:4939
	psrld	$25, %xmm1
.Ltmp273:
	.loc	7 123 4921                      # crypto_pwhash/scryptsalsa208sha256/sse/pwhash_scryptsalsa208sha256_sse.c:123:4921
	pxor	%xmm9, %xmm1
.Ltmp274:
	#DEBUG_VALUE: blockmix_salsa8:X1 <- $xmm1
	.loc	7 123 4983                      # crypto_pwhash/scryptsalsa208sha256/sse/pwhash_scryptsalsa208sha256_sse.c:123:4983
	movdqa	%xmm1, %xmm9
	paddd	%xmm0, %xmm9
.Ltmp275:
	#DEBUG_VALUE: T <- $xmm9
	.loc	7 123 5029                      # crypto_pwhash/scryptsalsa208sha256/sse/pwhash_scryptsalsa208sha256_sse.c:123:5029
	movdqa	%xmm9, %xmm8
	pslld	$9, %xmm8
	.loc	7 123 5011                      # crypto_pwhash/scryptsalsa208sha256/sse/pwhash_scryptsalsa208sha256_sse.c:123:5011
	pxor	%xmm2, %xmm8
.Ltmp276:
	#DEBUG_VALUE: blockmix_salsa8:X2 <- $xmm8
	.loc	7 123 5075                      # crypto_pwhash/scryptsalsa208sha256/sse/pwhash_scryptsalsa208sha256_sse.c:123:5075
	psrld	$23, %xmm9
.Ltmp277:
	.loc	7 123 5057                      # crypto_pwhash/scryptsalsa208sha256/sse/pwhash_scryptsalsa208sha256_sse.c:123:5057
	pxor	%xmm8, %xmm9
.Ltmp278:
	#DEBUG_VALUE: blockmix_salsa8:X2 <- $xmm9
	.loc	7 123 5119                      # crypto_pwhash/scryptsalsa208sha256/sse/pwhash_scryptsalsa208sha256_sse.c:123:5119
	movdqa	%xmm9, %xmm8
	paddd	%xmm1, %xmm8
.Ltmp279:
	#DEBUG_VALUE: T <- $xmm8
	.loc	7 123 5194                      # crypto_pwhash/scryptsalsa208sha256/sse/pwhash_scryptsalsa208sha256_sse.c:123:5194
	movdqa	%xmm8, %xmm2
	psrld	$19, %xmm2
	pslld	$13, %xmm8
.Ltmp280:
	por	%xmm2, %xmm8
	pxor	%xmm3, %xmm8
.Ltmp281:
	#DEBUG_VALUE: blockmix_salsa8:X2 <- undef
	.loc	7 123 5546                      # crypto_pwhash/scryptsalsa208sha256/sse/pwhash_scryptsalsa208sha256_sse.c:123:5546
	pshufd	$57, %xmm8, %xmm3               # xmm3 = xmm8[1,2,3,0]
.Ltmp282:
	#DEBUG_VALUE: blockmix_salsa8:X3 <- $xmm8
	.loc	7 123 5257                      # crypto_pwhash/scryptsalsa208sha256/sse/pwhash_scryptsalsa208sha256_sse.c:123:5257
	paddd	%xmm9, %xmm8
.Ltmp283:
	#DEBUG_VALUE: T <- $xmm8
	.loc	7 123 5332                      # crypto_pwhash/scryptsalsa208sha256/sse/pwhash_scryptsalsa208sha256_sse.c:123:5332
	movdqa	%xmm8, %xmm2
	psrld	$14, %xmm2
	pslld	$18, %xmm8
.Ltmp284:
	por	%xmm2, %xmm8
.Ltmp285:
	.loc	7 123 5396                      # crypto_pwhash/scryptsalsa208sha256/sse/pwhash_scryptsalsa208sha256_sse.c:123:5396
	pshufd	$147, %xmm1, %xmm1              # xmm1 = xmm1[3,0,1,2]
.Ltmp286:
	#DEBUG_VALUE: blockmix_salsa8:X1 <- $xmm1
	.loc	7 123 5471                      # crypto_pwhash/scryptsalsa208sha256/sse/pwhash_scryptsalsa208sha256_sse.c:123:5471
	pshufd	$78, %xmm9, %xmm9               # xmm9 = xmm9[2,3,0,1]
.Ltmp287:
	#DEBUG_VALUE: blockmix_salsa8:X2 <- $xmm9
	#DEBUG_VALUE: blockmix_salsa8:X3 <- $xmm3
	.loc	7 123 5620                      # crypto_pwhash/scryptsalsa208sha256/sse/pwhash_scryptsalsa208sha256_sse.c:123:5620
	pxor	%xmm0, %xmm8
	movdqa	%xmm1, %xmm2
	paddd	%xmm8, %xmm2
.Ltmp288:
	#DEBUG_VALUE: T <- $xmm2
	.loc	7 123 5666                      # crypto_pwhash/scryptsalsa208sha256/sse/pwhash_scryptsalsa208sha256_sse.c:123:5666
	movdqa	%xmm2, %xmm0
	pslld	$7, %xmm0
	.loc	7 123 5648                      # crypto_pwhash/scryptsalsa208sha256/sse/pwhash_scryptsalsa208sha256_sse.c:123:5648
	pxor	%xmm3, %xmm0
.Ltmp289:
	#DEBUG_VALUE: blockmix_salsa8:X3 <- $xmm0
	.loc	7 123 5712                      # crypto_pwhash/scryptsalsa208sha256/sse/pwhash_scryptsalsa208sha256_sse.c:123:5712
	psrld	$25, %xmm2
.Ltmp290:
	.loc	7 123 5694                      # crypto_pwhash/scryptsalsa208sha256/sse/pwhash_scryptsalsa208sha256_sse.c:123:5694
	pxor	%xmm0, %xmm2
.Ltmp291:
	#DEBUG_VALUE: blockmix_salsa8:X3 <- $xmm2
	.loc	7 123 5756                      # crypto_pwhash/scryptsalsa208sha256/sse/pwhash_scryptsalsa208sha256_sse.c:123:5756
	movdqa	%xmm2, %xmm3
	paddd	%xmm8, %xmm3
.Ltmp292:
	#DEBUG_VALUE: T <- $xmm3
	.loc	7 123 5802                      # crypto_pwhash/scryptsalsa208sha256/sse/pwhash_scryptsalsa208sha256_sse.c:123:5802
	movdqa	%xmm3, %xmm0
	pslld	$9, %xmm0
	.loc	7 123 5784                      # crypto_pwhash/scryptsalsa208sha256/sse/pwhash_scryptsalsa208sha256_sse.c:123:5784
	pxor	%xmm9, %xmm0
.Ltmp293:
	#DEBUG_VALUE: blockmix_salsa8:X2 <- $xmm0
	.loc	7 123 5848                      # crypto_pwhash/scryptsalsa208sha256/sse/pwhash_scryptsalsa208sha256_sse.c:123:5848
	psrld	$23, %xmm3
.Ltmp294:
	.loc	7 123 5830                      # crypto_pwhash/scryptsalsa208sha256/sse/pwhash_scryptsalsa208sha256_sse.c:123:5830
	pxor	%xmm0, %xmm3
.Ltmp295:
	#DEBUG_VALUE: blockmix_salsa8:X2 <- $xmm3
	.loc	7 123 5892                      # crypto_pwhash/scryptsalsa208sha256/sse/pwhash_scryptsalsa208sha256_sse.c:123:5892
	movdqa	%xmm3, %xmm0
	paddd	%xmm2, %xmm0
.Ltmp296:
	#DEBUG_VALUE: T <- $xmm0
	.loc	7 123 5967                      # crypto_pwhash/scryptsalsa208sha256/sse/pwhash_scryptsalsa208sha256_sse.c:123:5967
	movdqa	%xmm0, %xmm9
	psrld	$19, %xmm9
	pslld	$13, %xmm0
.Ltmp297:
	por	%xmm9, %xmm0
	pxor	%xmm1, %xmm0
.Ltmp298:
	.loc	7 123 6169                      # crypto_pwhash/scryptsalsa208sha256/sse/pwhash_scryptsalsa208sha256_sse.c:123:6169
	pshufd	$57, %xmm0, %xmm1               # xmm1 = xmm0[1,2,3,0]
.Ltmp299:
	#DEBUG_VALUE: blockmix_salsa8:X1 <- $xmm0
	.loc	7 123 6030                      # crypto_pwhash/scryptsalsa208sha256/sse/pwhash_scryptsalsa208sha256_sse.c:123:6030
	paddd	%xmm3, %xmm0
.Ltmp300:
	#DEBUG_VALUE: T <- $xmm0
	.loc	7 123 6105                      # crypto_pwhash/scryptsalsa208sha256/sse/pwhash_scryptsalsa208sha256_sse.c:123:6105
	movdqa	%xmm0, %xmm9
	psrld	$14, %xmm9
	pslld	$18, %xmm0
.Ltmp301:
	por	%xmm9, %xmm0
.Ltmp302:
	#DEBUG_VALUE: blockmix_salsa8:X1 <- $xmm1
	.loc	7 123 6244                      # crypto_pwhash/scryptsalsa208sha256/sse/pwhash_scryptsalsa208sha256_sse.c:123:6244
	pshufd	$78, %xmm3, %xmm3               # xmm3 = xmm3[2,3,0,1]
.Ltmp303:
	#DEBUG_VALUE: blockmix_salsa8:X2 <- $xmm3
	.loc	7 123 6319                      # crypto_pwhash/scryptsalsa208sha256/sse/pwhash_scryptsalsa208sha256_sse.c:123:6319
	pshufd	$147, %xmm2, %xmm2              # xmm2 = xmm2[3,0,1,2]
.Ltmp304:
	#DEBUG_VALUE: blockmix_salsa8:X3 <- $xmm2
	.loc	7 123 6395                      # crypto_pwhash/scryptsalsa208sha256/sse/pwhash_scryptsalsa208sha256_sse.c:123:6395
	pxor	%xmm8, %xmm0
	paddd	%xmm7, %xmm0
.Ltmp305:
	#DEBUG_VALUE: blockmix_salsa8:X0 <- $xmm0
	.loc	7 123 6388                      # crypto_pwhash/scryptsalsa208sha256/sse/pwhash_scryptsalsa208sha256_sse.c:123:6388
	movdqa	%xmm0, (%rsi)
	.loc	7 123 6435                      # crypto_pwhash/scryptsalsa208sha256/sse/pwhash_scryptsalsa208sha256_sse.c:123:6435
	paddd	%xmm6, %xmm1
.Ltmp306:
	#DEBUG_VALUE: blockmix_salsa8:X1 <- $xmm1
	.loc	7 123 6428                      # crypto_pwhash/scryptsalsa208sha256/sse/pwhash_scryptsalsa208sha256_sse.c:123:6428
	movdqa	%xmm1, 16(%rsi)
	.loc	7 123 6475                      # crypto_pwhash/scryptsalsa208sha256/sse/pwhash_scryptsalsa208sha256_sse.c:123:6475
	paddd	%xmm5, %xmm3
.Ltmp307:
	#DEBUG_VALUE: blockmix_salsa8:X2 <- $xmm3
	.loc	7 123 6468                      # crypto_pwhash/scryptsalsa208sha256/sse/pwhash_scryptsalsa208sha256_sse.c:123:6468
	movdqa	%xmm3, 32(%rsi)
	.loc	7 123 6515                      # crypto_pwhash/scryptsalsa208sha256/sse/pwhash_scryptsalsa208sha256_sse.c:123:6515
	paddd	%xmm4, %xmm2
.Ltmp308:
	#DEBUG_VALUE: blockmix_salsa8:X3 <- $xmm2
	.loc	7 123 6508                      # crypto_pwhash/scryptsalsa208sha256/sse/pwhash_scryptsalsa208sha256_sse.c:123:6508
	movdqa	%xmm2, 48(%rsi)
.Ltmp309:
	#DEBUG_VALUE: blockmix_salsa8:i <- 0
	.loc	7 127 19 is_stmt 1              # crypto_pwhash/scryptsalsa208sha256/sse/pwhash_scryptsalsa208sha256_sse.c:127:19
	movq	%rdx, %rax
	decq	%rax
.Ltmp310:
	#DEBUG_VALUE: blockmix_salsa8:r <- $rax
	.loc	7 127 5 is_stmt 0               # crypto_pwhash/scryptsalsa208sha256/sse/pwhash_scryptsalsa208sha256_sse.c:127:5
	je	.LBB1_3
.Ltmp311:
# %bb.1:                                # %.lr.ph.preheader
	#DEBUG_VALUE: blockmix_salsa8:Bin <- $rdi
	#DEBUG_VALUE: blockmix_salsa8:Bout <- $rsi
	#DEBUG_VALUE: blockmix_salsa8:r <- $rax
	#DEBUG_VALUE: blockmix_salsa8:X0 <- $xmm0
	#DEBUG_VALUE: blockmix_salsa8:X1 <- $xmm1
	#DEBUG_VALUE: blockmix_salsa8:X2 <- $xmm3
	#DEBUG_VALUE: blockmix_salsa8:X3 <- $xmm2
	#DEBUG_VALUE: blockmix_salsa8:i <- 0
	shlq	$6, %rdx
	leaq	(%rsi,%rdx), %rcx
	addq	$-64, %rcx
	addq	$-64, %rdx
	xorl	%r8d, %r8d
.Ltmp312:
	.loc	7 0 5                           # :0:5
.Ltmp313:
	.p2align	4
.LBB1_2:                                # %.lr.ph
                                        # =>This Inner Loop Header: Depth=1
	#DEBUG_VALUE: blockmix_salsa8:Bin <- $rdi
	#DEBUG_VALUE: blockmix_salsa8:Bout <- $rsi
	#DEBUG_VALUE: blockmix_salsa8:r <- $rax
	#DEBUG_VALUE: blockmix_salsa8:X0 <- $xmm0
	#DEBUG_VALUE: blockmix_salsa8:X1 <- $xmm1
	#DEBUG_VALUE: blockmix_salsa8:X2 <- $xmm3
	#DEBUG_VALUE: blockmix_salsa8:X3 <- $xmm2
	#DEBUG_VALUE: blockmix_salsa8:i <- [DW_OP_consts 64, DW_OP_div, DW_OP_stack_value] $r8
	.loc	7 131 29 is_stmt 1              # crypto_pwhash/scryptsalsa208sha256/sse/pwhash_scryptsalsa208sha256_sse.c:131:29
	pxor	64(%rdi,%r8,2), %xmm0
.Ltmp314:
	#DEBUG_VALUE: blockmix_salsa8:X0 <- $xmm0
	#DEBUG_VALUE: Y0 <- $xmm0
	.loc	7 131 88 is_stmt 0              # crypto_pwhash/scryptsalsa208sha256/sse/pwhash_scryptsalsa208sha256_sse.c:131:88
	pxor	80(%rdi,%r8,2), %xmm1
.Ltmp315:
	#DEBUG_VALUE: blockmix_salsa8:X1 <- $xmm1
	#DEBUG_VALUE: Y1 <- $xmm1
	.loc	7 131 147                       # crypto_pwhash/scryptsalsa208sha256/sse/pwhash_scryptsalsa208sha256_sse.c:131:147
	pxor	96(%rdi,%r8,2), %xmm3
.Ltmp316:
	#DEBUG_VALUE: blockmix_salsa8:X2 <- $xmm3
	#DEBUG_VALUE: Y2 <- $xmm3
	.loc	7 131 206                       # crypto_pwhash/scryptsalsa208sha256/sse/pwhash_scryptsalsa208sha256_sse.c:131:206
	pxor	112(%rdi,%r8,2), %xmm2
.Ltmp317:
	#DEBUG_VALUE: blockmix_salsa8:X3 <- $xmm2
	#DEBUG_VALUE: Y3 <- $xmm2
	.loc	7 131 261                       # crypto_pwhash/scryptsalsa208sha256/sse/pwhash_scryptsalsa208sha256_sse.c:131:261
	movdqa	%xmm2, %xmm5
	paddd	%xmm0, %xmm5
.Ltmp318:
	#DEBUG_VALUE: blockmix_salsa8:X1 <- [DW_OP_LLVM_arg 0, DW_OP_LLVM_arg 0, DW_OP_LLVM_arg 0, DW_OP_shl, DW_OP_xor, DW_OP_stack_value] undef
	#DEBUG_VALUE: T <- $xmm5
	.loc	7 131 335                       # crypto_pwhash/scryptsalsa208sha256/sse/pwhash_scryptsalsa208sha256_sse.c:131:335
	movdqa	%xmm5, %xmm4
	psrld	$25, %xmm4
	pslld	$7, %xmm5
.Ltmp319:
	por	%xmm4, %xmm5
.Ltmp320:
	#DEBUG_VALUE: blockmix_salsa8:X1 <- undef
	.loc	7 131 397                       # crypto_pwhash/scryptsalsa208sha256/sse/pwhash_scryptsalsa208sha256_sse.c:131:397
	pxor	%xmm1, %xmm5
	movdqa	%xmm5, %xmm6
	paddd	%xmm0, %xmm6
.Ltmp321:
	#DEBUG_VALUE: blockmix_salsa8:X2 <- [DW_OP_LLVM_arg 0, DW_OP_LLVM_arg 0, DW_OP_LLVM_arg 0, DW_OP_shl, DW_OP_xor, DW_OP_stack_value] undef
	#DEBUG_VALUE: T <- $xmm6
	.loc	7 131 471                       # crypto_pwhash/scryptsalsa208sha256/sse/pwhash_scryptsalsa208sha256_sse.c:131:471
	movdqa	%xmm6, %xmm4
	psrld	$23, %xmm4
	pslld	$9, %xmm6
.Ltmp322:
	por	%xmm4, %xmm6
.Ltmp323:
	#DEBUG_VALUE: blockmix_salsa8:X2 <- undef
	.loc	7 131 533                       # crypto_pwhash/scryptsalsa208sha256/sse/pwhash_scryptsalsa208sha256_sse.c:131:533
	pxor	%xmm3, %xmm6
	movdqa	%xmm6, %xmm4
	paddd	%xmm5, %xmm4
.Ltmp324:
	#DEBUG_VALUE: blockmix_salsa8:X3 <- [DW_OP_LLVM_arg 0, DW_OP_LLVM_arg 0, DW_OP_LLVM_arg 0, DW_OP_shl, DW_OP_xor, DW_OP_stack_value] undef
	#DEBUG_VALUE: T <- $xmm4
	.loc	7 131 608                       # crypto_pwhash/scryptsalsa208sha256/sse/pwhash_scryptsalsa208sha256_sse.c:131:608
	movdqa	%xmm4, %xmm7
	psrld	$19, %xmm7
	pslld	$13, %xmm4
.Ltmp325:
	por	%xmm7, %xmm4
.Ltmp326:
	#DEBUG_VALUE: blockmix_salsa8:X3 <- undef
	.loc	7 131 671                       # crypto_pwhash/scryptsalsa208sha256/sse/pwhash_scryptsalsa208sha256_sse.c:131:671
	pxor	%xmm2, %xmm4
.Ltmp327:
	#DEBUG_VALUE: blockmix_salsa8:X2 <- undef
	.loc	7 131 960                       # crypto_pwhash/scryptsalsa208sha256/sse/pwhash_scryptsalsa208sha256_sse.c:131:960
	pshufd	$57, %xmm4, %xmm7               # xmm7 = xmm4[1,2,3,0]
.Ltmp328:
	.loc	7 131 671                       # crypto_pwhash/scryptsalsa208sha256/sse/pwhash_scryptsalsa208sha256_sse.c:131:671
	paddd	%xmm6, %xmm4
.Ltmp329:
	#DEBUG_VALUE: blockmix_salsa8:X0 <- [DW_OP_LLVM_arg 0, DW_OP_LLVM_arg 0, DW_OP_LLVM_arg 0, DW_OP_shl, DW_OP_xor, DW_OP_stack_value] undef
	#DEBUG_VALUE: T <- $xmm4
	.loc	7 131 746                       # crypto_pwhash/scryptsalsa208sha256/sse/pwhash_scryptsalsa208sha256_sse.c:131:746
	movdqa	%xmm4, %xmm8
	psrld	$14, %xmm8
	pslld	$18, %xmm4
.Ltmp330:
	por	%xmm8, %xmm4
	pxor	%xmm0, %xmm4
.Ltmp331:
	#DEBUG_VALUE: blockmix_salsa8:X0 <- undef
	.loc	7 131 810                       # crypto_pwhash/scryptsalsa208sha256/sse/pwhash_scryptsalsa208sha256_sse.c:131:810
	pshufd	$147, %xmm5, %xmm8              # xmm8 = xmm5[3,0,1,2]
.Ltmp332:
	#DEBUG_VALUE: blockmix_salsa8:X1 <- $xmm8
	.loc	7 131 885                       # crypto_pwhash/scryptsalsa208sha256/sse/pwhash_scryptsalsa208sha256_sse.c:131:885
	pshufd	$78, %xmm6, %xmm5               # xmm5 = xmm6[2,3,0,1]
.Ltmp333:
	#DEBUG_VALUE: blockmix_salsa8:X2 <- $xmm5
	#DEBUG_VALUE: blockmix_salsa8:X3 <- $xmm7
	.loc	7 131 1034                      # crypto_pwhash/scryptsalsa208sha256/sse/pwhash_scryptsalsa208sha256_sse.c:131:1034
	movdqa	%xmm8, %xmm6
	paddd	%xmm4, %xmm6
.Ltmp334:
	#DEBUG_VALUE: T <- $xmm6
	.loc	7 131 1080                      # crypto_pwhash/scryptsalsa208sha256/sse/pwhash_scryptsalsa208sha256_sse.c:131:1080
	movdqa	%xmm6, %xmm9
	pslld	$7, %xmm9
	.loc	7 131 1062                      # crypto_pwhash/scryptsalsa208sha256/sse/pwhash_scryptsalsa208sha256_sse.c:131:1062
	pxor	%xmm7, %xmm9
.Ltmp335:
	#DEBUG_VALUE: blockmix_salsa8:X3 <- $xmm9
	.loc	7 131 1126                      # crypto_pwhash/scryptsalsa208sha256/sse/pwhash_scryptsalsa208sha256_sse.c:131:1126
	psrld	$25, %xmm6
.Ltmp336:
	.loc	7 131 1108                      # crypto_pwhash/scryptsalsa208sha256/sse/pwhash_scryptsalsa208sha256_sse.c:131:1108
	pxor	%xmm9, %xmm6
.Ltmp337:
	#DEBUG_VALUE: blockmix_salsa8:X3 <- $xmm6
	.loc	7 131 1170                      # crypto_pwhash/scryptsalsa208sha256/sse/pwhash_scryptsalsa208sha256_sse.c:131:1170
	movdqa	%xmm6, %xmm7
	paddd	%xmm4, %xmm7
.Ltmp338:
	#DEBUG_VALUE: T <- $xmm7
	.loc	7 131 1216                      # crypto_pwhash/scryptsalsa208sha256/sse/pwhash_scryptsalsa208sha256_sse.c:131:1216
	movdqa	%xmm7, %xmm9
	pslld	$9, %xmm9
	.loc	7 131 1198                      # crypto_pwhash/scryptsalsa208sha256/sse/pwhash_scryptsalsa208sha256_sse.c:131:1198
	pxor	%xmm5, %xmm9
.Ltmp339:
	#DEBUG_VALUE: blockmix_salsa8:X2 <- $xmm9
	.loc	7 131 1262                      # crypto_pwhash/scryptsalsa208sha256/sse/pwhash_scryptsalsa208sha256_sse.c:131:1262
	psrld	$23, %xmm7
.Ltmp340:
	.loc	7 131 1244                      # crypto_pwhash/scryptsalsa208sha256/sse/pwhash_scryptsalsa208sha256_sse.c:131:1244
	pxor	%xmm9, %xmm7
.Ltmp341:
	#DEBUG_VALUE: blockmix_salsa8:X2 <- $xmm7
	.loc	7 131 1306                      # crypto_pwhash/scryptsalsa208sha256/sse/pwhash_scryptsalsa208sha256_sse.c:131:1306
	movdqa	%xmm7, %xmm5
	paddd	%xmm6, %xmm5
.Ltmp342:
	#DEBUG_VALUE: T <- $xmm5
	.loc	7 131 1381                      # crypto_pwhash/scryptsalsa208sha256/sse/pwhash_scryptsalsa208sha256_sse.c:131:1381
	movdqa	%xmm5, %xmm9
	psrld	$19, %xmm9
	pslld	$13, %xmm5
.Ltmp343:
	por	%xmm9, %xmm5
	pxor	%xmm8, %xmm5
.Ltmp344:
	.loc	7 131 1583                      # crypto_pwhash/scryptsalsa208sha256/sse/pwhash_scryptsalsa208sha256_sse.c:131:1583
	pshufd	$57, %xmm5, %xmm8               # xmm8 = xmm5[1,2,3,0]
.Ltmp345:
	#DEBUG_VALUE: blockmix_salsa8:X1 <- $xmm5
	.loc	7 131 1444                      # crypto_pwhash/scryptsalsa208sha256/sse/pwhash_scryptsalsa208sha256_sse.c:131:1444
	paddd	%xmm7, %xmm5
.Ltmp346:
	#DEBUG_VALUE: T <- $xmm5
	.loc	7 131 1519                      # crypto_pwhash/scryptsalsa208sha256/sse/pwhash_scryptsalsa208sha256_sse.c:131:1519
	movdqa	%xmm5, %xmm9
	psrld	$14, %xmm9
	pslld	$18, %xmm5
.Ltmp347:
	por	%xmm9, %xmm5
	pxor	%xmm4, %xmm5
.Ltmp348:
	#DEBUG_VALUE: blockmix_salsa8:X1 <- $xmm8
	.loc	7 131 1658                      # crypto_pwhash/scryptsalsa208sha256/sse/pwhash_scryptsalsa208sha256_sse.c:131:1658
	pshufd	$78, %xmm7, %xmm4               # xmm4 = xmm7[2,3,0,1]
.Ltmp349:
	#DEBUG_VALUE: blockmix_salsa8:X2 <- $xmm4
	.loc	7 131 1733                      # crypto_pwhash/scryptsalsa208sha256/sse/pwhash_scryptsalsa208sha256_sse.c:131:1733
	pshufd	$147, %xmm6, %xmm7              # xmm7 = xmm6[3,0,1,2]
.Ltmp350:
	#DEBUG_VALUE: blockmix_salsa8:X3 <- $xmm7
	.loc	7 131 1807                      # crypto_pwhash/scryptsalsa208sha256/sse/pwhash_scryptsalsa208sha256_sse.c:131:1807
	movdqa	%xmm7, %xmm6
	paddd	%xmm5, %xmm6
.Ltmp351:
	#DEBUG_VALUE: T <- $xmm6
	.loc	7 131 1853                      # crypto_pwhash/scryptsalsa208sha256/sse/pwhash_scryptsalsa208sha256_sse.c:131:1853
	movdqa	%xmm6, %xmm9
	pslld	$7, %xmm9
	.loc	7 131 1835                      # crypto_pwhash/scryptsalsa208sha256/sse/pwhash_scryptsalsa208sha256_sse.c:131:1835
	pxor	%xmm8, %xmm9
.Ltmp352:
	#DEBUG_VALUE: blockmix_salsa8:X1 <- $xmm9
	.loc	7 131 1899                      # crypto_pwhash/scryptsalsa208sha256/sse/pwhash_scryptsalsa208sha256_sse.c:131:1899
	psrld	$25, %xmm6
.Ltmp353:
	.loc	7 131 1881                      # crypto_pwhash/scryptsalsa208sha256/sse/pwhash_scryptsalsa208sha256_sse.c:131:1881
	pxor	%xmm9, %xmm6
.Ltmp354:
	#DEBUG_VALUE: blockmix_salsa8:X1 <- $xmm6
	.loc	7 131 1943                      # crypto_pwhash/scryptsalsa208sha256/sse/pwhash_scryptsalsa208sha256_sse.c:131:1943
	movdqa	%xmm6, %xmm8
	paddd	%xmm5, %xmm8
.Ltmp355:
	#DEBUG_VALUE: T <- $xmm8
	.loc	7 131 1989                      # crypto_pwhash/scryptsalsa208sha256/sse/pwhash_scryptsalsa208sha256_sse.c:131:1989
	movdqa	%xmm8, %xmm9
	pslld	$9, %xmm9
	.loc	7 131 1971                      # crypto_pwhash/scryptsalsa208sha256/sse/pwhash_scryptsalsa208sha256_sse.c:131:1971
	pxor	%xmm4, %xmm9
.Ltmp356:
	#DEBUG_VALUE: blockmix_salsa8:X2 <- $xmm9
	.loc	7 131 2035                      # crypto_pwhash/scryptsalsa208sha256/sse/pwhash_scryptsalsa208sha256_sse.c:131:2035
	psrld	$23, %xmm8
.Ltmp357:
	.loc	7 131 2017                      # crypto_pwhash/scryptsalsa208sha256/sse/pwhash_scryptsalsa208sha256_sse.c:131:2017
	pxor	%xmm9, %xmm8
.Ltmp358:
	#DEBUG_VALUE: blockmix_salsa8:X2 <- $xmm8
	.loc	7 131 2079                      # crypto_pwhash/scryptsalsa208sha256/sse/pwhash_scryptsalsa208sha256_sse.c:131:2079
	movdqa	%xmm8, %xmm4
	paddd	%xmm6, %xmm4
.Ltmp359:
	#DEBUG_VALUE: T <- $xmm4
	.loc	7 131 2154                      # crypto_pwhash/scryptsalsa208sha256/sse/pwhash_scryptsalsa208sha256_sse.c:131:2154
	movdqa	%xmm4, %xmm9
	psrld	$19, %xmm9
	pslld	$13, %xmm4
.Ltmp360:
	por	%xmm9, %xmm4
	pxor	%xmm7, %xmm4
.Ltmp361:
	#DEBUG_VALUE: blockmix_salsa8:X2 <- undef
	.loc	7 131 2506                      # crypto_pwhash/scryptsalsa208sha256/sse/pwhash_scryptsalsa208sha256_sse.c:131:2506
	pshufd	$57, %xmm4, %xmm7               # xmm7 = xmm4[1,2,3,0]
.Ltmp362:
	#DEBUG_VALUE: blockmix_salsa8:X3 <- $xmm4
	.loc	7 131 2217                      # crypto_pwhash/scryptsalsa208sha256/sse/pwhash_scryptsalsa208sha256_sse.c:131:2217
	paddd	%xmm8, %xmm4
.Ltmp363:
	#DEBUG_VALUE: T <- $xmm4
	.loc	7 131 2292                      # crypto_pwhash/scryptsalsa208sha256/sse/pwhash_scryptsalsa208sha256_sse.c:131:2292
	movdqa	%xmm4, %xmm9
	psrld	$14, %xmm9
	pslld	$18, %xmm4
.Ltmp364:
	por	%xmm9, %xmm4
	pxor	%xmm5, %xmm4
.Ltmp365:
	.loc	7 131 2356                      # crypto_pwhash/scryptsalsa208sha256/sse/pwhash_scryptsalsa208sha256_sse.c:131:2356
	pshufd	$147, %xmm6, %xmm9              # xmm9 = xmm6[3,0,1,2]
.Ltmp366:
	#DEBUG_VALUE: blockmix_salsa8:X1 <- $xmm9
	.loc	7 131 2431                      # crypto_pwhash/scryptsalsa208sha256/sse/pwhash_scryptsalsa208sha256_sse.c:131:2431
	pshufd	$78, %xmm8, %xmm5               # xmm5 = xmm8[2,3,0,1]
.Ltmp367:
	#DEBUG_VALUE: blockmix_salsa8:X2 <- $xmm5
	#DEBUG_VALUE: blockmix_salsa8:X3 <- $xmm7
	.loc	7 131 2580                      # crypto_pwhash/scryptsalsa208sha256/sse/pwhash_scryptsalsa208sha256_sse.c:131:2580
	movdqa	%xmm9, %xmm6
	paddd	%xmm4, %xmm6
.Ltmp368:
	#DEBUG_VALUE: T <- $xmm6
	.loc	7 131 2626                      # crypto_pwhash/scryptsalsa208sha256/sse/pwhash_scryptsalsa208sha256_sse.c:131:2626
	movdqa	%xmm6, %xmm8
	pslld	$7, %xmm8
	.loc	7 131 2608                      # crypto_pwhash/scryptsalsa208sha256/sse/pwhash_scryptsalsa208sha256_sse.c:131:2608
	pxor	%xmm7, %xmm8
.Ltmp369:
	#DEBUG_VALUE: blockmix_salsa8:X3 <- $xmm8
	.loc	7 131 2672                      # crypto_pwhash/scryptsalsa208sha256/sse/pwhash_scryptsalsa208sha256_sse.c:131:2672
	psrld	$25, %xmm6
.Ltmp370:
	.loc	7 131 2654                      # crypto_pwhash/scryptsalsa208sha256/sse/pwhash_scryptsalsa208sha256_sse.c:131:2654
	pxor	%xmm8, %xmm6
.Ltmp371:
	#DEBUG_VALUE: blockmix_salsa8:X3 <- $xmm6
	.loc	7 131 2716                      # crypto_pwhash/scryptsalsa208sha256/sse/pwhash_scryptsalsa208sha256_sse.c:131:2716
	movdqa	%xmm6, %xmm7
	paddd	%xmm4, %xmm7
.Ltmp372:
	#DEBUG_VALUE: T <- $xmm7
	.loc	7 131 2762                      # crypto_pwhash/scryptsalsa208sha256/sse/pwhash_scryptsalsa208sha256_sse.c:131:2762
	movdqa	%xmm7, %xmm8
	pslld	$9, %xmm8
	.loc	7 131 2744                      # crypto_pwhash/scryptsalsa208sha256/sse/pwhash_scryptsalsa208sha256_sse.c:131:2744
	pxor	%xmm5, %xmm8
.Ltmp373:
	#DEBUG_VALUE: blockmix_salsa8:X2 <- $xmm8
	.loc	7 131 2808                      # crypto_pwhash/scryptsalsa208sha256/sse/pwhash_scryptsalsa208sha256_sse.c:131:2808
	psrld	$23, %xmm7
.Ltmp374:
	.loc	7 131 2790                      # crypto_pwhash/scryptsalsa208sha256/sse/pwhash_scryptsalsa208sha256_sse.c:131:2790
	pxor	%xmm8, %xmm7
.Ltmp375:
	#DEBUG_VALUE: blockmix_salsa8:X2 <- $xmm7
	.loc	7 131 2852                      # crypto_pwhash/scryptsalsa208sha256/sse/pwhash_scryptsalsa208sha256_sse.c:131:2852
	movdqa	%xmm7, %xmm5
	paddd	%xmm6, %xmm5
.Ltmp376:
	#DEBUG_VALUE: T <- $xmm5
	.loc	7 131 2927                      # crypto_pwhash/scryptsalsa208sha256/sse/pwhash_scryptsalsa208sha256_sse.c:131:2927
	movdqa	%xmm5, %xmm8
	psrld	$19, %xmm8
	pslld	$13, %xmm5
.Ltmp377:
	por	%xmm8, %xmm5
	pxor	%xmm9, %xmm5
.Ltmp378:
	.loc	7 131 3129                      # crypto_pwhash/scryptsalsa208sha256/sse/pwhash_scryptsalsa208sha256_sse.c:131:3129
	pshufd	$57, %xmm5, %xmm8               # xmm8 = xmm5[1,2,3,0]
.Ltmp379:
	#DEBUG_VALUE: blockmix_salsa8:X1 <- $xmm5
	.loc	7 131 2990                      # crypto_pwhash/scryptsalsa208sha256/sse/pwhash_scryptsalsa208sha256_sse.c:131:2990
	paddd	%xmm7, %xmm5
.Ltmp380:
	#DEBUG_VALUE: T <- $xmm5
	.loc	7 131 3065                      # crypto_pwhash/scryptsalsa208sha256/sse/pwhash_scryptsalsa208sha256_sse.c:131:3065
	movdqa	%xmm5, %xmm9
	psrld	$14, %xmm9
	pslld	$18, %xmm5
.Ltmp381:
	por	%xmm9, %xmm5
	pxor	%xmm4, %xmm5
.Ltmp382:
	#DEBUG_VALUE: blockmix_salsa8:X1 <- $xmm8
	.loc	7 131 3204                      # crypto_pwhash/scryptsalsa208sha256/sse/pwhash_scryptsalsa208sha256_sse.c:131:3204
	pshufd	$78, %xmm7, %xmm7               # xmm7 = xmm7[2,3,0,1]
.Ltmp383:
	#DEBUG_VALUE: blockmix_salsa8:X2 <- $xmm7
	.loc	7 131 3279                      # crypto_pwhash/scryptsalsa208sha256/sse/pwhash_scryptsalsa208sha256_sse.c:131:3279
	pshufd	$147, %xmm6, %xmm9              # xmm9 = xmm6[3,0,1,2]
.Ltmp384:
	#DEBUG_VALUE: blockmix_salsa8:X3 <- $xmm9
	.loc	7 131 3353                      # crypto_pwhash/scryptsalsa208sha256/sse/pwhash_scryptsalsa208sha256_sse.c:131:3353
	movdqa	%xmm9, %xmm4
	paddd	%xmm5, %xmm4
.Ltmp385:
	#DEBUG_VALUE: T <- $xmm4
	.loc	7 131 3399                      # crypto_pwhash/scryptsalsa208sha256/sse/pwhash_scryptsalsa208sha256_sse.c:131:3399
	movdqa	%xmm4, %xmm6
	pslld	$7, %xmm6
	.loc	7 131 3381                      # crypto_pwhash/scryptsalsa208sha256/sse/pwhash_scryptsalsa208sha256_sse.c:131:3381
	pxor	%xmm8, %xmm6
.Ltmp386:
	#DEBUG_VALUE: blockmix_salsa8:X1 <- $xmm6
	.loc	7 131 3445                      # crypto_pwhash/scryptsalsa208sha256/sse/pwhash_scryptsalsa208sha256_sse.c:131:3445
	psrld	$25, %xmm4
.Ltmp387:
	.loc	7 131 3427                      # crypto_pwhash/scryptsalsa208sha256/sse/pwhash_scryptsalsa208sha256_sse.c:131:3427
	pxor	%xmm6, %xmm4
.Ltmp388:
	#DEBUG_VALUE: blockmix_salsa8:X1 <- $xmm4
	.loc	7 131 3489                      # crypto_pwhash/scryptsalsa208sha256/sse/pwhash_scryptsalsa208sha256_sse.c:131:3489
	movdqa	%xmm4, %xmm8
	paddd	%xmm5, %xmm8
.Ltmp389:
	#DEBUG_VALUE: T <- $xmm8
	.loc	7 131 3535                      # crypto_pwhash/scryptsalsa208sha256/sse/pwhash_scryptsalsa208sha256_sse.c:131:3535
	movdqa	%xmm8, %xmm6
	pslld	$9, %xmm6
	.loc	7 131 3517                      # crypto_pwhash/scryptsalsa208sha256/sse/pwhash_scryptsalsa208sha256_sse.c:131:3517
	pxor	%xmm7, %xmm6
.Ltmp390:
	#DEBUG_VALUE: blockmix_salsa8:X2 <- $xmm6
	.loc	7 131 3581                      # crypto_pwhash/scryptsalsa208sha256/sse/pwhash_scryptsalsa208sha256_sse.c:131:3581
	psrld	$23, %xmm8
.Ltmp391:
	.loc	7 131 3563                      # crypto_pwhash/scryptsalsa208sha256/sse/pwhash_scryptsalsa208sha256_sse.c:131:3563
	pxor	%xmm6, %xmm8
.Ltmp392:
	#DEBUG_VALUE: blockmix_salsa8:X2 <- $xmm8
	.loc	7 131 3625                      # crypto_pwhash/scryptsalsa208sha256/sse/pwhash_scryptsalsa208sha256_sse.c:131:3625
	movdqa	%xmm8, %xmm6
	paddd	%xmm4, %xmm6
.Ltmp393:
	#DEBUG_VALUE: T <- $xmm6
	.loc	7 131 3700                      # crypto_pwhash/scryptsalsa208sha256/sse/pwhash_scryptsalsa208sha256_sse.c:131:3700
	movdqa	%xmm6, %xmm7
	psrld	$19, %xmm7
	pslld	$13, %xmm6
.Ltmp394:
	por	%xmm7, %xmm6
	pxor	%xmm9, %xmm6
.Ltmp395:
	#DEBUG_VALUE: blockmix_salsa8:X2 <- undef
	.loc	7 131 4052                      # crypto_pwhash/scryptsalsa208sha256/sse/pwhash_scryptsalsa208sha256_sse.c:131:4052
	pshufd	$57, %xmm6, %xmm7               # xmm7 = xmm6[1,2,3,0]
.Ltmp396:
	#DEBUG_VALUE: blockmix_salsa8:X3 <- $xmm6
	.loc	7 131 3763                      # crypto_pwhash/scryptsalsa208sha256/sse/pwhash_scryptsalsa208sha256_sse.c:131:3763
	paddd	%xmm8, %xmm6
.Ltmp397:
	#DEBUG_VALUE: T <- $xmm6
	.loc	7 131 3838                      # crypto_pwhash/scryptsalsa208sha256/sse/pwhash_scryptsalsa208sha256_sse.c:131:3838
	movdqa	%xmm6, %xmm9
	psrld	$14, %xmm9
	pslld	$18, %xmm6
.Ltmp398:
	por	%xmm9, %xmm6
	pxor	%xmm5, %xmm6
.Ltmp399:
	.loc	7 131 3902                      # crypto_pwhash/scryptsalsa208sha256/sse/pwhash_scryptsalsa208sha256_sse.c:131:3902
	pshufd	$147, %xmm4, %xmm9              # xmm9 = xmm4[3,0,1,2]
.Ltmp400:
	#DEBUG_VALUE: blockmix_salsa8:X1 <- $xmm9
	.loc	7 131 3977                      # crypto_pwhash/scryptsalsa208sha256/sse/pwhash_scryptsalsa208sha256_sse.c:131:3977
	pshufd	$78, %xmm8, %xmm4               # xmm4 = xmm8[2,3,0,1]
.Ltmp401:
	#DEBUG_VALUE: blockmix_salsa8:X2 <- $xmm4
	#DEBUG_VALUE: blockmix_salsa8:X3 <- $xmm7
	.loc	7 131 4126                      # crypto_pwhash/scryptsalsa208sha256/sse/pwhash_scryptsalsa208sha256_sse.c:131:4126
	movdqa	%xmm9, %xmm5
	paddd	%xmm6, %xmm5
.Ltmp402:
	#DEBUG_VALUE: T <- $xmm5
	.loc	7 131 4172                      # crypto_pwhash/scryptsalsa208sha256/sse/pwhash_scryptsalsa208sha256_sse.c:131:4172
	movdqa	%xmm5, %xmm8
	pslld	$7, %xmm8
	.loc	7 131 4154                      # crypto_pwhash/scryptsalsa208sha256/sse/pwhash_scryptsalsa208sha256_sse.c:131:4154
	pxor	%xmm7, %xmm8
.Ltmp403:
	#DEBUG_VALUE: blockmix_salsa8:X3 <- $xmm8
	.loc	7 131 4218                      # crypto_pwhash/scryptsalsa208sha256/sse/pwhash_scryptsalsa208sha256_sse.c:131:4218
	psrld	$25, %xmm5
.Ltmp404:
	.loc	7 131 4200                      # crypto_pwhash/scryptsalsa208sha256/sse/pwhash_scryptsalsa208sha256_sse.c:131:4200
	pxor	%xmm8, %xmm5
.Ltmp405:
	#DEBUG_VALUE: blockmix_salsa8:X3 <- $xmm5
	.loc	7 131 4262                      # crypto_pwhash/scryptsalsa208sha256/sse/pwhash_scryptsalsa208sha256_sse.c:131:4262
	movdqa	%xmm5, %xmm7
	paddd	%xmm6, %xmm7
.Ltmp406:
	#DEBUG_VALUE: T <- $xmm7
	.loc	7 131 4308                      # crypto_pwhash/scryptsalsa208sha256/sse/pwhash_scryptsalsa208sha256_sse.c:131:4308
	movdqa	%xmm7, %xmm8
	pslld	$9, %xmm8
	.loc	7 131 4290                      # crypto_pwhash/scryptsalsa208sha256/sse/pwhash_scryptsalsa208sha256_sse.c:131:4290
	pxor	%xmm4, %xmm8
.Ltmp407:
	#DEBUG_VALUE: blockmix_salsa8:X2 <- $xmm8
	.loc	7 131 4354                      # crypto_pwhash/scryptsalsa208sha256/sse/pwhash_scryptsalsa208sha256_sse.c:131:4354
	psrld	$23, %xmm7
.Ltmp408:
	.loc	7 131 4336                      # crypto_pwhash/scryptsalsa208sha256/sse/pwhash_scryptsalsa208sha256_sse.c:131:4336
	pxor	%xmm8, %xmm7
.Ltmp409:
	#DEBUG_VALUE: blockmix_salsa8:X2 <- $xmm7
	.loc	7 131 4398                      # crypto_pwhash/scryptsalsa208sha256/sse/pwhash_scryptsalsa208sha256_sse.c:131:4398
	movdqa	%xmm7, %xmm4
	paddd	%xmm5, %xmm4
.Ltmp410:
	#DEBUG_VALUE: T <- $xmm4
	.loc	7 131 4473                      # crypto_pwhash/scryptsalsa208sha256/sse/pwhash_scryptsalsa208sha256_sse.c:131:4473
	movdqa	%xmm4, %xmm8
	psrld	$19, %xmm8
	pslld	$13, %xmm4
.Ltmp411:
	por	%xmm8, %xmm4
	pxor	%xmm9, %xmm4
.Ltmp412:
	.loc	7 131 4675                      # crypto_pwhash/scryptsalsa208sha256/sse/pwhash_scryptsalsa208sha256_sse.c:131:4675
	pshufd	$57, %xmm4, %xmm8               # xmm8 = xmm4[1,2,3,0]
.Ltmp413:
	#DEBUG_VALUE: blockmix_salsa8:X1 <- $xmm4
	.loc	7 131 4536                      # crypto_pwhash/scryptsalsa208sha256/sse/pwhash_scryptsalsa208sha256_sse.c:131:4536
	paddd	%xmm7, %xmm4
.Ltmp414:
	#DEBUG_VALUE: T <- $xmm4
	.loc	7 131 4611                      # crypto_pwhash/scryptsalsa208sha256/sse/pwhash_scryptsalsa208sha256_sse.c:131:4611
	movdqa	%xmm4, %xmm9
	psrld	$14, %xmm9
	pslld	$18, %xmm4
.Ltmp415:
	por	%xmm9, %xmm4
	pxor	%xmm6, %xmm4
.Ltmp416:
	#DEBUG_VALUE: blockmix_salsa8:X1 <- $xmm8
	.loc	7 131 4750                      # crypto_pwhash/scryptsalsa208sha256/sse/pwhash_scryptsalsa208sha256_sse.c:131:4750
	pshufd	$78, %xmm7, %xmm6               # xmm6 = xmm7[2,3,0,1]
.Ltmp417:
	#DEBUG_VALUE: blockmix_salsa8:X2 <- $xmm6
	.loc	7 131 4825                      # crypto_pwhash/scryptsalsa208sha256/sse/pwhash_scryptsalsa208sha256_sse.c:131:4825
	pshufd	$147, %xmm5, %xmm7              # xmm7 = xmm5[3,0,1,2]
.Ltmp418:
	#DEBUG_VALUE: blockmix_salsa8:X3 <- $xmm7
	.loc	7 131 4899                      # crypto_pwhash/scryptsalsa208sha256/sse/pwhash_scryptsalsa208sha256_sse.c:131:4899
	movdqa	%xmm7, %xmm5
	paddd	%xmm4, %xmm5
.Ltmp419:
	#DEBUG_VALUE: T <- $xmm5
	.loc	7 131 4945                      # crypto_pwhash/scryptsalsa208sha256/sse/pwhash_scryptsalsa208sha256_sse.c:131:4945
	movdqa	%xmm5, %xmm9
	pslld	$7, %xmm9
	.loc	7 131 4927                      # crypto_pwhash/scryptsalsa208sha256/sse/pwhash_scryptsalsa208sha256_sse.c:131:4927
	pxor	%xmm8, %xmm9
.Ltmp420:
	#DEBUG_VALUE: blockmix_salsa8:X1 <- $xmm9
	.loc	7 131 4991                      # crypto_pwhash/scryptsalsa208sha256/sse/pwhash_scryptsalsa208sha256_sse.c:131:4991
	psrld	$25, %xmm5
.Ltmp421:
	.loc	7 131 4973                      # crypto_pwhash/scryptsalsa208sha256/sse/pwhash_scryptsalsa208sha256_sse.c:131:4973
	pxor	%xmm9, %xmm5
.Ltmp422:
	#DEBUG_VALUE: blockmix_salsa8:X1 <- $xmm5
	.loc	7 131 5035                      # crypto_pwhash/scryptsalsa208sha256/sse/pwhash_scryptsalsa208sha256_sse.c:131:5035
	movdqa	%xmm5, %xmm9
	paddd	%xmm4, %xmm9
.Ltmp423:
	#DEBUG_VALUE: T <- $xmm9
	.loc	7 131 5081                      # crypto_pwhash/scryptsalsa208sha256/sse/pwhash_scryptsalsa208sha256_sse.c:131:5081
	movdqa	%xmm9, %xmm8
	pslld	$9, %xmm8
	.loc	7 131 5063                      # crypto_pwhash/scryptsalsa208sha256/sse/pwhash_scryptsalsa208sha256_sse.c:131:5063
	pxor	%xmm6, %xmm8
.Ltmp424:
	#DEBUG_VALUE: blockmix_salsa8:X2 <- $xmm8
	.loc	7 131 5127                      # crypto_pwhash/scryptsalsa208sha256/sse/pwhash_scryptsalsa208sha256_sse.c:131:5127
	psrld	$23, %xmm9
.Ltmp425:
	.loc	7 131 5109                      # crypto_pwhash/scryptsalsa208sha256/sse/pwhash_scryptsalsa208sha256_sse.c:131:5109
	pxor	%xmm8, %xmm9
.Ltmp426:
	#DEBUG_VALUE: blockmix_salsa8:X2 <- $xmm9
	.loc	7 131 5171                      # crypto_pwhash/scryptsalsa208sha256/sse/pwhash_scryptsalsa208sha256_sse.c:131:5171
	movdqa	%xmm9, %xmm8
	paddd	%xmm5, %xmm8
.Ltmp427:
	#DEBUG_VALUE: T <- $xmm8
	.loc	7 131 5246                      # crypto_pwhash/scryptsalsa208sha256/sse/pwhash_scryptsalsa208sha256_sse.c:131:5246
	movdqa	%xmm8, %xmm6
	psrld	$19, %xmm6
	pslld	$13, %xmm8
.Ltmp428:
	por	%xmm6, %xmm8
	pxor	%xmm7, %xmm8
.Ltmp429:
	#DEBUG_VALUE: blockmix_salsa8:X2 <- undef
	.loc	7 131 5598                      # crypto_pwhash/scryptsalsa208sha256/sse/pwhash_scryptsalsa208sha256_sse.c:131:5598
	pshufd	$57, %xmm8, %xmm7               # xmm7 = xmm8[1,2,3,0]
.Ltmp430:
	#DEBUG_VALUE: blockmix_salsa8:X3 <- $xmm8
	.loc	7 131 5309                      # crypto_pwhash/scryptsalsa208sha256/sse/pwhash_scryptsalsa208sha256_sse.c:131:5309
	paddd	%xmm9, %xmm8
.Ltmp431:
	#DEBUG_VALUE: T <- $xmm8
	.loc	7 131 5384                      # crypto_pwhash/scryptsalsa208sha256/sse/pwhash_scryptsalsa208sha256_sse.c:131:5384
	movdqa	%xmm8, %xmm6
	psrld	$14, %xmm6
	pslld	$18, %xmm8
.Ltmp432:
	por	%xmm6, %xmm8
.Ltmp433:
	.loc	7 131 5448                      # crypto_pwhash/scryptsalsa208sha256/sse/pwhash_scryptsalsa208sha256_sse.c:131:5448
	pshufd	$147, %xmm5, %xmm5              # xmm5 = xmm5[3,0,1,2]
.Ltmp434:
	#DEBUG_VALUE: blockmix_salsa8:X1 <- $xmm5
	.loc	7 131 5523                      # crypto_pwhash/scryptsalsa208sha256/sse/pwhash_scryptsalsa208sha256_sse.c:131:5523
	pshufd	$78, %xmm9, %xmm9               # xmm9 = xmm9[2,3,0,1]
.Ltmp435:
	#DEBUG_VALUE: blockmix_salsa8:X2 <- $xmm9
	#DEBUG_VALUE: blockmix_salsa8:X3 <- $xmm7
	.loc	7 131 5672                      # crypto_pwhash/scryptsalsa208sha256/sse/pwhash_scryptsalsa208sha256_sse.c:131:5672
	pxor	%xmm4, %xmm8
	movdqa	%xmm5, %xmm6
	paddd	%xmm8, %xmm6
.Ltmp436:
	#DEBUG_VALUE: T <- $xmm6
	.loc	7 131 5718                      # crypto_pwhash/scryptsalsa208sha256/sse/pwhash_scryptsalsa208sha256_sse.c:131:5718
	movdqa	%xmm6, %xmm4
	pslld	$7, %xmm4
	.loc	7 131 5700                      # crypto_pwhash/scryptsalsa208sha256/sse/pwhash_scryptsalsa208sha256_sse.c:131:5700
	pxor	%xmm7, %xmm4
.Ltmp437:
	#DEBUG_VALUE: blockmix_salsa8:X3 <- $xmm4
	.loc	7 131 5764                      # crypto_pwhash/scryptsalsa208sha256/sse/pwhash_scryptsalsa208sha256_sse.c:131:5764
	psrld	$25, %xmm6
.Ltmp438:
	.loc	7 131 5746                      # crypto_pwhash/scryptsalsa208sha256/sse/pwhash_scryptsalsa208sha256_sse.c:131:5746
	pxor	%xmm4, %xmm6
.Ltmp439:
	#DEBUG_VALUE: blockmix_salsa8:X3 <- $xmm6
	.loc	7 131 5808                      # crypto_pwhash/scryptsalsa208sha256/sse/pwhash_scryptsalsa208sha256_sse.c:131:5808
	movdqa	%xmm6, %xmm7
	paddd	%xmm8, %xmm7
.Ltmp440:
	#DEBUG_VALUE: T <- $xmm7
	.loc	7 131 5854                      # crypto_pwhash/scryptsalsa208sha256/sse/pwhash_scryptsalsa208sha256_sse.c:131:5854
	movdqa	%xmm7, %xmm4
	pslld	$9, %xmm4
	.loc	7 131 5836                      # crypto_pwhash/scryptsalsa208sha256/sse/pwhash_scryptsalsa208sha256_sse.c:131:5836
	pxor	%xmm9, %xmm4
.Ltmp441:
	#DEBUG_VALUE: blockmix_salsa8:X2 <- $xmm4
	.loc	7 131 5900                      # crypto_pwhash/scryptsalsa208sha256/sse/pwhash_scryptsalsa208sha256_sse.c:131:5900
	psrld	$23, %xmm7
.Ltmp442:
	.loc	7 131 5882                      # crypto_pwhash/scryptsalsa208sha256/sse/pwhash_scryptsalsa208sha256_sse.c:131:5882
	pxor	%xmm4, %xmm7
.Ltmp443:
	#DEBUG_VALUE: blockmix_salsa8:X2 <- $xmm7
	.loc	7 131 5944                      # crypto_pwhash/scryptsalsa208sha256/sse/pwhash_scryptsalsa208sha256_sse.c:131:5944
	movdqa	%xmm7, %xmm4
	paddd	%xmm6, %xmm4
.Ltmp444:
	#DEBUG_VALUE: T <- $xmm4
	.loc	7 131 6019                      # crypto_pwhash/scryptsalsa208sha256/sse/pwhash_scryptsalsa208sha256_sse.c:131:6019
	movdqa	%xmm4, %xmm9
	psrld	$19, %xmm9
	pslld	$13, %xmm4
.Ltmp445:
	por	%xmm9, %xmm4
	pxor	%xmm5, %xmm4
.Ltmp446:
	.loc	7 131 6221                      # crypto_pwhash/scryptsalsa208sha256/sse/pwhash_scryptsalsa208sha256_sse.c:131:6221
	pshufd	$57, %xmm4, %xmm5               # xmm5 = xmm4[1,2,3,0]
.Ltmp447:
	#DEBUG_VALUE: blockmix_salsa8:X1 <- $xmm4
	.loc	7 131 6082                      # crypto_pwhash/scryptsalsa208sha256/sse/pwhash_scryptsalsa208sha256_sse.c:131:6082
	paddd	%xmm7, %xmm4
.Ltmp448:
	#DEBUG_VALUE: T <- $xmm4
	.loc	7 131 6157                      # crypto_pwhash/scryptsalsa208sha256/sse/pwhash_scryptsalsa208sha256_sse.c:131:6157
	movdqa	%xmm4, %xmm9
	psrld	$14, %xmm9
	pslld	$18, %xmm4
.Ltmp449:
	por	%xmm9, %xmm4
.Ltmp450:
	#DEBUG_VALUE: blockmix_salsa8:X1 <- $xmm5
	.loc	7 131 6296                      # crypto_pwhash/scryptsalsa208sha256/sse/pwhash_scryptsalsa208sha256_sse.c:131:6296
	pshufd	$78, %xmm7, %xmm7               # xmm7 = xmm7[2,3,0,1]
.Ltmp451:
	#DEBUG_VALUE: blockmix_salsa8:X2 <- $xmm7
	.loc	7 131 6371                      # crypto_pwhash/scryptsalsa208sha256/sse/pwhash_scryptsalsa208sha256_sse.c:131:6371
	pshufd	$147, %xmm6, %xmm6              # xmm6 = xmm6[3,0,1,2]
.Ltmp452:
	#DEBUG_VALUE: blockmix_salsa8:X3 <- $xmm6
	.loc	7 131 6465                      # crypto_pwhash/scryptsalsa208sha256/sse/pwhash_scryptsalsa208sha256_sse.c:131:6465
	pxor	%xmm8, %xmm4
	paddd	%xmm0, %xmm4
.Ltmp453:
	#DEBUG_VALUE: blockmix_salsa8:X0 <- $xmm4
	.loc	7 131 6458                      # crypto_pwhash/scryptsalsa208sha256/sse/pwhash_scryptsalsa208sha256_sse.c:131:6458
	movdqa	%xmm4, 64(%rcx,%r8)
	.loc	7 131 6523                      # crypto_pwhash/scryptsalsa208sha256/sse/pwhash_scryptsalsa208sha256_sse.c:131:6523
	paddd	%xmm1, %xmm5
.Ltmp454:
	#DEBUG_VALUE: blockmix_salsa8:X1 <- $xmm5
	.loc	7 131 6516                      # crypto_pwhash/scryptsalsa208sha256/sse/pwhash_scryptsalsa208sha256_sse.c:131:6516
	movdqa	%xmm5, 80(%rcx,%r8)
	.loc	7 131 6581                      # crypto_pwhash/scryptsalsa208sha256/sse/pwhash_scryptsalsa208sha256_sse.c:131:6581
	paddd	%xmm3, %xmm7
.Ltmp455:
	#DEBUG_VALUE: blockmix_salsa8:X2 <- $xmm7
	.loc	7 131 6574                      # crypto_pwhash/scryptsalsa208sha256/sse/pwhash_scryptsalsa208sha256_sse.c:131:6574
	movdqa	%xmm7, 96(%rcx,%r8)
	.loc	7 131 6639                      # crypto_pwhash/scryptsalsa208sha256/sse/pwhash_scryptsalsa208sha256_sse.c:131:6639
	paddd	%xmm2, %xmm6
.Ltmp456:
	#DEBUG_VALUE: blockmix_salsa8:X3 <- $xmm6
	.loc	7 131 6632                      # crypto_pwhash/scryptsalsa208sha256/sse/pwhash_scryptsalsa208sha256_sse.c:131:6632
	movdqa	%xmm6, 112(%rcx,%r8)
.Ltmp457:
	#DEBUG_VALUE: blockmix_salsa8:i <- [DW_OP_consts 64, DW_OP_div, DW_OP_consts 1, DW_OP_plus, DW_OP_stack_value] $r8
	.loc	7 138 29 is_stmt 1              # crypto_pwhash/scryptsalsa208sha256/sse/pwhash_scryptsalsa208sha256_sse.c:138:29
	pxor	128(%rdi,%r8,2), %xmm4
.Ltmp458:
	#DEBUG_VALUE: blockmix_salsa8:X0 <- $xmm4
	#DEBUG_VALUE: Y0 <- $xmm4
	#DEBUG_VALUE: Y1 <- undef
	#DEBUG_VALUE: Y2 <- undef
	#DEBUG_VALUE: Y3 <- undef
	.loc	7 138 245 is_stmt 0             # crypto_pwhash/scryptsalsa208sha256/sse/pwhash_scryptsalsa208sha256_sse.c:138:245
	pxor	176(%rdi,%r8,2), %xmm6
.Ltmp459:
	movdqa	%xmm6, %xmm1
.Ltmp460:
	paddd	%xmm4, %xmm1
.Ltmp461:
	#DEBUG_VALUE: T <- $xmm1
	.loc	7 138 319                       # crypto_pwhash/scryptsalsa208sha256/sse/pwhash_scryptsalsa208sha256_sse.c:138:319
	movdqa	%xmm1, %xmm0
.Ltmp462:
	psrld	$25, %xmm0
	pslld	$7, %xmm1
.Ltmp463:
	por	%xmm0, %xmm1
.Ltmp464:
	.loc	7 138 381                       # crypto_pwhash/scryptsalsa208sha256/sse/pwhash_scryptsalsa208sha256_sse.c:138:381
	pxor	144(%rdi,%r8,2), %xmm5
.Ltmp465:
	pxor	%xmm5, %xmm1
	movdqa	%xmm1, %xmm2
.Ltmp466:
	paddd	%xmm4, %xmm2
.Ltmp467:
	#DEBUG_VALUE: T <- $xmm2
	.loc	7 138 455                       # crypto_pwhash/scryptsalsa208sha256/sse/pwhash_scryptsalsa208sha256_sse.c:138:455
	movdqa	%xmm2, %xmm0
	psrld	$23, %xmm0
	pslld	$9, %xmm2
.Ltmp468:
	por	%xmm0, %xmm2
.Ltmp469:
	.loc	7 138 517                       # crypto_pwhash/scryptsalsa208sha256/sse/pwhash_scryptsalsa208sha256_sse.c:138:517
	pxor	160(%rdi,%r8,2), %xmm7
.Ltmp470:
	pxor	%xmm7, %xmm2
	movdqa	%xmm2, %xmm0
	paddd	%xmm1, %xmm0
.Ltmp471:
	#DEBUG_VALUE: T <- $xmm0
	.loc	7 138 592                       # crypto_pwhash/scryptsalsa208sha256/sse/pwhash_scryptsalsa208sha256_sse.c:138:592
	movdqa	%xmm0, %xmm3
.Ltmp472:
	psrld	$19, %xmm3
	pslld	$13, %xmm0
.Ltmp473:
	por	%xmm3, %xmm0
.Ltmp474:
	.loc	7 138 655                       # crypto_pwhash/scryptsalsa208sha256/sse/pwhash_scryptsalsa208sha256_sse.c:138:655
	pxor	%xmm6, %xmm0
.Ltmp475:
	#DEBUG_VALUE: blockmix_salsa8:X2 <- undef
	.loc	7 138 944                       # crypto_pwhash/scryptsalsa208sha256/sse/pwhash_scryptsalsa208sha256_sse.c:138:944
	pshufd	$57, %xmm0, %xmm3               # xmm3 = xmm0[1,2,3,0]
.Ltmp476:
	.loc	7 138 655                       # crypto_pwhash/scryptsalsa208sha256/sse/pwhash_scryptsalsa208sha256_sse.c:138:655
	paddd	%xmm2, %xmm0
.Ltmp477:
	#DEBUG_VALUE: T <- $xmm0
	.loc	7 138 730                       # crypto_pwhash/scryptsalsa208sha256/sse/pwhash_scryptsalsa208sha256_sse.c:138:730
	movdqa	%xmm0, %xmm8
	psrld	$14, %xmm8
	pslld	$18, %xmm0
.Ltmp478:
	por	%xmm8, %xmm0
	pxor	%xmm4, %xmm0
.Ltmp479:
	.loc	7 138 794                       # crypto_pwhash/scryptsalsa208sha256/sse/pwhash_scryptsalsa208sha256_sse.c:138:794
	pshufd	$147, %xmm1, %xmm8              # xmm8 = xmm1[3,0,1,2]
.Ltmp480:
	#DEBUG_VALUE: blockmix_salsa8:X1 <- $xmm8
	.loc	7 138 869                       # crypto_pwhash/scryptsalsa208sha256/sse/pwhash_scryptsalsa208sha256_sse.c:138:869
	pshufd	$78, %xmm2, %xmm1               # xmm1 = xmm2[2,3,0,1]
.Ltmp481:
	#DEBUG_VALUE: blockmix_salsa8:X2 <- $xmm1
	#DEBUG_VALUE: blockmix_salsa8:X3 <- $xmm3
	.loc	7 138 1018                      # crypto_pwhash/scryptsalsa208sha256/sse/pwhash_scryptsalsa208sha256_sse.c:138:1018
	movdqa	%xmm8, %xmm2
	paddd	%xmm0, %xmm2
.Ltmp482:
	#DEBUG_VALUE: T <- $xmm2
	.loc	7 138 1064                      # crypto_pwhash/scryptsalsa208sha256/sse/pwhash_scryptsalsa208sha256_sse.c:138:1064
	movdqa	%xmm2, %xmm9
	pslld	$7, %xmm9
	.loc	7 138 1046                      # crypto_pwhash/scryptsalsa208sha256/sse/pwhash_scryptsalsa208sha256_sse.c:138:1046
	pxor	%xmm3, %xmm9
.Ltmp483:
	#DEBUG_VALUE: blockmix_salsa8:X3 <- $xmm9
	.loc	7 138 1110                      # crypto_pwhash/scryptsalsa208sha256/sse/pwhash_scryptsalsa208sha256_sse.c:138:1110
	psrld	$25, %xmm2
.Ltmp484:
	.loc	7 138 1092                      # crypto_pwhash/scryptsalsa208sha256/sse/pwhash_scryptsalsa208sha256_sse.c:138:1092
	pxor	%xmm9, %xmm2
.Ltmp485:
	#DEBUG_VALUE: blockmix_salsa8:X3 <- $xmm2
	.loc	7 138 1154                      # crypto_pwhash/scryptsalsa208sha256/sse/pwhash_scryptsalsa208sha256_sse.c:138:1154
	movdqa	%xmm2, %xmm3
	paddd	%xmm0, %xmm3
.Ltmp486:
	#DEBUG_VALUE: T <- $xmm3
	.loc	7 138 1200                      # crypto_pwhash/scryptsalsa208sha256/sse/pwhash_scryptsalsa208sha256_sse.c:138:1200
	movdqa	%xmm3, %xmm9
	pslld	$9, %xmm9
	.loc	7 138 1182                      # crypto_pwhash/scryptsalsa208sha256/sse/pwhash_scryptsalsa208sha256_sse.c:138:1182
	pxor	%xmm1, %xmm9
.Ltmp487:
	#DEBUG_VALUE: blockmix_salsa8:X2 <- $xmm9
	.loc	7 138 1246                      # crypto_pwhash/scryptsalsa208sha256/sse/pwhash_scryptsalsa208sha256_sse.c:138:1246
	psrld	$23, %xmm3
.Ltmp488:
	.loc	7 138 1228                      # crypto_pwhash/scryptsalsa208sha256/sse/pwhash_scryptsalsa208sha256_sse.c:138:1228
	pxor	%xmm9, %xmm3
.Ltmp489:
	#DEBUG_VALUE: blockmix_salsa8:X2 <- $xmm3
	.loc	7 138 1290                      # crypto_pwhash/scryptsalsa208sha256/sse/pwhash_scryptsalsa208sha256_sse.c:138:1290
	movdqa	%xmm3, %xmm1
	paddd	%xmm2, %xmm1
.Ltmp490:
	#DEBUG_VALUE: T <- $xmm1
	.loc	7 138 1365                      # crypto_pwhash/scryptsalsa208sha256/sse/pwhash_scryptsalsa208sha256_sse.c:138:1365
	movdqa	%xmm1, %xmm9
	psrld	$19, %xmm9
	pslld	$13, %xmm1
.Ltmp491:
	por	%xmm9, %xmm1
	pxor	%xmm8, %xmm1
.Ltmp492:
	.loc	7 138 1567                      # crypto_pwhash/scryptsalsa208sha256/sse/pwhash_scryptsalsa208sha256_sse.c:138:1567
	pshufd	$57, %xmm1, %xmm8               # xmm8 = xmm1[1,2,3,0]
.Ltmp493:
	#DEBUG_VALUE: blockmix_salsa8:X1 <- $xmm1
	.loc	7 138 1428                      # crypto_pwhash/scryptsalsa208sha256/sse/pwhash_scryptsalsa208sha256_sse.c:138:1428
	paddd	%xmm3, %xmm1
.Ltmp494:
	#DEBUG_VALUE: T <- $xmm1
	.loc	7 138 1503                      # crypto_pwhash/scryptsalsa208sha256/sse/pwhash_scryptsalsa208sha256_sse.c:138:1503
	movdqa	%xmm1, %xmm9
	psrld	$14, %xmm9
	pslld	$18, %xmm1
.Ltmp495:
	por	%xmm9, %xmm1
	pxor	%xmm0, %xmm1
.Ltmp496:
	#DEBUG_VALUE: blockmix_salsa8:X1 <- $xmm8
	.loc	7 138 1642                      # crypto_pwhash/scryptsalsa208sha256/sse/pwhash_scryptsalsa208sha256_sse.c:138:1642
	pshufd	$78, %xmm3, %xmm0               # xmm0 = xmm3[2,3,0,1]
.Ltmp497:
	#DEBUG_VALUE: blockmix_salsa8:X2 <- $xmm0
	.loc	7 138 1717                      # crypto_pwhash/scryptsalsa208sha256/sse/pwhash_scryptsalsa208sha256_sse.c:138:1717
	pshufd	$147, %xmm2, %xmm3              # xmm3 = xmm2[3,0,1,2]
.Ltmp498:
	#DEBUG_VALUE: blockmix_salsa8:X3 <- $xmm3
	.loc	7 138 1791                      # crypto_pwhash/scryptsalsa208sha256/sse/pwhash_scryptsalsa208sha256_sse.c:138:1791
	movdqa	%xmm3, %xmm2
	paddd	%xmm1, %xmm2
.Ltmp499:
	#DEBUG_VALUE: T <- $xmm2
	.loc	7 138 1837                      # crypto_pwhash/scryptsalsa208sha256/sse/pwhash_scryptsalsa208sha256_sse.c:138:1837
	movdqa	%xmm2, %xmm9
	pslld	$7, %xmm9
	.loc	7 138 1819                      # crypto_pwhash/scryptsalsa208sha256/sse/pwhash_scryptsalsa208sha256_sse.c:138:1819
	pxor	%xmm8, %xmm9
.Ltmp500:
	#DEBUG_VALUE: blockmix_salsa8:X1 <- $xmm9
	.loc	7 138 1883                      # crypto_pwhash/scryptsalsa208sha256/sse/pwhash_scryptsalsa208sha256_sse.c:138:1883
	psrld	$25, %xmm2
.Ltmp501:
	.loc	7 138 1865                      # crypto_pwhash/scryptsalsa208sha256/sse/pwhash_scryptsalsa208sha256_sse.c:138:1865
	pxor	%xmm9, %xmm2
.Ltmp502:
	#DEBUG_VALUE: blockmix_salsa8:X1 <- $xmm2
	.loc	7 138 1927                      # crypto_pwhash/scryptsalsa208sha256/sse/pwhash_scryptsalsa208sha256_sse.c:138:1927
	movdqa	%xmm2, %xmm8
	paddd	%xmm1, %xmm8
.Ltmp503:
	#DEBUG_VALUE: T <- $xmm8
	.loc	7 138 1973                      # crypto_pwhash/scryptsalsa208sha256/sse/pwhash_scryptsalsa208sha256_sse.c:138:1973
	movdqa	%xmm8, %xmm9
	pslld	$9, %xmm9
	.loc	7 138 1955                      # crypto_pwhash/scryptsalsa208sha256/sse/pwhash_scryptsalsa208sha256_sse.c:138:1955
	pxor	%xmm0, %xmm9
.Ltmp504:
	#DEBUG_VALUE: blockmix_salsa8:X2 <- $xmm9
	.loc	7 138 2019                      # crypto_pwhash/scryptsalsa208sha256/sse/pwhash_scryptsalsa208sha256_sse.c:138:2019
	psrld	$23, %xmm8
.Ltmp505:
	.loc	7 138 2001                      # crypto_pwhash/scryptsalsa208sha256/sse/pwhash_scryptsalsa208sha256_sse.c:138:2001
	pxor	%xmm9, %xmm8
.Ltmp506:
	#DEBUG_VALUE: blockmix_salsa8:X2 <- $xmm8
	.loc	7 138 2063                      # crypto_pwhash/scryptsalsa208sha256/sse/pwhash_scryptsalsa208sha256_sse.c:138:2063
	movdqa	%xmm8, %xmm0
	paddd	%xmm2, %xmm0
.Ltmp507:
	#DEBUG_VALUE: T <- $xmm0
	.loc	7 138 2138                      # crypto_pwhash/scryptsalsa208sha256/sse/pwhash_scryptsalsa208sha256_sse.c:138:2138
	movdqa	%xmm0, %xmm9
	psrld	$19, %xmm9
	pslld	$13, %xmm0
.Ltmp508:
	por	%xmm9, %xmm0
	pxor	%xmm3, %xmm0
.Ltmp509:
	#DEBUG_VALUE: blockmix_salsa8:X2 <- undef
	.loc	7 138 2490                      # crypto_pwhash/scryptsalsa208sha256/sse/pwhash_scryptsalsa208sha256_sse.c:138:2490
	pshufd	$57, %xmm0, %xmm3               # xmm3 = xmm0[1,2,3,0]
.Ltmp510:
	#DEBUG_VALUE: blockmix_salsa8:X3 <- $xmm0
	.loc	7 138 2201                      # crypto_pwhash/scryptsalsa208sha256/sse/pwhash_scryptsalsa208sha256_sse.c:138:2201
	paddd	%xmm8, %xmm0
.Ltmp511:
	#DEBUG_VALUE: T <- $xmm0
	.loc	7 138 2276                      # crypto_pwhash/scryptsalsa208sha256/sse/pwhash_scryptsalsa208sha256_sse.c:138:2276
	movdqa	%xmm0, %xmm9
	psrld	$14, %xmm9
	pslld	$18, %xmm0
.Ltmp512:
	por	%xmm9, %xmm0
	pxor	%xmm1, %xmm0
.Ltmp513:
	.loc	7 138 2340                      # crypto_pwhash/scryptsalsa208sha256/sse/pwhash_scryptsalsa208sha256_sse.c:138:2340
	pshufd	$147, %xmm2, %xmm9              # xmm9 = xmm2[3,0,1,2]
.Ltmp514:
	#DEBUG_VALUE: blockmix_salsa8:X1 <- $xmm9
	.loc	7 138 2415                      # crypto_pwhash/scryptsalsa208sha256/sse/pwhash_scryptsalsa208sha256_sse.c:138:2415
	pshufd	$78, %xmm8, %xmm1               # xmm1 = xmm8[2,3,0,1]
.Ltmp515:
	#DEBUG_VALUE: blockmix_salsa8:X2 <- $xmm1
	#DEBUG_VALUE: blockmix_salsa8:X3 <- $xmm3
	.loc	7 138 2564                      # crypto_pwhash/scryptsalsa208sha256/sse/pwhash_scryptsalsa208sha256_sse.c:138:2564
	movdqa	%xmm9, %xmm2
	paddd	%xmm0, %xmm2
.Ltmp516:
	#DEBUG_VALUE: T <- $xmm2
	.loc	7 138 2610                      # crypto_pwhash/scryptsalsa208sha256/sse/pwhash_scryptsalsa208sha256_sse.c:138:2610
	movdqa	%xmm2, %xmm8
	pslld	$7, %xmm8
	.loc	7 138 2592                      # crypto_pwhash/scryptsalsa208sha256/sse/pwhash_scryptsalsa208sha256_sse.c:138:2592
	pxor	%xmm3, %xmm8
.Ltmp517:
	#DEBUG_VALUE: blockmix_salsa8:X3 <- $xmm8
	.loc	7 138 2656                      # crypto_pwhash/scryptsalsa208sha256/sse/pwhash_scryptsalsa208sha256_sse.c:138:2656
	psrld	$25, %xmm2
.Ltmp518:
	.loc	7 138 2638                      # crypto_pwhash/scryptsalsa208sha256/sse/pwhash_scryptsalsa208sha256_sse.c:138:2638
	pxor	%xmm8, %xmm2
.Ltmp519:
	#DEBUG_VALUE: blockmix_salsa8:X3 <- $xmm2
	.loc	7 138 2700                      # crypto_pwhash/scryptsalsa208sha256/sse/pwhash_scryptsalsa208sha256_sse.c:138:2700
	movdqa	%xmm2, %xmm3
	paddd	%xmm0, %xmm3
.Ltmp520:
	#DEBUG_VALUE: T <- $xmm3
	.loc	7 138 2746                      # crypto_pwhash/scryptsalsa208sha256/sse/pwhash_scryptsalsa208sha256_sse.c:138:2746
	movdqa	%xmm3, %xmm8
	pslld	$9, %xmm8
	.loc	7 138 2728                      # crypto_pwhash/scryptsalsa208sha256/sse/pwhash_scryptsalsa208sha256_sse.c:138:2728
	pxor	%xmm1, %xmm8
.Ltmp521:
	#DEBUG_VALUE: blockmix_salsa8:X2 <- $xmm8
	.loc	7 138 2792                      # crypto_pwhash/scryptsalsa208sha256/sse/pwhash_scryptsalsa208sha256_sse.c:138:2792
	psrld	$23, %xmm3
.Ltmp522:
	.loc	7 138 2774                      # crypto_pwhash/scryptsalsa208sha256/sse/pwhash_scryptsalsa208sha256_sse.c:138:2774
	pxor	%xmm8, %xmm3
.Ltmp523:
	#DEBUG_VALUE: blockmix_salsa8:X2 <- $xmm3
	.loc	7 138 2836                      # crypto_pwhash/scryptsalsa208sha256/sse/pwhash_scryptsalsa208sha256_sse.c:138:2836
	movdqa	%xmm3, %xmm1
	paddd	%xmm2, %xmm1
.Ltmp524:
	#DEBUG_VALUE: T <- $xmm1
	.loc	7 138 2911                      # crypto_pwhash/scryptsalsa208sha256/sse/pwhash_scryptsalsa208sha256_sse.c:138:2911
	movdqa	%xmm1, %xmm8
	psrld	$19, %xmm8
	pslld	$13, %xmm1
.Ltmp525:
	por	%xmm8, %xmm1
	pxor	%xmm9, %xmm1
.Ltmp526:
	.loc	7 138 3113                      # crypto_pwhash/scryptsalsa208sha256/sse/pwhash_scryptsalsa208sha256_sse.c:138:3113
	pshufd	$57, %xmm1, %xmm8               # xmm8 = xmm1[1,2,3,0]
.Ltmp527:
	#DEBUG_VALUE: blockmix_salsa8:X1 <- $xmm1
	.loc	7 138 2974                      # crypto_pwhash/scryptsalsa208sha256/sse/pwhash_scryptsalsa208sha256_sse.c:138:2974
	paddd	%xmm3, %xmm1
.Ltmp528:
	#DEBUG_VALUE: T <- $xmm1
	.loc	7 138 3049                      # crypto_pwhash/scryptsalsa208sha256/sse/pwhash_scryptsalsa208sha256_sse.c:138:3049
	movdqa	%xmm1, %xmm9
	psrld	$14, %xmm9
	pslld	$18, %xmm1
.Ltmp529:
	por	%xmm9, %xmm1
	pxor	%xmm0, %xmm1
.Ltmp530:
	#DEBUG_VALUE: blockmix_salsa8:X1 <- $xmm8
	.loc	7 138 3188                      # crypto_pwhash/scryptsalsa208sha256/sse/pwhash_scryptsalsa208sha256_sse.c:138:3188
	pshufd	$78, %xmm3, %xmm3               # xmm3 = xmm3[2,3,0,1]
.Ltmp531:
	#DEBUG_VALUE: blockmix_salsa8:X2 <- $xmm3
	.loc	7 138 3263                      # crypto_pwhash/scryptsalsa208sha256/sse/pwhash_scryptsalsa208sha256_sse.c:138:3263
	pshufd	$147, %xmm2, %xmm9              # xmm9 = xmm2[3,0,1,2]
.Ltmp532:
	#DEBUG_VALUE: blockmix_salsa8:X3 <- $xmm9
	.loc	7 138 3337                      # crypto_pwhash/scryptsalsa208sha256/sse/pwhash_scryptsalsa208sha256_sse.c:138:3337
	movdqa	%xmm9, %xmm0
	paddd	%xmm1, %xmm0
.Ltmp533:
	#DEBUG_VALUE: T <- $xmm0
	.loc	7 138 3383                      # crypto_pwhash/scryptsalsa208sha256/sse/pwhash_scryptsalsa208sha256_sse.c:138:3383
	movdqa	%xmm0, %xmm2
	pslld	$7, %xmm2
	.loc	7 138 3365                      # crypto_pwhash/scryptsalsa208sha256/sse/pwhash_scryptsalsa208sha256_sse.c:138:3365
	pxor	%xmm8, %xmm2
.Ltmp534:
	#DEBUG_VALUE: blockmix_salsa8:X1 <- $xmm2
	.loc	7 138 3429                      # crypto_pwhash/scryptsalsa208sha256/sse/pwhash_scryptsalsa208sha256_sse.c:138:3429
	psrld	$25, %xmm0
.Ltmp535:
	.loc	7 138 3411                      # crypto_pwhash/scryptsalsa208sha256/sse/pwhash_scryptsalsa208sha256_sse.c:138:3411
	pxor	%xmm2, %xmm0
.Ltmp536:
	#DEBUG_VALUE: blockmix_salsa8:X1 <- $xmm0
	.loc	7 138 3473                      # crypto_pwhash/scryptsalsa208sha256/sse/pwhash_scryptsalsa208sha256_sse.c:138:3473
	movdqa	%xmm0, %xmm8
	paddd	%xmm1, %xmm8
.Ltmp537:
	#DEBUG_VALUE: T <- $xmm8
	.loc	7 138 3519                      # crypto_pwhash/scryptsalsa208sha256/sse/pwhash_scryptsalsa208sha256_sse.c:138:3519
	movdqa	%xmm8, %xmm2
	pslld	$9, %xmm2
	.loc	7 138 3501                      # crypto_pwhash/scryptsalsa208sha256/sse/pwhash_scryptsalsa208sha256_sse.c:138:3501
	pxor	%xmm3, %xmm2
.Ltmp538:
	#DEBUG_VALUE: blockmix_salsa8:X2 <- $xmm2
	.loc	7 138 3565                      # crypto_pwhash/scryptsalsa208sha256/sse/pwhash_scryptsalsa208sha256_sse.c:138:3565
	psrld	$23, %xmm8
.Ltmp539:
	.loc	7 138 3547                      # crypto_pwhash/scryptsalsa208sha256/sse/pwhash_scryptsalsa208sha256_sse.c:138:3547
	pxor	%xmm2, %xmm8
.Ltmp540:
	#DEBUG_VALUE: blockmix_salsa8:X2 <- $xmm8
	.loc	7 138 3609                      # crypto_pwhash/scryptsalsa208sha256/sse/pwhash_scryptsalsa208sha256_sse.c:138:3609
	movdqa	%xmm8, %xmm2
	paddd	%xmm0, %xmm2
.Ltmp541:
	#DEBUG_VALUE: T <- $xmm2
	.loc	7 138 3684                      # crypto_pwhash/scryptsalsa208sha256/sse/pwhash_scryptsalsa208sha256_sse.c:138:3684
	movdqa	%xmm2, %xmm3
	psrld	$19, %xmm3
	pslld	$13, %xmm2
.Ltmp542:
	por	%xmm3, %xmm2
	pxor	%xmm9, %xmm2
.Ltmp543:
	#DEBUG_VALUE: blockmix_salsa8:X2 <- undef
	.loc	7 138 4036                      # crypto_pwhash/scryptsalsa208sha256/sse/pwhash_scryptsalsa208sha256_sse.c:138:4036
	pshufd	$57, %xmm2, %xmm3               # xmm3 = xmm2[1,2,3,0]
.Ltmp544:
	#DEBUG_VALUE: blockmix_salsa8:X3 <- $xmm2
	.loc	7 138 3747                      # crypto_pwhash/scryptsalsa208sha256/sse/pwhash_scryptsalsa208sha256_sse.c:138:3747
	paddd	%xmm8, %xmm2
.Ltmp545:
	#DEBUG_VALUE: T <- $xmm2
	.loc	7 138 3822                      # crypto_pwhash/scryptsalsa208sha256/sse/pwhash_scryptsalsa208sha256_sse.c:138:3822
	movdqa	%xmm2, %xmm9
	psrld	$14, %xmm9
	pslld	$18, %xmm2
.Ltmp546:
	por	%xmm9, %xmm2
	pxor	%xmm1, %xmm2
.Ltmp547:
	.loc	7 138 3886                      # crypto_pwhash/scryptsalsa208sha256/sse/pwhash_scryptsalsa208sha256_sse.c:138:3886
	pshufd	$147, %xmm0, %xmm9              # xmm9 = xmm0[3,0,1,2]
.Ltmp548:
	#DEBUG_VALUE: blockmix_salsa8:X1 <- $xmm9
	.loc	7 138 3961                      # crypto_pwhash/scryptsalsa208sha256/sse/pwhash_scryptsalsa208sha256_sse.c:138:3961
	pshufd	$78, %xmm8, %xmm0               # xmm0 = xmm8[2,3,0,1]
.Ltmp549:
	#DEBUG_VALUE: blockmix_salsa8:X2 <- $xmm0
	#DEBUG_VALUE: blockmix_salsa8:X3 <- $xmm3
	.loc	7 138 4110                      # crypto_pwhash/scryptsalsa208sha256/sse/pwhash_scryptsalsa208sha256_sse.c:138:4110
	movdqa	%xmm9, %xmm1
	paddd	%xmm2, %xmm1
.Ltmp550:
	#DEBUG_VALUE: T <- $xmm1
	.loc	7 138 4156                      # crypto_pwhash/scryptsalsa208sha256/sse/pwhash_scryptsalsa208sha256_sse.c:138:4156
	movdqa	%xmm1, %xmm8
	pslld	$7, %xmm8
	.loc	7 138 4138                      # crypto_pwhash/scryptsalsa208sha256/sse/pwhash_scryptsalsa208sha256_sse.c:138:4138
	pxor	%xmm3, %xmm8
.Ltmp551:
	#DEBUG_VALUE: blockmix_salsa8:X3 <- $xmm8
	.loc	7 138 4202                      # crypto_pwhash/scryptsalsa208sha256/sse/pwhash_scryptsalsa208sha256_sse.c:138:4202
	psrld	$25, %xmm1
.Ltmp552:
	.loc	7 138 4184                      # crypto_pwhash/scryptsalsa208sha256/sse/pwhash_scryptsalsa208sha256_sse.c:138:4184
	pxor	%xmm8, %xmm1
.Ltmp553:
	#DEBUG_VALUE: blockmix_salsa8:X3 <- $xmm1
	.loc	7 138 4246                      # crypto_pwhash/scryptsalsa208sha256/sse/pwhash_scryptsalsa208sha256_sse.c:138:4246
	movdqa	%xmm1, %xmm3
	paddd	%xmm2, %xmm3
.Ltmp554:
	#DEBUG_VALUE: T <- $xmm3
	.loc	7 138 4292                      # crypto_pwhash/scryptsalsa208sha256/sse/pwhash_scryptsalsa208sha256_sse.c:138:4292
	movdqa	%xmm3, %xmm8
	pslld	$9, %xmm8
	.loc	7 138 4274                      # crypto_pwhash/scryptsalsa208sha256/sse/pwhash_scryptsalsa208sha256_sse.c:138:4274
	pxor	%xmm0, %xmm8
.Ltmp555:
	#DEBUG_VALUE: blockmix_salsa8:X2 <- $xmm8
	.loc	7 138 4338                      # crypto_pwhash/scryptsalsa208sha256/sse/pwhash_scryptsalsa208sha256_sse.c:138:4338
	psrld	$23, %xmm3
.Ltmp556:
	.loc	7 138 4320                      # crypto_pwhash/scryptsalsa208sha256/sse/pwhash_scryptsalsa208sha256_sse.c:138:4320
	pxor	%xmm8, %xmm3
.Ltmp557:
	#DEBUG_VALUE: blockmix_salsa8:X2 <- $xmm3
	.loc	7 138 4382                      # crypto_pwhash/scryptsalsa208sha256/sse/pwhash_scryptsalsa208sha256_sse.c:138:4382
	movdqa	%xmm3, %xmm0
	paddd	%xmm1, %xmm0
.Ltmp558:
	#DEBUG_VALUE: T <- $xmm0
	.loc	7 138 4457                      # crypto_pwhash/scryptsalsa208sha256/sse/pwhash_scryptsalsa208sha256_sse.c:138:4457
	movdqa	%xmm0, %xmm8
	psrld	$19, %xmm8
	pslld	$13, %xmm0
.Ltmp559:
	por	%xmm8, %xmm0
	pxor	%xmm9, %xmm0
.Ltmp560:
	.loc	7 138 4659                      # crypto_pwhash/scryptsalsa208sha256/sse/pwhash_scryptsalsa208sha256_sse.c:138:4659
	pshufd	$57, %xmm0, %xmm8               # xmm8 = xmm0[1,2,3,0]
.Ltmp561:
	#DEBUG_VALUE: blockmix_salsa8:X1 <- $xmm0
	.loc	7 138 4520                      # crypto_pwhash/scryptsalsa208sha256/sse/pwhash_scryptsalsa208sha256_sse.c:138:4520
	paddd	%xmm3, %xmm0
.Ltmp562:
	#DEBUG_VALUE: T <- $xmm0
	.loc	7 138 4595                      # crypto_pwhash/scryptsalsa208sha256/sse/pwhash_scryptsalsa208sha256_sse.c:138:4595
	movdqa	%xmm0, %xmm9
	psrld	$14, %xmm9
	pslld	$18, %xmm0
.Ltmp563:
	por	%xmm9, %xmm0
	pxor	%xmm2, %xmm0
.Ltmp564:
	#DEBUG_VALUE: blockmix_salsa8:X1 <- $xmm8
	.loc	7 138 4734                      # crypto_pwhash/scryptsalsa208sha256/sse/pwhash_scryptsalsa208sha256_sse.c:138:4734
	pshufd	$78, %xmm3, %xmm2               # xmm2 = xmm3[2,3,0,1]
.Ltmp565:
	#DEBUG_VALUE: blockmix_salsa8:X2 <- $xmm2
	.loc	7 138 4809                      # crypto_pwhash/scryptsalsa208sha256/sse/pwhash_scryptsalsa208sha256_sse.c:138:4809
	pshufd	$147, %xmm1, %xmm3              # xmm3 = xmm1[3,0,1,2]
.Ltmp566:
	#DEBUG_VALUE: blockmix_salsa8:X3 <- $xmm3
	.loc	7 138 4883                      # crypto_pwhash/scryptsalsa208sha256/sse/pwhash_scryptsalsa208sha256_sse.c:138:4883
	movdqa	%xmm3, %xmm1
	paddd	%xmm0, %xmm1
.Ltmp567:
	#DEBUG_VALUE: T <- $xmm1
	.loc	7 138 4929                      # crypto_pwhash/scryptsalsa208sha256/sse/pwhash_scryptsalsa208sha256_sse.c:138:4929
	movdqa	%xmm1, %xmm9
	pslld	$7, %xmm9
	.loc	7 138 4911                      # crypto_pwhash/scryptsalsa208sha256/sse/pwhash_scryptsalsa208sha256_sse.c:138:4911
	pxor	%xmm8, %xmm9
.Ltmp568:
	#DEBUG_VALUE: blockmix_salsa8:X1 <- $xmm9
	.loc	7 138 4975                      # crypto_pwhash/scryptsalsa208sha256/sse/pwhash_scryptsalsa208sha256_sse.c:138:4975
	psrld	$25, %xmm1
.Ltmp569:
	.loc	7 138 4957                      # crypto_pwhash/scryptsalsa208sha256/sse/pwhash_scryptsalsa208sha256_sse.c:138:4957
	pxor	%xmm9, %xmm1
.Ltmp570:
	#DEBUG_VALUE: blockmix_salsa8:X1 <- $xmm1
	.loc	7 138 5019                      # crypto_pwhash/scryptsalsa208sha256/sse/pwhash_scryptsalsa208sha256_sse.c:138:5019
	movdqa	%xmm1, %xmm9
	paddd	%xmm0, %xmm9
.Ltmp571:
	#DEBUG_VALUE: T <- $xmm9
	.loc	7 138 5065                      # crypto_pwhash/scryptsalsa208sha256/sse/pwhash_scryptsalsa208sha256_sse.c:138:5065
	movdqa	%xmm9, %xmm8
	pslld	$9, %xmm8
	.loc	7 138 5047                      # crypto_pwhash/scryptsalsa208sha256/sse/pwhash_scryptsalsa208sha256_sse.c:138:5047
	pxor	%xmm2, %xmm8
.Ltmp572:
	#DEBUG_VALUE: blockmix_salsa8:X2 <- $xmm8
	.loc	7 138 5111                      # crypto_pwhash/scryptsalsa208sha256/sse/pwhash_scryptsalsa208sha256_sse.c:138:5111
	psrld	$23, %xmm9
.Ltmp573:
	.loc	7 138 5093                      # crypto_pwhash/scryptsalsa208sha256/sse/pwhash_scryptsalsa208sha256_sse.c:138:5093
	pxor	%xmm8, %xmm9
.Ltmp574:
	#DEBUG_VALUE: blockmix_salsa8:X2 <- $xmm9
	.loc	7 138 5155                      # crypto_pwhash/scryptsalsa208sha256/sse/pwhash_scryptsalsa208sha256_sse.c:138:5155
	movdqa	%xmm9, %xmm8
	paddd	%xmm1, %xmm8
.Ltmp575:
	#DEBUG_VALUE: T <- $xmm8
	.loc	7 138 5230                      # crypto_pwhash/scryptsalsa208sha256/sse/pwhash_scryptsalsa208sha256_sse.c:138:5230
	movdqa	%xmm8, %xmm2
	psrld	$19, %xmm2
	pslld	$13, %xmm8
.Ltmp576:
	por	%xmm2, %xmm8
	pxor	%xmm3, %xmm8
.Ltmp577:
	#DEBUG_VALUE: blockmix_salsa8:X2 <- undef
	.loc	7 138 5582                      # crypto_pwhash/scryptsalsa208sha256/sse/pwhash_scryptsalsa208sha256_sse.c:138:5582
	pshufd	$57, %xmm8, %xmm3               # xmm3 = xmm8[1,2,3,0]
.Ltmp578:
	#DEBUG_VALUE: blockmix_salsa8:X3 <- $xmm8
	.loc	7 138 5293                      # crypto_pwhash/scryptsalsa208sha256/sse/pwhash_scryptsalsa208sha256_sse.c:138:5293
	paddd	%xmm9, %xmm8
.Ltmp579:
	#DEBUG_VALUE: T <- $xmm8
	.loc	7 138 5368                      # crypto_pwhash/scryptsalsa208sha256/sse/pwhash_scryptsalsa208sha256_sse.c:138:5368
	movdqa	%xmm8, %xmm2
	psrld	$14, %xmm2
	pslld	$18, %xmm8
.Ltmp580:
	por	%xmm2, %xmm8
.Ltmp581:
	.loc	7 138 5432                      # crypto_pwhash/scryptsalsa208sha256/sse/pwhash_scryptsalsa208sha256_sse.c:138:5432
	pshufd	$147, %xmm1, %xmm1              # xmm1 = xmm1[3,0,1,2]
.Ltmp582:
	#DEBUG_VALUE: blockmix_salsa8:X1 <- $xmm1
	.loc	7 138 5507                      # crypto_pwhash/scryptsalsa208sha256/sse/pwhash_scryptsalsa208sha256_sse.c:138:5507
	pshufd	$78, %xmm9, %xmm9               # xmm9 = xmm9[2,3,0,1]
.Ltmp583:
	#DEBUG_VALUE: blockmix_salsa8:X2 <- $xmm9
	#DEBUG_VALUE: blockmix_salsa8:X3 <- $xmm3
	.loc	7 138 5656                      # crypto_pwhash/scryptsalsa208sha256/sse/pwhash_scryptsalsa208sha256_sse.c:138:5656
	pxor	%xmm0, %xmm8
	movdqa	%xmm1, %xmm2
	paddd	%xmm8, %xmm2
.Ltmp584:
	#DEBUG_VALUE: T <- $xmm2
	.loc	7 138 5702                      # crypto_pwhash/scryptsalsa208sha256/sse/pwhash_scryptsalsa208sha256_sse.c:138:5702
	movdqa	%xmm2, %xmm0
	pslld	$7, %xmm0
	.loc	7 138 5684                      # crypto_pwhash/scryptsalsa208sha256/sse/pwhash_scryptsalsa208sha256_sse.c:138:5684
	pxor	%xmm3, %xmm0
.Ltmp585:
	#DEBUG_VALUE: blockmix_salsa8:X3 <- $xmm0
	.loc	7 138 5748                      # crypto_pwhash/scryptsalsa208sha256/sse/pwhash_scryptsalsa208sha256_sse.c:138:5748
	psrld	$25, %xmm2
.Ltmp586:
	.loc	7 138 5730                      # crypto_pwhash/scryptsalsa208sha256/sse/pwhash_scryptsalsa208sha256_sse.c:138:5730
	pxor	%xmm0, %xmm2
.Ltmp587:
	#DEBUG_VALUE: blockmix_salsa8:X3 <- $xmm2
	.loc	7 138 5792                      # crypto_pwhash/scryptsalsa208sha256/sse/pwhash_scryptsalsa208sha256_sse.c:138:5792
	movdqa	%xmm2, %xmm3
	paddd	%xmm8, %xmm3
.Ltmp588:
	#DEBUG_VALUE: T <- $xmm3
	.loc	7 138 5838                      # crypto_pwhash/scryptsalsa208sha256/sse/pwhash_scryptsalsa208sha256_sse.c:138:5838
	movdqa	%xmm3, %xmm0
	pslld	$9, %xmm0
	.loc	7 138 5820                      # crypto_pwhash/scryptsalsa208sha256/sse/pwhash_scryptsalsa208sha256_sse.c:138:5820
	pxor	%xmm9, %xmm0
.Ltmp589:
	#DEBUG_VALUE: blockmix_salsa8:X2 <- $xmm0
	.loc	7 138 5884                      # crypto_pwhash/scryptsalsa208sha256/sse/pwhash_scryptsalsa208sha256_sse.c:138:5884
	psrld	$23, %xmm3
.Ltmp590:
	.loc	7 138 5866                      # crypto_pwhash/scryptsalsa208sha256/sse/pwhash_scryptsalsa208sha256_sse.c:138:5866
	pxor	%xmm0, %xmm3
.Ltmp591:
	#DEBUG_VALUE: blockmix_salsa8:X2 <- $xmm3
	.loc	7 138 5928                      # crypto_pwhash/scryptsalsa208sha256/sse/pwhash_scryptsalsa208sha256_sse.c:138:5928
	movdqa	%xmm3, %xmm0
	paddd	%xmm2, %xmm0
.Ltmp592:
	#DEBUG_VALUE: T <- $xmm0
	.loc	7 138 6003                      # crypto_pwhash/scryptsalsa208sha256/sse/pwhash_scryptsalsa208sha256_sse.c:138:6003
	movdqa	%xmm0, %xmm9
	psrld	$19, %xmm9
	pslld	$13, %xmm0
.Ltmp593:
	por	%xmm9, %xmm0
	pxor	%xmm1, %xmm0
.Ltmp594:
	.loc	7 138 6205                      # crypto_pwhash/scryptsalsa208sha256/sse/pwhash_scryptsalsa208sha256_sse.c:138:6205
	pshufd	$57, %xmm0, %xmm1               # xmm1 = xmm0[1,2,3,0]
.Ltmp595:
	#DEBUG_VALUE: blockmix_salsa8:X1 <- $xmm0
	.loc	7 138 6066                      # crypto_pwhash/scryptsalsa208sha256/sse/pwhash_scryptsalsa208sha256_sse.c:138:6066
	paddd	%xmm3, %xmm0
.Ltmp596:
	#DEBUG_VALUE: T <- $xmm0
	.loc	7 138 6141                      # crypto_pwhash/scryptsalsa208sha256/sse/pwhash_scryptsalsa208sha256_sse.c:138:6141
	movdqa	%xmm0, %xmm9
	psrld	$14, %xmm9
	pslld	$18, %xmm0
.Ltmp597:
	por	%xmm9, %xmm0
.Ltmp598:
	#DEBUG_VALUE: blockmix_salsa8:X1 <- $xmm1
	.loc	7 138 6280                      # crypto_pwhash/scryptsalsa208sha256/sse/pwhash_scryptsalsa208sha256_sse.c:138:6280
	pshufd	$78, %xmm3, %xmm3               # xmm3 = xmm3[2,3,0,1]
.Ltmp599:
	#DEBUG_VALUE: blockmix_salsa8:X2 <- $xmm3
	.loc	7 138 6355                      # crypto_pwhash/scryptsalsa208sha256/sse/pwhash_scryptsalsa208sha256_sse.c:138:6355
	pshufd	$147, %xmm2, %xmm2              # xmm2 = xmm2[3,0,1,2]
.Ltmp600:
	#DEBUG_VALUE: blockmix_salsa8:X3 <- $xmm2
	.loc	7 138 6439                      # crypto_pwhash/scryptsalsa208sha256/sse/pwhash_scryptsalsa208sha256_sse.c:138:6439
	pxor	%xmm8, %xmm0
	paddd	%xmm4, %xmm0
.Ltmp601:
	#DEBUG_VALUE: blockmix_salsa8:X0 <- $xmm0
	.loc	7 138 6432                      # crypto_pwhash/scryptsalsa208sha256/sse/pwhash_scryptsalsa208sha256_sse.c:138:6432
	movdqa	%xmm0, 64(%rsi,%r8)
	.loc	7 138 6487                      # crypto_pwhash/scryptsalsa208sha256/sse/pwhash_scryptsalsa208sha256_sse.c:138:6487
	paddd	%xmm5, %xmm1
.Ltmp602:
	#DEBUG_VALUE: blockmix_salsa8:X1 <- $xmm1
	.loc	7 138 6480                      # crypto_pwhash/scryptsalsa208sha256/sse/pwhash_scryptsalsa208sha256_sse.c:138:6480
	movdqa	%xmm1, 80(%rsi,%r8)
	.loc	7 138 6535                      # crypto_pwhash/scryptsalsa208sha256/sse/pwhash_scryptsalsa208sha256_sse.c:138:6535
	paddd	%xmm7, %xmm3
.Ltmp603:
	#DEBUG_VALUE: blockmix_salsa8:X2 <- $xmm3
	.loc	7 138 6528                      # crypto_pwhash/scryptsalsa208sha256/sse/pwhash_scryptsalsa208sha256_sse.c:138:6528
	movdqa	%xmm3, 96(%rsi,%r8)
	.loc	7 138 6583                      # crypto_pwhash/scryptsalsa208sha256/sse/pwhash_scryptsalsa208sha256_sse.c:138:6583
	paddd	%xmm6, %xmm2
.Ltmp604:
	#DEBUG_VALUE: blockmix_salsa8:X3 <- $xmm2
	.loc	7 138 6576                      # crypto_pwhash/scryptsalsa208sha256/sse/pwhash_scryptsalsa208sha256_sse.c:138:6576
	movdqa	%xmm2, 112(%rsi,%r8)
.Ltmp605:
	#DEBUG_VALUE: blockmix_salsa8:X0 <- $xmm0
	#DEBUG_VALUE: blockmix_salsa8:X1 <- $xmm1
	#DEBUG_VALUE: blockmix_salsa8:X2 <- $xmm3
	#DEBUG_VALUE: blockmix_salsa8:X3 <- $xmm2
	.loc	7 127 19 is_stmt 1              # crypto_pwhash/scryptsalsa208sha256/sse/pwhash_scryptsalsa208sha256_sse.c:127:19
	addq	$64, %r8
.Ltmp606:
	cmpq	%r8, %rdx
.Ltmp607:
	.loc	7 127 5 is_stmt 0               # crypto_pwhash/scryptsalsa208sha256/sse/pwhash_scryptsalsa208sha256_sse.c:127:5
	jne	.LBB1_2
.Ltmp608:
.LBB1_3:                                # %._crit_edge
	#DEBUG_VALUE: blockmix_salsa8:Bin <- $rdi
	#DEBUG_VALUE: blockmix_salsa8:Bout <- $rsi
	#DEBUG_VALUE: blockmix_salsa8:r <- $rax
	#DEBUG_VALUE: blockmix_salsa8:X0 <- $xmm0
	#DEBUG_VALUE: blockmix_salsa8:X1 <- $xmm1
	#DEBUG_VALUE: blockmix_salsa8:X2 <- $xmm3
	#DEBUG_VALUE: blockmix_salsa8:X3 <- $xmm2
	.loc	7 144 45 is_stmt 1              # crypto_pwhash/scryptsalsa208sha256/sse/pwhash_scryptsalsa208sha256_sse.c:144:45
	shlq	$7, %rax
.Ltmp609:
	.loc	7 144 25 is_stmt 0              # crypto_pwhash/scryptsalsa208sha256/sse/pwhash_scryptsalsa208sha256_sse.c:144:25
	pxor	64(%rdi,%rax), %xmm0
.Ltmp610:
	#DEBUG_VALUE: blockmix_salsa8:X0 <- $xmm0
	#DEBUG_VALUE: Y0 <- $xmm0
	.loc	7 144 84                        # crypto_pwhash/scryptsalsa208sha256/sse/pwhash_scryptsalsa208sha256_sse.c:144:84
	pxor	80(%rdi,%rax), %xmm1
.Ltmp611:
	#DEBUG_VALUE: blockmix_salsa8:X1 <- $xmm1
	#DEBUG_VALUE: Y1 <- $xmm1
	.loc	7 144 143                       # crypto_pwhash/scryptsalsa208sha256/sse/pwhash_scryptsalsa208sha256_sse.c:144:143
	pxor	96(%rdi,%rax), %xmm3
.Ltmp612:
	#DEBUG_VALUE: blockmix_salsa8:X2 <- $xmm3
	#DEBUG_VALUE: Y2 <- $xmm3
	.loc	7 144 202                       # crypto_pwhash/scryptsalsa208sha256/sse/pwhash_scryptsalsa208sha256_sse.c:144:202
	pxor	112(%rdi,%rax), %xmm2
.Ltmp613:
	#DEBUG_VALUE: blockmix_salsa8:X3 <- $xmm2
	#DEBUG_VALUE: Y3 <- $xmm2
	.loc	7 144 257                       # crypto_pwhash/scryptsalsa208sha256/sse/pwhash_scryptsalsa208sha256_sse.c:144:257
	movdqa	%xmm2, %xmm5
	paddd	%xmm0, %xmm5
.Ltmp614:
	#DEBUG_VALUE: blockmix_salsa8:X1 <- [DW_OP_LLVM_arg 0, DW_OP_LLVM_arg 0, DW_OP_LLVM_arg 0, DW_OP_shl, DW_OP_xor, DW_OP_stack_value] undef
	#DEBUG_VALUE: T <- $xmm5
	.loc	7 144 331                       # crypto_pwhash/scryptsalsa208sha256/sse/pwhash_scryptsalsa208sha256_sse.c:144:331
	movdqa	%xmm5, %xmm4
	psrld	$25, %xmm4
	pslld	$7, %xmm5
.Ltmp615:
	por	%xmm4, %xmm5
.Ltmp616:
	#DEBUG_VALUE: blockmix_salsa8:X1 <- undef
	.loc	7 144 393                       # crypto_pwhash/scryptsalsa208sha256/sse/pwhash_scryptsalsa208sha256_sse.c:144:393
	pxor	%xmm1, %xmm5
	movdqa	%xmm5, %xmm6
	paddd	%xmm0, %xmm6
.Ltmp617:
	#DEBUG_VALUE: blockmix_salsa8:X2 <- [DW_OP_LLVM_arg 0, DW_OP_LLVM_arg 0, DW_OP_LLVM_arg 0, DW_OP_shl, DW_OP_xor, DW_OP_stack_value] undef
	#DEBUG_VALUE: T <- $xmm6
	.loc	7 144 467                       # crypto_pwhash/scryptsalsa208sha256/sse/pwhash_scryptsalsa208sha256_sse.c:144:467
	movdqa	%xmm6, %xmm4
	psrld	$23, %xmm4
	pslld	$9, %xmm6
.Ltmp618:
	por	%xmm4, %xmm6
.Ltmp619:
	#DEBUG_VALUE: blockmix_salsa8:X2 <- undef
	.loc	7 144 529                       # crypto_pwhash/scryptsalsa208sha256/sse/pwhash_scryptsalsa208sha256_sse.c:144:529
	pxor	%xmm3, %xmm6
	movdqa	%xmm6, %xmm4
	paddd	%xmm5, %xmm4
.Ltmp620:
	#DEBUG_VALUE: blockmix_salsa8:X3 <- [DW_OP_LLVM_arg 0, DW_OP_LLVM_arg 0, DW_OP_LLVM_arg 0, DW_OP_shl, DW_OP_xor, DW_OP_stack_value] undef
	#DEBUG_VALUE: T <- $xmm4
	.loc	7 144 604                       # crypto_pwhash/scryptsalsa208sha256/sse/pwhash_scryptsalsa208sha256_sse.c:144:604
	movdqa	%xmm4, %xmm7
	psrld	$19, %xmm7
	pslld	$13, %xmm4
.Ltmp621:
	por	%xmm7, %xmm4
.Ltmp622:
	#DEBUG_VALUE: blockmix_salsa8:X3 <- undef
	.loc	7 144 667                       # crypto_pwhash/scryptsalsa208sha256/sse/pwhash_scryptsalsa208sha256_sse.c:144:667
	pxor	%xmm2, %xmm4
.Ltmp623:
	#DEBUG_VALUE: blockmix_salsa8:X2 <- undef
	.loc	7 144 956                       # crypto_pwhash/scryptsalsa208sha256/sse/pwhash_scryptsalsa208sha256_sse.c:144:956
	pshufd	$57, %xmm4, %xmm7               # xmm7 = xmm4[1,2,3,0]
.Ltmp624:
	.loc	7 144 667                       # crypto_pwhash/scryptsalsa208sha256/sse/pwhash_scryptsalsa208sha256_sse.c:144:667
	paddd	%xmm6, %xmm4
.Ltmp625:
	#DEBUG_VALUE: blockmix_salsa8:X0 <- [DW_OP_LLVM_arg 0, DW_OP_LLVM_arg 0, DW_OP_LLVM_arg 0, DW_OP_shl, DW_OP_xor, DW_OP_stack_value] undef
	#DEBUG_VALUE: T <- $xmm4
	.loc	7 144 742                       # crypto_pwhash/scryptsalsa208sha256/sse/pwhash_scryptsalsa208sha256_sse.c:144:742
	movdqa	%xmm4, %xmm8
	psrld	$14, %xmm8
	pslld	$18, %xmm4
.Ltmp626:
	por	%xmm8, %xmm4
	pxor	%xmm0, %xmm4
.Ltmp627:
	#DEBUG_VALUE: blockmix_salsa8:X0 <- undef
	.loc	7 144 806                       # crypto_pwhash/scryptsalsa208sha256/sse/pwhash_scryptsalsa208sha256_sse.c:144:806
	pshufd	$147, %xmm5, %xmm8              # xmm8 = xmm5[3,0,1,2]
.Ltmp628:
	#DEBUG_VALUE: blockmix_salsa8:X1 <- $xmm8
	.loc	7 144 881                       # crypto_pwhash/scryptsalsa208sha256/sse/pwhash_scryptsalsa208sha256_sse.c:144:881
	pshufd	$78, %xmm6, %xmm5               # xmm5 = xmm6[2,3,0,1]
.Ltmp629:
	#DEBUG_VALUE: blockmix_salsa8:X2 <- $xmm5
	#DEBUG_VALUE: blockmix_salsa8:X3 <- $xmm7
	.loc	7 144 1030                      # crypto_pwhash/scryptsalsa208sha256/sse/pwhash_scryptsalsa208sha256_sse.c:144:1030
	movdqa	%xmm8, %xmm6
	paddd	%xmm4, %xmm6
.Ltmp630:
	#DEBUG_VALUE: T <- $xmm6
	.loc	7 144 1076                      # crypto_pwhash/scryptsalsa208sha256/sse/pwhash_scryptsalsa208sha256_sse.c:144:1076
	movdqa	%xmm6, %xmm9
	pslld	$7, %xmm9
	.loc	7 144 1058                      # crypto_pwhash/scryptsalsa208sha256/sse/pwhash_scryptsalsa208sha256_sse.c:144:1058
	pxor	%xmm7, %xmm9
.Ltmp631:
	#DEBUG_VALUE: blockmix_salsa8:X3 <- $xmm9
	.loc	7 144 1122                      # crypto_pwhash/scryptsalsa208sha256/sse/pwhash_scryptsalsa208sha256_sse.c:144:1122
	psrld	$25, %xmm6
.Ltmp632:
	.loc	7 144 1104                      # crypto_pwhash/scryptsalsa208sha256/sse/pwhash_scryptsalsa208sha256_sse.c:144:1104
	pxor	%xmm9, %xmm6
.Ltmp633:
	#DEBUG_VALUE: blockmix_salsa8:X3 <- $xmm6
	.loc	7 144 1166                      # crypto_pwhash/scryptsalsa208sha256/sse/pwhash_scryptsalsa208sha256_sse.c:144:1166
	movdqa	%xmm6, %xmm7
	paddd	%xmm4, %xmm7
.Ltmp634:
	#DEBUG_VALUE: T <- $xmm7
	.loc	7 144 1212                      # crypto_pwhash/scryptsalsa208sha256/sse/pwhash_scryptsalsa208sha256_sse.c:144:1212
	movdqa	%xmm7, %xmm9
	pslld	$9, %xmm9
	.loc	7 144 1194                      # crypto_pwhash/scryptsalsa208sha256/sse/pwhash_scryptsalsa208sha256_sse.c:144:1194
	pxor	%xmm5, %xmm9
.Ltmp635:
	#DEBUG_VALUE: blockmix_salsa8:X2 <- $xmm9
	.loc	7 144 1258                      # crypto_pwhash/scryptsalsa208sha256/sse/pwhash_scryptsalsa208sha256_sse.c:144:1258
	psrld	$23, %xmm7
.Ltmp636:
	.loc	7 144 1240                      # crypto_pwhash/scryptsalsa208sha256/sse/pwhash_scryptsalsa208sha256_sse.c:144:1240
	pxor	%xmm9, %xmm7
.Ltmp637:
	#DEBUG_VALUE: blockmix_salsa8:X2 <- $xmm7
	.loc	7 144 1302                      # crypto_pwhash/scryptsalsa208sha256/sse/pwhash_scryptsalsa208sha256_sse.c:144:1302
	movdqa	%xmm7, %xmm5
	paddd	%xmm6, %xmm5
.Ltmp638:
	#DEBUG_VALUE: T <- $xmm5
	.loc	7 144 1377                      # crypto_pwhash/scryptsalsa208sha256/sse/pwhash_scryptsalsa208sha256_sse.c:144:1377
	movdqa	%xmm5, %xmm9
	psrld	$19, %xmm9
	pslld	$13, %xmm5
.Ltmp639:
	por	%xmm9, %xmm5
	pxor	%xmm8, %xmm5
.Ltmp640:
	.loc	7 144 1579                      # crypto_pwhash/scryptsalsa208sha256/sse/pwhash_scryptsalsa208sha256_sse.c:144:1579
	pshufd	$57, %xmm5, %xmm8               # xmm8 = xmm5[1,2,3,0]
.Ltmp641:
	#DEBUG_VALUE: blockmix_salsa8:X1 <- $xmm5
	.loc	7 144 1440                      # crypto_pwhash/scryptsalsa208sha256/sse/pwhash_scryptsalsa208sha256_sse.c:144:1440
	paddd	%xmm7, %xmm5
.Ltmp642:
	#DEBUG_VALUE: T <- $xmm5
	.loc	7 144 1515                      # crypto_pwhash/scryptsalsa208sha256/sse/pwhash_scryptsalsa208sha256_sse.c:144:1515
	movdqa	%xmm5, %xmm9
	psrld	$14, %xmm9
	pslld	$18, %xmm5
.Ltmp643:
	por	%xmm9, %xmm5
	pxor	%xmm4, %xmm5
.Ltmp644:
	#DEBUG_VALUE: blockmix_salsa8:X1 <- $xmm8
	.loc	7 144 1654                      # crypto_pwhash/scryptsalsa208sha256/sse/pwhash_scryptsalsa208sha256_sse.c:144:1654
	pshufd	$78, %xmm7, %xmm4               # xmm4 = xmm7[2,3,0,1]
.Ltmp645:
	#DEBUG_VALUE: blockmix_salsa8:X2 <- $xmm4
	.loc	7 144 1729                      # crypto_pwhash/scryptsalsa208sha256/sse/pwhash_scryptsalsa208sha256_sse.c:144:1729
	pshufd	$147, %xmm6, %xmm7              # xmm7 = xmm6[3,0,1,2]
.Ltmp646:
	#DEBUG_VALUE: blockmix_salsa8:X3 <- $xmm7
	.loc	7 144 1803                      # crypto_pwhash/scryptsalsa208sha256/sse/pwhash_scryptsalsa208sha256_sse.c:144:1803
	movdqa	%xmm7, %xmm6
	paddd	%xmm5, %xmm6
.Ltmp647:
	#DEBUG_VALUE: T <- $xmm6
	.loc	7 144 1849                      # crypto_pwhash/scryptsalsa208sha256/sse/pwhash_scryptsalsa208sha256_sse.c:144:1849
	movdqa	%xmm6, %xmm9
	pslld	$7, %xmm9
	.loc	7 144 1831                      # crypto_pwhash/scryptsalsa208sha256/sse/pwhash_scryptsalsa208sha256_sse.c:144:1831
	pxor	%xmm8, %xmm9
.Ltmp648:
	#DEBUG_VALUE: blockmix_salsa8:X1 <- $xmm9
	.loc	7 144 1895                      # crypto_pwhash/scryptsalsa208sha256/sse/pwhash_scryptsalsa208sha256_sse.c:144:1895
	psrld	$25, %xmm6
.Ltmp649:
	.loc	7 144 1877                      # crypto_pwhash/scryptsalsa208sha256/sse/pwhash_scryptsalsa208sha256_sse.c:144:1877
	pxor	%xmm9, %xmm6
.Ltmp650:
	#DEBUG_VALUE: blockmix_salsa8:X1 <- $xmm6
	.loc	7 144 1939                      # crypto_pwhash/scryptsalsa208sha256/sse/pwhash_scryptsalsa208sha256_sse.c:144:1939
	movdqa	%xmm6, %xmm8
	paddd	%xmm5, %xmm8
.Ltmp651:
	#DEBUG_VALUE: T <- $xmm8
	.loc	7 144 1985                      # crypto_pwhash/scryptsalsa208sha256/sse/pwhash_scryptsalsa208sha256_sse.c:144:1985
	movdqa	%xmm8, %xmm9
	pslld	$9, %xmm9
	.loc	7 144 1967                      # crypto_pwhash/scryptsalsa208sha256/sse/pwhash_scryptsalsa208sha256_sse.c:144:1967
	pxor	%xmm4, %xmm9
.Ltmp652:
	#DEBUG_VALUE: blockmix_salsa8:X2 <- $xmm9
	.loc	7 144 2031                      # crypto_pwhash/scryptsalsa208sha256/sse/pwhash_scryptsalsa208sha256_sse.c:144:2031
	psrld	$23, %xmm8
.Ltmp653:
	.loc	7 144 2013                      # crypto_pwhash/scryptsalsa208sha256/sse/pwhash_scryptsalsa208sha256_sse.c:144:2013
	pxor	%xmm9, %xmm8
.Ltmp654:
	#DEBUG_VALUE: blockmix_salsa8:X2 <- $xmm8
	.loc	7 144 2075                      # crypto_pwhash/scryptsalsa208sha256/sse/pwhash_scryptsalsa208sha256_sse.c:144:2075
	movdqa	%xmm8, %xmm4
	paddd	%xmm6, %xmm4
.Ltmp655:
	#DEBUG_VALUE: T <- $xmm4
	.loc	7 144 2150                      # crypto_pwhash/scryptsalsa208sha256/sse/pwhash_scryptsalsa208sha256_sse.c:144:2150
	movdqa	%xmm4, %xmm9
	psrld	$19, %xmm9
	pslld	$13, %xmm4
.Ltmp656:
	por	%xmm9, %xmm4
	pxor	%xmm7, %xmm4
.Ltmp657:
	#DEBUG_VALUE: blockmix_salsa8:X2 <- undef
	.loc	7 144 2502                      # crypto_pwhash/scryptsalsa208sha256/sse/pwhash_scryptsalsa208sha256_sse.c:144:2502
	pshufd	$57, %xmm4, %xmm7               # xmm7 = xmm4[1,2,3,0]
.Ltmp658:
	#DEBUG_VALUE: blockmix_salsa8:X3 <- $xmm4
	.loc	7 144 2213                      # crypto_pwhash/scryptsalsa208sha256/sse/pwhash_scryptsalsa208sha256_sse.c:144:2213
	paddd	%xmm8, %xmm4
.Ltmp659:
	#DEBUG_VALUE: T <- $xmm4
	.loc	7 144 2288                      # crypto_pwhash/scryptsalsa208sha256/sse/pwhash_scryptsalsa208sha256_sse.c:144:2288
	movdqa	%xmm4, %xmm9
	psrld	$14, %xmm9
	pslld	$18, %xmm4
.Ltmp660:
	por	%xmm9, %xmm4
	pxor	%xmm5, %xmm4
.Ltmp661:
	.loc	7 144 2352                      # crypto_pwhash/scryptsalsa208sha256/sse/pwhash_scryptsalsa208sha256_sse.c:144:2352
	pshufd	$147, %xmm6, %xmm9              # xmm9 = xmm6[3,0,1,2]
.Ltmp662:
	#DEBUG_VALUE: blockmix_salsa8:X1 <- $xmm9
	.loc	7 144 2427                      # crypto_pwhash/scryptsalsa208sha256/sse/pwhash_scryptsalsa208sha256_sse.c:144:2427
	pshufd	$78, %xmm8, %xmm5               # xmm5 = xmm8[2,3,0,1]
.Ltmp663:
	#DEBUG_VALUE: blockmix_salsa8:X2 <- $xmm5
	#DEBUG_VALUE: blockmix_salsa8:X3 <- $xmm7
	.loc	7 144 2576                      # crypto_pwhash/scryptsalsa208sha256/sse/pwhash_scryptsalsa208sha256_sse.c:144:2576
	movdqa	%xmm9, %xmm6
	paddd	%xmm4, %xmm6
.Ltmp664:
	#DEBUG_VALUE: T <- $xmm6
	.loc	7 144 2622                      # crypto_pwhash/scryptsalsa208sha256/sse/pwhash_scryptsalsa208sha256_sse.c:144:2622
	movdqa	%xmm6, %xmm8
	pslld	$7, %xmm8
	.loc	7 144 2604                      # crypto_pwhash/scryptsalsa208sha256/sse/pwhash_scryptsalsa208sha256_sse.c:144:2604
	pxor	%xmm7, %xmm8
.Ltmp665:
	#DEBUG_VALUE: blockmix_salsa8:X3 <- $xmm8
	.loc	7 144 2668                      # crypto_pwhash/scryptsalsa208sha256/sse/pwhash_scryptsalsa208sha256_sse.c:144:2668
	psrld	$25, %xmm6
.Ltmp666:
	.loc	7 144 2650                      # crypto_pwhash/scryptsalsa208sha256/sse/pwhash_scryptsalsa208sha256_sse.c:144:2650
	pxor	%xmm8, %xmm6
.Ltmp667:
	#DEBUG_VALUE: blockmix_salsa8:X3 <- $xmm6
	.loc	7 144 2712                      # crypto_pwhash/scryptsalsa208sha256/sse/pwhash_scryptsalsa208sha256_sse.c:144:2712
	movdqa	%xmm6, %xmm7
	paddd	%xmm4, %xmm7
.Ltmp668:
	#DEBUG_VALUE: T <- $xmm7
	.loc	7 144 2758                      # crypto_pwhash/scryptsalsa208sha256/sse/pwhash_scryptsalsa208sha256_sse.c:144:2758
	movdqa	%xmm7, %xmm8
	pslld	$9, %xmm8
	.loc	7 144 2740                      # crypto_pwhash/scryptsalsa208sha256/sse/pwhash_scryptsalsa208sha256_sse.c:144:2740
	pxor	%xmm5, %xmm8
.Ltmp669:
	#DEBUG_VALUE: blockmix_salsa8:X2 <- $xmm8
	.loc	7 144 2804                      # crypto_pwhash/scryptsalsa208sha256/sse/pwhash_scryptsalsa208sha256_sse.c:144:2804
	psrld	$23, %xmm7
.Ltmp670:
	.loc	7 144 2786                      # crypto_pwhash/scryptsalsa208sha256/sse/pwhash_scryptsalsa208sha256_sse.c:144:2786
	pxor	%xmm8, %xmm7
.Ltmp671:
	#DEBUG_VALUE: blockmix_salsa8:X2 <- $xmm7
	.loc	7 144 2848                      # crypto_pwhash/scryptsalsa208sha256/sse/pwhash_scryptsalsa208sha256_sse.c:144:2848
	movdqa	%xmm7, %xmm5
	paddd	%xmm6, %xmm5
.Ltmp672:
	#DEBUG_VALUE: T <- $xmm5
	.loc	7 144 2923                      # crypto_pwhash/scryptsalsa208sha256/sse/pwhash_scryptsalsa208sha256_sse.c:144:2923
	movdqa	%xmm5, %xmm8
	psrld	$19, %xmm8
	pslld	$13, %xmm5
.Ltmp673:
	por	%xmm8, %xmm5
	pxor	%xmm9, %xmm5
.Ltmp674:
	.loc	7 144 3125                      # crypto_pwhash/scryptsalsa208sha256/sse/pwhash_scryptsalsa208sha256_sse.c:144:3125
	pshufd	$57, %xmm5, %xmm8               # xmm8 = xmm5[1,2,3,0]
.Ltmp675:
	#DEBUG_VALUE: blockmix_salsa8:X1 <- $xmm5
	.loc	7 144 2986                      # crypto_pwhash/scryptsalsa208sha256/sse/pwhash_scryptsalsa208sha256_sse.c:144:2986
	paddd	%xmm7, %xmm5
.Ltmp676:
	#DEBUG_VALUE: T <- $xmm5
	.loc	7 144 3061                      # crypto_pwhash/scryptsalsa208sha256/sse/pwhash_scryptsalsa208sha256_sse.c:144:3061
	movdqa	%xmm5, %xmm9
	psrld	$14, %xmm9
	pslld	$18, %xmm5
.Ltmp677:
	por	%xmm9, %xmm5
	pxor	%xmm4, %xmm5
.Ltmp678:
	#DEBUG_VALUE: blockmix_salsa8:X1 <- $xmm8
	.loc	7 144 3200                      # crypto_pwhash/scryptsalsa208sha256/sse/pwhash_scryptsalsa208sha256_sse.c:144:3200
	pshufd	$78, %xmm7, %xmm7               # xmm7 = xmm7[2,3,0,1]
.Ltmp679:
	#DEBUG_VALUE: blockmix_salsa8:X2 <- $xmm7
	.loc	7 144 3275                      # crypto_pwhash/scryptsalsa208sha256/sse/pwhash_scryptsalsa208sha256_sse.c:144:3275
	pshufd	$147, %xmm6, %xmm9              # xmm9 = xmm6[3,0,1,2]
.Ltmp680:
	#DEBUG_VALUE: blockmix_salsa8:X3 <- $xmm9
	.loc	7 144 3349                      # crypto_pwhash/scryptsalsa208sha256/sse/pwhash_scryptsalsa208sha256_sse.c:144:3349
	movdqa	%xmm9, %xmm4
	paddd	%xmm5, %xmm4
.Ltmp681:
	#DEBUG_VALUE: T <- $xmm4
	.loc	7 144 3395                      # crypto_pwhash/scryptsalsa208sha256/sse/pwhash_scryptsalsa208sha256_sse.c:144:3395
	movdqa	%xmm4, %xmm6
	pslld	$7, %xmm6
	.loc	7 144 3377                      # crypto_pwhash/scryptsalsa208sha256/sse/pwhash_scryptsalsa208sha256_sse.c:144:3377
	pxor	%xmm8, %xmm6
.Ltmp682:
	#DEBUG_VALUE: blockmix_salsa8:X1 <- $xmm6
	.loc	7 144 3441                      # crypto_pwhash/scryptsalsa208sha256/sse/pwhash_scryptsalsa208sha256_sse.c:144:3441
	psrld	$25, %xmm4
.Ltmp683:
	.loc	7 144 3423                      # crypto_pwhash/scryptsalsa208sha256/sse/pwhash_scryptsalsa208sha256_sse.c:144:3423
	pxor	%xmm6, %xmm4
.Ltmp684:
	#DEBUG_VALUE: blockmix_salsa8:X1 <- $xmm4
	.loc	7 144 3485                      # crypto_pwhash/scryptsalsa208sha256/sse/pwhash_scryptsalsa208sha256_sse.c:144:3485
	movdqa	%xmm4, %xmm8
	paddd	%xmm5, %xmm8
.Ltmp685:
	#DEBUG_VALUE: T <- $xmm8
	.loc	7 144 3531                      # crypto_pwhash/scryptsalsa208sha256/sse/pwhash_scryptsalsa208sha256_sse.c:144:3531
	movdqa	%xmm8, %xmm6
	pslld	$9, %xmm6
	.loc	7 144 3513                      # crypto_pwhash/scryptsalsa208sha256/sse/pwhash_scryptsalsa208sha256_sse.c:144:3513
	pxor	%xmm7, %xmm6
.Ltmp686:
	#DEBUG_VALUE: blockmix_salsa8:X2 <- $xmm6
	.loc	7 144 3577                      # crypto_pwhash/scryptsalsa208sha256/sse/pwhash_scryptsalsa208sha256_sse.c:144:3577
	psrld	$23, %xmm8
.Ltmp687:
	.loc	7 144 3559                      # crypto_pwhash/scryptsalsa208sha256/sse/pwhash_scryptsalsa208sha256_sse.c:144:3559
	pxor	%xmm6, %xmm8
.Ltmp688:
	#DEBUG_VALUE: blockmix_salsa8:X2 <- $xmm8
	.loc	7 144 3621                      # crypto_pwhash/scryptsalsa208sha256/sse/pwhash_scryptsalsa208sha256_sse.c:144:3621
	movdqa	%xmm8, %xmm6
	paddd	%xmm4, %xmm6
.Ltmp689:
	#DEBUG_VALUE: T <- $xmm6
	.loc	7 144 3696                      # crypto_pwhash/scryptsalsa208sha256/sse/pwhash_scryptsalsa208sha256_sse.c:144:3696
	movdqa	%xmm6, %xmm7
	psrld	$19, %xmm7
	pslld	$13, %xmm6
.Ltmp690:
	por	%xmm7, %xmm6
	pxor	%xmm9, %xmm6
.Ltmp691:
	#DEBUG_VALUE: blockmix_salsa8:X2 <- undef
	.loc	7 144 4048                      # crypto_pwhash/scryptsalsa208sha256/sse/pwhash_scryptsalsa208sha256_sse.c:144:4048
	pshufd	$57, %xmm6, %xmm7               # xmm7 = xmm6[1,2,3,0]
.Ltmp692:
	#DEBUG_VALUE: blockmix_salsa8:X3 <- $xmm6
	.loc	7 144 3759                      # crypto_pwhash/scryptsalsa208sha256/sse/pwhash_scryptsalsa208sha256_sse.c:144:3759
	paddd	%xmm8, %xmm6
.Ltmp693:
	#DEBUG_VALUE: T <- $xmm6
	.loc	7 144 3834                      # crypto_pwhash/scryptsalsa208sha256/sse/pwhash_scryptsalsa208sha256_sse.c:144:3834
	movdqa	%xmm6, %xmm9
	psrld	$14, %xmm9
	pslld	$18, %xmm6
.Ltmp694:
	por	%xmm9, %xmm6
	pxor	%xmm5, %xmm6
.Ltmp695:
	.loc	7 144 3898                      # crypto_pwhash/scryptsalsa208sha256/sse/pwhash_scryptsalsa208sha256_sse.c:144:3898
	pshufd	$147, %xmm4, %xmm9              # xmm9 = xmm4[3,0,1,2]
.Ltmp696:
	#DEBUG_VALUE: blockmix_salsa8:X1 <- $xmm9
	.loc	7 144 3973                      # crypto_pwhash/scryptsalsa208sha256/sse/pwhash_scryptsalsa208sha256_sse.c:144:3973
	pshufd	$78, %xmm8, %xmm4               # xmm4 = xmm8[2,3,0,1]
.Ltmp697:
	#DEBUG_VALUE: blockmix_salsa8:X2 <- $xmm4
	#DEBUG_VALUE: blockmix_salsa8:X3 <- $xmm7
	.loc	7 144 4122                      # crypto_pwhash/scryptsalsa208sha256/sse/pwhash_scryptsalsa208sha256_sse.c:144:4122
	movdqa	%xmm9, %xmm5
	paddd	%xmm6, %xmm5
.Ltmp698:
	#DEBUG_VALUE: T <- $xmm5
	.loc	7 144 4168                      # crypto_pwhash/scryptsalsa208sha256/sse/pwhash_scryptsalsa208sha256_sse.c:144:4168
	movdqa	%xmm5, %xmm8
	pslld	$7, %xmm8
	.loc	7 144 4150                      # crypto_pwhash/scryptsalsa208sha256/sse/pwhash_scryptsalsa208sha256_sse.c:144:4150
	pxor	%xmm7, %xmm8
.Ltmp699:
	#DEBUG_VALUE: blockmix_salsa8:X3 <- $xmm8
	.loc	7 144 4214                      # crypto_pwhash/scryptsalsa208sha256/sse/pwhash_scryptsalsa208sha256_sse.c:144:4214
	psrld	$25, %xmm5
.Ltmp700:
	.loc	7 144 4196                      # crypto_pwhash/scryptsalsa208sha256/sse/pwhash_scryptsalsa208sha256_sse.c:144:4196
	pxor	%xmm8, %xmm5
.Ltmp701:
	#DEBUG_VALUE: blockmix_salsa8:X3 <- $xmm5
	.loc	7 144 4258                      # crypto_pwhash/scryptsalsa208sha256/sse/pwhash_scryptsalsa208sha256_sse.c:144:4258
	movdqa	%xmm5, %xmm7
	paddd	%xmm6, %xmm7
.Ltmp702:
	#DEBUG_VALUE: T <- $xmm7
	.loc	7 144 4304                      # crypto_pwhash/scryptsalsa208sha256/sse/pwhash_scryptsalsa208sha256_sse.c:144:4304
	movdqa	%xmm7, %xmm8
	pslld	$9, %xmm8
	.loc	7 144 4286                      # crypto_pwhash/scryptsalsa208sha256/sse/pwhash_scryptsalsa208sha256_sse.c:144:4286
	pxor	%xmm4, %xmm8
.Ltmp703:
	#DEBUG_VALUE: blockmix_salsa8:X2 <- $xmm8
	.loc	7 144 4350                      # crypto_pwhash/scryptsalsa208sha256/sse/pwhash_scryptsalsa208sha256_sse.c:144:4350
	psrld	$23, %xmm7
.Ltmp704:
	.loc	7 144 4332                      # crypto_pwhash/scryptsalsa208sha256/sse/pwhash_scryptsalsa208sha256_sse.c:144:4332
	pxor	%xmm8, %xmm7
.Ltmp705:
	#DEBUG_VALUE: blockmix_salsa8:X2 <- $xmm7
	.loc	7 144 4394                      # crypto_pwhash/scryptsalsa208sha256/sse/pwhash_scryptsalsa208sha256_sse.c:144:4394
	movdqa	%xmm7, %xmm4
	paddd	%xmm5, %xmm4
.Ltmp706:
	#DEBUG_VALUE: T <- $xmm4
	.loc	7 144 4469                      # crypto_pwhash/scryptsalsa208sha256/sse/pwhash_scryptsalsa208sha256_sse.c:144:4469
	movdqa	%xmm4, %xmm8
	psrld	$19, %xmm8
	pslld	$13, %xmm4
.Ltmp707:
	por	%xmm8, %xmm4
	pxor	%xmm9, %xmm4
.Ltmp708:
	.loc	7 144 4671                      # crypto_pwhash/scryptsalsa208sha256/sse/pwhash_scryptsalsa208sha256_sse.c:144:4671
	pshufd	$57, %xmm4, %xmm8               # xmm8 = xmm4[1,2,3,0]
.Ltmp709:
	#DEBUG_VALUE: blockmix_salsa8:X1 <- $xmm4
	.loc	7 144 4532                      # crypto_pwhash/scryptsalsa208sha256/sse/pwhash_scryptsalsa208sha256_sse.c:144:4532
	paddd	%xmm7, %xmm4
.Ltmp710:
	#DEBUG_VALUE: T <- $xmm4
	.loc	7 144 4607                      # crypto_pwhash/scryptsalsa208sha256/sse/pwhash_scryptsalsa208sha256_sse.c:144:4607
	movdqa	%xmm4, %xmm9
	psrld	$14, %xmm9
	pslld	$18, %xmm4
.Ltmp711:
	por	%xmm9, %xmm4
	pxor	%xmm6, %xmm4
.Ltmp712:
	#DEBUG_VALUE: blockmix_salsa8:X1 <- $xmm8
	.loc	7 144 4746                      # crypto_pwhash/scryptsalsa208sha256/sse/pwhash_scryptsalsa208sha256_sse.c:144:4746
	pshufd	$78, %xmm7, %xmm7               # xmm7 = xmm7[2,3,0,1]
.Ltmp713:
	#DEBUG_VALUE: blockmix_salsa8:X2 <- $xmm7
	.loc	7 144 4821                      # crypto_pwhash/scryptsalsa208sha256/sse/pwhash_scryptsalsa208sha256_sse.c:144:4821
	pshufd	$147, %xmm5, %xmm9              # xmm9 = xmm5[3,0,1,2]
.Ltmp714:
	#DEBUG_VALUE: blockmix_salsa8:X3 <- $xmm9
	.loc	7 144 4895                      # crypto_pwhash/scryptsalsa208sha256/sse/pwhash_scryptsalsa208sha256_sse.c:144:4895
	movdqa	%xmm9, %xmm6
	paddd	%xmm4, %xmm6
.Ltmp715:
	#DEBUG_VALUE: T <- $xmm6
	.loc	7 144 4941                      # crypto_pwhash/scryptsalsa208sha256/sse/pwhash_scryptsalsa208sha256_sse.c:144:4941
	movdqa	%xmm6, %xmm5
	pslld	$7, %xmm5
	.loc	7 144 4923                      # crypto_pwhash/scryptsalsa208sha256/sse/pwhash_scryptsalsa208sha256_sse.c:144:4923
	pxor	%xmm8, %xmm5
.Ltmp716:
	#DEBUG_VALUE: blockmix_salsa8:X1 <- $xmm5
	.loc	7 144 4987                      # crypto_pwhash/scryptsalsa208sha256/sse/pwhash_scryptsalsa208sha256_sse.c:144:4987
	psrld	$25, %xmm6
.Ltmp717:
	.loc	7 144 4969                      # crypto_pwhash/scryptsalsa208sha256/sse/pwhash_scryptsalsa208sha256_sse.c:144:4969
	pxor	%xmm5, %xmm6
.Ltmp718:
	#DEBUG_VALUE: blockmix_salsa8:X1 <- $xmm6
	.loc	7 144 5031                      # crypto_pwhash/scryptsalsa208sha256/sse/pwhash_scryptsalsa208sha256_sse.c:144:5031
	movdqa	%xmm6, %xmm8
	paddd	%xmm4, %xmm8
.Ltmp719:
	#DEBUG_VALUE: T <- $xmm8
	.loc	7 144 5077                      # crypto_pwhash/scryptsalsa208sha256/sse/pwhash_scryptsalsa208sha256_sse.c:144:5077
	movdqa	%xmm8, %xmm5
	pslld	$9, %xmm5
	.loc	7 144 5059                      # crypto_pwhash/scryptsalsa208sha256/sse/pwhash_scryptsalsa208sha256_sse.c:144:5059
	pxor	%xmm7, %xmm5
.Ltmp720:
	#DEBUG_VALUE: blockmix_salsa8:X2 <- $xmm5
	.loc	7 144 5123                      # crypto_pwhash/scryptsalsa208sha256/sse/pwhash_scryptsalsa208sha256_sse.c:144:5123
	psrld	$23, %xmm8
.Ltmp721:
	.loc	7 144 5105                      # crypto_pwhash/scryptsalsa208sha256/sse/pwhash_scryptsalsa208sha256_sse.c:144:5105
	pxor	%xmm5, %xmm8
.Ltmp722:
	#DEBUG_VALUE: blockmix_salsa8:X2 <- $xmm8
	.loc	7 144 5167                      # crypto_pwhash/scryptsalsa208sha256/sse/pwhash_scryptsalsa208sha256_sse.c:144:5167
	movdqa	%xmm8, %xmm5
	paddd	%xmm6, %xmm5
.Ltmp723:
	#DEBUG_VALUE: T <- $xmm5
	.loc	7 144 5242                      # crypto_pwhash/scryptsalsa208sha256/sse/pwhash_scryptsalsa208sha256_sse.c:144:5242
	movdqa	%xmm5, %xmm7
	psrld	$19, %xmm7
	pslld	$13, %xmm5
.Ltmp724:
	por	%xmm7, %xmm5
	pxor	%xmm9, %xmm5
.Ltmp725:
	#DEBUG_VALUE: blockmix_salsa8:X2 <- undef
	.loc	7 144 5594                      # crypto_pwhash/scryptsalsa208sha256/sse/pwhash_scryptsalsa208sha256_sse.c:144:5594
	pshufd	$57, %xmm5, %xmm7               # xmm7 = xmm5[1,2,3,0]
.Ltmp726:
	#DEBUG_VALUE: blockmix_salsa8:X3 <- $xmm5
	.loc	7 144 5305                      # crypto_pwhash/scryptsalsa208sha256/sse/pwhash_scryptsalsa208sha256_sse.c:144:5305
	paddd	%xmm8, %xmm5
.Ltmp727:
	#DEBUG_VALUE: T <- $xmm5
	.loc	7 144 5380                      # crypto_pwhash/scryptsalsa208sha256/sse/pwhash_scryptsalsa208sha256_sse.c:144:5380
	movdqa	%xmm5, %xmm9
	psrld	$14, %xmm9
	pslld	$18, %xmm5
.Ltmp728:
	por	%xmm9, %xmm5
.Ltmp729:
	.loc	7 144 5444                      # crypto_pwhash/scryptsalsa208sha256/sse/pwhash_scryptsalsa208sha256_sse.c:144:5444
	pshufd	$147, %xmm6, %xmm6              # xmm6 = xmm6[3,0,1,2]
.Ltmp730:
	#DEBUG_VALUE: blockmix_salsa8:X1 <- $xmm6
	.loc	7 144 5519                      # crypto_pwhash/scryptsalsa208sha256/sse/pwhash_scryptsalsa208sha256_sse.c:144:5519
	pshufd	$78, %xmm8, %xmm8               # xmm8 = xmm8[2,3,0,1]
.Ltmp731:
	#DEBUG_VALUE: blockmix_salsa8:X2 <- $xmm8
	#DEBUG_VALUE: blockmix_salsa8:X3 <- $xmm7
	.loc	7 144 5668                      # crypto_pwhash/scryptsalsa208sha256/sse/pwhash_scryptsalsa208sha256_sse.c:144:5668
	pxor	%xmm4, %xmm5
	movdqa	%xmm6, %xmm4
	paddd	%xmm5, %xmm4
.Ltmp732:
	#DEBUG_VALUE: T <- $xmm4
	.loc	7 144 5714                      # crypto_pwhash/scryptsalsa208sha256/sse/pwhash_scryptsalsa208sha256_sse.c:144:5714
	movdqa	%xmm4, %xmm9
	pslld	$7, %xmm9
	.loc	7 144 5696                      # crypto_pwhash/scryptsalsa208sha256/sse/pwhash_scryptsalsa208sha256_sse.c:144:5696
	pxor	%xmm7, %xmm9
.Ltmp733:
	#DEBUG_VALUE: blockmix_salsa8:X3 <- $xmm9
	.loc	7 144 5760                      # crypto_pwhash/scryptsalsa208sha256/sse/pwhash_scryptsalsa208sha256_sse.c:144:5760
	psrld	$25, %xmm4
.Ltmp734:
	.loc	7 144 5742                      # crypto_pwhash/scryptsalsa208sha256/sse/pwhash_scryptsalsa208sha256_sse.c:144:5742
	pxor	%xmm9, %xmm4
.Ltmp735:
	#DEBUG_VALUE: blockmix_salsa8:X3 <- $xmm4
	.loc	7 144 5804                      # crypto_pwhash/scryptsalsa208sha256/sse/pwhash_scryptsalsa208sha256_sse.c:144:5804
	movdqa	%xmm4, %xmm7
	paddd	%xmm5, %xmm7
.Ltmp736:
	#DEBUG_VALUE: T <- $xmm7
	.loc	7 144 5850                      # crypto_pwhash/scryptsalsa208sha256/sse/pwhash_scryptsalsa208sha256_sse.c:144:5850
	movdqa	%xmm7, %xmm9
	pslld	$9, %xmm9
	.loc	7 144 5832                      # crypto_pwhash/scryptsalsa208sha256/sse/pwhash_scryptsalsa208sha256_sse.c:144:5832
	pxor	%xmm8, %xmm9
.Ltmp737:
	#DEBUG_VALUE: blockmix_salsa8:X2 <- $xmm9
	.loc	7 144 5896                      # crypto_pwhash/scryptsalsa208sha256/sse/pwhash_scryptsalsa208sha256_sse.c:144:5896
	psrld	$23, %xmm7
.Ltmp738:
	.loc	7 144 5878                      # crypto_pwhash/scryptsalsa208sha256/sse/pwhash_scryptsalsa208sha256_sse.c:144:5878
	pxor	%xmm9, %xmm7
.Ltmp739:
	#DEBUG_VALUE: blockmix_salsa8:X2 <- $xmm7
	.loc	7 144 5940                      # crypto_pwhash/scryptsalsa208sha256/sse/pwhash_scryptsalsa208sha256_sse.c:144:5940
	movdqa	%xmm7, %xmm8
	paddd	%xmm4, %xmm8
.Ltmp740:
	#DEBUG_VALUE: T <- $xmm8
	.loc	7 144 6015                      # crypto_pwhash/scryptsalsa208sha256/sse/pwhash_scryptsalsa208sha256_sse.c:144:6015
	movdqa	%xmm8, %xmm9
	psrld	$19, %xmm9
	pslld	$13, %xmm8
.Ltmp741:
	por	%xmm9, %xmm8
	pxor	%xmm6, %xmm8
.Ltmp742:
	.loc	7 144 6217                      # crypto_pwhash/scryptsalsa208sha256/sse/pwhash_scryptsalsa208sha256_sse.c:144:6217
	pshufd	$57, %xmm8, %xmm6               # xmm6 = xmm8[1,2,3,0]
.Ltmp743:
	#DEBUG_VALUE: blockmix_salsa8:X1 <- $xmm8
	.loc	7 144 6078                      # crypto_pwhash/scryptsalsa208sha256/sse/pwhash_scryptsalsa208sha256_sse.c:144:6078
	paddd	%xmm7, %xmm8
.Ltmp744:
	#DEBUG_VALUE: T <- $xmm8
	.loc	7 144 6153                      # crypto_pwhash/scryptsalsa208sha256/sse/pwhash_scryptsalsa208sha256_sse.c:144:6153
	movdqa	%xmm8, %xmm9
	psrld	$14, %xmm9
	pslld	$18, %xmm8
.Ltmp745:
	por	%xmm9, %xmm8
.Ltmp746:
	#DEBUG_VALUE: blockmix_salsa8:X1 <- $xmm6
	.loc	7 144 6292                      # crypto_pwhash/scryptsalsa208sha256/sse/pwhash_scryptsalsa208sha256_sse.c:144:6292
	pshufd	$78, %xmm7, %xmm7               # xmm7 = xmm7[2,3,0,1]
.Ltmp747:
	#DEBUG_VALUE: blockmix_salsa8:X2 <- $xmm7
	.loc	7 144 6367                      # crypto_pwhash/scryptsalsa208sha256/sse/pwhash_scryptsalsa208sha256_sse.c:144:6367
	pshufd	$147, %xmm4, %xmm4              # xmm4 = xmm4[3,0,1,2]
.Ltmp748:
	#DEBUG_VALUE: blockmix_salsa8:X3 <- $xmm4
	.loc	7 144 6461                      # crypto_pwhash/scryptsalsa208sha256/sse/pwhash_scryptsalsa208sha256_sse.c:144:6461
	pxor	%xmm5, %xmm8
	paddd	%xmm0, %xmm8
.Ltmp749:
	#DEBUG_VALUE: blockmix_salsa8:X0 <- $xmm8
	.loc	7 144 6454                      # crypto_pwhash/scryptsalsa208sha256/sse/pwhash_scryptsalsa208sha256_sse.c:144:6454
	movdqa	%xmm8, 64(%rsi,%rax)
	.loc	7 144 6519                      # crypto_pwhash/scryptsalsa208sha256/sse/pwhash_scryptsalsa208sha256_sse.c:144:6519
	paddd	%xmm1, %xmm6
.Ltmp750:
	#DEBUG_VALUE: blockmix_salsa8:X1 <- $xmm6
	.loc	7 144 6512                      # crypto_pwhash/scryptsalsa208sha256/sse/pwhash_scryptsalsa208sha256_sse.c:144:6512
	movdqa	%xmm6, 80(%rsi,%rax)
	.loc	7 144 6577                      # crypto_pwhash/scryptsalsa208sha256/sse/pwhash_scryptsalsa208sha256_sse.c:144:6577
	paddd	%xmm3, %xmm7
.Ltmp751:
	#DEBUG_VALUE: blockmix_salsa8:X2 <- $xmm7
	.loc	7 144 6570                      # crypto_pwhash/scryptsalsa208sha256/sse/pwhash_scryptsalsa208sha256_sse.c:144:6570
	movdqa	%xmm7, 96(%rsi,%rax)
	.loc	7 144 6635                      # crypto_pwhash/scryptsalsa208sha256/sse/pwhash_scryptsalsa208sha256_sse.c:144:6635
	paddd	%xmm2, %xmm4
.Ltmp752:
	#DEBUG_VALUE: blockmix_salsa8:X3 <- $xmm4
	.loc	7 144 6628                      # crypto_pwhash/scryptsalsa208sha256/sse/pwhash_scryptsalsa208sha256_sse.c:144:6628
	movdqa	%xmm4, 112(%rsi,%rax)
.Ltmp753:
	.loc	7 145 1 is_stmt 1               # crypto_pwhash/scryptsalsa208sha256/sse/pwhash_scryptsalsa208sha256_sse.c:145:1
	retq
.Ltmp754:
.Lfunc_end1:
	.size	blockmix_salsa8, .Lfunc_end1-blockmix_salsa8
	.cfi_endproc
                                        # -- End function
	.p2align	4                               # -- Begin function blockmix_salsa8_xor
	.type	blockmix_salsa8_xor,@function
blockmix_salsa8_xor:                    # @blockmix_salsa8_xor
.Lfunc_begin2:
	.cfi_startproc
# %bb.0:
	#DEBUG_VALUE: blockmix_salsa8_xor:Bin1 <- $rdi
	#DEBUG_VALUE: blockmix_salsa8_xor:Bin2 <- $rsi
	#DEBUG_VALUE: blockmix_salsa8_xor:Bout <- $rdx
	#DEBUG_VALUE: blockmix_salsa8_xor:r <- $rcx
	.loc	7 167 37 prologue_end           # crypto_pwhash/scryptsalsa208sha256/sse/pwhash_scryptsalsa208sha256_sse.c:167:37
	movq	%rcx, %rax
	shlq	$7, %rax
	.loc	7 167 47 is_stmt 0              # crypto_pwhash/scryptsalsa208sha256/sse/pwhash_scryptsalsa208sha256_sse.c:167:47
	movdqa	-64(%rsi,%rax), %xmm7
	.loc	7 167 113                       # crypto_pwhash/scryptsalsa208sha256/sse/pwhash_scryptsalsa208sha256_sse.c:167:113
	movdqa	-48(%rsi,%rax), %xmm6
	.loc	7 167 179                       # crypto_pwhash/scryptsalsa208sha256/sse/pwhash_scryptsalsa208sha256_sse.c:167:179
	movdqa	-32(%rsi,%rax), %xmm5
	.loc	7 167 245                       # crypto_pwhash/scryptsalsa208sha256/sse/pwhash_scryptsalsa208sha256_sse.c:167:245
	movdqa	-16(%rsi,%rax), %xmm4
	.loc	7 167 10                        # crypto_pwhash/scryptsalsa208sha256/sse/pwhash_scryptsalsa208sha256_sse.c:167:10
	pxor	-64(%rdi,%rax), %xmm7
.Ltmp755:
	#DEBUG_VALUE: blockmix_salsa8_xor:X0 <- $xmm7
	.loc	7 167 76                        # crypto_pwhash/scryptsalsa208sha256/sse/pwhash_scryptsalsa208sha256_sse.c:167:76
	pxor	-48(%rdi,%rax), %xmm6
.Ltmp756:
	#DEBUG_VALUE: blockmix_salsa8_xor:X1 <- $xmm6
	.loc	7 167 142                       # crypto_pwhash/scryptsalsa208sha256/sse/pwhash_scryptsalsa208sha256_sse.c:167:142
	pxor	-32(%rdi,%rax), %xmm5
.Ltmp757:
	#DEBUG_VALUE: blockmix_salsa8_xor:X2 <- $xmm5
	.loc	7 167 208                       # crypto_pwhash/scryptsalsa208sha256/sse/pwhash_scryptsalsa208sha256_sse.c:167:208
	pxor	-16(%rdi,%rax), %xmm4
.Ltmp758:
	#DEBUG_VALUE: blockmix_salsa8_xor:X3 <- $xmm4
	.loc	7 172 10 is_stmt 1              # crypto_pwhash/scryptsalsa208sha256/sse/pwhash_scryptsalsa208sha256_sse.c:172:10
	pxor	(%rdi), %xmm7
.Ltmp759:
	#DEBUG_VALUE: blockmix_salsa8_xor:X0 <- $xmm7
	.loc	7 172 45 is_stmt 0              # crypto_pwhash/scryptsalsa208sha256/sse/pwhash_scryptsalsa208sha256_sse.c:172:45
	pxor	16(%rdi), %xmm6
.Ltmp760:
	#DEBUG_VALUE: blockmix_salsa8_xor:X1 <- $xmm6
	.loc	7 172 80                        # crypto_pwhash/scryptsalsa208sha256/sse/pwhash_scryptsalsa208sha256_sse.c:172:80
	pxor	32(%rdi), %xmm5
.Ltmp761:
	#DEBUG_VALUE: blockmix_salsa8_xor:X2 <- $xmm5
	.loc	7 172 115                       # crypto_pwhash/scryptsalsa208sha256/sse/pwhash_scryptsalsa208sha256_sse.c:172:115
	pxor	48(%rdi), %xmm4
.Ltmp762:
	#DEBUG_VALUE: blockmix_salsa8_xor:X3 <- $xmm4
	.loc	7 173 25 is_stmt 1              # crypto_pwhash/scryptsalsa208sha256/sse/pwhash_scryptsalsa208sha256_sse.c:173:25
	pxor	(%rsi), %xmm7
.Ltmp763:
	#DEBUG_VALUE: blockmix_salsa8_xor:X0 <- $xmm7
	#DEBUG_VALUE: Y0 <- $xmm7
	.loc	7 173 73 is_stmt 0              # crypto_pwhash/scryptsalsa208sha256/sse/pwhash_scryptsalsa208sha256_sse.c:173:73
	pxor	16(%rsi), %xmm6
.Ltmp764:
	#DEBUG_VALUE: blockmix_salsa8_xor:X1 <- $xmm6
	#DEBUG_VALUE: Y1 <- $xmm6
	.loc	7 173 121                       # crypto_pwhash/scryptsalsa208sha256/sse/pwhash_scryptsalsa208sha256_sse.c:173:121
	pxor	32(%rsi), %xmm5
.Ltmp765:
	#DEBUG_VALUE: blockmix_salsa8_xor:X2 <- $xmm5
	#DEBUG_VALUE: Y2 <- $xmm5
	.loc	7 173 169                       # crypto_pwhash/scryptsalsa208sha256/sse/pwhash_scryptsalsa208sha256_sse.c:173:169
	pxor	48(%rsi), %xmm4
.Ltmp766:
	#DEBUG_VALUE: blockmix_salsa8_xor:X3 <- $xmm4
	#DEBUG_VALUE: Y3 <- $xmm4
	.loc	7 173 213                       # crypto_pwhash/scryptsalsa208sha256/sse/pwhash_scryptsalsa208sha256_sse.c:173:213
	movdqa	%xmm4, %xmm1
	paddd	%xmm7, %xmm1
.Ltmp767:
	#DEBUG_VALUE: blockmix_salsa8_xor:X1 <- [DW_OP_LLVM_arg 0, DW_OP_LLVM_arg 0, DW_OP_LLVM_arg 0, DW_OP_shl, DW_OP_xor, DW_OP_stack_value] undef
	#DEBUG_VALUE: T <- $xmm1
	.loc	7 173 287                       # crypto_pwhash/scryptsalsa208sha256/sse/pwhash_scryptsalsa208sha256_sse.c:173:287
	movdqa	%xmm1, %xmm0
	psrld	$25, %xmm0
	pslld	$7, %xmm1
.Ltmp768:
	por	%xmm0, %xmm1
.Ltmp769:
	#DEBUG_VALUE: blockmix_salsa8_xor:X1 <- undef
	.loc	7 173 349                       # crypto_pwhash/scryptsalsa208sha256/sse/pwhash_scryptsalsa208sha256_sse.c:173:349
	pxor	%xmm6, %xmm1
	movdqa	%xmm1, %xmm2
	paddd	%xmm7, %xmm2
.Ltmp770:
	#DEBUG_VALUE: blockmix_salsa8_xor:X2 <- [DW_OP_LLVM_arg 0, DW_OP_LLVM_arg 0, DW_OP_LLVM_arg 0, DW_OP_shl, DW_OP_xor, DW_OP_stack_value] undef
	#DEBUG_VALUE: T <- $xmm2
	.loc	7 173 423                       # crypto_pwhash/scryptsalsa208sha256/sse/pwhash_scryptsalsa208sha256_sse.c:173:423
	movdqa	%xmm2, %xmm0
	psrld	$23, %xmm0
	pslld	$9, %xmm2
.Ltmp771:
	por	%xmm0, %xmm2
.Ltmp772:
	#DEBUG_VALUE: blockmix_salsa8_xor:X2 <- undef
	.loc	7 173 485                       # crypto_pwhash/scryptsalsa208sha256/sse/pwhash_scryptsalsa208sha256_sse.c:173:485
	pxor	%xmm5, %xmm2
	movdqa	%xmm2, %xmm0
	paddd	%xmm1, %xmm0
.Ltmp773:
	#DEBUG_VALUE: blockmix_salsa8_xor:X3 <- [DW_OP_LLVM_arg 0, DW_OP_LLVM_arg 0, DW_OP_LLVM_arg 0, DW_OP_shl, DW_OP_xor, DW_OP_stack_value] undef
	#DEBUG_VALUE: T <- $xmm0
	.loc	7 173 560                       # crypto_pwhash/scryptsalsa208sha256/sse/pwhash_scryptsalsa208sha256_sse.c:173:560
	movdqa	%xmm0, %xmm3
	psrld	$19, %xmm3
	pslld	$13, %xmm0
.Ltmp774:
	por	%xmm3, %xmm0
.Ltmp775:
	#DEBUG_VALUE: blockmix_salsa8_xor:X3 <- undef
	.loc	7 173 623                       # crypto_pwhash/scryptsalsa208sha256/sse/pwhash_scryptsalsa208sha256_sse.c:173:623
	pxor	%xmm4, %xmm0
.Ltmp776:
	#DEBUG_VALUE: blockmix_salsa8_xor:X2 <- undef
	.loc	7 173 912                       # crypto_pwhash/scryptsalsa208sha256/sse/pwhash_scryptsalsa208sha256_sse.c:173:912
	pshufd	$57, %xmm0, %xmm3               # xmm3 = xmm0[1,2,3,0]
.Ltmp777:
	.loc	7 173 623                       # crypto_pwhash/scryptsalsa208sha256/sse/pwhash_scryptsalsa208sha256_sse.c:173:623
	paddd	%xmm2, %xmm0
.Ltmp778:
	#DEBUG_VALUE: blockmix_salsa8_xor:X0 <- [DW_OP_LLVM_arg 0, DW_OP_LLVM_arg 0, DW_OP_LLVM_arg 0, DW_OP_shl, DW_OP_xor, DW_OP_stack_value] undef
	#DEBUG_VALUE: T <- $xmm0
	.loc	7 173 698                       # crypto_pwhash/scryptsalsa208sha256/sse/pwhash_scryptsalsa208sha256_sse.c:173:698
	movdqa	%xmm0, %xmm8
	psrld	$14, %xmm8
	pslld	$18, %xmm0
.Ltmp779:
	por	%xmm8, %xmm0
	pxor	%xmm7, %xmm0
.Ltmp780:
	#DEBUG_VALUE: blockmix_salsa8_xor:X0 <- undef
	.loc	7 173 762                       # crypto_pwhash/scryptsalsa208sha256/sse/pwhash_scryptsalsa208sha256_sse.c:173:762
	pshufd	$147, %xmm1, %xmm8              # xmm8 = xmm1[3,0,1,2]
.Ltmp781:
	#DEBUG_VALUE: blockmix_salsa8_xor:X1 <- $xmm8
	.loc	7 173 837                       # crypto_pwhash/scryptsalsa208sha256/sse/pwhash_scryptsalsa208sha256_sse.c:173:837
	pshufd	$78, %xmm2, %xmm1               # xmm1 = xmm2[2,3,0,1]
.Ltmp782:
	#DEBUG_VALUE: blockmix_salsa8_xor:X2 <- $xmm1
	#DEBUG_VALUE: blockmix_salsa8_xor:X3 <- $xmm3
	.loc	7 173 986                       # crypto_pwhash/scryptsalsa208sha256/sse/pwhash_scryptsalsa208sha256_sse.c:173:986
	movdqa	%xmm8, %xmm2
	paddd	%xmm0, %xmm2
.Ltmp783:
	#DEBUG_VALUE: T <- $xmm2
	.loc	7 173 1032                      # crypto_pwhash/scryptsalsa208sha256/sse/pwhash_scryptsalsa208sha256_sse.c:173:1032
	movdqa	%xmm2, %xmm9
	pslld	$7, %xmm9
	.loc	7 173 1014                      # crypto_pwhash/scryptsalsa208sha256/sse/pwhash_scryptsalsa208sha256_sse.c:173:1014
	pxor	%xmm3, %xmm9
.Ltmp784:
	#DEBUG_VALUE: blockmix_salsa8_xor:X3 <- $xmm9
	.loc	7 173 1078                      # crypto_pwhash/scryptsalsa208sha256/sse/pwhash_scryptsalsa208sha256_sse.c:173:1078
	psrld	$25, %xmm2
.Ltmp785:
	.loc	7 173 1060                      # crypto_pwhash/scryptsalsa208sha256/sse/pwhash_scryptsalsa208sha256_sse.c:173:1060
	pxor	%xmm9, %xmm2
.Ltmp786:
	#DEBUG_VALUE: blockmix_salsa8_xor:X3 <- $xmm2
	.loc	7 173 1122                      # crypto_pwhash/scryptsalsa208sha256/sse/pwhash_scryptsalsa208sha256_sse.c:173:1122
	movdqa	%xmm2, %xmm3
	paddd	%xmm0, %xmm3
.Ltmp787:
	#DEBUG_VALUE: T <- $xmm3
	.loc	7 173 1168                      # crypto_pwhash/scryptsalsa208sha256/sse/pwhash_scryptsalsa208sha256_sse.c:173:1168
	movdqa	%xmm3, %xmm9
	pslld	$9, %xmm9
	.loc	7 173 1150                      # crypto_pwhash/scryptsalsa208sha256/sse/pwhash_scryptsalsa208sha256_sse.c:173:1150
	pxor	%xmm1, %xmm9
.Ltmp788:
	#DEBUG_VALUE: blockmix_salsa8_xor:X2 <- $xmm9
	.loc	7 173 1214                      # crypto_pwhash/scryptsalsa208sha256/sse/pwhash_scryptsalsa208sha256_sse.c:173:1214
	psrld	$23, %xmm3
.Ltmp789:
	.loc	7 173 1196                      # crypto_pwhash/scryptsalsa208sha256/sse/pwhash_scryptsalsa208sha256_sse.c:173:1196
	pxor	%xmm9, %xmm3
.Ltmp790:
	#DEBUG_VALUE: blockmix_salsa8_xor:X2 <- $xmm3
	.loc	7 173 1258                      # crypto_pwhash/scryptsalsa208sha256/sse/pwhash_scryptsalsa208sha256_sse.c:173:1258
	movdqa	%xmm3, %xmm1
	paddd	%xmm2, %xmm1
.Ltmp791:
	#DEBUG_VALUE: T <- $xmm1
	.loc	7 173 1333                      # crypto_pwhash/scryptsalsa208sha256/sse/pwhash_scryptsalsa208sha256_sse.c:173:1333
	movdqa	%xmm1, %xmm9
	psrld	$19, %xmm9
	pslld	$13, %xmm1
.Ltmp792:
	por	%xmm9, %xmm1
	pxor	%xmm8, %xmm1
.Ltmp793:
	.loc	7 173 1535                      # crypto_pwhash/scryptsalsa208sha256/sse/pwhash_scryptsalsa208sha256_sse.c:173:1535
	pshufd	$57, %xmm1, %xmm8               # xmm8 = xmm1[1,2,3,0]
.Ltmp794:
	#DEBUG_VALUE: blockmix_salsa8_xor:X1 <- $xmm1
	.loc	7 173 1396                      # crypto_pwhash/scryptsalsa208sha256/sse/pwhash_scryptsalsa208sha256_sse.c:173:1396
	paddd	%xmm3, %xmm1
.Ltmp795:
	#DEBUG_VALUE: T <- $xmm1
	.loc	7 173 1471                      # crypto_pwhash/scryptsalsa208sha256/sse/pwhash_scryptsalsa208sha256_sse.c:173:1471
	movdqa	%xmm1, %xmm9
	psrld	$14, %xmm9
	pslld	$18, %xmm1
.Ltmp796:
	por	%xmm9, %xmm1
	pxor	%xmm0, %xmm1
.Ltmp797:
	#DEBUG_VALUE: blockmix_salsa8_xor:X1 <- $xmm8
	.loc	7 173 1610                      # crypto_pwhash/scryptsalsa208sha256/sse/pwhash_scryptsalsa208sha256_sse.c:173:1610
	pshufd	$78, %xmm3, %xmm0               # xmm0 = xmm3[2,3,0,1]
.Ltmp798:
	#DEBUG_VALUE: blockmix_salsa8_xor:X2 <- $xmm0
	.loc	7 173 1685                      # crypto_pwhash/scryptsalsa208sha256/sse/pwhash_scryptsalsa208sha256_sse.c:173:1685
	pshufd	$147, %xmm2, %xmm3              # xmm3 = xmm2[3,0,1,2]
.Ltmp799:
	#DEBUG_VALUE: blockmix_salsa8_xor:X3 <- $xmm3
	.loc	7 173 1759                      # crypto_pwhash/scryptsalsa208sha256/sse/pwhash_scryptsalsa208sha256_sse.c:173:1759
	movdqa	%xmm3, %xmm2
	paddd	%xmm1, %xmm2
.Ltmp800:
	#DEBUG_VALUE: T <- $xmm2
	.loc	7 173 1805                      # crypto_pwhash/scryptsalsa208sha256/sse/pwhash_scryptsalsa208sha256_sse.c:173:1805
	movdqa	%xmm2, %xmm9
	pslld	$7, %xmm9
	.loc	7 173 1787                      # crypto_pwhash/scryptsalsa208sha256/sse/pwhash_scryptsalsa208sha256_sse.c:173:1787
	pxor	%xmm8, %xmm9
.Ltmp801:
	#DEBUG_VALUE: blockmix_salsa8_xor:X1 <- $xmm9
	.loc	7 173 1851                      # crypto_pwhash/scryptsalsa208sha256/sse/pwhash_scryptsalsa208sha256_sse.c:173:1851
	psrld	$25, %xmm2
.Ltmp802:
	.loc	7 173 1833                      # crypto_pwhash/scryptsalsa208sha256/sse/pwhash_scryptsalsa208sha256_sse.c:173:1833
	pxor	%xmm9, %xmm2
.Ltmp803:
	#DEBUG_VALUE: blockmix_salsa8_xor:X1 <- $xmm2
	.loc	7 173 1895                      # crypto_pwhash/scryptsalsa208sha256/sse/pwhash_scryptsalsa208sha256_sse.c:173:1895
	movdqa	%xmm2, %xmm8
	paddd	%xmm1, %xmm8
.Ltmp804:
	#DEBUG_VALUE: T <- $xmm8
	.loc	7 173 1941                      # crypto_pwhash/scryptsalsa208sha256/sse/pwhash_scryptsalsa208sha256_sse.c:173:1941
	movdqa	%xmm8, %xmm9
	pslld	$9, %xmm9
	.loc	7 173 1923                      # crypto_pwhash/scryptsalsa208sha256/sse/pwhash_scryptsalsa208sha256_sse.c:173:1923
	pxor	%xmm0, %xmm9
.Ltmp805:
	#DEBUG_VALUE: blockmix_salsa8_xor:X2 <- $xmm9
	.loc	7 173 1987                      # crypto_pwhash/scryptsalsa208sha256/sse/pwhash_scryptsalsa208sha256_sse.c:173:1987
	psrld	$23, %xmm8
.Ltmp806:
	.loc	7 173 1969                      # crypto_pwhash/scryptsalsa208sha256/sse/pwhash_scryptsalsa208sha256_sse.c:173:1969
	pxor	%xmm9, %xmm8
.Ltmp807:
	#DEBUG_VALUE: blockmix_salsa8_xor:X2 <- $xmm8
	.loc	7 173 2031                      # crypto_pwhash/scryptsalsa208sha256/sse/pwhash_scryptsalsa208sha256_sse.c:173:2031
	movdqa	%xmm8, %xmm0
	paddd	%xmm2, %xmm0
.Ltmp808:
	#DEBUG_VALUE: T <- $xmm0
	.loc	7 173 2106                      # crypto_pwhash/scryptsalsa208sha256/sse/pwhash_scryptsalsa208sha256_sse.c:173:2106
	movdqa	%xmm0, %xmm9
	psrld	$19, %xmm9
	pslld	$13, %xmm0
.Ltmp809:
	por	%xmm9, %xmm0
	pxor	%xmm3, %xmm0
.Ltmp810:
	#DEBUG_VALUE: blockmix_salsa8_xor:X2 <- undef
	.loc	7 173 2458                      # crypto_pwhash/scryptsalsa208sha256/sse/pwhash_scryptsalsa208sha256_sse.c:173:2458
	pshufd	$57, %xmm0, %xmm3               # xmm3 = xmm0[1,2,3,0]
.Ltmp811:
	#DEBUG_VALUE: blockmix_salsa8_xor:X3 <- $xmm0
	.loc	7 173 2169                      # crypto_pwhash/scryptsalsa208sha256/sse/pwhash_scryptsalsa208sha256_sse.c:173:2169
	paddd	%xmm8, %xmm0
.Ltmp812:
	#DEBUG_VALUE: T <- $xmm0
	.loc	7 173 2244                      # crypto_pwhash/scryptsalsa208sha256/sse/pwhash_scryptsalsa208sha256_sse.c:173:2244
	movdqa	%xmm0, %xmm9
	psrld	$14, %xmm9
	pslld	$18, %xmm0
.Ltmp813:
	por	%xmm9, %xmm0
	pxor	%xmm1, %xmm0
.Ltmp814:
	.loc	7 173 2308                      # crypto_pwhash/scryptsalsa208sha256/sse/pwhash_scryptsalsa208sha256_sse.c:173:2308
	pshufd	$147, %xmm2, %xmm9              # xmm9 = xmm2[3,0,1,2]
.Ltmp815:
	#DEBUG_VALUE: blockmix_salsa8_xor:X1 <- $xmm9
	.loc	7 173 2383                      # crypto_pwhash/scryptsalsa208sha256/sse/pwhash_scryptsalsa208sha256_sse.c:173:2383
	pshufd	$78, %xmm8, %xmm1               # xmm1 = xmm8[2,3,0,1]
.Ltmp816:
	#DEBUG_VALUE: blockmix_salsa8_xor:X2 <- $xmm1
	#DEBUG_VALUE: blockmix_salsa8_xor:X3 <- $xmm3
	.loc	7 173 2532                      # crypto_pwhash/scryptsalsa208sha256/sse/pwhash_scryptsalsa208sha256_sse.c:173:2532
	movdqa	%xmm9, %xmm2
	paddd	%xmm0, %xmm2
.Ltmp817:
	#DEBUG_VALUE: T <- $xmm2
	.loc	7 173 2578                      # crypto_pwhash/scryptsalsa208sha256/sse/pwhash_scryptsalsa208sha256_sse.c:173:2578
	movdqa	%xmm2, %xmm8
	pslld	$7, %xmm8
	.loc	7 173 2560                      # crypto_pwhash/scryptsalsa208sha256/sse/pwhash_scryptsalsa208sha256_sse.c:173:2560
	pxor	%xmm3, %xmm8
.Ltmp818:
	#DEBUG_VALUE: blockmix_salsa8_xor:X3 <- $xmm8
	.loc	7 173 2624                      # crypto_pwhash/scryptsalsa208sha256/sse/pwhash_scryptsalsa208sha256_sse.c:173:2624
	psrld	$25, %xmm2
.Ltmp819:
	.loc	7 173 2606                      # crypto_pwhash/scryptsalsa208sha256/sse/pwhash_scryptsalsa208sha256_sse.c:173:2606
	pxor	%xmm8, %xmm2
.Ltmp820:
	#DEBUG_VALUE: blockmix_salsa8_xor:X3 <- $xmm2
	.loc	7 173 2668                      # crypto_pwhash/scryptsalsa208sha256/sse/pwhash_scryptsalsa208sha256_sse.c:173:2668
	movdqa	%xmm2, %xmm3
	paddd	%xmm0, %xmm3
.Ltmp821:
	#DEBUG_VALUE: T <- $xmm3
	.loc	7 173 2714                      # crypto_pwhash/scryptsalsa208sha256/sse/pwhash_scryptsalsa208sha256_sse.c:173:2714
	movdqa	%xmm3, %xmm8
	pslld	$9, %xmm8
	.loc	7 173 2696                      # crypto_pwhash/scryptsalsa208sha256/sse/pwhash_scryptsalsa208sha256_sse.c:173:2696
	pxor	%xmm1, %xmm8
.Ltmp822:
	#DEBUG_VALUE: blockmix_salsa8_xor:X2 <- $xmm8
	.loc	7 173 2760                      # crypto_pwhash/scryptsalsa208sha256/sse/pwhash_scryptsalsa208sha256_sse.c:173:2760
	psrld	$23, %xmm3
.Ltmp823:
	.loc	7 173 2742                      # crypto_pwhash/scryptsalsa208sha256/sse/pwhash_scryptsalsa208sha256_sse.c:173:2742
	pxor	%xmm8, %xmm3
.Ltmp824:
	#DEBUG_VALUE: blockmix_salsa8_xor:X2 <- $xmm3
	.loc	7 173 2804                      # crypto_pwhash/scryptsalsa208sha256/sse/pwhash_scryptsalsa208sha256_sse.c:173:2804
	movdqa	%xmm3, %xmm1
	paddd	%xmm2, %xmm1
.Ltmp825:
	#DEBUG_VALUE: T <- $xmm1
	.loc	7 173 2879                      # crypto_pwhash/scryptsalsa208sha256/sse/pwhash_scryptsalsa208sha256_sse.c:173:2879
	movdqa	%xmm1, %xmm8
	psrld	$19, %xmm8
	pslld	$13, %xmm1
.Ltmp826:
	por	%xmm8, %xmm1
	pxor	%xmm9, %xmm1
.Ltmp827:
	.loc	7 173 3081                      # crypto_pwhash/scryptsalsa208sha256/sse/pwhash_scryptsalsa208sha256_sse.c:173:3081
	pshufd	$57, %xmm1, %xmm8               # xmm8 = xmm1[1,2,3,0]
.Ltmp828:
	#DEBUG_VALUE: blockmix_salsa8_xor:X1 <- $xmm1
	.loc	7 173 2942                      # crypto_pwhash/scryptsalsa208sha256/sse/pwhash_scryptsalsa208sha256_sse.c:173:2942
	paddd	%xmm3, %xmm1
.Ltmp829:
	#DEBUG_VALUE: T <- $xmm1
	.loc	7 173 3017                      # crypto_pwhash/scryptsalsa208sha256/sse/pwhash_scryptsalsa208sha256_sse.c:173:3017
	movdqa	%xmm1, %xmm9
	psrld	$14, %xmm9
	pslld	$18, %xmm1
.Ltmp830:
	por	%xmm9, %xmm1
	pxor	%xmm0, %xmm1
.Ltmp831:
	#DEBUG_VALUE: blockmix_salsa8_xor:X1 <- $xmm8
	.loc	7 173 3156                      # crypto_pwhash/scryptsalsa208sha256/sse/pwhash_scryptsalsa208sha256_sse.c:173:3156
	pshufd	$78, %xmm3, %xmm3               # xmm3 = xmm3[2,3,0,1]
.Ltmp832:
	#DEBUG_VALUE: blockmix_salsa8_xor:X2 <- $xmm3
	.loc	7 173 3231                      # crypto_pwhash/scryptsalsa208sha256/sse/pwhash_scryptsalsa208sha256_sse.c:173:3231
	pshufd	$147, %xmm2, %xmm9              # xmm9 = xmm2[3,0,1,2]
.Ltmp833:
	#DEBUG_VALUE: blockmix_salsa8_xor:X3 <- $xmm9
	.loc	7 173 3305                      # crypto_pwhash/scryptsalsa208sha256/sse/pwhash_scryptsalsa208sha256_sse.c:173:3305
	movdqa	%xmm9, %xmm0
	paddd	%xmm1, %xmm0
.Ltmp834:
	#DEBUG_VALUE: T <- $xmm0
	.loc	7 173 3351                      # crypto_pwhash/scryptsalsa208sha256/sse/pwhash_scryptsalsa208sha256_sse.c:173:3351
	movdqa	%xmm0, %xmm2
	pslld	$7, %xmm2
	.loc	7 173 3333                      # crypto_pwhash/scryptsalsa208sha256/sse/pwhash_scryptsalsa208sha256_sse.c:173:3333
	pxor	%xmm8, %xmm2
.Ltmp835:
	#DEBUG_VALUE: blockmix_salsa8_xor:X1 <- $xmm2
	.loc	7 173 3397                      # crypto_pwhash/scryptsalsa208sha256/sse/pwhash_scryptsalsa208sha256_sse.c:173:3397
	psrld	$25, %xmm0
.Ltmp836:
	.loc	7 173 3379                      # crypto_pwhash/scryptsalsa208sha256/sse/pwhash_scryptsalsa208sha256_sse.c:173:3379
	pxor	%xmm2, %xmm0
.Ltmp837:
	#DEBUG_VALUE: blockmix_salsa8_xor:X1 <- $xmm0
	.loc	7 173 3441                      # crypto_pwhash/scryptsalsa208sha256/sse/pwhash_scryptsalsa208sha256_sse.c:173:3441
	movdqa	%xmm0, %xmm8
	paddd	%xmm1, %xmm8
.Ltmp838:
	#DEBUG_VALUE: T <- $xmm8
	.loc	7 173 3487                      # crypto_pwhash/scryptsalsa208sha256/sse/pwhash_scryptsalsa208sha256_sse.c:173:3487
	movdqa	%xmm8, %xmm2
	pslld	$9, %xmm2
	.loc	7 173 3469                      # crypto_pwhash/scryptsalsa208sha256/sse/pwhash_scryptsalsa208sha256_sse.c:173:3469
	pxor	%xmm3, %xmm2
.Ltmp839:
	#DEBUG_VALUE: blockmix_salsa8_xor:X2 <- $xmm2
	.loc	7 173 3533                      # crypto_pwhash/scryptsalsa208sha256/sse/pwhash_scryptsalsa208sha256_sse.c:173:3533
	psrld	$23, %xmm8
.Ltmp840:
	.loc	7 173 3515                      # crypto_pwhash/scryptsalsa208sha256/sse/pwhash_scryptsalsa208sha256_sse.c:173:3515
	pxor	%xmm2, %xmm8
.Ltmp841:
	#DEBUG_VALUE: blockmix_salsa8_xor:X2 <- $xmm8
	.loc	7 173 3577                      # crypto_pwhash/scryptsalsa208sha256/sse/pwhash_scryptsalsa208sha256_sse.c:173:3577
	movdqa	%xmm8, %xmm2
	paddd	%xmm0, %xmm2
.Ltmp842:
	#DEBUG_VALUE: T <- $xmm2
	.loc	7 173 3652                      # crypto_pwhash/scryptsalsa208sha256/sse/pwhash_scryptsalsa208sha256_sse.c:173:3652
	movdqa	%xmm2, %xmm3
	psrld	$19, %xmm3
	pslld	$13, %xmm2
.Ltmp843:
	por	%xmm3, %xmm2
	pxor	%xmm9, %xmm2
.Ltmp844:
	#DEBUG_VALUE: blockmix_salsa8_xor:X2 <- undef
	.loc	7 173 4004                      # crypto_pwhash/scryptsalsa208sha256/sse/pwhash_scryptsalsa208sha256_sse.c:173:4004
	pshufd	$57, %xmm2, %xmm3               # xmm3 = xmm2[1,2,3,0]
.Ltmp845:
	#DEBUG_VALUE: blockmix_salsa8_xor:X3 <- $xmm2
	.loc	7 173 3715                      # crypto_pwhash/scryptsalsa208sha256/sse/pwhash_scryptsalsa208sha256_sse.c:173:3715
	paddd	%xmm8, %xmm2
.Ltmp846:
	#DEBUG_VALUE: T <- $xmm2
	.loc	7 173 3790                      # crypto_pwhash/scryptsalsa208sha256/sse/pwhash_scryptsalsa208sha256_sse.c:173:3790
	movdqa	%xmm2, %xmm9
	psrld	$14, %xmm9
	pslld	$18, %xmm2
.Ltmp847:
	por	%xmm9, %xmm2
	pxor	%xmm1, %xmm2
.Ltmp848:
	.loc	7 173 3854                      # crypto_pwhash/scryptsalsa208sha256/sse/pwhash_scryptsalsa208sha256_sse.c:173:3854
	pshufd	$147, %xmm0, %xmm9              # xmm9 = xmm0[3,0,1,2]
.Ltmp849:
	#DEBUG_VALUE: blockmix_salsa8_xor:X1 <- $xmm9
	.loc	7 173 3929                      # crypto_pwhash/scryptsalsa208sha256/sse/pwhash_scryptsalsa208sha256_sse.c:173:3929
	pshufd	$78, %xmm8, %xmm0               # xmm0 = xmm8[2,3,0,1]
.Ltmp850:
	#DEBUG_VALUE: blockmix_salsa8_xor:X2 <- $xmm0
	#DEBUG_VALUE: blockmix_salsa8_xor:X3 <- $xmm3
	.loc	7 173 4078                      # crypto_pwhash/scryptsalsa208sha256/sse/pwhash_scryptsalsa208sha256_sse.c:173:4078
	movdqa	%xmm9, %xmm1
	paddd	%xmm2, %xmm1
.Ltmp851:
	#DEBUG_VALUE: T <- $xmm1
	.loc	7 173 4124                      # crypto_pwhash/scryptsalsa208sha256/sse/pwhash_scryptsalsa208sha256_sse.c:173:4124
	movdqa	%xmm1, %xmm8
	pslld	$7, %xmm8
	.loc	7 173 4106                      # crypto_pwhash/scryptsalsa208sha256/sse/pwhash_scryptsalsa208sha256_sse.c:173:4106
	pxor	%xmm3, %xmm8
.Ltmp852:
	#DEBUG_VALUE: blockmix_salsa8_xor:X3 <- $xmm8
	.loc	7 173 4170                      # crypto_pwhash/scryptsalsa208sha256/sse/pwhash_scryptsalsa208sha256_sse.c:173:4170
	psrld	$25, %xmm1
.Ltmp853:
	.loc	7 173 4152                      # crypto_pwhash/scryptsalsa208sha256/sse/pwhash_scryptsalsa208sha256_sse.c:173:4152
	pxor	%xmm8, %xmm1
.Ltmp854:
	#DEBUG_VALUE: blockmix_salsa8_xor:X3 <- $xmm1
	.loc	7 173 4214                      # crypto_pwhash/scryptsalsa208sha256/sse/pwhash_scryptsalsa208sha256_sse.c:173:4214
	movdqa	%xmm1, %xmm3
	paddd	%xmm2, %xmm3
.Ltmp855:
	#DEBUG_VALUE: T <- $xmm3
	.loc	7 173 4260                      # crypto_pwhash/scryptsalsa208sha256/sse/pwhash_scryptsalsa208sha256_sse.c:173:4260
	movdqa	%xmm3, %xmm8
	pslld	$9, %xmm8
	.loc	7 173 4242                      # crypto_pwhash/scryptsalsa208sha256/sse/pwhash_scryptsalsa208sha256_sse.c:173:4242
	pxor	%xmm0, %xmm8
.Ltmp856:
	#DEBUG_VALUE: blockmix_salsa8_xor:X2 <- $xmm8
	.loc	7 173 4306                      # crypto_pwhash/scryptsalsa208sha256/sse/pwhash_scryptsalsa208sha256_sse.c:173:4306
	psrld	$23, %xmm3
.Ltmp857:
	.loc	7 173 4288                      # crypto_pwhash/scryptsalsa208sha256/sse/pwhash_scryptsalsa208sha256_sse.c:173:4288
	pxor	%xmm8, %xmm3
.Ltmp858:
	#DEBUG_VALUE: blockmix_salsa8_xor:X2 <- $xmm3
	.loc	7 173 4350                      # crypto_pwhash/scryptsalsa208sha256/sse/pwhash_scryptsalsa208sha256_sse.c:173:4350
	movdqa	%xmm3, %xmm0
	paddd	%xmm1, %xmm0
.Ltmp859:
	#DEBUG_VALUE: T <- $xmm0
	.loc	7 173 4425                      # crypto_pwhash/scryptsalsa208sha256/sse/pwhash_scryptsalsa208sha256_sse.c:173:4425
	movdqa	%xmm0, %xmm8
	psrld	$19, %xmm8
	pslld	$13, %xmm0
.Ltmp860:
	por	%xmm8, %xmm0
	pxor	%xmm9, %xmm0
.Ltmp861:
	.loc	7 173 4627                      # crypto_pwhash/scryptsalsa208sha256/sse/pwhash_scryptsalsa208sha256_sse.c:173:4627
	pshufd	$57, %xmm0, %xmm8               # xmm8 = xmm0[1,2,3,0]
.Ltmp862:
	#DEBUG_VALUE: blockmix_salsa8_xor:X1 <- $xmm0
	.loc	7 173 4488                      # crypto_pwhash/scryptsalsa208sha256/sse/pwhash_scryptsalsa208sha256_sse.c:173:4488
	paddd	%xmm3, %xmm0
.Ltmp863:
	#DEBUG_VALUE: T <- $xmm0
	.loc	7 173 4563                      # crypto_pwhash/scryptsalsa208sha256/sse/pwhash_scryptsalsa208sha256_sse.c:173:4563
	movdqa	%xmm0, %xmm9
	psrld	$14, %xmm9
	pslld	$18, %xmm0
.Ltmp864:
	por	%xmm9, %xmm0
	pxor	%xmm2, %xmm0
.Ltmp865:
	#DEBUG_VALUE: blockmix_salsa8_xor:X1 <- $xmm8
	.loc	7 173 4702                      # crypto_pwhash/scryptsalsa208sha256/sse/pwhash_scryptsalsa208sha256_sse.c:173:4702
	pshufd	$78, %xmm3, %xmm2               # xmm2 = xmm3[2,3,0,1]
.Ltmp866:
	#DEBUG_VALUE: blockmix_salsa8_xor:X2 <- $xmm2
	.loc	7 173 4777                      # crypto_pwhash/scryptsalsa208sha256/sse/pwhash_scryptsalsa208sha256_sse.c:173:4777
	pshufd	$147, %xmm1, %xmm3              # xmm3 = xmm1[3,0,1,2]
.Ltmp867:
	#DEBUG_VALUE: blockmix_salsa8_xor:X3 <- $xmm3
	.loc	7 173 4851                      # crypto_pwhash/scryptsalsa208sha256/sse/pwhash_scryptsalsa208sha256_sse.c:173:4851
	movdqa	%xmm3, %xmm1
	paddd	%xmm0, %xmm1
.Ltmp868:
	#DEBUG_VALUE: T <- $xmm1
	.loc	7 173 4897                      # crypto_pwhash/scryptsalsa208sha256/sse/pwhash_scryptsalsa208sha256_sse.c:173:4897
	movdqa	%xmm1, %xmm9
	pslld	$7, %xmm9
	.loc	7 173 4879                      # crypto_pwhash/scryptsalsa208sha256/sse/pwhash_scryptsalsa208sha256_sse.c:173:4879
	pxor	%xmm8, %xmm9
.Ltmp869:
	#DEBUG_VALUE: blockmix_salsa8_xor:X1 <- $xmm9
	.loc	7 173 4943                      # crypto_pwhash/scryptsalsa208sha256/sse/pwhash_scryptsalsa208sha256_sse.c:173:4943
	psrld	$25, %xmm1
.Ltmp870:
	.loc	7 173 4925                      # crypto_pwhash/scryptsalsa208sha256/sse/pwhash_scryptsalsa208sha256_sse.c:173:4925
	pxor	%xmm9, %xmm1
.Ltmp871:
	#DEBUG_VALUE: blockmix_salsa8_xor:X1 <- $xmm1
	.loc	7 173 4987                      # crypto_pwhash/scryptsalsa208sha256/sse/pwhash_scryptsalsa208sha256_sse.c:173:4987
	movdqa	%xmm1, %xmm9
	paddd	%xmm0, %xmm9
.Ltmp872:
	#DEBUG_VALUE: T <- $xmm9
	.loc	7 173 5033                      # crypto_pwhash/scryptsalsa208sha256/sse/pwhash_scryptsalsa208sha256_sse.c:173:5033
	movdqa	%xmm9, %xmm8
	pslld	$9, %xmm8
	.loc	7 173 5015                      # crypto_pwhash/scryptsalsa208sha256/sse/pwhash_scryptsalsa208sha256_sse.c:173:5015
	pxor	%xmm2, %xmm8
.Ltmp873:
	#DEBUG_VALUE: blockmix_salsa8_xor:X2 <- $xmm8
	.loc	7 173 5079                      # crypto_pwhash/scryptsalsa208sha256/sse/pwhash_scryptsalsa208sha256_sse.c:173:5079
	psrld	$23, %xmm9
.Ltmp874:
	.loc	7 173 5061                      # crypto_pwhash/scryptsalsa208sha256/sse/pwhash_scryptsalsa208sha256_sse.c:173:5061
	pxor	%xmm8, %xmm9
.Ltmp875:
	#DEBUG_VALUE: blockmix_salsa8_xor:X2 <- $xmm9
	.loc	7 173 5123                      # crypto_pwhash/scryptsalsa208sha256/sse/pwhash_scryptsalsa208sha256_sse.c:173:5123
	movdqa	%xmm9, %xmm8
	paddd	%xmm1, %xmm8
.Ltmp876:
	#DEBUG_VALUE: T <- $xmm8
	.loc	7 173 5198                      # crypto_pwhash/scryptsalsa208sha256/sse/pwhash_scryptsalsa208sha256_sse.c:173:5198
	movdqa	%xmm8, %xmm2
	psrld	$19, %xmm2
	pslld	$13, %xmm8
.Ltmp877:
	por	%xmm2, %xmm8
	pxor	%xmm3, %xmm8
.Ltmp878:
	#DEBUG_VALUE: blockmix_salsa8_xor:X2 <- undef
	.loc	7 173 5550                      # crypto_pwhash/scryptsalsa208sha256/sse/pwhash_scryptsalsa208sha256_sse.c:173:5550
	pshufd	$57, %xmm8, %xmm3               # xmm3 = xmm8[1,2,3,0]
.Ltmp879:
	#DEBUG_VALUE: blockmix_salsa8_xor:X3 <- $xmm8
	.loc	7 173 5261                      # crypto_pwhash/scryptsalsa208sha256/sse/pwhash_scryptsalsa208sha256_sse.c:173:5261
	paddd	%xmm9, %xmm8
.Ltmp880:
	#DEBUG_VALUE: T <- $xmm8
	.loc	7 173 5336                      # crypto_pwhash/scryptsalsa208sha256/sse/pwhash_scryptsalsa208sha256_sse.c:173:5336
	movdqa	%xmm8, %xmm2
	psrld	$14, %xmm2
	pslld	$18, %xmm8
.Ltmp881:
	por	%xmm2, %xmm8
.Ltmp882:
	.loc	7 173 5400                      # crypto_pwhash/scryptsalsa208sha256/sse/pwhash_scryptsalsa208sha256_sse.c:173:5400
	pshufd	$147, %xmm1, %xmm1              # xmm1 = xmm1[3,0,1,2]
.Ltmp883:
	#DEBUG_VALUE: blockmix_salsa8_xor:X1 <- $xmm1
	.loc	7 173 5475                      # crypto_pwhash/scryptsalsa208sha256/sse/pwhash_scryptsalsa208sha256_sse.c:173:5475
	pshufd	$78, %xmm9, %xmm9               # xmm9 = xmm9[2,3,0,1]
.Ltmp884:
	#DEBUG_VALUE: blockmix_salsa8_xor:X2 <- $xmm9
	#DEBUG_VALUE: blockmix_salsa8_xor:X3 <- $xmm3
	.loc	7 173 5624                      # crypto_pwhash/scryptsalsa208sha256/sse/pwhash_scryptsalsa208sha256_sse.c:173:5624
	pxor	%xmm0, %xmm8
	movdqa	%xmm1, %xmm2
	paddd	%xmm8, %xmm2
.Ltmp885:
	#DEBUG_VALUE: T <- $xmm2
	.loc	7 173 5670                      # crypto_pwhash/scryptsalsa208sha256/sse/pwhash_scryptsalsa208sha256_sse.c:173:5670
	movdqa	%xmm2, %xmm0
	pslld	$7, %xmm0
	.loc	7 173 5652                      # crypto_pwhash/scryptsalsa208sha256/sse/pwhash_scryptsalsa208sha256_sse.c:173:5652
	pxor	%xmm3, %xmm0
.Ltmp886:
	#DEBUG_VALUE: blockmix_salsa8_xor:X3 <- $xmm0
	.loc	7 173 5716                      # crypto_pwhash/scryptsalsa208sha256/sse/pwhash_scryptsalsa208sha256_sse.c:173:5716
	psrld	$25, %xmm2
.Ltmp887:
	.loc	7 173 5698                      # crypto_pwhash/scryptsalsa208sha256/sse/pwhash_scryptsalsa208sha256_sse.c:173:5698
	pxor	%xmm0, %xmm2
.Ltmp888:
	#DEBUG_VALUE: blockmix_salsa8_xor:X3 <- $xmm2
	.loc	7 173 5760                      # crypto_pwhash/scryptsalsa208sha256/sse/pwhash_scryptsalsa208sha256_sse.c:173:5760
	movdqa	%xmm2, %xmm3
	paddd	%xmm8, %xmm3
.Ltmp889:
	#DEBUG_VALUE: T <- $xmm3
	.loc	7 173 5806                      # crypto_pwhash/scryptsalsa208sha256/sse/pwhash_scryptsalsa208sha256_sse.c:173:5806
	movdqa	%xmm3, %xmm0
	pslld	$9, %xmm0
	.loc	7 173 5788                      # crypto_pwhash/scryptsalsa208sha256/sse/pwhash_scryptsalsa208sha256_sse.c:173:5788
	pxor	%xmm9, %xmm0
.Ltmp890:
	#DEBUG_VALUE: blockmix_salsa8_xor:X2 <- $xmm0
	.loc	7 173 5852                      # crypto_pwhash/scryptsalsa208sha256/sse/pwhash_scryptsalsa208sha256_sse.c:173:5852
	psrld	$23, %xmm3
.Ltmp891:
	.loc	7 173 5834                      # crypto_pwhash/scryptsalsa208sha256/sse/pwhash_scryptsalsa208sha256_sse.c:173:5834
	pxor	%xmm0, %xmm3
.Ltmp892:
	#DEBUG_VALUE: blockmix_salsa8_xor:X2 <- $xmm3
	.loc	7 173 5896                      # crypto_pwhash/scryptsalsa208sha256/sse/pwhash_scryptsalsa208sha256_sse.c:173:5896
	movdqa	%xmm3, %xmm0
	paddd	%xmm2, %xmm0
.Ltmp893:
	#DEBUG_VALUE: T <- $xmm0
	.loc	7 173 5971                      # crypto_pwhash/scryptsalsa208sha256/sse/pwhash_scryptsalsa208sha256_sse.c:173:5971
	movdqa	%xmm0, %xmm9
	psrld	$19, %xmm9
	pslld	$13, %xmm0
.Ltmp894:
	por	%xmm9, %xmm0
	pxor	%xmm1, %xmm0
.Ltmp895:
	.loc	7 173 6173                      # crypto_pwhash/scryptsalsa208sha256/sse/pwhash_scryptsalsa208sha256_sse.c:173:6173
	pshufd	$57, %xmm0, %xmm1               # xmm1 = xmm0[1,2,3,0]
.Ltmp896:
	#DEBUG_VALUE: blockmix_salsa8_xor:X1 <- $xmm0
	.loc	7 173 6034                      # crypto_pwhash/scryptsalsa208sha256/sse/pwhash_scryptsalsa208sha256_sse.c:173:6034
	paddd	%xmm3, %xmm0
.Ltmp897:
	#DEBUG_VALUE: T <- $xmm0
	.loc	7 173 6109                      # crypto_pwhash/scryptsalsa208sha256/sse/pwhash_scryptsalsa208sha256_sse.c:173:6109
	movdqa	%xmm0, %xmm9
	psrld	$14, %xmm9
	pslld	$18, %xmm0
.Ltmp898:
	por	%xmm9, %xmm0
.Ltmp899:
	#DEBUG_VALUE: blockmix_salsa8_xor:X1 <- $xmm1
	.loc	7 173 6248                      # crypto_pwhash/scryptsalsa208sha256/sse/pwhash_scryptsalsa208sha256_sse.c:173:6248
	pshufd	$78, %xmm3, %xmm3               # xmm3 = xmm3[2,3,0,1]
.Ltmp900:
	#DEBUG_VALUE: blockmix_salsa8_xor:X2 <- $xmm3
	.loc	7 173 6323                      # crypto_pwhash/scryptsalsa208sha256/sse/pwhash_scryptsalsa208sha256_sse.c:173:6323
	pshufd	$147, %xmm2, %xmm2              # xmm2 = xmm2[3,0,1,2]
.Ltmp901:
	#DEBUG_VALUE: blockmix_salsa8_xor:X3 <- $xmm2
	.loc	7 173 6399                      # crypto_pwhash/scryptsalsa208sha256/sse/pwhash_scryptsalsa208sha256_sse.c:173:6399
	pxor	%xmm8, %xmm0
	paddd	%xmm7, %xmm0
.Ltmp902:
	#DEBUG_VALUE: blockmix_salsa8_xor:X0 <- $xmm0
	.loc	7 173 6392                      # crypto_pwhash/scryptsalsa208sha256/sse/pwhash_scryptsalsa208sha256_sse.c:173:6392
	movdqa	%xmm0, (%rdx)
	.loc	7 173 6439                      # crypto_pwhash/scryptsalsa208sha256/sse/pwhash_scryptsalsa208sha256_sse.c:173:6439
	paddd	%xmm6, %xmm1
.Ltmp903:
	#DEBUG_VALUE: blockmix_salsa8_xor:X1 <- $xmm1
	.loc	7 173 6432                      # crypto_pwhash/scryptsalsa208sha256/sse/pwhash_scryptsalsa208sha256_sse.c:173:6432
	movdqa	%xmm1, 16(%rdx)
	.loc	7 173 6479                      # crypto_pwhash/scryptsalsa208sha256/sse/pwhash_scryptsalsa208sha256_sse.c:173:6479
	paddd	%xmm5, %xmm3
.Ltmp904:
	#DEBUG_VALUE: blockmix_salsa8_xor:X2 <- $xmm3
	.loc	7 173 6472                      # crypto_pwhash/scryptsalsa208sha256/sse/pwhash_scryptsalsa208sha256_sse.c:173:6472
	movdqa	%xmm3, 32(%rdx)
	.loc	7 173 6519                      # crypto_pwhash/scryptsalsa208sha256/sse/pwhash_scryptsalsa208sha256_sse.c:173:6519
	paddd	%xmm4, %xmm2
.Ltmp905:
	#DEBUG_VALUE: blockmix_salsa8_xor:X3 <- $xmm2
	.loc	7 173 6512                      # crypto_pwhash/scryptsalsa208sha256/sse/pwhash_scryptsalsa208sha256_sse.c:173:6512
	movdqa	%xmm2, 48(%rdx)
.Ltmp906:
	#DEBUG_VALUE: blockmix_salsa8_xor:i <- 0
	.loc	7 177 19 is_stmt 1              # crypto_pwhash/scryptsalsa208sha256/sse/pwhash_scryptsalsa208sha256_sse.c:177:19
	movq	%rcx, %rax
	decq	%rax
.Ltmp907:
	#DEBUG_VALUE: blockmix_salsa8_xor:r <- $rax
	.loc	7 177 5 is_stmt 0               # crypto_pwhash/scryptsalsa208sha256/sse/pwhash_scryptsalsa208sha256_sse.c:177:5
	je	.LBB2_3
.Ltmp908:
# %bb.1:                                # %.lr.ph.preheader
	#DEBUG_VALUE: blockmix_salsa8_xor:Bin1 <- $rdi
	#DEBUG_VALUE: blockmix_salsa8_xor:Bin2 <- $rsi
	#DEBUG_VALUE: blockmix_salsa8_xor:Bout <- $rdx
	#DEBUG_VALUE: blockmix_salsa8_xor:r <- $rax
	#DEBUG_VALUE: blockmix_salsa8_xor:X0 <- $xmm0
	#DEBUG_VALUE: blockmix_salsa8_xor:X1 <- $xmm1
	#DEBUG_VALUE: blockmix_salsa8_xor:X2 <- $xmm3
	#DEBUG_VALUE: blockmix_salsa8_xor:X3 <- $xmm2
	#DEBUG_VALUE: blockmix_salsa8_xor:i <- 0
	shlq	$6, %rcx
	leaq	(%rcx,%rdx), %r8
	addq	$48, %r8
	addq	$-64, %rcx
	xorl	%r9d, %r9d
.Ltmp909:
	.loc	7 0 5                           # :0:5
.Ltmp910:
	.p2align	4
.LBB2_2:                                # %.lr.ph
                                        # =>This Inner Loop Header: Depth=1
	#DEBUG_VALUE: blockmix_salsa8_xor:Bin1 <- $rdi
	#DEBUG_VALUE: blockmix_salsa8_xor:Bin2 <- $rsi
	#DEBUG_VALUE: blockmix_salsa8_xor:Bout <- $rdx
	#DEBUG_VALUE: blockmix_salsa8_xor:r <- $rax
	#DEBUG_VALUE: blockmix_salsa8_xor:X0 <- $xmm0
	#DEBUG_VALUE: blockmix_salsa8_xor:X1 <- $xmm1
	#DEBUG_VALUE: blockmix_salsa8_xor:X2 <- $xmm3
	#DEBUG_VALUE: blockmix_salsa8_xor:X3 <- $xmm2
	#DEBUG_VALUE: blockmix_salsa8_xor:i <- [DW_OP_consts 64, DW_OP_div, DW_OP_stack_value] $r9
	#DEBUG_VALUE: blockmix_salsa8_xor:X0 <- undef
	#DEBUG_VALUE: blockmix_salsa8_xor:X1 <- undef
	#DEBUG_VALUE: blockmix_salsa8_xor:X2 <- undef
	#DEBUG_VALUE: blockmix_salsa8_xor:X3 <- undef
	.loc	7 182 29 is_stmt 1              # crypto_pwhash/scryptsalsa208sha256/sse/pwhash_scryptsalsa208sha256_sse.c:182:29
	pxor	64(%rdi,%r9,2), %xmm0
	pxor	64(%rsi,%r9,2), %xmm0
.Ltmp911:
	#DEBUG_VALUE: blockmix_salsa8_xor:X0 <- $xmm0
	#DEBUG_VALUE: Y0 <- $xmm0
	.loc	7 182 89 is_stmt 0              # crypto_pwhash/scryptsalsa208sha256/sse/pwhash_scryptsalsa208sha256_sse.c:182:89
	pxor	80(%rdi,%r9,2), %xmm1
	pxor	80(%rsi,%r9,2), %xmm1
.Ltmp912:
	#DEBUG_VALUE: blockmix_salsa8_xor:X1 <- $xmm1
	#DEBUG_VALUE: Y1 <- $xmm1
	.loc	7 182 149                       # crypto_pwhash/scryptsalsa208sha256/sse/pwhash_scryptsalsa208sha256_sse.c:182:149
	pxor	96(%rdi,%r9,2), %xmm3
	pxor	96(%rsi,%r9,2), %xmm3
.Ltmp913:
	#DEBUG_VALUE: blockmix_salsa8_xor:X2 <- $xmm3
	#DEBUG_VALUE: Y2 <- $xmm3
	.loc	7 182 209                       # crypto_pwhash/scryptsalsa208sha256/sse/pwhash_scryptsalsa208sha256_sse.c:182:209
	pxor	112(%rdi,%r9,2), %xmm2
	pxor	112(%rsi,%r9,2), %xmm2
.Ltmp914:
	#DEBUG_VALUE: blockmix_salsa8_xor:X3 <- $xmm2
	#DEBUG_VALUE: Y3 <- $xmm2
	.loc	7 182 265                       # crypto_pwhash/scryptsalsa208sha256/sse/pwhash_scryptsalsa208sha256_sse.c:182:265
	movdqa	%xmm2, %xmm5
	paddd	%xmm0, %xmm5
.Ltmp915:
	#DEBUG_VALUE: blockmix_salsa8_xor:X1 <- [DW_OP_LLVM_arg 0, DW_OP_LLVM_arg 0, DW_OP_LLVM_arg 0, DW_OP_shl, DW_OP_xor, DW_OP_stack_value] undef
	#DEBUG_VALUE: T <- $xmm5
	.loc	7 182 339                       # crypto_pwhash/scryptsalsa208sha256/sse/pwhash_scryptsalsa208sha256_sse.c:182:339
	movdqa	%xmm5, %xmm4
	psrld	$25, %xmm4
	pslld	$7, %xmm5
.Ltmp916:
	por	%xmm4, %xmm5
.Ltmp917:
	#DEBUG_VALUE: blockmix_salsa8_xor:X1 <- undef
	.loc	7 182 401                       # crypto_pwhash/scryptsalsa208sha256/sse/pwhash_scryptsalsa208sha256_sse.c:182:401
	pxor	%xmm1, %xmm5
	movdqa	%xmm5, %xmm6
	paddd	%xmm0, %xmm6
.Ltmp918:
	#DEBUG_VALUE: blockmix_salsa8_xor:X2 <- [DW_OP_LLVM_arg 0, DW_OP_LLVM_arg 0, DW_OP_LLVM_arg 0, DW_OP_shl, DW_OP_xor, DW_OP_stack_value] undef
	#DEBUG_VALUE: T <- $xmm6
	.loc	7 182 475                       # crypto_pwhash/scryptsalsa208sha256/sse/pwhash_scryptsalsa208sha256_sse.c:182:475
	movdqa	%xmm6, %xmm4
	psrld	$23, %xmm4
	pslld	$9, %xmm6
.Ltmp919:
	por	%xmm4, %xmm6
.Ltmp920:
	#DEBUG_VALUE: blockmix_salsa8_xor:X2 <- undef
	.loc	7 182 537                       # crypto_pwhash/scryptsalsa208sha256/sse/pwhash_scryptsalsa208sha256_sse.c:182:537
	pxor	%xmm3, %xmm6
	movdqa	%xmm6, %xmm4
	paddd	%xmm5, %xmm4
.Ltmp921:
	#DEBUG_VALUE: blockmix_salsa8_xor:X3 <- [DW_OP_LLVM_arg 0, DW_OP_LLVM_arg 0, DW_OP_LLVM_arg 0, DW_OP_shl, DW_OP_xor, DW_OP_stack_value] undef
	#DEBUG_VALUE: T <- $xmm4
	.loc	7 182 612                       # crypto_pwhash/scryptsalsa208sha256/sse/pwhash_scryptsalsa208sha256_sse.c:182:612
	movdqa	%xmm4, %xmm7
	psrld	$19, %xmm7
	pslld	$13, %xmm4
.Ltmp922:
	por	%xmm7, %xmm4
.Ltmp923:
	#DEBUG_VALUE: blockmix_salsa8_xor:X3 <- undef
	.loc	7 182 675                       # crypto_pwhash/scryptsalsa208sha256/sse/pwhash_scryptsalsa208sha256_sse.c:182:675
	pxor	%xmm2, %xmm4
.Ltmp924:
	#DEBUG_VALUE: blockmix_salsa8_xor:X2 <- undef
	.loc	7 182 964                       # crypto_pwhash/scryptsalsa208sha256/sse/pwhash_scryptsalsa208sha256_sse.c:182:964
	pshufd	$57, %xmm4, %xmm7               # xmm7 = xmm4[1,2,3,0]
.Ltmp925:
	.loc	7 182 675                       # crypto_pwhash/scryptsalsa208sha256/sse/pwhash_scryptsalsa208sha256_sse.c:182:675
	paddd	%xmm6, %xmm4
.Ltmp926:
	#DEBUG_VALUE: blockmix_salsa8_xor:X0 <- [DW_OP_LLVM_arg 0, DW_OP_LLVM_arg 0, DW_OP_LLVM_arg 0, DW_OP_shl, DW_OP_xor, DW_OP_stack_value] undef
	#DEBUG_VALUE: T <- $xmm4
	.loc	7 182 750                       # crypto_pwhash/scryptsalsa208sha256/sse/pwhash_scryptsalsa208sha256_sse.c:182:750
	movdqa	%xmm4, %xmm8
	psrld	$14, %xmm8
	pslld	$18, %xmm4
.Ltmp927:
	por	%xmm8, %xmm4
	pxor	%xmm0, %xmm4
.Ltmp928:
	#DEBUG_VALUE: blockmix_salsa8_xor:X0 <- undef
	.loc	7 182 814                       # crypto_pwhash/scryptsalsa208sha256/sse/pwhash_scryptsalsa208sha256_sse.c:182:814
	pshufd	$147, %xmm5, %xmm8              # xmm8 = xmm5[3,0,1,2]
.Ltmp929:
	#DEBUG_VALUE: blockmix_salsa8_xor:X1 <- $xmm8
	.loc	7 182 889                       # crypto_pwhash/scryptsalsa208sha256/sse/pwhash_scryptsalsa208sha256_sse.c:182:889
	pshufd	$78, %xmm6, %xmm5               # xmm5 = xmm6[2,3,0,1]
.Ltmp930:
	#DEBUG_VALUE: blockmix_salsa8_xor:X2 <- $xmm5
	#DEBUG_VALUE: blockmix_salsa8_xor:X3 <- $xmm7
	.loc	7 182 1038                      # crypto_pwhash/scryptsalsa208sha256/sse/pwhash_scryptsalsa208sha256_sse.c:182:1038
	movdqa	%xmm8, %xmm6
	paddd	%xmm4, %xmm6
.Ltmp931:
	#DEBUG_VALUE: T <- $xmm6
	.loc	7 182 1084                      # crypto_pwhash/scryptsalsa208sha256/sse/pwhash_scryptsalsa208sha256_sse.c:182:1084
	movdqa	%xmm6, %xmm9
	pslld	$7, %xmm9
	.loc	7 182 1066                      # crypto_pwhash/scryptsalsa208sha256/sse/pwhash_scryptsalsa208sha256_sse.c:182:1066
	pxor	%xmm7, %xmm9
.Ltmp932:
	#DEBUG_VALUE: blockmix_salsa8_xor:X3 <- $xmm9
	.loc	7 182 1130                      # crypto_pwhash/scryptsalsa208sha256/sse/pwhash_scryptsalsa208sha256_sse.c:182:1130
	psrld	$25, %xmm6
.Ltmp933:
	.loc	7 182 1112                      # crypto_pwhash/scryptsalsa208sha256/sse/pwhash_scryptsalsa208sha256_sse.c:182:1112
	pxor	%xmm9, %xmm6
.Ltmp934:
	#DEBUG_VALUE: blockmix_salsa8_xor:X3 <- $xmm6
	.loc	7 182 1174                      # crypto_pwhash/scryptsalsa208sha256/sse/pwhash_scryptsalsa208sha256_sse.c:182:1174
	movdqa	%xmm6, %xmm7
	paddd	%xmm4, %xmm7
.Ltmp935:
	#DEBUG_VALUE: T <- $xmm7
	.loc	7 182 1220                      # crypto_pwhash/scryptsalsa208sha256/sse/pwhash_scryptsalsa208sha256_sse.c:182:1220
	movdqa	%xmm7, %xmm9
	pslld	$9, %xmm9
	.loc	7 182 1202                      # crypto_pwhash/scryptsalsa208sha256/sse/pwhash_scryptsalsa208sha256_sse.c:182:1202
	pxor	%xmm5, %xmm9
.Ltmp936:
	#DEBUG_VALUE: blockmix_salsa8_xor:X2 <- $xmm9
	.loc	7 182 1266                      # crypto_pwhash/scryptsalsa208sha256/sse/pwhash_scryptsalsa208sha256_sse.c:182:1266
	psrld	$23, %xmm7
.Ltmp937:
	.loc	7 182 1248                      # crypto_pwhash/scryptsalsa208sha256/sse/pwhash_scryptsalsa208sha256_sse.c:182:1248
	pxor	%xmm9, %xmm7
.Ltmp938:
	#DEBUG_VALUE: blockmix_salsa8_xor:X2 <- $xmm7
	.loc	7 182 1310                      # crypto_pwhash/scryptsalsa208sha256/sse/pwhash_scryptsalsa208sha256_sse.c:182:1310
	movdqa	%xmm7, %xmm5
	paddd	%xmm6, %xmm5
.Ltmp939:
	#DEBUG_VALUE: T <- $xmm5
	.loc	7 182 1385                      # crypto_pwhash/scryptsalsa208sha256/sse/pwhash_scryptsalsa208sha256_sse.c:182:1385
	movdqa	%xmm5, %xmm9
	psrld	$19, %xmm9
	pslld	$13, %xmm5
.Ltmp940:
	por	%xmm9, %xmm5
	pxor	%xmm8, %xmm5
.Ltmp941:
	.loc	7 182 1587                      # crypto_pwhash/scryptsalsa208sha256/sse/pwhash_scryptsalsa208sha256_sse.c:182:1587
	pshufd	$57, %xmm5, %xmm8               # xmm8 = xmm5[1,2,3,0]
.Ltmp942:
	#DEBUG_VALUE: blockmix_salsa8_xor:X1 <- $xmm5
	.loc	7 182 1448                      # crypto_pwhash/scryptsalsa208sha256/sse/pwhash_scryptsalsa208sha256_sse.c:182:1448
	paddd	%xmm7, %xmm5
.Ltmp943:
	#DEBUG_VALUE: T <- $xmm5
	.loc	7 182 1523                      # crypto_pwhash/scryptsalsa208sha256/sse/pwhash_scryptsalsa208sha256_sse.c:182:1523
	movdqa	%xmm5, %xmm9
	psrld	$14, %xmm9
	pslld	$18, %xmm5
.Ltmp944:
	por	%xmm9, %xmm5
	pxor	%xmm4, %xmm5
.Ltmp945:
	#DEBUG_VALUE: blockmix_salsa8_xor:X1 <- $xmm8
	.loc	7 182 1662                      # crypto_pwhash/scryptsalsa208sha256/sse/pwhash_scryptsalsa208sha256_sse.c:182:1662
	pshufd	$78, %xmm7, %xmm4               # xmm4 = xmm7[2,3,0,1]
.Ltmp946:
	#DEBUG_VALUE: blockmix_salsa8_xor:X2 <- $xmm4
	.loc	7 182 1737                      # crypto_pwhash/scryptsalsa208sha256/sse/pwhash_scryptsalsa208sha256_sse.c:182:1737
	pshufd	$147, %xmm6, %xmm7              # xmm7 = xmm6[3,0,1,2]
.Ltmp947:
	#DEBUG_VALUE: blockmix_salsa8_xor:X3 <- $xmm7
	.loc	7 182 1811                      # crypto_pwhash/scryptsalsa208sha256/sse/pwhash_scryptsalsa208sha256_sse.c:182:1811
	movdqa	%xmm7, %xmm6
	paddd	%xmm5, %xmm6
.Ltmp948:
	#DEBUG_VALUE: T <- $xmm6
	.loc	7 182 1857                      # crypto_pwhash/scryptsalsa208sha256/sse/pwhash_scryptsalsa208sha256_sse.c:182:1857
	movdqa	%xmm6, %xmm9
	pslld	$7, %xmm9
	.loc	7 182 1839                      # crypto_pwhash/scryptsalsa208sha256/sse/pwhash_scryptsalsa208sha256_sse.c:182:1839
	pxor	%xmm8, %xmm9
.Ltmp949:
	#DEBUG_VALUE: blockmix_salsa8_xor:X1 <- $xmm9
	.loc	7 182 1903                      # crypto_pwhash/scryptsalsa208sha256/sse/pwhash_scryptsalsa208sha256_sse.c:182:1903
	psrld	$25, %xmm6
.Ltmp950:
	.loc	7 182 1885                      # crypto_pwhash/scryptsalsa208sha256/sse/pwhash_scryptsalsa208sha256_sse.c:182:1885
	pxor	%xmm9, %xmm6
.Ltmp951:
	#DEBUG_VALUE: blockmix_salsa8_xor:X1 <- $xmm6
	.loc	7 182 1947                      # crypto_pwhash/scryptsalsa208sha256/sse/pwhash_scryptsalsa208sha256_sse.c:182:1947
	movdqa	%xmm6, %xmm8
	paddd	%xmm5, %xmm8
.Ltmp952:
	#DEBUG_VALUE: T <- $xmm8
	.loc	7 182 1993                      # crypto_pwhash/scryptsalsa208sha256/sse/pwhash_scryptsalsa208sha256_sse.c:182:1993
	movdqa	%xmm8, %xmm9
	pslld	$9, %xmm9
	.loc	7 182 1975                      # crypto_pwhash/scryptsalsa208sha256/sse/pwhash_scryptsalsa208sha256_sse.c:182:1975
	pxor	%xmm4, %xmm9
.Ltmp953:
	#DEBUG_VALUE: blockmix_salsa8_xor:X2 <- $xmm9
	.loc	7 182 2039                      # crypto_pwhash/scryptsalsa208sha256/sse/pwhash_scryptsalsa208sha256_sse.c:182:2039
	psrld	$23, %xmm8
.Ltmp954:
	.loc	7 182 2021                      # crypto_pwhash/scryptsalsa208sha256/sse/pwhash_scryptsalsa208sha256_sse.c:182:2021
	pxor	%xmm9, %xmm8
.Ltmp955:
	#DEBUG_VALUE: blockmix_salsa8_xor:X2 <- $xmm8
	.loc	7 182 2083                      # crypto_pwhash/scryptsalsa208sha256/sse/pwhash_scryptsalsa208sha256_sse.c:182:2083
	movdqa	%xmm8, %xmm4
	paddd	%xmm6, %xmm4
.Ltmp956:
	#DEBUG_VALUE: T <- $xmm4
	.loc	7 182 2158                      # crypto_pwhash/scryptsalsa208sha256/sse/pwhash_scryptsalsa208sha256_sse.c:182:2158
	movdqa	%xmm4, %xmm9
	psrld	$19, %xmm9
	pslld	$13, %xmm4
.Ltmp957:
	por	%xmm9, %xmm4
	pxor	%xmm7, %xmm4
.Ltmp958:
	#DEBUG_VALUE: blockmix_salsa8_xor:X2 <- undef
	.loc	7 182 2510                      # crypto_pwhash/scryptsalsa208sha256/sse/pwhash_scryptsalsa208sha256_sse.c:182:2510
	pshufd	$57, %xmm4, %xmm7               # xmm7 = xmm4[1,2,3,0]
.Ltmp959:
	#DEBUG_VALUE: blockmix_salsa8_xor:X3 <- $xmm4
	.loc	7 182 2221                      # crypto_pwhash/scryptsalsa208sha256/sse/pwhash_scryptsalsa208sha256_sse.c:182:2221
	paddd	%xmm8, %xmm4
.Ltmp960:
	#DEBUG_VALUE: T <- $xmm4
	.loc	7 182 2296                      # crypto_pwhash/scryptsalsa208sha256/sse/pwhash_scryptsalsa208sha256_sse.c:182:2296
	movdqa	%xmm4, %xmm9
	psrld	$14, %xmm9
	pslld	$18, %xmm4
.Ltmp961:
	por	%xmm9, %xmm4
	pxor	%xmm5, %xmm4
.Ltmp962:
	.loc	7 182 2360                      # crypto_pwhash/scryptsalsa208sha256/sse/pwhash_scryptsalsa208sha256_sse.c:182:2360
	pshufd	$147, %xmm6, %xmm9              # xmm9 = xmm6[3,0,1,2]
.Ltmp963:
	#DEBUG_VALUE: blockmix_salsa8_xor:X1 <- $xmm9
	.loc	7 182 2435                      # crypto_pwhash/scryptsalsa208sha256/sse/pwhash_scryptsalsa208sha256_sse.c:182:2435
	pshufd	$78, %xmm8, %xmm5               # xmm5 = xmm8[2,3,0,1]
.Ltmp964:
	#DEBUG_VALUE: blockmix_salsa8_xor:X2 <- $xmm5
	#DEBUG_VALUE: blockmix_salsa8_xor:X3 <- $xmm7
	.loc	7 182 2584                      # crypto_pwhash/scryptsalsa208sha256/sse/pwhash_scryptsalsa208sha256_sse.c:182:2584
	movdqa	%xmm9, %xmm6
	paddd	%xmm4, %xmm6
.Ltmp965:
	#DEBUG_VALUE: T <- $xmm6
	.loc	7 182 2630                      # crypto_pwhash/scryptsalsa208sha256/sse/pwhash_scryptsalsa208sha256_sse.c:182:2630
	movdqa	%xmm6, %xmm8
	pslld	$7, %xmm8
	.loc	7 182 2612                      # crypto_pwhash/scryptsalsa208sha256/sse/pwhash_scryptsalsa208sha256_sse.c:182:2612
	pxor	%xmm7, %xmm8
.Ltmp966:
	#DEBUG_VALUE: blockmix_salsa8_xor:X3 <- $xmm8
	.loc	7 182 2676                      # crypto_pwhash/scryptsalsa208sha256/sse/pwhash_scryptsalsa208sha256_sse.c:182:2676
	psrld	$25, %xmm6
.Ltmp967:
	.loc	7 182 2658                      # crypto_pwhash/scryptsalsa208sha256/sse/pwhash_scryptsalsa208sha256_sse.c:182:2658
	pxor	%xmm8, %xmm6
.Ltmp968:
	#DEBUG_VALUE: blockmix_salsa8_xor:X3 <- $xmm6
