	.file	"pwhash_argon2i.c"
	.file	0 "/home/leizhenyuu/opt/Anonymous_Repo/libsodium_o2_attr_inline/src/libsodium" "pwhash_argon2i.c" md5 0x2cf4e5a6ca28fa957daced131ca942b4
	.file	1 "crypto_pwhash/argon2" "pwhash_argon2i.c"
	.file	2 "crypto_pwhash/argon2" "argon2.h"
	.file	3 "/usr/include/x86_64-linux-gnu/bits" "types.h"
	.file	4 "/usr/include/x86_64-linux-gnu/bits" "stdint-uintn.h"
	.file	5 "/home/leizhenyuu/opt/Anonymous_Repo" "llvm-project/build/lib/clang/21/include/__stddef_size_t.h"
	.text
	.globl	crypto_pwhash_argon2i_alg_argon2i13 # -- Begin function crypto_pwhash_argon2i_alg_argon2i13
	.p2align	4
	.type	crypto_pwhash_argon2i_alg_argon2i13,@function
crypto_pwhash_argon2i_alg_argon2i13:    # @crypto_pwhash_argon2i_alg_argon2i13
.Lfunc_begin0:
	.cfi_startproc
# %bb.0:
	.loc	1 24 5 prologue_end             # crypto_pwhash/argon2/pwhash_argon2i.c:24:5
	movl	$1, %eax
	retq
.Ltmp0:
.Lfunc_end0:
	.size	crypto_pwhash_argon2i_alg_argon2i13, .Lfunc_end0-crypto_pwhash_argon2i_alg_argon2i13
	.cfi_endproc
                                        # -- End function
	.globl	crypto_pwhash_argon2i_bytes_min # -- Begin function crypto_pwhash_argon2i_bytes_min
	.p2align	4
	.type	crypto_pwhash_argon2i_bytes_min,@function
crypto_pwhash_argon2i_bytes_min:        # @crypto_pwhash_argon2i_bytes_min
.Lfunc_begin1:
	.cfi_startproc
# %bb.0:
	.loc	1 31 5 prologue_end             # crypto_pwhash/argon2/pwhash_argon2i.c:31:5
	movl	$16, %eax
	retq
.Ltmp1:
.Lfunc_end1:
	.size	crypto_pwhash_argon2i_bytes_min, .Lfunc_end1-crypto_pwhash_argon2i_bytes_min
	.cfi_endproc
                                        # -- End function
	.globl	crypto_pwhash_argon2i_bytes_max # -- Begin function crypto_pwhash_argon2i_bytes_max
	.p2align	4
	.type	crypto_pwhash_argon2i_bytes_max,@function
crypto_pwhash_argon2i_bytes_max:        # @crypto_pwhash_argon2i_bytes_max
.Lfunc_begin2:
	.cfi_startproc
# %bb.0:
	.loc	1 38 5 prologue_end             # crypto_pwhash/argon2/pwhash_argon2i.c:38:5
	movl	$4294967295, %eax               # imm = 0xFFFFFFFF
	retq
.Ltmp2:
.Lfunc_end2:
	.size	crypto_pwhash_argon2i_bytes_max, .Lfunc_end2-crypto_pwhash_argon2i_bytes_max
	.cfi_endproc
                                        # -- End function
	.globl	crypto_pwhash_argon2i_passwd_min # -- Begin function crypto_pwhash_argon2i_passwd_min
	.p2align	4
	.type	crypto_pwhash_argon2i_passwd_min,@function
crypto_pwhash_argon2i_passwd_min:       # @crypto_pwhash_argon2i_passwd_min
.Lfunc_begin3:
	.cfi_startproc
# %bb.0:
	.loc	1 45 5 prologue_end             # crypto_pwhash/argon2/pwhash_argon2i.c:45:5
	xorl	%eax, %eax
	retq
.Ltmp3:
.Lfunc_end3:
	.size	crypto_pwhash_argon2i_passwd_min, .Lfunc_end3-crypto_pwhash_argon2i_passwd_min
	.cfi_endproc
                                        # -- End function
	.globl	crypto_pwhash_argon2i_passwd_max # -- Begin function crypto_pwhash_argon2i_passwd_max
	.p2align	4
	.type	crypto_pwhash_argon2i_passwd_max,@function
crypto_pwhash_argon2i_passwd_max:       # @crypto_pwhash_argon2i_passwd_max
.Lfunc_begin4:
	.cfi_startproc
# %bb.0:
	.loc	1 52 5 prologue_end             # crypto_pwhash/argon2/pwhash_argon2i.c:52:5
	movl	$4294967295, %eax               # imm = 0xFFFFFFFF
	retq
.Ltmp4:
.Lfunc_end4:
	.size	crypto_pwhash_argon2i_passwd_max, .Lfunc_end4-crypto_pwhash_argon2i_passwd_max
	.cfi_endproc
                                        # -- End function
	.globl	crypto_pwhash_argon2i_saltbytes # -- Begin function crypto_pwhash_argon2i_saltbytes
	.p2align	4
	.type	crypto_pwhash_argon2i_saltbytes,@function
crypto_pwhash_argon2i_saltbytes:        # @crypto_pwhash_argon2i_saltbytes
.Lfunc_begin5:
	.cfi_startproc
# %bb.0:
	.loc	1 60 5 prologue_end             # crypto_pwhash/argon2/pwhash_argon2i.c:60:5
	movl	$16, %eax
	retq
.Ltmp5:
.Lfunc_end5:
	.size	crypto_pwhash_argon2i_saltbytes, .Lfunc_end5-crypto_pwhash_argon2i_saltbytes
	.cfi_endproc
                                        # -- End function
	.globl	crypto_pwhash_argon2i_strbytes  # -- Begin function crypto_pwhash_argon2i_strbytes
	.p2align	4
	.type	crypto_pwhash_argon2i_strbytes,@function
crypto_pwhash_argon2i_strbytes:         # @crypto_pwhash_argon2i_strbytes
.Lfunc_begin6:
	.cfi_startproc
# %bb.0:
	.loc	1 66 5 prologue_end             # crypto_pwhash/argon2/pwhash_argon2i.c:66:5
	movl	$128, %eax
	retq
.Ltmp6:
.Lfunc_end6:
	.size	crypto_pwhash_argon2i_strbytes, .Lfunc_end6-crypto_pwhash_argon2i_strbytes
	.cfi_endproc
                                        # -- End function
	.globl	crypto_pwhash_argon2i_strprefix # -- Begin function crypto_pwhash_argon2i_strprefix
	.p2align	4
	.type	crypto_pwhash_argon2i_strprefix,@function
crypto_pwhash_argon2i_strprefix:        # @crypto_pwhash_argon2i_strprefix
.Lfunc_begin7:
	.cfi_startproc
# %bb.0:
	.loc	1 72 5 prologue_end             # crypto_pwhash/argon2/pwhash_argon2i.c:72:5
	leaq	.L.str(%rip), %rax
	retq
.Ltmp7:
.Lfunc_end7:
	.size	crypto_pwhash_argon2i_strprefix, .Lfunc_end7-crypto_pwhash_argon2i_strprefix
	.cfi_endproc
                                        # -- End function
	.globl	crypto_pwhash_argon2i_opslimit_min # -- Begin function crypto_pwhash_argon2i_opslimit_min
	.p2align	4
	.type	crypto_pwhash_argon2i_opslimit_min,@function
crypto_pwhash_argon2i_opslimit_min:     # @crypto_pwhash_argon2i_opslimit_min
.Lfunc_begin8:
	.cfi_startproc
# %bb.0:
	.loc	1 79 5 prologue_end             # crypto_pwhash/argon2/pwhash_argon2i.c:79:5
	movl	$3, %eax
	retq
.Ltmp8:
.Lfunc_end8:
	.size	crypto_pwhash_argon2i_opslimit_min, .Lfunc_end8-crypto_pwhash_argon2i_opslimit_min
	.cfi_endproc
                                        # -- End function
	.globl	crypto_pwhash_argon2i_opslimit_max # -- Begin function crypto_pwhash_argon2i_opslimit_max
	.p2align	4
	.type	crypto_pwhash_argon2i_opslimit_max,@function
crypto_pwhash_argon2i_opslimit_max:     # @crypto_pwhash_argon2i_opslimit_max
.Lfunc_begin9:
	.cfi_startproc
# %bb.0:
	.loc	1 86 5 prologue_end             # crypto_pwhash/argon2/pwhash_argon2i.c:86:5
	movl	$4294967295, %eax               # imm = 0xFFFFFFFF
	retq
.Ltmp9:
.Lfunc_end9:
	.size	crypto_pwhash_argon2i_opslimit_max, .Lfunc_end9-crypto_pwhash_argon2i_opslimit_max
	.cfi_endproc
                                        # -- End function
	.globl	crypto_pwhash_argon2i_memlimit_min # -- Begin function crypto_pwhash_argon2i_memlimit_min
	.p2align	4
	.type	crypto_pwhash_argon2i_memlimit_min,@function
crypto_pwhash_argon2i_memlimit_min:     # @crypto_pwhash_argon2i_memlimit_min
.Lfunc_begin10:
	.cfi_startproc
# %bb.0:
	.loc	1 93 5 prologue_end             # crypto_pwhash/argon2/pwhash_argon2i.c:93:5
	movl	$8192, %eax                     # imm = 0x2000
	retq
.Ltmp10:
.Lfunc_end10:
	.size	crypto_pwhash_argon2i_memlimit_min, .Lfunc_end10-crypto_pwhash_argon2i_memlimit_min
	.cfi_endproc
                                        # -- End function
	.globl	crypto_pwhash_argon2i_memlimit_max # -- Begin function crypto_pwhash_argon2i_memlimit_max
	.p2align	4
	.type	crypto_pwhash_argon2i_memlimit_max,@function
crypto_pwhash_argon2i_memlimit_max:     # @crypto_pwhash_argon2i_memlimit_max
.Lfunc_begin11:
	.loc	1 98 0                          # crypto_pwhash/argon2/pwhash_argon2i.c:98:0
	.cfi_startproc
# %bb.0:
	movabsq	$4398046510080, %rax            # imm = 0x3FFFFFFFC00
.Ltmp11:
	.loc	1 100 5 prologue_end            # crypto_pwhash/argon2/pwhash_argon2i.c:100:5
	retq
.Ltmp12:
.Lfunc_end11:
	.size	crypto_pwhash_argon2i_memlimit_max, .Lfunc_end11-crypto_pwhash_argon2i_memlimit_max
	.cfi_endproc
                                        # -- End function
	.globl	crypto_pwhash_argon2i_opslimit_interactive # -- Begin function crypto_pwhash_argon2i_opslimit_interactive
	.p2align	4
	.type	crypto_pwhash_argon2i_opslimit_interactive,@function
crypto_pwhash_argon2i_opslimit_interactive: # @crypto_pwhash_argon2i_opslimit_interactive
.Lfunc_begin12:
	.cfi_startproc
# %bb.0:
	.loc	1 106 5 prologue_end            # crypto_pwhash/argon2/pwhash_argon2i.c:106:5
	movl	$4, %eax
	retq
.Ltmp13:
.Lfunc_end12:
	.size	crypto_pwhash_argon2i_opslimit_interactive, .Lfunc_end12-crypto_pwhash_argon2i_opslimit_interactive
	.cfi_endproc
                                        # -- End function
	.globl	crypto_pwhash_argon2i_memlimit_interactive # -- Begin function crypto_pwhash_argon2i_memlimit_interactive
	.p2align	4
	.type	crypto_pwhash_argon2i_memlimit_interactive,@function
crypto_pwhash_argon2i_memlimit_interactive: # @crypto_pwhash_argon2i_memlimit_interactive
.Lfunc_begin13:
	.cfi_startproc
# %bb.0:
	.loc	1 112 5 prologue_end            # crypto_pwhash/argon2/pwhash_argon2i.c:112:5
	movl	$33554432, %eax                 # imm = 0x2000000
	retq
.Ltmp14:
.Lfunc_end13:
	.size	crypto_pwhash_argon2i_memlimit_interactive, .Lfunc_end13-crypto_pwhash_argon2i_memlimit_interactive
	.cfi_endproc
                                        # -- End function
	.globl	crypto_pwhash_argon2i_opslimit_moderate # -- Begin function crypto_pwhash_argon2i_opslimit_moderate
	.p2align	4
	.type	crypto_pwhash_argon2i_opslimit_moderate,@function
crypto_pwhash_argon2i_opslimit_moderate: # @crypto_pwhash_argon2i_opslimit_moderate
.Lfunc_begin14:
	.cfi_startproc
# %bb.0:
	.loc	1 118 5 prologue_end            # crypto_pwhash/argon2/pwhash_argon2i.c:118:5
	movl	$6, %eax
	retq
.Ltmp15:
.Lfunc_end14:
	.size	crypto_pwhash_argon2i_opslimit_moderate, .Lfunc_end14-crypto_pwhash_argon2i_opslimit_moderate
	.cfi_endproc
                                        # -- End function
	.globl	crypto_pwhash_argon2i_memlimit_moderate # -- Begin function crypto_pwhash_argon2i_memlimit_moderate
	.p2align	4
	.type	crypto_pwhash_argon2i_memlimit_moderate,@function
crypto_pwhash_argon2i_memlimit_moderate: # @crypto_pwhash_argon2i_memlimit_moderate
.Lfunc_begin15:
	.cfi_startproc
# %bb.0:
	.loc	1 124 5 prologue_end            # crypto_pwhash/argon2/pwhash_argon2i.c:124:5
	movl	$134217728, %eax                # imm = 0x8000000
	retq
.Ltmp16:
.Lfunc_end15:
	.size	crypto_pwhash_argon2i_memlimit_moderate, .Lfunc_end15-crypto_pwhash_argon2i_memlimit_moderate
	.cfi_endproc
                                        # -- End function
	.globl	crypto_pwhash_argon2i_opslimit_sensitive # -- Begin function crypto_pwhash_argon2i_opslimit_sensitive
	.p2align	4
	.type	crypto_pwhash_argon2i_opslimit_sensitive,@function
crypto_pwhash_argon2i_opslimit_sensitive: # @crypto_pwhash_argon2i_opslimit_sensitive
.Lfunc_begin16:
	.cfi_startproc
# %bb.0:
	.loc	1 130 5 prologue_end            # crypto_pwhash/argon2/pwhash_argon2i.c:130:5
	movl	$8, %eax
	retq
.Ltmp17:
.Lfunc_end16:
	.size	crypto_pwhash_argon2i_opslimit_sensitive, .Lfunc_end16-crypto_pwhash_argon2i_opslimit_sensitive
	.cfi_endproc
                                        # -- End function
	.globl	crypto_pwhash_argon2i_memlimit_sensitive # -- Begin function crypto_pwhash_argon2i_memlimit_sensitive
	.p2align	4
	.type	crypto_pwhash_argon2i_memlimit_sensitive,@function
crypto_pwhash_argon2i_memlimit_sensitive: # @crypto_pwhash_argon2i_memlimit_sensitive
.Lfunc_begin17:
	.cfi_startproc
# %bb.0:
	.loc	1 136 5 prologue_end            # crypto_pwhash/argon2/pwhash_argon2i.c:136:5
	movl	$536870912, %eax                # imm = 0x20000000
	retq
.Ltmp18:
.Lfunc_end17:
	.size	crypto_pwhash_argon2i_memlimit_sensitive, .Lfunc_end17-crypto_pwhash_argon2i_memlimit_sensitive
	.cfi_endproc
                                        # -- End function
	.globl	crypto_pwhash_argon2i           # -- Begin function crypto_pwhash_argon2i
	.p2align	4
	.type	crypto_pwhash_argon2i,@function
crypto_pwhash_argon2i:                  # @crypto_pwhash_argon2i
.Lfunc_begin18:
	.loc	1 144 0                         # crypto_pwhash/argon2/pwhash_argon2i.c:144:0
	.cfi_startproc
# %bb.0:
	#DEBUG_VALUE: crypto_pwhash_argon2i:out <- $rdi
	#DEBUG_VALUE: crypto_pwhash_argon2i:outlen <- $rsi
	#DEBUG_VALUE: crypto_pwhash_argon2i:passwd <- $rdx
	#DEBUG_VALUE: crypto_pwhash_argon2i:passwdlen <- $rcx
	#DEBUG_VALUE: crypto_pwhash_argon2i:salt <- $r8
	#DEBUG_VALUE: crypto_pwhash_argon2i:opslimit <- $r9
	#DEBUG_VALUE: memset:__dest <- $rdi
	#DEBUG_VALUE: memset:__len <- $rsi
	pushq	%rbp
	.cfi_def_cfa_offset 16
	pushq	%r15
	.cfi_def_cfa_offset 24
	pushq	%r14
	.cfi_def_cfa_offset 32
	pushq	%r13
	.cfi_def_cfa_offset 40
	pushq	%r12
	.cfi_def_cfa_offset 48
	pushq	%rbx
	.cfi_def_cfa_offset 56
	pushq	%rax
	.cfi_def_cfa_offset 64
	.cfi_offset %rbx, -56
	.cfi_offset %r12, -48
	.cfi_offset %r13, -40
	.cfi_offset %r14, -32
	.cfi_offset %r15, -24
	.cfi_offset %rbp, -16
.Ltmp19:
	#DEBUG_VALUE: crypto_pwhash_argon2i:memlimit <- [DW_OP_plus_uconst 64] [$rsp+0]
	#DEBUG_VALUE: crypto_pwhash_argon2i:alg <- [DW_OP_plus_uconst 72] [$rsp+0]
	movq	%r9, %rbp
	movq	%r8, %rbx
	movq	%rcx, %r12
	movq	%rdx, %r13
	movq	%rsi, %r15
	movq	%rdi, %r14
.Ltmp20:
	#DEBUG_VALUE: memset:__ch <- 0
	.file	6 "/usr/include/x86_64-linux-gnu/bits" "string_fortified.h"
	.loc	6 59 10 prologue_end            # /usr/include/x86_64-linux-gnu/bits/string_fortified.h:59:10 @[ crypto_pwhash/argon2/pwhash_argon2i.c:145:5 ]
	xorl	%esi, %esi
.Ltmp21:
	#DEBUG_VALUE: memset:__len <- $r15
	#DEBUG_VALUE: crypto_pwhash_argon2i:outlen <- $r15
	movq	%r15, %rdx
.Ltmp22:
	#DEBUG_VALUE: crypto_pwhash_argon2i:passwd <- $r13
	callq	memset@PLT
.Ltmp23:
	#DEBUG_VALUE: crypto_pwhash_argon2i:opslimit <- $rbp
	#DEBUG_VALUE: crypto_pwhash_argon2i:salt <- $rbx
	#DEBUG_VALUE: crypto_pwhash_argon2i:passwdlen <- $r12
	#DEBUG_VALUE: memset:__dest <- $r14
	#DEBUG_VALUE: crypto_pwhash_argon2i:out <- $r14
	.loc	1 146 16                        # crypto_pwhash/argon2/pwhash_argon2i.c:146:16
	movq	%r15, %rax
	shrq	$32, %rax
	je	.LBB18_2
.Ltmp24:
.LBB18_1:
	#DEBUG_VALUE: crypto_pwhash_argon2i:out <- $r14
	#DEBUG_VALUE: crypto_pwhash_argon2i:outlen <- $r15
	#DEBUG_VALUE: crypto_pwhash_argon2i:passwd <- $r13
	#DEBUG_VALUE: crypto_pwhash_argon2i:passwdlen <- $r12
	#DEBUG_VALUE: crypto_pwhash_argon2i:salt <- $rbx
	#DEBUG_VALUE: crypto_pwhash_argon2i:opslimit <- $rbp
	#DEBUG_VALUE: memset:__dest <- $r14
	#DEBUG_VALUE: memset:__len <- $r15
	#DEBUG_VALUE: crypto_pwhash_argon2i:memlimit <- [DW_OP_plus_uconst 64] [$rsp+0]
	#DEBUG_VALUE: crypto_pwhash_argon2i:alg <- [DW_OP_plus_uconst 72] [$rsp+0]
	#DEBUG_VALUE: memset:__ch <- 0
	.loc	1 0 0 is_stmt 0                 # crypto_pwhash/argon2/pwhash_argon2i.c:0
	callq	__errno_location@PLT
.Ltmp25:
	movl	$27, (%rax)
	jmp	.LBB18_9
.Ltmp26:
.LBB18_2:
	#DEBUG_VALUE: crypto_pwhash_argon2i:out <- $r14
	#DEBUG_VALUE: crypto_pwhash_argon2i:outlen <- $r15
	#DEBUG_VALUE: crypto_pwhash_argon2i:passwd <- $r13
	#DEBUG_VALUE: crypto_pwhash_argon2i:passwdlen <- $r12
	#DEBUG_VALUE: crypto_pwhash_argon2i:salt <- $rbx
	#DEBUG_VALUE: crypto_pwhash_argon2i:opslimit <- $rbp
	#DEBUG_VALUE: crypto_pwhash_argon2i:memlimit <- [DW_OP_plus_uconst 64] [$rsp+0]
	#DEBUG_VALUE: crypto_pwhash_argon2i:alg <- [DW_OP_plus_uconst 72] [$rsp+0]
	.loc	1 150 16 is_stmt 1              # crypto_pwhash/argon2/pwhash_argon2i.c:150:16
	cmpq	$15, %r15
	ja	.LBB18_3
.Ltmp27:
.LBB18_8:
	#DEBUG_VALUE: crypto_pwhash_argon2i:out <- $r14
	#DEBUG_VALUE: crypto_pwhash_argon2i:outlen <- $r15
	#DEBUG_VALUE: crypto_pwhash_argon2i:passwd <- $r13
	#DEBUG_VALUE: crypto_pwhash_argon2i:passwdlen <- $r12
	#DEBUG_VALUE: crypto_pwhash_argon2i:salt <- $rbx
	#DEBUG_VALUE: crypto_pwhash_argon2i:opslimit <- $rbp
	#DEBUG_VALUE: crypto_pwhash_argon2i:memlimit <- [DW_OP_plus_uconst 64] [$rsp+0]
	#DEBUG_VALUE: crypto_pwhash_argon2i:alg <- [DW_OP_plus_uconst 72] [$rsp+0]
	.loc	1 0 0 is_stmt 0                 # crypto_pwhash/argon2/pwhash_argon2i.c:0
	callq	__errno_location@PLT
.Ltmp28:
	movl	$22, (%rax)
.Ltmp29:
.LBB18_9:
	#DEBUG_VALUE: crypto_pwhash_argon2i:out <- $r14
	#DEBUG_VALUE: crypto_pwhash_argon2i:outlen <- $r15
	#DEBUG_VALUE: crypto_pwhash_argon2i:passwd <- $r13
	#DEBUG_VALUE: crypto_pwhash_argon2i:passwdlen <- $r12
	#DEBUG_VALUE: crypto_pwhash_argon2i:salt <- $rbx
	#DEBUG_VALUE: crypto_pwhash_argon2i:opslimit <- $rbp
	#DEBUG_VALUE: memset:__dest <- $r14
	#DEBUG_VALUE: memset:__len <- $r15
	#DEBUG_VALUE: crypto_pwhash_argon2i:memlimit <- [DW_OP_plus_uconst 64] [$rsp+0]
	#DEBUG_VALUE: crypto_pwhash_argon2i:alg <- [DW_OP_plus_uconst 72] [$rsp+0]
	#DEBUG_VALUE: memset:__ch <- 0
	movl	$-1, %eax
.Ltmp30:
.LBB18_10:
	#DEBUG_VALUE: crypto_pwhash_argon2i:out <- $r14
	#DEBUG_VALUE: crypto_pwhash_argon2i:outlen <- $r15
	#DEBUG_VALUE: crypto_pwhash_argon2i:passwd <- $r13
	#DEBUG_VALUE: crypto_pwhash_argon2i:passwdlen <- $r12
	#DEBUG_VALUE: crypto_pwhash_argon2i:salt <- $rbx
	#DEBUG_VALUE: crypto_pwhash_argon2i:opslimit <- $rbp
	.loc	1 183 1 epilogue_begin is_stmt 1 # crypto_pwhash/argon2/pwhash_argon2i.c:183:1
	addq	$8, %rsp
	.cfi_def_cfa_offset 56
	popq	%rbx
.Ltmp31:
	#DEBUG_VALUE: crypto_pwhash_argon2i:salt <- [DW_OP_LLVM_entry_value 1] $r8
	.cfi_def_cfa_offset 48
	popq	%r12
.Ltmp32:
	#DEBUG_VALUE: crypto_pwhash_argon2i:passwdlen <- [DW_OP_LLVM_entry_value 1] $rcx
	.cfi_def_cfa_offset 40
	popq	%r13
.Ltmp33:
	#DEBUG_VALUE: crypto_pwhash_argon2i:passwd <- [DW_OP_LLVM_entry_value 1] $rdx
	.cfi_def_cfa_offset 32
	popq	%r14
.Ltmp34:
	#DEBUG_VALUE: crypto_pwhash_argon2i:out <- [DW_OP_LLVM_entry_value 1] $rdi
	.cfi_def_cfa_offset 24
	popq	%r15
.Ltmp35:
	#DEBUG_VALUE: crypto_pwhash_argon2i:outlen <- [DW_OP_LLVM_entry_value 1] $rsi
	.cfi_def_cfa_offset 16
	popq	%rbp
.Ltmp36:
	#DEBUG_VALUE: crypto_pwhash_argon2i:opslimit <- [DW_OP_LLVM_entry_value 1] $r9
	.cfi_def_cfa_offset 8
	retq
.Ltmp37:
.LBB18_3:
	.cfi_def_cfa_offset 64
	#DEBUG_VALUE: crypto_pwhash_argon2i:out <- $r14
	#DEBUG_VALUE: crypto_pwhash_argon2i:outlen <- $r15
	#DEBUG_VALUE: crypto_pwhash_argon2i:passwd <- $r13
	#DEBUG_VALUE: crypto_pwhash_argon2i:passwdlen <- $r12
	#DEBUG_VALUE: crypto_pwhash_argon2i:salt <- $rbx
	#DEBUG_VALUE: crypto_pwhash_argon2i:opslimit <- $rbp
	#DEBUG_VALUE: crypto_pwhash_argon2i:memlimit <- [DW_OP_plus_uconst 64] [$rsp+0]
	#DEBUG_VALUE: crypto_pwhash_argon2i:alg <- [DW_OP_plus_uconst 72] [$rsp+0]
	.loc	1 0 1 is_stmt 0                 # crypto_pwhash/argon2/pwhash_argon2i.c:0:1
	movq	64(%rsp), %rsi
.Ltmp38:
	.loc	1 154 33 is_stmt 1              # crypto_pwhash/argon2/pwhash_argon2i.c:154:33
	movq	%rbp, %rax
	orq	%r12, %rax
	shrq	$32, %rax
	sete	%al
	movabsq	$4398046510081, %rcx            # imm = 0x3FFFFFFFC01
	cmpq	%rcx, %rsi
	setb	%cl
	testb	%cl, %al
	je	.LBB18_1
.Ltmp39:
# %bb.4:
	#DEBUG_VALUE: crypto_pwhash_argon2i:out <- $r14
	#DEBUG_VALUE: crypto_pwhash_argon2i:outlen <- $r15
	#DEBUG_VALUE: crypto_pwhash_argon2i:passwd <- $r13
	#DEBUG_VALUE: crypto_pwhash_argon2i:passwdlen <- $r12
	#DEBUG_VALUE: crypto_pwhash_argon2i:salt <- $rbx
	#DEBUG_VALUE: crypto_pwhash_argon2i:opslimit <- $rbp
	#DEBUG_VALUE: crypto_pwhash_argon2i:memlimit <- [DW_OP_plus_uconst 64] [$rsp+0]
	#DEBUG_VALUE: crypto_pwhash_argon2i:alg <- [DW_OP_plus_uconst 72] [$rsp+0]
	.loc	1 0 33 is_stmt 0                # crypto_pwhash/argon2/pwhash_argon2i.c:0:33
	cmpq	$3, %rbp
	setae	%al
	cmpq	$8192, %rsi                     # imm = 0x2000
	setae	%cl
.Ltmp40:
	.loc	1 160 24 is_stmt 1              # crypto_pwhash/argon2/pwhash_argon2i.c:160:24
	testb	%cl, %al
	je	.LBB18_8
.Ltmp41:
# %bb.5:
	#DEBUG_VALUE: crypto_pwhash_argon2i:out <- $r14
	#DEBUG_VALUE: crypto_pwhash_argon2i:outlen <- $r15
	#DEBUG_VALUE: crypto_pwhash_argon2i:passwd <- $r13
	#DEBUG_VALUE: crypto_pwhash_argon2i:passwdlen <- $r12
	#DEBUG_VALUE: crypto_pwhash_argon2i:salt <- $rbx
	#DEBUG_VALUE: crypto_pwhash_argon2i:opslimit <- $rbp
	#DEBUG_VALUE: crypto_pwhash_argon2i:memlimit <- [DW_OP_plus_uconst 64] [$rsp+0]
	#DEBUG_VALUE: crypto_pwhash_argon2i:alg <- [DW_OP_plus_uconst 72] [$rsp+0]
	.loc	1 166 28                        # crypto_pwhash/argon2/pwhash_argon2i.c:166:28
	cmpq	%r13, %r14
	je	.LBB18_8
.Ltmp42:
# %bb.6:
	#DEBUG_VALUE: crypto_pwhash_argon2i:out <- $r14
	#DEBUG_VALUE: crypto_pwhash_argon2i:outlen <- $r15
	#DEBUG_VALUE: crypto_pwhash_argon2i:passwd <- $r13
	#DEBUG_VALUE: crypto_pwhash_argon2i:passwdlen <- $r12
	#DEBUG_VALUE: crypto_pwhash_argon2i:salt <- $rbx
	#DEBUG_VALUE: crypto_pwhash_argon2i:opslimit <- $rbp
	#DEBUG_VALUE: crypto_pwhash_argon2i:memlimit <- [DW_OP_plus_uconst 64] [$rsp+0]
	#DEBUG_VALUE: crypto_pwhash_argon2i:alg <- [DW_OP_plus_uconst 72] [$rsp+0]
	.loc	1 170 5                         # crypto_pwhash/argon2/pwhash_argon2i.c:170:5
	cmpl	$1, 72(%rsp)
	jne	.LBB18_8
.Ltmp43:
# %bb.7:
	#DEBUG_VALUE: crypto_pwhash_argon2i:out <- $r14
	#DEBUG_VALUE: crypto_pwhash_argon2i:outlen <- $r15
	#DEBUG_VALUE: crypto_pwhash_argon2i:passwd <- $r13
	#DEBUG_VALUE: crypto_pwhash_argon2i:passwdlen <- $r12
	#DEBUG_VALUE: crypto_pwhash_argon2i:salt <- $rbx
	#DEBUG_VALUE: crypto_pwhash_argon2i:opslimit <- $rbp
	#DEBUG_VALUE: crypto_pwhash_argon2i:memlimit <- [DW_OP_plus_uconst 64] [$rsp+0]
	#DEBUG_VALUE: crypto_pwhash_argon2i:alg <- [DW_OP_plus_uconst 72] [$rsp+0]
	.loc	1 172 72                        # crypto_pwhash/argon2/pwhash_argon2i.c:172:72
	shrq	$10, %rsi
	.loc	1 172 13 is_stmt 0              # crypto_pwhash/argon2/pwhash_argon2i.c:172:13
	subq	$8, %rsp
.Ltmp44:
	.cfi_adjust_cfa_offset 8
	movl	%ebp, %edi
                                        # kill: def $esi killed $esi killed $rsi
	movl	$1, %edx
	movq	%r13, %rcx
	movq	%r12, %r8
	movq	%rbx, %r9
	pushq	%r15
	.cfi_adjust_cfa_offset 8
	pushq	%r14
	.cfi_adjust_cfa_offset 8
	pushq	$16
	.cfi_adjust_cfa_offset 8
	callq	argon2i_hash_raw@PLT
.Ltmp45:
	addq	$32, %rsp
	.cfi_adjust_cfa_offset -32
	movl	%eax, %ecx
.Ltmp46:
	.loc	1 0 0                           # crypto_pwhash/argon2/pwhash_argon2i.c:0
	xorl	%eax, %eax
	negl	%ecx
	sbbl	%eax, %eax
	jmp	.LBB18_10
.Ltmp47:
.Lfunc_end18:
	.size	crypto_pwhash_argon2i, .Lfunc_end18-crypto_pwhash_argon2i
	.cfi_endproc
	.file	7 "/usr/include" "errno.h"
                                        # -- End function
	.globl	crypto_pwhash_argon2i_str       # -- Begin function crypto_pwhash_argon2i_str
	.p2align	4
	.type	crypto_pwhash_argon2i_str,@function
crypto_pwhash_argon2i_str:              # @crypto_pwhash_argon2i_str
.Lfunc_begin19:
	.loc	1 190 0 is_stmt 1               # crypto_pwhash/argon2/pwhash_argon2i.c:190:0
	.cfi_startproc
# %bb.0:
	#DEBUG_VALUE: crypto_pwhash_argon2i_str:out <- $rdi
	#DEBUG_VALUE: crypto_pwhash_argon2i_str:passwd <- $rsi
	#DEBUG_VALUE: crypto_pwhash_argon2i_str:passwdlen <- $rdx
	#DEBUG_VALUE: crypto_pwhash_argon2i_str:opslimit <- $rcx
	#DEBUG_VALUE: crypto_pwhash_argon2i_str:memlimit <- $r8
	pushq	%rbp
	.cfi_def_cfa_offset 16
	pushq	%r15
	.cfi_def_cfa_offset 24
	pushq	%r14
	.cfi_def_cfa_offset 32
	pushq	%r13
	.cfi_def_cfa_offset 40
	pushq	%r12
	.cfi_def_cfa_offset 48
	pushq	%rbx
	.cfi_def_cfa_offset 56
	subq	$24, %rsp
	.cfi_def_cfa_offset 80
	.cfi_offset %rbx, -56
	.cfi_offset %r12, -48
	.cfi_offset %r13, -40
	.cfi_offset %r14, -32
	.cfi_offset %r15, -24
	.cfi_offset %rbp, -16
	movq	%fs:40, %rax
	movq	%rax, 16(%rsp)
.Ltmp48:
	#DEBUG_VALUE: memset:__dest <- $rdi
	#DEBUG_VALUE: memset:__ch <- 0
	#DEBUG_VALUE: memset:__len <- 128
	.loc	6 59 10 prologue_end            # /usr/include/x86_64-linux-gnu/bits/string_fortified.h:59:10 @[ crypto_pwhash/argon2/pwhash_argon2i.c:193:5 ]
	xorps	%xmm0, %xmm0
	movups	%xmm0, 112(%rdi)
	movups	%xmm0, 96(%rdi)
	movups	%xmm0, 80(%rdi)
	movups	%xmm0, 64(%rdi)
	movups	%xmm0, 48(%rdi)
	movups	%xmm0, 32(%rdi)
	movups	%xmm0, 16(%rdi)
	movups	%xmm0, (%rdi)
.Ltmp49:
	.loc	1 194 33                        # crypto_pwhash/argon2/pwhash_argon2i.c:194:33
	movq	%rcx, %rax
	orq	%rdx, %rax
	shrq	$32, %rax
	sete	%al
	movabsq	$4398046510081, %r9             # imm = 0x3FFFFFFFC01
	cmpq	%r9, %r8
	setb	%r9b
	testb	%r9b, %al
	jne	.LBB19_2
.Ltmp50:
# %bb.1:
	#DEBUG_VALUE: crypto_pwhash_argon2i_str:out <- $rdi
	#DEBUG_VALUE: crypto_pwhash_argon2i_str:passwd <- $rsi
	#DEBUG_VALUE: crypto_pwhash_argon2i_str:passwdlen <- $rdx
	#DEBUG_VALUE: crypto_pwhash_argon2i_str:opslimit <- $rcx
	#DEBUG_VALUE: crypto_pwhash_argon2i_str:memlimit <- $r8
	.loc	1 197 11                        # crypto_pwhash/argon2/pwhash_argon2i.c:197:11
	callq	__errno_location@PLT
.Ltmp51:
	#DEBUG_VALUE: crypto_pwhash_argon2i_str:memlimit <- [DW_OP_LLVM_entry_value 1] $r8
	#DEBUG_VALUE: crypto_pwhash_argon2i_str:opslimit <- [DW_OP_LLVM_entry_value 1] $rcx
	#DEBUG_VALUE: crypto_pwhash_argon2i_str:passwdlen <- [DW_OP_LLVM_entry_value 1] $rdx
	#DEBUG_VALUE: crypto_pwhash_argon2i_str:passwd <- [DW_OP_LLVM_entry_value 1] $rsi
	#DEBUG_VALUE: crypto_pwhash_argon2i_str:out <- [DW_OP_LLVM_entry_value 1] $rdi
	.loc	1 197 32 is_stmt 0              # crypto_pwhash/argon2/pwhash_argon2i.c:197:32
	movl	$27, (%rax)
	movl	$-1, %eax
.Ltmp52:
	.loc	1 204 9 is_stmt 1               # crypto_pwhash/argon2/pwhash_argon2i.c:204:9
	jmp	.LBB19_5
.Ltmp53:
.LBB19_2:
	#DEBUG_VALUE: crypto_pwhash_argon2i_str:out <- $rdi
	#DEBUG_VALUE: crypto_pwhash_argon2i_str:passwd <- $rsi
	#DEBUG_VALUE: crypto_pwhash_argon2i_str:passwdlen <- $rdx
	#DEBUG_VALUE: crypto_pwhash_argon2i_str:opslimit <- $rcx
	#DEBUG_VALUE: crypto_pwhash_argon2i_str:memlimit <- $r8
	.loc	1 0 9 is_stmt 0                 # crypto_pwhash/argon2/pwhash_argon2i.c:0:9
	cmpq	$3, %rcx
	setae	%al
	cmpq	$8192, %r8                      # imm = 0x2000
	setae	%r9b
	.loc	1 200 24 is_stmt 1              # crypto_pwhash/argon2/pwhash_argon2i.c:200:24
	testb	%r9b, %al
	jne	.LBB19_4
.Ltmp54:
# %bb.3:
	#DEBUG_VALUE: crypto_pwhash_argon2i_str:out <- $rdi
	#DEBUG_VALUE: crypto_pwhash_argon2i_str:passwd <- $rsi
	#DEBUG_VALUE: crypto_pwhash_argon2i_str:passwdlen <- $rdx
	#DEBUG_VALUE: crypto_pwhash_argon2i_str:opslimit <- $rcx
	#DEBUG_VALUE: crypto_pwhash_argon2i_str:memlimit <- $r8
	.loc	1 203 11                        # crypto_pwhash/argon2/pwhash_argon2i.c:203:11
	callq	__errno_location@PLT
.Ltmp55:
	#DEBUG_VALUE: crypto_pwhash_argon2i_str:memlimit <- [DW_OP_LLVM_entry_value 1] $r8
	#DEBUG_VALUE: crypto_pwhash_argon2i_str:opslimit <- [DW_OP_LLVM_entry_value 1] $rcx
	#DEBUG_VALUE: crypto_pwhash_argon2i_str:passwdlen <- [DW_OP_LLVM_entry_value 1] $rdx
	#DEBUG_VALUE: crypto_pwhash_argon2i_str:passwd <- [DW_OP_LLVM_entry_value 1] $rsi
	#DEBUG_VALUE: crypto_pwhash_argon2i_str:out <- [DW_OP_LLVM_entry_value 1] $rdi
	.loc	1 203 32 is_stmt 0              # crypto_pwhash/argon2/pwhash_argon2i.c:203:32
	movl	$22, (%rax)
	movl	$-1, %eax
	.loc	1 204 9 is_stmt 1               # crypto_pwhash/argon2/pwhash_argon2i.c:204:9
	jmp	.LBB19_5
.Ltmp56:
.LBB19_4:
	#DEBUG_VALUE: crypto_pwhash_argon2i_str:out <- $rdi
	#DEBUG_VALUE: crypto_pwhash_argon2i_str:passwd <- $rsi
	#DEBUG_VALUE: crypto_pwhash_argon2i_str:passwdlen <- $rdx
	#DEBUG_VALUE: crypto_pwhash_argon2i_str:opslimit <- $rcx
	#DEBUG_VALUE: crypto_pwhash_argon2i_str:memlimit <- $r8
	.loc	1 0 9 is_stmt 0                 # crypto_pwhash/argon2/pwhash_argon2i.c:0:9
	movq	%rsp, %rbx
	movq	%rsi, %r14
.Ltmp57:
	#DEBUG_VALUE: crypto_pwhash_argon2i_str:passwd <- $r14
	.loc	1 206 5 is_stmt 1               # crypto_pwhash/argon2/pwhash_argon2i.c:206:5
	movl	$16, %esi
	movq	%rdi, %rbp
.Ltmp58:
	#DEBUG_VALUE: crypto_pwhash_argon2i_str:out <- $rbp
	movq	%rbx, %rdi
	movq	%rdx, %r15
.Ltmp59:
	#DEBUG_VALUE: crypto_pwhash_argon2i_str:passwdlen <- $r15
	.loc	1 0 5 is_stmt 0                 # crypto_pwhash/argon2/pwhash_argon2i.c:0:5
	movq	%r8, %r12
.Ltmp60:
	#DEBUG_VALUE: crypto_pwhash_argon2i_str:memlimit <- $r12
	movq	%rcx, %r13
.Ltmp61:
	#DEBUG_VALUE: crypto_pwhash_argon2i_str:opslimit <- $r13
	.loc	1 206 5                         # crypto_pwhash/argon2/pwhash_argon2i.c:206:5
	callq	randombytes_buf@PLT
.Ltmp62:
	.loc	1 207 72 is_stmt 1              # crypto_pwhash/argon2/pwhash_argon2i.c:207:72
	shrq	$10, %r12
.Ltmp63:
	#DEBUG_VALUE: crypto_pwhash_argon2i_str:memlimit <- [DW_OP_LLVM_entry_value 1] $r8
	.loc	1 207 9 is_stmt 0               # crypto_pwhash/argon2/pwhash_argon2i.c:207:9
	movl	%r13d, %edi
	movl	%r12d, %esi
	movl	$1, %edx
	movq	%r14, %rcx
	movq	%r15, %r8
	movq	%rbx, %r9
	pushq	$128
	.cfi_adjust_cfa_offset 8
	pushq	%rbp
	.cfi_adjust_cfa_offset 8
	pushq	$32
	.cfi_adjust_cfa_offset 8
	pushq	$16
	.cfi_adjust_cfa_offset 8
	callq	argon2i_hash_encoded@PLT
.Ltmp64:
	addq	$32, %rsp
	.cfi_adjust_cfa_offset -32
	movl	%eax, %ecx
.Ltmp65:
	.loc	1 0 0                           # crypto_pwhash/argon2/pwhash_argon2i.c:0
	xorl	%eax, %eax
	negl	%ecx
	sbbl	%eax, %eax
.Ltmp66:
.LBB19_5:
	#DEBUG_VALUE: crypto_pwhash_argon2i_str:out <- [DW_OP_LLVM_entry_value 1] $rdi
	#DEBUG_VALUE: crypto_pwhash_argon2i_str:passwd <- [DW_OP_LLVM_entry_value 1] $rsi
	#DEBUG_VALUE: crypto_pwhash_argon2i_str:passwdlen <- [DW_OP_LLVM_entry_value 1] $rdx
	#DEBUG_VALUE: crypto_pwhash_argon2i_str:opslimit <- [DW_OP_LLVM_entry_value 1] $rcx
	#DEBUG_VALUE: crypto_pwhash_argon2i_str:memlimit <- [DW_OP_LLVM_entry_value 1] $r8
	.loc	1 214 1 is_stmt 1               # crypto_pwhash/argon2/pwhash_argon2i.c:214:1
	movq	%fs:40, %rcx
	cmpq	16(%rsp), %rcx
	jne	.LBB19_7
.Ltmp67:
# %bb.6:                                # %SP_return
	#DEBUG_VALUE: crypto_pwhash_argon2i_str:out <- [DW_OP_LLVM_entry_value 1] $rdi
	#DEBUG_VALUE: crypto_pwhash_argon2i_str:passwd <- [DW_OP_LLVM_entry_value 1] $rsi
	#DEBUG_VALUE: crypto_pwhash_argon2i_str:passwdlen <- [DW_OP_LLVM_entry_value 1] $rdx
	#DEBUG_VALUE: crypto_pwhash_argon2i_str:opslimit <- [DW_OP_LLVM_entry_value 1] $rcx
	#DEBUG_VALUE: crypto_pwhash_argon2i_str:memlimit <- [DW_OP_LLVM_entry_value 1] $r8
	.loc	1 214 1 epilogue_begin is_stmt 0 # crypto_pwhash/argon2/pwhash_argon2i.c:214:1
	addq	$24, %rsp
	.cfi_def_cfa_offset 56
	popq	%rbx
	.cfi_def_cfa_offset 48
	popq	%r12
	.cfi_def_cfa_offset 40
	popq	%r13
	.cfi_def_cfa_offset 32
	popq	%r14
	.cfi_def_cfa_offset 24
	popq	%r15
	.cfi_def_cfa_offset 16
	popq	%rbp
	.cfi_def_cfa_offset 8
	retq
.Ltmp68:
.LBB19_7:                               # %CallStackCheckFailBlk
	.cfi_def_cfa_offset 80
	#DEBUG_VALUE: crypto_pwhash_argon2i_str:out <- [DW_OP_LLVM_entry_value 1] $rdi
	#DEBUG_VALUE: crypto_pwhash_argon2i_str:passwd <- [DW_OP_LLVM_entry_value 1] $rsi
	#DEBUG_VALUE: crypto_pwhash_argon2i_str:passwdlen <- [DW_OP_LLVM_entry_value 1] $rdx
	#DEBUG_VALUE: crypto_pwhash_argon2i_str:opslimit <- [DW_OP_LLVM_entry_value 1] $rcx
	#DEBUG_VALUE: crypto_pwhash_argon2i_str:memlimit <- [DW_OP_LLVM_entry_value 1] $r8
	.loc	1 0 0                           # crypto_pwhash/argon2/pwhash_argon2i.c:0
	callq	__stack_chk_fail@PLT
.Ltmp69:
.Lfunc_end19:
	.size	crypto_pwhash_argon2i_str, .Lfunc_end19-crypto_pwhash_argon2i_str
	.cfi_endproc
	.file	8 "./include/sodium" "randombytes.h"
                                        # -- End function
	.globl	crypto_pwhash_argon2i_str_verify # -- Begin function crypto_pwhash_argon2i_str_verify
	.p2align	4
	.type	crypto_pwhash_argon2i_str_verify,@function
crypto_pwhash_argon2i_str_verify:       # @crypto_pwhash_argon2i_str_verify
.Lfunc_begin20:
	.loc	1 220 0 is_stmt 1               # crypto_pwhash/argon2/pwhash_argon2i.c:220:0
	.cfi_startproc
# %bb.0:
	#DEBUG_VALUE: crypto_pwhash_argon2i_str_verify:str <- $rdi
	#DEBUG_VALUE: crypto_pwhash_argon2i_str_verify:passwd <- $rsi
	#DEBUG_VALUE: crypto_pwhash_argon2i_str_verify:passwdlen <- $rdx
	pushq	%rax
	.cfi_def_cfa_offset 16
.Ltmp70:
	.loc	1 223 19 prologue_end           # crypto_pwhash/argon2/pwhash_argon2i.c:223:19
	movq	%rdx, %rax
	shrq	$32, %rax
	je	.LBB20_2
.Ltmp71:
# %bb.1:
	#DEBUG_VALUE: crypto_pwhash_argon2i_str_verify:str <- $rdi
	#DEBUG_VALUE: crypto_pwhash_argon2i_str_verify:passwd <- $rsi
	#DEBUG_VALUE: crypto_pwhash_argon2i_str_verify:passwdlen <- $rdx
	.loc	1 224 11                        # crypto_pwhash/argon2/pwhash_argon2i.c:224:11
	callq	__errno_location@PLT
.Ltmp72:
	#DEBUG_VALUE: crypto_pwhash_argon2i_str_verify:passwdlen <- [DW_OP_LLVM_entry_value 1] $rdx
	#DEBUG_VALUE: crypto_pwhash_argon2i_str_verify:passwd <- [DW_OP_LLVM_entry_value 1] $rsi
	#DEBUG_VALUE: crypto_pwhash_argon2i_str_verify:str <- [DW_OP_LLVM_entry_value 1] $rdi
	.loc	1 224 32 is_stmt 0              # crypto_pwhash/argon2/pwhash_argon2i.c:224:32
	movl	$27, (%rax)
	jmp	.LBB20_5
.Ltmp73:
.LBB20_2:
	#DEBUG_VALUE: crypto_pwhash_argon2i_str_verify:str <- $rdi
	#DEBUG_VALUE: crypto_pwhash_argon2i_str_verify:passwd <- $rsi
	#DEBUG_VALUE: crypto_pwhash_argon2i_str_verify:passwdlen <- $rdx
	.loc	1 234 18 is_stmt 1              # crypto_pwhash/argon2/pwhash_argon2i.c:234:18
	callq	argon2i_verify@PLT
.Ltmp74:
	#DEBUG_VALUE: crypto_pwhash_argon2i_str_verify:passwdlen <- [DW_OP_LLVM_entry_value 1] $rdx
	#DEBUG_VALUE: crypto_pwhash_argon2i_str_verify:passwd <- [DW_OP_LLVM_entry_value 1] $rsi
	#DEBUG_VALUE: crypto_pwhash_argon2i_str_verify:str <- [DW_OP_LLVM_entry_value 1] $rdi
	#DEBUG_VALUE: crypto_pwhash_argon2i_str_verify:verify_ret <- $eax
	.loc	1 235 20                        # crypto_pwhash/argon2/pwhash_argon2i.c:235:20
	testl	%eax, %eax
	je	.LBB20_6
.Ltmp75:
# %bb.3:
	#DEBUG_VALUE: crypto_pwhash_argon2i_str_verify:str <- [DW_OP_LLVM_entry_value 1] $rdi
	#DEBUG_VALUE: crypto_pwhash_argon2i_str_verify:passwd <- [DW_OP_LLVM_entry_value 1] $rsi
	#DEBUG_VALUE: crypto_pwhash_argon2i_str_verify:passwdlen <- [DW_OP_LLVM_entry_value 1] $rdx
	#DEBUG_VALUE: crypto_pwhash_argon2i_str_verify:verify_ret <- $eax
	cmpl	$-35, %eax
	jne	.LBB20_5
.Ltmp76:
# %bb.4:
	#DEBUG_VALUE: crypto_pwhash_argon2i_str_verify:str <- [DW_OP_LLVM_entry_value 1] $rdi
	#DEBUG_VALUE: crypto_pwhash_argon2i_str_verify:passwd <- [DW_OP_LLVM_entry_value 1] $rsi
	#DEBUG_VALUE: crypto_pwhash_argon2i_str_verify:passwdlen <- [DW_OP_LLVM_entry_value 1] $rdx
	#DEBUG_VALUE: crypto_pwhash_argon2i_str_verify:verify_ret <- $eax
	.loc	1 239 11                        # crypto_pwhash/argon2/pwhash_argon2i.c:239:11
	callq	__errno_location@PLT
.Ltmp77:
	.loc	1 239 32 is_stmt 0              # crypto_pwhash/argon2/pwhash_argon2i.c:239:32
	movl	$22, (%rax)
.Ltmp78:
.LBB20_5:
	#DEBUG_VALUE: crypto_pwhash_argon2i_str_verify:str <- [DW_OP_LLVM_entry_value 1] $rdi
	#DEBUG_VALUE: crypto_pwhash_argon2i_str_verify:passwd <- [DW_OP_LLVM_entry_value 1] $rsi
	#DEBUG_VALUE: crypto_pwhash_argon2i_str_verify:passwdlen <- [DW_OP_LLVM_entry_value 1] $rdx
	.loc	1 0 32                          # crypto_pwhash/argon2/pwhash_argon2i.c:0:32
	movl	$-1, %eax
.Ltmp79:
.LBB20_6:
	#DEBUG_VALUE: crypto_pwhash_argon2i_str_verify:str <- [DW_OP_LLVM_entry_value 1] $rdi
	#DEBUG_VALUE: crypto_pwhash_argon2i_str_verify:passwd <- [DW_OP_LLVM_entry_value 1] $rsi
	#DEBUG_VALUE: crypto_pwhash_argon2i_str_verify:passwdlen <- [DW_OP_LLVM_entry_value 1] $rdx
	.loc	1 242 1 epilogue_begin is_stmt 1 # crypto_pwhash/argon2/pwhash_argon2i.c:242:1
	popq	%rcx
	.cfi_def_cfa_offset 8
	retq
.Ltmp80:
.Lfunc_end20:
	.size	crypto_pwhash_argon2i_str_verify, .Lfunc_end20-crypto_pwhash_argon2i_str_verify
	.cfi_endproc
                                        # -- End function
	.globl	crypto_pwhash_argon2i_str_needs_rehash # -- Begin function crypto_pwhash_argon2i_str_needs_rehash
	.p2align	4
	.type	crypto_pwhash_argon2i_str_needs_rehash,@function
crypto_pwhash_argon2i_str_needs_rehash: # @crypto_pwhash_argon2i_str_needs_rehash
.Lfunc_begin21:
	.cfi_startproc
# %bb.0:
	#DEBUG_VALUE: crypto_pwhash_argon2i_str_needs_rehash:str <- $rdi
	#DEBUG_VALUE: crypto_pwhash_argon2i_str_needs_rehash:opslimit <- $rsi
	#DEBUG_VALUE: crypto_pwhash_argon2i_str_needs_rehash:memlimit <- $rdx
	.loc	1 286 12 prologue_end           # crypto_pwhash/argon2/pwhash_argon2i.c:286:12
	movl	$1, %ecx
.Ltmp81:
	jmp	_needs_rehash                   # TAILCALL
.Ltmp82:
.Lfunc_end21:
	.size	crypto_pwhash_argon2i_str_needs_rehash, .Lfunc_end21-crypto_pwhash_argon2i_str_needs_rehash
	.cfi_endproc
                                        # -- End function
	.p2align	4                               # -- Begin function _needs_rehash
	.type	_needs_rehash,@function
_needs_rehash:                          # @_needs_rehash
.Lfunc_begin22:
	.loc	1 247 0                         # crypto_pwhash/argon2/pwhash_argon2i.c:247:0
	.cfi_startproc
# %bb.0:
	#DEBUG_VALUE: _needs_rehash:str <- $rdi
	#DEBUG_VALUE: _needs_rehash:opslimit <- $rsi
	#DEBUG_VALUE: _needs_rehash:memlimit <- $rdx
	#DEBUG_VALUE: _needs_rehash:type <- $ecx
	pushq	%rbp
	.cfi_def_cfa_offset 16
	pushq	%r15
	.cfi_def_cfa_offset 24
	pushq	%r14
	.cfi_def_cfa_offset 32
	pushq	%r13
	.cfi_def_cfa_offset 40
	pushq	%r12
	.cfi_def_cfa_offset 48
	pushq	%rbx
	.cfi_def_cfa_offset 56
	subq	$104, %rsp
	.cfi_def_cfa_offset 160
	.cfi_offset %rbx, -56
	.cfi_offset %r12, -48
	.cfi_offset %r13, -40
	.cfi_offset %r14, -32
	.cfi_offset %r15, -24
	.cfi_offset %rbp, -16
	movl	%ecx, %ebp
	movq	%rdx, %rbx
	movq	%rsi, %r14
	movq	%rdi, %r12
.Ltmp83:
	#DEBUG_VALUE: _needs_rehash:ret <- -1
	.loc	1 253 18 prologue_end           # crypto_pwhash/argon2/pwhash_argon2i.c:253:18
	callq	strlen@PLT
.Ltmp84:
	#DEBUG_VALUE: _needs_rehash:type <- $ebp
	#DEBUG_VALUE: _needs_rehash:memlimit <- $rbx
	#DEBUG_VALUE: _needs_rehash:opslimit <- $r14
	#DEBUG_VALUE: _needs_rehash:str <- $r12
	movq	%rax, %r13
.Ltmp85:
	#DEBUG_VALUE: _needs_rehash:fodder_len <- $r13
	#DEBUG_VALUE: _needs_rehash:memlimit <- undef
	.loc	1 255 18                        # crypto_pwhash/argon2/pwhash_argon2i.c:255:18
	movq	%r14, %rax
	shrq	$32, %rax
	movq	%rbx, %rcx
	shrq	$42, %rcx
	.loc	1 255 34 is_stmt 0              # crypto_pwhash/argon2/pwhash_argon2i.c:255:34
	orq	%rax, %rcx
	setne	%al
	cmpq	$127, %r13
	seta	%cl
	orb	%al, %cl
	cmpb	$1, %cl
	jne	.LBB22_2
.Ltmp86:
# %bb.1:
	#DEBUG_VALUE: _needs_rehash:str <- $r12
	#DEBUG_VALUE: _needs_rehash:opslimit <- $r14
	#DEBUG_VALUE: _needs_rehash:type <- $ebp
	#DEBUG_VALUE: _needs_rehash:ret <- -1
	#DEBUG_VALUE: _needs_rehash:fodder_len <- $r13
	.loc	1 257 11 is_stmt 1              # crypto_pwhash/argon2/pwhash_argon2i.c:257:11
	callq	__errno_location@PLT
.Ltmp87:
	.loc	1 257 32 is_stmt 0              # crypto_pwhash/argon2/pwhash_argon2i.c:257:32
	movl	$22, (%rax)
	movl	$-1, %eax
.Ltmp88:
	.loc	1 261 61 is_stmt 1              # crypto_pwhash/argon2/pwhash_argon2i.c:261:61
	jmp	.LBB22_8
.Ltmp89:
.LBB22_2:
	#DEBUG_VALUE: _needs_rehash:str <- $r12
	#DEBUG_VALUE: _needs_rehash:opslimit <- $r14
	#DEBUG_VALUE: _needs_rehash:type <- $ebp
	#DEBUG_VALUE: _needs_rehash:ret <- -1
	#DEBUG_VALUE: _needs_rehash:fodder_len <- $r13
	#DEBUG_VALUE: memset:__dest <- [DW_OP_plus_uconst 8, DW_OP_stack_value] $rsp
	#DEBUG_VALUE: memset:__ch <- 0
	#DEBUG_VALUE: memset:__len <- 96
	.loc	6 59 10                         # /usr/include/x86_64-linux-gnu/bits/string_fortified.h:59:10 @[ crypto_pwhash/argon2/pwhash_argon2i.c:260:5 ]
	xorps	%xmm0, %xmm0
	movups	%xmm0, 80(%rsp)
	movups	%xmm0, 64(%rsp)
	movups	%xmm0, 48(%rsp)
	movups	%xmm0, 32(%rsp)
	movups	%xmm0, 16(%rsp)
	movq	$0, 96(%rsp)
.Ltmp90:
	.loc	1 261 37                        # crypto_pwhash/argon2/pwhash_argon2i.c:261:37
	movl	$1, %esi
	movq	%r13, %rdi
	callq	calloc@PLT
.Ltmp91:
	#DEBUG_VALUE: _needs_rehash:fodder <- $rax
	.loc	1 261 61 is_stmt 0              # crypto_pwhash/argon2/pwhash_argon2i.c:261:61
	testq	%rax, %rax
	je	.LBB22_3
.Ltmp92:
# %bb.4:
	#DEBUG_VALUE: _needs_rehash:str <- $r12
	#DEBUG_VALUE: _needs_rehash:opslimit <- $r14
	#DEBUG_VALUE: _needs_rehash:type <- $ebp
	#DEBUG_VALUE: _needs_rehash:ret <- -1
	#DEBUG_VALUE: _needs_rehash:fodder_len <- $r13
	#DEBUG_VALUE: _needs_rehash:fodder <- $rax
	.loc	1 0 0                           # crypto_pwhash/argon2/pwhash_argon2i.c:0
	movq	%rax, %r15
	.loc	1 264 34 is_stmt 1              # crypto_pwhash/argon2/pwhash_argon2i.c:264:34
	movq	%rax, 40(%rsp)
	.loc	1 264 23 is_stmt 0              # crypto_pwhash/argon2/pwhash_argon2i.c:264:23
	movq	%rax, 24(%rsp)
	.loc	1 264 13                        # crypto_pwhash/argon2/pwhash_argon2i.c:264:13
	movq	%rax, 8(%rsp)
	.loc	1 265 43 is_stmt 1              # crypto_pwhash/argon2/pwhash_argon2i.c:265:43
	movl	%r13d, 48(%rsp)
	.loc	1 265 29 is_stmt 0              # crypto_pwhash/argon2/pwhash_argon2i.c:265:29
	movl	%r13d, 32(%rsp)
	.loc	1 265 16                        # crypto_pwhash/argon2/pwhash_argon2i.c:265:16
	movl	%r13d, 16(%rsp)
	.loc	1 266 25 is_stmt 1              # crypto_pwhash/argon2/pwhash_argon2i.c:266:25
	movq	$0, 56(%rsp)
	.loc	1 266 12 is_stmt 0              # crypto_pwhash/argon2/pwhash_argon2i.c:266:12
	movq	$0, 72(%rsp)
	.loc	1 267 31 is_stmt 1              # crypto_pwhash/argon2/pwhash_argon2i.c:267:31
	movl	$0, 64(%rsp)
	.loc	1 267 15 is_stmt 0              # crypto_pwhash/argon2/pwhash_argon2i.c:267:15
	movl	$0, 80(%rsp)
	leaq	8(%rsp), %rdi
.Ltmp93:
	.loc	1 268 9 is_stmt 1               # crypto_pwhash/argon2/pwhash_argon2i.c:268:9
	movq	%r12, %rsi
	movl	%ebp, %edx
	callq	argon2_decode_string@PLT
.Ltmp94:
	#DEBUG_VALUE: _needs_rehash:fodder <- $r15
	.loc	1 268 47 is_stmt 0              # crypto_pwhash/argon2/pwhash_argon2i.c:268:47
	testl	%eax, %eax
	je	.LBB22_6
.Ltmp95:
# %bb.5:
	#DEBUG_VALUE: _needs_rehash:str <- $r12
	#DEBUG_VALUE: _needs_rehash:opslimit <- $r14
	#DEBUG_VALUE: _needs_rehash:type <- $ebp
	#DEBUG_VALUE: _needs_rehash:ret <- -1
	#DEBUG_VALUE: _needs_rehash:fodder_len <- $r13
	#DEBUG_VALUE: _needs_rehash:fodder <- $r15
	.loc	1 269 11 is_stmt 1              # crypto_pwhash/argon2/pwhash_argon2i.c:269:11
	callq	__errno_location@PLT
.Ltmp96:
	.loc	1 269 32 is_stmt 0              # crypto_pwhash/argon2/pwhash_argon2i.c:269:32
	movl	$22, (%rax)
	movl	$-1, %ebx
	#DEBUG_VALUE: _needs_rehash:ret <- -1
	.loc	1 271 5 is_stmt 1               # crypto_pwhash/argon2/pwhash_argon2i.c:271:5
	jmp	.LBB22_7
.Ltmp97:
.LBB22_3:
	#DEBUG_VALUE: _needs_rehash:str <- $r12
	#DEBUG_VALUE: _needs_rehash:opslimit <- $r14
	#DEBUG_VALUE: _needs_rehash:type <- $ebp
	#DEBUG_VALUE: _needs_rehash:ret <- -1
	#DEBUG_VALUE: _needs_rehash:fodder_len <- $r13
	#DEBUG_VALUE: _needs_rehash:fodder <- $rax
	.loc	1 0 5 is_stmt 0                 # crypto_pwhash/argon2/pwhash_argon2i.c:0:5
	movl	$-1, %eax
.Ltmp98:
	.loc	1 261 61 is_stmt 1              # crypto_pwhash/argon2/pwhash_argon2i.c:261:61
	jmp	.LBB22_8
.Ltmp99:
.LBB22_6:
	#DEBUG_VALUE: _needs_rehash:str <- $r12
	#DEBUG_VALUE: _needs_rehash:opslimit <- $r14
	#DEBUG_VALUE: _needs_rehash:type <- $ebp
	#DEBUG_VALUE: _needs_rehash:ret <- -1
	#DEBUG_VALUE: _needs_rehash:fodder_len <- $r13
	#DEBUG_VALUE: _needs_rehash:fodder <- $r15
	.loc	1 0 0 is_stmt 0                 # crypto_pwhash/argon2/pwhash_argon2i.c:0
	shrq	$10, %rbx
.Ltmp100:
	#DEBUG_VALUE: _needs_rehash:memlimit <- $rbx
	.loc	1 271 27 is_stmt 1              # crypto_pwhash/argon2/pwhash_argon2i.c:271:27
	xorl	84(%rsp), %r14d
.Ltmp101:
	#DEBUG_VALUE: _needs_rehash:opslimit <- [DW_OP_LLVM_entry_value 1] $rsi
	.loc	1 0 27 is_stmt 0                # crypto_pwhash/argon2/pwhash_argon2i.c:0:27
	xorl	88(%rsp), %ebx
.Ltmp102:
	.loc	1 271 50                        # crypto_pwhash/argon2/pwhash_argon2i.c:271:50
	xorl	%eax, %eax
	orl	%r14d, %ebx
	setne	%al
	movl	%eax, %ebx
.Ltmp103:
.LBB22_7:
	#DEBUG_VALUE: _needs_rehash:str <- $r12
	#DEBUG_VALUE: _needs_rehash:opslimit <- [DW_OP_LLVM_entry_value 1] $rsi
	#DEBUG_VALUE: _needs_rehash:type <- $ebp
	#DEBUG_VALUE: _needs_rehash:ret <- -1
	#DEBUG_VALUE: _needs_rehash:fodder_len <- $r13
	#DEBUG_VALUE: _needs_rehash:fodder <- $r15
	#DEBUG_VALUE: _needs_rehash:ret <- $ebx
	.loc	1 277 5 is_stmt 1               # crypto_pwhash/argon2/pwhash_argon2i.c:277:5
	movq	%r15, %rdi
	callq	free@PLT
.Ltmp104:
	.loc	1 0 5 is_stmt 0                 # crypto_pwhash/argon2/pwhash_argon2i.c:0:5
	movl	%ebx, %eax
.Ltmp105:
.LBB22_8:
	#DEBUG_VALUE: _needs_rehash:str <- $r12
	#DEBUG_VALUE: _needs_rehash:opslimit <- [DW_OP_LLVM_entry_value 1] $rsi
	#DEBUG_VALUE: _needs_rehash:type <- $ebp
	#DEBUG_VALUE: _needs_rehash:fodder_len <- $r13
	.loc	1 280 1 epilogue_begin is_stmt 1 # crypto_pwhash/argon2/pwhash_argon2i.c:280:1
	addq	$104, %rsp
	.cfi_def_cfa_offset 56
	popq	%rbx
	.cfi_def_cfa_offset 48
	popq	%r12
.Ltmp106:
	#DEBUG_VALUE: _needs_rehash:str <- [DW_OP_LLVM_entry_value 1] $rdi
	.cfi_def_cfa_offset 40
	popq	%r13
.Ltmp107:
	.cfi_def_cfa_offset 32
	popq	%r14
	.cfi_def_cfa_offset 24
	popq	%r15
	.cfi_def_cfa_offset 16
	popq	%rbp
.Ltmp108:
	#DEBUG_VALUE: _needs_rehash:type <- [DW_OP_LLVM_entry_value 1] $ecx
	.cfi_def_cfa_offset 8
	retq
.Ltmp109:
.Lfunc_end22:
	.size	_needs_rehash, .Lfunc_end22-_needs_rehash
	.cfi_endproc
	.file	9 "/usr/include" "string.h"
	.file	10 "/usr/include" "stdlib.h"
	.file	11 "crypto_pwhash/argon2" "argon2-encoding.h"
                                        # -- End function
	.globl	crypto_pwhash_argon2id_str_needs_rehash # -- Begin function crypto_pwhash_argon2id_str_needs_rehash
	.p2align	4
	.type	crypto_pwhash_argon2id_str_needs_rehash,@function
crypto_pwhash_argon2id_str_needs_rehash: # @crypto_pwhash_argon2id_str_needs_rehash
.Lfunc_begin23:
	.cfi_startproc
# %bb.0:
	#DEBUG_VALUE: crypto_pwhash_argon2id_str_needs_rehash:str <- $rdi
	#DEBUG_VALUE: crypto_pwhash_argon2id_str_needs_rehash:opslimit <- $rsi
	#DEBUG_VALUE: crypto_pwhash_argon2id_str_needs_rehash:memlimit <- $rdx
	.loc	1 293 12 prologue_end           # crypto_pwhash/argon2/pwhash_argon2i.c:293:12
	movl	$2, %ecx
.Ltmp110:
	jmp	_needs_rehash                   # TAILCALL
.Ltmp111:
.Lfunc_end23:
	.size	crypto_pwhash_argon2id_str_needs_rehash, .Lfunc_end23-crypto_pwhash_argon2id_str_needs_rehash
	.cfi_endproc
                                        # -- End function
	.type	.L.str,@object                  # @.str
	.section	.rodata.str1.1,"aMS",@progbits,1
.L.str:
	.asciz	"$argon2i$"
	.size	.L.str, 10

	.section	".note.GNU-stack","",@progbits
	.addrsig
	.addrsig_sym __stack_chk_fail