	.file	"pwhash_scryptsalsa208sha256_nosse.c"
	.file	0 "/home/leizhenyuu/opt/Anonymous_Repo/libsodium_o2_attr_inline/src/libsodium" "pwhash_scryptsalsa208sha256_nosse.c" md5 0xc629a2d8f40294a29e883955b503b152
	.file	1 "/usr/include/x86_64-linux-gnu/bits" "types.h"
	.file	2 "/usr/include/x86_64-linux-gnu/bits" "stdint-uintn.h"
	.file	3 "/home/leizhenyuu/opt/Anonymous_Repo" "llvm-project/build/lib/clang/21/include/__stddef_size_t.h"
	.text
	.hidden	escrypt_kdf_nosse               # -- Begin function escrypt_kdf_nosse
	.globl	escrypt_kdf_nosse
	.p2align	4
	.type	escrypt_kdf_nosse,@function
escrypt_kdf_nosse:                      # @escrypt_kdf_nosse
.Lfunc_begin0:
	.file	4 "crypto_pwhash/scryptsalsa208sha256/nosse" "pwhash_scryptsalsa208sha256_nosse.c"
	.loc	4 239 0                         # crypto_pwhash/scryptsalsa208sha256/nosse/pwhash_scryptsalsa208sha256_nosse.c:239:0
	.cfi_startproc
# %bb.0:
	#DEBUG_VALUE: escrypt_kdf_nosse:local <- $rdi
	#DEBUG_VALUE: escrypt_kdf_nosse:passwd <- $rsi
	#DEBUG_VALUE: escrypt_kdf_nosse:passwdlen <- $rdx
	#DEBUG_VALUE: escrypt_kdf_nosse:salt <- $rcx
	#DEBUG_VALUE: escrypt_kdf_nosse:saltlen <- $r8
	#DEBUG_VALUE: escrypt_kdf_nosse:N <- $r9
	pushq	%rbp
	.cfi_def_cfa_offset 16
	pushq	%r15
	.cfi_def_cfa_offset 24
	pushq	%r14
	.cfi_def_cfa_offset 32
	pushq	%r13
	.cfi_def_cfa_offset 40
	pushq	%r12
	.cfi_def_cfa_offset 48
	pushq	%rbx
	.cfi_def_cfa_offset 56
	subq	$184, %rsp
	.cfi_def_cfa_offset 240
	.cfi_offset %rbx, -56
	.cfi_offset %r12, -48
	.cfi_offset %r13, -40
	.cfi_offset %r14, -32
	.cfi_offset %r15, -24
	.cfi_offset %rbp, -16
.Ltmp0:
	#DEBUG_VALUE: escrypt_kdf_nosse:_r <- [DW_OP_plus_uconst 240] [$rsp+0]
	#DEBUG_VALUE: escrypt_kdf_nosse:_p <- [DW_OP_plus_uconst 248] [$rsp+0]
	#DEBUG_VALUE: escrypt_kdf_nosse:buf <- [DW_OP_plus_uconst 256] [$rsp+0]
	#DEBUG_VALUE: escrypt_kdf_nosse:buflen <- [DW_OP_plus_uconst 264] [$rsp+0]
	#DEBUG_VALUE: escrypt_kdf_nosse:r <- undef
	#DEBUG_VALUE: escrypt_kdf_nosse:p <- undef
	movabsq	$137438953441, %rax             # imm = 0x1FFFFFFFE1
.Ltmp1:
	.loc	4 248 16 prologue_end           # crypto_pwhash/scryptsalsa208sha256/nosse/pwhash_scryptsalsa208sha256_nosse.c:248:16
	cmpq	%rax, 264(%rsp)
	jae	.LBB0_3
.Ltmp2:
# %bb.1:
	#DEBUG_VALUE: escrypt_kdf_nosse:local <- $rdi
	#DEBUG_VALUE: escrypt_kdf_nosse:passwd <- $rsi
	#DEBUG_VALUE: escrypt_kdf_nosse:passwdlen <- $rdx
	#DEBUG_VALUE: escrypt_kdf_nosse:salt <- $rcx
	#DEBUG_VALUE: escrypt_kdf_nosse:saltlen <- $r8
	#DEBUG_VALUE: escrypt_kdf_nosse:N <- $r9
	#DEBUG_VALUE: escrypt_kdf_nosse:_r <- [DW_OP_plus_uconst 240] [$rsp+0]
	#DEBUG_VALUE: escrypt_kdf_nosse:_p <- [DW_OP_plus_uconst 248] [$rsp+0]
	#DEBUG_VALUE: escrypt_kdf_nosse:buf <- [DW_OP_plus_uconst 256] [$rsp+0]
	#DEBUG_VALUE: escrypt_kdf_nosse:buflen <- [DW_OP_plus_uconst 264] [$rsp+0]
	.loc	4 0 16 is_stmt 0                # crypto_pwhash/scryptsalsa208sha256/nosse/pwhash_scryptsalsa208sha256_nosse.c:0:16
	movl	248(%rsp), %ebp
.Ltmp3:
	#DEBUG_VALUE: escrypt_kdf_nosse:p <- $ebp
	movl	240(%rsp), %r11d
.Ltmp4:
	#DEBUG_VALUE: escrypt_kdf_nosse:r <- $r11d
	.loc	4 253 23 is_stmt 1              # crypto_pwhash/scryptsalsa208sha256/nosse/pwhash_scryptsalsa208sha256_nosse.c:253:23
	movq	%rbp, %rax
	imulq	%r11, %rax
	.loc	4 253 39 is_stmt 0              # crypto_pwhash/scryptsalsa208sha256/nosse/pwhash_scryptsalsa208sha256_nosse.c:253:39
	cmpq	$1073741824, %rax               # imm = 0x40000000
	jae	.LBB0_3
.Ltmp5:
# %bb.2:
	#DEBUG_VALUE: escrypt_kdf_nosse:local <- $rdi
	#DEBUG_VALUE: escrypt_kdf_nosse:passwd <- $rsi
	#DEBUG_VALUE: escrypt_kdf_nosse:passwdlen <- $rdx
	#DEBUG_VALUE: escrypt_kdf_nosse:salt <- $rcx
	#DEBUG_VALUE: escrypt_kdf_nosse:saltlen <- $r8
	#DEBUG_VALUE: escrypt_kdf_nosse:N <- $r9
	#DEBUG_VALUE: escrypt_kdf_nosse:_r <- [DW_OP_plus_uconst 240] [$rsp+0]
	#DEBUG_VALUE: escrypt_kdf_nosse:_p <- [DW_OP_plus_uconst 248] [$rsp+0]
	#DEBUG_VALUE: escrypt_kdf_nosse:buf <- [DW_OP_plus_uconst 256] [$rsp+0]
	#DEBUG_VALUE: escrypt_kdf_nosse:buflen <- [DW_OP_plus_uconst 264] [$rsp+0]
	#DEBUG_VALUE: escrypt_kdf_nosse:r <- $r11d
	#DEBUG_VALUE: escrypt_kdf_nosse:p <- $ebp
	.loc	4 257 11 is_stmt 1              # crypto_pwhash/scryptsalsa208sha256/nosse/pwhash_scryptsalsa208sha256_nosse.c:257:11
	movq	%r9, %rax
	shrq	$32, %rax
	je	.LBB0_6
.Ltmp6:
.LBB0_3:
	#DEBUG_VALUE: escrypt_kdf_nosse:local <- $rdi
	#DEBUG_VALUE: escrypt_kdf_nosse:passwd <- $rsi
	#DEBUG_VALUE: escrypt_kdf_nosse:passwdlen <- $rdx
	#DEBUG_VALUE: escrypt_kdf_nosse:salt <- $rcx
	#DEBUG_VALUE: escrypt_kdf_nosse:saltlen <- $r8
	#DEBUG_VALUE: escrypt_kdf_nosse:N <- $r9
	#DEBUG_VALUE: escrypt_kdf_nosse:_r <- [DW_OP_plus_uconst 240] [$rsp+0]
	#DEBUG_VALUE: escrypt_kdf_nosse:_p <- [DW_OP_plus_uconst 248] [$rsp+0]
	#DEBUG_VALUE: escrypt_kdf_nosse:buf <- [DW_OP_plus_uconst 256] [$rsp+0]
	#DEBUG_VALUE: escrypt_kdf_nosse:buflen <- [DW_OP_plus_uconst 264] [$rsp+0]
	.loc	4 0 0 is_stmt 0                 # crypto_pwhash/scryptsalsa208sha256/nosse/pwhash_scryptsalsa208sha256_nosse.c:0
	callq	__errno_location@PLT
.Ltmp7:
	#DEBUG_VALUE: escrypt_kdf_nosse:N <- [DW_OP_LLVM_entry_value 1] $r9
	#DEBUG_VALUE: escrypt_kdf_nosse:saltlen <- [DW_OP_LLVM_entry_value 1] $r8
	#DEBUG_VALUE: escrypt_kdf_nosse:salt <- [DW_OP_LLVM_entry_value 1] $rcx
	#DEBUG_VALUE: escrypt_kdf_nosse:passwdlen <- [DW_OP_LLVM_entry_value 1] $rdx
	#DEBUG_VALUE: escrypt_kdf_nosse:passwd <- [DW_OP_LLVM_entry_value 1] $rsi
	#DEBUG_VALUE: escrypt_kdf_nosse:local <- [DW_OP_LLVM_entry_value 1] $rdi
	movl	$27, (%rax)
.Ltmp8:
.LBB0_4:
	#DEBUG_VALUE: escrypt_kdf_nosse:local <- [DW_OP_LLVM_entry_value 1] $rdi
	#DEBUG_VALUE: escrypt_kdf_nosse:passwd <- [DW_OP_LLVM_entry_value 1] $rsi
	#DEBUG_VALUE: escrypt_kdf_nosse:passwdlen <- [DW_OP_LLVM_entry_value 1] $rdx
	#DEBUG_VALUE: escrypt_kdf_nosse:salt <- [DW_OP_LLVM_entry_value 1] $rcx
	#DEBUG_VALUE: escrypt_kdf_nosse:saltlen <- [DW_OP_LLVM_entry_value 1] $r8
	#DEBUG_VALUE: escrypt_kdf_nosse:N <- [DW_OP_LLVM_entry_value 1] $r9
	#DEBUG_VALUE: escrypt_kdf_nosse:_r <- [DW_OP_plus_uconst 240] [$rsp+0]
	#DEBUG_VALUE: escrypt_kdf_nosse:_p <- [DW_OP_plus_uconst 248] [$rsp+0]
	#DEBUG_VALUE: escrypt_kdf_nosse:buf <- [DW_OP_plus_uconst 256] [$rsp+0]
	#DEBUG_VALUE: escrypt_kdf_nosse:buflen <- [DW_OP_plus_uconst 264] [$rsp+0]
	movl	$-1, %eax
.Ltmp9:
.LBB0_5:
	#DEBUG_VALUE: escrypt_kdf_nosse:local <- [DW_OP_LLVM_entry_value 1] $rdi
	#DEBUG_VALUE: escrypt_kdf_nosse:passwd <- [DW_OP_LLVM_entry_value 1] $rsi
	#DEBUG_VALUE: escrypt_kdf_nosse:passwdlen <- [DW_OP_LLVM_entry_value 1] $rdx
	#DEBUG_VALUE: escrypt_kdf_nosse:salt <- [DW_OP_LLVM_entry_value 1] $rcx
	#DEBUG_VALUE: escrypt_kdf_nosse:saltlen <- [DW_OP_LLVM_entry_value 1] $r8
	#DEBUG_VALUE: escrypt_kdf_nosse:N <- [DW_OP_LLVM_entry_value 1] $r9
	#DEBUG_VALUE: escrypt_kdf_nosse:_r <- [DW_OP_plus_uconst 240] [$rsp+0]
	#DEBUG_VALUE: escrypt_kdf_nosse:_p <- [DW_OP_plus_uconst 248] [$rsp+0]
	#DEBUG_VALUE: escrypt_kdf_nosse:buf <- [DW_OP_plus_uconst 256] [$rsp+0]
	#DEBUG_VALUE: escrypt_kdf_nosse:buflen <- [DW_OP_plus_uconst 264] [$rsp+0]
	.loc	4 318 1 epilogue_begin is_stmt 1 # crypto_pwhash/scryptsalsa208sha256/nosse/pwhash_scryptsalsa208sha256_nosse.c:318:1
	addq	$184, %rsp
	.cfi_def_cfa_offset 56
	popq	%rbx
	.cfi_def_cfa_offset 48
	popq	%r12
	.cfi_def_cfa_offset 40
	popq	%r13
	.cfi_def_cfa_offset 32
	popq	%r14
	.cfi_def_cfa_offset 24
	popq	%r15
	.cfi_def_cfa_offset 16
	popq	%rbp
	.cfi_def_cfa_offset 8
	retq
.Ltmp10:
.LBB0_6:
	.cfi_def_cfa_offset 240
	#DEBUG_VALUE: escrypt_kdf_nosse:local <- $rdi
	#DEBUG_VALUE: escrypt_kdf_nosse:passwd <- $rsi
	#DEBUG_VALUE: escrypt_kdf_nosse:passwdlen <- $rdx
	#DEBUG_VALUE: escrypt_kdf_nosse:salt <- $rcx
	#DEBUG_VALUE: escrypt_kdf_nosse:saltlen <- $r8
	#DEBUG_VALUE: escrypt_kdf_nosse:N <- $r9
	#DEBUG_VALUE: escrypt_kdf_nosse:_r <- [DW_OP_plus_uconst 240] [$rsp+0]
	#DEBUG_VALUE: escrypt_kdf_nosse:_p <- [DW_OP_plus_uconst 248] [$rsp+0]
	#DEBUG_VALUE: escrypt_kdf_nosse:buf <- [DW_OP_plus_uconst 256] [$rsp+0]
	#DEBUG_VALUE: escrypt_kdf_nosse:buflen <- [DW_OP_plus_uconst 264] [$rsp+0]
	#DEBUG_VALUE: escrypt_kdf_nosse:r <- $r11d
	#DEBUG_VALUE: escrypt_kdf_nosse:p <- $ebp
	.loc	4 0 1 is_stmt 0                 # crypto_pwhash/scryptsalsa208sha256/nosse/pwhash_scryptsalsa208sha256_nosse.c:0:1
	cmpq	$2, %r9
.Ltmp11:
	.loc	4 261 30 is_stmt 1              # crypto_pwhash/scryptsalsa208sha256/nosse/pwhash_scryptsalsa208sha256_nosse.c:261:30
	jb	.LBB0_9
.Ltmp12:
# %bb.7:
	#DEBUG_VALUE: escrypt_kdf_nosse:local <- $rdi
	#DEBUG_VALUE: escrypt_kdf_nosse:passwd <- $rsi
	#DEBUG_VALUE: escrypt_kdf_nosse:passwdlen <- $rdx
	#DEBUG_VALUE: escrypt_kdf_nosse:salt <- $rcx
	#DEBUG_VALUE: escrypt_kdf_nosse:saltlen <- $r8
	#DEBUG_VALUE: escrypt_kdf_nosse:N <- $r9
	#DEBUG_VALUE: escrypt_kdf_nosse:_r <- [DW_OP_plus_uconst 240] [$rsp+0]
	#DEBUG_VALUE: escrypt_kdf_nosse:_p <- [DW_OP_plus_uconst 248] [$rsp+0]
	#DEBUG_VALUE: escrypt_kdf_nosse:buf <- [DW_OP_plus_uconst 256] [$rsp+0]
	#DEBUG_VALUE: escrypt_kdf_nosse:buflen <- [DW_OP_plus_uconst 264] [$rsp+0]
	#DEBUG_VALUE: escrypt_kdf_nosse:r <- $r11d
	#DEBUG_VALUE: escrypt_kdf_nosse:p <- $ebp
	.loc	4 261 0 is_stmt 0               # crypto_pwhash/scryptsalsa208sha256/nosse/pwhash_scryptsalsa208sha256_nosse.c:261
	leaq	-1(%r9), %r10
	movq	%r9, %rax
	movq	%r10, 112(%rsp)                 # 8-byte Spill
	andq	%r10, %rax
	.loc	4 261 30                        # crypto_pwhash/scryptsalsa208sha256/nosse/pwhash_scryptsalsa208sha256_nosse.c:261:30
	jne	.LBB0_9
.Ltmp13:
# %bb.8:
	#DEBUG_VALUE: escrypt_kdf_nosse:local <- $rdi
	#DEBUG_VALUE: escrypt_kdf_nosse:passwd <- $rsi
	#DEBUG_VALUE: escrypt_kdf_nosse:passwdlen <- $rdx
	#DEBUG_VALUE: escrypt_kdf_nosse:salt <- $rcx
	#DEBUG_VALUE: escrypt_kdf_nosse:saltlen <- $r8
	#DEBUG_VALUE: escrypt_kdf_nosse:N <- $r9
	#DEBUG_VALUE: escrypt_kdf_nosse:_r <- [DW_OP_plus_uconst 240] [$rsp+0]
	#DEBUG_VALUE: escrypt_kdf_nosse:_p <- [DW_OP_plus_uconst 248] [$rsp+0]
	#DEBUG_VALUE: escrypt_kdf_nosse:buf <- [DW_OP_plus_uconst 256] [$rsp+0]
	#DEBUG_VALUE: escrypt_kdf_nosse:buflen <- [DW_OP_plus_uconst 264] [$rsp+0]
	#DEBUG_VALUE: escrypt_kdf_nosse:r <- $r11d
	#DEBUG_VALUE: escrypt_kdf_nosse:p <- $ebp
	.loc	4 265 11 is_stmt 1              # crypto_pwhash/scryptsalsa208sha256/nosse/pwhash_scryptsalsa208sha256_nosse.c:265:11
	testl	%r11d, %r11d
	setne	%al
	testl	%ebp, %ebp
	setne	%r10b
	.loc	4 265 16 is_stmt 0              # crypto_pwhash/scryptsalsa208sha256/nosse/pwhash_scryptsalsa208sha256_nosse.c:265:16
	testb	%r10b, %al
	jne	.LBB0_10
.Ltmp14:
.LBB0_9:
	#DEBUG_VALUE: escrypt_kdf_nosse:local <- $rdi
	#DEBUG_VALUE: escrypt_kdf_nosse:passwd <- $rsi
	#DEBUG_VALUE: escrypt_kdf_nosse:passwdlen <- $rdx
	#DEBUG_VALUE: escrypt_kdf_nosse:salt <- $rcx
	#DEBUG_VALUE: escrypt_kdf_nosse:saltlen <- $r8
	#DEBUG_VALUE: escrypt_kdf_nosse:N <- $r9
	#DEBUG_VALUE: escrypt_kdf_nosse:_r <- [DW_OP_plus_uconst 240] [$rsp+0]
	#DEBUG_VALUE: escrypt_kdf_nosse:_p <- [DW_OP_plus_uconst 248] [$rsp+0]
	#DEBUG_VALUE: escrypt_kdf_nosse:buf <- [DW_OP_plus_uconst 256] [$rsp+0]
	#DEBUG_VALUE: escrypt_kdf_nosse:buflen <- [DW_OP_plus_uconst 264] [$rsp+0]
	#DEBUG_VALUE: escrypt_kdf_nosse:r <- $r11d
	#DEBUG_VALUE: escrypt_kdf_nosse:p <- $ebp
	.loc	4 0 0                           # crypto_pwhash/scryptsalsa208sha256/nosse/pwhash_scryptsalsa208sha256_nosse.c:0
	callq	__errno_location@PLT
.Ltmp15:
	#DEBUG_VALUE: escrypt_kdf_nosse:N <- [DW_OP_LLVM_entry_value 1] $r9
	#DEBUG_VALUE: escrypt_kdf_nosse:saltlen <- [DW_OP_LLVM_entry_value 1] $r8
	#DEBUG_VALUE: escrypt_kdf_nosse:salt <- [DW_OP_LLVM_entry_value 1] $rcx
	#DEBUG_VALUE: escrypt_kdf_nosse:passwdlen <- [DW_OP_LLVM_entry_value 1] $rdx
	#DEBUG_VALUE: escrypt_kdf_nosse:passwd <- [DW_OP_LLVM_entry_value 1] $rsi
	#DEBUG_VALUE: escrypt_kdf_nosse:local <- [DW_OP_LLVM_entry_value 1] $rdi
	movl	$22, (%rax)
	jmp	.LBB0_4
.Ltmp16:
.LBB0_10:
	#DEBUG_VALUE: escrypt_kdf_nosse:local <- $rdi
	#DEBUG_VALUE: escrypt_kdf_nosse:passwd <- $rsi
	#DEBUG_VALUE: escrypt_kdf_nosse:passwdlen <- $rdx
	#DEBUG_VALUE: escrypt_kdf_nosse:salt <- $rcx
	#DEBUG_VALUE: escrypt_kdf_nosse:saltlen <- $r8
	#DEBUG_VALUE: escrypt_kdf_nosse:N <- $r9
	#DEBUG_VALUE: escrypt_kdf_nosse:_r <- [DW_OP_plus_uconst 240] [$rsp+0]
	#DEBUG_VALUE: escrypt_kdf_nosse:_p <- [DW_OP_plus_uconst 248] [$rsp+0]
	#DEBUG_VALUE: escrypt_kdf_nosse:buf <- [DW_OP_plus_uconst 256] [$rsp+0]
	#DEBUG_VALUE: escrypt_kdf_nosse:buflen <- [DW_OP_plus_uconst 264] [$rsp+0]
	#DEBUG_VALUE: escrypt_kdf_nosse:r <- $r11d
	#DEBUG_VALUE: escrypt_kdf_nosse:p <- $ebp
	movq	%rdx, 64(%rsp)                  # 8-byte Spill
.Ltmp17:
	#DEBUG_VALUE: escrypt_kdf_nosse:passwdlen <- [DW_OP_plus_uconst 64] [$rsp+0]
	movabsq	$144115188075855871, %rax       # imm = 0x1FFFFFFFFFFFFFF
.Ltmp18:
	.loc	4 269 45 is_stmt 1              # crypto_pwhash/scryptsalsa208sha256/nosse/pwhash_scryptsalsa208sha256_nosse.c:269:45
	xorl	%edx, %edx
	divq	%rbp
	.loc	4 269 12 is_stmt 0              # crypto_pwhash/scryptsalsa208sha256/nosse/pwhash_scryptsalsa208sha256_nosse.c:269:12
	cmpq	%r11, %rax
	.loc	4 269 50                        # crypto_pwhash/scryptsalsa208sha256/nosse/pwhash_scryptsalsa208sha256_nosse.c:269:50
	jb	.LBB0_43
.Ltmp19:
# %bb.11:
	#DEBUG_VALUE: escrypt_kdf_nosse:local <- $rdi
	#DEBUG_VALUE: escrypt_kdf_nosse:passwd <- $rsi
	#DEBUG_VALUE: escrypt_kdf_nosse:passwdlen <- [DW_OP_plus_uconst 64] [$rsp+0]
	#DEBUG_VALUE: escrypt_kdf_nosse:salt <- $rcx
	#DEBUG_VALUE: escrypt_kdf_nosse:saltlen <- $r8
	#DEBUG_VALUE: escrypt_kdf_nosse:N <- $r9
	#DEBUG_VALUE: escrypt_kdf_nosse:_r <- [DW_OP_plus_uconst 240] [$rsp+0]
	#DEBUG_VALUE: escrypt_kdf_nosse:_p <- [DW_OP_plus_uconst 248] [$rsp+0]
	#DEBUG_VALUE: escrypt_kdf_nosse:buf <- [DW_OP_plus_uconst 256] [$rsp+0]
	#DEBUG_VALUE: escrypt_kdf_nosse:buflen <- [DW_OP_plus_uconst 264] [$rsp+0]
	#DEBUG_VALUE: escrypt_kdf_nosse:r <- $r11d
	#DEBUG_VALUE: escrypt_kdf_nosse:p <- $ebp
	.loc	4 0 50                          # crypto_pwhash/scryptsalsa208sha256/nosse/pwhash_scryptsalsa208sha256_nosse.c:0:50
	movabsq	$144115188075855871, %rax       # imm = 0x1FFFFFFFFFFFFFF
	.loc	4 273 45 is_stmt 1              # crypto_pwhash/scryptsalsa208sha256/nosse/pwhash_scryptsalsa208sha256_nosse.c:273:45
	xorl	%edx, %edx
	divq	%r11
	.loc	4 273 12 is_stmt 0              # crypto_pwhash/scryptsalsa208sha256/nosse/pwhash_scryptsalsa208sha256_nosse.c:273:12
	cmpq	%rax, %r9
	.loc	4 269 50 is_stmt 1              # crypto_pwhash/scryptsalsa208sha256/nosse/pwhash_scryptsalsa208sha256_nosse.c:269:50
	ja	.LBB0_43
.Ltmp20:
# %bb.12:
	#DEBUG_VALUE: escrypt_kdf_nosse:local <- $rdi
	#DEBUG_VALUE: escrypt_kdf_nosse:passwd <- $rsi
	#DEBUG_VALUE: escrypt_kdf_nosse:passwdlen <- [DW_OP_plus_uconst 64] [$rsp+0]
	#DEBUG_VALUE: escrypt_kdf_nosse:salt <- $rcx
	#DEBUG_VALUE: escrypt_kdf_nosse:saltlen <- $r8
	#DEBUG_VALUE: escrypt_kdf_nosse:N <- $r9
	#DEBUG_VALUE: escrypt_kdf_nosse:_r <- [DW_OP_plus_uconst 240] [$rsp+0]
	#DEBUG_VALUE: escrypt_kdf_nosse:_p <- [DW_OP_plus_uconst 248] [$rsp+0]
	#DEBUG_VALUE: escrypt_kdf_nosse:buf <- [DW_OP_plus_uconst 256] [$rsp+0]
	#DEBUG_VALUE: escrypt_kdf_nosse:buflen <- [DW_OP_plus_uconst 264] [$rsp+0]
	#DEBUG_VALUE: escrypt_kdf_nosse:r <- $r11d
	#DEBUG_VALUE: escrypt_kdf_nosse:p <- $ebp
	.loc	4 279 27                        # crypto_pwhash/scryptsalsa208sha256/nosse/pwhash_scryptsalsa208sha256_nosse.c:279:27
	movq	%r11, %r10
	shlq	$7, %r10
	.loc	4 279 31 is_stmt 0              # crypto_pwhash/scryptsalsa208sha256/nosse/pwhash_scryptsalsa208sha256_nosse.c:279:31
	movq	%r10, %rdx
	imulq	%rbp, %rdx
.Ltmp21:
	#DEBUG_VALUE: escrypt_kdf_nosse:B_size <- $rdx
	.loc	4 280 31 is_stmt 1              # crypto_pwhash/scryptsalsa208sha256/nosse/pwhash_scryptsalsa208sha256_nosse.c:280:31
	movq	%r10, %rbx
	imulq	%r9, %rbx
.Ltmp22:
	#DEBUG_VALUE: escrypt_kdf_nosse:V_size <- $rbx
	.loc	4 281 19                        # crypto_pwhash/scryptsalsa208sha256/nosse/pwhash_scryptsalsa208sha256_nosse.c:281:19
	movq	%rdx, %rax
	addq	%rbx, %rax
.Ltmp23:
	#DEBUG_VALUE: escrypt_kdf_nosse:need <- $rax
	.loc	4 282 14                        # crypto_pwhash/scryptsalsa208sha256/nosse/pwhash_scryptsalsa208sha256_nosse.c:282:14
	jb	.LBB0_43
.Ltmp24:
# %bb.13:
	#DEBUG_VALUE: escrypt_kdf_nosse:local <- $rdi
	#DEBUG_VALUE: escrypt_kdf_nosse:passwd <- $rsi
	#DEBUG_VALUE: escrypt_kdf_nosse:passwdlen <- [DW_OP_plus_uconst 64] [$rsp+0]
	#DEBUG_VALUE: escrypt_kdf_nosse:salt <- $rcx
	#DEBUG_VALUE: escrypt_kdf_nosse:saltlen <- $r8
	#DEBUG_VALUE: escrypt_kdf_nosse:N <- $r9
	#DEBUG_VALUE: escrypt_kdf_nosse:_r <- [DW_OP_plus_uconst 240] [$rsp+0]
	#DEBUG_VALUE: escrypt_kdf_nosse:_p <- [DW_OP_plus_uconst 248] [$rsp+0]
	#DEBUG_VALUE: escrypt_kdf_nosse:buf <- [DW_OP_plus_uconst 256] [$rsp+0]
	#DEBUG_VALUE: escrypt_kdf_nosse:buflen <- [DW_OP_plus_uconst 264] [$rsp+0]
	#DEBUG_VALUE: escrypt_kdf_nosse:r <- $r11d
	#DEBUG_VALUE: escrypt_kdf_nosse:p <- $ebp
	#DEBUG_VALUE: escrypt_kdf_nosse:B_size <- $rdx
	#DEBUG_VALUE: escrypt_kdf_nosse:V_size <- $rbx
	#DEBUG_VALUE: escrypt_kdf_nosse:need <- $rax
	.loc	4 0 14 is_stmt 0                # crypto_pwhash/scryptsalsa208sha256/nosse/pwhash_scryptsalsa208sha256_nosse.c:0:14
	movq	%rbx, %r14
.Ltmp25:
	#DEBUG_VALUE: escrypt_kdf_nosse:V_size <- $r14
	movq	%r10, 16(%rsp)                  # 8-byte Spill
	movq	%r9, 56(%rsp)                   # 8-byte Spill
.Ltmp26:
	#DEBUG_VALUE: escrypt_kdf_nosse:N <- [DW_OP_plus_uconst 56] [$rsp+0]
	.loc	4 286 28 is_stmt 1              # crypto_pwhash/scryptsalsa208sha256/nosse/pwhash_scryptsalsa208sha256_nosse.c:286:28
	movq	%r11, %rbx
	shlq	$8, %rbx
.Ltmp27:
	#DEBUG_VALUE: escrypt_kdf_nosse:XY_size <- undef
	.loc	4 287 10                        # crypto_pwhash/scryptsalsa208sha256/nosse/pwhash_scryptsalsa208sha256_nosse.c:287:10
	leaq	(%rax,%rbx), %r12
	addq	$64, %r12
.Ltmp28:
	#DEBUG_VALUE: escrypt_kdf_nosse:need <- $r12
	.loc	4 288 14                        # crypto_pwhash/scryptsalsa208sha256/nosse/pwhash_scryptsalsa208sha256_nosse.c:288:14
	cmpq	%rbx, %r12
	jbe	.LBB0_43
.Ltmp29:
# %bb.14:
	#DEBUG_VALUE: escrypt_kdf_nosse:local <- $rdi
	#DEBUG_VALUE: escrypt_kdf_nosse:passwd <- $rsi
	#DEBUG_VALUE: escrypt_kdf_nosse:passwdlen <- [DW_OP_plus_uconst 64] [$rsp+0]
	#DEBUG_VALUE: escrypt_kdf_nosse:salt <- $rcx
	#DEBUG_VALUE: escrypt_kdf_nosse:saltlen <- $r8
	#DEBUG_VALUE: escrypt_kdf_nosse:N <- [DW_OP_plus_uconst 56] [$rsp+0]
	#DEBUG_VALUE: escrypt_kdf_nosse:_r <- [DW_OP_plus_uconst 240] [$rsp+0]
	#DEBUG_VALUE: escrypt_kdf_nosse:_p <- [DW_OP_plus_uconst 248] [$rsp+0]
	#DEBUG_VALUE: escrypt_kdf_nosse:buf <- [DW_OP_plus_uconst 256] [$rsp+0]
	#DEBUG_VALUE: escrypt_kdf_nosse:buflen <- [DW_OP_plus_uconst 264] [$rsp+0]
	#DEBUG_VALUE: escrypt_kdf_nosse:r <- $r11d
	#DEBUG_VALUE: escrypt_kdf_nosse:p <- $ebp
	#DEBUG_VALUE: escrypt_kdf_nosse:B_size <- $rdx
	#DEBUG_VALUE: escrypt_kdf_nosse:V_size <- $r14
	#DEBUG_VALUE: escrypt_kdf_nosse:need <- $r12
	.loc	4 0 14 is_stmt 0                # crypto_pwhash/scryptsalsa208sha256/nosse/pwhash_scryptsalsa208sha256_nosse.c:0:14
	movq	%r8, %r15
.Ltmp30:
	#DEBUG_VALUE: escrypt_kdf_nosse:saltlen <- $r15
	.loc	4 292 21 is_stmt 1              # crypto_pwhash/scryptsalsa208sha256/nosse/pwhash_scryptsalsa208sha256_nosse.c:292:21
	cmpq	%r12, 16(%rdi)
	movq	%rdx, 48(%rsp)                  # 8-byte Spill
.Ltmp31:
	#DEBUG_VALUE: escrypt_kdf_nosse:B_size <- [DW_OP_plus_uconst 48, DW_OP_deref] $rsp
	.loc	4 0 21 is_stmt 0                # crypto_pwhash/scryptsalsa208sha256/nosse/pwhash_scryptsalsa208sha256_nosse.c:0:21
	movq	%rbx, 88(%rsp)                  # 8-byte Spill
	.loc	4 292 21                        # crypto_pwhash/scryptsalsa208sha256/nosse/pwhash_scryptsalsa208sha256_nosse.c:292:21
	jae	.LBB0_17
.Ltmp32:
# %bb.15:
	#DEBUG_VALUE: escrypt_kdf_nosse:local <- $rdi
	#DEBUG_VALUE: escrypt_kdf_nosse:passwd <- $rsi
	#DEBUG_VALUE: escrypt_kdf_nosse:passwdlen <- [DW_OP_plus_uconst 64] [$rsp+0]
	#DEBUG_VALUE: escrypt_kdf_nosse:salt <- $rcx
	#DEBUG_VALUE: escrypt_kdf_nosse:saltlen <- $r15
	#DEBUG_VALUE: escrypt_kdf_nosse:N <- [DW_OP_plus_uconst 56] [$rsp+0]
	#DEBUG_VALUE: escrypt_kdf_nosse:_r <- [DW_OP_plus_uconst 240] [$rsp+0]
	#DEBUG_VALUE: escrypt_kdf_nosse:_p <- [DW_OP_plus_uconst 248] [$rsp+0]
	#DEBUG_VALUE: escrypt_kdf_nosse:buf <- [DW_OP_plus_uconst 256] [$rsp+0]
	#DEBUG_VALUE: escrypt_kdf_nosse:buflen <- [DW_OP_plus_uconst 264] [$rsp+0]
	#DEBUG_VALUE: escrypt_kdf_nosse:r <- $r11d
	#DEBUG_VALUE: escrypt_kdf_nosse:p <- $ebp
	#DEBUG_VALUE: escrypt_kdf_nosse:B_size <- [DW_OP_plus_uconst 48, DW_OP_deref] $rsp
	#DEBUG_VALUE: escrypt_kdf_nosse:V_size <- $r14
	#DEBUG_VALUE: escrypt_kdf_nosse:need <- $r12
	.loc	4 0 21                          # crypto_pwhash/scryptsalsa208sha256/nosse/pwhash_scryptsalsa208sha256_nosse.c:0:21
	movq	%rcx, 8(%rsp)                   # 8-byte Spill
.Ltmp33:
	#DEBUG_VALUE: escrypt_kdf_nosse:salt <- [DW_OP_plus_uconst 8] [$rsp+0]
	movq	%rsi, %rbx
.Ltmp34:
	#DEBUG_VALUE: escrypt_kdf_nosse:passwd <- $rbx
	movq	%rdi, %r13
.Ltmp35:
	.loc	4 293 13 is_stmt 1              # crypto_pwhash/scryptsalsa208sha256/nosse/pwhash_scryptsalsa208sha256_nosse.c:293:13
	callq	escrypt_free_region@PLT
.Ltmp36:
	#DEBUG_VALUE: escrypt_kdf_nosse:local <- $r13
	movl	%eax, %ecx
	movl	$-1, %eax
	testl	%ecx, %ecx
	jne	.LBB0_5
.Ltmp37:
# %bb.16:
	#DEBUG_VALUE: escrypt_kdf_nosse:local <- $r13
	#DEBUG_VALUE: escrypt_kdf_nosse:passwd <- $rbx
	#DEBUG_VALUE: escrypt_kdf_nosse:passwdlen <- [DW_OP_plus_uconst 64] [$rsp+0]
	#DEBUG_VALUE: escrypt_kdf_nosse:salt <- [DW_OP_plus_uconst 8] [$rsp+0]
	#DEBUG_VALUE: escrypt_kdf_nosse:saltlen <- $r15
	#DEBUG_VALUE: escrypt_kdf_nosse:N <- [DW_OP_plus_uconst 56] [$rsp+0]
	#DEBUG_VALUE: escrypt_kdf_nosse:_r <- [DW_OP_plus_uconst 240] [$rsp+0]
	#DEBUG_VALUE: escrypt_kdf_nosse:_p <- [DW_OP_plus_uconst 248] [$rsp+0]
	#DEBUG_VALUE: escrypt_kdf_nosse:buf <- [DW_OP_plus_uconst 256] [$rsp+0]
	#DEBUG_VALUE: escrypt_kdf_nosse:buflen <- [DW_OP_plus_uconst 264] [$rsp+0]
	#DEBUG_VALUE: escrypt_kdf_nosse:p <- $ebp
	#DEBUG_VALUE: escrypt_kdf_nosse:B_size <- [DW_OP_plus_uconst 48, DW_OP_deref] $rsp
	#DEBUG_VALUE: escrypt_kdf_nosse:V_size <- $r14
	#DEBUG_VALUE: escrypt_kdf_nosse:need <- $r12
	.loc	4 296 14                        # crypto_pwhash/scryptsalsa208sha256/nosse/pwhash_scryptsalsa208sha256_nosse.c:296:14
	movq	%r13, %rdi
	movq	%r12, %rsi
	callq	escrypt_alloc_region@PLT
.Ltmp38:
	.loc	4 0 14 is_stmt 0                # crypto_pwhash/scryptsalsa208sha256/nosse/pwhash_scryptsalsa208sha256_nosse.c:0:14
	movq	%r13, %rdi
	.loc	4 296 14                        # crypto_pwhash/scryptsalsa208sha256/nosse/pwhash_scryptsalsa208sha256_nosse.c:296:14
	movq	%rax, %rcx
	movl	$-1, %eax
	testq	%rcx, %rcx
	movq	%rbx, %rsi
	movq	8(%rsp), %rcx                   # 8-byte Reload
	movq	48(%rsp), %rdx                  # 8-byte Reload
	movq	88(%rsp), %rbx                  # 8-byte Reload
.Ltmp39:
	.loc	4 296 13                        # crypto_pwhash/scryptsalsa208sha256/nosse/pwhash_scryptsalsa208sha256_nosse.c:296:13
	je	.LBB0_5
.Ltmp40:
.LBB0_17:                               # %.lr.ph
	#DEBUG_VALUE: escrypt_kdf_nosse:local <- [DW_OP_LLVM_entry_value 1] $rdi
	#DEBUG_VALUE: escrypt_kdf_nosse:passwd <- [DW_OP_LLVM_entry_value 1] $rsi
	#DEBUG_VALUE: escrypt_kdf_nosse:passwdlen <- [DW_OP_plus_uconst 64] [$rsp+0]
	#DEBUG_VALUE: escrypt_kdf_nosse:salt <- [DW_OP_LLVM_entry_value 1] $rcx
	#DEBUG_VALUE: escrypt_kdf_nosse:saltlen <- $r15
	#DEBUG_VALUE: escrypt_kdf_nosse:N <- [DW_OP_plus_uconst 56] [$rsp+0]
	#DEBUG_VALUE: escrypt_kdf_nosse:_r <- [DW_OP_plus_uconst 240] [$rsp+0]
	#DEBUG_VALUE: escrypt_kdf_nosse:_p <- [DW_OP_plus_uconst 248] [$rsp+0]
	#DEBUG_VALUE: escrypt_kdf_nosse:buf <- [DW_OP_plus_uconst 256] [$rsp+0]
	#DEBUG_VALUE: escrypt_kdf_nosse:buflen <- [DW_OP_plus_uconst 264] [$rsp+0]
	#DEBUG_VALUE: escrypt_kdf_nosse:p <- $ebp
	#DEBUG_VALUE: escrypt_kdf_nosse:B_size <- [DW_OP_plus_uconst 48, DW_OP_deref] $rsp
	#DEBUG_VALUE: escrypt_kdf_nosse:V_size <- $r14
	#DEBUG_VALUE: escrypt_kdf_nosse:need <- $r12
	.loc	4 300 28 is_stmt 1              # crypto_pwhash/scryptsalsa208sha256/nosse/pwhash_scryptsalsa208sha256_nosse.c:300:28
	movq	8(%rdi), %r12
.Ltmp41:
	#DEBUG_VALUE: escrypt_kdf_nosse:B <- $r12
	.loc	4 301 37                        # crypto_pwhash/scryptsalsa208sha256/nosse/pwhash_scryptsalsa208sha256_nosse.c:301:37
	leaq	(%r12,%rdx), %rax
.Ltmp42:
	#DEBUG_VALUE: escrypt_kdf_nosse:V <- $rax
	.loc	4 0 37 is_stmt 0                # crypto_pwhash/scryptsalsa208sha256/nosse/pwhash_scryptsalsa208sha256_nosse.c:0:37
	movq	%rax, 104(%rsp)                 # 8-byte Spill
.Ltmp43:
	#DEBUG_VALUE: escrypt_kdf_nosse:V <- [DW_OP_plus_uconst 104, DW_OP_deref] $rsp
	.loc	4 302 38 is_stmt 1              # crypto_pwhash/scryptsalsa208sha256/nosse/pwhash_scryptsalsa208sha256_nosse.c:302:38
	addq	%rax, %r14
.Ltmp44:
	#DEBUG_VALUE: escrypt_kdf_nosse:XY <- $r14
	.loc	4 305 5                         # crypto_pwhash/scryptsalsa208sha256/nosse/pwhash_scryptsalsa208sha256_nosse.c:305:5
	movq	%rdx, (%rsp)
	movl	$1, %r8d
	movq	%rsi, 120(%rsp)                 # 8-byte Spill
	movq	%rsi, %rdi
	movq	64(%rsp), %rsi                  # 8-byte Reload
	movq	%rcx, %rdx
	movq	%r15, %rcx
	movq	%r12, %r9
	callq	escrypt_PBKDF2_SHA256@PLT
.Ltmp45:
	.loc	4 0 5 is_stmt 0                 # crypto_pwhash/scryptsalsa208sha256/nosse/pwhash_scryptsalsa208sha256_nosse.c:0:5
	movq	%r14, %rax
	movq	%r14, 96(%rsp)                  # 8-byte Spill
.Ltmp46:
	#DEBUG_VALUE: escrypt_kdf_nosse:XY <- [DW_OP_plus_uconst 96, DW_OP_deref] $rsp
	#DEBUG_VALUE: escrypt_kdf_nosse:i <- 0
	movl	240(%rsp), %edx
	movq	%rdx, %r14
	shlq	$5, %r14
	movq	16(%rsp), %rsi                  # 8-byte Reload
	leaq	(%rax,%rsi), %rcx
	movq	%rcx, 8(%rsp)                   # 8-byte Spill
	addq	%rbx, %rax
	movq	%rax, 40(%rsp)                  # 8-byte Spill
	movq	56(%rsp), %rax                  # 8-byte Reload
.Ltmp47:
	.loc	4 308 5 is_stmt 1               # crypto_pwhash/scryptsalsa208sha256/nosse/pwhash_scryptsalsa208sha256_nosse.c:308:5
	leaq	(%rax,%rbp), %rcx
	shlq	$7, %rcx
	leaq	256(%rcx), %rdi
	imulq	%rdx, %rdi
	addq	%r12, %rdi
	movq	%rdi, 160(%rsp)                 # 8-byte Spill
	imulq	%rdx, %rcx
	movq	%rcx, 128(%rsp)                 # 8-byte Spill
	shlq	$7, %rax
	shlq	$7, %rbp
.Ltmp48:
	leaq	(%rax,%rbp), %rcx
	imulq	%rdx, %rcx
	leaq	(%r12,%rcx), %rbx
	addq	$16, %rbx
	leaq	16(%r12), %rdi
	leaq	12(%r12), %r8
	leaq	(%r12,%rcx), %r13
	addq	$12, %r13
	leaq	128(%rbp), %rcx
	imulq	%rdx, %rcx
	movq	%rcx, 168(%rsp)                 # 8-byte Spill
	movq	%rbp, 24(%rsp)                  # 8-byte Spill
	addq	%rbp, %rax
	addq	$128, %rax
	imulq	%rdx, %rax
	movq	%r12, 32(%rsp)                  # 8-byte Spill
.Ltmp49:
	#DEBUG_VALUE: escrypt_kdf_nosse:B <- [DW_OP_plus_uconst 32, DW_OP_deref] $rsp
	leaq	(%r12,%rax), %r15
.Ltmp50:
	#DEBUG_VALUE: escrypt_kdf_nosse:saltlen <- [DW_OP_LLVM_entry_value 1] $r8
	addq	$16, %r15
	xorl	%ecx, %ecx
	movq	%r8, 72(%rsp)                   # 8-byte Spill
	movq	%rdi, 80(%rsp)                  # 8-byte Spill
.Ltmp51:
.LBB0_18:                               # %vector.memcheck101
                                        # =>This Loop Header: Depth=1
                                        #     Child Loop BB0_22 Depth 2
                                        #     Child Loop BB0_20 Depth 2
                                        #     Child Loop BB0_24 Depth 2
                                        #     Child Loop BB0_27 Depth 2
                                        #       Child Loop BB0_32 Depth 3
                                        #       Child Loop BB0_30 Depth 3
                                        #       Child Loop BB0_38 Depth 3
                                        #       Child Loop BB0_36 Depth 3
                                        #     Child Loop BB0_40 Depth 2
	#DEBUG_VALUE: escrypt_kdf_nosse:local <- [DW_OP_LLVM_entry_value 1] $rdi
	#DEBUG_VALUE: escrypt_kdf_nosse:passwd <- [DW_OP_LLVM_entry_value 1] $rsi
	#DEBUG_VALUE: escrypt_kdf_nosse:passwdlen <- [DW_OP_plus_uconst 64] [$rsp+0]
	#DEBUG_VALUE: escrypt_kdf_nosse:salt <- [DW_OP_LLVM_entry_value 1] $rcx
	#DEBUG_VALUE: escrypt_kdf_nosse:saltlen <- [DW_OP_LLVM_entry_value 1] $r8
	#DEBUG_VALUE: escrypt_kdf_nosse:N <- [DW_OP_plus_uconst 56] [$rsp+0]
	#DEBUG_VALUE: escrypt_kdf_nosse:_r <- [DW_OP_plus_uconst 240] [$rsp+0]
	#DEBUG_VALUE: escrypt_kdf_nosse:_p <- [DW_OP_plus_uconst 248] [$rsp+0]
	#DEBUG_VALUE: escrypt_kdf_nosse:buf <- [DW_OP_plus_uconst 256] [$rsp+0]
	#DEBUG_VALUE: escrypt_kdf_nosse:buflen <- [DW_OP_plus_uconst 264] [$rsp+0]
	#DEBUG_VALUE: escrypt_kdf_nosse:B_size <- [DW_OP_plus_uconst 48, DW_OP_deref] $rsp
	#DEBUG_VALUE: escrypt_kdf_nosse:B <- [DW_OP_plus_uconst 32, DW_OP_deref] $rsp
	#DEBUG_VALUE: escrypt_kdf_nosse:V <- [DW_OP_plus_uconst 104, DW_OP_deref] $rsp
	#DEBUG_VALUE: escrypt_kdf_nosse:XY <- [DW_OP_plus_uconst 96, DW_OP_deref] $rsp
	#DEBUG_VALUE: escrypt_kdf_nosse:i <- $rcx
	#DEBUG_VALUE: smix:B <- [DW_OP_LLVM_arg 0, DW_OP_plus_uconst 32, DW_OP_deref, DW_OP_LLVM_arg 1, DW_OP_plus_uconst 16, DW_OP_deref, DW_OP_LLVM_arg 2, DW_OP_mul, DW_OP_plus, DW_OP_stack_value] $rsp, $rsp, $rcx
	#DEBUG_VALUE: smix:r <- undef
	#DEBUG_VALUE: smix:N <- [DW_OP_plus_uconst 56, DW_OP_deref] $rsp
	#DEBUG_VALUE: smix:V <- [DW_OP_plus_uconst 104, DW_OP_deref] $rsp
	#DEBUG_VALUE: smix:XY <- [DW_OP_plus_uconst 96, DW_OP_deref] $rsp
	#DEBUG_VALUE: smix:X <- [DW_OP_plus_uconst 96, DW_OP_deref] $rsp
	#DEBUG_VALUE: smix:Y <- [DW_OP_plus_uconst 8, DW_OP_deref] $rsp
	#DEBUG_VALUE: smix:Z <- [DW_OP_plus_uconst 40, DW_OP_deref] $rsp
	#DEBUG_VALUE: smix:k <- 0
	.loc	4 310 34                        # crypto_pwhash/scryptsalsa208sha256/nosse/pwhash_scryptsalsa208sha256_nosse.c:310:34
	movq	%rsi, %rax
	movq	%rcx, 152(%rsp)                 # 8-byte Spill
.Ltmp52:
	#DEBUG_VALUE: smix:B <- [DW_OP_LLVM_arg 0, DW_OP_plus_uconst 32, DW_OP_deref, DW_OP_LLVM_arg 1, DW_OP_plus_uconst 16, DW_OP_deref, DW_OP_LLVM_arg 2, DW_OP_plus_uconst 152, DW_OP_deref, DW_OP_mul, DW_OP_plus, DW_OP_stack_value] $rsp, $rsp, $rsp
	#DEBUG_VALUE: escrypt_kdf_nosse:i <- [DW_OP_plus_uconst 152, DW_OP_deref_size 8, DW_OP_stack_value] $rsp
	imulq	%rcx, %rax
.Ltmp53:
	.loc	4 184 5                         # crypto_pwhash/scryptsalsa208sha256/nosse/pwhash_scryptsalsa208sha256_nosse.c:184:5 @[ crypto_pwhash/scryptsalsa208sha256/nosse/pwhash_scryptsalsa208sha256_nosse.c:310:9 ]
	cmpq	%rax, 128(%rsp)                 # 8-byte Folded Reload
.Ltmp54:
	.loc	4 184 30 is_stmt 0              # crypto_pwhash/scryptsalsa208sha256/nosse/pwhash_scryptsalsa208sha256_nosse.c:184:30 @[ crypto_pwhash/scryptsalsa208sha256/nosse/pwhash_scryptsalsa208sha256_nosse.c:310:9 ]
	jne	.LBB0_21
.Ltmp55:
# %bb.19:                               # %scalar.ph102.preheader
                                        #   in Loop: Header=BB0_18 Depth=1
	#DEBUG_VALUE: escrypt_kdf_nosse:local <- [DW_OP_LLVM_entry_value 1] $rdi
	#DEBUG_VALUE: escrypt_kdf_nosse:passwd <- [DW_OP_LLVM_entry_value 1] $rsi
	#DEBUG_VALUE: escrypt_kdf_nosse:passwdlen <- [DW_OP_plus_uconst 64] [$rsp+0]
	#DEBUG_VALUE: escrypt_kdf_nosse:salt <- [DW_OP_LLVM_entry_value 1] $rcx
	#DEBUG_VALUE: escrypt_kdf_nosse:saltlen <- [DW_OP_LLVM_entry_value 1] $r8
	#DEBUG_VALUE: escrypt_kdf_nosse:N <- [DW_OP_plus_uconst 56] [$rsp+0]
	#DEBUG_VALUE: escrypt_kdf_nosse:_r <- [DW_OP_plus_uconst 240] [$rsp+0]
	#DEBUG_VALUE: escrypt_kdf_nosse:_p <- [DW_OP_plus_uconst 248] [$rsp+0]
	#DEBUG_VALUE: escrypt_kdf_nosse:buf <- [DW_OP_plus_uconst 256] [$rsp+0]
	#DEBUG_VALUE: escrypt_kdf_nosse:buflen <- [DW_OP_plus_uconst 264] [$rsp+0]
	#DEBUG_VALUE: escrypt_kdf_nosse:B_size <- [DW_OP_plus_uconst 48, DW_OP_deref] $rsp
	#DEBUG_VALUE: escrypt_kdf_nosse:B <- [DW_OP_plus_uconst 32, DW_OP_deref] $rsp
	#DEBUG_VALUE: escrypt_kdf_nosse:V <- [DW_OP_plus_uconst 104, DW_OP_deref] $rsp
	#DEBUG_VALUE: escrypt_kdf_nosse:XY <- [DW_OP_plus_uconst 96, DW_OP_deref] $rsp
	#DEBUG_VALUE: escrypt_kdf_nosse:i <- [DW_OP_plus_uconst 152, DW_OP_deref_size 8, DW_OP_stack_value] $rsp
	#DEBUG_VALUE: smix:B <- [DW_OP_LLVM_arg 0, DW_OP_plus_uconst 32, DW_OP_deref, DW_OP_LLVM_arg 1, DW_OP_plus_uconst 16, DW_OP_deref, DW_OP_LLVM_arg 2, DW_OP_plus_uconst 152, DW_OP_deref, DW_OP_mul, DW_OP_plus, DW_OP_stack_value] $rsp, $rsp, $rsp
	#DEBUG_VALUE: smix:N <- [DW_OP_plus_uconst 56, DW_OP_deref] $rsp
	#DEBUG_VALUE: smix:V <- [DW_OP_plus_uconst 104, DW_OP_deref] $rsp
	#DEBUG_VALUE: smix:XY <- [DW_OP_plus_uconst 96, DW_OP_deref] $rsp
	#DEBUG_VALUE: smix:X <- [DW_OP_plus_uconst 96, DW_OP_deref] $rsp
	#DEBUG_VALUE: smix:Y <- [DW_OP_plus_uconst 8, DW_OP_deref] $rsp
	#DEBUG_VALUE: smix:Z <- [DW_OP_plus_uconst 40, DW_OP_deref] $rsp
	#DEBUG_VALUE: smix:k <- 0
	.loc	4 0 30                          # crypto_pwhash/scryptsalsa208sha256/nosse/pwhash_scryptsalsa208sha256_nosse.c:0:30
	xorl	%eax, %eax
.Ltmp56:
	.p2align	4
.LBB0_20:                               # %scalar.ph102
                                        #   Parent Loop BB0_18 Depth=1
                                        # =>  This Inner Loop Header: Depth=2
	#DEBUG_VALUE: escrypt_kdf_nosse:local <- [DW_OP_LLVM_entry_value 1] $rdi
	#DEBUG_VALUE: escrypt_kdf_nosse:passwd <- [DW_OP_LLVM_entry_value 1] $rsi
	#DEBUG_VALUE: escrypt_kdf_nosse:passwdlen <- [DW_OP_plus_uconst 64] [$rsp+0]
	#DEBUG_VALUE: escrypt_kdf_nosse:salt <- [DW_OP_LLVM_entry_value 1] $rcx
	#DEBUG_VALUE: escrypt_kdf_nosse:saltlen <- [DW_OP_LLVM_entry_value 1] $r8
	#DEBUG_VALUE: escrypt_kdf_nosse:N <- [DW_OP_plus_uconst 56] [$rsp+0]
	#DEBUG_VALUE: escrypt_kdf_nosse:_r <- [DW_OP_plus_uconst 240] [$rsp+0]
	#DEBUG_VALUE: escrypt_kdf_nosse:_p <- [DW_OP_plus_uconst 248] [$rsp+0]
	#DEBUG_VALUE: escrypt_kdf_nosse:buf <- [DW_OP_plus_uconst 256] [$rsp+0]
	#DEBUG_VALUE: escrypt_kdf_nosse:buflen <- [DW_OP_plus_uconst 264] [$rsp+0]
	#DEBUG_VALUE: escrypt_kdf_nosse:B_size <- [DW_OP_plus_uconst 48, DW_OP_deref] $rsp
	#DEBUG_VALUE: escrypt_kdf_nosse:B <- [DW_OP_plus_uconst 32, DW_OP_deref] $rsp
	#DEBUG_VALUE: escrypt_kdf_nosse:V <- [DW_OP_plus_uconst 104, DW_OP_deref] $rsp
	#DEBUG_VALUE: escrypt_kdf_nosse:XY <- [DW_OP_plus_uconst 96, DW_OP_deref] $rsp
	#DEBUG_VALUE: escrypt_kdf_nosse:i <- [DW_OP_plus_uconst 152, DW_OP_deref_size 8, DW_OP_stack_value] $rsp
	#DEBUG_VALUE: smix:B <- [DW_OP_LLVM_arg 0, DW_OP_plus_uconst 32, DW_OP_deref, DW_OP_LLVM_arg 1, DW_OP_plus_uconst 16, DW_OP_deref, DW_OP_LLVM_arg 2, DW_OP_plus_uconst 152, DW_OP_deref, DW_OP_mul, DW_OP_plus, DW_OP_stack_value] $rsp, $rsp, $rsp
	#DEBUG_VALUE: smix:N <- [DW_OP_plus_uconst 56, DW_OP_deref] $rsp
	#DEBUG_VALUE: smix:V <- [DW_OP_plus_uconst 104, DW_OP_deref] $rsp
	#DEBUG_VALUE: smix:XY <- [DW_OP_plus_uconst 96, DW_OP_deref] $rsp
	#DEBUG_VALUE: smix:X <- [DW_OP_plus_uconst 96, DW_OP_deref] $rsp
	#DEBUG_VALUE: smix:Y <- [DW_OP_plus_uconst 8, DW_OP_deref] $rsp
	#DEBUG_VALUE: smix:Z <- [DW_OP_plus_uconst 40, DW_OP_deref] $rsp
	#DEBUG_VALUE: smix:k <- $rax
	#DEBUG_VALUE: load32_le:w <- undef
	#DEBUG_VALUE: load32_le:src <- [DW_OP_LLVM_arg 0, DW_OP_plus_uconst 32, DW_OP_deref, DW_OP_LLVM_arg 2, DW_OP_plus_uconst 16, DW_OP_deref, DW_OP_LLVM_arg 3, DW_OP_plus_uconst 152, DW_OP_deref, DW_OP_mul, DW_OP_plus, DW_OP_LLVM_arg 1, DW_OP_constu 2, DW_OP_shl, DW_OP_plus, DW_OP_stack_value] $rsp, $rax, $rsp, $rsp
	#DEBUG_VALUE: memcpy:__dest <- undef
	#DEBUG_VALUE: memcpy:__src <- [DW_OP_LLVM_arg 0, DW_OP_plus_uconst 32, DW_OP_deref, DW_OP_LLVM_arg 2, DW_OP_plus_uconst 16, DW_OP_deref, DW_OP_LLVM_arg 3, DW_OP_plus_uconst 152, DW_OP_deref, DW_OP_mul, DW_OP_plus, DW_OP_LLVM_arg 1, DW_OP_constu 2, DW_OP_shl, DW_OP_plus, DW_OP_stack_value] $rsp, $rax, $rsp, $rsp
	#DEBUG_VALUE: memcpy:__len <- 4
	.file	5 "/usr/include/x86_64-linux-gnu/bits" "string_fortified.h"
	.loc	5 29 10 is_stmt 1               # /usr/include/x86_64-linux-gnu/bits/string_fortified.h:29:10 @[ ./include/sodium/private/common.h:106:5 @[ crypto_pwhash/scryptsalsa208sha256/nosse/pwhash_scryptsalsa208sha256_nosse.c:185:16 @[ crypto_pwhash/scryptsalsa208sha256/nosse/pwhash_scryptsalsa208sha256_nosse.c:310:9 ] ] ]
	movl	-12(%r8,%rax,4), %ecx
.Ltmp57:
	.loc	4 185 14                        # crypto_pwhash/scryptsalsa208sha256/nosse/pwhash_scryptsalsa208sha256_nosse.c:185:14 @[ crypto_pwhash/scryptsalsa208sha256/nosse/pwhash_scryptsalsa208sha256_nosse.c:310:9 ]
	movl	%ecx, -12(%r13,%rax,4)
.Ltmp58:
	#DEBUG_VALUE: smix:k <- [DW_OP_constu 1, DW_OP_or, DW_OP_stack_value] $rax
	#DEBUG_VALUE: load32_le:src <- [DW_OP_LLVM_arg 0, DW_OP_plus_uconst 32, DW_OP_deref, DW_OP_LLVM_arg 2, DW_OP_plus_uconst 16, DW_OP_deref, DW_OP_LLVM_arg 3, DW_OP_plus_uconst 152, DW_OP_deref, DW_OP_mul, DW_OP_plus, DW_OP_LLVM_arg 1, DW_OP_constu 1, DW_OP_or, DW_OP_constu 2, DW_OP_shl, DW_OP_plus, DW_OP_stack_value] $rsp, $rax, $rsp, $rsp
	#DEBUG_VALUE: memcpy:__src <- [DW_OP_LLVM_arg 0, DW_OP_plus_uconst 32, DW_OP_deref, DW_OP_LLVM_arg 2, DW_OP_plus_uconst 16, DW_OP_deref, DW_OP_LLVM_arg 3, DW_OP_plus_uconst 152, DW_OP_deref, DW_OP_mul, DW_OP_plus, DW_OP_LLVM_arg 1, DW_OP_constu 1, DW_OP_or, DW_OP_constu 2, DW_OP_shl, DW_OP_plus, DW_OP_stack_value] $rsp, $rax, $rsp, $rsp
	.loc	5 29 10                         # /usr/include/x86_64-linux-gnu/bits/string_fortified.h:29:10 @[ ./include/sodium/private/common.h:106:5 @[ crypto_pwhash/scryptsalsa208sha256/nosse/pwhash_scryptsalsa208sha256_nosse.c:185:16 @[ crypto_pwhash/scryptsalsa208sha256/nosse/pwhash_scryptsalsa208sha256_nosse.c:310:9 ] ] ]
	movl	-8(%r8,%rax,4), %ecx
.Ltmp59:
	.loc	4 185 14                        # crypto_pwhash/scryptsalsa208sha256/nosse/pwhash_scryptsalsa208sha256_nosse.c:185:14 @[ crypto_pwhash/scryptsalsa208sha256/nosse/pwhash_scryptsalsa208sha256_nosse.c:310:9 ]
	movl	%ecx, -8(%r13,%rax,4)
.Ltmp60:
	#DEBUG_VALUE: smix:k <- [DW_OP_constu 2, DW_OP_or, DW_OP_stack_value] $rax
	#DEBUG_VALUE: load32_le:src <- [DW_OP_LLVM_arg 0, DW_OP_plus_uconst 32, DW_OP_deref, DW_OP_LLVM_arg 2, DW_OP_plus_uconst 16, DW_OP_deref, DW_OP_LLVM_arg 3, DW_OP_plus_uconst 152, DW_OP_deref, DW_OP_mul, DW_OP_plus, DW_OP_LLVM_arg 1, DW_OP_constu 2, DW_OP_or, DW_OP_constu 2, DW_OP_shl, DW_OP_plus, DW_OP_stack_value] $rsp, $rax, $rsp, $rsp
	#DEBUG_VALUE: memcpy:__src <- [DW_OP_LLVM_arg 0, DW_OP_plus_uconst 32, DW_OP_deref, DW_OP_LLVM_arg 2, DW_OP_plus_uconst 16, DW_OP_deref, DW_OP_LLVM_arg 3, DW_OP_plus_uconst 152, DW_OP_deref, DW_OP_mul, DW_OP_plus, DW_OP_LLVM_arg 1, DW_OP_constu 2, DW_OP_or, DW_OP_constu 2, DW_OP_shl, DW_OP_plus, DW_OP_stack_value] $rsp, $rax, $rsp, $rsp
	.loc	5 29 10                         # /usr/include/x86_64-linux-gnu/bits/string_fortified.h:29:10 @[ ./include/sodium/private/common.h:106:5 @[ crypto_pwhash/scryptsalsa208sha256/nosse/pwhash_scryptsalsa208sha256_nosse.c:185:16 @[ crypto_pwhash/scryptsalsa208sha256/nosse/pwhash_scryptsalsa208sha256_nosse.c:310:9 ] ] ]
	movl	-4(%r8,%rax,4), %ecx
.Ltmp61:
	.loc	4 185 14                        # crypto_pwhash/scryptsalsa208sha256/nosse/pwhash_scryptsalsa208sha256_nosse.c:185:14 @[ crypto_pwhash/scryptsalsa208sha256/nosse/pwhash_scryptsalsa208sha256_nosse.c:310:9 ]
	movl	%ecx, -4(%r13,%rax,4)
.Ltmp62:
	#DEBUG_VALUE: smix:k <- [DW_OP_constu 3, DW_OP_or, DW_OP_stack_value] $rax
	#DEBUG_VALUE: load32_le:src <- [DW_OP_LLVM_arg 0, DW_OP_plus_uconst 32, DW_OP_deref, DW_OP_LLVM_arg 2, DW_OP_plus_uconst 16, DW_OP_deref, DW_OP_LLVM_arg 3, DW_OP_plus_uconst 152, DW_OP_deref, DW_OP_mul, DW_OP_plus, DW_OP_LLVM_arg 1, DW_OP_constu 3, DW_OP_or, DW_OP_constu 2, DW_OP_shl, DW_OP_plus, DW_OP_stack_value] $rsp, $rax, $rsp, $rsp
	#DEBUG_VALUE: memcpy:__src <- [DW_OP_LLVM_arg 0, DW_OP_plus_uconst 32, DW_OP_deref, DW_OP_LLVM_arg 2, DW_OP_plus_uconst 16, DW_OP_deref, DW_OP_LLVM_arg 3, DW_OP_plus_uconst 152, DW_OP_deref, DW_OP_mul, DW_OP_plus, DW_OP_LLVM_arg 1, DW_OP_constu 3, DW_OP_or, DW_OP_constu 2, DW_OP_shl, DW_OP_plus, DW_OP_stack_value] $rsp, $rax, $rsp, $rsp
	.loc	5 29 10                         # /usr/include/x86_64-linux-gnu/bits/string_fortified.h:29:10 @[ ./include/sodium/private/common.h:106:5 @[ crypto_pwhash/scryptsalsa208sha256/nosse/pwhash_scryptsalsa208sha256_nosse.c:185:16 @[ crypto_pwhash/scryptsalsa208sha256/nosse/pwhash_scryptsalsa208sha256_nosse.c:310:9 ] ] ]
	movl	(%r8,%rax,4), %ecx
.Ltmp63:
	.loc	4 185 14                        # crypto_pwhash/scryptsalsa208sha256/nosse/pwhash_scryptsalsa208sha256_nosse.c:185:14 @[ crypto_pwhash/scryptsalsa208sha256/nosse/pwhash_scryptsalsa208sha256_nosse.c:310:9 ]
	movl	%ecx, (%r13,%rax,4)
.Ltmp64:
	.loc	4 184 30                        # crypto_pwhash/scryptsalsa208sha256/nosse/pwhash_scryptsalsa208sha256_nosse.c:184:30 @[ crypto_pwhash/scryptsalsa208sha256/nosse/pwhash_scryptsalsa208sha256_nosse.c:310:9 ]
	addq	$4, %rax
.Ltmp65:
	#DEBUG_VALUE: smix:k <- $rax
	.loc	4 184 19 is_stmt 0              # crypto_pwhash/scryptsalsa208sha256/nosse/pwhash_scryptsalsa208sha256_nosse.c:184:19 @[ crypto_pwhash/scryptsalsa208sha256/nosse/pwhash_scryptsalsa208sha256_nosse.c:310:9 ]
	cmpq	%rax, %r14
.Ltmp66:
	.loc	4 184 5                         # crypto_pwhash/scryptsalsa208sha256/nosse/pwhash_scryptsalsa208sha256_nosse.c:184:5 @[ crypto_pwhash/scryptsalsa208sha256/nosse/pwhash_scryptsalsa208sha256_nosse.c:310:9 ]
	jne	.LBB0_20
	jmp	.LBB0_23
.Ltmp67:
.LBB0_21:                               # %vector.body107.preheader
                                        #   in Loop: Header=BB0_18 Depth=1
	#DEBUG_VALUE: escrypt_kdf_nosse:local <- [DW_OP_LLVM_entry_value 1] $rdi
	#DEBUG_VALUE: escrypt_kdf_nosse:passwd <- [DW_OP_LLVM_entry_value 1] $rsi
	#DEBUG_VALUE: escrypt_kdf_nosse:passwdlen <- [DW_OP_plus_uconst 64] [$rsp+0]
	#DEBUG_VALUE: escrypt_kdf_nosse:salt <- [DW_OP_LLVM_entry_value 1] $rcx
	#DEBUG_VALUE: escrypt_kdf_nosse:saltlen <- [DW_OP_LLVM_entry_value 1] $r8
	#DEBUG_VALUE: escrypt_kdf_nosse:N <- [DW_OP_plus_uconst 56] [$rsp+0]
	#DEBUG_VALUE: escrypt_kdf_nosse:_r <- [DW_OP_plus_uconst 240] [$rsp+0]
	#DEBUG_VALUE: escrypt_kdf_nosse:_p <- [DW_OP_plus_uconst 248] [$rsp+0]
	#DEBUG_VALUE: escrypt_kdf_nosse:buf <- [DW_OP_plus_uconst 256] [$rsp+0]
	#DEBUG_VALUE: escrypt_kdf_nosse:buflen <- [DW_OP_plus_uconst 264] [$rsp+0]
	#DEBUG_VALUE: escrypt_kdf_nosse:B_size <- [DW_OP_plus_uconst 48, DW_OP_deref] $rsp
	#DEBUG_VALUE: escrypt_kdf_nosse:B <- [DW_OP_plus_uconst 32, DW_OP_deref] $rsp
	#DEBUG_VALUE: escrypt_kdf_nosse:V <- [DW_OP_plus_uconst 104, DW_OP_deref] $rsp
	#DEBUG_VALUE: escrypt_kdf_nosse:XY <- [DW_OP_plus_uconst 96, DW_OP_deref] $rsp
	#DEBUG_VALUE: escrypt_kdf_nosse:i <- [DW_OP_plus_uconst 152, DW_OP_deref_size 8, DW_OP_stack_value] $rsp
	#DEBUG_VALUE: smix:B <- [DW_OP_LLVM_arg 0, DW_OP_plus_uconst 32, DW_OP_deref, DW_OP_LLVM_arg 1, DW_OP_plus_uconst 16, DW_OP_deref, DW_OP_LLVM_arg 2, DW_OP_plus_uconst 152, DW_OP_deref, DW_OP_mul, DW_OP_plus, DW_OP_stack_value] $rsp, $rsp, $rsp
	#DEBUG_VALUE: smix:N <- [DW_OP_plus_uconst 56, DW_OP_deref] $rsp
	#DEBUG_VALUE: smix:V <- [DW_OP_plus_uconst 104, DW_OP_deref] $rsp
	#DEBUG_VALUE: smix:XY <- [DW_OP_plus_uconst 96, DW_OP_deref] $rsp
	#DEBUG_VALUE: smix:X <- [DW_OP_plus_uconst 96, DW_OP_deref] $rsp
	#DEBUG_VALUE: smix:Y <- [DW_OP_plus_uconst 8, DW_OP_deref] $rsp
	#DEBUG_VALUE: smix:Z <- [DW_OP_plus_uconst 40, DW_OP_deref] $rsp
	#DEBUG_VALUE: smix:k <- 0
	.loc	4 0 5                           # crypto_pwhash/scryptsalsa208sha256/nosse/pwhash_scryptsalsa208sha256_nosse.c:0:5
	xorl	%eax, %eax
.Ltmp68:
	.p2align	4
.LBB0_22:                               # %vector.body107
                                        #   Parent Loop BB0_18 Depth=1
                                        # =>  This Inner Loop Header: Depth=2
	#DEBUG_VALUE: escrypt_kdf_nosse:local <- [DW_OP_LLVM_entry_value 1] $rdi
	#DEBUG_VALUE: escrypt_kdf_nosse:passwd <- [DW_OP_LLVM_entry_value 1] $rsi
	#DEBUG_VALUE: escrypt_kdf_nosse:passwdlen <- [DW_OP_plus_uconst 64] [$rsp+0]
	#DEBUG_VALUE: escrypt_kdf_nosse:salt <- [DW_OP_LLVM_entry_value 1] $rcx
	#DEBUG_VALUE: escrypt_kdf_nosse:saltlen <- [DW_OP_LLVM_entry_value 1] $r8
	#DEBUG_VALUE: escrypt_kdf_nosse:N <- [DW_OP_plus_uconst 56] [$rsp+0]
	#DEBUG_VALUE: escrypt_kdf_nosse:_r <- [DW_OP_plus_uconst 240] [$rsp+0]
	#DEBUG_VALUE: escrypt_kdf_nosse:_p <- [DW_OP_plus_uconst 248] [$rsp+0]
	#DEBUG_VALUE: escrypt_kdf_nosse:buf <- [DW_OP_plus_uconst 256] [$rsp+0]
	#DEBUG_VALUE: escrypt_kdf_nosse:buflen <- [DW_OP_plus_uconst 264] [$rsp+0]
	#DEBUG_VALUE: escrypt_kdf_nosse:B_size <- [DW_OP_plus_uconst 48, DW_OP_deref] $rsp
	#DEBUG_VALUE: escrypt_kdf_nosse:B <- [DW_OP_plus_uconst 32, DW_OP_deref] $rsp
	#DEBUG_VALUE: escrypt_kdf_nosse:V <- [DW_OP_plus_uconst 104, DW_OP_deref] $rsp
	#DEBUG_VALUE: escrypt_kdf_nosse:XY <- [DW_OP_plus_uconst 96, DW_OP_deref] $rsp
	#DEBUG_VALUE: escrypt_kdf_nosse:i <- [DW_OP_plus_uconst 152, DW_OP_deref_size 8, DW_OP_stack_value] $rsp
	#DEBUG_VALUE: smix:B <- [DW_OP_LLVM_arg 0, DW_OP_plus_uconst 32, DW_OP_deref, DW_OP_LLVM_arg 1, DW_OP_plus_uconst 16, DW_OP_deref, DW_OP_LLVM_arg 2, DW_OP_plus_uconst 152, DW_OP_deref, DW_OP_mul, DW_OP_plus, DW_OP_stack_value] $rsp, $rsp, $rsp
	#DEBUG_VALUE: smix:N <- [DW_OP_plus_uconst 56, DW_OP_deref] $rsp
	#DEBUG_VALUE: smix:V <- [DW_OP_plus_uconst 104, DW_OP_deref] $rsp
	#DEBUG_VALUE: smix:XY <- [DW_OP_plus_uconst 96, DW_OP_deref] $rsp
	#DEBUG_VALUE: smix:X <- [DW_OP_plus_uconst 96, DW_OP_deref] $rsp
	#DEBUG_VALUE: smix:Y <- [DW_OP_plus_uconst 8, DW_OP_deref] $rsp
	#DEBUG_VALUE: smix:Z <- [DW_OP_plus_uconst 40, DW_OP_deref] $rsp
	#DEBUG_VALUE: smix:k <- 0
	.loc	5 29 10 is_stmt 1               # /usr/include/x86_64-linux-gnu/bits/string_fortified.h:29:10 @[ ./include/sodium/private/common.h:106:5 @[ crypto_pwhash/scryptsalsa208sha256/nosse/pwhash_scryptsalsa208sha256_nosse.c:185:16 @[ crypto_pwhash/scryptsalsa208sha256/nosse/pwhash_scryptsalsa208sha256_nosse.c:310:9 ] ] ]
	movups	-16(%rdi,%rax,4), %xmm0
	movups	(%rdi,%rax,4), %xmm1
.Ltmp69:
	.loc	4 185 14                        # crypto_pwhash/scryptsalsa208sha256/nosse/pwhash_scryptsalsa208sha256_nosse.c:185:14 @[ crypto_pwhash/scryptsalsa208sha256/nosse/pwhash_scryptsalsa208sha256_nosse.c:310:9 ]
	movups	%xmm0, -16(%rbx,%rax,4)
	movups	%xmm1, (%rbx,%rax,4)
.Ltmp70:
	.loc	4 184 30                        # crypto_pwhash/scryptsalsa208sha256/nosse/pwhash_scryptsalsa208sha256_nosse.c:184:30 @[ crypto_pwhash/scryptsalsa208sha256/nosse/pwhash_scryptsalsa208sha256_nosse.c:310:9 ]
	addq	$8, %rax
	cmpq	%rax, %r14
	jne	.LBB0_22
.Ltmp71:
.LBB0_23:                               # %.preheader75.i.preheader
                                        #   in Loop: Header=BB0_18 Depth=1
	#DEBUG_VALUE: escrypt_kdf_nosse:local <- [DW_OP_LLVM_entry_value 1] $rdi
	#DEBUG_VALUE: escrypt_kdf_nosse:passwd <- [DW_OP_LLVM_entry_value 1] $rsi
	#DEBUG_VALUE: escrypt_kdf_nosse:passwdlen <- [DW_OP_plus_uconst 64] [$rsp+0]
	#DEBUG_VALUE: escrypt_kdf_nosse:salt <- [DW_OP_LLVM_entry_value 1] $rcx
	#DEBUG_VALUE: escrypt_kdf_nosse:saltlen <- [DW_OP_LLVM_entry_value 1] $r8
	#DEBUG_VALUE: escrypt_kdf_nosse:N <- [DW_OP_plus_uconst 56] [$rsp+0]
	#DEBUG_VALUE: escrypt_kdf_nosse:_r <- [DW_OP_plus_uconst 240] [$rsp+0]
	#DEBUG_VALUE: escrypt_kdf_nosse:_p <- [DW_OP_plus_uconst 248] [$rsp+0]
	#DEBUG_VALUE: escrypt_kdf_nosse:buf <- [DW_OP_plus_uconst 256] [$rsp+0]
	#DEBUG_VALUE: escrypt_kdf_nosse:buflen <- [DW_OP_plus_uconst 264] [$rsp+0]
	#DEBUG_VALUE: escrypt_kdf_nosse:B_size <- [DW_OP_plus_uconst 48, DW_OP_deref] $rsp
	#DEBUG_VALUE: escrypt_kdf_nosse:B <- [DW_OP_plus_uconst 32, DW_OP_deref] $rsp
	#DEBUG_VALUE: escrypt_kdf_nosse:V <- [DW_OP_plus_uconst 104, DW_OP_deref] $rsp
	#DEBUG_VALUE: escrypt_kdf_nosse:XY <- [DW_OP_plus_uconst 96, DW_OP_deref] $rsp
	#DEBUG_VALUE: escrypt_kdf_nosse:i <- [DW_OP_plus_uconst 152, DW_OP_deref_size 8, DW_OP_stack_value] $rsp
	#DEBUG_VALUE: smix:B <- [DW_OP_LLVM_arg 0, DW_OP_plus_uconst 32, DW_OP_deref, DW_OP_LLVM_arg 1, DW_OP_plus_uconst 16, DW_OP_deref, DW_OP_LLVM_arg 2, DW_OP_plus_uconst 152, DW_OP_deref, DW_OP_mul, DW_OP_plus, DW_OP_stack_value] $rsp, $rsp, $rsp
	#DEBUG_VALUE: smix:N <- [DW_OP_plus_uconst 56, DW_OP_deref] $rsp
	#DEBUG_VALUE: smix:V <- [DW_OP_plus_uconst 104, DW_OP_deref] $rsp
	#DEBUG_VALUE: smix:XY <- [DW_OP_plus_uconst 96, DW_OP_deref] $rsp
	#DEBUG_VALUE: smix:X <- [DW_OP_plus_uconst 96, DW_OP_deref] $rsp
	#DEBUG_VALUE: smix:Y <- [DW_OP_plus_uconst 8, DW_OP_deref] $rsp
	#DEBUG_VALUE: smix:Z <- [DW_OP_plus_uconst 40, DW_OP_deref] $rsp
	.loc	4 0 30 is_stmt 0                # crypto_pwhash/scryptsalsa208sha256/nosse/pwhash_scryptsalsa208sha256_nosse.c:0:30
	movq	%rdi, 136(%rsp)                 # 8-byte Spill
	movq	%r8, 144(%rsp)                  # 8-byte Spill
	movq	32(%rsp), %rbp                  # 8-byte Reload
	xorl	%ecx, %ecx
	movq	96(%rsp), %r12                  # 8-byte Reload
.Ltmp72:
	.p2align	4
.LBB0_24:                               # %.preheader75.i
                                        #   Parent Loop BB0_18 Depth=1
                                        # =>  This Inner Loop Header: Depth=2
	#DEBUG_VALUE: escrypt_kdf_nosse:local <- [DW_OP_LLVM_entry_value 1] $rdi
	#DEBUG_VALUE: escrypt_kdf_nosse:passwd <- [DW_OP_LLVM_entry_value 1] $rsi
	#DEBUG_VALUE: escrypt_kdf_nosse:passwdlen <- [DW_OP_plus_uconst 64] [$rsp+0]
	#DEBUG_VALUE: escrypt_kdf_nosse:salt <- [DW_OP_LLVM_entry_value 1] $rcx
	#DEBUG_VALUE: escrypt_kdf_nosse:saltlen <- [DW_OP_LLVM_entry_value 1] $r8
	#DEBUG_VALUE: escrypt_kdf_nosse:N <- [DW_OP_plus_uconst 56] [$rsp+0]
	#DEBUG_VALUE: escrypt_kdf_nosse:_r <- [DW_OP_plus_uconst 240] [$rsp+0]
	#DEBUG_VALUE: escrypt_kdf_nosse:_p <- [DW_OP_plus_uconst 248] [$rsp+0]
	#DEBUG_VALUE: escrypt_kdf_nosse:buf <- [DW_OP_plus_uconst 256] [$rsp+0]
	#DEBUG_VALUE: escrypt_kdf_nosse:buflen <- [DW_OP_plus_uconst 264] [$rsp+0]
	#DEBUG_VALUE: escrypt_kdf_nosse:B_size <- [DW_OP_plus_uconst 48, DW_OP_deref] $rsp
	#DEBUG_VALUE: escrypt_kdf_nosse:B <- [DW_OP_plus_uconst 32, DW_OP_deref] $rsp
	#DEBUG_VALUE: escrypt_kdf_nosse:V <- [DW_OP_plus_uconst 104, DW_OP_deref] $rsp
	#DEBUG_VALUE: escrypt_kdf_nosse:XY <- [DW_OP_plus_uconst 96, DW_OP_deref] $rsp
	#DEBUG_VALUE: escrypt_kdf_nosse:i <- [DW_OP_plus_uconst 152, DW_OP_deref_size 8, DW_OP_stack_value] $rsp
	#DEBUG_VALUE: smix:B <- [DW_OP_LLVM_arg 0, DW_OP_plus_uconst 32, DW_OP_deref, DW_OP_LLVM_arg 1, DW_OP_plus_uconst 16, DW_OP_deref, DW_OP_LLVM_arg 2, DW_OP_plus_uconst 152, DW_OP_deref, DW_OP_mul, DW_OP_plus, DW_OP_stack_value] $rsp, $rsp, $rsp
	#DEBUG_VALUE: smix:N <- [DW_OP_plus_uconst 56, DW_OP_deref] $rsp
	#DEBUG_VALUE: smix:V <- [DW_OP_plus_uconst 104, DW_OP_deref] $rsp
	#DEBUG_VALUE: smix:XY <- [DW_OP_plus_uconst 96, DW_OP_deref] $rsp
	#DEBUG_VALUE: smix:X <- [DW_OP_plus_uconst 96, DW_OP_deref] $rsp
	#DEBUG_VALUE: smix:Y <- [DW_OP_plus_uconst 8, DW_OP_deref] $rsp
	#DEBUG_VALUE: smix:Z <- [DW_OP_plus_uconst 40, DW_OP_deref] $rsp
	#DEBUG_VALUE: smix:i <- $rcx
	#DEBUG_VALUE: blkcpy:dest <- [DW_OP_LLVM_arg 0, DW_OP_plus_uconst 104, DW_OP_deref, DW_OP_LLVM_arg 1, DW_OP_LLVM_arg 2, DW_OP_mul, DW_OP_constu 4, DW_OP_mul, DW_OP_plus, DW_OP_stack_value] $rsp, $rcx, $r14
	#DEBUG_VALUE: blkcpy:src <- [DW_OP_plus_uconst 96, DW_OP_deref] $rsp
	#DEBUG_VALUE: blkcpy:len <- [DW_OP_plus_uconst 16, DW_OP_deref] $rsp
	#DEBUG_VALUE: memcpy:__dest <- [DW_OP_LLVM_arg 0, DW_OP_plus_uconst 104, DW_OP_deref, DW_OP_LLVM_arg 1, DW_OP_LLVM_arg 2, DW_OP_mul, DW_OP_constu 4, DW_OP_mul, DW_OP_plus, DW_OP_stack_value] $rsp, $rcx, $r14
	#DEBUG_VALUE: memcpy:__src <- [DW_OP_plus_uconst 96, DW_OP_deref] $rsp
	#DEBUG_VALUE: memcpy:__len <- [DW_OP_plus_uconst 16, DW_OP_deref] $rsp
	movq	%rcx, 176(%rsp)                 # 8-byte Spill
.Ltmp73:
	#DEBUG_VALUE: memcpy:__dest <- [DW_OP_LLVM_arg 0, DW_OP_plus_uconst 104, DW_OP_deref, DW_OP_LLVM_arg 1, DW_OP_plus_uconst 176, DW_OP_deref, DW_OP_LLVM_arg 2, DW_OP_mul, DW_OP_constu 4, DW_OP_mul, DW_OP_plus, DW_OP_stack_value] $rsp, $rsp, $r14
	#DEBUG_VALUE: blkcpy:dest <- [DW_OP_LLVM_arg 0, DW_OP_plus_uconst 104, DW_OP_deref, DW_OP_LLVM_arg 1, DW_OP_plus_uconst 176, DW_OP_deref, DW_OP_LLVM_arg 2, DW_OP_mul, DW_OP_constu 4, DW_OP_mul, DW_OP_plus, DW_OP_stack_value] $rsp, $rsp, $r14
	#DEBUG_VALUE: smix:i <- [DW_OP_plus_uconst 176, DW_OP_deref] $rsp
	movq	48(%rsp), %rax                  # 8-byte Reload
.Ltmp74:
	.loc	5 29 10 is_stmt 1               # /usr/include/x86_64-linux-gnu/bits/string_fortified.h:29:10 @[ crypto_pwhash/scryptsalsa208sha256/nosse/pwhash_scryptsalsa208sha256_nosse.c:44:5 @[ crypto_pwhash/scryptsalsa208sha256/nosse/pwhash_scryptsalsa208sha256_nosse.c:190:9 @[ crypto_pwhash/scryptsalsa208sha256/nosse/pwhash_scryptsalsa208sha256_nosse.c:310:9 ] ] ]
	leaq	(%rax,%rbp), %rdi
	movq	%r12, %rsi
	movq	16(%rsp), %rdx                  # 8-byte Reload
	callq	memcpy@PLT
.Ltmp75:
	.loc	4 193 9                         # crypto_pwhash/scryptsalsa208sha256/nosse/pwhash_scryptsalsa208sha256_nosse.c:193:9 @[ crypto_pwhash/scryptsalsa208sha256/nosse/pwhash_scryptsalsa208sha256_nosse.c:310:9 ]
	movq	%r12, %rdi
	movq	8(%rsp), %rsi                   # 8-byte Reload
	movq	40(%rsp), %rdx                  # 8-byte Reload
	movl	240(%rsp), %eax
	movq	%rax, %rcx
	callq	blockmix_salsa8
.Ltmp76:
	#DEBUG_VALUE: blkcpy:dest <- [DW_OP_LLVM_arg 0, DW_OP_plus_uconst 104, DW_OP_deref, DW_OP_LLVM_arg 1, DW_OP_plus_uconst 176, DW_OP_deref, DW_OP_constu 1, DW_OP_or, DW_OP_LLVM_arg 2, DW_OP_mul, DW_OP_constu 4, DW_OP_mul, DW_OP_plus, DW_OP_stack_value] $rsp, $rsp, $r14
	#DEBUG_VALUE: blkcpy:src <- [DW_OP_plus_uconst 8, DW_OP_deref] $rsp
	#DEBUG_VALUE: blkcpy:len <- [DW_OP_plus_uconst 16, DW_OP_deref] $rsp
	#DEBUG_VALUE: memcpy:__dest <- [DW_OP_LLVM_arg 0, DW_OP_plus_uconst 104, DW_OP_deref, DW_OP_LLVM_arg 1, DW_OP_plus_uconst 176, DW_OP_deref, DW_OP_constu 1, DW_OP_or, DW_OP_LLVM_arg 2, DW_OP_mul, DW_OP_constu 4, DW_OP_mul, DW_OP_plus, DW_OP_stack_value] $rsp, $rsp, $r14
	#DEBUG_VALUE: memcpy:__src <- [DW_OP_plus_uconst 8, DW_OP_deref] $rsp
	#DEBUG_VALUE: memcpy:__len <- [DW_OP_plus_uconst 16, DW_OP_deref] $rsp
	.loc	4 0 9 is_stmt 0                 # crypto_pwhash/scryptsalsa208sha256/nosse/pwhash_scryptsalsa208sha256_nosse.c:0:9
	movq	168(%rsp), %rax                 # 8-byte Reload
.Ltmp77:
	.loc	5 29 10 is_stmt 1               # /usr/include/x86_64-linux-gnu/bits/string_fortified.h:29:10 @[ crypto_pwhash/scryptsalsa208sha256/nosse/pwhash_scryptsalsa208sha256_nosse.c:44:5 @[ crypto_pwhash/scryptsalsa208sha256/nosse/pwhash_scryptsalsa208sha256_nosse.c:196:9 @[ crypto_pwhash/scryptsalsa208sha256/nosse/pwhash_scryptsalsa208sha256_nosse.c:310:9 ] ] ]
	leaq	(%rax,%rbp), %rdi
	movq	8(%rsp), %rsi                   # 8-byte Reload
	movq	16(%rsp), %rdx                  # 8-byte Reload
	callq	memcpy@PLT
.Ltmp78:
	.loc	5 0 10 is_stmt 0                # /usr/include/x86_64-linux-gnu/bits/string_fortified.h:0:10
	movq	8(%rsp), %rdi                   # 8-byte Reload
.Ltmp79:
	.loc	4 199 9 is_stmt 1               # crypto_pwhash/scryptsalsa208sha256/nosse/pwhash_scryptsalsa208sha256_nosse.c:199:9 @[ crypto_pwhash/scryptsalsa208sha256/nosse/pwhash_scryptsalsa208sha256_nosse.c:310:9 ]
	movq	%r12, %rsi
	movq	40(%rsp), %rdx                  # 8-byte Reload
	movl	240(%rsp), %ecx
	callq	blockmix_salsa8
.Ltmp80:
	.loc	4 0 9 is_stmt 0                 # crypto_pwhash/scryptsalsa208sha256/nosse/pwhash_scryptsalsa208sha256_nosse.c:0:9
	movq	176(%rsp), %rcx                 # 8-byte Reload
.Ltmp81:
	.loc	4 188 26 is_stmt 1              # crypto_pwhash/scryptsalsa208sha256/nosse/pwhash_scryptsalsa208sha256_nosse.c:188:26 @[ crypto_pwhash/scryptsalsa208sha256/nosse/pwhash_scryptsalsa208sha256_nosse.c:310:9 ]
	addq	$2, %rcx
.Ltmp82:
	#DEBUG_VALUE: smix:i <- $rcx
	.loc	4 188 19 is_stmt 0              # crypto_pwhash/scryptsalsa208sha256/nosse/pwhash_scryptsalsa208sha256_nosse.c:188:19 @[ crypto_pwhash/scryptsalsa208sha256/nosse/pwhash_scryptsalsa208sha256_nosse.c:310:9 ]
	addq	88(%rsp), %rbp                  # 8-byte Folded Reload
	cmpq	56(%rsp), %rcx                  # 8-byte Folded Reload
.Ltmp83:
	.loc	4 188 5                         # crypto_pwhash/scryptsalsa208sha256/nosse/pwhash_scryptsalsa208sha256_nosse.c:188:5 @[ crypto_pwhash/scryptsalsa208sha256/nosse/pwhash_scryptsalsa208sha256_nosse.c:310:9 ]
	jb	.LBB0_24
.Ltmp84:
# %bb.25:                               # %.preheader74.i.preheader
                                        #   in Loop: Header=BB0_18 Depth=1
	#DEBUG_VALUE: escrypt_kdf_nosse:local <- [DW_OP_LLVM_entry_value 1] $rdi
	#DEBUG_VALUE: escrypt_kdf_nosse:passwd <- [DW_OP_LLVM_entry_value 1] $rsi
	#DEBUG_VALUE: escrypt_kdf_nosse:passwdlen <- [DW_OP_plus_uconst 64] [$rsp+0]
	#DEBUG_VALUE: escrypt_kdf_nosse:salt <- [DW_OP_LLVM_entry_value 1] $rcx
	#DEBUG_VALUE: escrypt_kdf_nosse:saltlen <- [DW_OP_LLVM_entry_value 1] $r8
	#DEBUG_VALUE: escrypt_kdf_nosse:N <- [DW_OP_plus_uconst 56] [$rsp+0]
	#DEBUG_VALUE: escrypt_kdf_nosse:_r <- [DW_OP_plus_uconst 240] [$rsp+0]
	#DEBUG_VALUE: escrypt_kdf_nosse:_p <- [DW_OP_plus_uconst 248] [$rsp+0]
	#DEBUG_VALUE: escrypt_kdf_nosse:buf <- [DW_OP_plus_uconst 256] [$rsp+0]
	#DEBUG_VALUE: escrypt_kdf_nosse:buflen <- [DW_OP_plus_uconst 264] [$rsp+0]
	#DEBUG_VALUE: escrypt_kdf_nosse:B_size <- [DW_OP_plus_uconst 48, DW_OP_deref] $rsp
	#DEBUG_VALUE: escrypt_kdf_nosse:B <- [DW_OP_plus_uconst 32, DW_OP_deref] $rsp
	#DEBUG_VALUE: escrypt_kdf_nosse:V <- [DW_OP_plus_uconst 104, DW_OP_deref] $rsp
	#DEBUG_VALUE: escrypt_kdf_nosse:XY <- [DW_OP_plus_uconst 96, DW_OP_deref] $rsp
	#DEBUG_VALUE: escrypt_kdf_nosse:i <- [DW_OP_plus_uconst 152, DW_OP_deref_size 8, DW_OP_stack_value] $rsp
	#DEBUG_VALUE: smix:B <- [DW_OP_LLVM_arg 0, DW_OP_plus_uconst 32, DW_OP_deref, DW_OP_LLVM_arg 1, DW_OP_plus_uconst 16, DW_OP_deref, DW_OP_LLVM_arg 2, DW_OP_plus_uconst 152, DW_OP_deref, DW_OP_mul, DW_OP_plus, DW_OP_stack_value] $rsp, $rsp, $rsp
	#DEBUG_VALUE: smix:N <- [DW_OP_plus_uconst 56, DW_OP_deref] $rsp
	#DEBUG_VALUE: smix:V <- [DW_OP_plus_uconst 104, DW_OP_deref] $rsp
	#DEBUG_VALUE: smix:XY <- [DW_OP_plus_uconst 96, DW_OP_deref] $rsp
	#DEBUG_VALUE: smix:X <- [DW_OP_plus_uconst 96, DW_OP_deref] $rsp
	#DEBUG_VALUE: smix:Y <- [DW_OP_plus_uconst 8, DW_OP_deref] $rsp
	#DEBUG_VALUE: smix:Z <- [DW_OP_plus_uconst 40, DW_OP_deref] $rsp
	#DEBUG_VALUE: smix:i <- $rcx
	#DEBUG_VALUE: blkcpy:dest <- [DW_OP_LLVM_arg 0, DW_OP_plus_uconst 104, DW_OP_deref, DW_OP_LLVM_arg 1, DW_OP_plus_uconst 176, DW_OP_deref, DW_OP_LLVM_arg 2, DW_OP_mul, DW_OP_constu 4, DW_OP_mul, DW_OP_plus, DW_OP_stack_value] $rsp, $rsp, $r14
	#DEBUG_VALUE: blkcpy:src <- [DW_OP_plus_uconst 96, DW_OP_deref] $rsp
	#DEBUG_VALUE: blkcpy:len <- [DW_OP_plus_uconst 16, DW_OP_deref] $rsp
	#DEBUG_VALUE: memcpy:__dest <- [DW_OP_LLVM_arg 0, DW_OP_plus_uconst 104, DW_OP_deref, DW_OP_LLVM_arg 1, DW_OP_plus_uconst 176, DW_OP_deref, DW_OP_LLVM_arg 2, DW_OP_mul, DW_OP_constu 4, DW_OP_mul, DW_OP_plus, DW_OP_stack_value] $rsp, $rsp, $r14
	#DEBUG_VALUE: memcpy:__src <- [DW_OP_plus_uconst 96, DW_OP_deref] $rsp
	#DEBUG_VALUE: memcpy:__len <- [DW_OP_plus_uconst 16, DW_OP_deref] $rsp
	#DEBUG_VALUE: blkcpy:dest <- [DW_OP_LLVM_arg 0, DW_OP_plus_uconst 104, DW_OP_deref, DW_OP_LLVM_arg 1, DW_OP_plus_uconst 176, DW_OP_deref, DW_OP_constu 1, DW_OP_or, DW_OP_LLVM_arg 2, DW_OP_mul, DW_OP_constu 4, DW_OP_mul, DW_OP_plus, DW_OP_stack_value] $rsp, $rsp, $r14
	#DEBUG_VALUE: blkcpy:src <- [DW_OP_plus_uconst 8, DW_OP_deref] $rsp
	#DEBUG_VALUE: blkcpy:len <- [DW_OP_plus_uconst 16, DW_OP_deref] $rsp
	#DEBUG_VALUE: memcpy:__dest <- [DW_OP_LLVM_arg 0, DW_OP_plus_uconst 104, DW_OP_deref, DW_OP_LLVM_arg 1, DW_OP_plus_uconst 176, DW_OP_deref, DW_OP_constu 1, DW_OP_or, DW_OP_LLVM_arg 2, DW_OP_mul, DW_OP_constu 4, DW_OP_mul, DW_OP_plus, DW_OP_stack_value] $rsp, $rsp, $r14
	#DEBUG_VALUE: memcpy:__src <- [DW_OP_plus_uconst 8, DW_OP_deref] $rsp
	#DEBUG_VALUE: memcpy:__len <- [DW_OP_plus_uconst 16, DW_OP_deref] $rsp
	.loc	4 0 5                           # crypto_pwhash/scryptsalsa208sha256/nosse/pwhash_scryptsalsa208sha256_nosse.c:0:5
	xorl	%ebp, %ebp
	jmp	.LBB0_27
.Ltmp85:
	.p2align	4
.LBB0_26:                               # %blkxor.exit73.i
                                        #   in Loop: Header=BB0_27 Depth=2
	#DEBUG_VALUE: escrypt_kdf_nosse:local <- [DW_OP_LLVM_entry_value 1] $rdi
	#DEBUG_VALUE: escrypt_kdf_nosse:passwd <- [DW_OP_LLVM_entry_value 1] $rsi
	#DEBUG_VALUE: escrypt_kdf_nosse:passwdlen <- [DW_OP_plus_uconst 64] [$rsp+0]
	#DEBUG_VALUE: escrypt_kdf_nosse:salt <- [DW_OP_LLVM_entry_value 1] $rcx
	#DEBUG_VALUE: escrypt_kdf_nosse:saltlen <- [DW_OP_LLVM_entry_value 1] $r8
	#DEBUG_VALUE: escrypt_kdf_nosse:N <- [DW_OP_plus_uconst 56] [$rsp+0]
	#DEBUG_VALUE: escrypt_kdf_nosse:_r <- [DW_OP_plus_uconst 240] [$rsp+0]
	#DEBUG_VALUE: escrypt_kdf_nosse:_p <- [DW_OP_plus_uconst 248] [$rsp+0]
	#DEBUG_VALUE: escrypt_kdf_nosse:buf <- [DW_OP_plus_uconst 256] [$rsp+0]
	#DEBUG_VALUE: escrypt_kdf_nosse:buflen <- [DW_OP_plus_uconst 264] [$rsp+0]
	#DEBUG_VALUE: escrypt_kdf_nosse:B_size <- [DW_OP_plus_uconst 48, DW_OP_deref] $rsp
	#DEBUG_VALUE: escrypt_kdf_nosse:B <- [DW_OP_plus_uconst 32, DW_OP_deref] $rsp
	#DEBUG_VALUE: escrypt_kdf_nosse:V <- [DW_OP_plus_uconst 104, DW_OP_deref] $rsp
	#DEBUG_VALUE: escrypt_kdf_nosse:XY <- [DW_OP_plus_uconst 96, DW_OP_deref] $rsp
	#DEBUG_VALUE: escrypt_kdf_nosse:i <- [DW_OP_plus_uconst 152, DW_OP_deref_size 8, DW_OP_stack_value] $rsp
	#DEBUG_VALUE: smix:B <- [DW_OP_LLVM_arg 0, DW_OP_plus_uconst 32, DW_OP_deref, DW_OP_LLVM_arg 1, DW_OP_plus_uconst 16, DW_OP_deref, DW_OP_LLVM_arg 2, DW_OP_plus_uconst 152, DW_OP_deref, DW_OP_mul, DW_OP_plus, DW_OP_stack_value] $rsp, $rsp, $rsp
	#DEBUG_VALUE: smix:N <- [DW_OP_plus_uconst 56, DW_OP_deref] $rsp
	#DEBUG_VALUE: smix:V <- [DW_OP_plus_uconst 104, DW_OP_deref] $rsp
	#DEBUG_VALUE: smix:XY <- [DW_OP_plus_uconst 96, DW_OP_deref] $rsp
	#DEBUG_VALUE: smix:X <- [DW_OP_plus_uconst 96, DW_OP_deref] $rsp
	#DEBUG_VALUE: smix:Y <- [DW_OP_plus_uconst 8, DW_OP_deref] $rsp
	#DEBUG_VALUE: smix:Z <- [DW_OP_plus_uconst 40, DW_OP_deref] $rsp
	#DEBUG_VALUE: smix:i <- $rbp
	.loc	4 216 9 is_stmt 1               # crypto_pwhash/scryptsalsa208sha256/nosse/pwhash_scryptsalsa208sha256_nosse.c:216:9 @[ crypto_pwhash/scryptsalsa208sha256/nosse/pwhash_scryptsalsa208sha256_nosse.c:310:9 ]
	movq	%r12, %rdi
	movq	96(%rsp), %r12                  # 8-byte Reload
	movq	%r12, %rsi
	movq	40(%rsp), %rdx                  # 8-byte Reload
	movq	%r8, %rcx
	callq	blockmix_salsa8
.Ltmp86:
	.loc	4 203 26                        # crypto_pwhash/scryptsalsa208sha256/nosse/pwhash_scryptsalsa208sha256_nosse.c:203:26 @[ crypto_pwhash/scryptsalsa208sha256/nosse/pwhash_scryptsalsa208sha256_nosse.c:310:9 ]
	addq	$2, %rbp
.Ltmp87:
	#DEBUG_VALUE: smix:i <- $rbp
	.loc	4 203 19 is_stmt 0              # crypto_pwhash/scryptsalsa208sha256/nosse/pwhash_scryptsalsa208sha256_nosse.c:203:19 @[ crypto_pwhash/scryptsalsa208sha256/nosse/pwhash_scryptsalsa208sha256_nosse.c:310:9 ]
	cmpq	56(%rsp), %rbp                  # 8-byte Folded Reload
.Ltmp88:
	.loc	4 203 5                         # crypto_pwhash/scryptsalsa208sha256/nosse/pwhash_scryptsalsa208sha256_nosse.c:203:5 @[ crypto_pwhash/scryptsalsa208sha256/nosse/pwhash_scryptsalsa208sha256_nosse.c:310:9 ]
	jae	.LBB0_39
.Ltmp89:
.LBB0_27:                               # %.preheader74.i
                                        #   Parent Loop BB0_18 Depth=1
                                        # =>  This Loop Header: Depth=2
                                        #       Child Loop BB0_32 Depth 3
                                        #       Child Loop BB0_30 Depth 3
                                        #       Child Loop BB0_38 Depth 3
                                        #       Child Loop BB0_36 Depth 3
	#DEBUG_VALUE: escrypt_kdf_nosse:local <- [DW_OP_LLVM_entry_value 1] $rdi
	#DEBUG_VALUE: escrypt_kdf_nosse:passwd <- [DW_OP_LLVM_entry_value 1] $rsi
	#DEBUG_VALUE: escrypt_kdf_nosse:passwdlen <- [DW_OP_plus_uconst 64] [$rsp+0]
	#DEBUG_VALUE: escrypt_kdf_nosse:salt <- [DW_OP_LLVM_entry_value 1] $rcx
	#DEBUG_VALUE: escrypt_kdf_nosse:saltlen <- [DW_OP_LLVM_entry_value 1] $r8
	#DEBUG_VALUE: escrypt_kdf_nosse:N <- [DW_OP_plus_uconst 56] [$rsp+0]
	#DEBUG_VALUE: escrypt_kdf_nosse:_r <- [DW_OP_plus_uconst 240] [$rsp+0]
	#DEBUG_VALUE: escrypt_kdf_nosse:_p <- [DW_OP_plus_uconst 248] [$rsp+0]
	#DEBUG_VALUE: escrypt_kdf_nosse:buf <- [DW_OP_plus_uconst 256] [$rsp+0]
	#DEBUG_VALUE: escrypt_kdf_nosse:buflen <- [DW_OP_plus_uconst 264] [$rsp+0]
	#DEBUG_VALUE: escrypt_kdf_nosse:B_size <- [DW_OP_plus_uconst 48, DW_OP_deref] $rsp
	#DEBUG_VALUE: escrypt_kdf_nosse:B <- [DW_OP_plus_uconst 32, DW_OP_deref] $rsp
	#DEBUG_VALUE: escrypt_kdf_nosse:V <- [DW_OP_plus_uconst 104, DW_OP_deref] $rsp
	#DEBUG_VALUE: escrypt_kdf_nosse:XY <- [DW_OP_plus_uconst 96, DW_OP_deref] $rsp
	#DEBUG_VALUE: escrypt_kdf_nosse:i <- [DW_OP_plus_uconst 152, DW_OP_deref_size 8, DW_OP_stack_value] $rsp
	#DEBUG_VALUE: smix:B <- [DW_OP_LLVM_arg 0, DW_OP_plus_uconst 32, DW_OP_deref, DW_OP_LLVM_arg 1, DW_OP_plus_uconst 16, DW_OP_deref, DW_OP_LLVM_arg 2, DW_OP_plus_uconst 152, DW_OP_deref, DW_OP_mul, DW_OP_plus, DW_OP_stack_value] $rsp, $rsp, $rsp
	#DEBUG_VALUE: smix:N <- [DW_OP_plus_uconst 56, DW_OP_deref] $rsp
	#DEBUG_VALUE: smix:V <- [DW_OP_plus_uconst 104, DW_OP_deref] $rsp
	#DEBUG_VALUE: smix:XY <- [DW_OP_plus_uconst 96, DW_OP_deref] $rsp
	#DEBUG_VALUE: smix:X <- [DW_OP_plus_uconst 96, DW_OP_deref] $rsp
	#DEBUG_VALUE: smix:Y <- [DW_OP_plus_uconst 8, DW_OP_deref] $rsp
	#DEBUG_VALUE: smix:Z <- [DW_OP_plus_uconst 40, DW_OP_deref] $rsp
	#DEBUG_VALUE: smix:i <- $rbp
	.loc	4 0 5                           # crypto_pwhash/scryptsalsa208sha256/nosse/pwhash_scryptsalsa208sha256_nosse.c:0:5
	movq	16(%rsp), %rax                  # 8-byte Reload
	movq	-64(%r12,%rax), %rax
.Ltmp90:
	.loc	4 205 30 is_stmt 1              # crypto_pwhash/scryptsalsa208sha256/nosse/pwhash_scryptsalsa208sha256_nosse.c:205:30 @[ crypto_pwhash/scryptsalsa208sha256/nosse/pwhash_scryptsalsa208sha256_nosse.c:310:9 ]
	andq	112(%rsp), %rax                 # 8-byte Folded Reload
.Ltmp91:
	#DEBUG_VALUE: smix:j <- undef
	#DEBUG_VALUE: blkxor:src <- undef
	#DEBUG_VALUE: blkxor:dest <- [DW_OP_plus_uconst 96, DW_OP_deref] $rsp
	#DEBUG_VALUE: blkxor:len <- $r14
	#DEBUG_VALUE: blkxor:i <- 0
	.loc	4 52 5                          # crypto_pwhash/scryptsalsa208sha256/nosse/pwhash_scryptsalsa208sha256_nosse.c:52:5 @[ crypto_pwhash/scryptsalsa208sha256/nosse/pwhash_scryptsalsa208sha256_nosse.c:208:9 @[ crypto_pwhash/scryptsalsa208sha256/nosse/pwhash_scryptsalsa208sha256_nosse.c:310:9 ] ]
	movl	248(%rsp), %ecx
	addq	%rax, %rcx
	shlq	$7, %rcx
	subq	$-128, %rcx
	movl	240(%rsp), %edx
	imulq	%rdx, %rcx
	addq	32(%rsp), %rcx                  # 8-byte Folded Reload
	cmpq	%rcx, %r12
	movq	%rdx, %rcx
.Ltmp92:
	.loc	4 52 32 is_stmt 0               # crypto_pwhash/scryptsalsa208sha256/nosse/pwhash_scryptsalsa208sha256_nosse.c:52:32 @[ crypto_pwhash/scryptsalsa208sha256/nosse/pwhash_scryptsalsa208sha256_nosse.c:208:9 @[ crypto_pwhash/scryptsalsa208sha256/nosse/pwhash_scryptsalsa208sha256_nosse.c:310:9 ] ]
	jae	.LBB0_31
.Ltmp93:
# %bb.28:                               # %.preheader74.i
                                        #   in Loop: Header=BB0_27 Depth=2
	#DEBUG_VALUE: escrypt_kdf_nosse:local <- [DW_OP_LLVM_entry_value 1] $rdi
	#DEBUG_VALUE: escrypt_kdf_nosse:passwd <- [DW_OP_LLVM_entry_value 1] $rsi
	#DEBUG_VALUE: escrypt_kdf_nosse:passwdlen <- [DW_OP_plus_uconst 64] [$rsp+0]
	#DEBUG_VALUE: escrypt_kdf_nosse:salt <- [DW_OP_LLVM_entry_value 1] $rcx
	#DEBUG_VALUE: escrypt_kdf_nosse:saltlen <- [DW_OP_LLVM_entry_value 1] $r8
	#DEBUG_VALUE: escrypt_kdf_nosse:N <- [DW_OP_plus_uconst 56] [$rsp+0]
	#DEBUG_VALUE: escrypt_kdf_nosse:_r <- [DW_OP_plus_uconst 240] [$rsp+0]
	#DEBUG_VALUE: escrypt_kdf_nosse:_p <- [DW_OP_plus_uconst 248] [$rsp+0]
	#DEBUG_VALUE: escrypt_kdf_nosse:buf <- [DW_OP_plus_uconst 256] [$rsp+0]
	#DEBUG_VALUE: escrypt_kdf_nosse:buflen <- [DW_OP_plus_uconst 264] [$rsp+0]
	#DEBUG_VALUE: escrypt_kdf_nosse:B_size <- [DW_OP_plus_uconst 48, DW_OP_deref] $rsp
	#DEBUG_VALUE: escrypt_kdf_nosse:B <- [DW_OP_plus_uconst 32, DW_OP_deref] $rsp
	#DEBUG_VALUE: escrypt_kdf_nosse:V <- [DW_OP_plus_uconst 104, DW_OP_deref] $rsp
	#DEBUG_VALUE: escrypt_kdf_nosse:XY <- [DW_OP_plus_uconst 96, DW_OP_deref] $rsp
	#DEBUG_VALUE: escrypt_kdf_nosse:i <- [DW_OP_plus_uconst 152, DW_OP_deref_size 8, DW_OP_stack_value] $rsp
	#DEBUG_VALUE: smix:B <- [DW_OP_LLVM_arg 0, DW_OP_plus_uconst 32, DW_OP_deref, DW_OP_LLVM_arg 1, DW_OP_plus_uconst 16, DW_OP_deref, DW_OP_LLVM_arg 2, DW_OP_plus_uconst 152, DW_OP_deref, DW_OP_mul, DW_OP_plus, DW_OP_stack_value] $rsp, $rsp, $rsp
	#DEBUG_VALUE: smix:N <- [DW_OP_plus_uconst 56, DW_OP_deref] $rsp
	#DEBUG_VALUE: smix:V <- [DW_OP_plus_uconst 104, DW_OP_deref] $rsp
	#DEBUG_VALUE: smix:XY <- [DW_OP_plus_uconst 96, DW_OP_deref] $rsp
	#DEBUG_VALUE: smix:X <- [DW_OP_plus_uconst 96, DW_OP_deref] $rsp
	#DEBUG_VALUE: smix:Y <- [DW_OP_plus_uconst 8, DW_OP_deref] $rsp
	#DEBUG_VALUE: smix:Z <- [DW_OP_plus_uconst 40, DW_OP_deref] $rsp
	#DEBUG_VALUE: smix:i <- $rbp
	#DEBUG_VALUE: blkxor:dest <- [DW_OP_plus_uconst 96, DW_OP_deref] $rsp
	#DEBUG_VALUE: blkxor:len <- $r14
	#DEBUG_VALUE: blkxor:i <- 0
	.loc	4 208 0 is_stmt 1               # crypto_pwhash/scryptsalsa208sha256/nosse/pwhash_scryptsalsa208sha256_nosse.c:208 @[ crypto_pwhash/scryptsalsa208sha256/nosse/pwhash_scryptsalsa208sha256_nosse.c:310:9 ]
	movq	%rax, %rdx
	imulq	%r14, %rdx
	movq	104(%rsp), %rsi                 # 8-byte Reload
	leaq	(%rsi,%rdx,4), %rdx
.Ltmp94:
	#DEBUG_VALUE: blkxor:src <- $rdx
	.loc	4 52 32                         # crypto_pwhash/scryptsalsa208sha256/nosse/pwhash_scryptsalsa208sha256_nosse.c:52:32 @[ crypto_pwhash/scryptsalsa208sha256/nosse/pwhash_scryptsalsa208sha256_nosse.c:208:9 @[ crypto_pwhash/scryptsalsa208sha256/nosse/pwhash_scryptsalsa208sha256_nosse.c:310:9 ] ]
	cmpq	8(%rsp), %rdx                   # 8-byte Folded Reload
	jae	.LBB0_31
.Ltmp95:
# %bb.29:                               # %scalar.ph86.preheader
                                        #   in Loop: Header=BB0_27 Depth=2
	#DEBUG_VALUE: escrypt_kdf_nosse:local <- [DW_OP_LLVM_entry_value 1] $rdi
	#DEBUG_VALUE: escrypt_kdf_nosse:passwd <- [DW_OP_LLVM_entry_value 1] $rsi
	#DEBUG_VALUE: escrypt_kdf_nosse:passwdlen <- [DW_OP_plus_uconst 64] [$rsp+0]
	#DEBUG_VALUE: escrypt_kdf_nosse:salt <- [DW_OP_LLVM_entry_value 1] $rcx
	#DEBUG_VALUE: escrypt_kdf_nosse:saltlen <- [DW_OP_LLVM_entry_value 1] $r8
	#DEBUG_VALUE: escrypt_kdf_nosse:N <- [DW_OP_plus_uconst 56] [$rsp+0]
	#DEBUG_VALUE: escrypt_kdf_nosse:_r <- [DW_OP_plus_uconst 240] [$rsp+0]
	#DEBUG_VALUE: escrypt_kdf_nosse:_p <- [DW_OP_plus_uconst 248] [$rsp+0]
	#DEBUG_VALUE: escrypt_kdf_nosse:buf <- [DW_OP_plus_uconst 256] [$rsp+0]
	#DEBUG_VALUE: escrypt_kdf_nosse:buflen <- [DW_OP_plus_uconst 264] [$rsp+0]
	#DEBUG_VALUE: escrypt_kdf_nosse:B_size <- [DW_OP_plus_uconst 48, DW_OP_deref] $rsp
	#DEBUG_VALUE: escrypt_kdf_nosse:B <- [DW_OP_plus_uconst 32, DW_OP_deref] $rsp
	#DEBUG_VALUE: escrypt_kdf_nosse:V <- [DW_OP_plus_uconst 104, DW_OP_deref] $rsp
	#DEBUG_VALUE: escrypt_kdf_nosse:XY <- [DW_OP_plus_uconst 96, DW_OP_deref] $rsp
	#DEBUG_VALUE: escrypt_kdf_nosse:i <- [DW_OP_plus_uconst 152, DW_OP_deref_size 8, DW_OP_stack_value] $rsp
	#DEBUG_VALUE: smix:B <- [DW_OP_LLVM_arg 0, DW_OP_plus_uconst 32, DW_OP_deref, DW_OP_LLVM_arg 1, DW_OP_plus_uconst 16, DW_OP_deref, DW_OP_LLVM_arg 2, DW_OP_plus_uconst 152, DW_OP_deref, DW_OP_mul, DW_OP_plus, DW_OP_stack_value] $rsp, $rsp, $rsp
	#DEBUG_VALUE: smix:N <- [DW_OP_plus_uconst 56, DW_OP_deref] $rsp
	#DEBUG_VALUE: smix:V <- [DW_OP_plus_uconst 104, DW_OP_deref] $rsp
	#DEBUG_VALUE: smix:XY <- [DW_OP_plus_uconst 96, DW_OP_deref] $rsp
	#DEBUG_VALUE: smix:X <- [DW_OP_plus_uconst 96, DW_OP_deref] $rsp
	#DEBUG_VALUE: smix:Y <- [DW_OP_plus_uconst 8, DW_OP_deref] $rsp
	#DEBUG_VALUE: smix:Z <- [DW_OP_plus_uconst 40, DW_OP_deref] $rsp
	#DEBUG_VALUE: smix:i <- $rbp
	#DEBUG_VALUE: blkxor:src <- $rdx
	#DEBUG_VALUE: blkxor:dest <- [DW_OP_plus_uconst 96, DW_OP_deref] $rsp
	#DEBUG_VALUE: blkxor:len <- $r14
	#DEBUG_VALUE: blkxor:i <- 0
	.loc	4 52 5 is_stmt 0                # crypto_pwhash/scryptsalsa208sha256/nosse/pwhash_scryptsalsa208sha256_nosse.c:52:5 @[ crypto_pwhash/scryptsalsa208sha256/nosse/pwhash_scryptsalsa208sha256_nosse.c:208:9 @[ crypto_pwhash/scryptsalsa208sha256/nosse/pwhash_scryptsalsa208sha256_nosse.c:310:9 ] ]
	shlq	$7, %rax
	addq	24(%rsp), %rax                  # 8-byte Folded Reload
	imulq	%rcx, %rax
	addq	72(%rsp), %rax                  # 8-byte Folded Reload
	xorl	%esi, %esi
.Ltmp96:
	.loc	4 0 5                           # :0:5
.Ltmp97:
	.p2align	4
.LBB0_30:                               # %scalar.ph86
                                        #   Parent Loop BB0_18 Depth=1
                                        #     Parent Loop BB0_27 Depth=2
                                        # =>    This Inner Loop Header: Depth=3
	#DEBUG_VALUE: escrypt_kdf_nosse:local <- [DW_OP_LLVM_entry_value 1] $rdi
	#DEBUG_VALUE: escrypt_kdf_nosse:passwd <- [DW_OP_LLVM_entry_value 1] $rsi
	#DEBUG_VALUE: escrypt_kdf_nosse:passwdlen <- [DW_OP_plus_uconst 64] [$rsp+0]
	#DEBUG_VALUE: escrypt_kdf_nosse:salt <- [DW_OP_LLVM_entry_value 1] $rcx
	#DEBUG_VALUE: escrypt_kdf_nosse:saltlen <- [DW_OP_LLVM_entry_value 1] $r8
	#DEBUG_VALUE: escrypt_kdf_nosse:N <- [DW_OP_plus_uconst 56] [$rsp+0]
	#DEBUG_VALUE: escrypt_kdf_nosse:_r <- [DW_OP_plus_uconst 240] [$rsp+0]
	#DEBUG_VALUE: escrypt_kdf_nosse:_p <- [DW_OP_plus_uconst 248] [$rsp+0]
	#DEBUG_VALUE: escrypt_kdf_nosse:buf <- [DW_OP_plus_uconst 256] [$rsp+0]
	#DEBUG_VALUE: escrypt_kdf_nosse:buflen <- [DW_OP_plus_uconst 264] [$rsp+0]
	#DEBUG_VALUE: escrypt_kdf_nosse:B_size <- [DW_OP_plus_uconst 48, DW_OP_deref] $rsp
	#DEBUG_VALUE: escrypt_kdf_nosse:B <- [DW_OP_plus_uconst 32, DW_OP_deref] $rsp
	#DEBUG_VALUE: escrypt_kdf_nosse:V <- [DW_OP_plus_uconst 104, DW_OP_deref] $rsp
	#DEBUG_VALUE: escrypt_kdf_nosse:XY <- [DW_OP_plus_uconst 96, DW_OP_deref] $rsp
	#DEBUG_VALUE: escrypt_kdf_nosse:i <- [DW_OP_plus_uconst 152, DW_OP_deref_size 8, DW_OP_stack_value] $rsp
	#DEBUG_VALUE: smix:B <- [DW_OP_LLVM_arg 0, DW_OP_plus_uconst 32, DW_OP_deref, DW_OP_LLVM_arg 1, DW_OP_plus_uconst 16, DW_OP_deref, DW_OP_LLVM_arg 2, DW_OP_plus_uconst 152, DW_OP_deref, DW_OP_mul, DW_OP_plus, DW_OP_stack_value] $rsp, $rsp, $rsp
	#DEBUG_VALUE: smix:N <- [DW_OP_plus_uconst 56, DW_OP_deref] $rsp
	#DEBUG_VALUE: smix:V <- [DW_OP_plus_uconst 104, DW_OP_deref] $rsp
	#DEBUG_VALUE: smix:XY <- [DW_OP_plus_uconst 96, DW_OP_deref] $rsp
	#DEBUG_VALUE: smix:X <- [DW_OP_plus_uconst 96, DW_OP_deref] $rsp
	#DEBUG_VALUE: smix:Y <- [DW_OP_plus_uconst 8, DW_OP_deref] $rsp
	#DEBUG_VALUE: smix:Z <- [DW_OP_plus_uconst 40, DW_OP_deref] $rsp
	#DEBUG_VALUE: smix:i <- $rbp
	#DEBUG_VALUE: blkxor:dest <- [DW_OP_plus_uconst 96, DW_OP_deref] $rsp
	#DEBUG_VALUE: blkxor:len <- $r14
	#DEBUG_VALUE: blkxor:i <- $rsi
	.loc	4 53 20 is_stmt 1               # crypto_pwhash/scryptsalsa208sha256/nosse/pwhash_scryptsalsa208sha256_nosse.c:53:20 @[ crypto_pwhash/scryptsalsa208sha256/nosse/pwhash_scryptsalsa208sha256_nosse.c:208:9 @[ crypto_pwhash/scryptsalsa208sha256/nosse/pwhash_scryptsalsa208sha256_nosse.c:310:9 ] ]
	movl	-12(%rax,%rsi,4), %edx
	.loc	4 53 17 is_stmt 0               # crypto_pwhash/scryptsalsa208sha256/nosse/pwhash_scryptsalsa208sha256_nosse.c:53:17 @[ crypto_pwhash/scryptsalsa208sha256/nosse/pwhash_scryptsalsa208sha256_nosse.c:208:9 @[ crypto_pwhash/scryptsalsa208sha256/nosse/pwhash_scryptsalsa208sha256_nosse.c:310:9 ] ]
	xorl	%edx, -12(%r13,%rsi,4)
.Ltmp98:
	#DEBUG_VALUE: blkxor:i <- [DW_OP_constu 1, DW_OP_or, DW_OP_stack_value] $rsi
	.loc	4 53 20                         # crypto_pwhash/scryptsalsa208sha256/nosse/pwhash_scryptsalsa208sha256_nosse.c:53:20 @[ crypto_pwhash/scryptsalsa208sha256/nosse/pwhash_scryptsalsa208sha256_nosse.c:208:9 @[ crypto_pwhash/scryptsalsa208sha256/nosse/pwhash_scryptsalsa208sha256_nosse.c:310:9 ] ]
	movl	-8(%rax,%rsi,4), %edx
	.loc	4 53 17                         # crypto_pwhash/scryptsalsa208sha256/nosse/pwhash_scryptsalsa208sha256_nosse.c:53:17 @[ crypto_pwhash/scryptsalsa208sha256/nosse/pwhash_scryptsalsa208sha256_nosse.c:208:9 @[ crypto_pwhash/scryptsalsa208sha256/nosse/pwhash_scryptsalsa208sha256_nosse.c:310:9 ] ]
	xorl	%edx, -8(%r13,%rsi,4)
.Ltmp99:
	#DEBUG_VALUE: blkxor:i <- [DW_OP_constu 2, DW_OP_or, DW_OP_stack_value] $rsi
	.loc	4 53 20                         # crypto_pwhash/scryptsalsa208sha256/nosse/pwhash_scryptsalsa208sha256_nosse.c:53:20 @[ crypto_pwhash/scryptsalsa208sha256/nosse/pwhash_scryptsalsa208sha256_nosse.c:208:9 @[ crypto_pwhash/scryptsalsa208sha256/nosse/pwhash_scryptsalsa208sha256_nosse.c:310:9 ] ]
	movl	-4(%rax,%rsi,4), %edx
	.loc	4 53 17                         # crypto_pwhash/scryptsalsa208sha256/nosse/pwhash_scryptsalsa208sha256_nosse.c:53:17 @[ crypto_pwhash/scryptsalsa208sha256/nosse/pwhash_scryptsalsa208sha256_nosse.c:208:9 @[ crypto_pwhash/scryptsalsa208sha256/nosse/pwhash_scryptsalsa208sha256_nosse.c:310:9 ] ]
	xorl	%edx, -4(%r13,%rsi,4)
.Ltmp100:
	#DEBUG_VALUE: blkxor:i <- [DW_OP_constu 3, DW_OP_or, DW_OP_stack_value] $rsi
	.loc	4 53 20                         # crypto_pwhash/scryptsalsa208sha256/nosse/pwhash_scryptsalsa208sha256_nosse.c:53:20 @[ crypto_pwhash/scryptsalsa208sha256/nosse/pwhash_scryptsalsa208sha256_nosse.c:208:9 @[ crypto_pwhash/scryptsalsa208sha256/nosse/pwhash_scryptsalsa208sha256_nosse.c:310:9 ] ]
	movl	(%rax,%rsi,4), %edx
	.loc	4 53 17                         # crypto_pwhash/scryptsalsa208sha256/nosse/pwhash_scryptsalsa208sha256_nosse.c:53:17 @[ crypto_pwhash/scryptsalsa208sha256/nosse/pwhash_scryptsalsa208sha256_nosse.c:208:9 @[ crypto_pwhash/scryptsalsa208sha256/nosse/pwhash_scryptsalsa208sha256_nosse.c:310:9 ] ]
	xorl	%edx, (%r13,%rsi,4)
.Ltmp101:
	.loc	4 52 32 is_stmt 1               # crypto_pwhash/scryptsalsa208sha256/nosse/pwhash_scryptsalsa208sha256_nosse.c:52:32 @[ crypto_pwhash/scryptsalsa208sha256/nosse/pwhash_scryptsalsa208sha256_nosse.c:208:9 @[ crypto_pwhash/scryptsalsa208sha256/nosse/pwhash_scryptsalsa208sha256_nosse.c:310:9 ] ]
	addq	$4, %rsi
.Ltmp102:
	#DEBUG_VALUE: blkxor:i <- $rsi
	.loc	4 52 19 is_stmt 0               # crypto_pwhash/scryptsalsa208sha256/nosse/pwhash_scryptsalsa208sha256_nosse.c:52:19 @[ crypto_pwhash/scryptsalsa208sha256/nosse/pwhash_scryptsalsa208sha256_nosse.c:208:9 @[ crypto_pwhash/scryptsalsa208sha256/nosse/pwhash_scryptsalsa208sha256_nosse.c:310:9 ] ]
	cmpq	%rsi, %r14
.Ltmp103:
	.loc	4 52 5                          # crypto_pwhash/scryptsalsa208sha256/nosse/pwhash_scryptsalsa208sha256_nosse.c:52:5 @[ crypto_pwhash/scryptsalsa208sha256/nosse/pwhash_scryptsalsa208sha256_nosse.c:208:9 @[ crypto_pwhash/scryptsalsa208sha256/nosse/pwhash_scryptsalsa208sha256_nosse.c:310:9 ] ]
	jne	.LBB0_30
	jmp	.LBB0_33
.Ltmp104:
	.loc	4 0 5                           # :0:5
.Ltmp105:
	.p2align	4
.LBB0_31:                               # %vector.body91.preheader
                                        #   in Loop: Header=BB0_27 Depth=2
	#DEBUG_VALUE: escrypt_kdf_nosse:local <- [DW_OP_LLVM_entry_value 1] $rdi
	#DEBUG_VALUE: escrypt_kdf_nosse:passwd <- [DW_OP_LLVM_entry_value 1] $rsi
	#DEBUG_VALUE: escrypt_kdf_nosse:passwdlen <- [DW_OP_plus_uconst 64] [$rsp+0]
	#DEBUG_VALUE: escrypt_kdf_nosse:salt <- [DW_OP_LLVM_entry_value 1] $rcx
	#DEBUG_VALUE: escrypt_kdf_nosse:saltlen <- [DW_OP_LLVM_entry_value 1] $r8
	#DEBUG_VALUE: escrypt_kdf_nosse:N <- [DW_OP_plus_uconst 56] [$rsp+0]
	#DEBUG_VALUE: escrypt_kdf_nosse:_r <- [DW_OP_plus_uconst 240] [$rsp+0]
	#DEBUG_VALUE: escrypt_kdf_nosse:_p <- [DW_OP_plus_uconst 248] [$rsp+0]
	#DEBUG_VALUE: escrypt_kdf_nosse:buf <- [DW_OP_plus_uconst 256] [$rsp+0]
	#DEBUG_VALUE: escrypt_kdf_nosse:buflen <- [DW_OP_plus_uconst 264] [$rsp+0]
	#DEBUG_VALUE: escrypt_kdf_nosse:B_size <- [DW_OP_plus_uconst 48, DW_OP_deref] $rsp
	#DEBUG_VALUE: escrypt_kdf_nosse:B <- [DW_OP_plus_uconst 32, DW_OP_deref] $rsp
	#DEBUG_VALUE: escrypt_kdf_nosse:V <- [DW_OP_plus_uconst 104, DW_OP_deref] $rsp
	#DEBUG_VALUE: escrypt_kdf_nosse:XY <- [DW_OP_plus_uconst 96, DW_OP_deref] $rsp
	#DEBUG_VALUE: escrypt_kdf_nosse:i <- [DW_OP_plus_uconst 152, DW_OP_deref_size 8, DW_OP_stack_value] $rsp
	#DEBUG_VALUE: smix:B <- [DW_OP_LLVM_arg 0, DW_OP_plus_uconst 32, DW_OP_deref, DW_OP_LLVM_arg 1, DW_OP_plus_uconst 16, DW_OP_deref, DW_OP_LLVM_arg 2, DW_OP_plus_uconst 152, DW_OP_deref, DW_OP_mul, DW_OP_plus, DW_OP_stack_value] $rsp, $rsp, $rsp
	#DEBUG_VALUE: smix:N <- [DW_OP_plus_uconst 56, DW_OP_deref] $rsp
	#DEBUG_VALUE: smix:V <- [DW_OP_plus_uconst 104, DW_OP_deref] $rsp
	#DEBUG_VALUE: smix:XY <- [DW_OP_plus_uconst 96, DW_OP_deref] $rsp
	#DEBUG_VALUE: smix:X <- [DW_OP_plus_uconst 96, DW_OP_deref] $rsp
	#DEBUG_VALUE: smix:Y <- [DW_OP_plus_uconst 8, DW_OP_deref] $rsp
	#DEBUG_VALUE: smix:Z <- [DW_OP_plus_uconst 40, DW_OP_deref] $rsp
	#DEBUG_VALUE: smix:i <- $rbp
	#DEBUG_VALUE: blkxor:dest <- [DW_OP_plus_uconst 96, DW_OP_deref] $rsp
	#DEBUG_VALUE: blkxor:len <- $r14
	#DEBUG_VALUE: blkxor:i <- 0
	.loc	4 52 5                          # crypto_pwhash/scryptsalsa208sha256/nosse/pwhash_scryptsalsa208sha256_nosse.c:52:5 @[ crypto_pwhash/scryptsalsa208sha256/nosse/pwhash_scryptsalsa208sha256_nosse.c:208:9 @[ crypto_pwhash/scryptsalsa208sha256/nosse/pwhash_scryptsalsa208sha256_nosse.c:310:9 ] ]
	shlq	$7, %rax
	addq	24(%rsp), %rax                  # 8-byte Folded Reload
	imulq	%rcx, %rax
	addq	80(%rsp), %rax                  # 8-byte Folded Reload
	xorl	%edx, %edx
.Ltmp106:
	.loc	4 0 5                           # :0:5
.Ltmp107:
	.p2align	4
.LBB0_32:                               # %vector.body91
                                        #   Parent Loop BB0_18 Depth=1
                                        #     Parent Loop BB0_27 Depth=2
                                        # =>    This Inner Loop Header: Depth=3
	#DEBUG_VALUE: escrypt_kdf_nosse:local <- [DW_OP_LLVM_entry_value 1] $rdi
	#DEBUG_VALUE: escrypt_kdf_nosse:passwd <- [DW_OP_LLVM_entry_value 1] $rsi
	#DEBUG_VALUE: escrypt_kdf_nosse:passwdlen <- [DW_OP_plus_uconst 64] [$rsp+0]
	#DEBUG_VALUE: escrypt_kdf_nosse:salt <- [DW_OP_LLVM_entry_value 1] $rcx
	#DEBUG_VALUE: escrypt_kdf_nosse:saltlen <- [DW_OP_LLVM_entry_value 1] $r8
	#DEBUG_VALUE: escrypt_kdf_nosse:N <- [DW_OP_plus_uconst 56] [$rsp+0]
	#DEBUG_VALUE: escrypt_kdf_nosse:_r <- [DW_OP_plus_uconst 240] [$rsp+0]
	#DEBUG_VALUE: escrypt_kdf_nosse:_p <- [DW_OP_plus_uconst 248] [$rsp+0]
	#DEBUG_VALUE: escrypt_kdf_nosse:buf <- [DW_OP_plus_uconst 256] [$rsp+0]
	#DEBUG_VALUE: escrypt_kdf_nosse:buflen <- [DW_OP_plus_uconst 264] [$rsp+0]
	#DEBUG_VALUE: escrypt_kdf_nosse:B_size <- [DW_OP_plus_uconst 48, DW_OP_deref] $rsp
	#DEBUG_VALUE: escrypt_kdf_nosse:B <- [DW_OP_plus_uconst 32, DW_OP_deref] $rsp
	#DEBUG_VALUE: escrypt_kdf_nosse:V <- [DW_OP_plus_uconst 104, DW_OP_deref] $rsp
	#DEBUG_VALUE: escrypt_kdf_nosse:XY <- [DW_OP_plus_uconst 96, DW_OP_deref] $rsp
	#DEBUG_VALUE: escrypt_kdf_nosse:i <- [DW_OP_plus_uconst 152, DW_OP_deref_size 8, DW_OP_stack_value] $rsp
	#DEBUG_VALUE: smix:B <- [DW_OP_LLVM_arg 0, DW_OP_plus_uconst 32, DW_OP_deref, DW_OP_LLVM_arg 1, DW_OP_plus_uconst 16, DW_OP_deref, DW_OP_LLVM_arg 2, DW_OP_plus_uconst 152, DW_OP_deref, DW_OP_mul, DW_OP_plus, DW_OP_stack_value] $rsp, $rsp, $rsp
	#DEBUG_VALUE: smix:N <- [DW_OP_plus_uconst 56, DW_OP_deref] $rsp
	#DEBUG_VALUE: smix:V <- [DW_OP_plus_uconst 104, DW_OP_deref] $rsp
	#DEBUG_VALUE: smix:XY <- [DW_OP_plus_uconst 96, DW_OP_deref] $rsp
	#DEBUG_VALUE: smix:X <- [DW_OP_plus_uconst 96, DW_OP_deref] $rsp
	#DEBUG_VALUE: smix:Y <- [DW_OP_plus_uconst 8, DW_OP_deref] $rsp
	#DEBUG_VALUE: smix:Z <- [DW_OP_plus_uconst 40, DW_OP_deref] $rsp
	#DEBUG_VALUE: smix:i <- $rbp
	#DEBUG_VALUE: blkxor:dest <- [DW_OP_plus_uconst 96, DW_OP_deref] $rsp
	#DEBUG_VALUE: blkxor:len <- $r14
	#DEBUG_VALUE: blkxor:i <- 0
	.loc	4 53 20 is_stmt 1               # crypto_pwhash/scryptsalsa208sha256/nosse/pwhash_scryptsalsa208sha256_nosse.c:53:20 @[ crypto_pwhash/scryptsalsa208sha256/nosse/pwhash_scryptsalsa208sha256_nosse.c:208:9 @[ crypto_pwhash/scryptsalsa208sha256/nosse/pwhash_scryptsalsa208sha256_nosse.c:310:9 ] ]
	movups	-16(%rax,%rdx,4), %xmm0
	movups	(%rax,%rdx,4), %xmm1
	.loc	4 53 17 is_stmt 0               # crypto_pwhash/scryptsalsa208sha256/nosse/pwhash_scryptsalsa208sha256_nosse.c:53:17 @[ crypto_pwhash/scryptsalsa208sha256/nosse/pwhash_scryptsalsa208sha256_nosse.c:208:9 @[ crypto_pwhash/scryptsalsa208sha256/nosse/pwhash_scryptsalsa208sha256_nosse.c:310:9 ] ]
	movups	-16(%rbx,%rdx,4), %xmm2
	xorps	%xmm0, %xmm2
	movups	(%rbx,%rdx,4), %xmm0
	xorps	%xmm1, %xmm0
	movups	%xmm2, -16(%rbx,%rdx,4)
	movups	%xmm0, (%rbx,%rdx,4)
.Ltmp108:
	.loc	4 52 32 is_stmt 1               # crypto_pwhash/scryptsalsa208sha256/nosse/pwhash_scryptsalsa208sha256_nosse.c:52:32 @[ crypto_pwhash/scryptsalsa208sha256/nosse/pwhash_scryptsalsa208sha256_nosse.c:208:9 @[ crypto_pwhash/scryptsalsa208sha256/nosse/pwhash_scryptsalsa208sha256_nosse.c:310:9 ] ]
	addq	$8, %rdx
	cmpq	%rdx, %r14
	jne	.LBB0_32
.Ltmp109:
.LBB0_33:                               # %blkxor.exit.i
                                        #   in Loop: Header=BB0_27 Depth=2
	#DEBUG_VALUE: escrypt_kdf_nosse:local <- [DW_OP_LLVM_entry_value 1] $rdi
	#DEBUG_VALUE: escrypt_kdf_nosse:passwd <- [DW_OP_LLVM_entry_value 1] $rsi
	#DEBUG_VALUE: escrypt_kdf_nosse:passwdlen <- [DW_OP_plus_uconst 64] [$rsp+0]
	#DEBUG_VALUE: escrypt_kdf_nosse:salt <- [DW_OP_LLVM_entry_value 1] $rcx
	#DEBUG_VALUE: escrypt_kdf_nosse:saltlen <- [DW_OP_LLVM_entry_value 1] $r8
	#DEBUG_VALUE: escrypt_kdf_nosse:N <- [DW_OP_plus_uconst 56] [$rsp+0]
	#DEBUG_VALUE: escrypt_kdf_nosse:_r <- [DW_OP_plus_uconst 240] [$rsp+0]
	#DEBUG_VALUE: escrypt_kdf_nosse:_p <- [DW_OP_plus_uconst 248] [$rsp+0]
	#DEBUG_VALUE: escrypt_kdf_nosse:buf <- [DW_OP_plus_uconst 256] [$rsp+0]
	#DEBUG_VALUE: escrypt_kdf_nosse:buflen <- [DW_OP_plus_uconst 264] [$rsp+0]
	#DEBUG_VALUE: escrypt_kdf_nosse:B_size <- [DW_OP_plus_uconst 48, DW_OP_deref] $rsp
	#DEBUG_VALUE: escrypt_kdf_nosse:B <- [DW_OP_plus_uconst 32, DW_OP_deref] $rsp
	#DEBUG_VALUE: escrypt_kdf_nosse:V <- [DW_OP_plus_uconst 104, DW_OP_deref] $rsp
	#DEBUG_VALUE: escrypt_kdf_nosse:XY <- [DW_OP_plus_uconst 96, DW_OP_deref] $rsp
	#DEBUG_VALUE: escrypt_kdf_nosse:i <- [DW_OP_plus_uconst 152, DW_OP_deref_size 8, DW_OP_stack_value] $rsp
	#DEBUG_VALUE: smix:B <- [DW_OP_LLVM_arg 0, DW_OP_plus_uconst 32, DW_OP_deref, DW_OP_LLVM_arg 1, DW_OP_plus_uconst 16, DW_OP_deref, DW_OP_LLVM_arg 2, DW_OP_plus_uconst 152, DW_OP_deref, DW_OP_mul, DW_OP_plus, DW_OP_stack_value] $rsp, $rsp, $rsp
	#DEBUG_VALUE: smix:N <- [DW_OP_plus_uconst 56, DW_OP_deref] $rsp
	#DEBUG_VALUE: smix:V <- [DW_OP_plus_uconst 104, DW_OP_deref] $rsp
	#DEBUG_VALUE: smix:XY <- [DW_OP_plus_uconst 96, DW_OP_deref] $rsp
	#DEBUG_VALUE: smix:X <- [DW_OP_plus_uconst 96, DW_OP_deref] $rsp
	#DEBUG_VALUE: smix:Y <- [DW_OP_plus_uconst 8, DW_OP_deref] $rsp
	#DEBUG_VALUE: smix:Z <- [DW_OP_plus_uconst 40, DW_OP_deref] $rsp
	#DEBUG_VALUE: smix:i <- $rbp
	.loc	4 209 9                         # crypto_pwhash/scryptsalsa208sha256/nosse/pwhash_scryptsalsa208sha256_nosse.c:209:9 @[ crypto_pwhash/scryptsalsa208sha256/nosse/pwhash_scryptsalsa208sha256_nosse.c:310:9 ]
	movq	%r12, %rdi
	movq	8(%rsp), %r12                   # 8-byte Reload
	movq	%r12, %rsi
	movq	40(%rsp), %rdx                  # 8-byte Reload
	callq	blockmix_salsa8
.Ltmp110:
	.loc	4 0 9 is_stmt 0                 # crypto_pwhash/scryptsalsa208sha256/nosse/pwhash_scryptsalsa208sha256_nosse.c:0:9
	movl	240(%rsp), %r8d
	movq	16(%rsp), %rax                  # 8-byte Reload
	movq	-64(%r12,%rax), %rax
	.loc	4 212 30 is_stmt 1              # crypto_pwhash/scryptsalsa208sha256/nosse/pwhash_scryptsalsa208sha256_nosse.c:212:30 @[ crypto_pwhash/scryptsalsa208sha256/nosse/pwhash_scryptsalsa208sha256_nosse.c:310:9 ]
	andq	112(%rsp), %rax                 # 8-byte Folded Reload
.Ltmp111:
	#DEBUG_VALUE: smix:j <- undef
	#DEBUG_VALUE: blkxor:src <- undef
	#DEBUG_VALUE: blkxor:dest <- [DW_OP_plus_uconst 8, DW_OP_deref] $rsp
	#DEBUG_VALUE: blkxor:len <- $r14
	#DEBUG_VALUE: blkxor:i <- 0
	.loc	4 52 5                          # crypto_pwhash/scryptsalsa208sha256/nosse/pwhash_scryptsalsa208sha256_nosse.c:52:5 @[ crypto_pwhash/scryptsalsa208sha256/nosse/pwhash_scryptsalsa208sha256_nosse.c:215:9 @[ crypto_pwhash/scryptsalsa208sha256/nosse/pwhash_scryptsalsa208sha256_nosse.c:310:9 ] ]
	movl	248(%rsp), %ecx
	addq	%rax, %rcx
	shlq	$7, %rcx
	subq	$-128, %rcx
	imulq	%r8, %rcx
	addq	32(%rsp), %rcx                  # 8-byte Folded Reload
	cmpq	%rcx, %r12
.Ltmp112:
	.loc	4 52 32 is_stmt 0               # crypto_pwhash/scryptsalsa208sha256/nosse/pwhash_scryptsalsa208sha256_nosse.c:52:32 @[ crypto_pwhash/scryptsalsa208sha256/nosse/pwhash_scryptsalsa208sha256_nosse.c:215:9 @[ crypto_pwhash/scryptsalsa208sha256/nosse/pwhash_scryptsalsa208sha256_nosse.c:310:9 ] ]
	jae	.LBB0_37
.Ltmp113:
# %bb.34:                               # %blkxor.exit.i
                                        #   in Loop: Header=BB0_27 Depth=2
	#DEBUG_VALUE: escrypt_kdf_nosse:local <- [DW_OP_LLVM_entry_value 1] $rdi
	#DEBUG_VALUE: escrypt_kdf_nosse:passwd <- [DW_OP_LLVM_entry_value 1] $rsi
	#DEBUG_VALUE: escrypt_kdf_nosse:passwdlen <- [DW_OP_plus_uconst 64] [$rsp+0]
	#DEBUG_VALUE: escrypt_kdf_nosse:salt <- [DW_OP_LLVM_entry_value 1] $rcx
	#DEBUG_VALUE: escrypt_kdf_nosse:saltlen <- [DW_OP_LLVM_entry_value 1] $r8
	#DEBUG_VALUE: escrypt_kdf_nosse:N <- [DW_OP_plus_uconst 56] [$rsp+0]
	#DEBUG_VALUE: escrypt_kdf_nosse:_r <- [DW_OP_plus_uconst 240] [$rsp+0]
	#DEBUG_VALUE: escrypt_kdf_nosse:_p <- [DW_OP_plus_uconst 248] [$rsp+0]
	#DEBUG_VALUE: escrypt_kdf_nosse:buf <- [DW_OP_plus_uconst 256] [$rsp+0]
	#DEBUG_VALUE: escrypt_kdf_nosse:buflen <- [DW_OP_plus_uconst 264] [$rsp+0]
	#DEBUG_VALUE: escrypt_kdf_nosse:B_size <- [DW_OP_plus_uconst 48, DW_OP_deref] $rsp
	#DEBUG_VALUE: escrypt_kdf_nosse:B <- [DW_OP_plus_uconst 32, DW_OP_deref] $rsp
	#DEBUG_VALUE: escrypt_kdf_nosse:V <- [DW_OP_plus_uconst 104, DW_OP_deref] $rsp
	#DEBUG_VALUE: escrypt_kdf_nosse:XY <- [DW_OP_plus_uconst 96, DW_OP_deref] $rsp
	#DEBUG_VALUE: escrypt_kdf_nosse:i <- [DW_OP_plus_uconst 152, DW_OP_deref_size 8, DW_OP_stack_value] $rsp
	#DEBUG_VALUE: smix:B <- [DW_OP_LLVM_arg 0, DW_OP_plus_uconst 32, DW_OP_deref, DW_OP_LLVM_arg 1, DW_OP_plus_uconst 16, DW_OP_deref, DW_OP_LLVM_arg 2, DW_OP_plus_uconst 152, DW_OP_deref, DW_OP_mul, DW_OP_plus, DW_OP_stack_value] $rsp, $rsp, $rsp
	#DEBUG_VALUE: smix:N <- [DW_OP_plus_uconst 56, DW_OP_deref] $rsp
	#DEBUG_VALUE: smix:V <- [DW_OP_plus_uconst 104, DW_OP_deref] $rsp
	#DEBUG_VALUE: smix:XY <- [DW_OP_plus_uconst 96, DW_OP_deref] $rsp
	#DEBUG_VALUE: smix:X <- [DW_OP_plus_uconst 96, DW_OP_deref] $rsp
	#DEBUG_VALUE: smix:Y <- [DW_OP_plus_uconst 8, DW_OP_deref] $rsp
	#DEBUG_VALUE: smix:Z <- [DW_OP_plus_uconst 40, DW_OP_deref] $rsp
	#DEBUG_VALUE: smix:i <- $rbp
	#DEBUG_VALUE: blkxor:dest <- [DW_OP_plus_uconst 8, DW_OP_deref] $rsp
	#DEBUG_VALUE: blkxor:len <- $r14
	#DEBUG_VALUE: blkxor:i <- 0
	.loc	4 215 0 is_stmt 1               # crypto_pwhash/scryptsalsa208sha256/nosse/pwhash_scryptsalsa208sha256_nosse.c:215 @[ crypto_pwhash/scryptsalsa208sha256/nosse/pwhash_scryptsalsa208sha256_nosse.c:310:9 ]
	movq	%rax, %rcx
	imulq	%r14, %rcx
	movq	104(%rsp), %rdx                 # 8-byte Reload
	leaq	(%rdx,%rcx,4), %rcx
.Ltmp114:
	#DEBUG_VALUE: blkxor:src <- $rcx
	.loc	4 52 32                         # crypto_pwhash/scryptsalsa208sha256/nosse/pwhash_scryptsalsa208sha256_nosse.c:52:32 @[ crypto_pwhash/scryptsalsa208sha256/nosse/pwhash_scryptsalsa208sha256_nosse.c:215:9 @[ crypto_pwhash/scryptsalsa208sha256/nosse/pwhash_scryptsalsa208sha256_nosse.c:310:9 ] ]
	cmpq	160(%rsp), %rcx                 # 8-byte Folded Reload
	jae	.LBB0_37
.Ltmp115:
# %bb.35:                               # %scalar.ph.preheader
                                        #   in Loop: Header=BB0_27 Depth=2
	#DEBUG_VALUE: escrypt_kdf_nosse:local <- [DW_OP_LLVM_entry_value 1] $rdi
	#DEBUG_VALUE: escrypt_kdf_nosse:passwd <- [DW_OP_LLVM_entry_value 1] $rsi
	#DEBUG_VALUE: escrypt_kdf_nosse:passwdlen <- [DW_OP_plus_uconst 64] [$rsp+0]
	#DEBUG_VALUE: escrypt_kdf_nosse:salt <- [DW_OP_LLVM_entry_value 1] $rcx
	#DEBUG_VALUE: escrypt_kdf_nosse:saltlen <- [DW_OP_LLVM_entry_value 1] $r8
	#DEBUG_VALUE: escrypt_kdf_nosse:N <- [DW_OP_plus_uconst 56] [$rsp+0]
	#DEBUG_VALUE: escrypt_kdf_nosse:_r <- [DW_OP_plus_uconst 240] [$rsp+0]
	#DEBUG_VALUE: escrypt_kdf_nosse:_p <- [DW_OP_plus_uconst 248] [$rsp+0]
	#DEBUG_VALUE: escrypt_kdf_nosse:buf <- [DW_OP_plus_uconst 256] [$rsp+0]
	#DEBUG_VALUE: escrypt_kdf_nosse:buflen <- [DW_OP_plus_uconst 264] [$rsp+0]
	#DEBUG_VALUE: escrypt_kdf_nosse:B_size <- [DW_OP_plus_uconst 48, DW_OP_deref] $rsp
	#DEBUG_VALUE: escrypt_kdf_nosse:B <- [DW_OP_plus_uconst 32, DW_OP_deref] $rsp
	#DEBUG_VALUE: escrypt_kdf_nosse:V <- [DW_OP_plus_uconst 104, DW_OP_deref] $rsp
	#DEBUG_VALUE: escrypt_kdf_nosse:XY <- [DW_OP_plus_uconst 96, DW_OP_deref] $rsp
	#DEBUG_VALUE: escrypt_kdf_nosse:i <- [DW_OP_plus_uconst 152, DW_OP_deref_size 8, DW_OP_stack_value] $rsp
	#DEBUG_VALUE: smix:B <- [DW_OP_LLVM_arg 0, DW_OP_plus_uconst 32, DW_OP_deref, DW_OP_LLVM_arg 1, DW_OP_plus_uconst 16, DW_OP_deref, DW_OP_LLVM_arg 2, DW_OP_plus_uconst 152, DW_OP_deref, DW_OP_mul, DW_OP_plus, DW_OP_stack_value] $rsp, $rsp, $rsp
	#DEBUG_VALUE: smix:N <- [DW_OP_plus_uconst 56, DW_OP_deref] $rsp
	#DEBUG_VALUE: smix:V <- [DW_OP_plus_uconst 104, DW_OP_deref] $rsp
	#DEBUG_VALUE: smix:XY <- [DW_OP_plus_uconst 96, DW_OP_deref] $rsp
	#DEBUG_VALUE: smix:X <- [DW_OP_plus_uconst 96, DW_OP_deref] $rsp
	#DEBUG_VALUE: smix:Y <- [DW_OP_plus_uconst 8, DW_OP_deref] $rsp
	#DEBUG_VALUE: smix:Z <- [DW_OP_plus_uconst 40, DW_OP_deref] $rsp
	#DEBUG_VALUE: smix:i <- $rbp
	#DEBUG_VALUE: blkxor:src <- $rcx
	#DEBUG_VALUE: blkxor:dest <- [DW_OP_plus_uconst 8, DW_OP_deref] $rsp
	#DEBUG_VALUE: blkxor:len <- $r14
	#DEBUG_VALUE: blkxor:i <- 0
	.loc	4 52 5 is_stmt 0                # crypto_pwhash/scryptsalsa208sha256/nosse/pwhash_scryptsalsa208sha256_nosse.c:52:5 @[ crypto_pwhash/scryptsalsa208sha256/nosse/pwhash_scryptsalsa208sha256_nosse.c:215:9 @[ crypto_pwhash/scryptsalsa208sha256/nosse/pwhash_scryptsalsa208sha256_nosse.c:310:9 ] ]
	shlq	$7, %rax
	addq	24(%rsp), %rax                  # 8-byte Folded Reload
	imulq	%r8, %rax
	addq	72(%rsp), %rax                  # 8-byte Folded Reload
	xorl	%ecx, %ecx
.Ltmp116:
	.loc	4 0 5                           # :0:5
.Ltmp117:
	.p2align	4
.LBB0_36:                               # %scalar.ph
                                        #   Parent Loop BB0_18 Depth=1
                                        #     Parent Loop BB0_27 Depth=2
                                        # =>    This Inner Loop Header: Depth=3
	#DEBUG_VALUE: escrypt_kdf_nosse:local <- [DW_OP_LLVM_entry_value 1] $rdi
	#DEBUG_VALUE: escrypt_kdf_nosse:passwd <- [DW_OP_LLVM_entry_value 1] $rsi
	#DEBUG_VALUE: escrypt_kdf_nosse:passwdlen <- [DW_OP_plus_uconst 64] [$rsp+0]
	#DEBUG_VALUE: escrypt_kdf_nosse:salt <- [DW_OP_LLVM_entry_value 1] $rcx
	#DEBUG_VALUE: escrypt_kdf_nosse:saltlen <- [DW_OP_LLVM_entry_value 1] $r8
	#DEBUG_VALUE: escrypt_kdf_nosse:N <- [DW_OP_plus_uconst 56] [$rsp+0]
	#DEBUG_VALUE: escrypt_kdf_nosse:_r <- [DW_OP_plus_uconst 240] [$rsp+0]
	#DEBUG_VALUE: escrypt_kdf_nosse:_p <- [DW_OP_plus_uconst 248] [$rsp+0]
	#DEBUG_VALUE: escrypt_kdf_nosse:buf <- [DW_OP_plus_uconst 256] [$rsp+0]
	#DEBUG_VALUE: escrypt_kdf_nosse:buflen <- [DW_OP_plus_uconst 264] [$rsp+0]
	#DEBUG_VALUE: escrypt_kdf_nosse:B_size <- [DW_OP_plus_uconst 48, DW_OP_deref] $rsp
	#DEBUG_VALUE: escrypt_kdf_nosse:B <- [DW_OP_plus_uconst 32, DW_OP_deref] $rsp
	#DEBUG_VALUE: escrypt_kdf_nosse:V <- [DW_OP_plus_uconst 104, DW_OP_deref] $rsp
	#DEBUG_VALUE: escrypt_kdf_nosse:XY <- [DW_OP_plus_uconst 96, DW_OP_deref] $rsp
	#DEBUG_VALUE: escrypt_kdf_nosse:i <- [DW_OP_plus_uconst 152, DW_OP_deref_size 8, DW_OP_stack_value] $rsp
	#DEBUG_VALUE: smix:B <- [DW_OP_LLVM_arg 0, DW_OP_plus_uconst 32, DW_OP_deref, DW_OP_LLVM_arg 1, DW_OP_plus_uconst 16, DW_OP_deref, DW_OP_LLVM_arg 2, DW_OP_plus_uconst 152, DW_OP_deref, DW_OP_mul, DW_OP_plus, DW_OP_stack_value] $rsp, $rsp, $rsp
	#DEBUG_VALUE: smix:N <- [DW_OP_plus_uconst 56, DW_OP_deref] $rsp
	#DEBUG_VALUE: smix:V <- [DW_OP_plus_uconst 104, DW_OP_deref] $rsp
	#DEBUG_VALUE: smix:XY <- [DW_OP_plus_uconst 96, DW_OP_deref] $rsp
	#DEBUG_VALUE: smix:X <- [DW_OP_plus_uconst 96, DW_OP_deref] $rsp
	#DEBUG_VALUE: smix:Y <- [DW_OP_plus_uconst 8, DW_OP_deref] $rsp
	#DEBUG_VALUE: smix:Z <- [DW_OP_plus_uconst 40, DW_OP_deref] $rsp
	#DEBUG_VALUE: smix:i <- $rbp
	#DEBUG_VALUE: blkxor:dest <- [DW_OP_plus_uconst 8, DW_OP_deref] $rsp
	#DEBUG_VALUE: blkxor:len <- $r14
	#DEBUG_VALUE: blkxor:i <- $rcx
	.loc	4 53 20 is_stmt 1               # crypto_pwhash/scryptsalsa208sha256/nosse/pwhash_scryptsalsa208sha256_nosse.c:53:20 @[ crypto_pwhash/scryptsalsa208sha256/nosse/pwhash_scryptsalsa208sha256_nosse.c:215:9 @[ crypto_pwhash/scryptsalsa208sha256/nosse/pwhash_scryptsalsa208sha256_nosse.c:310:9 ] ]
	movl	-12(%rax,%rcx,4), %edx
	.loc	4 53 17 is_stmt 0               # crypto_pwhash/scryptsalsa208sha256/nosse/pwhash_scryptsalsa208sha256_nosse.c:53:17 @[ crypto_pwhash/scryptsalsa208sha256/nosse/pwhash_scryptsalsa208sha256_nosse.c:215:9 @[ crypto_pwhash/scryptsalsa208sha256/nosse/pwhash_scryptsalsa208sha256_nosse.c:310:9 ] ]
	xorl	%edx, -16(%r15,%rcx,4)
.Ltmp118:
	#DEBUG_VALUE: blkxor:i <- [DW_OP_constu 1, DW_OP_or, DW_OP_stack_value] $rcx
	.loc	4 53 20                         # crypto_pwhash/scryptsalsa208sha256/nosse/pwhash_scryptsalsa208sha256_nosse.c:53:20 @[ crypto_pwhash/scryptsalsa208sha256/nosse/pwhash_scryptsalsa208sha256_nosse.c:215:9 @[ crypto_pwhash/scryptsalsa208sha256/nosse/pwhash_scryptsalsa208sha256_nosse.c:310:9 ] ]
	movl	-8(%rax,%rcx,4), %edx
	.loc	4 53 17                         # crypto_pwhash/scryptsalsa208sha256/nosse/pwhash_scryptsalsa208sha256_nosse.c:53:17 @[ crypto_pwhash/scryptsalsa208sha256/nosse/pwhash_scryptsalsa208sha256_nosse.c:215:9 @[ crypto_pwhash/scryptsalsa208sha256/nosse/pwhash_scryptsalsa208sha256_nosse.c:310:9 ] ]
	xorl	%edx, -12(%r15,%rcx,4)
.Ltmp119:
	#DEBUG_VALUE: blkxor:i <- [DW_OP_constu 2, DW_OP_or, DW_OP_stack_value] $rcx
	.loc	4 53 20                         # crypto_pwhash/scryptsalsa208sha256/nosse/pwhash_scryptsalsa208sha256_nosse.c:53:20 @[ crypto_pwhash/scryptsalsa208sha256/nosse/pwhash_scryptsalsa208sha256_nosse.c:215:9 @[ crypto_pwhash/scryptsalsa208sha256/nosse/pwhash_scryptsalsa208sha256_nosse.c:310:9 ] ]
	movl	-4(%rax,%rcx,4), %edx
	.loc	4 53 17                         # crypto_pwhash/scryptsalsa208sha256/nosse/pwhash_scryptsalsa208sha256_nosse.c:53:17 @[ crypto_pwhash/scryptsalsa208sha256/nosse/pwhash_scryptsalsa208sha256_nosse.c:215:9 @[ crypto_pwhash/scryptsalsa208sha256/nosse/pwhash_scryptsalsa208sha256_nosse.c:310:9 ] ]
	xorl	%edx, -8(%r15,%rcx,4)
.Ltmp120:
	#DEBUG_VALUE: blkxor:i <- [DW_OP_constu 3, DW_OP_or, DW_OP_stack_value] $rcx
	.loc	4 53 20                         # crypto_pwhash/scryptsalsa208sha256/nosse/pwhash_scryptsalsa208sha256_nosse.c:53:20 @[ crypto_pwhash/scryptsalsa208sha256/nosse/pwhash_scryptsalsa208sha256_nosse.c:215:9 @[ crypto_pwhash/scryptsalsa208sha256/nosse/pwhash_scryptsalsa208sha256_nosse.c:310:9 ] ]
	movl	(%rax,%rcx,4), %edx
	.loc	4 53 17                         # crypto_pwhash/scryptsalsa208sha256/nosse/pwhash_scryptsalsa208sha256_nosse.c:53:17 @[ crypto_pwhash/scryptsalsa208sha256/nosse/pwhash_scryptsalsa208sha256_nosse.c:215:9 @[ crypto_pwhash/scryptsalsa208sha256/nosse/pwhash_scryptsalsa208sha256_nosse.c:310:9 ] ]
	xorl	%edx, -4(%r15,%rcx,4)
.Ltmp121:
	.loc	4 52 32 is_stmt 1               # crypto_pwhash/scryptsalsa208sha256/nosse/pwhash_scryptsalsa208sha256_nosse.c:52:32 @[ crypto_pwhash/scryptsalsa208sha256/nosse/pwhash_scryptsalsa208sha256_nosse.c:215:9 @[ crypto_pwhash/scryptsalsa208sha256/nosse/pwhash_scryptsalsa208sha256_nosse.c:310:9 ] ]
	addq	$4, %rcx
.Ltmp122:
	#DEBUG_VALUE: blkxor:i <- $rcx
	.loc	4 52 19 is_stmt 0               # crypto_pwhash/scryptsalsa208sha256/nosse/pwhash_scryptsalsa208sha256_nosse.c:52:19 @[ crypto_pwhash/scryptsalsa208sha256/nosse/pwhash_scryptsalsa208sha256_nosse.c:215:9 @[ crypto_pwhash/scryptsalsa208sha256/nosse/pwhash_scryptsalsa208sha256_nosse.c:310:9 ] ]
	cmpq	%rcx, %r14
.Ltmp123:
	.loc	4 52 5                          # crypto_pwhash/scryptsalsa208sha256/nosse/pwhash_scryptsalsa208sha256_nosse.c:52:5 @[ crypto_pwhash/scryptsalsa208sha256/nosse/pwhash_scryptsalsa208sha256_nosse.c:215:9 @[ crypto_pwhash/scryptsalsa208sha256/nosse/pwhash_scryptsalsa208sha256_nosse.c:310:9 ] ]
	jne	.LBB0_36
	jmp	.LBB0_26
.Ltmp124:
	.loc	4 0 5                           # :0:5
.Ltmp125:
	.p2align	4
.LBB0_37:                               # %vector.body.preheader
                                        #   in Loop: Header=BB0_27 Depth=2
	#DEBUG_VALUE: escrypt_kdf_nosse:local <- [DW_OP_LLVM_entry_value 1] $rdi
	#DEBUG_VALUE: escrypt_kdf_nosse:passwd <- [DW_OP_LLVM_entry_value 1] $rsi
	#DEBUG_VALUE: escrypt_kdf_nosse:passwdlen <- [DW_OP_plus_uconst 64] [$rsp+0]
	#DEBUG_VALUE: escrypt_kdf_nosse:salt <- [DW_OP_LLVM_entry_value 1] $rcx
	#DEBUG_VALUE: escrypt_kdf_nosse:saltlen <- [DW_OP_LLVM_entry_value 1] $r8
	#DEBUG_VALUE: escrypt_kdf_nosse:N <- [DW_OP_plus_uconst 56] [$rsp+0]
	#DEBUG_VALUE: escrypt_kdf_nosse:_r <- [DW_OP_plus_uconst 240] [$rsp+0]
	#DEBUG_VALUE: escrypt_kdf_nosse:_p <- [DW_OP_plus_uconst 248] [$rsp+0]
	#DEBUG_VALUE: escrypt_kdf_nosse:buf <- [DW_OP_plus_uconst 256] [$rsp+0]
	#DEBUG_VALUE: escrypt_kdf_nosse:buflen <- [DW_OP_plus_uconst 264] [$rsp+0]
	#DEBUG_VALUE: escrypt_kdf_nosse:B_size <- [DW_OP_plus_uconst 48, DW_OP_deref] $rsp
	#DEBUG_VALUE: escrypt_kdf_nosse:B <- [DW_OP_plus_uconst 32, DW_OP_deref] $rsp
	#DEBUG_VALUE: escrypt_kdf_nosse:V <- [DW_OP_plus_uconst 104, DW_OP_deref] $rsp
	#DEBUG_VALUE: escrypt_kdf_nosse:XY <- [DW_OP_plus_uconst 96, DW_OP_deref] $rsp
	#DEBUG_VALUE: escrypt_kdf_nosse:i <- [DW_OP_plus_uconst 152, DW_OP_deref_size 8, DW_OP_stack_value] $rsp
	#DEBUG_VALUE: smix:B <- [DW_OP_LLVM_arg 0, DW_OP_plus_uconst 32, DW_OP_deref, DW_OP_LLVM_arg 1, DW_OP_plus_uconst 16, DW_OP_deref, DW_OP_LLVM_arg 2, DW_OP_plus_uconst 152, DW_OP_deref, DW_OP_mul, DW_OP_plus, DW_OP_stack_value] $rsp, $rsp, $rsp
	#DEBUG_VALUE: smix:N <- [DW_OP_plus_uconst 56, DW_OP_deref] $rsp
	#DEBUG_VALUE: smix:V <- [DW_OP_plus_uconst 104, DW_OP_deref] $rsp
	#DEBUG_VALUE: smix:XY <- [DW_OP_plus_uconst 96, DW_OP_deref] $rsp
	#DEBUG_VALUE: smix:X <- [DW_OP_plus_uconst 96, DW_OP_deref] $rsp
	#DEBUG_VALUE: smix:Y <- [DW_OP_plus_uconst 8, DW_OP_deref] $rsp
	#DEBUG_VALUE: smix:Z <- [DW_OP_plus_uconst 40, DW_OP_deref] $rsp
	#DEBUG_VALUE: smix:i <- $rbp
	#DEBUG_VALUE: blkxor:dest <- [DW_OP_plus_uconst 8, DW_OP_deref] $rsp
	#DEBUG_VALUE: blkxor:len <- $r14
	#DEBUG_VALUE: blkxor:i <- 0
	.loc	4 52 5                          # crypto_pwhash/scryptsalsa208sha256/nosse/pwhash_scryptsalsa208sha256_nosse.c:52:5 @[ crypto_pwhash/scryptsalsa208sha256/nosse/pwhash_scryptsalsa208sha256_nosse.c:215:9 @[ crypto_pwhash/scryptsalsa208sha256/nosse/pwhash_scryptsalsa208sha256_nosse.c:310:9 ] ]
	shlq	$7, %rax
	addq	24(%rsp), %rax                  # 8-byte Folded Reload
	imulq	%r8, %rax
	addq	80(%rsp), %rax                  # 8-byte Folded Reload
	xorl	%ecx, %ecx
.Ltmp126:
	.loc	4 0 5                           # :0:5
.Ltmp127:
	.p2align	4
.LBB0_38:                               # %vector.body
                                        #   Parent Loop BB0_18 Depth=1
                                        #     Parent Loop BB0_27 Depth=2
                                        # =>    This Inner Loop Header: Depth=3
	#DEBUG_VALUE: escrypt_kdf_nosse:local <- [DW_OP_LLVM_entry_value 1] $rdi
	#DEBUG_VALUE: escrypt_kdf_nosse:passwd <- [DW_OP_LLVM_entry_value 1] $rsi
	#DEBUG_VALUE: escrypt_kdf_nosse:passwdlen <- [DW_OP_plus_uconst 64] [$rsp+0]
	#DEBUG_VALUE: escrypt_kdf_nosse:salt <- [DW_OP_LLVM_entry_value 1] $rcx
	#DEBUG_VALUE: escrypt_kdf_nosse:saltlen <- [DW_OP_LLVM_entry_value 1] $r8
	#DEBUG_VALUE: escrypt_kdf_nosse:N <- [DW_OP_plus_uconst 56] [$rsp+0]
	#DEBUG_VALUE: escrypt_kdf_nosse:_r <- [DW_OP_plus_uconst 240] [$rsp+0]
	#DEBUG_VALUE: escrypt_kdf_nosse:_p <- [DW_OP_plus_uconst 248] [$rsp+0]
	#DEBUG_VALUE: escrypt_kdf_nosse:buf <- [DW_OP_plus_uconst 256] [$rsp+0]
	#DEBUG_VALUE: escrypt_kdf_nosse:buflen <- [DW_OP_plus_uconst 264] [$rsp+0]
	#DEBUG_VALUE: escrypt_kdf_nosse:B_size <- [DW_OP_plus_uconst 48, DW_OP_deref] $rsp
	#DEBUG_VALUE: escrypt_kdf_nosse:B <- [DW_OP_plus_uconst 32, DW_OP_deref] $rsp
	#DEBUG_VALUE: escrypt_kdf_nosse:V <- [DW_OP_plus_uconst 104, DW_OP_deref] $rsp
	#DEBUG_VALUE: escrypt_kdf_nosse:XY <- [DW_OP_plus_uconst 96, DW_OP_deref] $rsp
	#DEBUG_VALUE: escrypt_kdf_nosse:i <- [DW_OP_plus_uconst 152, DW_OP_deref_size 8, DW_OP_stack_value] $rsp
	#DEBUG_VALUE: smix:B <- [DW_OP_LLVM_arg 0, DW_OP_plus_uconst 32, DW_OP_deref, DW_OP_LLVM_arg 1, DW_OP_plus_uconst 16, DW_OP_deref, DW_OP_LLVM_arg 2, DW_OP_plus_uconst 152, DW_OP_deref, DW_OP_mul, DW_OP_plus, DW_OP_stack_value] $rsp, $rsp, $rsp
	#DEBUG_VALUE: smix:N <- [DW_OP_plus_uconst 56, DW_OP_deref] $rsp
	#DEBUG_VALUE: smix:V <- [DW_OP_plus_uconst 104, DW_OP_deref] $rsp
	#DEBUG_VALUE: smix:XY <- [DW_OP_plus_uconst 96, DW_OP_deref] $rsp
	#DEBUG_VALUE: smix:X <- [DW_OP_plus_uconst 96, DW_OP_deref] $rsp
	#DEBUG_VALUE: smix:Y <- [DW_OP_plus_uconst 8, DW_OP_deref] $rsp
	#DEBUG_VALUE: smix:Z <- [DW_OP_plus_uconst 40, DW_OP_deref] $rsp
	#DEBUG_VALUE: smix:i <- $rbp
	#DEBUG_VALUE: blkxor:dest <- [DW_OP_plus_uconst 8, DW_OP_deref] $rsp
	#DEBUG_VALUE: blkxor:len <- $r14
	#DEBUG_VALUE: blkxor:i <- 0
	.loc	4 53 20 is_stmt 1               # crypto_pwhash/scryptsalsa208sha256/nosse/pwhash_scryptsalsa208sha256_nosse.c:53:20 @[ crypto_pwhash/scryptsalsa208sha256/nosse/pwhash_scryptsalsa208sha256_nosse.c:215:9 @[ crypto_pwhash/scryptsalsa208sha256/nosse/pwhash_scryptsalsa208sha256_nosse.c:310:9 ] ]
	movups	-16(%rax,%rcx,4), %xmm0
	movups	(%rax,%rcx,4), %xmm1
	.loc	4 53 17 is_stmt 0               # crypto_pwhash/scryptsalsa208sha256/nosse/pwhash_scryptsalsa208sha256_nosse.c:53:17 @[ crypto_pwhash/scryptsalsa208sha256/nosse/pwhash_scryptsalsa208sha256_nosse.c:215:9 @[ crypto_pwhash/scryptsalsa208sha256/nosse/pwhash_scryptsalsa208sha256_nosse.c:310:9 ] ]
	movups	-16(%r15,%rcx,4), %xmm2
	xorps	%xmm0, %xmm2
	movups	(%r15,%rcx,4), %xmm0
	xorps	%xmm1, %xmm0
	movups	%xmm2, -16(%r15,%rcx,4)
	movups	%xmm0, (%r15,%rcx,4)
.Ltmp128:
	.loc	4 52 32 is_stmt 1               # crypto_pwhash/scryptsalsa208sha256/nosse/pwhash_scryptsalsa208sha256_nosse.c:52:32 @[ crypto_pwhash/scryptsalsa208sha256/nosse/pwhash_scryptsalsa208sha256_nosse.c:215:9 @[ crypto_pwhash/scryptsalsa208sha256/nosse/pwhash_scryptsalsa208sha256_nosse.c:310:9 ] ]
	addq	$8, %rcx
	cmpq	%rcx, %r14
	jne	.LBB0_38
	jmp	.LBB0_26
.Ltmp129:
.LBB0_39:                               # %.preheader.i.preheader
                                        #   in Loop: Header=BB0_18 Depth=1
	#DEBUG_VALUE: escrypt_kdf_nosse:local <- [DW_OP_LLVM_entry_value 1] $rdi
	#DEBUG_VALUE: escrypt_kdf_nosse:passwd <- [DW_OP_LLVM_entry_value 1] $rsi
	#DEBUG_VALUE: escrypt_kdf_nosse:passwdlen <- [DW_OP_plus_uconst 64] [$rsp+0]
	#DEBUG_VALUE: escrypt_kdf_nosse:salt <- [DW_OP_LLVM_entry_value 1] $rcx
	#DEBUG_VALUE: escrypt_kdf_nosse:saltlen <- [DW_OP_LLVM_entry_value 1] $r8
	#DEBUG_VALUE: escrypt_kdf_nosse:N <- [DW_OP_plus_uconst 56] [$rsp+0]
	#DEBUG_VALUE: escrypt_kdf_nosse:_r <- [DW_OP_plus_uconst 240] [$rsp+0]
	#DEBUG_VALUE: escrypt_kdf_nosse:_p <- [DW_OP_plus_uconst 248] [$rsp+0]
	#DEBUG_VALUE: escrypt_kdf_nosse:buf <- [DW_OP_plus_uconst 256] [$rsp+0]
	#DEBUG_VALUE: escrypt_kdf_nosse:buflen <- [DW_OP_plus_uconst 264] [$rsp+0]
	#DEBUG_VALUE: escrypt_kdf_nosse:B_size <- [DW_OP_plus_uconst 48, DW_OP_deref] $rsp
	#DEBUG_VALUE: escrypt_kdf_nosse:B <- [DW_OP_plus_uconst 32, DW_OP_deref] $rsp
	#DEBUG_VALUE: escrypt_kdf_nosse:V <- [DW_OP_plus_uconst 104, DW_OP_deref] $rsp
	#DEBUG_VALUE: escrypt_kdf_nosse:XY <- [DW_OP_plus_uconst 96, DW_OP_deref] $rsp
	#DEBUG_VALUE: escrypt_kdf_nosse:i <- [DW_OP_plus_uconst 152, DW_OP_deref_size 8, DW_OP_stack_value] $rsp
	#DEBUG_VALUE: smix:B <- [DW_OP_LLVM_arg 0, DW_OP_plus_uconst 32, DW_OP_deref, DW_OP_LLVM_arg 1, DW_OP_plus_uconst 16, DW_OP_deref, DW_OP_LLVM_arg 2, DW_OP_plus_uconst 152, DW_OP_deref, DW_OP_mul, DW_OP_plus, DW_OP_stack_value] $rsp, $rsp, $rsp
	#DEBUG_VALUE: smix:N <- [DW_OP_plus_uconst 56, DW_OP_deref] $rsp
	#DEBUG_VALUE: smix:V <- [DW_OP_plus_uconst 104, DW_OP_deref] $rsp
	#DEBUG_VALUE: smix:XY <- [DW_OP_plus_uconst 96, DW_OP_deref] $rsp
	#DEBUG_VALUE: smix:X <- [DW_OP_plus_uconst 96, DW_OP_deref] $rsp
	#DEBUG_VALUE: smix:Y <- [DW_OP_plus_uconst 8, DW_OP_deref] $rsp
	#DEBUG_VALUE: smix:Z <- [DW_OP_plus_uconst 40, DW_OP_deref] $rsp
	#DEBUG_VALUE: smix:i <- $rbp
	.loc	4 0 32 is_stmt 0                # crypto_pwhash/scryptsalsa208sha256/nosse/pwhash_scryptsalsa208sha256_nosse.c:0:32
	xorl	%eax, %eax
	movq	144(%rsp), %r8                  # 8-byte Reload
	movq	136(%rsp), %rdi                 # 8-byte Reload
.Ltmp130:
	.p2align	4
.LBB0_40:                               # %.preheader.i
                                        #   Parent Loop BB0_18 Depth=1
                                        # =>  This Inner Loop Header: Depth=2
	#DEBUG_VALUE: escrypt_kdf_nosse:local <- [DW_OP_LLVM_entry_value 1] $rdi
	#DEBUG_VALUE: escrypt_kdf_nosse:passwd <- [DW_OP_LLVM_entry_value 1] $rsi
	#DEBUG_VALUE: escrypt_kdf_nosse:passwdlen <- [DW_OP_plus_uconst 64] [$rsp+0]
	#DEBUG_VALUE: escrypt_kdf_nosse:salt <- [DW_OP_LLVM_entry_value 1] $rcx
	#DEBUG_VALUE: escrypt_kdf_nosse:saltlen <- [DW_OP_LLVM_entry_value 1] $r8
	#DEBUG_VALUE: escrypt_kdf_nosse:N <- [DW_OP_plus_uconst 56] [$rsp+0]
	#DEBUG_VALUE: escrypt_kdf_nosse:_r <- [DW_OP_plus_uconst 240] [$rsp+0]
	#DEBUG_VALUE: escrypt_kdf_nosse:_p <- [DW_OP_plus_uconst 248] [$rsp+0]
	#DEBUG_VALUE: escrypt_kdf_nosse:buf <- [DW_OP_plus_uconst 256] [$rsp+0]
	#DEBUG_VALUE: escrypt_kdf_nosse:buflen <- [DW_OP_plus_uconst 264] [$rsp+0]
	#DEBUG_VALUE: escrypt_kdf_nosse:B_size <- [DW_OP_plus_uconst 48, DW_OP_deref] $rsp
	#DEBUG_VALUE: escrypt_kdf_nosse:B <- [DW_OP_plus_uconst 32, DW_OP_deref] $rsp
	#DEBUG_VALUE: escrypt_kdf_nosse:V <- [DW_OP_plus_uconst 104, DW_OP_deref] $rsp
	#DEBUG_VALUE: escrypt_kdf_nosse:XY <- [DW_OP_plus_uconst 96, DW_OP_deref] $rsp
	#DEBUG_VALUE: escrypt_kdf_nosse:i <- [DW_OP_plus_uconst 152, DW_OP_deref_size 8, DW_OP_stack_value] $rsp
	#DEBUG_VALUE: smix:B <- [DW_OP_LLVM_arg 0, DW_OP_plus_uconst 32, DW_OP_deref, DW_OP_LLVM_arg 1, DW_OP_plus_uconst 16, DW_OP_deref, DW_OP_LLVM_arg 2, DW_OP_plus_uconst 152, DW_OP_deref, DW_OP_mul, DW_OP_plus, DW_OP_stack_value] $rsp, $rsp, $rsp
	#DEBUG_VALUE: smix:N <- [DW_OP_plus_uconst 56, DW_OP_deref] $rsp
	#DEBUG_VALUE: smix:V <- [DW_OP_plus_uconst 104, DW_OP_deref] $rsp
	#DEBUG_VALUE: smix:XY <- [DW_OP_plus_uconst 96, DW_OP_deref] $rsp
	#DEBUG_VALUE: smix:X <- [DW_OP_plus_uconst 96, DW_OP_deref] $rsp
	#DEBUG_VALUE: smix:Y <- [DW_OP_plus_uconst 8, DW_OP_deref] $rsp
	#DEBUG_VALUE: smix:Z <- [DW_OP_plus_uconst 40, DW_OP_deref] $rsp
	#DEBUG_VALUE: smix:i <- $rbp
	#DEBUG_VALUE: smix:k <- $rax
	.loc	4 220 34 is_stmt 1              # crypto_pwhash/scryptsalsa208sha256/nosse/pwhash_scryptsalsa208sha256_nosse.c:220:34 @[ crypto_pwhash/scryptsalsa208sha256/nosse/pwhash_scryptsalsa208sha256_nosse.c:310:9 ]
	movl	-12(%r13,%rax,4), %ecx
.Ltmp131:
	#DEBUG_VALUE: store32_le:dst <- [DW_OP_LLVM_arg 0, DW_OP_plus_uconst 32, DW_OP_deref, DW_OP_LLVM_arg 2, DW_OP_plus_uconst 16, DW_OP_deref, DW_OP_LLVM_arg 3, DW_OP_plus_uconst 152, DW_OP_deref, DW_OP_mul, DW_OP_plus, DW_OP_LLVM_arg 1, DW_OP_constu 2, DW_OP_shl, DW_OP_plus, DW_OP_stack_value] $rsp, $rax, $rsp, $rsp
	#DEBUG_VALUE: store32_le:w <- undef
	#DEBUG_VALUE: memcpy:__dest <- [DW_OP_LLVM_arg 0, DW_OP_plus_uconst 32, DW_OP_deref, DW_OP_LLVM_arg 2, DW_OP_plus_uconst 16, DW_OP_deref, DW_OP_LLVM_arg 3, DW_OP_plus_uconst 152, DW_OP_deref, DW_OP_mul, DW_OP_plus, DW_OP_LLVM_arg 1, DW_OP_constu 2, DW_OP_shl, DW_OP_plus, DW_OP_stack_value] $rsp, $rax, $rsp, $rsp
	#DEBUG_VALUE: memcpy:__src <- undef
	#DEBUG_VALUE: memcpy:__len <- 4
	.loc	5 29 10                         # /usr/include/x86_64-linux-gnu/bits/string_fortified.h:29:10 @[ ./include/sodium/private/common.h:122:5 @[ crypto_pwhash/scryptsalsa208sha256/nosse/pwhash_scryptsalsa208sha256_nosse.c:220:9 @[ crypto_pwhash/scryptsalsa208sha256/nosse/pwhash_scryptsalsa208sha256_nosse.c:310:9 ] ] ]
	movl	%ecx, -12(%r8,%rax,4)
.Ltmp132:
	#DEBUG_VALUE: smix:k <- [DW_OP_constu 1, DW_OP_or, DW_OP_stack_value] $rax
	.loc	4 220 34                        # crypto_pwhash/scryptsalsa208sha256/nosse/pwhash_scryptsalsa208sha256_nosse.c:220:34 @[ crypto_pwhash/scryptsalsa208sha256/nosse/pwhash_scryptsalsa208sha256_nosse.c:310:9 ]
	movl	-8(%r13,%rax,4), %ecx
.Ltmp133:
	#DEBUG_VALUE: store32_le:dst <- [DW_OP_LLVM_arg 0, DW_OP_plus_uconst 32, DW_OP_deref, DW_OP_LLVM_arg 2, DW_OP_plus_uconst 16, DW_OP_deref, DW_OP_LLVM_arg 3, DW_OP_plus_uconst 152, DW_OP_deref, DW_OP_mul, DW_OP_plus, DW_OP_LLVM_arg 1, DW_OP_constu 1, DW_OP_or, DW_OP_constu 2, DW_OP_shl, DW_OP_plus, DW_OP_stack_value] $rsp, $rax, $rsp, $rsp
	#DEBUG_VALUE: memcpy:__dest <- [DW_OP_LLVM_arg 0, DW_OP_plus_uconst 32, DW_OP_deref, DW_OP_LLVM_arg 2, DW_OP_plus_uconst 16, DW_OP_deref, DW_OP_LLVM_arg 3, DW_OP_plus_uconst 152, DW_OP_deref, DW_OP_mul, DW_OP_plus, DW_OP_LLVM_arg 1, DW_OP_constu 1, DW_OP_or, DW_OP_constu 2, DW_OP_shl, DW_OP_plus, DW_OP_stack_value] $rsp, $rax, $rsp, $rsp
	.loc	5 29 10                         # /usr/include/x86_64-linux-gnu/bits/string_fortified.h:29:10 @[ ./include/sodium/private/common.h:122:5 @[ crypto_pwhash/scryptsalsa208sha256/nosse/pwhash_scryptsalsa208sha256_nosse.c:220:9 @[ crypto_pwhash/scryptsalsa208sha256/nosse/pwhash_scryptsalsa208sha256_nosse.c:310:9 ] ] ]
	movl	%ecx, -8(%r8,%rax,4)
.Ltmp134:
	#DEBUG_VALUE: smix:k <- [DW_OP_constu 2, DW_OP_or, DW_OP_stack_value] $rax
	.loc	4 220 34                        # crypto_pwhash/scryptsalsa208sha256/nosse/pwhash_scryptsalsa208sha256_nosse.c:220:34 @[ crypto_pwhash/scryptsalsa208sha256/nosse/pwhash_scryptsalsa208sha256_nosse.c:310:9 ]
	movl	-4(%r13,%rax,4), %ecx
.Ltmp135:
	#DEBUG_VALUE: store32_le:dst <- [DW_OP_LLVM_arg 0, DW_OP_plus_uconst 32, DW_OP_deref, DW_OP_LLVM_arg 2, DW_OP_plus_uconst 16, DW_OP_deref, DW_OP_LLVM_arg 3, DW_OP_plus_uconst 152, DW_OP_deref, DW_OP_mul, DW_OP_plus, DW_OP_LLVM_arg 1, DW_OP_constu 2, DW_OP_or, DW_OP_constu 2, DW_OP_shl, DW_OP_plus, DW_OP_stack_value] $rsp, $rax, $rsp, $rsp
	#DEBUG_VALUE: memcpy:__dest <- [DW_OP_LLVM_arg 0, DW_OP_plus_uconst 32, DW_OP_deref, DW_OP_LLVM_arg 2, DW_OP_plus_uconst 16, DW_OP_deref, DW_OP_LLVM_arg 3, DW_OP_plus_uconst 152, DW_OP_deref, DW_OP_mul, DW_OP_plus, DW_OP_LLVM_arg 1, DW_OP_constu 2, DW_OP_or, DW_OP_constu 2, DW_OP_shl, DW_OP_plus, DW_OP_stack_value] $rsp, $rax, $rsp, $rsp
	.loc	5 29 10                         # /usr/include/x86_64-linux-gnu/bits/string_fortified.h:29:10 @[ ./include/sodium/private/common.h:122:5 @[ crypto_pwhash/scryptsalsa208sha256/nosse/pwhash_scryptsalsa208sha256_nosse.c:220:9 @[ crypto_pwhash/scryptsalsa208sha256/nosse/pwhash_scryptsalsa208sha256_nosse.c:310:9 ] ] ]
	movl	%ecx, -4(%r8,%rax,4)
.Ltmp136:
	#DEBUG_VALUE: smix:k <- [DW_OP_constu 3, DW_OP_or, DW_OP_stack_value] $rax
	.loc	4 220 34                        # crypto_pwhash/scryptsalsa208sha256/nosse/pwhash_scryptsalsa208sha256_nosse.c:220:34 @[ crypto_pwhash/scryptsalsa208sha256/nosse/pwhash_scryptsalsa208sha256_nosse.c:310:9 ]
	movl	(%r13,%rax,4), %ecx
.Ltmp137:
	#DEBUG_VALUE: store32_le:dst <- [DW_OP_LLVM_arg 0, DW_OP_plus_uconst 32, DW_OP_deref, DW_OP_LLVM_arg 2, DW_OP_plus_uconst 16, DW_OP_deref, DW_OP_LLVM_arg 3, DW_OP_plus_uconst 152, DW_OP_deref, DW_OP_mul, DW_OP_plus, DW_OP_LLVM_arg 1, DW_OP_constu 3, DW_OP_or, DW_OP_constu 2, DW_OP_shl, DW_OP_plus, DW_OP_stack_value] $rsp, $rax, $rsp, $rsp
	#DEBUG_VALUE: memcpy:__dest <- [DW_OP_LLVM_arg 0, DW_OP_plus_uconst 32, DW_OP_deref, DW_OP_LLVM_arg 2, DW_OP_plus_uconst 16, DW_OP_deref, DW_OP_LLVM_arg 3, DW_OP_plus_uconst 152, DW_OP_deref, DW_OP_mul, DW_OP_plus, DW_OP_LLVM_arg 1, DW_OP_constu 3, DW_OP_or, DW_OP_constu 2, DW_OP_shl, DW_OP_plus, DW_OP_stack_value] $rsp, $rax, $rsp, $rsp
	.loc	5 29 10                         # /usr/include/x86_64-linux-gnu/bits/string_fortified.h:29:10 @[ ./include/sodium/private/common.h:122:5 @[ crypto_pwhash/scryptsalsa208sha256/nosse/pwhash_scryptsalsa208sha256_nosse.c:220:9 @[ crypto_pwhash/scryptsalsa208sha256/nosse/pwhash_scryptsalsa208sha256_nosse.c:310:9 ] ] ]
	movl	%ecx, (%r8,%rax,4)
.Ltmp138:
	.loc	4 219 30                        # crypto_pwhash/scryptsalsa208sha256/nosse/pwhash_scryptsalsa208sha256_nosse.c:219:30 @[ crypto_pwhash/scryptsalsa208sha256/nosse/pwhash_scryptsalsa208sha256_nosse.c:310:9 ]
	addq	$4, %rax
.Ltmp139:
	#DEBUG_VALUE: smix:k <- $rax
	.loc	4 219 19 is_stmt 0              # crypto_pwhash/scryptsalsa208sha256/nosse/pwhash_scryptsalsa208sha256_nosse.c:219:19 @[ crypto_pwhash/scryptsalsa208sha256/nosse/pwhash_scryptsalsa208sha256_nosse.c:310:9 ]
	cmpq	%rax, %r14
.Ltmp140:
	.loc	4 219 5                         # crypto_pwhash/scryptsalsa208sha256/nosse/pwhash_scryptsalsa208sha256_nosse.c:219:5 @[ crypto_pwhash/scryptsalsa208sha256/nosse/pwhash_scryptsalsa208sha256_nosse.c:310:9 ]
	jne	.LBB0_40
.Ltmp141:
# %bb.41:                               # %smix.exit
                                        #   in Loop: Header=BB0_18 Depth=1
	#DEBUG_VALUE: escrypt_kdf_nosse:local <- [DW_OP_LLVM_entry_value 1] $rdi
	#DEBUG_VALUE: escrypt_kdf_nosse:passwd <- [DW_OP_LLVM_entry_value 1] $rsi
	#DEBUG_VALUE: escrypt_kdf_nosse:passwdlen <- [DW_OP_plus_uconst 64] [$rsp+0]
	#DEBUG_VALUE: escrypt_kdf_nosse:salt <- [DW_OP_LLVM_entry_value 1] $rcx
	#DEBUG_VALUE: escrypt_kdf_nosse:saltlen <- [DW_OP_LLVM_entry_value 1] $r8
	#DEBUG_VALUE: escrypt_kdf_nosse:N <- [DW_OP_plus_uconst 56] [$rsp+0]
	#DEBUG_VALUE: escrypt_kdf_nosse:_r <- [DW_OP_plus_uconst 240] [$rsp+0]
	#DEBUG_VALUE: escrypt_kdf_nosse:_p <- [DW_OP_plus_uconst 248] [$rsp+0]
	#DEBUG_VALUE: escrypt_kdf_nosse:buf <- [DW_OP_plus_uconst 256] [$rsp+0]
	#DEBUG_VALUE: escrypt_kdf_nosse:buflen <- [DW_OP_plus_uconst 264] [$rsp+0]
	#DEBUG_VALUE: escrypt_kdf_nosse:B_size <- [DW_OP_plus_uconst 48, DW_OP_deref] $rsp
	#DEBUG_VALUE: escrypt_kdf_nosse:B <- [DW_OP_plus_uconst 32, DW_OP_deref] $rsp
	#DEBUG_VALUE: escrypt_kdf_nosse:V <- [DW_OP_plus_uconst 104, DW_OP_deref] $rsp
	#DEBUG_VALUE: escrypt_kdf_nosse:XY <- [DW_OP_plus_uconst 96, DW_OP_deref] $rsp
	#DEBUG_VALUE: escrypt_kdf_nosse:i <- [DW_OP_plus_uconst 152, DW_OP_deref_size 8, DW_OP_stack_value] $rsp
	.loc	4 0 5                           # crypto_pwhash/scryptsalsa208sha256/nosse/pwhash_scryptsalsa208sha256_nosse.c:0:5
	movq	152(%rsp), %rcx                 # 8-byte Reload
	.loc	4 308 25 is_stmt 1              # crypto_pwhash/scryptsalsa208sha256/nosse/pwhash_scryptsalsa208sha256_nosse.c:308:25
	incq	%rcx
.Ltmp142:
	#DEBUG_VALUE: escrypt_kdf_nosse:i <- $rcx
	.loc	4 0 25 is_stmt 0                # crypto_pwhash/scryptsalsa208sha256/nosse/pwhash_scryptsalsa208sha256_nosse.c:0:25
	movq	16(%rsp), %rsi                  # 8-byte Reload
.Ltmp143:
	.loc	4 308 5                         # crypto_pwhash/scryptsalsa208sha256/nosse/pwhash_scryptsalsa208sha256_nosse.c:308:5
	addq	%rsi, %rdi
	addq	%rsi, %r8
.Ltmp144:
	.loc	4 308 19                        # crypto_pwhash/scryptsalsa208sha256/nosse/pwhash_scryptsalsa208sha256_nosse.c:308:19
	movl	248(%rsp), %eax
	cmpq	%rax, %rcx
.Ltmp145:
	.loc	4 308 5                         # crypto_pwhash/scryptsalsa208sha256/nosse/pwhash_scryptsalsa208sha256_nosse.c:308:5
	jne	.LBB0_18
.Ltmp146:
# %bb.42:                               # %._crit_edge
	#DEBUG_VALUE: escrypt_kdf_nosse:local <- [DW_OP_LLVM_entry_value 1] $rdi
	#DEBUG_VALUE: escrypt_kdf_nosse:passwd <- [DW_OP_LLVM_entry_value 1] $rsi
	#DEBUG_VALUE: escrypt_kdf_nosse:passwdlen <- [DW_OP_plus_uconst 64] [$rsp+0]
	#DEBUG_VALUE: escrypt_kdf_nosse:salt <- [DW_OP_LLVM_entry_value 1] $rcx
	#DEBUG_VALUE: escrypt_kdf_nosse:saltlen <- [DW_OP_LLVM_entry_value 1] $r8
	#DEBUG_VALUE: escrypt_kdf_nosse:N <- [DW_OP_plus_uconst 56] [$rsp+0]
	#DEBUG_VALUE: escrypt_kdf_nosse:_r <- [DW_OP_plus_uconst 240] [$rsp+0]
	#DEBUG_VALUE: escrypt_kdf_nosse:_p <- [DW_OP_plus_uconst 248] [$rsp+0]
	#DEBUG_VALUE: escrypt_kdf_nosse:buf <- [DW_OP_plus_uconst 256] [$rsp+0]
	#DEBUG_VALUE: escrypt_kdf_nosse:buflen <- [DW_OP_plus_uconst 264] [$rsp+0]
	#DEBUG_VALUE: escrypt_kdf_nosse:B_size <- [DW_OP_plus_uconst 48, DW_OP_deref] $rsp
	#DEBUG_VALUE: escrypt_kdf_nosse:B <- [DW_OP_plus_uconst 32, DW_OP_deref] $rsp
	#DEBUG_VALUE: escrypt_kdf_nosse:V <- [DW_OP_plus_uconst 104, DW_OP_deref] $rsp
	#DEBUG_VALUE: escrypt_kdf_nosse:XY <- [DW_OP_plus_uconst 96, DW_OP_deref] $rsp
	#DEBUG_VALUE: escrypt_kdf_nosse:i <- $rcx
	.loc	4 314 5 is_stmt 1               # crypto_pwhash/scryptsalsa208sha256/nosse/pwhash_scryptsalsa208sha256_nosse.c:314:5
	movq	264(%rsp), %rax
	movq	%rax, (%rsp)
	movl	$1, %r8d
	movq	120(%rsp), %rdi                 # 8-byte Reload
	movq	64(%rsp), %rsi                  # 8-byte Reload
	movq	32(%rsp), %rdx                  # 8-byte Reload
	movq	48(%rsp), %rcx                  # 8-byte Reload
.Ltmp147:
	movq	256(%rsp), %r9
	callq	escrypt_PBKDF2_SHA256@PLT
.Ltmp148:
	.loc	4 0 5 is_stmt 0                 # crypto_pwhash/scryptsalsa208sha256/nosse/pwhash_scryptsalsa208sha256_nosse.c:0:5
	xorl	%eax, %eax
	jmp	.LBB0_5
.Ltmp149:
.LBB0_43:
	#DEBUG_VALUE: escrypt_kdf_nosse:local <- $rdi
	#DEBUG_VALUE: escrypt_kdf_nosse:passwd <- $rsi
	#DEBUG_VALUE: escrypt_kdf_nosse:passwdlen <- [DW_OP_plus_uconst 64] [$rsp+0]
	#DEBUG_VALUE: escrypt_kdf_nosse:salt <- $rcx
	#DEBUG_VALUE: escrypt_kdf_nosse:saltlen <- $r8
	#DEBUG_VALUE: escrypt_kdf_nosse:N <- $r9
	#DEBUG_VALUE: escrypt_kdf_nosse:_r <- [DW_OP_plus_uconst 240] [$rsp+0]
	#DEBUG_VALUE: escrypt_kdf_nosse:_p <- [DW_OP_plus_uconst 248] [$rsp+0]
	#DEBUG_VALUE: escrypt_kdf_nosse:buf <- [DW_OP_plus_uconst 256] [$rsp+0]
	#DEBUG_VALUE: escrypt_kdf_nosse:buflen <- [DW_OP_plus_uconst 264] [$rsp+0]
	#DEBUG_VALUE: escrypt_kdf_nosse:r <- $r11d
	#DEBUG_VALUE: escrypt_kdf_nosse:p <- $ebp
	callq	__errno_location@PLT
.Ltmp150:
	#DEBUG_VALUE: escrypt_kdf_nosse:N <- [DW_OP_LLVM_entry_value 1] $r9
	#DEBUG_VALUE: escrypt_kdf_nosse:saltlen <- [DW_OP_LLVM_entry_value 1] $r8
	#DEBUG_VALUE: escrypt_kdf_nosse:salt <- [DW_OP_LLVM_entry_value 1] $rcx
	#DEBUG_VALUE: escrypt_kdf_nosse:passwd <- [DW_OP_LLVM_entry_value 1] $rsi
	#DEBUG_VALUE: escrypt_kdf_nosse:local <- [DW_OP_LLVM_entry_value 1] $rdi
	movl	$12, (%rax)
	jmp	.LBB0_4
.Ltmp151:
.Lfunc_end0:
	.size	escrypt_kdf_nosse, .Lfunc_end0-escrypt_kdf_nosse
	.cfi_endproc
	.file	6 "./include/sodium/private" "common.h"
	.file	7 "/usr/include" "errno.h"
	.file	8 "crypto_pwhash/scryptsalsa208sha256/nosse/.." "crypto_scrypt.h"
	.file	9 "crypto_pwhash/scryptsalsa208sha256/nosse/.." "pbkdf2-sha256.h"
                                        # -- End function
	.p2align	4                               # -- Begin function blockmix_salsa8
	.type	blockmix_salsa8,@function
blockmix_salsa8:                        # @blockmix_salsa8
.Lfunc_begin1:
	.loc	4 127 0 is_stmt 1               # crypto_pwhash/scryptsalsa208sha256/nosse/pwhash_scryptsalsa208sha256_nosse.c:127:0
	.cfi_startproc
# %bb.0:
	#DEBUG_VALUE: blockmix_salsa8:Bin <- $rdi
	#DEBUG_VALUE: blockmix_salsa8:Bout <- $rsi
	#DEBUG_VALUE: blockmix_salsa8:X <- $rdx
	#DEBUG_VALUE: blockmix_salsa8:r <- $rcx
	pushq	%rbp
	.cfi_def_cfa_offset 16
	pushq	%r15
	.cfi_def_cfa_offset 24
	pushq	%r14
	.cfi_def_cfa_offset 32
	pushq	%r13
	.cfi_def_cfa_offset 40
	pushq	%r12
	.cfi_def_cfa_offset 48
	pushq	%rbx
	.cfi_def_cfa_offset 56
	pushq	%rax
	.cfi_def_cfa_offset 64
	.cfi_offset %rbx, -56
	.cfi_offset %r12, -48
	.cfi_offset %r13, -40
	.cfi_offset %r14, -32
	.cfi_offset %r15, -24
	.cfi_offset %rbp, -16
	movq	%rcx, %rbx
	movq	%rdx, %r14
	movq	%rsi, %r15
	movq	%rdi, %r12
.Ltmp152:
	.loc	4 131 23 prologue_end           # crypto_pwhash/scryptsalsa208sha256/nosse/pwhash_scryptsalsa208sha256_nosse.c:131:23
	leaq	(%rcx,%rcx), %r13
	.loc	4 131 16 is_stmt 0              # crypto_pwhash/scryptsalsa208sha256/nosse/pwhash_scryptsalsa208sha256_nosse.c:131:16
	movq	%rcx, %rax
	shlq	$7, %rax
.Ltmp153:
	#DEBUG_VALUE: blkcpy:dest <- $r14
	#DEBUG_VALUE: blkcpy:len <- 1
	#DEBUG_VALUE: memcpy:__dest <- $r14
	#DEBUG_VALUE: memcpy:__len <- 64
	#DEBUG_VALUE: blkcpy:src <- [DW_OP_LLVM_arg 0, DW_OP_LLVM_arg 1, DW_OP_plus, DW_OP_constu 64, DW_OP_minus, DW_OP_stack_value] $r12, $rax
	#DEBUG_VALUE: memcpy:__src <- [DW_OP_LLVM_arg 0, DW_OP_LLVM_arg 1, DW_OP_plus, DW_OP_constu 64, DW_OP_minus, DW_OP_stack_value] $r12, $rax
	.loc	5 29 10 is_stmt 1               # /usr/include/x86_64-linux-gnu/bits/string_fortified.h:29:10 @[ crypto_pwhash/scryptsalsa208sha256/nosse/pwhash_scryptsalsa208sha256_nosse.c:44:5 @[ crypto_pwhash/scryptsalsa208sha256/nosse/pwhash_scryptsalsa208sha256_nosse.c:131:5 ] ]
	movups	-64(%rdi,%rax), %xmm0
	movups	-48(%rdi,%rax), %xmm1
	movups	-32(%rdi,%rax), %xmm2
	movups	-16(%rdi,%rax), %xmm3
	movups	%xmm3, 48(%rdx)
	movups	%xmm2, 32(%rdx)
	movups	%xmm1, 16(%rdx)
	movups	%xmm0, (%rdx)
.Ltmp154:
	#DEBUG_VALUE: blockmix_salsa8:i <- 0
	.loc	5 0 10 is_stmt 0                # /usr/include/x86_64-linux-gnu/bits/string_fortified.h:0:10
	shlq	$6, %rbx
.Ltmp155:
	.loc	4 134 5 is_stmt 1               # crypto_pwhash/scryptsalsa208sha256/nosse/pwhash_scryptsalsa208sha256_nosse.c:134:5
	addq	$124, %r12
.Ltmp156:
	#DEBUG_VALUE: memcpy:__src <- [DW_OP_LLVM_arg 0, DW_OP_LLVM_arg 1, DW_OP_plus, DW_OP_constu 64, DW_OP_minus, DW_OP_stack_value] $rdi, $rax
	#DEBUG_VALUE: blkcpy:src <- [DW_OP_LLVM_arg 0, DW_OP_LLVM_arg 1, DW_OP_plus, DW_OP_constu 64, DW_OP_minus, DW_OP_stack_value] $rdi, $rax
	.loc	4 0 5 is_stmt 0                 # crypto_pwhash/scryptsalsa208sha256/nosse/pwhash_scryptsalsa208sha256_nosse.c:0:5
	xorl	%ebp, %ebp
.Ltmp157:
	.p2align	4
.LBB1_1:                                # %blkxor.exit
                                        # =>This Inner Loop Header: Depth=1
	#DEBUG_VALUE: blockmix_salsa8:Bin <- [DW_OP_LLVM_entry_value 1] $rdi
	#DEBUG_VALUE: blockmix_salsa8:Bout <- [DW_OP_LLVM_entry_value 1] $rsi
	#DEBUG_VALUE: blockmix_salsa8:X <- $r14
	#DEBUG_VALUE: blockmix_salsa8:r <- [DW_OP_LLVM_entry_value 1] $rcx
	#DEBUG_VALUE: blockmix_salsa8:i <- $rbp
	#DEBUG_VALUE: blkxor:dest <- $r14
	#DEBUG_VALUE: blkxor:src <- [DW_OP_LLVM_arg 0, DW_OP_LLVM_arg 1, DW_OP_constu 6, DW_OP_shl, DW_OP_plus, DW_OP_stack_value] undef, undef
	#DEBUG_VALUE: blkxor:len <- 1
	#DEBUG_VALUE: blkxor:i <- 0
	.loc	4 53 20 is_stmt 1               # crypto_pwhash/scryptsalsa208sha256/nosse/pwhash_scryptsalsa208sha256_nosse.c:53:20 @[ crypto_pwhash/scryptsalsa208sha256/nosse/pwhash_scryptsalsa208sha256_nosse.c:136:9 ]
	movl	-124(%r12), %eax
	.loc	4 53 17 is_stmt 0               # crypto_pwhash/scryptsalsa208sha256/nosse/pwhash_scryptsalsa208sha256_nosse.c:53:17 @[ crypto_pwhash/scryptsalsa208sha256/nosse/pwhash_scryptsalsa208sha256_nosse.c:136:9 ]
	xorl	%eax, (%r14)
.Ltmp158:
	#DEBUG_VALUE: blkxor:i <- 1
	.loc	4 53 20                         # crypto_pwhash/scryptsalsa208sha256/nosse/pwhash_scryptsalsa208sha256_nosse.c:53:20 @[ crypto_pwhash/scryptsalsa208sha256/nosse/pwhash_scryptsalsa208sha256_nosse.c:136:9 ]
	movl	-120(%r12), %eax
	.loc	4 53 17                         # crypto_pwhash/scryptsalsa208sha256/nosse/pwhash_scryptsalsa208sha256_nosse.c:53:17 @[ crypto_pwhash/scryptsalsa208sha256/nosse/pwhash_scryptsalsa208sha256_nosse.c:136:9 ]
	xorl	%eax, 4(%r14)
.Ltmp159:
	#DEBUG_VALUE: blkxor:i <- 2
	.loc	4 53 20                         # crypto_pwhash/scryptsalsa208sha256/nosse/pwhash_scryptsalsa208sha256_nosse.c:53:20 @[ crypto_pwhash/scryptsalsa208sha256/nosse/pwhash_scryptsalsa208sha256_nosse.c:136:9 ]
	movl	-116(%r12), %eax
	.loc	4 53 17                         # crypto_pwhash/scryptsalsa208sha256/nosse/pwhash_scryptsalsa208sha256_nosse.c:53:17 @[ crypto_pwhash/scryptsalsa208sha256/nosse/pwhash_scryptsalsa208sha256_nosse.c:136:9 ]
	xorl	%eax, 8(%r14)
.Ltmp160:
	#DEBUG_VALUE: blkxor:i <- 3
	.loc	4 53 20                         # crypto_pwhash/scryptsalsa208sha256/nosse/pwhash_scryptsalsa208sha256_nosse.c:53:20 @[ crypto_pwhash/scryptsalsa208sha256/nosse/pwhash_scryptsalsa208sha256_nosse.c:136:9 ]
	movl	-112(%r12), %eax
	.loc	4 53 17                         # crypto_pwhash/scryptsalsa208sha256/nosse/pwhash_scryptsalsa208sha256_nosse.c:53:17 @[ crypto_pwhash/scryptsalsa208sha256/nosse/pwhash_scryptsalsa208sha256_nosse.c:136:9 ]
	xorl	%eax, 12(%r14)
.Ltmp161:
	#DEBUG_VALUE: blkxor:i <- 4
	.loc	4 53 20                         # crypto_pwhash/scryptsalsa208sha256/nosse/pwhash_scryptsalsa208sha256_nosse.c:53:20 @[ crypto_pwhash/scryptsalsa208sha256/nosse/pwhash_scryptsalsa208sha256_nosse.c:136:9 ]
	movl	-108(%r12), %eax
	.loc	4 53 17                         # crypto_pwhash/scryptsalsa208sha256/nosse/pwhash_scryptsalsa208sha256_nosse.c:53:17 @[ crypto_pwhash/scryptsalsa208sha256/nosse/pwhash_scryptsalsa208sha256_nosse.c:136:9 ]
	xorl	%eax, 16(%r14)
.Ltmp162:
	#DEBUG_VALUE: blkxor:i <- 5
	.loc	4 53 20                         # crypto_pwhash/scryptsalsa208sha256/nosse/pwhash_scryptsalsa208sha256_nosse.c:53:20 @[ crypto_pwhash/scryptsalsa208sha256/nosse/pwhash_scryptsalsa208sha256_nosse.c:136:9 ]
	movl	-104(%r12), %eax
	.loc	4 53 17                         # crypto_pwhash/scryptsalsa208sha256/nosse/pwhash_scryptsalsa208sha256_nosse.c:53:17 @[ crypto_pwhash/scryptsalsa208sha256/nosse/pwhash_scryptsalsa208sha256_nosse.c:136:9 ]
	xorl	%eax, 20(%r14)
.Ltmp163:
	#DEBUG_VALUE: blkxor:i <- 6
	.loc	4 53 20                         # crypto_pwhash/scryptsalsa208sha256/nosse/pwhash_scryptsalsa208sha256_nosse.c:53:20 @[ crypto_pwhash/scryptsalsa208sha256/nosse/pwhash_scryptsalsa208sha256_nosse.c:136:9 ]
	movl	-100(%r12), %eax
	.loc	4 53 17                         # crypto_pwhash/scryptsalsa208sha256/nosse/pwhash_scryptsalsa208sha256_nosse.c:53:17 @[ crypto_pwhash/scryptsalsa208sha256/nosse/pwhash_scryptsalsa208sha256_nosse.c:136:9 ]
	xorl	%eax, 24(%r14)
.Ltmp164:
	#DEBUG_VALUE: blkxor:i <- 7
	.loc	4 53 20                         # crypto_pwhash/scryptsalsa208sha256/nosse/pwhash_scryptsalsa208sha256_nosse.c:53:20 @[ crypto_pwhash/scryptsalsa208sha256/nosse/pwhash_scryptsalsa208sha256_nosse.c:136:9 ]
	movl	-96(%r12), %eax
	.loc	4 53 17                         # crypto_pwhash/scryptsalsa208sha256/nosse/pwhash_scryptsalsa208sha256_nosse.c:53:17 @[ crypto_pwhash/scryptsalsa208sha256/nosse/pwhash_scryptsalsa208sha256_nosse.c:136:9 ]
	xorl	%eax, 28(%r14)
.Ltmp165:
	#DEBUG_VALUE: blkxor:i <- 8
	.loc	4 53 20                         # crypto_pwhash/scryptsalsa208sha256/nosse/pwhash_scryptsalsa208sha256_nosse.c:53:20 @[ crypto_pwhash/scryptsalsa208sha256/nosse/pwhash_scryptsalsa208sha256_nosse.c:136:9 ]
	movl	-92(%r12), %eax
	.loc	4 53 17                         # crypto_pwhash/scryptsalsa208sha256/nosse/pwhash_scryptsalsa208sha256_nosse.c:53:17 @[ crypto_pwhash/scryptsalsa208sha256/nosse/pwhash_scryptsalsa208sha256_nosse.c:136:9 ]
	xorl	%eax, 32(%r14)
.Ltmp166:
	#DEBUG_VALUE: blkxor:i <- 9
	.loc	4 53 20                         # crypto_pwhash/scryptsalsa208sha256/nosse/pwhash_scryptsalsa208sha256_nosse.c:53:20 @[ crypto_pwhash/scryptsalsa208sha256/nosse/pwhash_scryptsalsa208sha256_nosse.c:136:9 ]
	movl	-88(%r12), %eax
	.loc	4 53 17                         # crypto_pwhash/scryptsalsa208sha256/nosse/pwhash_scryptsalsa208sha256_nosse.c:53:17 @[ crypto_pwhash/scryptsalsa208sha256/nosse/pwhash_scryptsalsa208sha256_nosse.c:136:9 ]
	xorl	%eax, 36(%r14)
.Ltmp167:
	#DEBUG_VALUE: blkxor:i <- 10
	.loc	4 53 20                         # crypto_pwhash/scryptsalsa208sha256/nosse/pwhash_scryptsalsa208sha256_nosse.c:53:20 @[ crypto_pwhash/scryptsalsa208sha256/nosse/pwhash_scryptsalsa208sha256_nosse.c:136:9 ]
	movl	-84(%r12), %eax
	.loc	4 53 17                         # crypto_pwhash/scryptsalsa208sha256/nosse/pwhash_scryptsalsa208sha256_nosse.c:53:17 @[ crypto_pwhash/scryptsalsa208sha256/nosse/pwhash_scryptsalsa208sha256_nosse.c:136:9 ]
	xorl	%eax, 40(%r14)
.Ltmp168:
	#DEBUG_VALUE: blkxor:i <- 11
	.loc	4 53 20                         # crypto_pwhash/scryptsalsa208sha256/nosse/pwhash_scryptsalsa208sha256_nosse.c:53:20 @[ crypto_pwhash/scryptsalsa208sha256/nosse/pwhash_scryptsalsa208sha256_nosse.c:136:9 ]
	movl	-80(%r12), %eax
	.loc	4 53 17                         # crypto_pwhash/scryptsalsa208sha256/nosse/pwhash_scryptsalsa208sha256_nosse.c:53:17 @[ crypto_pwhash/scryptsalsa208sha256/nosse/pwhash_scryptsalsa208sha256_nosse.c:136:9 ]
	xorl	%eax, 44(%r14)
.Ltmp169:
	#DEBUG_VALUE: blkxor:i <- 12
	.loc	4 53 20                         # crypto_pwhash/scryptsalsa208sha256/nosse/pwhash_scryptsalsa208sha256_nosse.c:53:20 @[ crypto_pwhash/scryptsalsa208sha256/nosse/pwhash_scryptsalsa208sha256_nosse.c:136:9 ]
	movl	-76(%r12), %eax
	.loc	4 53 17                         # crypto_pwhash/scryptsalsa208sha256/nosse/pwhash_scryptsalsa208sha256_nosse.c:53:17 @[ crypto_pwhash/scryptsalsa208sha256/nosse/pwhash_scryptsalsa208sha256_nosse.c:136:9 ]
	xorl	%eax, 48(%r14)
.Ltmp170:
	#DEBUG_VALUE: blkxor:i <- 13
	.loc	4 53 20                         # crypto_pwhash/scryptsalsa208sha256/nosse/pwhash_scryptsalsa208sha256_nosse.c:53:20 @[ crypto_pwhash/scryptsalsa208sha256/nosse/pwhash_scryptsalsa208sha256_nosse.c:136:9 ]
	movl	-72(%r12), %eax
	.loc	4 53 17                         # crypto_pwhash/scryptsalsa208sha256/nosse/pwhash_scryptsalsa208sha256_nosse.c:53:17 @[ crypto_pwhash/scryptsalsa208sha256/nosse/pwhash_scryptsalsa208sha256_nosse.c:136:9 ]
	xorl	%eax, 52(%r14)
.Ltmp171:
	#DEBUG_VALUE: blkxor:i <- 14
	.loc	4 53 20                         # crypto_pwhash/scryptsalsa208sha256/nosse/pwhash_scryptsalsa208sha256_nosse.c:53:20 @[ crypto_pwhash/scryptsalsa208sha256/nosse/pwhash_scryptsalsa208sha256_nosse.c:136:9 ]
	movl	-68(%r12), %eax
	.loc	4 53 17                         # crypto_pwhash/scryptsalsa208sha256/nosse/pwhash_scryptsalsa208sha256_nosse.c:53:17 @[ crypto_pwhash/scryptsalsa208sha256/nosse/pwhash_scryptsalsa208sha256_nosse.c:136:9 ]
	xorl	%eax, 56(%r14)
.Ltmp172:
	#DEBUG_VALUE: blkxor:i <- 15
	.loc	4 53 20                         # crypto_pwhash/scryptsalsa208sha256/nosse/pwhash_scryptsalsa208sha256_nosse.c:53:20 @[ crypto_pwhash/scryptsalsa208sha256/nosse/pwhash_scryptsalsa208sha256_nosse.c:136:9 ]
	movl	-64(%r12), %eax
	.loc	4 53 17                         # crypto_pwhash/scryptsalsa208sha256/nosse/pwhash_scryptsalsa208sha256_nosse.c:53:17 @[ crypto_pwhash/scryptsalsa208sha256/nosse/pwhash_scryptsalsa208sha256_nosse.c:136:9 ]
	xorl	%eax, 60(%r14)
.Ltmp173:
	#DEBUG_VALUE: blkxor:i <- 16
	.loc	4 137 9 is_stmt 1               # crypto_pwhash/scryptsalsa208sha256/nosse/pwhash_scryptsalsa208sha256_nosse.c:137:9
	movq	%r14, %rdi
	callq	salsa20_8
.Ltmp174:
	#DEBUG_VALUE: blkcpy:dest <- [DW_OP_LLVM_arg 0, DW_OP_LLVM_arg 1, DW_OP_constu 5, DW_OP_shl, DW_OP_plus, DW_OP_stack_value] undef, undef
	#DEBUG_VALUE: blkcpy:src <- $r14
	#DEBUG_VALUE: blkcpy:len <- 1
	#DEBUG_VALUE: memcpy:__dest <- [DW_OP_LLVM_arg 0, DW_OP_LLVM_arg 1, DW_OP_constu 5, DW_OP_shl, DW_OP_plus, DW_OP_stack_value] undef, undef
	#DEBUG_VALUE: memcpy:__src <- $r14
	#DEBUG_VALUE: memcpy:__len <- 64
	.loc	5 29 10                         # /usr/include/x86_64-linux-gnu/bits/string_fortified.h:29:10 @[ crypto_pwhash/scryptsalsa208sha256/nosse/pwhash_scryptsalsa208sha256_nosse.c:44:5 @[ crypto_pwhash/scryptsalsa208sha256/nosse/pwhash_scryptsalsa208sha256_nosse.c:141:9 ] ]
	movups	(%r14), %xmm0
	movups	16(%r14), %xmm1
	movups	32(%r14), %xmm2
	movups	48(%r14), %xmm3
	movups	%xmm3, 48(%r15)
	movups	%xmm2, 32(%r15)
	movups	%xmm1, 16(%r15)
	movups	%xmm0, (%r15)
.Ltmp175:
	#DEBUG_VALUE: blkxor:dest <- $r14
	#DEBUG_VALUE: blkxor:src <- [DW_OP_LLVM_arg 0, DW_OP_LLVM_arg 1, DW_OP_constu 6, DW_OP_shl, DW_OP_plus, DW_OP_plus_uconst 64, DW_OP_stack_value] undef, undef
	#DEBUG_VALUE: blkxor:len <- 1
	#DEBUG_VALUE: blkxor:i <- 0
	.loc	4 53 20                         # crypto_pwhash/scryptsalsa208sha256/nosse/pwhash_scryptsalsa208sha256_nosse.c:53:20 @[ crypto_pwhash/scryptsalsa208sha256/nosse/pwhash_scryptsalsa208sha256_nosse.c:144:9 ]
	movl	-60(%r12), %eax
	.loc	4 53 17 is_stmt 0               # crypto_pwhash/scryptsalsa208sha256/nosse/pwhash_scryptsalsa208sha256_nosse.c:53:17 @[ crypto_pwhash/scryptsalsa208sha256/nosse/pwhash_scryptsalsa208sha256_nosse.c:144:9 ]
	xorl	%eax, (%r14)
.Ltmp176:
	#DEBUG_VALUE: blkxor:i <- 1
	.loc	4 53 20                         # crypto_pwhash/scryptsalsa208sha256/nosse/pwhash_scryptsalsa208sha256_nosse.c:53:20 @[ crypto_pwhash/scryptsalsa208sha256/nosse/pwhash_scryptsalsa208sha256_nosse.c:144:9 ]
	movl	-56(%r12), %eax
	.loc	4 53 17                         # crypto_pwhash/scryptsalsa208sha256/nosse/pwhash_scryptsalsa208sha256_nosse.c:53:17 @[ crypto_pwhash/scryptsalsa208sha256/nosse/pwhash_scryptsalsa208sha256_nosse.c:144:9 ]
	xorl	%eax, 4(%r14)
.Ltmp177:
	#DEBUG_VALUE: blkxor:i <- 2
	.loc	4 53 20                         # crypto_pwhash/scryptsalsa208sha256/nosse/pwhash_scryptsalsa208sha256_nosse.c:53:20 @[ crypto_pwhash/scryptsalsa208sha256/nosse/pwhash_scryptsalsa208sha256_nosse.c:144:9 ]
	movl	-52(%r12), %eax
	.loc	4 53 17                         # crypto_pwhash/scryptsalsa208sha256/nosse/pwhash_scryptsalsa208sha256_nosse.c:53:17 @[ crypto_pwhash/scryptsalsa208sha256/nosse/pwhash_scryptsalsa208sha256_nosse.c:144:9 ]
	xorl	%eax, 8(%r14)
.Ltmp178:
	#DEBUG_VALUE: blkxor:i <- 3
	.loc	4 53 20                         # crypto_pwhash/scryptsalsa208sha256/nosse/pwhash_scryptsalsa208sha256_nosse.c:53:20 @[ crypto_pwhash/scryptsalsa208sha256/nosse/pwhash_scryptsalsa208sha256_nosse.c:144:9 ]
	movl	-48(%r12), %eax
	.loc	4 53 17                         # crypto_pwhash/scryptsalsa208sha256/nosse/pwhash_scryptsalsa208sha256_nosse.c:53:17 @[ crypto_pwhash/scryptsalsa208sha256/nosse/pwhash_scryptsalsa208sha256_nosse.c:144:9 ]
	xorl	%eax, 12(%r14)
.Ltmp179:
	#DEBUG_VALUE: blkxor:i <- 4
	.loc	4 53 20                         # crypto_pwhash/scryptsalsa208sha256/nosse/pwhash_scryptsalsa208sha256_nosse.c:53:20 @[ crypto_pwhash/scryptsalsa208sha256/nosse/pwhash_scryptsalsa208sha256_nosse.c:144:9 ]
	movl	-44(%r12), %eax
	.loc	4 53 17                         # crypto_pwhash/scryptsalsa208sha256/nosse/pwhash_scryptsalsa208sha256_nosse.c:53:17 @[ crypto_pwhash/scryptsalsa208sha256/nosse/pwhash_scryptsalsa208sha256_nosse.c:144:9 ]
	xorl	%eax, 16(%r14)
.Ltmp180:
	#DEBUG_VALUE: blkxor:i <- 5
	.loc	4 53 20                         # crypto_pwhash/scryptsalsa208sha256/nosse/pwhash_scryptsalsa208sha256_nosse.c:53:20 @[ crypto_pwhash/scryptsalsa208sha256/nosse/pwhash_scryptsalsa208sha256_nosse.c:144:9 ]
	movl	-40(%r12), %eax
	.loc	4 53 17                         # crypto_pwhash/scryptsalsa208sha256/nosse/pwhash_scryptsalsa208sha256_nosse.c:53:17 @[ crypto_pwhash/scryptsalsa208sha256/nosse/pwhash_scryptsalsa208sha256_nosse.c:144:9 ]
	xorl	%eax, 20(%r14)
.Ltmp181:
	#DEBUG_VALUE: blkxor:i <- 6
	.loc	4 53 20                         # crypto_pwhash/scryptsalsa208sha256/nosse/pwhash_scryptsalsa208sha256_nosse.c:53:20 @[ crypto_pwhash/scryptsalsa208sha256/nosse/pwhash_scryptsalsa208sha256_nosse.c:144:9 ]
	movl	-36(%r12), %eax
	.loc	4 53 17                         # crypto_pwhash/scryptsalsa208sha256/nosse/pwhash_scryptsalsa208sha256_nosse.c:53:17 @[ crypto_pwhash/scryptsalsa208sha256/nosse/pwhash_scryptsalsa208sha256_nosse.c:144:9 ]
	xorl	%eax, 24(%r14)
.Ltmp182:
	#DEBUG_VALUE: blkxor:i <- 7
	.loc	4 53 20                         # crypto_pwhash/scryptsalsa208sha256/nosse/pwhash_scryptsalsa208sha256_nosse.c:53:20 @[ crypto_pwhash/scryptsalsa208sha256/nosse/pwhash_scryptsalsa208sha256_nosse.c:144:9 ]
	movl	-32(%r12), %eax
	.loc	4 53 17                         # crypto_pwhash/scryptsalsa208sha256/nosse/pwhash_scryptsalsa208sha256_nosse.c:53:17 @[ crypto_pwhash/scryptsalsa208sha256/nosse/pwhash_scryptsalsa208sha256_nosse.c:144:9 ]
	xorl	%eax, 28(%r14)
.Ltmp183:
	#DEBUG_VALUE: blkxor:i <- 8
	.loc	4 53 20                         # crypto_pwhash/scryptsalsa208sha256/nosse/pwhash_scryptsalsa208sha256_nosse.c:53:20 @[ crypto_pwhash/scryptsalsa208sha256/nosse/pwhash_scryptsalsa208sha256_nosse.c:144:9 ]
	movl	-28(%r12), %eax
	.loc	4 53 17                         # crypto_pwhash/scryptsalsa208sha256/nosse/pwhash_scryptsalsa208sha256_nosse.c:53:17 @[ crypto_pwhash/scryptsalsa208sha256/nosse/pwhash_scryptsalsa208sha256_nosse.c:144:9 ]
	xorl	%eax, 32(%r14)
.Ltmp184:
	#DEBUG_VALUE: blkxor:i <- 9
	.loc	4 53 20                         # crypto_pwhash/scryptsalsa208sha256/nosse/pwhash_scryptsalsa208sha256_nosse.c:53:20 @[ crypto_pwhash/scryptsalsa208sha256/nosse/pwhash_scryptsalsa208sha256_nosse.c:144:9 ]
	movl	-24(%r12), %eax
	.loc	4 53 17                         # crypto_pwhash/scryptsalsa208sha256/nosse/pwhash_scryptsalsa208sha256_nosse.c:53:17 @[ crypto_pwhash/scryptsalsa208sha256/nosse/pwhash_scryptsalsa208sha256_nosse.c:144:9 ]
	xorl	%eax, 36(%r14)
.Ltmp185:
	#DEBUG_VALUE: blkxor:i <- 10
	.loc	4 53 20                         # crypto_pwhash/scryptsalsa208sha256/nosse/pwhash_scryptsalsa208sha256_nosse.c:53:20 @[ crypto_pwhash/scryptsalsa208sha256/nosse/pwhash_scryptsalsa208sha256_nosse.c:144:9 ]
	movl	-20(%r12), %eax
	.loc	4 53 17                         # crypto_pwhash/scryptsalsa208sha256/nosse/pwhash_scryptsalsa208sha256_nosse.c:53:17 @[ crypto_pwhash/scryptsalsa208sha256/nosse/pwhash_scryptsalsa208sha256_nosse.c:144:9 ]
	xorl	%eax, 40(%r14)
.Ltmp186:
	#DEBUG_VALUE: blkxor:i <- 11
	.loc	4 53 20                         # crypto_pwhash/scryptsalsa208sha256/nosse/pwhash_scryptsalsa208sha256_nosse.c:53:20 @[ crypto_pwhash/scryptsalsa208sha256/nosse/pwhash_scryptsalsa208sha256_nosse.c:144:9 ]
	movl	-16(%r12), %eax
	.loc	4 53 17                         # crypto_pwhash/scryptsalsa208sha256/nosse/pwhash_scryptsalsa208sha256_nosse.c:53:17 @[ crypto_pwhash/scryptsalsa208sha256/nosse/pwhash_scryptsalsa208sha256_nosse.c:144:9 ]
	xorl	%eax, 44(%r14)
.Ltmp187:
	#DEBUG_VALUE: blkxor:i <- 12
	.loc	4 53 20                         # crypto_pwhash/scryptsalsa208sha256/nosse/pwhash_scryptsalsa208sha256_nosse.c:53:20 @[ crypto_pwhash/scryptsalsa208sha256/nosse/pwhash_scryptsalsa208sha256_nosse.c:144:9 ]
	movl	-12(%r12), %eax
	.loc	4 53 17                         # crypto_pwhash/scryptsalsa208sha256/nosse/pwhash_scryptsalsa208sha256_nosse.c:53:17 @[ crypto_pwhash/scryptsalsa208sha256/nosse/pwhash_scryptsalsa208sha256_nosse.c:144:9 ]
	xorl	%eax, 48(%r14)
.Ltmp188:
	#DEBUG_VALUE: blkxor:i <- 13
	.loc	4 53 20                         # crypto_pwhash/scryptsalsa208sha256/nosse/pwhash_scryptsalsa208sha256_nosse.c:53:20 @[ crypto_pwhash/scryptsalsa208sha256/nosse/pwhash_scryptsalsa208sha256_nosse.c:144:9 ]
	movl	-8(%r12), %eax
	.loc	4 53 17                         # crypto_pwhash/scryptsalsa208sha256/nosse/pwhash_scryptsalsa208sha256_nosse.c:53:17 @[ crypto_pwhash/scryptsalsa208sha256/nosse/pwhash_scryptsalsa208sha256_nosse.c:144:9 ]
	xorl	%eax, 52(%r14)
.Ltmp189:
	#DEBUG_VALUE: blkxor:i <- 14
	.loc	4 53 20                         # crypto_pwhash/scryptsalsa208sha256/nosse/pwhash_scryptsalsa208sha256_nosse.c:53:20 @[ crypto_pwhash/scryptsalsa208sha256/nosse/pwhash_scryptsalsa208sha256_nosse.c:144:9 ]
	movl	-4(%r12), %eax
	.loc	4 53 17                         # crypto_pwhash/scryptsalsa208sha256/nosse/pwhash_scryptsalsa208sha256_nosse.c:53:17 @[ crypto_pwhash/scryptsalsa208sha256/nosse/pwhash_scryptsalsa208sha256_nosse.c:144:9 ]
	xorl	%eax, 56(%r14)
.Ltmp190:
	#DEBUG_VALUE: blkxor:i <- 15
	.loc	4 53 20                         # crypto_pwhash/scryptsalsa208sha256/nosse/pwhash_scryptsalsa208sha256_nosse.c:53:20 @[ crypto_pwhash/scryptsalsa208sha256/nosse/pwhash_scryptsalsa208sha256_nosse.c:144:9 ]
	movl	(%r12), %eax
	.loc	4 53 17                         # crypto_pwhash/scryptsalsa208sha256/nosse/pwhash_scryptsalsa208sha256_nosse.c:53:17 @[ crypto_pwhash/scryptsalsa208sha256/nosse/pwhash_scryptsalsa208sha256_nosse.c:144:9 ]
	xorl	%eax, 60(%r14)
.Ltmp191:
	#DEBUG_VALUE: blkxor:i <- 16
	.loc	4 145 9 is_stmt 1               # crypto_pwhash/scryptsalsa208sha256/nosse/pwhash_scryptsalsa208sha256_nosse.c:145:9
	movq	%r14, %rdi
	callq	salsa20_8
.Ltmp192:
	#DEBUG_VALUE: blkcpy:dest <- [DW_OP_LLVM_arg 0, DW_OP_LLVM_arg 2, DW_OP_constu 5, DW_OP_shl, DW_OP_plus, DW_OP_LLVM_arg 1, DW_OP_plus, DW_OP_stack_value] undef, undef, undef
	#DEBUG_VALUE: blkcpy:src <- $r14
	#DEBUG_VALUE: blkcpy:len <- 1
	#DEBUG_VALUE: memcpy:__dest <- [DW_OP_LLVM_arg 0, DW_OP_LLVM_arg 2, DW_OP_constu 5, DW_OP_shl, DW_OP_plus, DW_OP_LLVM_arg 1, DW_OP_plus, DW_OP_stack_value] undef, undef, undef
	#DEBUG_VALUE: memcpy:__src <- $r14
	#DEBUG_VALUE: memcpy:__len <- 64
	.loc	5 29 10                         # /usr/include/x86_64-linux-gnu/bits/string_fortified.h:29:10 @[ crypto_pwhash/scryptsalsa208sha256/nosse/pwhash_scryptsalsa208sha256_nosse.c:44:5 @[ crypto_pwhash/scryptsalsa208sha256/nosse/pwhash_scryptsalsa208sha256_nosse.c:149:9 ] ]
	movups	(%r14), %xmm0
	movups	16(%r14), %xmm1
	movups	32(%r14), %xmm2
	movups	48(%r14), %xmm3
	movups	%xmm3, 48(%r15,%rbx)
	movups	%xmm2, 32(%r15,%rbx)
	movups	%xmm1, 16(%r15,%rbx)
	movups	%xmm0, (%r15,%rbx)
.Ltmp193:
	.loc	4 134 30                        # crypto_pwhash/scryptsalsa208sha256/nosse/pwhash_scryptsalsa208sha256_nosse.c:134:30
	addq	$2, %rbp
.Ltmp194:
	#DEBUG_VALUE: blockmix_salsa8:i <- $rbp
	.loc	4 134 19 is_stmt 0              # crypto_pwhash/scryptsalsa208sha256/nosse/pwhash_scryptsalsa208sha256_nosse.c:134:19
	subq	$-128, %r12
	addq	$64, %r15
	cmpq	%r13, %rbp
.Ltmp195:
	.loc	4 134 5                         # crypto_pwhash/scryptsalsa208sha256/nosse/pwhash_scryptsalsa208sha256_nosse.c:134:5
	jb	.LBB1_1
.Ltmp196:
# %bb.2:
	#DEBUG_VALUE: blockmix_salsa8:Bin <- [DW_OP_LLVM_entry_value 1] $rdi
	#DEBUG_VALUE: blockmix_salsa8:Bout <- [DW_OP_LLVM_entry_value 1] $rsi
	#DEBUG_VALUE: blockmix_salsa8:X <- $r14
	#DEBUG_VALUE: blockmix_salsa8:r <- [DW_OP_LLVM_entry_value 1] $rcx
	#DEBUG_VALUE: blockmix_salsa8:i <- $rbp
	.loc	4 151 1 epilogue_begin is_stmt 1 # crypto_pwhash/scryptsalsa208sha256/nosse/pwhash_scryptsalsa208sha256_nosse.c:151:1
	addq	$8, %rsp
	.cfi_def_cfa_offset 56
	popq	%rbx
	.cfi_def_cfa_offset 48
	popq	%r12
	.cfi_def_cfa_offset 40
	popq	%r13
	.cfi_def_cfa_offset 32
	popq	%r14
.Ltmp197:
	#DEBUG_VALUE: blockmix_salsa8:X <- [DW_OP_LLVM_entry_value 1] $rdx
	.cfi_def_cfa_offset 24
	popq	%r15
	.cfi_def_cfa_offset 16
	popq	%rbp
.Ltmp198:
	.cfi_def_cfa_offset 8
	retq
.Ltmp199:
.Lfunc_end1:
	.size	blockmix_salsa8, .Lfunc_end1-blockmix_salsa8
	.cfi_endproc
                                        # -- End function
	.p2align	4                               # -- Begin function salsa20_8
	.type	salsa20_8,@function
salsa20_8:                              # @salsa20_8
.Lfunc_begin2:
	.loc	4 63 0                          # crypto_pwhash/scryptsalsa208sha256/nosse/pwhash_scryptsalsa208sha256_nosse.c:63:0
	.cfi_startproc
# %bb.0:
	#DEBUG_VALUE: salsa20_8:B <- $rdi
	#DEBUG_VALUE: blkcpy:src <- $rdi
	#DEBUG_VALUE: memcpy:__src <- $rdi
	#DEBUG_VALUE: blkcpy:len <- 1
	#DEBUG_VALUE: memcpy:__len <- 64
	pushq	%rbp
	.cfi_def_cfa_offset 16
	pushq	%r15
	.cfi_def_cfa_offset 24
	pushq	%r14
	.cfi_def_cfa_offset 32
	pushq	%r13
	.cfi_def_cfa_offset 40
	pushq	%r12
	.cfi_def_cfa_offset 48
	pushq	%rbx
	.cfi_def_cfa_offset 56
	.cfi_offset %rbx, -56
	.cfi_offset %r12, -48
	.cfi_offset %r13, -40
	.cfi_offset %r14, -32
	.cfi_offset %r15, -24
	.cfi_offset %rbp, -16
	.loc	5 29 10 prologue_end            # /usr/include/x86_64-linux-gnu/bits/string_fortified.h:29:10 @[ crypto_pwhash/scryptsalsa208sha256/nosse/pwhash_scryptsalsa208sha256_nosse.c:44:5 @[ crypto_pwhash/scryptsalsa208sha256/nosse/pwhash_scryptsalsa208sha256_nosse.c:67:5 ] ]
	movl	(%rdi), %r15d
.Ltmp200:
	#DEBUG_VALUE: salsa20_8:x <- [DW_OP_LLVM_fragment 0 32] $r15d
	movl	4(%rdi), %ebx
.Ltmp201:
	#DEBUG_VALUE: salsa20_8:x <- [DW_OP_LLVM_fragment 32 32] $ebx
	movl	8(%rdi), %r8d
.Ltmp202:
	#DEBUG_VALUE: salsa20_8:x <- [DW_OP_LLVM_fragment 64 32] $r8d
	movl	12(%rdi), %eax
.Ltmp203:
	#DEBUG_VALUE: salsa20_8:x <- [DW_OP_LLVM_fragment 96 32] $eax
	.loc	5 0 10 is_stmt 0                # /usr/include/x86_64-linux-gnu/bits/string_fortified.h:0:10
	movq	%rax, -88(%rsp)                 # 8-byte Spill
.Ltmp204:
	#DEBUG_VALUE: salsa20_8:x <- [DW_OP_constu 88, DW_OP_minus, DW_OP_deref, DW_OP_LLVM_fragment 96 32] $rsp
	.loc	5 29 10                         # /usr/include/x86_64-linux-gnu/bits/string_fortified.h:29:10 @[ crypto_pwhash/scryptsalsa208sha256/nosse/pwhash_scryptsalsa208sha256_nosse.c:44:5 @[ crypto_pwhash/scryptsalsa208sha256/nosse/pwhash_scryptsalsa208sha256_nosse.c:67:5 ] ]
	movl	16(%rdi), %r12d
.Ltmp205:
	#DEBUG_VALUE: salsa20_8:x <- [DW_OP_LLVM_fragment 128 32] $r12d
	movl	20(%rdi), %r14d
.Ltmp206:
	#DEBUG_VALUE: salsa20_8:x <- [DW_OP_LLVM_fragment 160 32] $r14d
	movl	24(%rdi), %r10d
.Ltmp207:
	#DEBUG_VALUE: salsa20_8:x <- [DW_OP_LLVM_fragment 192 32] $r10d
	movl	28(%rdi), %eax
.Ltmp208:
	#DEBUG_VALUE: salsa20_8:x <- [DW_OP_LLVM_fragment 224 32] $eax
	.loc	5 0 10                          # /usr/include/x86_64-linux-gnu/bits/string_fortified.h:0:10
	movq	%rax, -96(%rsp)                 # 8-byte Spill
.Ltmp209:
	#DEBUG_VALUE: salsa20_8:x <- [DW_OP_constu 96, DW_OP_minus, DW_OP_deref, DW_OP_LLVM_fragment 224 32] $rsp
	.loc	5 29 10                         # /usr/include/x86_64-linux-gnu/bits/string_fortified.h:29:10 @[ crypto_pwhash/scryptsalsa208sha256/nosse/pwhash_scryptsalsa208sha256_nosse.c:44:5 @[ crypto_pwhash/scryptsalsa208sha256/nosse/pwhash_scryptsalsa208sha256_nosse.c:67:5 ] ]
	movl	32(%rdi), %eax
.Ltmp210:
	#DEBUG_VALUE: salsa20_8:x <- [DW_OP_LLVM_fragment 256 32] $eax
	movl	36(%rdi), %edx
.Ltmp211:
	#DEBUG_VALUE: salsa20_8:x <- [DW_OP_LLVM_fragment 288 32] $edx
	movl	40(%rdi), %r11d
.Ltmp212:
	#DEBUG_VALUE: salsa20_8:x <- [DW_OP_LLVM_fragment 320 32] $r11d
	movl	44(%rdi), %esi
.Ltmp213:
	#DEBUG_VALUE: salsa20_8:x <- [DW_OP_LLVM_fragment 352 32] $esi
	movl	48(%rdi), %ecx
.Ltmp214:
	#DEBUG_VALUE: salsa20_8:x <- [DW_OP_LLVM_fragment 384 32] $ecx
	movl	52(%rdi), %ebp
.Ltmp215:
	#DEBUG_VALUE: salsa20_8:x <- [DW_OP_LLVM_fragment 416 32] $ebp
	movl	56(%rdi), %r13d
.Ltmp216:
	#DEBUG_VALUE: salsa20_8:x <- [DW_OP_LLVM_fragment 448 32] $r13d
	.loc	5 0 10                          # /usr/include/x86_64-linux-gnu/bits/string_fortified.h:0:10
	movq	%rdi, -72(%rsp)                 # 8-byte Spill
.Ltmp217:
	#DEBUG_VALUE: memcpy:__src <- [DW_OP_constu 72, DW_OP_minus] [$rsp+0]
	#DEBUG_VALUE: blkcpy:src <- [DW_OP_constu 72, DW_OP_minus] [$rsp+0]
	#DEBUG_VALUE: salsa20_8:B <- [DW_OP_constu 72, DW_OP_minus] [$rsp+0]
	.loc	5 29 10                         # /usr/include/x86_64-linux-gnu/bits/string_fortified.h:29:10 @[ crypto_pwhash/scryptsalsa208sha256/nosse/pwhash_scryptsalsa208sha256_nosse.c:44:5 @[ crypto_pwhash/scryptsalsa208sha256/nosse/pwhash_scryptsalsa208sha256_nosse.c:67:5 ] ]
	movl	60(%rdi), %r9d
.Ltmp218:
	#DEBUG_VALUE: salsa20_8:x <- [DW_OP_LLVM_fragment 480 32] $r9d
	.loc	5 0 10                          # /usr/include/x86_64-linux-gnu/bits/string_fortified.h:0:10
	movq	$-2, -80(%rsp)                  # 8-byte Folded Spill
.Ltmp219:
	#DEBUG_VALUE: salsa20_8:i <- 0
	.p2align	4
.LBB2_1:                                # =>This Inner Loop Header: Depth=1
	#DEBUG_VALUE: salsa20_8:B <- [DW_OP_constu 72, DW_OP_minus] [$rsp+0]
	#DEBUG_VALUE: salsa20_8:x <- [DW_OP_LLVM_fragment 0 32] $r15d
	#DEBUG_VALUE: salsa20_8:x <- [DW_OP_LLVM_fragment 32 32] $ebx
	#DEBUG_VALUE: salsa20_8:x <- [DW_OP_LLVM_fragment 64 32] $r8d
	#DEBUG_VALUE: salsa20_8:x <- [DW_OP_constu 88, DW_OP_minus, DW_OP_deref, DW_OP_LLVM_fragment 96 32] $rsp
	#DEBUG_VALUE: salsa20_8:x <- [DW_OP_LLVM_fragment 128 32] $r12d
	#DEBUG_VALUE: salsa20_8:x <- [DW_OP_LLVM_fragment 160 32] $r14d
	#DEBUG_VALUE: salsa20_8:x <- [DW_OP_LLVM_fragment 192 32] $r10d
	#DEBUG_VALUE: salsa20_8:x <- [DW_OP_constu 96, DW_OP_minus, DW_OP_deref, DW_OP_LLVM_fragment 224 32] $rsp
	#DEBUG_VALUE: salsa20_8:x <- [DW_OP_LLVM_fragment 256 32] $eax
	#DEBUG_VALUE: salsa20_8:x <- [DW_OP_LLVM_fragment 288 32] $edx
	#DEBUG_VALUE: salsa20_8:x <- [DW_OP_LLVM_fragment 320 32] $r11d
	#DEBUG_VALUE: salsa20_8:x <- [DW_OP_LLVM_fragment 352 32] $esi
	#DEBUG_VALUE: salsa20_8:x <- [DW_OP_LLVM_fragment 384 32] $ecx
	#DEBUG_VALUE: salsa20_8:x <- [DW_OP_LLVM_fragment 416 32] $ebp
	#DEBUG_VALUE: salsa20_8:x <- [DW_OP_LLVM_fragment 448 32] $r13d
	#DEBUG_VALUE: salsa20_8:x <- [DW_OP_LLVM_fragment 480 32] $r9d
	#DEBUG_VALUE: salsa20_8:i <- [DW_OP_constu 80, DW_OP_minus, DW_OP_deref, DW_OP_plus_uconst 2, DW_OP_stack_value] $rsp
	.loc	4 71 25 is_stmt 1               # crypto_pwhash/scryptsalsa208sha256/nosse/pwhash_scryptsalsa208sha256_nosse.c:71:25
	leal	(%rcx,%r15), %edi
	.loc	4 71 42 is_stmt 0               # crypto_pwhash/scryptsalsa208sha256/nosse/pwhash_scryptsalsa208sha256_nosse.c:71:42
	roll	$7, %edi
	.loc	4 71 14                         # crypto_pwhash/scryptsalsa208sha256/nosse/pwhash_scryptsalsa208sha256_nosse.c:71:14
	xorl	%r12d, %edi
	movq	%rdi, -48(%rsp)                 # 8-byte Spill
	.loc	4 72 25 is_stmt 1               # crypto_pwhash/scryptsalsa208sha256/nosse/pwhash_scryptsalsa208sha256_nosse.c:72:25
	leal	(%rdi,%r15), %r12d
.Ltmp220:
	.loc	4 72 41 is_stmt 0               # crypto_pwhash/scryptsalsa208sha256/nosse/pwhash_scryptsalsa208sha256_nosse.c:72:41
	roll	$9, %r12d
	.loc	4 72 14                         # crypto_pwhash/scryptsalsa208sha256/nosse/pwhash_scryptsalsa208sha256_nosse.c:72:14
	xorl	%eax, %r12d
	movq	%r12, -24(%rsp)                 # 8-byte Spill
	.loc	4 73 26 is_stmt 1               # crypto_pwhash/scryptsalsa208sha256/nosse/pwhash_scryptsalsa208sha256_nosse.c:73:26
	leal	(%r12,%rdi), %eax
.Ltmp221:
	.loc	4 73 43 is_stmt 0               # crypto_pwhash/scryptsalsa208sha256/nosse/pwhash_scryptsalsa208sha256_nosse.c:73:43
	roll	$13, %eax
	.loc	4 73 15                         # crypto_pwhash/scryptsalsa208sha256/nosse/pwhash_scryptsalsa208sha256_nosse.c:73:15
	xorl	%ecx, %eax
	movq	%rax, -8(%rsp)                  # 8-byte Spill
	.loc	4 74 26 is_stmt 1               # crypto_pwhash/scryptsalsa208sha256/nosse/pwhash_scryptsalsa208sha256_nosse.c:74:26
	addl	%r12d, %eax
	.loc	4 74 43 is_stmt 0               # crypto_pwhash/scryptsalsa208sha256/nosse/pwhash_scryptsalsa208sha256_nosse.c:74:43
	roll	$18, %eax
	.loc	4 76 25 is_stmt 1               # crypto_pwhash/scryptsalsa208sha256/nosse/pwhash_scryptsalsa208sha256_nosse.c:76:25
	leal	(%rbx,%r14), %edi
	.loc	4 76 41 is_stmt 0               # crypto_pwhash/scryptsalsa208sha256/nosse/pwhash_scryptsalsa208sha256_nosse.c:76:41
	roll	$7, %edi
	.loc	4 76 14                         # crypto_pwhash/scryptsalsa208sha256/nosse/pwhash_scryptsalsa208sha256_nosse.c:76:14
	xorl	%edx, %edi
	movq	%rdi, -32(%rsp)                 # 8-byte Spill
	.loc	4 77 26 is_stmt 1               # crypto_pwhash/scryptsalsa208sha256/nosse/pwhash_scryptsalsa208sha256_nosse.c:77:26
	leal	(%rdi,%r14), %ecx
.Ltmp222:
	.loc	4 77 42 is_stmt 0               # crypto_pwhash/scryptsalsa208sha256/nosse/pwhash_scryptsalsa208sha256_nosse.c:77:42
	roll	$9, %ecx
	.loc	4 77 15                         # crypto_pwhash/scryptsalsa208sha256/nosse/pwhash_scryptsalsa208sha256_nosse.c:77:15
	xorl	%ebp, %ecx
	movq	%rcx, -16(%rsp)                 # 8-byte Spill
	.loc	4 78 26 is_stmt 1               # crypto_pwhash/scryptsalsa208sha256/nosse/pwhash_scryptsalsa208sha256_nosse.c:78:26
	addl	%ecx, %edi
	.loc	4 78 43 is_stmt 0               # crypto_pwhash/scryptsalsa208sha256/nosse/pwhash_scryptsalsa208sha256_nosse.c:78:43
	roll	$13, %edi
	.loc	4 78 14                         # crypto_pwhash/scryptsalsa208sha256/nosse/pwhash_scryptsalsa208sha256_nosse.c:78:14
	xorl	%ebx, %edi
	.loc	4 79 25 is_stmt 1               # crypto_pwhash/scryptsalsa208sha256/nosse/pwhash_scryptsalsa208sha256_nosse.c:79:25
	addl	%edi, %ecx
	.loc	4 79 43 is_stmt 0               # crypto_pwhash/scryptsalsa208sha256/nosse/pwhash_scryptsalsa208sha256_nosse.c:79:43
	roll	$18, %ecx
	movq	%rcx, %rdx
.Ltmp223:
	.loc	4 74 14 is_stmt 1               # crypto_pwhash/scryptsalsa208sha256/nosse/pwhash_scryptsalsa208sha256_nosse.c:74:14
	xorl	%r15d, %eax
	.loc	4 81 27                         # crypto_pwhash/scryptsalsa208sha256/nosse/pwhash_scryptsalsa208sha256_nosse.c:81:27
	leal	(%r10,%r11), %ebx
.Ltmp224:
	.loc	4 81 43 is_stmt 0               # crypto_pwhash/scryptsalsa208sha256/nosse/pwhash_scryptsalsa208sha256_nosse.c:81:43
	roll	$7, %ebx
	.loc	4 81 15                         # crypto_pwhash/scryptsalsa208sha256/nosse/pwhash_scryptsalsa208sha256_nosse.c:81:15
	xorl	%r13d, %ebx
	.loc	4 82 26 is_stmt 1               # crypto_pwhash/scryptsalsa208sha256/nosse/pwhash_scryptsalsa208sha256_nosse.c:82:26
	leal	(%rbx,%r11), %r15d
.Ltmp225:
	.loc	4 0 26 is_stmt 0                # crypto_pwhash/scryptsalsa208sha256/nosse/pwhash_scryptsalsa208sha256_nosse.c:0:26
	movq	%rbx, -40(%rsp)                 # 8-byte Spill
	.loc	4 82 43                         # crypto_pwhash/scryptsalsa208sha256/nosse/pwhash_scryptsalsa208sha256_nosse.c:82:43
	roll	$9, %r15d
	.loc	4 82 14                         # crypto_pwhash/scryptsalsa208sha256/nosse/pwhash_scryptsalsa208sha256_nosse.c:82:14
	xorl	%r8d, %r15d
	.loc	4 83 25 is_stmt 1               # crypto_pwhash/scryptsalsa208sha256/nosse/pwhash_scryptsalsa208sha256_nosse.c:83:25
	leal	(%r15,%rbx), %r12d
	.loc	4 83 43 is_stmt 0               # crypto_pwhash/scryptsalsa208sha256/nosse/pwhash_scryptsalsa208sha256_nosse.c:83:43
	roll	$13, %r12d
	.loc	4 83 14                         # crypto_pwhash/scryptsalsa208sha256/nosse/pwhash_scryptsalsa208sha256_nosse.c:83:14
	xorl	%r10d, %r12d
	.loc	4 84 26 is_stmt 1               # crypto_pwhash/scryptsalsa208sha256/nosse/pwhash_scryptsalsa208sha256_nosse.c:84:26
	leal	(%r12,%r15), %ecx
	.loc	4 84 43 is_stmt 0               # crypto_pwhash/scryptsalsa208sha256/nosse/pwhash_scryptsalsa208sha256_nosse.c:84:43
	roll	$18, %ecx
	.loc	4 79 14 is_stmt 1               # crypto_pwhash/scryptsalsa208sha256/nosse/pwhash_scryptsalsa208sha256_nosse.c:79:14
	xorl	%r14d, %edx
	movq	%rdx, -56(%rsp)                 # 8-byte Spill
	.loc	4 86 26                         # crypto_pwhash/scryptsalsa208sha256/nosse/pwhash_scryptsalsa208sha256_nosse.c:86:26
	leal	(%rsi,%r9), %r10d
.Ltmp226:
	.loc	4 86 43 is_stmt 0               # crypto_pwhash/scryptsalsa208sha256/nosse/pwhash_scryptsalsa208sha256_nosse.c:86:43
	roll	$7, %r10d
	.loc	4 86 14                         # crypto_pwhash/scryptsalsa208sha256/nosse/pwhash_scryptsalsa208sha256_nosse.c:86:14
	xorl	-88(%rsp), %r10d                # 4-byte Folded Reload
	.loc	4 87 25 is_stmt 1               # crypto_pwhash/scryptsalsa208sha256/nosse/pwhash_scryptsalsa208sha256_nosse.c:87:25
	leal	(%r10,%r9), %r14d
.Ltmp227:
	.loc	4 87 42 is_stmt 0               # crypto_pwhash/scryptsalsa208sha256/nosse/pwhash_scryptsalsa208sha256_nosse.c:87:42
	roll	$9, %r14d
	.loc	4 87 14                         # crypto_pwhash/scryptsalsa208sha256/nosse/pwhash_scryptsalsa208sha256_nosse.c:87:14
	xorl	-96(%rsp), %r14d                # 4-byte Folded Reload
	.loc	4 88 26 is_stmt 1               # crypto_pwhash/scryptsalsa208sha256/nosse/pwhash_scryptsalsa208sha256_nosse.c:88:26
	leal	(%r14,%r10), %r13d
.Ltmp228:
	.loc	4 88 43 is_stmt 0               # crypto_pwhash/scryptsalsa208sha256/nosse/pwhash_scryptsalsa208sha256_nosse.c:88:43
	roll	$13, %r13d
	.loc	4 88 15                         # crypto_pwhash/scryptsalsa208sha256/nosse/pwhash_scryptsalsa208sha256_nosse.c:88:15
	xorl	%esi, %r13d
	.loc	4 89 27 is_stmt 1               # crypto_pwhash/scryptsalsa208sha256/nosse/pwhash_scryptsalsa208sha256_nosse.c:89:27
	leal	(%r14,%r13), %ebp
.Ltmp229:
	.loc	4 89 44 is_stmt 0               # crypto_pwhash/scryptsalsa208sha256/nosse/pwhash_scryptsalsa208sha256_nosse.c:89:44
	roll	$18, %ebp
	.loc	4 84 15 is_stmt 1               # crypto_pwhash/scryptsalsa208sha256/nosse/pwhash_scryptsalsa208sha256_nosse.c:84:15
	xorl	%r11d, %ecx
	.loc	4 92 25                         # crypto_pwhash/scryptsalsa208sha256/nosse/pwhash_scryptsalsa208sha256_nosse.c:92:25
	leal	(%r10,%rax), %ebx
	.loc	4 92 41 is_stmt 0               # crypto_pwhash/scryptsalsa208sha256/nosse/pwhash_scryptsalsa208sha256_nosse.c:92:41
	roll	$7, %ebx
	.loc	4 92 14                         # crypto_pwhash/scryptsalsa208sha256/nosse/pwhash_scryptsalsa208sha256_nosse.c:92:14
	xorl	%edi, %ebx
.Ltmp230:
	#DEBUG_VALUE: salsa20_8:x <- [DW_OP_LLVM_fragment 32 32] $ebx
	.loc	4 93 25 is_stmt 1               # crypto_pwhash/scryptsalsa208sha256/nosse/pwhash_scryptsalsa208sha256_nosse.c:93:25
	leal	(%rbx,%rax), %r8d
.Ltmp231:
	.loc	4 93 41 is_stmt 0               # crypto_pwhash/scryptsalsa208sha256/nosse/pwhash_scryptsalsa208sha256_nosse.c:93:41
	roll	$9, %r8d
	.loc	4 93 14                         # crypto_pwhash/scryptsalsa208sha256/nosse/pwhash_scryptsalsa208sha256_nosse.c:93:14
	xorl	%r15d, %r8d
.Ltmp232:
	#DEBUG_VALUE: salsa20_8:x <- [DW_OP_LLVM_fragment 64 32] $r8d
	.loc	4 94 25 is_stmt 1               # crypto_pwhash/scryptsalsa208sha256/nosse/pwhash_scryptsalsa208sha256_nosse.c:94:25
	leal	(%r8,%rbx), %edx
	.loc	4 94 42 is_stmt 0               # crypto_pwhash/scryptsalsa208sha256/nosse/pwhash_scryptsalsa208sha256_nosse.c:94:42
	roll	$13, %edx
	.loc	4 94 14                         # crypto_pwhash/scryptsalsa208sha256/nosse/pwhash_scryptsalsa208sha256_nosse.c:94:14
	xorl	%r10d, %edx
.Ltmp233:
	#DEBUG_VALUE: salsa20_8:x <- [DW_OP_LLVM_fragment 96 32] $edx
	.loc	4 0 14                          # crypto_pwhash/scryptsalsa208sha256/nosse/pwhash_scryptsalsa208sha256_nosse.c:0:14
	movq	%rdx, -88(%rsp)                 # 8-byte Spill
.Ltmp234:
	#DEBUG_VALUE: salsa20_8:x <- [DW_OP_constu 88, DW_OP_minus, DW_OP_deref, DW_OP_LLVM_fragment 96 32] $rsp
	.loc	4 95 25 is_stmt 1               # crypto_pwhash/scryptsalsa208sha256/nosse/pwhash_scryptsalsa208sha256_nosse.c:95:25
	leal	(%rdx,%r8), %r15d
	.loc	4 95 42 is_stmt 0               # crypto_pwhash/scryptsalsa208sha256/nosse/pwhash_scryptsalsa208sha256_nosse.c:95:42
	roll	$18, %r15d
.Ltmp235:
	#DEBUG_VALUE: salsa20_8:x <- [DW_OP_LLVM_fragment 0 32] undef
	.loc	4 89 15 is_stmt 1               # crypto_pwhash/scryptsalsa208sha256/nosse/pwhash_scryptsalsa208sha256_nosse.c:89:15
	xorl	%r9d, %ebp
	movq	-48(%rsp), %rsi                 # 8-byte Reload
.Ltmp236:
	.loc	4 0 15 is_stmt 0                # crypto_pwhash/scryptsalsa208sha256/nosse/pwhash_scryptsalsa208sha256_nosse.c:0:15
	movq	-56(%rsp), %rdi                 # 8-byte Reload
	.loc	4 97 25 is_stmt 1               # crypto_pwhash/scryptsalsa208sha256/nosse/pwhash_scryptsalsa208sha256_nosse.c:97:25
	leal	(%rdi,%rsi), %r10d
	.loc	4 97 41 is_stmt 0               # crypto_pwhash/scryptsalsa208sha256/nosse/pwhash_scryptsalsa208sha256_nosse.c:97:41
	roll	$7, %r10d
	.loc	4 97 14                         # crypto_pwhash/scryptsalsa208sha256/nosse/pwhash_scryptsalsa208sha256_nosse.c:97:14
	xorl	%r12d, %r10d
.Ltmp237:
	#DEBUG_VALUE: salsa20_8:x <- [DW_OP_LLVM_fragment 192 32] $r10d
	.loc	4 98 25 is_stmt 1               # crypto_pwhash/scryptsalsa208sha256/nosse/pwhash_scryptsalsa208sha256_nosse.c:98:25
	leal	(%r10,%rdi), %edx
	.loc	4 98 41 is_stmt 0               # crypto_pwhash/scryptsalsa208sha256/nosse/pwhash_scryptsalsa208sha256_nosse.c:98:41
	roll	$9, %edx
	.loc	4 98 14                         # crypto_pwhash/scryptsalsa208sha256/nosse/pwhash_scryptsalsa208sha256_nosse.c:98:14
	xorl	%r14d, %edx
.Ltmp238:
	#DEBUG_VALUE: salsa20_8:x <- [DW_OP_LLVM_fragment 224 32] $edx
	.loc	4 99 25 is_stmt 1               # crypto_pwhash/scryptsalsa208sha256/nosse/pwhash_scryptsalsa208sha256_nosse.c:99:25
	leal	(%rdx,%r10), %r12d
	.loc	4 99 42 is_stmt 0               # crypto_pwhash/scryptsalsa208sha256/nosse/pwhash_scryptsalsa208sha256_nosse.c:99:42
	roll	$13, %r12d
	.loc	4 99 14                         # crypto_pwhash/scryptsalsa208sha256/nosse/pwhash_scryptsalsa208sha256_nosse.c:99:14
	xorl	%esi, %r12d
.Ltmp239:
	#DEBUG_VALUE: salsa20_8:x <- [DW_OP_LLVM_fragment 128 32] $r12d
	.loc	4 0 14                          # crypto_pwhash/scryptsalsa208sha256/nosse/pwhash_scryptsalsa208sha256_nosse.c:0:14
	movq	%rdx, -96(%rsp)                 # 8-byte Spill
.Ltmp240:
	#DEBUG_VALUE: salsa20_8:x <- [DW_OP_constu 96, DW_OP_minus, DW_OP_deref, DW_OP_LLVM_fragment 224 32] $rsp
	.loc	4 100 25 is_stmt 1              # crypto_pwhash/scryptsalsa208sha256/nosse/pwhash_scryptsalsa208sha256_nosse.c:100:25
	leal	(%r12,%rdx), %r14d
	.loc	4 100 42 is_stmt 0              # crypto_pwhash/scryptsalsa208sha256/nosse/pwhash_scryptsalsa208sha256_nosse.c:100:42
	roll	$18, %r14d
.Ltmp241:
	#DEBUG_VALUE: salsa20_8:x <- [DW_OP_LLVM_fragment 160 32] undef
	.loc	4 95 14 is_stmt 1               # crypto_pwhash/scryptsalsa208sha256/nosse/pwhash_scryptsalsa208sha256_nosse.c:95:14
	xorl	%eax, %r15d
.Ltmp242:
	#DEBUG_VALUE: salsa20_8:x <- [DW_OP_LLVM_fragment 0 32] $r15d
	.loc	4 0 14 is_stmt 0                # crypto_pwhash/scryptsalsa208sha256/nosse/pwhash_scryptsalsa208sha256_nosse.c:0:14
	movq	%rcx, %rax
	movq	%rcx, -64(%rsp)                 # 8-byte Spill
	movq	-32(%rsp), %rcx                 # 8-byte Reload
	.loc	4 102 27 is_stmt 1              # crypto_pwhash/scryptsalsa208sha256/nosse/pwhash_scryptsalsa208sha256_nosse.c:102:27
	leal	(%rax,%rcx), %esi
	.loc	4 102 43 is_stmt 0              # crypto_pwhash/scryptsalsa208sha256/nosse/pwhash_scryptsalsa208sha256_nosse.c:102:43
	roll	$7, %esi
	.loc	4 102 15                        # crypto_pwhash/scryptsalsa208sha256/nosse/pwhash_scryptsalsa208sha256_nosse.c:102:15
	xorl	%r13d, %esi
.Ltmp243:
	#DEBUG_VALUE: salsa20_8:x <- [DW_OP_LLVM_fragment 352 32] $esi
	.loc	4 103 26 is_stmt 1              # crypto_pwhash/scryptsalsa208sha256/nosse/pwhash_scryptsalsa208sha256_nosse.c:103:26
	addl	%esi, %eax
	.loc	4 103 43 is_stmt 0              # crypto_pwhash/scryptsalsa208sha256/nosse/pwhash_scryptsalsa208sha256_nosse.c:103:43
	roll	$9, %eax
	.loc	4 103 14                        # crypto_pwhash/scryptsalsa208sha256/nosse/pwhash_scryptsalsa208sha256_nosse.c:103:14
	xorl	-24(%rsp), %eax                 # 4-byte Folded Reload
.Ltmp244:
	#DEBUG_VALUE: salsa20_8:x <- [DW_OP_LLVM_fragment 256 32] $eax
	.loc	4 104 25 is_stmt 1              # crypto_pwhash/scryptsalsa208sha256/nosse/pwhash_scryptsalsa208sha256_nosse.c:104:25
	leal	(%rax,%rsi), %edx
	.loc	4 104 43 is_stmt 0              # crypto_pwhash/scryptsalsa208sha256/nosse/pwhash_scryptsalsa208sha256_nosse.c:104:43
	roll	$13, %edx
	.loc	4 104 14                        # crypto_pwhash/scryptsalsa208sha256/nosse/pwhash_scryptsalsa208sha256_nosse.c:104:14
	xorl	%ecx, %edx
.Ltmp245:
	#DEBUG_VALUE: salsa20_8:x <- [DW_OP_LLVM_fragment 288 32] $edx
	.loc	4 105 26 is_stmt 1              # crypto_pwhash/scryptsalsa208sha256/nosse/pwhash_scryptsalsa208sha256_nosse.c:105:26
	leal	(%rdx,%rax), %r11d
.Ltmp246:
	.loc	4 105 43 is_stmt 0              # crypto_pwhash/scryptsalsa208sha256/nosse/pwhash_scryptsalsa208sha256_nosse.c:105:43
	roll	$18, %r11d
.Ltmp247:
	#DEBUG_VALUE: salsa20_8:x <- [DW_OP_LLVM_fragment 320 32] undef
	.loc	4 100 14 is_stmt 1              # crypto_pwhash/scryptsalsa208sha256/nosse/pwhash_scryptsalsa208sha256_nosse.c:100:14
	xorl	%edi, %r14d
.Ltmp248:
	#DEBUG_VALUE: salsa20_8:x <- [DW_OP_LLVM_fragment 160 32] $r14d
	.loc	4 0 14 is_stmt 0                # crypto_pwhash/scryptsalsa208sha256/nosse/pwhash_scryptsalsa208sha256_nosse.c:0:14
	movq	-40(%rsp), %r9                  # 8-byte Reload
.Ltmp249:
	movq	%rbp, %rdi
	.loc	4 107 27 is_stmt 1              # crypto_pwhash/scryptsalsa208sha256/nosse/pwhash_scryptsalsa208sha256_nosse.c:107:27
	leal	(%r9,%rbp), %ecx
	.loc	4 107 44 is_stmt 0              # crypto_pwhash/scryptsalsa208sha256/nosse/pwhash_scryptsalsa208sha256_nosse.c:107:44
	roll	$7, %ecx
	.loc	4 107 15                        # crypto_pwhash/scryptsalsa208sha256/nosse/pwhash_scryptsalsa208sha256_nosse.c:107:15
	xorl	-8(%rsp), %ecx                  # 4-byte Folded Reload
.Ltmp250:
	#DEBUG_VALUE: salsa20_8:x <- [DW_OP_LLVM_fragment 384 32] $ecx
	.loc	4 108 27 is_stmt 1              # crypto_pwhash/scryptsalsa208sha256/nosse/pwhash_scryptsalsa208sha256_nosse.c:108:27
	addl	%ecx, %ebp
	.loc	4 108 44 is_stmt 0              # crypto_pwhash/scryptsalsa208sha256/nosse/pwhash_scryptsalsa208sha256_nosse.c:108:44
	roll	$9, %ebp
	.loc	4 108 15                        # crypto_pwhash/scryptsalsa208sha256/nosse/pwhash_scryptsalsa208sha256_nosse.c:108:15
	xorl	-16(%rsp), %ebp                 # 4-byte Folded Reload
.Ltmp251:
	#DEBUG_VALUE: salsa20_8:x <- [DW_OP_LLVM_fragment 416 32] $ebp
	.loc	4 109 27 is_stmt 1              # crypto_pwhash/scryptsalsa208sha256/nosse/pwhash_scryptsalsa208sha256_nosse.c:109:27
	leal	(%rcx,%rbp), %r13d
	.loc	4 109 45 is_stmt 0              # crypto_pwhash/scryptsalsa208sha256/nosse/pwhash_scryptsalsa208sha256_nosse.c:109:45
	roll	$13, %r13d
	.loc	4 109 15                        # crypto_pwhash/scryptsalsa208sha256/nosse/pwhash_scryptsalsa208sha256_nosse.c:109:15
	xorl	%r9d, %r13d
.Ltmp252:
	#DEBUG_VALUE: salsa20_8:x <- [DW_OP_LLVM_fragment 448 32] $r13d
	.loc	4 110 27 is_stmt 1              # crypto_pwhash/scryptsalsa208sha256/nosse/pwhash_scryptsalsa208sha256_nosse.c:110:27
	leal	(%r13,%rbp), %r9d
	.loc	4 110 45 is_stmt 0              # crypto_pwhash/scryptsalsa208sha256/nosse/pwhash_scryptsalsa208sha256_nosse.c:110:45
	roll	$18, %r9d
	.loc	4 105 15 is_stmt 1              # crypto_pwhash/scryptsalsa208sha256/nosse/pwhash_scryptsalsa208sha256_nosse.c:105:15
	xorl	-64(%rsp), %r11d                # 4-byte Folded Reload
.Ltmp253:
	#DEBUG_VALUE: salsa20_8:x <- [DW_OP_LLVM_fragment 320 32] $r11d
	.loc	4 110 15                        # crypto_pwhash/scryptsalsa208sha256/nosse/pwhash_scryptsalsa208sha256_nosse.c:110:15
	xorl	%edi, %r9d
.Ltmp254:
	#DEBUG_VALUE: salsa20_8:x <- [DW_OP_LLVM_fragment 480 32] $r9d
	#DEBUG_VALUE: salsa20_8:i <- [DW_OP_constu 80, DW_OP_minus, DW_OP_deref, DW_OP_plus_uconst 4, DW_OP_stack_value] $rsp
	.loc	4 0 15 is_stmt 0                # crypto_pwhash/scryptsalsa208sha256/nosse/pwhash_scryptsalsa208sha256_nosse.c:0:15
	movq	-80(%rsp), %rdi                 # 8-byte Reload
.Ltmp255:
	.loc	4 68 19 is_stmt 1               # crypto_pwhash/scryptsalsa208sha256/nosse/pwhash_scryptsalsa208sha256_nosse.c:68:19
	addq	$2, %rdi
	movq	%rdi, -80(%rsp)                 # 8-byte Spill
.Ltmp256:
	#DEBUG_VALUE: salsa20_8:i <- [DW_OP_plus_uconst 4, DW_OP_stack_value] undef
	cmpq	$6, %rdi
.Ltmp257:
	.loc	4 68 5 is_stmt 0                # crypto_pwhash/scryptsalsa208sha256/nosse/pwhash_scryptsalsa208sha256_nosse.c:68:5
	jb	.LBB2_1
.Ltmp258:
# %bb.2:                                # %.preheader
	#DEBUG_VALUE: salsa20_8:B <- [DW_OP_constu 72, DW_OP_minus] [$rsp+0]
	#DEBUG_VALUE: salsa20_8:x <- [DW_OP_LLVM_fragment 0 32] $r15d
	#DEBUG_VALUE: salsa20_8:x <- [DW_OP_LLVM_fragment 32 32] $ebx
	#DEBUG_VALUE: salsa20_8:x <- [DW_OP_LLVM_fragment 64 32] $r8d
	#DEBUG_VALUE: salsa20_8:x <- [DW_OP_constu 88, DW_OP_minus, DW_OP_deref, DW_OP_LLVM_fragment 96 32] $rsp
	#DEBUG_VALUE: salsa20_8:x <- [DW_OP_LLVM_fragment 128 32] $r12d
	#DEBUG_VALUE: salsa20_8:x <- [DW_OP_LLVM_fragment 160 32] $r14d
	#DEBUG_VALUE: salsa20_8:x <- [DW_OP_LLVM_fragment 192 32] $r10d
	#DEBUG_VALUE: salsa20_8:x <- [DW_OP_constu 96, DW_OP_minus, DW_OP_deref, DW_OP_LLVM_fragment 224 32] $rsp
	#DEBUG_VALUE: salsa20_8:x <- [DW_OP_LLVM_fragment 256 32] $eax
	#DEBUG_VALUE: salsa20_8:x <- [DW_OP_LLVM_fragment 288 32] $edx
	#DEBUG_VALUE: salsa20_8:x <- [DW_OP_LLVM_fragment 320 32] $r11d
	#DEBUG_VALUE: salsa20_8:x <- [DW_OP_LLVM_fragment 352 32] $esi
	#DEBUG_VALUE: salsa20_8:x <- [DW_OP_LLVM_fragment 384 32] $ecx
	#DEBUG_VALUE: salsa20_8:x <- [DW_OP_LLVM_fragment 416 32] $ebp
	#DEBUG_VALUE: salsa20_8:x <- [DW_OP_LLVM_fragment 448 32] $r13d
	#DEBUG_VALUE: salsa20_8:x <- [DW_OP_LLVM_fragment 480 32] $r9d
	#DEBUG_VALUE: salsa20_8:i <- 3
	.loc	4 114 14 is_stmt 1              # crypto_pwhash/scryptsalsa208sha256/nosse/pwhash_scryptsalsa208sha256_nosse.c:114:14
	movd	-88(%rsp), %xmm1                # 4-byte Folded Reload
                                        # xmm1 = mem[0],zero,zero,zero
	movd	%r8d, %xmm0
	movd	%ebx, %xmm3
	movd	%r15d, %xmm2
	movd	-96(%rsp), %xmm5                # 4-byte Folded Reload
                                        # xmm5 = mem[0],zero,zero,zero
	movd	%r10d, %xmm4
	movd	%r14d, %xmm7
	movd	%r12d, %xmm6
	movd	%esi, %xmm9
	movd	%r11d, %xmm8
	movd	%edx, %xmm10
	movd	%eax, %xmm11
	movd	%r9d, %xmm12
	movd	%r13d, %xmm13
	movd	%ebp, %xmm14
	movd	%ecx, %xmm15
	punpckldq	%xmm1, %xmm0            # xmm0 = xmm0[0],xmm1[0],xmm0[1],xmm1[1]
	punpckldq	%xmm3, %xmm2            # xmm2 = xmm2[0],xmm3[0],xmm2[1],xmm3[1]
	punpcklqdq	%xmm0, %xmm2            # xmm2 = xmm2[0],xmm0[0]
	movq	-72(%rsp), %rax                 # 8-byte Reload
.Ltmp259:
	movdqu	(%rax), %xmm0
.Ltmp260:
	#DEBUG_VALUE: salsa20_8:i <- 7
	paddd	%xmm2, %xmm0
	movdqu	16(%rax), %xmm1
.Ltmp261:
	#DEBUG_VALUE: salsa20_8:i <- 11
	movdqu	32(%rax), %xmm2
.Ltmp262:
	#DEBUG_VALUE: salsa20_8:i <- 15
	movdqu	48(%rax), %xmm3
	movdqu	%xmm0, (%rax)
	punpckldq	%xmm5, %xmm4            # xmm4 = xmm4[0],xmm5[0],xmm4[1],xmm5[1]
	punpckldq	%xmm7, %xmm6            # xmm6 = xmm6[0],xmm7[0],xmm6[1],xmm7[1]
	punpcklqdq	%xmm4, %xmm6            # xmm6 = xmm6[0],xmm4[0]
	paddd	%xmm1, %xmm6
	movdqu	%xmm6, 16(%rax)
	punpckldq	%xmm9, %xmm8            # xmm8 = xmm8[0],xmm9[0],xmm8[1],xmm9[1]
	punpckldq	%xmm10, %xmm11          # xmm11 = xmm11[0],xmm10[0],xmm11[1],xmm10[1]
	punpcklqdq	%xmm8, %xmm11           # xmm11 = xmm11[0],xmm8[0]
	paddd	%xmm2, %xmm11
	movdqu	%xmm11, 32(%rax)
	punpckldq	%xmm12, %xmm13          # xmm13 = xmm13[0],xmm12[0],xmm13[1],xmm12[1]
	punpckldq	%xmm14, %xmm15          # xmm15 = xmm15[0],xmm14[0],xmm15[1],xmm14[1]
	punpcklqdq	%xmm13, %xmm15          # xmm15 = xmm15[0],xmm13[0]
	paddd	%xmm3, %xmm15
	movdqu	%xmm15, 48(%rax)
.Ltmp263:
	#DEBUG_VALUE: salsa20_8:i <- 16
	.loc	4 116 1 epilogue_begin          # crypto_pwhash/scryptsalsa208sha256/nosse/pwhash_scryptsalsa208sha256_nosse.c:116:1
	popq	%rbx
.Ltmp264:
	.cfi_def_cfa_offset 48
	popq	%r12
.Ltmp265:
	.cfi_def_cfa_offset 40
	popq	%r13
.Ltmp266:
	.cfi_def_cfa_offset 32
	popq	%r14
.Ltmp267:
	.cfi_def_cfa_offset 24
	popq	%r15
.Ltmp268:
	.cfi_def_cfa_offset 16
	popq	%rbp
.Ltmp269:
	.cfi_def_cfa_offset 8
	retq
.Ltmp270:
.Lfunc_end2:
	.size	salsa20_8, .Lfunc_end2-salsa20_8
	.cfi_endproc
                                        # -- End function
	.section	".note.GNU-stack","",@progbits
	.addrsig