	.file	"pwhash_scryptsalsa208sha256.c"
	.file	0 "/home/leizhenyuu/opt/Anonymous_Repo/libsodium_o2_attr_inline/src/libsodium" "pwhash_scryptsalsa208sha256.c" md5 0x4c2eea456fb962ee884628b8f22ed564
	.file	1 "crypto_pwhash/scryptsalsa208sha256" "pwhash_scryptsalsa208sha256.c"
	.file	2 "/usr/include/x86_64-linux-gnu/bits" "types.h"
	.file	3 "/usr/include/x86_64-linux-gnu/bits" "stdint-uintn.h"
	.file	4 "/home/leizhenyuu/opt/Anonymous_Repo" "llvm-project/build/lib/clang/21/include/__stddef_size_t.h"
	.text
	.globl	crypto_pwhash_scryptsalsa208sha256_bytes_min # -- Begin function crypto_pwhash_scryptsalsa208sha256_bytes_min
	.p2align	4
	.type	crypto_pwhash_scryptsalsa208sha256_bytes_min,@function
crypto_pwhash_scryptsalsa208sha256_bytes_min: # @crypto_pwhash_scryptsalsa208sha256_bytes_min
.Lfunc_begin0:
	.cfi_startproc
# %bb.0:
	.loc	1 70 5 prologue_end             # crypto_pwhash/scryptsalsa208sha256/pwhash_scryptsalsa208sha256.c:70:5
	movl	$16, %eax
	retq
.Ltmp0:
.Lfunc_end0:
	.size	crypto_pwhash_scryptsalsa208sha256_bytes_min, .Lfunc_end0-crypto_pwhash_scryptsalsa208sha256_bytes_min
	.cfi_endproc
                                        # -- End function
	.globl	crypto_pwhash_scryptsalsa208sha256_bytes_max # -- Begin function crypto_pwhash_scryptsalsa208sha256_bytes_max
	.p2align	4
	.type	crypto_pwhash_scryptsalsa208sha256_bytes_max,@function
crypto_pwhash_scryptsalsa208sha256_bytes_max: # @crypto_pwhash_scryptsalsa208sha256_bytes_max
.Lfunc_begin1:
	.loc	1 75 0                          # crypto_pwhash/scryptsalsa208sha256/pwhash_scryptsalsa208sha256.c:75:0
	.cfi_startproc
# %bb.0:
	movabsq	$137438953440, %rax             # imm = 0x1FFFFFFFE0
.Ltmp1:
	.loc	1 76 5 prologue_end             # crypto_pwhash/scryptsalsa208sha256/pwhash_scryptsalsa208sha256.c:76:5
	retq
.Ltmp2:
.Lfunc_end1:
	.size	crypto_pwhash_scryptsalsa208sha256_bytes_max, .Lfunc_end1-crypto_pwhash_scryptsalsa208sha256_bytes_max
	.cfi_endproc
                                        # -- End function
	.globl	crypto_pwhash_scryptsalsa208sha256_passwd_min # -- Begin function crypto_pwhash_scryptsalsa208sha256_passwd_min
	.p2align	4
	.type	crypto_pwhash_scryptsalsa208sha256_passwd_min,@function
crypto_pwhash_scryptsalsa208sha256_passwd_min: # @crypto_pwhash_scryptsalsa208sha256_passwd_min
.Lfunc_begin2:
	.cfi_startproc
# %bb.0:
	.loc	1 82 5 prologue_end             # crypto_pwhash/scryptsalsa208sha256/pwhash_scryptsalsa208sha256.c:82:5
	xorl	%eax, %eax
	retq
.Ltmp3:
.Lfunc_end2:
	.size	crypto_pwhash_scryptsalsa208sha256_passwd_min, .Lfunc_end2-crypto_pwhash_scryptsalsa208sha256_passwd_min
	.cfi_endproc
                                        # -- End function
	.globl	crypto_pwhash_scryptsalsa208sha256_passwd_max # -- Begin function crypto_pwhash_scryptsalsa208sha256_passwd_max
	.p2align	4
	.type	crypto_pwhash_scryptsalsa208sha256_passwd_max,@function
crypto_pwhash_scryptsalsa208sha256_passwd_max: # @crypto_pwhash_scryptsalsa208sha256_passwd_max
.Lfunc_begin3:
	.cfi_startproc
# %bb.0:
	.loc	1 88 5 prologue_end             # crypto_pwhash/scryptsalsa208sha256/pwhash_scryptsalsa208sha256.c:88:5
	movq	$-1, %rax
	retq
.Ltmp4:
.Lfunc_end3:
	.size	crypto_pwhash_scryptsalsa208sha256_passwd_max, .Lfunc_end3-crypto_pwhash_scryptsalsa208sha256_passwd_max
	.cfi_endproc
                                        # -- End function
	.globl	crypto_pwhash_scryptsalsa208sha256_saltbytes # -- Begin function crypto_pwhash_scryptsalsa208sha256_saltbytes
	.p2align	4
	.type	crypto_pwhash_scryptsalsa208sha256_saltbytes,@function
crypto_pwhash_scryptsalsa208sha256_saltbytes: # @crypto_pwhash_scryptsalsa208sha256_saltbytes
.Lfunc_begin4:
	.cfi_startproc
# %bb.0:
	.loc	1 94 5 prologue_end             # crypto_pwhash/scryptsalsa208sha256/pwhash_scryptsalsa208sha256.c:94:5
	movl	$32, %eax
	retq
.Ltmp5:
.Lfunc_end4:
	.size	crypto_pwhash_scryptsalsa208sha256_saltbytes, .Lfunc_end4-crypto_pwhash_scryptsalsa208sha256_saltbytes
	.cfi_endproc
                                        # -- End function
	.globl	crypto_pwhash_scryptsalsa208sha256_strbytes # -- Begin function crypto_pwhash_scryptsalsa208sha256_strbytes
	.p2align	4
	.type	crypto_pwhash_scryptsalsa208sha256_strbytes,@function
crypto_pwhash_scryptsalsa208sha256_strbytes: # @crypto_pwhash_scryptsalsa208sha256_strbytes
.Lfunc_begin5:
	.cfi_startproc
# %bb.0:
	.loc	1 100 5 prologue_end            # crypto_pwhash/scryptsalsa208sha256/pwhash_scryptsalsa208sha256.c:100:5
	movl	$102, %eax
	retq
.Ltmp6:
.Lfunc_end5:
	.size	crypto_pwhash_scryptsalsa208sha256_strbytes, .Lfunc_end5-crypto_pwhash_scryptsalsa208sha256_strbytes
	.cfi_endproc
                                        # -- End function
	.globl	crypto_pwhash_scryptsalsa208sha256_strprefix # -- Begin function crypto_pwhash_scryptsalsa208sha256_strprefix
	.p2align	4
	.type	crypto_pwhash_scryptsalsa208sha256_strprefix,@function
crypto_pwhash_scryptsalsa208sha256_strprefix: # @crypto_pwhash_scryptsalsa208sha256_strprefix
.Lfunc_begin6:
	.cfi_startproc
# %bb.0:
	.loc	1 106 5 prologue_end            # crypto_pwhash/scryptsalsa208sha256/pwhash_scryptsalsa208sha256.c:106:5
	leaq	.L.str(%rip), %rax
	retq
.Ltmp7:
.Lfunc_end6:
	.size	crypto_pwhash_scryptsalsa208sha256_strprefix, .Lfunc_end6-crypto_pwhash_scryptsalsa208sha256_strprefix
	.cfi_endproc
                                        # -- End function
	.globl	crypto_pwhash_scryptsalsa208sha256_opslimit_min # -- Begin function crypto_pwhash_scryptsalsa208sha256_opslimit_min
	.p2align	4
	.type	crypto_pwhash_scryptsalsa208sha256_opslimit_min,@function
crypto_pwhash_scryptsalsa208sha256_opslimit_min: # @crypto_pwhash_scryptsalsa208sha256_opslimit_min
.Lfunc_begin7:
	.cfi_startproc
# %bb.0:
	.loc	1 112 5 prologue_end            # crypto_pwhash/scryptsalsa208sha256/pwhash_scryptsalsa208sha256.c:112:5
	movl	$32768, %eax                    # imm = 0x8000
	retq
.Ltmp8:
.Lfunc_end7:
	.size	crypto_pwhash_scryptsalsa208sha256_opslimit_min, .Lfunc_end7-crypto_pwhash_scryptsalsa208sha256_opslimit_min
	.cfi_endproc
                                        # -- End function
	.globl	crypto_pwhash_scryptsalsa208sha256_opslimit_max # -- Begin function crypto_pwhash_scryptsalsa208sha256_opslimit_max
	.p2align	4
	.type	crypto_pwhash_scryptsalsa208sha256_opslimit_max,@function
crypto_pwhash_scryptsalsa208sha256_opslimit_max: # @crypto_pwhash_scryptsalsa208sha256_opslimit_max
.Lfunc_begin8:
	.cfi_startproc
# %bb.0:
	.loc	1 118 5 prologue_end            # crypto_pwhash/scryptsalsa208sha256/pwhash_scryptsalsa208sha256.c:118:5
	movl	$4294967295, %eax               # imm = 0xFFFFFFFF
	retq
.Ltmp9:
.Lfunc_end8:
	.size	crypto_pwhash_scryptsalsa208sha256_opslimit_max, .Lfunc_end8-crypto_pwhash_scryptsalsa208sha256_opslimit_max
	.cfi_endproc
                                        # -- End function
	.globl	crypto_pwhash_scryptsalsa208sha256_memlimit_min # -- Begin function crypto_pwhash_scryptsalsa208sha256_memlimit_min
	.p2align	4
	.type	crypto_pwhash_scryptsalsa208sha256_memlimit_min,@function
crypto_pwhash_scryptsalsa208sha256_memlimit_min: # @crypto_pwhash_scryptsalsa208sha256_memlimit_min
.Lfunc_begin9:
	.cfi_startproc
# %bb.0:
	.loc	1 124 5 prologue_end            # crypto_pwhash/scryptsalsa208sha256/pwhash_scryptsalsa208sha256.c:124:5
	movl	$16777216, %eax                 # imm = 0x1000000
	retq
.Ltmp10:
.Lfunc_end9:
	.size	crypto_pwhash_scryptsalsa208sha256_memlimit_min, .Lfunc_end9-crypto_pwhash_scryptsalsa208sha256_memlimit_min
	.cfi_endproc
                                        # -- End function
	.globl	crypto_pwhash_scryptsalsa208sha256_memlimit_max # -- Begin function crypto_pwhash_scryptsalsa208sha256_memlimit_max
	.p2align	4
	.type	crypto_pwhash_scryptsalsa208sha256_memlimit_max,@function
crypto_pwhash_scryptsalsa208sha256_memlimit_max: # @crypto_pwhash_scryptsalsa208sha256_memlimit_max
.Lfunc_begin10:
	.loc	1 129 0                         # crypto_pwhash/scryptsalsa208sha256/pwhash_scryptsalsa208sha256.c:129:0
	.cfi_startproc
# %bb.0:
	movabsq	$68719476736, %rax              # imm = 0x1000000000
.Ltmp11:
	.loc	1 130 5 prologue_end            # crypto_pwhash/scryptsalsa208sha256/pwhash_scryptsalsa208sha256.c:130:5
	retq
.Ltmp12:
.Lfunc_end10:
	.size	crypto_pwhash_scryptsalsa208sha256_memlimit_max, .Lfunc_end10-crypto_pwhash_scryptsalsa208sha256_memlimit_max
	.cfi_endproc
                                        # -- End function
	.globl	crypto_pwhash_scryptsalsa208sha256_opslimit_interactive # -- Begin function crypto_pwhash_scryptsalsa208sha256_opslimit_interactive
	.p2align	4
	.type	crypto_pwhash_scryptsalsa208sha256_opslimit_interactive,@function
crypto_pwhash_scryptsalsa208sha256_opslimit_interactive: # @crypto_pwhash_scryptsalsa208sha256_opslimit_interactive
.Lfunc_begin11:
	.cfi_startproc
# %bb.0:
	.loc	1 136 5 prologue_end            # crypto_pwhash/scryptsalsa208sha256/pwhash_scryptsalsa208sha256.c:136:5
	movl	$524288, %eax                   # imm = 0x80000
	retq
.Ltmp13:
.Lfunc_end11:
	.size	crypto_pwhash_scryptsalsa208sha256_opslimit_interactive, .Lfunc_end11-crypto_pwhash_scryptsalsa208sha256_opslimit_interactive
	.cfi_endproc
                                        # -- End function
	.globl	crypto_pwhash_scryptsalsa208sha256_memlimit_interactive # -- Begin function crypto_pwhash_scryptsalsa208sha256_memlimit_interactive
	.p2align	4
	.type	crypto_pwhash_scryptsalsa208sha256_memlimit_interactive,@function
crypto_pwhash_scryptsalsa208sha256_memlimit_interactive: # @crypto_pwhash_scryptsalsa208sha256_memlimit_interactive
.Lfunc_begin12:
	.cfi_startproc
# %bb.0:
	.loc	1 142 5 prologue_end            # crypto_pwhash/scryptsalsa208sha256/pwhash_scryptsalsa208sha256.c:142:5
	movl	$16777216, %eax                 # imm = 0x1000000
	retq
.Ltmp14:
.Lfunc_end12:
	.size	crypto_pwhash_scryptsalsa208sha256_memlimit_interactive, .Lfunc_end12-crypto_pwhash_scryptsalsa208sha256_memlimit_interactive
	.cfi_endproc
                                        # -- End function
	.globl	crypto_pwhash_scryptsalsa208sha256_opslimit_sensitive # -- Begin function crypto_pwhash_scryptsalsa208sha256_opslimit_sensitive
	.p2align	4
	.type	crypto_pwhash_scryptsalsa208sha256_opslimit_sensitive,@function
crypto_pwhash_scryptsalsa208sha256_opslimit_sensitive: # @crypto_pwhash_scryptsalsa208sha256_opslimit_sensitive
.Lfunc_begin13:
	.cfi_startproc
# %bb.0:
	.loc	1 148 5 prologue_end            # crypto_pwhash/scryptsalsa208sha256/pwhash_scryptsalsa208sha256.c:148:5
	movl	$33554432, %eax                 # imm = 0x2000000
	retq
.Ltmp15:
.Lfunc_end13:
	.size	crypto_pwhash_scryptsalsa208sha256_opslimit_sensitive, .Lfunc_end13-crypto_pwhash_scryptsalsa208sha256_opslimit_sensitive
	.cfi_endproc
                                        # -- End function
	.globl	crypto_pwhash_scryptsalsa208sha256_memlimit_sensitive # -- Begin function crypto_pwhash_scryptsalsa208sha256_memlimit_sensitive
	.p2align	4
	.type	crypto_pwhash_scryptsalsa208sha256_memlimit_sensitive,@function
crypto_pwhash_scryptsalsa208sha256_memlimit_sensitive: # @crypto_pwhash_scryptsalsa208sha256_memlimit_sensitive
.Lfunc_begin14:
	.cfi_startproc
# %bb.0:
	.loc	1 154 5 prologue_end            # crypto_pwhash/scryptsalsa208sha256/pwhash_scryptsalsa208sha256.c:154:5
	movl	$1073741824, %eax               # imm = 0x40000000
	retq
.Ltmp16:
.Lfunc_end14:
	.size	crypto_pwhash_scryptsalsa208sha256_memlimit_sensitive, .Lfunc_end14-crypto_pwhash_scryptsalsa208sha256_memlimit_sensitive
	.cfi_endproc
                                        # -- End function
	.globl	crypto_pwhash_scryptsalsa208sha256 # -- Begin function crypto_pwhash_scryptsalsa208sha256
	.p2align	4
	.type	crypto_pwhash_scryptsalsa208sha256,@function
crypto_pwhash_scryptsalsa208sha256:     # @crypto_pwhash_scryptsalsa208sha256
.Lfunc_begin15:
	.loc	1 164 0                         # crypto_pwhash/scryptsalsa208sha256/pwhash_scryptsalsa208sha256.c:164:0
	.cfi_startproc
# %bb.0:
	#DEBUG_VALUE: crypto_pwhash_scryptsalsa208sha256:out <- $rdi
	#DEBUG_VALUE: crypto_pwhash_scryptsalsa208sha256:outlen <- $rsi
	#DEBUG_VALUE: crypto_pwhash_scryptsalsa208sha256:passwd <- $rdx
	#DEBUG_VALUE: crypto_pwhash_scryptsalsa208sha256:passwdlen <- $rcx
	#DEBUG_VALUE: crypto_pwhash_scryptsalsa208sha256:salt <- $r8
	#DEBUG_VALUE: crypto_pwhash_scryptsalsa208sha256:opslimit <- $r9
	#DEBUG_VALUE: memset:__dest <- $rdi
	#DEBUG_VALUE: memset:__len <- $rsi
	pushq	%rbp
	.cfi_def_cfa_offset 16
	pushq	%r15
	.cfi_def_cfa_offset 24
	pushq	%r14
	.cfi_def_cfa_offset 32
	pushq	%r13
	.cfi_def_cfa_offset 40
	pushq	%r12
	.cfi_def_cfa_offset 48
	pushq	%rbx
	.cfi_def_cfa_offset 56
	pushq	%rax
	.cfi_def_cfa_offset 64
	.cfi_offset %rbx, -56
	.cfi_offset %r12, -48
	.cfi_offset %r13, -40
	.cfi_offset %r14, -32
	.cfi_offset %r15, -24
	.cfi_offset %rbp, -16
.Ltmp17:
	#DEBUG_VALUE: crypto_pwhash_scryptsalsa208sha256:memlimit <- [DW_OP_plus_uconst 64] [$rsp+0]
	movq	%r9, %rbp
	movq	%r8, %r15
	movq	%rcx, %r12
	movq	%rdx, %r13
	movq	%rsi, %r14
	movq	%rdi, %rbx
.Ltmp18:
	#DEBUG_VALUE: memset:__ch <- 0
	.file	5 "/usr/include/x86_64-linux-gnu/bits" "string_fortified.h"
	.loc	5 59 10 prologue_end            # /usr/include/x86_64-linux-gnu/bits/string_fortified.h:59:10 @[ crypto_pwhash/scryptsalsa208sha256/pwhash_scryptsalsa208sha256.c:169:5 ]
	xorl	%esi, %esi
.Ltmp19:
	#DEBUG_VALUE: memset:__len <- $r14
	#DEBUG_VALUE: crypto_pwhash_scryptsalsa208sha256:outlen <- $r14
	movq	%r14, %rdx
.Ltmp20:
	#DEBUG_VALUE: crypto_pwhash_scryptsalsa208sha256:passwd <- $r13
	callq	memset@PLT
.Ltmp21:
	#DEBUG_VALUE: crypto_pwhash_scryptsalsa208sha256:opslimit <- $rbp
	#DEBUG_VALUE: crypto_pwhash_scryptsalsa208sha256:salt <- $r15
	#DEBUG_VALUE: crypto_pwhash_scryptsalsa208sha256:passwdlen <- $r12
	#DEBUG_VALUE: memset:__dest <- $rbx
	#DEBUG_VALUE: crypto_pwhash_scryptsalsa208sha256:out <- $rbx
	.loc	5 0 10 is_stmt 0                # /usr/include/x86_64-linux-gnu/bits/string_fortified.h:0:10
	movabsq	$137438953441, %rax             # imm = 0x1FFFFFFFE1
	cmpq	%rax, %r14
.Ltmp22:
	.loc	1 170 137 is_stmt 1             # crypto_pwhash/scryptsalsa208sha256/pwhash_scryptsalsa208sha256.c:170:137
	jb	.LBB15_2
.Ltmp23:
# %bb.1:
	#DEBUG_VALUE: crypto_pwhash_scryptsalsa208sha256:out <- $rbx
	#DEBUG_VALUE: crypto_pwhash_scryptsalsa208sha256:outlen <- $r14
	#DEBUG_VALUE: crypto_pwhash_scryptsalsa208sha256:passwd <- $r13
	#DEBUG_VALUE: crypto_pwhash_scryptsalsa208sha256:passwdlen <- $r12
	#DEBUG_VALUE: crypto_pwhash_scryptsalsa208sha256:salt <- $r15
	#DEBUG_VALUE: crypto_pwhash_scryptsalsa208sha256:opslimit <- $rbp
	#DEBUG_VALUE: crypto_pwhash_scryptsalsa208sha256:memlimit <- [DW_OP_plus_uconst 64] [$rsp+0]
	.loc	1 172 11                        # crypto_pwhash/scryptsalsa208sha256/pwhash_scryptsalsa208sha256.c:172:11
	callq	__errno_location@PLT
.Ltmp24:
	.loc	1 172 32 is_stmt 0              # crypto_pwhash/scryptsalsa208sha256/pwhash_scryptsalsa208sha256.c:172:32
	movl	$27, (%rax)
	.loc	1 173 9 is_stmt 1               # crypto_pwhash/scryptsalsa208sha256/pwhash_scryptsalsa208sha256.c:173:9
	jmp	.LBB15_20
.Ltmp25:
.LBB15_2:
	#DEBUG_VALUE: crypto_pwhash_scryptsalsa208sha256:out <- $rbx
	#DEBUG_VALUE: crypto_pwhash_scryptsalsa208sha256:outlen <- $r14
	#DEBUG_VALUE: crypto_pwhash_scryptsalsa208sha256:passwd <- $r13
	#DEBUG_VALUE: crypto_pwhash_scryptsalsa208sha256:passwdlen <- $r12
	#DEBUG_VALUE: crypto_pwhash_scryptsalsa208sha256:salt <- $r15
	#DEBUG_VALUE: crypto_pwhash_scryptsalsa208sha256:opslimit <- $rbp
	#DEBUG_VALUE: crypto_pwhash_scryptsalsa208sha256:memlimit <- [DW_OP_plus_uconst 64] [$rsp+0]
	.loc	1 175 16                        # crypto_pwhash/scryptsalsa208sha256/pwhash_scryptsalsa208sha256.c:175:16
	cmpq	$16, %r14
	.loc	1 175 22 is_stmt 0              # crypto_pwhash/scryptsalsa208sha256/pwhash_scryptsalsa208sha256.c:175:22
	jb	.LBB15_19
.Ltmp26:
# %bb.3:
	#DEBUG_VALUE: crypto_pwhash_scryptsalsa208sha256:out <- $rbx
	#DEBUG_VALUE: crypto_pwhash_scryptsalsa208sha256:outlen <- $r14
	#DEBUG_VALUE: crypto_pwhash_scryptsalsa208sha256:passwd <- $r13
	#DEBUG_VALUE: crypto_pwhash_scryptsalsa208sha256:passwdlen <- $r12
	#DEBUG_VALUE: crypto_pwhash_scryptsalsa208sha256:salt <- $r15
	#DEBUG_VALUE: crypto_pwhash_scryptsalsa208sha256:opslimit <- $rbp
	#DEBUG_VALUE: crypto_pwhash_scryptsalsa208sha256:memlimit <- [DW_OP_plus_uconst 64] [$rsp+0]
	#DEBUG_VALUE: pickparams:opslimit <- $rbp
	#DEBUG_VALUE: pickparams:memlimit <- undef
	#DEBUG_VALUE: pickparams:N_log2 <- undef
	#DEBUG_VALUE: pickparams:p <- undef
	#DEBUG_VALUE: pickparams:r <- undef
	.loc	1 25 18 is_stmt 1               # crypto_pwhash/scryptsalsa208sha256/pwhash_scryptsalsa208sha256.c:25:18 @[ crypto_pwhash/scryptsalsa208sha256/pwhash_scryptsalsa208sha256.c:176:9 ]
	cmpq	$32769, %rbp                    # imm = 0x8001
	movl	$32768, %edx                    # imm = 0x8000
	cmovaeq	%rbp, %rdx
.Ltmp27:
	#DEBUG_VALUE: pickparams:opslimit <- $rdx
	#DEBUG_VALUE: crypto_pwhash_scryptsalsa208sha256:r <- 8
	.loc	1 0 18 is_stmt 0                # crypto_pwhash/scryptsalsa208sha256/pwhash_scryptsalsa208sha256.c:0:18
	movq	64(%rsp), %rsi
.Ltmp28:
	#DEBUG_VALUE: pickparams:memlimit <- $rsi
	.loc	1 29 29 is_stmt 1               # crypto_pwhash/scryptsalsa208sha256/pwhash_scryptsalsa208sha256.c:29:29 @[ crypto_pwhash/scryptsalsa208sha256/pwhash_scryptsalsa208sha256.c:176:9 ]
	movq	%rsi, %rax
	shrq	$5, %rax
	.loc	1 29 18 is_stmt 0               # crypto_pwhash/scryptsalsa208sha256/pwhash_scryptsalsa208sha256.c:29:18 @[ crypto_pwhash/scryptsalsa208sha256/pwhash_scryptsalsa208sha256.c:176:9 ]
	cmpq	%rax, %rdx
	jae	.LBB15_4
.Ltmp29:
# %bb.9:
	#DEBUG_VALUE: crypto_pwhash_scryptsalsa208sha256:out <- $rbx
	#DEBUG_VALUE: crypto_pwhash_scryptsalsa208sha256:outlen <- $r14
	#DEBUG_VALUE: crypto_pwhash_scryptsalsa208sha256:passwd <- $r13
	#DEBUG_VALUE: crypto_pwhash_scryptsalsa208sha256:passwdlen <- $r12
	#DEBUG_VALUE: crypto_pwhash_scryptsalsa208sha256:salt <- $r15
	#DEBUG_VALUE: crypto_pwhash_scryptsalsa208sha256:opslimit <- $rbp
	#DEBUG_VALUE: crypto_pwhash_scryptsalsa208sha256:memlimit <- [DW_OP_plus_uconst 64] [$rsp+0]
	#DEBUG_VALUE: pickparams:opslimit <- $rdx
	#DEBUG_VALUE: pickparams:memlimit <- $rsi
	#DEBUG_VALUE: crypto_pwhash_scryptsalsa208sha256:r <- 8
	#DEBUG_VALUE: crypto_pwhash_scryptsalsa208sha256:p <- 1
	.loc	1 31 25 is_stmt 1               # crypto_pwhash/scryptsalsa208sha256/pwhash_scryptsalsa208sha256.c:31:25 @[ crypto_pwhash/scryptsalsa208sha256/pwhash_scryptsalsa208sha256.c:176:9 ]
	shrq	$6, %rdx
.Ltmp30:
	#DEBUG_VALUE: pickparams:maxN <- $rdx
	.loc	1 0 25 is_stmt 0                # crypto_pwhash/scryptsalsa208sha256/pwhash_scryptsalsa208sha256.c:0:25
	movl	$2, %eax
.Ltmp31:
	.p2align	4
.LBB15_10:                              # =>This Inner Loop Header: Depth=1
	#DEBUG_VALUE: crypto_pwhash_scryptsalsa208sha256:out <- $rbx
	#DEBUG_VALUE: crypto_pwhash_scryptsalsa208sha256:outlen <- $r14
	#DEBUG_VALUE: crypto_pwhash_scryptsalsa208sha256:passwd <- $r13
	#DEBUG_VALUE: crypto_pwhash_scryptsalsa208sha256:passwdlen <- $r12
	#DEBUG_VALUE: crypto_pwhash_scryptsalsa208sha256:salt <- $r15
	#DEBUG_VALUE: crypto_pwhash_scryptsalsa208sha256:opslimit <- $rbp
	#DEBUG_VALUE: crypto_pwhash_scryptsalsa208sha256:memlimit <- [DW_OP_plus_uconst 64] [$rsp+0]
	#DEBUG_VALUE: crypto_pwhash_scryptsalsa208sha256:r <- 8
	#DEBUG_VALUE: crypto_pwhash_scryptsalsa208sha256:p <- 1
	#DEBUG_VALUE: pickparams:maxN <- $rdx
	.loc	1 33 42 is_stmt 1               # crypto_pwhash/scryptsalsa208sha256/pwhash_scryptsalsa208sha256.c:33:42 @[ crypto_pwhash/scryptsalsa208sha256/pwhash_scryptsalsa208sha256.c:176:9 ]
	leal	-1(%rax), %ecx
	movq	%rdx, %rsi
                                        # kill: def $cl killed $cl killed $ecx
	shrq	%cl, %rsi
	testq	%rsi, %rsi
	je	.LBB15_16
.Ltmp32:
# %bb.11:                               #   in Loop: Header=BB15_10 Depth=1
	#DEBUG_VALUE: crypto_pwhash_scryptsalsa208sha256:out <- $rbx
	#DEBUG_VALUE: crypto_pwhash_scryptsalsa208sha256:outlen <- $r14
	#DEBUG_VALUE: crypto_pwhash_scryptsalsa208sha256:passwd <- $r13
	#DEBUG_VALUE: crypto_pwhash_scryptsalsa208sha256:passwdlen <- $r12
	#DEBUG_VALUE: crypto_pwhash_scryptsalsa208sha256:salt <- $r15
	#DEBUG_VALUE: crypto_pwhash_scryptsalsa208sha256:opslimit <- $rbp
	#DEBUG_VALUE: crypto_pwhash_scryptsalsa208sha256:memlimit <- [DW_OP_plus_uconst 64] [$rsp+0]
	#DEBUG_VALUE: crypto_pwhash_scryptsalsa208sha256:r <- 8
	#DEBUG_VALUE: crypto_pwhash_scryptsalsa208sha256:p <- 1
	#DEBUG_VALUE: pickparams:maxN <- $rdx
	movq	%rdx, %rsi
	movl	%eax, %ecx
	shrq	%cl, %rsi
	testq	%rsi, %rsi
	je	.LBB15_17
.Ltmp33:
# %bb.12:                               #   in Loop: Header=BB15_10 Depth=1
	#DEBUG_VALUE: crypto_pwhash_scryptsalsa208sha256:out <- $rbx
	#DEBUG_VALUE: crypto_pwhash_scryptsalsa208sha256:outlen <- $r14
	#DEBUG_VALUE: crypto_pwhash_scryptsalsa208sha256:passwd <- $r13
	#DEBUG_VALUE: crypto_pwhash_scryptsalsa208sha256:passwdlen <- $r12
	#DEBUG_VALUE: crypto_pwhash_scryptsalsa208sha256:salt <- $r15
	#DEBUG_VALUE: crypto_pwhash_scryptsalsa208sha256:opslimit <- $rbp
	#DEBUG_VALUE: crypto_pwhash_scryptsalsa208sha256:memlimit <- [DW_OP_plus_uconst 64] [$rsp+0]
	#DEBUG_VALUE: crypto_pwhash_scryptsalsa208sha256:r <- 8
	#DEBUG_VALUE: crypto_pwhash_scryptsalsa208sha256:p <- 1
	#DEBUG_VALUE: pickparams:maxN <- $rdx
	.loc	1 32 35                         # crypto_pwhash/scryptsalsa208sha256/pwhash_scryptsalsa208sha256.c:32:35 @[ crypto_pwhash/scryptsalsa208sha256/pwhash_scryptsalsa208sha256.c:176:9 ]
	addq	$2, %rax
	cmpq	$64, %rax
.Ltmp34:
	.loc	1 32 9 is_stmt 0                # crypto_pwhash/scryptsalsa208sha256/pwhash_scryptsalsa208sha256.c:32:9 @[ crypto_pwhash/scryptsalsa208sha256/pwhash_scryptsalsa208sha256.c:176:9 ]
	jne	.LBB15_10
.Ltmp35:
# %bb.13:
	#DEBUG_VALUE: crypto_pwhash_scryptsalsa208sha256:out <- $rbx
	#DEBUG_VALUE: crypto_pwhash_scryptsalsa208sha256:outlen <- $r14
	#DEBUG_VALUE: crypto_pwhash_scryptsalsa208sha256:passwd <- $r13
	#DEBUG_VALUE: crypto_pwhash_scryptsalsa208sha256:passwdlen <- $r12
	#DEBUG_VALUE: crypto_pwhash_scryptsalsa208sha256:salt <- $r15
	#DEBUG_VALUE: crypto_pwhash_scryptsalsa208sha256:opslimit <- $rbp
	#DEBUG_VALUE: crypto_pwhash_scryptsalsa208sha256:memlimit <- [DW_OP_plus_uconst 64] [$rsp+0]
	#DEBUG_VALUE: crypto_pwhash_scryptsalsa208sha256:r <- 8
	#DEBUG_VALUE: crypto_pwhash_scryptsalsa208sha256:p <- 1
	#DEBUG_VALUE: pickparams:maxN <- $rdx
	.loc	1 0 9                           # crypto_pwhash/scryptsalsa208sha256/pwhash_scryptsalsa208sha256.c:0:9
	movl	$63, %eax
	jmp	.LBB15_17
.Ltmp36:
.LBB15_4:                               # %.preheader.i
	#DEBUG_VALUE: crypto_pwhash_scryptsalsa208sha256:out <- $rbx
	#DEBUG_VALUE: crypto_pwhash_scryptsalsa208sha256:outlen <- $r14
	#DEBUG_VALUE: crypto_pwhash_scryptsalsa208sha256:passwd <- $r13
	#DEBUG_VALUE: crypto_pwhash_scryptsalsa208sha256:passwdlen <- $r12
	#DEBUG_VALUE: crypto_pwhash_scryptsalsa208sha256:salt <- $r15
	#DEBUG_VALUE: crypto_pwhash_scryptsalsa208sha256:opslimit <- $rbp
	#DEBUG_VALUE: crypto_pwhash_scryptsalsa208sha256:memlimit <- [DW_OP_plus_uconst 64] [$rsp+0]
	#DEBUG_VALUE: pickparams:opslimit <- $rdx
	#DEBUG_VALUE: pickparams:memlimit <- $rsi
	#DEBUG_VALUE: crypto_pwhash_scryptsalsa208sha256:r <- 8
	shrq	$11, %rsi
.Ltmp37:
	movl	$2, %eax
.Ltmp38:
	.p2align	4
.LBB15_5:                               # =>This Inner Loop Header: Depth=1
	#DEBUG_VALUE: crypto_pwhash_scryptsalsa208sha256:out <- $rbx
	#DEBUG_VALUE: crypto_pwhash_scryptsalsa208sha256:outlen <- $r14
	#DEBUG_VALUE: crypto_pwhash_scryptsalsa208sha256:passwd <- $r13
	#DEBUG_VALUE: crypto_pwhash_scryptsalsa208sha256:passwdlen <- $r12
	#DEBUG_VALUE: crypto_pwhash_scryptsalsa208sha256:salt <- $r15
	#DEBUG_VALUE: crypto_pwhash_scryptsalsa208sha256:opslimit <- $rbp
	#DEBUG_VALUE: crypto_pwhash_scryptsalsa208sha256:memlimit <- [DW_OP_plus_uconst 64] [$rsp+0]
	#DEBUG_VALUE: pickparams:opslimit <- $rdx
	#DEBUG_VALUE: crypto_pwhash_scryptsalsa208sha256:r <- 8
	.loc	1 40 42 is_stmt 1               # crypto_pwhash/scryptsalsa208sha256/pwhash_scryptsalsa208sha256.c:40:42 @[ crypto_pwhash/scryptsalsa208sha256/pwhash_scryptsalsa208sha256.c:176:9 ]
	leal	-1(%rax), %ecx
	movq	%rsi, %rdi
                                        # kill: def $cl killed $cl killed $ecx
	shrq	%cl, %rdi
	testq	%rdi, %rdi
	je	.LBB15_14
.Ltmp39:
# %bb.6:                                #   in Loop: Header=BB15_5 Depth=1
	#DEBUG_VALUE: crypto_pwhash_scryptsalsa208sha256:out <- $rbx
	#DEBUG_VALUE: crypto_pwhash_scryptsalsa208sha256:outlen <- $r14
	#DEBUG_VALUE: crypto_pwhash_scryptsalsa208sha256:passwd <- $r13
	#DEBUG_VALUE: crypto_pwhash_scryptsalsa208sha256:passwdlen <- $r12
	#DEBUG_VALUE: crypto_pwhash_scryptsalsa208sha256:salt <- $r15
	#DEBUG_VALUE: crypto_pwhash_scryptsalsa208sha256:opslimit <- $rbp
	#DEBUG_VALUE: crypto_pwhash_scryptsalsa208sha256:memlimit <- [DW_OP_plus_uconst 64] [$rsp+0]
	#DEBUG_VALUE: pickparams:opslimit <- $rdx
	#DEBUG_VALUE: crypto_pwhash_scryptsalsa208sha256:r <- 8
	movq	%rsi, %rdi
	movl	%eax, %ecx
	shrq	%cl, %rdi
	testq	%rdi, %rdi
	je	.LBB15_15
.Ltmp40:
# %bb.7:                                #   in Loop: Header=BB15_5 Depth=1
	#DEBUG_VALUE: crypto_pwhash_scryptsalsa208sha256:out <- $rbx
	#DEBUG_VALUE: crypto_pwhash_scryptsalsa208sha256:outlen <- $r14
	#DEBUG_VALUE: crypto_pwhash_scryptsalsa208sha256:passwd <- $r13
	#DEBUG_VALUE: crypto_pwhash_scryptsalsa208sha256:passwdlen <- $r12
	#DEBUG_VALUE: crypto_pwhash_scryptsalsa208sha256:salt <- $r15
	#DEBUG_VALUE: crypto_pwhash_scryptsalsa208sha256:opslimit <- $rbp
	#DEBUG_VALUE: crypto_pwhash_scryptsalsa208sha256:memlimit <- [DW_OP_plus_uconst 64] [$rsp+0]
	#DEBUG_VALUE: pickparams:opslimit <- $rdx
	#DEBUG_VALUE: crypto_pwhash_scryptsalsa208sha256:r <- 8
	.loc	1 39 35                         # crypto_pwhash/scryptsalsa208sha256/pwhash_scryptsalsa208sha256.c:39:35 @[ crypto_pwhash/scryptsalsa208sha256/pwhash_scryptsalsa208sha256.c:176:9 ]
	addq	$2, %rax
	cmpq	$64, %rax
.Ltmp41:
	.loc	1 39 9 is_stmt 0                # crypto_pwhash/scryptsalsa208sha256/pwhash_scryptsalsa208sha256.c:39:9 @[ crypto_pwhash/scryptsalsa208sha256/pwhash_scryptsalsa208sha256.c:176:9 ]
	jne	.LBB15_5
.Ltmp42:
# %bb.8:
	#DEBUG_VALUE: crypto_pwhash_scryptsalsa208sha256:out <- $rbx
	#DEBUG_VALUE: crypto_pwhash_scryptsalsa208sha256:outlen <- $r14
	#DEBUG_VALUE: crypto_pwhash_scryptsalsa208sha256:passwd <- $r13
	#DEBUG_VALUE: crypto_pwhash_scryptsalsa208sha256:passwdlen <- $r12
	#DEBUG_VALUE: crypto_pwhash_scryptsalsa208sha256:salt <- $r15
	#DEBUG_VALUE: crypto_pwhash_scryptsalsa208sha256:opslimit <- $rbp
	#DEBUG_VALUE: crypto_pwhash_scryptsalsa208sha256:memlimit <- [DW_OP_plus_uconst 64] [$rsp+0]
	#DEBUG_VALUE: pickparams:opslimit <- $rdx
	#DEBUG_VALUE: crypto_pwhash_scryptsalsa208sha256:r <- 8
	.loc	1 0 9                           # crypto_pwhash/scryptsalsa208sha256/pwhash_scryptsalsa208sha256.c:0:9
	movl	$63, %eax
	.loc	1 39 9                          # crypto_pwhash/scryptsalsa208sha256/pwhash_scryptsalsa208sha256.c:39:9 @[ crypto_pwhash/scryptsalsa208sha256/pwhash_scryptsalsa208sha256.c:176:9 ]
	jmp	.LBB15_15
.Ltmp43:
.LBB15_16:                              # %..loopexit.split.loop.exit.i_crit_edge
	#DEBUG_VALUE: crypto_pwhash_scryptsalsa208sha256:out <- $rbx
	#DEBUG_VALUE: crypto_pwhash_scryptsalsa208sha256:outlen <- $r14
	#DEBUG_VALUE: crypto_pwhash_scryptsalsa208sha256:passwd <- $r13
	#DEBUG_VALUE: crypto_pwhash_scryptsalsa208sha256:passwdlen <- $r12
	#DEBUG_VALUE: crypto_pwhash_scryptsalsa208sha256:salt <- $r15
	#DEBUG_VALUE: crypto_pwhash_scryptsalsa208sha256:opslimit <- $rbp
	#DEBUG_VALUE: crypto_pwhash_scryptsalsa208sha256:memlimit <- [DW_OP_plus_uconst 64] [$rsp+0]
	#DEBUG_VALUE: crypto_pwhash_scryptsalsa208sha256:r <- 8
	#DEBUG_VALUE: crypto_pwhash_scryptsalsa208sha256:p <- 1
	#DEBUG_VALUE: pickparams:maxN <- $rdx
	.loc	1 33 42 is_stmt 1               # crypto_pwhash/scryptsalsa208sha256/pwhash_scryptsalsa208sha256.c:33:42 @[ crypto_pwhash/scryptsalsa208sha256/pwhash_scryptsalsa208sha256.c:176:9 ]
	decq	%rax
.Ltmp44:
.LBB15_17:                              # %.loopexit.split.loop.exit.i
	#DEBUG_VALUE: crypto_pwhash_scryptsalsa208sha256:out <- $rbx
	#DEBUG_VALUE: crypto_pwhash_scryptsalsa208sha256:outlen <- $r14
	#DEBUG_VALUE: crypto_pwhash_scryptsalsa208sha256:passwd <- $r13
	#DEBUG_VALUE: crypto_pwhash_scryptsalsa208sha256:passwdlen <- $r12
	#DEBUG_VALUE: crypto_pwhash_scryptsalsa208sha256:salt <- $r15
	#DEBUG_VALUE: crypto_pwhash_scryptsalsa208sha256:opslimit <- $rbp
	#DEBUG_VALUE: crypto_pwhash_scryptsalsa208sha256:memlimit <- [DW_OP_plus_uconst 64] [$rsp+0]
	#DEBUG_VALUE: crypto_pwhash_scryptsalsa208sha256:r <- 8
	#DEBUG_VALUE: crypto_pwhash_scryptsalsa208sha256:p <- 1
	.loc	1 0 42 is_stmt 0                # crypto_pwhash/scryptsalsa208sha256/pwhash_scryptsalsa208sha256.c:0:42
	movl	$1, %r10d
.Ltmp45:
	#DEBUG_VALUE: crypto_pwhash_scryptsalsa208sha256:N_log2 <- $eax
	#DEBUG_VALUE: crypto_pwhash_scryptsalsa208sha256:p <- $r10d
	.loc	1 180 28 is_stmt 1              # crypto_pwhash/scryptsalsa208sha256/pwhash_scryptsalsa208sha256.c:180:28
	cmpq	%r13, %rbx
	je	.LBB15_19
.Ltmp46:
.LBB15_22:
	#DEBUG_VALUE: crypto_pwhash_scryptsalsa208sha256:out <- $rbx
	#DEBUG_VALUE: crypto_pwhash_scryptsalsa208sha256:outlen <- $r14
	#DEBUG_VALUE: crypto_pwhash_scryptsalsa208sha256:passwd <- $r13
	#DEBUG_VALUE: crypto_pwhash_scryptsalsa208sha256:passwdlen <- $r12
	#DEBUG_VALUE: crypto_pwhash_scryptsalsa208sha256:salt <- $r15
	#DEBUG_VALUE: crypto_pwhash_scryptsalsa208sha256:opslimit <- $rbp
	#DEBUG_VALUE: crypto_pwhash_scryptsalsa208sha256:memlimit <- [DW_OP_plus_uconst 64] [$rsp+0]
	#DEBUG_VALUE: crypto_pwhash_scryptsalsa208sha256:r <- 8
	#DEBUG_VALUE: crypto_pwhash_scryptsalsa208sha256:N_log2 <- $eax
	#DEBUG_VALUE: crypto_pwhash_scryptsalsa208sha256:p <- $r10d
	.loc	1 0 28 is_stmt 0                # crypto_pwhash/scryptsalsa208sha256/pwhash_scryptsalsa208sha256.c:0:28
	movl	$1, %r8d
	.loc	1 186 28 is_stmt 1              # crypto_pwhash/scryptsalsa208sha256/pwhash_scryptsalsa208sha256.c:186:28
	movl	%eax, %ecx
	shlq	%cl, %r8
	.loc	1 184 12                        # crypto_pwhash/scryptsalsa208sha256/pwhash_scryptsalsa208sha256.c:184:12
	subq	$8, %rsp
.Ltmp47:
	.cfi_adjust_cfa_offset 8
	movl	$32, %ecx
	movq	%r13, %rdi
	movq	%r12, %rsi
	movq	%r15, %rdx
	movl	$8, %r9d
	pushq	%r14
	.cfi_adjust_cfa_offset 8
	pushq	%rbx
	.cfi_adjust_cfa_offset 8
	pushq	%r10
	.cfi_adjust_cfa_offset 8
	callq	crypto_pwhash_scryptsalsa208sha256_ll@PLT
.Ltmp48:
	addq	$40, %rsp
	.cfi_adjust_cfa_offset -40
	jmp	.LBB15_21
.Ltmp49:
.LBB15_14:                              # %..split.loop.exit.i_crit_edge
	.cfi_def_cfa_offset 64
	#DEBUG_VALUE: crypto_pwhash_scryptsalsa208sha256:out <- $rbx
	#DEBUG_VALUE: crypto_pwhash_scryptsalsa208sha256:outlen <- $r14
	#DEBUG_VALUE: crypto_pwhash_scryptsalsa208sha256:passwd <- $r13
	#DEBUG_VALUE: crypto_pwhash_scryptsalsa208sha256:passwdlen <- $r12
	#DEBUG_VALUE: crypto_pwhash_scryptsalsa208sha256:salt <- $r15
	#DEBUG_VALUE: crypto_pwhash_scryptsalsa208sha256:opslimit <- $rbp
	#DEBUG_VALUE: crypto_pwhash_scryptsalsa208sha256:memlimit <- [DW_OP_plus_uconst 64] [$rsp+0]
	#DEBUG_VALUE: pickparams:opslimit <- $rdx
	#DEBUG_VALUE: crypto_pwhash_scryptsalsa208sha256:r <- 8
	.loc	1 40 42                         # crypto_pwhash/scryptsalsa208sha256/pwhash_scryptsalsa208sha256.c:40:42 @[ crypto_pwhash/scryptsalsa208sha256/pwhash_scryptsalsa208sha256.c:176:9 ]
	decq	%rax
.Ltmp50:
.LBB15_15:                              # %.split.loop.exit36.i
	#DEBUG_VALUE: crypto_pwhash_scryptsalsa208sha256:out <- $rbx
	#DEBUG_VALUE: crypto_pwhash_scryptsalsa208sha256:outlen <- $r14
	#DEBUG_VALUE: crypto_pwhash_scryptsalsa208sha256:passwd <- $r13
	#DEBUG_VALUE: crypto_pwhash_scryptsalsa208sha256:passwdlen <- $r12
	#DEBUG_VALUE: crypto_pwhash_scryptsalsa208sha256:salt <- $r15
	#DEBUG_VALUE: crypto_pwhash_scryptsalsa208sha256:opslimit <- $rbp
	#DEBUG_VALUE: crypto_pwhash_scryptsalsa208sha256:memlimit <- [DW_OP_plus_uconst 64] [$rsp+0]
	#DEBUG_VALUE: pickparams:opslimit <- $rdx
	#DEBUG_VALUE: crypto_pwhash_scryptsalsa208sha256:r <- 8
	#DEBUG_VALUE: crypto_pwhash_scryptsalsa208sha256:N_log2 <- $eax
	.loc	1 44 27                         # crypto_pwhash/scryptsalsa208sha256/pwhash_scryptsalsa208sha256.c:44:27 @[ crypto_pwhash/scryptsalsa208sha256/pwhash_scryptsalsa208sha256.c:176:9 ]
	shrq	$2, %rdx
.Ltmp51:
	.loc	1 44 32 is_stmt 0               # crypto_pwhash/scryptsalsa208sha256/pwhash_scryptsalsa208sha256.c:44:32 @[ crypto_pwhash/scryptsalsa208sha256/pwhash_scryptsalsa208sha256.c:176:9 ]
	movl	%eax, %ecx
	shrq	%cl, %rdx
.Ltmp52:
	#DEBUG_VALUE: pickparams:maxrp <- $rdx
	.loc	1 46 19 is_stmt 1               # crypto_pwhash/scryptsalsa208sha256/pwhash_scryptsalsa208sha256.c:46:19 @[ crypto_pwhash/scryptsalsa208sha256/pwhash_scryptsalsa208sha256.c:176:9 ]
	cmpq	$1073741823, %rdx               # imm = 0x3FFFFFFF
	movl	$1073741823, %r10d              # imm = 0x3FFFFFFF
	cmovbq	%rdx, %r10
.Ltmp53:
	#DEBUG_VALUE: pickparams:maxrp <- $r10
	.loc	1 50 32                         # crypto_pwhash/scryptsalsa208sha256/pwhash_scryptsalsa208sha256.c:50:32 @[ crypto_pwhash/scryptsalsa208sha256/pwhash_scryptsalsa208sha256.c:176:9 ]
	shrl	$3, %r10d
.Ltmp54:
	#DEBUG_VALUE: crypto_pwhash_scryptsalsa208sha256:p <- $r10d
	#DEBUG_VALUE: crypto_pwhash_scryptsalsa208sha256:N_log2 <- $ecx
	#DEBUG_VALUE: crypto_pwhash_scryptsalsa208sha256:p <- $r10d
	.loc	1 180 28                        # crypto_pwhash/scryptsalsa208sha256/pwhash_scryptsalsa208sha256.c:180:28
	cmpq	%r13, %rbx
	jne	.LBB15_22
.Ltmp55:
.LBB15_19:
	#DEBUG_VALUE: crypto_pwhash_scryptsalsa208sha256:out <- $rbx
	#DEBUG_VALUE: crypto_pwhash_scryptsalsa208sha256:outlen <- $r14
	#DEBUG_VALUE: crypto_pwhash_scryptsalsa208sha256:passwd <- $r13
	#DEBUG_VALUE: crypto_pwhash_scryptsalsa208sha256:passwdlen <- $r12
	#DEBUG_VALUE: crypto_pwhash_scryptsalsa208sha256:salt <- $r15
	#DEBUG_VALUE: crypto_pwhash_scryptsalsa208sha256:opslimit <- $rbp
	#DEBUG_VALUE: crypto_pwhash_scryptsalsa208sha256:memlimit <- [DW_OP_plus_uconst 64] [$rsp+0]
	.loc	1 0 0 is_stmt 0                 # crypto_pwhash/scryptsalsa208sha256/pwhash_scryptsalsa208sha256.c:0
	callq	__errno_location@PLT
.Ltmp56:
	movl	$22, (%rax)
.Ltmp57:
.LBB15_20:
	#DEBUG_VALUE: crypto_pwhash_scryptsalsa208sha256:out <- $rbx
	#DEBUG_VALUE: crypto_pwhash_scryptsalsa208sha256:outlen <- $r14
	#DEBUG_VALUE: crypto_pwhash_scryptsalsa208sha256:passwd <- $r13
	#DEBUG_VALUE: crypto_pwhash_scryptsalsa208sha256:passwdlen <- $r12
	#DEBUG_VALUE: crypto_pwhash_scryptsalsa208sha256:salt <- $r15
	#DEBUG_VALUE: crypto_pwhash_scryptsalsa208sha256:opslimit <- $rbp
	#DEBUG_VALUE: crypto_pwhash_scryptsalsa208sha256:memlimit <- [DW_OP_plus_uconst 64] [$rsp+0]
	.loc	1 188 1 is_stmt 1               # crypto_pwhash/scryptsalsa208sha256/pwhash_scryptsalsa208sha256.c:188:1
	movl	$-1, %eax
	.loc	1 188 1 epilogue_begin is_stmt 0 # crypto_pwhash/scryptsalsa208sha256/pwhash_scryptsalsa208sha256.c:188:1
	addq	$8, %rsp
	.cfi_def_cfa_offset 56
.Ltmp58:
.LBB15_21:
	#DEBUG_VALUE: crypto_pwhash_scryptsalsa208sha256:out <- $rbx
	#DEBUG_VALUE: crypto_pwhash_scryptsalsa208sha256:outlen <- $r14
	#DEBUG_VALUE: crypto_pwhash_scryptsalsa208sha256:passwd <- $r13
	#DEBUG_VALUE: crypto_pwhash_scryptsalsa208sha256:passwdlen <- $r12
	#DEBUG_VALUE: crypto_pwhash_scryptsalsa208sha256:salt <- $r15
	#DEBUG_VALUE: crypto_pwhash_scryptsalsa208sha256:opslimit <- $rbp
	.loc	1 188 1 epilogue_begin is_stmt 1 # crypto_pwhash/scryptsalsa208sha256/pwhash_scryptsalsa208sha256.c:188:1
	popq	%rbx
.Ltmp59:
	#DEBUG_VALUE: crypto_pwhash_scryptsalsa208sha256:out <- [DW_OP_LLVM_entry_value 1] $rdi
	.cfi_def_cfa_offset 48
	popq	%r12
.Ltmp60:
	#DEBUG_VALUE: crypto_pwhash_scryptsalsa208sha256:passwdlen <- [DW_OP_LLVM_entry_value 1] $rcx
	.cfi_def_cfa_offset 40
	popq	%r13
.Ltmp61:
	#DEBUG_VALUE: crypto_pwhash_scryptsalsa208sha256:passwd <- [DW_OP_LLVM_entry_value 1] $rdx
	.cfi_def_cfa_offset 32
	popq	%r14
.Ltmp62:
	#DEBUG_VALUE: crypto_pwhash_scryptsalsa208sha256:outlen <- [DW_OP_LLVM_entry_value 1] $rsi
	.cfi_def_cfa_offset 24
	popq	%r15
.Ltmp63:
	#DEBUG_VALUE: crypto_pwhash_scryptsalsa208sha256:salt <- [DW_OP_LLVM_entry_value 1] $r8
	.cfi_def_cfa_offset 16
	popq	%rbp
.Ltmp64:
	#DEBUG_VALUE: crypto_pwhash_scryptsalsa208sha256:opslimit <- [DW_OP_LLVM_entry_value 1] $r9
	.cfi_def_cfa_offset 8
	retq
.Ltmp65:
.Lfunc_end15:
	.size	crypto_pwhash_scryptsalsa208sha256, .Lfunc_end15-crypto_pwhash_scryptsalsa208sha256
	.cfi_endproc
	.file	6 "/usr/include" "errno.h"
	.file	7 "./include/sodium" "crypto_pwhash_scryptsalsa208sha256.h"
                                        # -- End function
	.globl	crypto_pwhash_scryptsalsa208sha256_str # -- Begin function crypto_pwhash_scryptsalsa208sha256_str
	.p2align	4
	.type	crypto_pwhash_scryptsalsa208sha256_str,@function
crypto_pwhash_scryptsalsa208sha256_str: # @crypto_pwhash_scryptsalsa208sha256_str
.Lfunc_begin16:
	.loc	1 195 0                         # crypto_pwhash/scryptsalsa208sha256/pwhash_scryptsalsa208sha256.c:195:0
	.cfi_startproc
# %bb.0:
	#DEBUG_VALUE: crypto_pwhash_scryptsalsa208sha256_str:out <- $rdi
	#DEBUG_VALUE: crypto_pwhash_scryptsalsa208sha256_str:passwd <- $rsi
	#DEBUG_VALUE: crypto_pwhash_scryptsalsa208sha256_str:passwdlen <- $rdx
	#DEBUG_VALUE: crypto_pwhash_scryptsalsa208sha256_str:opslimit <- $rcx
	#DEBUG_VALUE: crypto_pwhash_scryptsalsa208sha256_str:memlimit <- $r8
	pushq	%rbp
	.cfi_def_cfa_offset 16
	pushq	%r15
	.cfi_def_cfa_offset 24
	pushq	%r14
	.cfi_def_cfa_offset 32
	pushq	%r13
	.cfi_def_cfa_offset 40
	pushq	%r12
	.cfi_def_cfa_offset 48
	pushq	%rbx
	.cfi_def_cfa_offset 56
	subq	$136, %rsp
	.cfi_def_cfa_offset 192
	.cfi_offset %rbx, -56
	.cfi_offset %r12, -48
	.cfi_offset %r13, -40
	.cfi_offset %r14, -32
	.cfi_offset %r15, -24
	.cfi_offset %rbp, -16
	movq	%rdx, %r14
	movq	%rsi, %r15
	movq	%rdi, %rbx
	movq	%fs:40, %rax
	movq	%rax, 128(%rsp)
.Ltmp66:
	#DEBUG_VALUE: memset:__dest <- $rbx
	#DEBUG_VALUE: memset:__ch <- 0
	#DEBUG_VALUE: memset:__len <- 102
	.loc	5 59 10 prologue_end            # /usr/include/x86_64-linux-gnu/bits/string_fortified.h:59:10 @[ crypto_pwhash/scryptsalsa208sha256/pwhash_scryptsalsa208sha256.c:203:5 ]
	xorps	%xmm0, %xmm0
	movups	%xmm0, 80(%rdi)
	movups	%xmm0, 64(%rdi)
	movups	%xmm0, 48(%rdi)
	movups	%xmm0, 32(%rdi)
	movups	%xmm0, 16(%rdi)
	movups	%xmm0, (%rdi)
.Ltmp67:
	#DEBUG_VALUE: pickparams:opslimit <- $rcx
	#DEBUG_VALUE: pickparams:memlimit <- $r8
	.loc	1 25 18                         # crypto_pwhash/scryptsalsa208sha256/pwhash_scryptsalsa208sha256.c:25:18 @[ crypto_pwhash/scryptsalsa208sha256/pwhash_scryptsalsa208sha256.c:209:9 ]
	cmpq	$32769, %rcx                    # imm = 0x8001
	movl	$32768, %eax                    # imm = 0x8000
	cmovaeq	%rcx, %rax
.Ltmp68:
	#DEBUG_VALUE: pickparams:opslimit <- $rax
	#DEBUG_VALUE: crypto_pwhash_scryptsalsa208sha256_str:r <- 8
	.loc	5 59 10                         # /usr/include/x86_64-linux-gnu/bits/string_fortified.h:59:10 @[ crypto_pwhash/scryptsalsa208sha256/pwhash_scryptsalsa208sha256.c:203:5 ]
	movq	$0, 94(%rdi)
.Ltmp69:
	.loc	1 29 29                         # crypto_pwhash/scryptsalsa208sha256/pwhash_scryptsalsa208sha256.c:29:29 @[ crypto_pwhash/scryptsalsa208sha256/pwhash_scryptsalsa208sha256.c:209:9 ]
	movq	%r8, %rcx
.Ltmp70:
	#DEBUG_VALUE: crypto_pwhash_scryptsalsa208sha256_str:opslimit <- [DW_OP_LLVM_entry_value 1] $rcx
	shrq	$5, %rcx
	.loc	1 29 18 is_stmt 0               # crypto_pwhash/scryptsalsa208sha256/pwhash_scryptsalsa208sha256.c:29:18 @[ crypto_pwhash/scryptsalsa208sha256/pwhash_scryptsalsa208sha256.c:209:9 ]
	cmpq	%rcx, %rax
	jae	.LBB16_1
.Ltmp71:
# %bb.6:
	#DEBUG_VALUE: crypto_pwhash_scryptsalsa208sha256_str:out <- $rbx
	#DEBUG_VALUE: crypto_pwhash_scryptsalsa208sha256_str:passwd <- $r15
	#DEBUG_VALUE: crypto_pwhash_scryptsalsa208sha256_str:passwdlen <- $r14
	#DEBUG_VALUE: crypto_pwhash_scryptsalsa208sha256_str:opslimit <- [DW_OP_LLVM_entry_value 1] $rcx
	#DEBUG_VALUE: crypto_pwhash_scryptsalsa208sha256_str:memlimit <- $r8
	#DEBUG_VALUE: pickparams:opslimit <- $rax
	#DEBUG_VALUE: pickparams:memlimit <- $r8
	#DEBUG_VALUE: crypto_pwhash_scryptsalsa208sha256_str:r <- 8
	#DEBUG_VALUE: crypto_pwhash_scryptsalsa208sha256_str:p <- 1
	.loc	1 31 25 is_stmt 1               # crypto_pwhash/scryptsalsa208sha256/pwhash_scryptsalsa208sha256.c:31:25 @[ crypto_pwhash/scryptsalsa208sha256/pwhash_scryptsalsa208sha256.c:209:9 ]
	shrq	$6, %rax
.Ltmp72:
	#DEBUG_VALUE: pickparams:maxN <- $rax
	.loc	1 0 25 is_stmt 0                # crypto_pwhash/scryptsalsa208sha256/pwhash_scryptsalsa208sha256.c:0:25
	movl	$2, %r12d
.Ltmp73:
	.p2align	4
.LBB16_7:                               # =>This Inner Loop Header: Depth=1
	#DEBUG_VALUE: crypto_pwhash_scryptsalsa208sha256_str:out <- $rbx
	#DEBUG_VALUE: crypto_pwhash_scryptsalsa208sha256_str:passwd <- $r15
	#DEBUG_VALUE: crypto_pwhash_scryptsalsa208sha256_str:passwdlen <- $r14
	#DEBUG_VALUE: crypto_pwhash_scryptsalsa208sha256_str:opslimit <- [DW_OP_LLVM_entry_value 1] $rcx
	#DEBUG_VALUE: crypto_pwhash_scryptsalsa208sha256_str:memlimit <- $r8
	#DEBUG_VALUE: pickparams:memlimit <- $r8
	#DEBUG_VALUE: crypto_pwhash_scryptsalsa208sha256_str:r <- 8
	#DEBUG_VALUE: crypto_pwhash_scryptsalsa208sha256_str:p <- 1
	#DEBUG_VALUE: pickparams:maxN <- $rax
	.loc	1 33 42 is_stmt 1               # crypto_pwhash/scryptsalsa208sha256/pwhash_scryptsalsa208sha256.c:33:42 @[ crypto_pwhash/scryptsalsa208sha256/pwhash_scryptsalsa208sha256.c:209:9 ]
	leal	-1(%r12), %ecx
	movq	%rax, %rdx
                                        # kill: def $cl killed $cl killed $ecx
	shrq	%cl, %rdx
	testq	%rdx, %rdx
	je	.LBB16_13
.Ltmp74:
# %bb.8:                                #   in Loop: Header=BB16_7 Depth=1
	#DEBUG_VALUE: crypto_pwhash_scryptsalsa208sha256_str:out <- $rbx
	#DEBUG_VALUE: crypto_pwhash_scryptsalsa208sha256_str:passwd <- $r15
	#DEBUG_VALUE: crypto_pwhash_scryptsalsa208sha256_str:passwdlen <- $r14
	#DEBUG_VALUE: crypto_pwhash_scryptsalsa208sha256_str:opslimit <- [DW_OP_LLVM_entry_value 1] $rcx
	#DEBUG_VALUE: crypto_pwhash_scryptsalsa208sha256_str:memlimit <- $r8
	#DEBUG_VALUE: pickparams:memlimit <- $r8
	#DEBUG_VALUE: crypto_pwhash_scryptsalsa208sha256_str:r <- 8
	#DEBUG_VALUE: crypto_pwhash_scryptsalsa208sha256_str:p <- 1
	#DEBUG_VALUE: pickparams:maxN <- $rax
	movq	%rax, %rdx
	movl	%r12d, %ecx
	shrq	%cl, %rdx
	testq	%rdx, %rdx
	je	.LBB16_14
.Ltmp75:
# %bb.9:                                #   in Loop: Header=BB16_7 Depth=1
	#DEBUG_VALUE: crypto_pwhash_scryptsalsa208sha256_str:out <- $rbx
	#DEBUG_VALUE: crypto_pwhash_scryptsalsa208sha256_str:passwd <- $r15
	#DEBUG_VALUE: crypto_pwhash_scryptsalsa208sha256_str:passwdlen <- $r14
	#DEBUG_VALUE: crypto_pwhash_scryptsalsa208sha256_str:opslimit <- [DW_OP_LLVM_entry_value 1] $rcx
	#DEBUG_VALUE: crypto_pwhash_scryptsalsa208sha256_str:memlimit <- $r8
	#DEBUG_VALUE: pickparams:memlimit <- $r8
	#DEBUG_VALUE: crypto_pwhash_scryptsalsa208sha256_str:r <- 8
	#DEBUG_VALUE: crypto_pwhash_scryptsalsa208sha256_str:p <- 1
	#DEBUG_VALUE: pickparams:maxN <- $rax
	.loc	1 32 35                         # crypto_pwhash/scryptsalsa208sha256/pwhash_scryptsalsa208sha256.c:32:35 @[ crypto_pwhash/scryptsalsa208sha256/pwhash_scryptsalsa208sha256.c:209:9 ]
	addq	$2, %r12
	cmpq	$64, %r12
.Ltmp76:
	.loc	1 32 9 is_stmt 0                # crypto_pwhash/scryptsalsa208sha256/pwhash_scryptsalsa208sha256.c:32:9 @[ crypto_pwhash/scryptsalsa208sha256/pwhash_scryptsalsa208sha256.c:209:9 ]
	jne	.LBB16_7
.Ltmp77:
# %bb.10:
	#DEBUG_VALUE: crypto_pwhash_scryptsalsa208sha256_str:out <- $rbx
	#DEBUG_VALUE: crypto_pwhash_scryptsalsa208sha256_str:passwd <- $r15
	#DEBUG_VALUE: crypto_pwhash_scryptsalsa208sha256_str:passwdlen <- $r14
	#DEBUG_VALUE: crypto_pwhash_scryptsalsa208sha256_str:opslimit <- [DW_OP_LLVM_entry_value 1] $rcx
	#DEBUG_VALUE: crypto_pwhash_scryptsalsa208sha256_str:memlimit <- $r8
	#DEBUG_VALUE: pickparams:memlimit <- $r8
	#DEBUG_VALUE: crypto_pwhash_scryptsalsa208sha256_str:r <- 8
	#DEBUG_VALUE: crypto_pwhash_scryptsalsa208sha256_str:p <- 1
	#DEBUG_VALUE: pickparams:maxN <- $rax
	.loc	1 0 9                           # crypto_pwhash/scryptsalsa208sha256/pwhash_scryptsalsa208sha256.c:0:9
	movl	$63, %r12d
	jmp	.LBB16_14
.Ltmp78:
.LBB16_1:                               # %.preheader.i
	#DEBUG_VALUE: crypto_pwhash_scryptsalsa208sha256_str:out <- $rbx
	#DEBUG_VALUE: crypto_pwhash_scryptsalsa208sha256_str:passwd <- $r15
	#DEBUG_VALUE: crypto_pwhash_scryptsalsa208sha256_str:passwdlen <- $r14
	#DEBUG_VALUE: crypto_pwhash_scryptsalsa208sha256_str:opslimit <- [DW_OP_LLVM_entry_value 1] $rcx
	#DEBUG_VALUE: crypto_pwhash_scryptsalsa208sha256_str:memlimit <- $r8
	#DEBUG_VALUE: memset:__dest <- $rbx
	#DEBUG_VALUE: memset:__ch <- 0
	#DEBUG_VALUE: memset:__len <- 102
	#DEBUG_VALUE: pickparams:opslimit <- $rax
	#DEBUG_VALUE: pickparams:memlimit <- $r8
	#DEBUG_VALUE: crypto_pwhash_scryptsalsa208sha256_str:r <- 8
	shrq	$11, %r8
.Ltmp79:
	#DEBUG_VALUE: crypto_pwhash_scryptsalsa208sha256_str:memlimit <- [DW_OP_LLVM_entry_value 1] $r8
	movl	$2, %r12d
.Ltmp80:
	.p2align	4
.LBB16_2:                               # =>This Inner Loop Header: Depth=1
	#DEBUG_VALUE: crypto_pwhash_scryptsalsa208sha256_str:out <- $rbx
	#DEBUG_VALUE: crypto_pwhash_scryptsalsa208sha256_str:passwd <- $r15
	#DEBUG_VALUE: crypto_pwhash_scryptsalsa208sha256_str:passwdlen <- $r14
	#DEBUG_VALUE: crypto_pwhash_scryptsalsa208sha256_str:opslimit <- [DW_OP_LLVM_entry_value 1] $rcx
	#DEBUG_VALUE: crypto_pwhash_scryptsalsa208sha256_str:memlimit <- [DW_OP_LLVM_entry_value 1] $r8
	#DEBUG_VALUE: pickparams:opslimit <- $rax
	#DEBUG_VALUE: crypto_pwhash_scryptsalsa208sha256_str:r <- 8
	.loc	1 40 42 is_stmt 1               # crypto_pwhash/scryptsalsa208sha256/pwhash_scryptsalsa208sha256.c:40:42 @[ crypto_pwhash/scryptsalsa208sha256/pwhash_scryptsalsa208sha256.c:209:9 ]
	leal	-1(%r12), %ecx
	movq	%r8, %rdx
                                        # kill: def $cl killed $cl killed $ecx
	shrq	%cl, %rdx
	testq	%rdx, %rdx
	je	.LBB16_11
.Ltmp81:
# %bb.3:                                #   in Loop: Header=BB16_2 Depth=1
	#DEBUG_VALUE: crypto_pwhash_scryptsalsa208sha256_str:out <- $rbx
	#DEBUG_VALUE: crypto_pwhash_scryptsalsa208sha256_str:passwd <- $r15
	#DEBUG_VALUE: crypto_pwhash_scryptsalsa208sha256_str:passwdlen <- $r14
	#DEBUG_VALUE: crypto_pwhash_scryptsalsa208sha256_str:opslimit <- [DW_OP_LLVM_entry_value 1] $rcx
	#DEBUG_VALUE: crypto_pwhash_scryptsalsa208sha256_str:memlimit <- [DW_OP_LLVM_entry_value 1] $r8
	#DEBUG_VALUE: pickparams:opslimit <- $rax
	#DEBUG_VALUE: crypto_pwhash_scryptsalsa208sha256_str:r <- 8
	movq	%r8, %rdx
	movl	%r12d, %ecx
	shrq	%cl, %rdx
	testq	%rdx, %rdx
	je	.LBB16_12
.Ltmp82:
# %bb.4:                                #   in Loop: Header=BB16_2 Depth=1
	#DEBUG_VALUE: crypto_pwhash_scryptsalsa208sha256_str:out <- $rbx
	#DEBUG_VALUE: crypto_pwhash_scryptsalsa208sha256_str:passwd <- $r15
	#DEBUG_VALUE: crypto_pwhash_scryptsalsa208sha256_str:passwdlen <- $r14
	#DEBUG_VALUE: crypto_pwhash_scryptsalsa208sha256_str:opslimit <- [DW_OP_LLVM_entry_value 1] $rcx
	#DEBUG_VALUE: crypto_pwhash_scryptsalsa208sha256_str:memlimit <- [DW_OP_LLVM_entry_value 1] $r8
	#DEBUG_VALUE: pickparams:opslimit <- $rax
	#DEBUG_VALUE: crypto_pwhash_scryptsalsa208sha256_str:r <- 8
	.loc	1 39 35                         # crypto_pwhash/scryptsalsa208sha256/pwhash_scryptsalsa208sha256.c:39:35 @[ crypto_pwhash/scryptsalsa208sha256/pwhash_scryptsalsa208sha256.c:209:9 ]
	addq	$2, %r12
	cmpq	$64, %r12
.Ltmp83:
	.loc	1 39 9 is_stmt 0                # crypto_pwhash/scryptsalsa208sha256/pwhash_scryptsalsa208sha256.c:39:9 @[ crypto_pwhash/scryptsalsa208sha256/pwhash_scryptsalsa208sha256.c:209:9 ]
	jne	.LBB16_2
.Ltmp84:
# %bb.5:
	#DEBUG_VALUE: crypto_pwhash_scryptsalsa208sha256_str:out <- $rbx
	#DEBUG_VALUE: crypto_pwhash_scryptsalsa208sha256_str:passwd <- $r15
	#DEBUG_VALUE: crypto_pwhash_scryptsalsa208sha256_str:passwdlen <- $r14
	#DEBUG_VALUE: crypto_pwhash_scryptsalsa208sha256_str:opslimit <- [DW_OP_LLVM_entry_value 1] $rcx
	#DEBUG_VALUE: crypto_pwhash_scryptsalsa208sha256_str:memlimit <- [DW_OP_LLVM_entry_value 1] $r8
	#DEBUG_VALUE: pickparams:opslimit <- $rax
	#DEBUG_VALUE: crypto_pwhash_scryptsalsa208sha256_str:r <- 8
	.loc	1 0 9                           # crypto_pwhash/scryptsalsa208sha256/pwhash_scryptsalsa208sha256.c:0:9
	movl	$63, %r12d
	.loc	1 39 9                          # crypto_pwhash/scryptsalsa208sha256/pwhash_scryptsalsa208sha256.c:39:9 @[ crypto_pwhash/scryptsalsa208sha256/pwhash_scryptsalsa208sha256.c:209:9 ]
	jmp	.LBB16_12
.Ltmp85:
.LBB16_13:                              # %..loopexit.split.loop.exit.i_crit_edge
	#DEBUG_VALUE: crypto_pwhash_scryptsalsa208sha256_str:out <- $rbx
	#DEBUG_VALUE: crypto_pwhash_scryptsalsa208sha256_str:passwd <- $r15
	#DEBUG_VALUE: crypto_pwhash_scryptsalsa208sha256_str:passwdlen <- $r14
	#DEBUG_VALUE: crypto_pwhash_scryptsalsa208sha256_str:opslimit <- [DW_OP_LLVM_entry_value 1] $rcx
	#DEBUG_VALUE: crypto_pwhash_scryptsalsa208sha256_str:memlimit <- $r8
	#DEBUG_VALUE: pickparams:memlimit <- $r8
	#DEBUG_VALUE: crypto_pwhash_scryptsalsa208sha256_str:r <- 8
	#DEBUG_VALUE: crypto_pwhash_scryptsalsa208sha256_str:p <- 1
	#DEBUG_VALUE: pickparams:maxN <- $rax
	.loc	1 33 42 is_stmt 1               # crypto_pwhash/scryptsalsa208sha256/pwhash_scryptsalsa208sha256.c:33:42 @[ crypto_pwhash/scryptsalsa208sha256/pwhash_scryptsalsa208sha256.c:209:9 ]
	decq	%r12
.Ltmp86:
.LBB16_14:                              # %.loopexit.split.loop.exit.i
	#DEBUG_VALUE: crypto_pwhash_scryptsalsa208sha256_str:out <- $rbx
	#DEBUG_VALUE: crypto_pwhash_scryptsalsa208sha256_str:passwd <- $r15
	#DEBUG_VALUE: crypto_pwhash_scryptsalsa208sha256_str:passwdlen <- $r14
	#DEBUG_VALUE: crypto_pwhash_scryptsalsa208sha256_str:opslimit <- [DW_OP_LLVM_entry_value 1] $rcx
	#DEBUG_VALUE: crypto_pwhash_scryptsalsa208sha256_str:memlimit <- $r8
	#DEBUG_VALUE: pickparams:memlimit <- $r8
	#DEBUG_VALUE: crypto_pwhash_scryptsalsa208sha256_str:r <- 8
	#DEBUG_VALUE: crypto_pwhash_scryptsalsa208sha256_str:p <- 1
	#DEBUG_VALUE: pickparams:maxN <- $rax
	.loc	1 0 42 is_stmt 0                # crypto_pwhash/scryptsalsa208sha256/pwhash_scryptsalsa208sha256.c:0:42
	movl	$1, %r13d
	jmp	.LBB16_15
.Ltmp87:
.LBB16_11:                              # %..split.loop.exit.i_crit_edge
	#DEBUG_VALUE: crypto_pwhash_scryptsalsa208sha256_str:out <- $rbx
	#DEBUG_VALUE: crypto_pwhash_scryptsalsa208sha256_str:passwd <- $r15
	#DEBUG_VALUE: crypto_pwhash_scryptsalsa208sha256_str:passwdlen <- $r14
	#DEBUG_VALUE: crypto_pwhash_scryptsalsa208sha256_str:opslimit <- [DW_OP_LLVM_entry_value 1] $rcx
	#DEBUG_VALUE: crypto_pwhash_scryptsalsa208sha256_str:memlimit <- [DW_OP_LLVM_entry_value 1] $r8
	#DEBUG_VALUE: pickparams:opslimit <- $rax
	#DEBUG_VALUE: crypto_pwhash_scryptsalsa208sha256_str:r <- 8
	.loc	1 40 42 is_stmt 1               # crypto_pwhash/scryptsalsa208sha256/pwhash_scryptsalsa208sha256.c:40:42 @[ crypto_pwhash/scryptsalsa208sha256/pwhash_scryptsalsa208sha256.c:209:9 ]
	decq	%r12
.Ltmp88:
.LBB16_12:                              # %.split.loop.exit36.i
	#DEBUG_VALUE: crypto_pwhash_scryptsalsa208sha256_str:out <- $rbx
	#DEBUG_VALUE: crypto_pwhash_scryptsalsa208sha256_str:passwd <- $r15
	#DEBUG_VALUE: crypto_pwhash_scryptsalsa208sha256_str:passwdlen <- $r14
	#DEBUG_VALUE: crypto_pwhash_scryptsalsa208sha256_str:opslimit <- [DW_OP_LLVM_entry_value 1] $rcx
	#DEBUG_VALUE: crypto_pwhash_scryptsalsa208sha256_str:memlimit <- [DW_OP_LLVM_entry_value 1] $r8
	#DEBUG_VALUE: pickparams:opslimit <- $rax
	#DEBUG_VALUE: crypto_pwhash_scryptsalsa208sha256_str:r <- 8
	#DEBUG_VALUE: crypto_pwhash_scryptsalsa208sha256_str:N_log2 <- $r12d
	.loc	1 44 27                         # crypto_pwhash/scryptsalsa208sha256/pwhash_scryptsalsa208sha256.c:44:27 @[ crypto_pwhash/scryptsalsa208sha256/pwhash_scryptsalsa208sha256.c:209:9 ]
	shrq	$2, %rax
.Ltmp89:
	.loc	1 44 32 is_stmt 0               # crypto_pwhash/scryptsalsa208sha256/pwhash_scryptsalsa208sha256.c:44:32 @[ crypto_pwhash/scryptsalsa208sha256/pwhash_scryptsalsa208sha256.c:209:9 ]
	movl	%r12d, %ecx
	shrq	%cl, %rax
.Ltmp90:
	#DEBUG_VALUE: pickparams:maxrp <- $rax
	.loc	1 46 19 is_stmt 1               # crypto_pwhash/scryptsalsa208sha256/pwhash_scryptsalsa208sha256.c:46:19 @[ crypto_pwhash/scryptsalsa208sha256/pwhash_scryptsalsa208sha256.c:209:9 ]
	cmpq	$1073741823, %rax               # imm = 0x3FFFFFFF
	movl	$1073741823, %r13d              # imm = 0x3FFFFFFF
	cmovbq	%rax, %r13
.Ltmp91:
	#DEBUG_VALUE: pickparams:maxrp <- $r13
	.loc	1 50 32                         # crypto_pwhash/scryptsalsa208sha256/pwhash_scryptsalsa208sha256.c:50:32 @[ crypto_pwhash/scryptsalsa208sha256/pwhash_scryptsalsa208sha256.c:209:9 ]
	shrl	$3, %r13d
.Ltmp92:
	#DEBUG_VALUE: crypto_pwhash_scryptsalsa208sha256_str:p <- $r13d
.LBB16_15:                              # %pickparams.exit
	#DEBUG_VALUE: crypto_pwhash_scryptsalsa208sha256_str:out <- $rbx
	#DEBUG_VALUE: crypto_pwhash_scryptsalsa208sha256_str:passwd <- $r15
	#DEBUG_VALUE: crypto_pwhash_scryptsalsa208sha256_str:passwdlen <- $r14
	#DEBUG_VALUE: crypto_pwhash_scryptsalsa208sha256_str:opslimit <- [DW_OP_LLVM_entry_value 1] $rcx
	#DEBUG_VALUE: crypto_pwhash_scryptsalsa208sha256_str:memlimit <- [DW_OP_LLVM_entry_value 1] $r8
	#DEBUG_VALUE: crypto_pwhash_scryptsalsa208sha256_str:r <- 8
	#DEBUG_VALUE: crypto_pwhash_scryptsalsa208sha256_str:N_log2 <- $r12d
	#DEBUG_VALUE: crypto_pwhash_scryptsalsa208sha256_str:p <- $r13d
	.loc	1 0 32 is_stmt 0                # crypto_pwhash/scryptsalsa208sha256/pwhash_scryptsalsa208sha256.c:0:32
	leaq	96(%rsp), %rbp
	.loc	1 213 5 is_stmt 1               # crypto_pwhash/scryptsalsa208sha256/pwhash_scryptsalsa208sha256.c:213:5
	movl	$32, %esi
	movq	%rbp, %rdi
	callq	randombytes_buf@PLT
.Ltmp93:
	.loc	1 214 9                         # crypto_pwhash/scryptsalsa208sha256/pwhash_scryptsalsa208sha256.c:214:9
	movq	$58, (%rsp)
	leaq	32(%rsp), %r9
	movl	$32, %r8d
	movl	%r12d, %edi
	movl	$8, %esi
	movl	%r13d, %edx
	movq	%rbp, %rcx
	callq	escrypt_gensalt_r@PLT
.Ltmp94:
	.loc	1 215 43                        # crypto_pwhash/scryptsalsa208sha256/pwhash_scryptsalsa208sha256.c:215:43
	testq	%rax, %rax
	je	.LBB16_18
.Ltmp95:
# %bb.16:
	#DEBUG_VALUE: crypto_pwhash_scryptsalsa208sha256_str:out <- $rbx
	#DEBUG_VALUE: crypto_pwhash_scryptsalsa208sha256_str:passwd <- $r15
	#DEBUG_VALUE: crypto_pwhash_scryptsalsa208sha256_str:passwdlen <- $r14
	#DEBUG_VALUE: crypto_pwhash_scryptsalsa208sha256_str:opslimit <- [DW_OP_LLVM_entry_value 1] $rcx
	#DEBUG_VALUE: crypto_pwhash_scryptsalsa208sha256_str:memlimit <- [DW_OP_LLVM_entry_value 1] $r8
	#DEBUG_VALUE: crypto_pwhash_scryptsalsa208sha256_str:r <- 8
	#DEBUG_VALUE: crypto_pwhash_scryptsalsa208sha256_str:N_log2 <- $r12d
	#DEBUG_VALUE: crypto_pwhash_scryptsalsa208sha256_str:p <- $r13d
	.loc	1 0 43 is_stmt 0                # crypto_pwhash/scryptsalsa208sha256/pwhash_scryptsalsa208sha256.c:0:43
	leaq	8(%rsp), %rdi
.Ltmp96:
	.loc	1 219 9 is_stmt 1               # crypto_pwhash/scryptsalsa208sha256/pwhash_scryptsalsa208sha256.c:219:9
	callq	escrypt_init_local@PLT
.Ltmp97:
	movl	%eax, %ecx
	movl	$-1, %eax
	.loc	1 219 44 is_stmt 0              # crypto_pwhash/scryptsalsa208sha256/pwhash_scryptsalsa208sha256.c:219:44
	testl	%ecx, %ecx
	jne	.LBB16_19
.Ltmp98:
# %bb.17:
	#DEBUG_VALUE: crypto_pwhash_scryptsalsa208sha256_str:out <- $rbx
	#DEBUG_VALUE: crypto_pwhash_scryptsalsa208sha256_str:passwd <- $r15
	#DEBUG_VALUE: crypto_pwhash_scryptsalsa208sha256_str:passwdlen <- $r14
	#DEBUG_VALUE: crypto_pwhash_scryptsalsa208sha256_str:opslimit <- [DW_OP_LLVM_entry_value 1] $rcx
	#DEBUG_VALUE: crypto_pwhash_scryptsalsa208sha256_str:memlimit <- [DW_OP_LLVM_entry_value 1] $r8
	#DEBUG_VALUE: crypto_pwhash_scryptsalsa208sha256_str:r <- 8
	#DEBUG_VALUE: crypto_pwhash_scryptsalsa208sha256_str:N_log2 <- $r12d
	#DEBUG_VALUE: crypto_pwhash_scryptsalsa208sha256_str:p <- $r13d
	.loc	1 0 44                          # crypto_pwhash/scryptsalsa208sha256/pwhash_scryptsalsa208sha256.c:0:44
	leaq	8(%rsp), %r12
.Ltmp99:
	leaq	32(%rsp), %rcx
.Ltmp100:
	.loc	1 222 9 is_stmt 1               # crypto_pwhash/scryptsalsa208sha256/pwhash_scryptsalsa208sha256.c:222:9
	movl	$102, %r9d
	movq	%r12, %rdi
	movq	%r15, %rsi
	movq	%r14, %rdx
	movq	%rbx, %r8
	callq	escrypt_r@PLT
.Ltmp101:
	movq	%rax, %rbx
.Ltmp102:
	#DEBUG_VALUE: crypto_pwhash_scryptsalsa208sha256_str:out <- [DW_OP_LLVM_entry_value 1] $rdi
	.loc	1 0 0 is_stmt 0                 # crypto_pwhash/scryptsalsa208sha256/pwhash_scryptsalsa208sha256.c:0
	movq	%r12, %rdi
	callq	escrypt_free_local@PLT
.Ltmp103:
	xorl	%eax, %eax
.Ltmp104:
	.loc	1 224 25 is_stmt 1              # crypto_pwhash/scryptsalsa208sha256/pwhash_scryptsalsa208sha256.c:224:25
	testq	%rbx, %rbx
	jne	.LBB16_19
.Ltmp105:
.LBB16_18:                              # %.sink.split
	#DEBUG_VALUE: crypto_pwhash_scryptsalsa208sha256_str:out <- [DW_OP_LLVM_entry_value 1] $rdi
	#DEBUG_VALUE: crypto_pwhash_scryptsalsa208sha256_str:passwd <- $r15
	#DEBUG_VALUE: crypto_pwhash_scryptsalsa208sha256_str:passwdlen <- $r14
	#DEBUG_VALUE: crypto_pwhash_scryptsalsa208sha256_str:opslimit <- [DW_OP_LLVM_entry_value 1] $rcx
	#DEBUG_VALUE: crypto_pwhash_scryptsalsa208sha256_str:memlimit <- [DW_OP_LLVM_entry_value 1] $r8
	#DEBUG_VALUE: crypto_pwhash_scryptsalsa208sha256_str:r <- 8
	#DEBUG_VALUE: crypto_pwhash_scryptsalsa208sha256_str:p <- $r13d
	.loc	1 0 0 is_stmt 0                 # crypto_pwhash/scryptsalsa208sha256/pwhash_scryptsalsa208sha256.c:0
	callq	__errno_location@PLT
.Ltmp106:
	movl	$22, (%rax)
	movl	$-1, %eax
.Ltmp107:
.LBB16_19:
	#DEBUG_VALUE: crypto_pwhash_scryptsalsa208sha256_str:out <- [DW_OP_LLVM_entry_value 1] $rdi
	#DEBUG_VALUE: crypto_pwhash_scryptsalsa208sha256_str:passwd <- $r15
	#DEBUG_VALUE: crypto_pwhash_scryptsalsa208sha256_str:passwdlen <- $r14
	#DEBUG_VALUE: crypto_pwhash_scryptsalsa208sha256_str:opslimit <- [DW_OP_LLVM_entry_value 1] $rcx
	#DEBUG_VALUE: crypto_pwhash_scryptsalsa208sha256_str:memlimit <- [DW_OP_LLVM_entry_value 1] $r8
	#DEBUG_VALUE: crypto_pwhash_scryptsalsa208sha256_str:r <- 8
	#DEBUG_VALUE: crypto_pwhash_scryptsalsa208sha256_str:p <- $r13d
	.loc	1 242 1 is_stmt 1               # crypto_pwhash/scryptsalsa208sha256/pwhash_scryptsalsa208sha256.c:242:1
	movq	%fs:40, %rcx
	cmpq	128(%rsp), %rcx
	jne	.LBB16_21
.Ltmp108:
# %bb.20:                               # %SP_return
	#DEBUG_VALUE: crypto_pwhash_scryptsalsa208sha256_str:out <- [DW_OP_LLVM_entry_value 1] $rdi
	#DEBUG_VALUE: crypto_pwhash_scryptsalsa208sha256_str:passwd <- $r15
	#DEBUG_VALUE: crypto_pwhash_scryptsalsa208sha256_str:passwdlen <- $r14
	#DEBUG_VALUE: crypto_pwhash_scryptsalsa208sha256_str:opslimit <- [DW_OP_LLVM_entry_value 1] $rcx
	#DEBUG_VALUE: crypto_pwhash_scryptsalsa208sha256_str:memlimit <- [DW_OP_LLVM_entry_value 1] $r8
	#DEBUG_VALUE: crypto_pwhash_scryptsalsa208sha256_str:r <- 8
	#DEBUG_VALUE: crypto_pwhash_scryptsalsa208sha256_str:p <- $r13d
	.loc	1 242 1 epilogue_begin is_stmt 0 # crypto_pwhash/scryptsalsa208sha256/pwhash_scryptsalsa208sha256.c:242:1
	addq	$136, %rsp
	.cfi_def_cfa_offset 56
	popq	%rbx
	.cfi_def_cfa_offset 48
	popq	%r12
	.cfi_def_cfa_offset 40
	popq	%r13
.Ltmp109:
	.cfi_def_cfa_offset 32
	popq	%r14
.Ltmp110:
	#DEBUG_VALUE: crypto_pwhash_scryptsalsa208sha256_str:passwdlen <- [DW_OP_LLVM_entry_value 1] $rdx
	.cfi_def_cfa_offset 24
	popq	%r15
.Ltmp111:
	#DEBUG_VALUE: crypto_pwhash_scryptsalsa208sha256_str:passwd <- [DW_OP_LLVM_entry_value 1] $rsi
	.cfi_def_cfa_offset 16
	popq	%rbp
	.cfi_def_cfa_offset 8
	retq
.Ltmp112:
.LBB16_21:                              # %CallStackCheckFailBlk
	.cfi_def_cfa_offset 192
	#DEBUG_VALUE: crypto_pwhash_scryptsalsa208sha256_str:out <- [DW_OP_LLVM_entry_value 1] $rdi
	#DEBUG_VALUE: crypto_pwhash_scryptsalsa208sha256_str:passwd <- $r15
	#DEBUG_VALUE: crypto_pwhash_scryptsalsa208sha256_str:passwdlen <- $r14
	#DEBUG_VALUE: crypto_pwhash_scryptsalsa208sha256_str:opslimit <- [DW_OP_LLVM_entry_value 1] $rcx
	#DEBUG_VALUE: crypto_pwhash_scryptsalsa208sha256_str:memlimit <- [DW_OP_LLVM_entry_value 1] $r8
	#DEBUG_VALUE: crypto_pwhash_scryptsalsa208sha256_str:r <- 8
	#DEBUG_VALUE: crypto_pwhash_scryptsalsa208sha256_str:p <- $r13d
	.loc	1 0 0                           # crypto_pwhash/scryptsalsa208sha256/pwhash_scryptsalsa208sha256.c:0
	callq	__stack_chk_fail@PLT
.Ltmp113:
.Lfunc_end16:
	.size	crypto_pwhash_scryptsalsa208sha256_str, .Lfunc_end16-crypto_pwhash_scryptsalsa208sha256_str
	.cfi_endproc
	.file	8 "./include/sodium" "randombytes.h"
	.file	9 "crypto_pwhash/scryptsalsa208sha256" "crypto_scrypt.h"
                                        # -- End function
	.globl	crypto_pwhash_scryptsalsa208sha256_str_verify # -- Begin function crypto_pwhash_scryptsalsa208sha256_str_verify
	.p2align	4
	.type	crypto_pwhash_scryptsalsa208sha256_str_verify,@function
crypto_pwhash_scryptsalsa208sha256_str_verify: # @crypto_pwhash_scryptsalsa208sha256_str_verify
.Lfunc_begin17:
	.loc	1 248 0 is_stmt 1               # crypto_pwhash/scryptsalsa208sha256/pwhash_scryptsalsa208sha256.c:248:0
	.cfi_startproc
# %bb.0:
	#DEBUG_VALUE: crypto_pwhash_scryptsalsa208sha256_str_verify:str <- $rdi
	#DEBUG_VALUE: crypto_pwhash_scryptsalsa208sha256_str_verify:passwd <- $rsi
	#DEBUG_VALUE: crypto_pwhash_scryptsalsa208sha256_str_verify:passwdlen <- $rdx
	pushq	%rbp
	.cfi_def_cfa_offset 16
	pushq	%r15
	.cfi_def_cfa_offset 24
	pushq	%r14
	.cfi_def_cfa_offset 32
	pushq	%r12
	.cfi_def_cfa_offset 40
	pushq	%rbx
	.cfi_def_cfa_offset 48
	subq	$144, %rsp
	.cfi_def_cfa_offset 192
	.cfi_offset %rbx, -48
	.cfi_offset %r12, -40
	.cfi_offset %r14, -32
	.cfi_offset %r15, -24
	.cfi_offset %rbp, -16
	movq	%rdi, %rbx
	movq	%fs:40, %rax
	movq	%rax, 136(%rsp)
.Ltmp114:
	#DEBUG_VALUE: crypto_pwhash_scryptsalsa208sha256_str_verify:ret <- -1
	#DEBUG_VALUE: sodium_strnlen:str <- undef
	#DEBUG_VALUE: sodium_strnlen:maxlen <- 102
	#DEBUG_VALUE: sodium_strnlen:i <- 0
	#MEMBARRIER
	movl	$5, %eax
.Ltmp115:
	.loc	1 0 0 is_stmt 0                 # :0:0
.Ltmp116:
	.p2align	4
.LBB17_1:                               # =>This Inner Loop Header: Depth=1
	#DEBUG_VALUE: crypto_pwhash_scryptsalsa208sha256_str_verify:str <- $rbx
	#DEBUG_VALUE: crypto_pwhash_scryptsalsa208sha256_str_verify:passwd <- $rsi
	#DEBUG_VALUE: crypto_pwhash_scryptsalsa208sha256_str_verify:passwdlen <- $rdx
	#DEBUG_VALUE: crypto_pwhash_scryptsalsa208sha256_str_verify:ret <- -1
	#DEBUG_VALUE: sodium_strnlen:maxlen <- 102
	#DEBUG_VALUE: sodium_strnlen:i <- [DW_OP_constu 5, DW_OP_minus, DW_OP_stack_value] $rax
	.loc	1 61 33 prologue_end is_stmt 1  # crypto_pwhash/scryptsalsa208sha256/pwhash_scryptsalsa208sha256.c:61:33 @[ crypto_pwhash/scryptsalsa208sha256/pwhash_scryptsalsa208sha256.c:253:9 ]
	cmpb	$0, -5(%rbx,%rax)
	.loc	1 61 5 is_stmt 0                # crypto_pwhash/scryptsalsa208sha256/pwhash_scryptsalsa208sha256.c:61:5 @[ crypto_pwhash/scryptsalsa208sha256/pwhash_scryptsalsa208sha256.c:253:9 ]
	je	.LBB17_9
.Ltmp117:
# %bb.2:                                #   in Loop: Header=BB17_1 Depth=1
	#DEBUG_VALUE: crypto_pwhash_scryptsalsa208sha256_str_verify:str <- $rbx
	#DEBUG_VALUE: crypto_pwhash_scryptsalsa208sha256_str_verify:passwd <- $rsi
	#DEBUG_VALUE: crypto_pwhash_scryptsalsa208sha256_str_verify:passwdlen <- $rdx
	#DEBUG_VALUE: crypto_pwhash_scryptsalsa208sha256_str_verify:ret <- -1
	#DEBUG_VALUE: sodium_strnlen:maxlen <- 102
	#DEBUG_VALUE: sodium_strnlen:i <- [DW_OP_constu 5, DW_OP_minus, DW_OP_stack_value] $rax
	#DEBUG_VALUE: sodium_strnlen:i <- [DW_OP_constu 4, DW_OP_minus, DW_OP_stack_value] $rax
	.loc	1 61 33                         # crypto_pwhash/scryptsalsa208sha256/pwhash_scryptsalsa208sha256.c:61:33 @[ crypto_pwhash/scryptsalsa208sha256/pwhash_scryptsalsa208sha256.c:253:9 ]
	cmpb	$0, -4(%rbx,%rax)
	.loc	1 61 5                          # crypto_pwhash/scryptsalsa208sha256/pwhash_scryptsalsa208sha256.c:61:5 @[ crypto_pwhash/scryptsalsa208sha256/pwhash_scryptsalsa208sha256.c:253:9 ]
	je	.LBB17_13
.Ltmp118:
# %bb.3:                                #   in Loop: Header=BB17_1 Depth=1
	#DEBUG_VALUE: crypto_pwhash_scryptsalsa208sha256_str_verify:str <- $rbx
	#DEBUG_VALUE: crypto_pwhash_scryptsalsa208sha256_str_verify:passwd <- $rsi
	#DEBUG_VALUE: crypto_pwhash_scryptsalsa208sha256_str_verify:passwdlen <- $rdx
	#DEBUG_VALUE: crypto_pwhash_scryptsalsa208sha256_str_verify:ret <- -1
	#DEBUG_VALUE: sodium_strnlen:maxlen <- 102
	#DEBUG_VALUE: sodium_strnlen:i <- [DW_OP_constu 4, DW_OP_minus, DW_OP_stack_value] $rax
	#DEBUG_VALUE: sodium_strnlen:i <- [DW_OP_constu 3, DW_OP_minus, DW_OP_stack_value] $rax
	.loc	1 61 33                         # crypto_pwhash/scryptsalsa208sha256/pwhash_scryptsalsa208sha256.c:61:33 @[ crypto_pwhash/scryptsalsa208sha256/pwhash_scryptsalsa208sha256.c:253:9 ]
	cmpb	$0, -3(%rbx,%rax)
	.loc	1 61 5                          # crypto_pwhash/scryptsalsa208sha256/pwhash_scryptsalsa208sha256.c:61:5 @[ crypto_pwhash/scryptsalsa208sha256/pwhash_scryptsalsa208sha256.c:253:9 ]
	je	.LBB17_10
.Ltmp119:
# %bb.4:                                #   in Loop: Header=BB17_1 Depth=1
	#DEBUG_VALUE: crypto_pwhash_scryptsalsa208sha256_str_verify:str <- $rbx
	#DEBUG_VALUE: crypto_pwhash_scryptsalsa208sha256_str_verify:passwd <- $rsi
	#DEBUG_VALUE: crypto_pwhash_scryptsalsa208sha256_str_verify:passwdlen <- $rdx
	#DEBUG_VALUE: crypto_pwhash_scryptsalsa208sha256_str_verify:ret <- -1
	#DEBUG_VALUE: sodium_strnlen:maxlen <- 102
	#DEBUG_VALUE: sodium_strnlen:i <- [DW_OP_constu 3, DW_OP_minus, DW_OP_stack_value] $rax
	#DEBUG_VALUE: sodium_strnlen:i <- [DW_OP_constu 2, DW_OP_minus, DW_OP_stack_value] $rax
	.loc	1 61 33                         # crypto_pwhash/scryptsalsa208sha256/pwhash_scryptsalsa208sha256.c:61:33 @[ crypto_pwhash/scryptsalsa208sha256/pwhash_scryptsalsa208sha256.c:253:9 ]
	cmpb	$0, -2(%rbx,%rax)
	.loc	1 61 5                          # crypto_pwhash/scryptsalsa208sha256/pwhash_scryptsalsa208sha256.c:61:5 @[ crypto_pwhash/scryptsalsa208sha256/pwhash_scryptsalsa208sha256.c:253:9 ]
	je	.LBB17_11
.Ltmp120:
# %bb.5:                                #   in Loop: Header=BB17_1 Depth=1
	#DEBUG_VALUE: crypto_pwhash_scryptsalsa208sha256_str_verify:str <- $rbx
	#DEBUG_VALUE: crypto_pwhash_scryptsalsa208sha256_str_verify:passwd <- $rsi
	#DEBUG_VALUE: crypto_pwhash_scryptsalsa208sha256_str_verify:passwdlen <- $rdx
	#DEBUG_VALUE: crypto_pwhash_scryptsalsa208sha256_str_verify:ret <- -1
	#DEBUG_VALUE: sodium_strnlen:maxlen <- 102
	#DEBUG_VALUE: sodium_strnlen:i <- [DW_OP_constu 2, DW_OP_minus, DW_OP_stack_value] $rax
	#DEBUG_VALUE: sodium_strnlen:i <- [DW_OP_constu 1, DW_OP_minus, DW_OP_stack_value] $rax
	.loc	1 61 33                         # crypto_pwhash/scryptsalsa208sha256/pwhash_scryptsalsa208sha256.c:61:33 @[ crypto_pwhash/scryptsalsa208sha256/pwhash_scryptsalsa208sha256.c:253:9 ]
	cmpb	$0, -1(%rbx,%rax)
	.loc	1 61 5                          # crypto_pwhash/scryptsalsa208sha256/pwhash_scryptsalsa208sha256.c:61:5 @[ crypto_pwhash/scryptsalsa208sha256/pwhash_scryptsalsa208sha256.c:253:9 ]
	je	.LBB17_12
.Ltmp121:
# %bb.6:                                #   in Loop: Header=BB17_1 Depth=1
	#DEBUG_VALUE: crypto_pwhash_scryptsalsa208sha256_str_verify:str <- $rbx
	#DEBUG_VALUE: crypto_pwhash_scryptsalsa208sha256_str_verify:passwd <- $rsi
	#DEBUG_VALUE: crypto_pwhash_scryptsalsa208sha256_str_verify:passwdlen <- $rdx
	#DEBUG_VALUE: crypto_pwhash_scryptsalsa208sha256_str_verify:ret <- -1
	#DEBUG_VALUE: sodium_strnlen:maxlen <- 102
	#DEBUG_VALUE: sodium_strnlen:i <- [DW_OP_constu 1, DW_OP_minus, DW_OP_stack_value] $rax
	#DEBUG_VALUE: sodium_strnlen:i <- $rax
	.loc	1 61 33                         # crypto_pwhash/scryptsalsa208sha256/pwhash_scryptsalsa208sha256.c:61:33 @[ crypto_pwhash/scryptsalsa208sha256/pwhash_scryptsalsa208sha256.c:253:9 ]
	cmpb	$0, (%rbx,%rax)
	.loc	1 61 5                          # crypto_pwhash/scryptsalsa208sha256/pwhash_scryptsalsa208sha256.c:61:5 @[ crypto_pwhash/scryptsalsa208sha256/pwhash_scryptsalsa208sha256.c:253:9 ]
	je	.LBB17_14
.Ltmp122:
# %bb.7:                                #   in Loop: Header=BB17_1 Depth=1
	#DEBUG_VALUE: crypto_pwhash_scryptsalsa208sha256_str_verify:str <- $rbx
	#DEBUG_VALUE: crypto_pwhash_scryptsalsa208sha256_str_verify:passwd <- $rsi
	#DEBUG_VALUE: crypto_pwhash_scryptsalsa208sha256_str_verify:passwdlen <- $rdx
	#DEBUG_VALUE: crypto_pwhash_scryptsalsa208sha256_str_verify:ret <- -1
	#DEBUG_VALUE: sodium_strnlen:maxlen <- 102
	#DEBUG_VALUE: sodium_strnlen:i <- $rax
	#DEBUG_VALUE: sodium_strnlen:i <- [DW_OP_plus_uconst 1, DW_OP_stack_value] $rax
	.loc	1 61 14                         # crypto_pwhash/scryptsalsa208sha256/pwhash_scryptsalsa208sha256.c:61:14 @[ crypto_pwhash/scryptsalsa208sha256/pwhash_scryptsalsa208sha256.c:253:9 ]
	addq	$6, %rax
.Ltmp123:
	cmpq	$107, %rax
	.loc	1 61 23                         # crypto_pwhash/scryptsalsa208sha256/pwhash_scryptsalsa208sha256.c:61:23 @[ crypto_pwhash/scryptsalsa208sha256/pwhash_scryptsalsa208sha256.c:253:9 ]
	jne	.LBB17_1
.Ltmp124:
# %bb.8:
	#DEBUG_VALUE: crypto_pwhash_scryptsalsa208sha256_str_verify:str <- $rbx
	#DEBUG_VALUE: crypto_pwhash_scryptsalsa208sha256_str_verify:passwd <- $rsi
	#DEBUG_VALUE: crypto_pwhash_scryptsalsa208sha256_str_verify:passwdlen <- $rdx
	#DEBUG_VALUE: crypto_pwhash_scryptsalsa208sha256_str_verify:ret <- -1
	#DEBUG_VALUE: sodium_strnlen:maxlen <- 102
	.loc	1 0 23                          # crypto_pwhash/scryptsalsa208sha256/pwhash_scryptsalsa208sha256.c:0:23
	movl	$-1, %ebp
	.loc	1 61 23                         # crypto_pwhash/scryptsalsa208sha256/pwhash_scryptsalsa208sha256.c:61:23 @[ crypto_pwhash/scryptsalsa208sha256/pwhash_scryptsalsa208sha256.c:253:9 ]
	jmp	.LBB17_18
.Ltmp125:
.LBB17_9:                               # %sodium_strnlen.exitsplitsplitsplitsplitsplit
	#DEBUG_VALUE: crypto_pwhash_scryptsalsa208sha256_str_verify:str <- $rbx
	#DEBUG_VALUE: crypto_pwhash_scryptsalsa208sha256_str_verify:passwd <- $rsi
	#DEBUG_VALUE: crypto_pwhash_scryptsalsa208sha256_str_verify:passwdlen <- $rdx
	#DEBUG_VALUE: crypto_pwhash_scryptsalsa208sha256_str_verify:ret <- -1
	.loc	1 253 35 is_stmt 1              # crypto_pwhash/scryptsalsa208sha256/pwhash_scryptsalsa208sha256.c:253:35
	addq	$-5, %rax
	jmp	.LBB17_14
.Ltmp126:
.LBB17_13:                              # %.sodium_strnlen.exit_crit_edge
	#DEBUG_VALUE: crypto_pwhash_scryptsalsa208sha256_str_verify:str <- $rbx
	#DEBUG_VALUE: crypto_pwhash_scryptsalsa208sha256_str_verify:passwd <- $rsi
	#DEBUG_VALUE: crypto_pwhash_scryptsalsa208sha256_str_verify:passwdlen <- $rdx
	#DEBUG_VALUE: crypto_pwhash_scryptsalsa208sha256_str_verify:ret <- -1
	#DEBUG_VALUE: sodium_strnlen:maxlen <- 102
	#DEBUG_VALUE: sodium_strnlen:i <- [DW_OP_constu 4, DW_OP_minus, DW_OP_stack_value] $rax
	.loc	1 61 5                          # crypto_pwhash/scryptsalsa208sha256/pwhash_scryptsalsa208sha256.c:61:5 @[ crypto_pwhash/scryptsalsa208sha256/pwhash_scryptsalsa208sha256.c:253:9 ]
	addq	$-4, %rax
.Ltmp127:
	.loc	1 0 5 is_stmt 0                 # crypto_pwhash/scryptsalsa208sha256/pwhash_scryptsalsa208sha256.c:0:5
	jmp	.LBB17_14
.Ltmp128:
.LBB17_10:                              # %.sodium_strnlen.exitsplitsplitsplitsplit_crit_edge
	#DEBUG_VALUE: crypto_pwhash_scryptsalsa208sha256_str_verify:str <- $rbx
	#DEBUG_VALUE: crypto_pwhash_scryptsalsa208sha256_str_verify:passwd <- $rsi
	#DEBUG_VALUE: crypto_pwhash_scryptsalsa208sha256_str_verify:passwdlen <- $rdx
	#DEBUG_VALUE: crypto_pwhash_scryptsalsa208sha256_str_verify:ret <- -1
	#DEBUG_VALUE: sodium_strnlen:maxlen <- 102
	#DEBUG_VALUE: sodium_strnlen:i <- [DW_OP_constu 3, DW_OP_minus, DW_OP_stack_value] $rax
	.loc	1 61 5                          # crypto_pwhash/scryptsalsa208sha256/pwhash_scryptsalsa208sha256.c:61:5 @[ crypto_pwhash/scryptsalsa208sha256/pwhash_scryptsalsa208sha256.c:253:9 ]
	addq	$-3, %rax
.Ltmp129:
	jmp	.LBB17_14
.Ltmp130:
.LBB17_11:                              # %.sodium_strnlen.exitsplitsplitsplit_crit_edge
	#DEBUG_VALUE: crypto_pwhash_scryptsalsa208sha256_str_verify:str <- $rbx
	#DEBUG_VALUE: crypto_pwhash_scryptsalsa208sha256_str_verify:passwd <- $rsi
	#DEBUG_VALUE: crypto_pwhash_scryptsalsa208sha256_str_verify:passwdlen <- $rdx
	#DEBUG_VALUE: crypto_pwhash_scryptsalsa208sha256_str_verify:ret <- -1
	#DEBUG_VALUE: sodium_strnlen:maxlen <- 102
	#DEBUG_VALUE: sodium_strnlen:i <- [DW_OP_constu 2, DW_OP_minus, DW_OP_stack_value] $rax
	addq	$-2, %rax
.Ltmp131:
	jmp	.LBB17_14
.Ltmp132:
.LBB17_12:                              # %.sodium_strnlen.exitsplitsplit_crit_edge
	#DEBUG_VALUE: crypto_pwhash_scryptsalsa208sha256_str_verify:str <- $rbx
	#DEBUG_VALUE: crypto_pwhash_scryptsalsa208sha256_str_verify:passwd <- $rsi
	#DEBUG_VALUE: crypto_pwhash_scryptsalsa208sha256_str_verify:passwdlen <- $rdx
	#DEBUG_VALUE: crypto_pwhash_scryptsalsa208sha256_str_verify:ret <- -1
	#DEBUG_VALUE: sodium_strnlen:maxlen <- 102
	#DEBUG_VALUE: sodium_strnlen:i <- [DW_OP_constu 1, DW_OP_minus, DW_OP_stack_value] $rax
	decq	%rax
.Ltmp133:
.LBB17_14:                              # %sodium_strnlen.exit
	#DEBUG_VALUE: crypto_pwhash_scryptsalsa208sha256_str_verify:str <- $rbx
	#DEBUG_VALUE: crypto_pwhash_scryptsalsa208sha256_str_verify:passwd <- $rsi
	#DEBUG_VALUE: crypto_pwhash_scryptsalsa208sha256_str_verify:passwdlen <- $rdx
	#DEBUG_VALUE: crypto_pwhash_scryptsalsa208sha256_str_verify:ret <- -1
	.loc	1 0 5                           # crypto_pwhash/scryptsalsa208sha256/pwhash_scryptsalsa208sha256.c:0:5
	movl	$-1, %ebp
	.loc	1 253 35 is_stmt 1              # crypto_pwhash/scryptsalsa208sha256/pwhash_scryptsalsa208sha256.c:253:35
	cmpq	$101, %rax
	jne	.LBB17_18
.Ltmp134:
# %bb.15:
	#DEBUG_VALUE: crypto_pwhash_scryptsalsa208sha256_str_verify:str <- $rbx
	#DEBUG_VALUE: crypto_pwhash_scryptsalsa208sha256_str_verify:passwd <- $rsi
	#DEBUG_VALUE: crypto_pwhash_scryptsalsa208sha256_str_verify:passwdlen <- $rdx
	#DEBUG_VALUE: crypto_pwhash_scryptsalsa208sha256_str_verify:ret <- -1
	.loc	1 0 35 is_stmt 0                # crypto_pwhash/scryptsalsa208sha256/pwhash_scryptsalsa208sha256.c:0:35
	movq	%rsi, %r15
.Ltmp135:
	#DEBUG_VALUE: crypto_pwhash_scryptsalsa208sha256_str_verify:passwd <- $r15
	movq	%rdx, %r14
.Ltmp136:
	#DEBUG_VALUE: crypto_pwhash_scryptsalsa208sha256_str_verify:passwdlen <- $r14
	leaq	8(%rsp), %rdi
.Ltmp137:
	.loc	1 257 9 is_stmt 1               # crypto_pwhash/scryptsalsa208sha256/pwhash_scryptsalsa208sha256.c:257:9
	callq	escrypt_init_local@PLT
.Ltmp138:
	.loc	1 257 44 is_stmt 0              # crypto_pwhash/scryptsalsa208sha256/pwhash_scryptsalsa208sha256.c:257:44
	testl	%eax, %eax
	jne	.LBB17_18
.Ltmp139:
# %bb.16:
	#DEBUG_VALUE: crypto_pwhash_scryptsalsa208sha256_str_verify:str <- $rbx
	#DEBUG_VALUE: crypto_pwhash_scryptsalsa208sha256_str_verify:passwd <- $r15
	#DEBUG_VALUE: crypto_pwhash_scryptsalsa208sha256_str_verify:passwdlen <- $r14
	#DEBUG_VALUE: crypto_pwhash_scryptsalsa208sha256_str_verify:ret <- -1
	#DEBUG_VALUE: memset:__dest <- [DW_OP_plus_uconst 32, DW_OP_stack_value] $rsp
	#DEBUG_VALUE: memset:__ch <- 0
	#DEBUG_VALUE: memset:__len <- 102
	.loc	5 59 10 is_stmt 1               # /usr/include/x86_64-linux-gnu/bits/string_fortified.h:59:10 @[ crypto_pwhash/scryptsalsa208sha256/pwhash_scryptsalsa208sha256.c:260:5 ]
	xorps	%xmm0, %xmm0
	movaps	%xmm0, 112(%rsp)
	movaps	%xmm0, 96(%rsp)
	movaps	%xmm0, 80(%rsp)
	movaps	%xmm0, 64(%rsp)
	movaps	%xmm0, 48(%rsp)
	movaps	%xmm0, 32(%rsp)
	movq	$0, 126(%rsp)
	leaq	8(%rsp), %r12
	leaq	32(%rsp), %r8
.Ltmp140:
	.loc	1 261 9                         # crypto_pwhash/scryptsalsa208sha256/pwhash_scryptsalsa208sha256.c:261:9
	movl	$102, %r9d
	movq	%r12, %rdi
	movq	%r15, %rsi
	movq	%r14, %rdx
	movq	%rbx, %rcx
	callq	escrypt_r@PLT
.Ltmp141:
	movq	%rax, %r14
.Ltmp142:
	#DEBUG_VALUE: crypto_pwhash_scryptsalsa208sha256_str_verify:passwdlen <- [DW_OP_LLVM_entry_value 1] $rdx
	.loc	1 0 0 is_stmt 0                 # crypto_pwhash/scryptsalsa208sha256/pwhash_scryptsalsa208sha256.c:0
	movq	%r12, %rdi
	callq	escrypt_free_local@PLT
.Ltmp143:
	.loc	1 263 34 is_stmt 1              # crypto_pwhash/scryptsalsa208sha256/pwhash_scryptsalsa208sha256.c:263:34
	testq	%r14, %r14
	je	.LBB17_18
.Ltmp144:
# %bb.17:
	#DEBUG_VALUE: crypto_pwhash_scryptsalsa208sha256_str_verify:str <- $rbx
	#DEBUG_VALUE: crypto_pwhash_scryptsalsa208sha256_str_verify:passwd <- $r15
	#DEBUG_VALUE: crypto_pwhash_scryptsalsa208sha256_str_verify:passwdlen <- [DW_OP_LLVM_entry_value 1] $rdx
	#DEBUG_VALUE: crypto_pwhash_scryptsalsa208sha256_str_verify:ret <- -1
	.loc	1 0 34 is_stmt 0                # crypto_pwhash/scryptsalsa208sha256/pwhash_scryptsalsa208sha256.c:0:34
	leaq	32(%rsp), %r14
	.loc	1 268 11 is_stmt 1              # crypto_pwhash/scryptsalsa208sha256/pwhash_scryptsalsa208sha256.c:268:11
	movl	$102, %edx
	movq	%r14, %rdi
	movq	%rbx, %rsi
	callq	sodium_memcmp@PLT
.Ltmp145:
	movl	%eax, %ebp
.Ltmp146:
	#DEBUG_VALUE: crypto_pwhash_scryptsalsa208sha256_str_verify:ret <- $ebp
	.loc	1 269 5                         # crypto_pwhash/scryptsalsa208sha256/pwhash_scryptsalsa208sha256.c:269:5
	movl	$102, %esi
	movq	%r14, %rdi
	callq	sodium_memzero@PLT
.Ltmp147:
.LBB17_18:                              # %sodium_strnlen.exit.thread
	#DEBUG_VALUE: crypto_pwhash_scryptsalsa208sha256_str_verify:str <- $rbx
	#DEBUG_VALUE: crypto_pwhash_scryptsalsa208sha256_str_verify:passwd <- [DW_OP_LLVM_entry_value 1] $rsi
	#DEBUG_VALUE: crypto_pwhash_scryptsalsa208sha256_str_verify:passwdlen <- [DW_OP_LLVM_entry_value 1] $rdx
	.loc	1 272 1                         # crypto_pwhash/scryptsalsa208sha256/pwhash_scryptsalsa208sha256.c:272:1
	movq	%fs:40, %rax
	cmpq	136(%rsp), %rax
	jne	.LBB17_20
.Ltmp148:
# %bb.19:                               # %SP_return
	#DEBUG_VALUE: crypto_pwhash_scryptsalsa208sha256_str_verify:str <- $rbx
	#DEBUG_VALUE: crypto_pwhash_scryptsalsa208sha256_str_verify:passwd <- [DW_OP_LLVM_entry_value 1] $rsi
	#DEBUG_VALUE: crypto_pwhash_scryptsalsa208sha256_str_verify:passwdlen <- [DW_OP_LLVM_entry_value 1] $rdx
	movl	%ebp, %eax
	.loc	1 272 1 epilogue_begin is_stmt 0 # crypto_pwhash/scryptsalsa208sha256/pwhash_scryptsalsa208sha256.c:272:1
	addq	$144, %rsp
	.cfi_def_cfa_offset 48
	popq	%rbx
.Ltmp149:
	#DEBUG_VALUE: crypto_pwhash_scryptsalsa208sha256_str_verify:str <- [DW_OP_LLVM_entry_value 1] $rdi
	.cfi_def_cfa_offset 40
	popq	%r12
	.cfi_def_cfa_offset 32
	popq	%r14
	.cfi_def_cfa_offset 24
	popq	%r15
	.cfi_def_cfa_offset 16
	popq	%rbp
	.cfi_def_cfa_offset 8
	retq
.Ltmp150:
.LBB17_20:                              # %CallStackCheckFailBlk
	.cfi_def_cfa_offset 192
	#DEBUG_VALUE: crypto_pwhash_scryptsalsa208sha256_str_verify:str <- $rbx
	#DEBUG_VALUE: crypto_pwhash_scryptsalsa208sha256_str_verify:passwd <- [DW_OP_LLVM_entry_value 1] $rsi
	#DEBUG_VALUE: crypto_pwhash_scryptsalsa208sha256_str_verify:passwdlen <- [DW_OP_LLVM_entry_value 1] $rdx
	.loc	1 0 0                           # crypto_pwhash/scryptsalsa208sha256/pwhash_scryptsalsa208sha256.c:0
	callq	__stack_chk_fail@PLT
.Ltmp151:
.Lfunc_end17:
	.size	crypto_pwhash_scryptsalsa208sha256_str_verify, .Lfunc_end17-crypto_pwhash_scryptsalsa208sha256_str_verify
	.cfi_endproc
	.file	10 "./include/sodium" "utils.h"
                                        # -- End function
	.globl	crypto_pwhash_scryptsalsa208sha256_str_needs_rehash # -- Begin function crypto_pwhash_scryptsalsa208sha256_str_needs_rehash
	.p2align	4
	.type	crypto_pwhash_scryptsalsa208sha256_str_needs_rehash,@function
crypto_pwhash_scryptsalsa208sha256_str_needs_rehash: # @crypto_pwhash_scryptsalsa208sha256_str_needs_rehash
.Lfunc_begin18:
	.loc	1 278 0 is_stmt 1               # crypto_pwhash/scryptsalsa208sha256/pwhash_scryptsalsa208sha256.c:278:0
	.cfi_startproc
# %bb.0:
	#DEBUG_VALUE: crypto_pwhash_scryptsalsa208sha256_str_needs_rehash:str <- $rdi
	#DEBUG_VALUE: crypto_pwhash_scryptsalsa208sha256_str_needs_rehash:opslimit <- $rsi
	#DEBUG_VALUE: crypto_pwhash_scryptsalsa208sha256_str_needs_rehash:memlimit <- $rdx
	pushq	%r14
	.cfi_def_cfa_offset 16
	pushq	%rbx
	.cfi_def_cfa_offset 24
	subq	$24, %rsp
	.cfi_def_cfa_offset 48
	.cfi_offset %rbx, -24
	.cfi_offset %r14, -16
.Ltmp152:
	#DEBUG_VALUE: pickparams:opslimit <- $rsi
	#DEBUG_VALUE: pickparams:memlimit <- $rdx
	.loc	1 25 18 prologue_end            # crypto_pwhash/scryptsalsa208sha256/pwhash_scryptsalsa208sha256.c:25:18 @[ crypto_pwhash/scryptsalsa208sha256/pwhash_scryptsalsa208sha256.c:283:9 ]
	cmpq	$32769, %rsi                    # imm = 0x8001
	movl	$32768, %eax                    # imm = 0x8000
	cmovaeq	%rsi, %rax
.Ltmp153:
	#DEBUG_VALUE: pickparams:opslimit <- $rax
	#DEBUG_VALUE: crypto_pwhash_scryptsalsa208sha256_str_needs_rehash:r <- 8
	.loc	1 29 29                         # crypto_pwhash/scryptsalsa208sha256/pwhash_scryptsalsa208sha256.c:29:29 @[ crypto_pwhash/scryptsalsa208sha256/pwhash_scryptsalsa208sha256.c:283:9 ]
	movq	%rdx, %rcx
	shrq	$5, %rcx
	.loc	1 29 18 is_stmt 0               # crypto_pwhash/scryptsalsa208sha256/pwhash_scryptsalsa208sha256.c:29:18 @[ crypto_pwhash/scryptsalsa208sha256/pwhash_scryptsalsa208sha256.c:283:9 ]
	cmpq	%rcx, %rax
	jae	.LBB18_1
.Ltmp154:
# %bb.6:
	#DEBUG_VALUE: crypto_pwhash_scryptsalsa208sha256_str_needs_rehash:str <- $rdi
	#DEBUG_VALUE: crypto_pwhash_scryptsalsa208sha256_str_needs_rehash:opslimit <- $rsi
	#DEBUG_VALUE: crypto_pwhash_scryptsalsa208sha256_str_needs_rehash:memlimit <- $rdx
	#DEBUG_VALUE: pickparams:opslimit <- $rax
	#DEBUG_VALUE: pickparams:memlimit <- $rdx
	#DEBUG_VALUE: crypto_pwhash_scryptsalsa208sha256_str_needs_rehash:r <- 8
	#DEBUG_VALUE: crypto_pwhash_scryptsalsa208sha256_str_needs_rehash:p <- 1
	.loc	1 31 25 is_stmt 1               # crypto_pwhash/scryptsalsa208sha256/pwhash_scryptsalsa208sha256.c:31:25 @[ crypto_pwhash/scryptsalsa208sha256/pwhash_scryptsalsa208sha256.c:283:9 ]
	shrq	$6, %rax
.Ltmp155:
	#DEBUG_VALUE: pickparams:maxN <- $rax
	.loc	1 0 25 is_stmt 0                # crypto_pwhash/scryptsalsa208sha256/pwhash_scryptsalsa208sha256.c:0:25
	movl	$2, %ebx
.Ltmp156:
	.p2align	4
.LBB18_7:                               # =>This Inner Loop Header: Depth=1
	#DEBUG_VALUE: crypto_pwhash_scryptsalsa208sha256_str_needs_rehash:str <- $rdi
	#DEBUG_VALUE: crypto_pwhash_scryptsalsa208sha256_str_needs_rehash:opslimit <- $rsi
	#DEBUG_VALUE: crypto_pwhash_scryptsalsa208sha256_str_needs_rehash:memlimit <- [DW_OP_LLVM_entry_value 1] $rdx
	#DEBUG_VALUE: crypto_pwhash_scryptsalsa208sha256_str_needs_rehash:r <- 8
	#DEBUG_VALUE: crypto_pwhash_scryptsalsa208sha256_str_needs_rehash:p <- 1
	#DEBUG_VALUE: pickparams:maxN <- $rax
	.loc	1 33 42 is_stmt 1               # crypto_pwhash/scryptsalsa208sha256/pwhash_scryptsalsa208sha256.c:33:42 @[ crypto_pwhash/scryptsalsa208sha256/pwhash_scryptsalsa208sha256.c:283:9 ]
	leal	-1(%rbx), %ecx
	movq	%rax, %rdx
                                        # kill: def $cl killed $cl killed $ecx
	shrq	%cl, %rdx
	testq	%rdx, %rdx
	je	.LBB18_13
.Ltmp157:
# %bb.8:                                #   in Loop: Header=BB18_7 Depth=1
	#DEBUG_VALUE: crypto_pwhash_scryptsalsa208sha256_str_needs_rehash:str <- $rdi
	#DEBUG_VALUE: crypto_pwhash_scryptsalsa208sha256_str_needs_rehash:opslimit <- $rsi
	#DEBUG_VALUE: crypto_pwhash_scryptsalsa208sha256_str_needs_rehash:memlimit <- [DW_OP_LLVM_entry_value 1] $rdx
	#DEBUG_VALUE: crypto_pwhash_scryptsalsa208sha256_str_needs_rehash:r <- 8
	#DEBUG_VALUE: crypto_pwhash_scryptsalsa208sha256_str_needs_rehash:p <- 1
	#DEBUG_VALUE: pickparams:maxN <- $rax
	movq	%rax, %rdx
	movl	%ebx, %ecx
	shrq	%cl, %rdx
	testq	%rdx, %rdx
	je	.LBB18_14
.Ltmp158:
# %bb.9:                                #   in Loop: Header=BB18_7 Depth=1
	#DEBUG_VALUE: crypto_pwhash_scryptsalsa208sha256_str_needs_rehash:str <- $rdi
	#DEBUG_VALUE: crypto_pwhash_scryptsalsa208sha256_str_needs_rehash:opslimit <- $rsi
	#DEBUG_VALUE: crypto_pwhash_scryptsalsa208sha256_str_needs_rehash:memlimit <- [DW_OP_LLVM_entry_value 1] $rdx
	#DEBUG_VALUE: crypto_pwhash_scryptsalsa208sha256_str_needs_rehash:r <- 8
	#DEBUG_VALUE: crypto_pwhash_scryptsalsa208sha256_str_needs_rehash:p <- 1
	#DEBUG_VALUE: pickparams:maxN <- $rax
	.loc	1 32 35                         # crypto_pwhash/scryptsalsa208sha256/pwhash_scryptsalsa208sha256.c:32:35 @[ crypto_pwhash/scryptsalsa208sha256/pwhash_scryptsalsa208sha256.c:283:9 ]
	addq	$2, %rbx
	cmpq	$64, %rbx
.Ltmp159:
	.loc	1 32 9 is_stmt 0                # crypto_pwhash/scryptsalsa208sha256/pwhash_scryptsalsa208sha256.c:32:9 @[ crypto_pwhash/scryptsalsa208sha256/pwhash_scryptsalsa208sha256.c:283:9 ]
	jne	.LBB18_7
.Ltmp160:
# %bb.10:
	#DEBUG_VALUE: crypto_pwhash_scryptsalsa208sha256_str_needs_rehash:str <- $rdi
	#DEBUG_VALUE: crypto_pwhash_scryptsalsa208sha256_str_needs_rehash:opslimit <- $rsi
	#DEBUG_VALUE: crypto_pwhash_scryptsalsa208sha256_str_needs_rehash:memlimit <- [DW_OP_LLVM_entry_value 1] $rdx
	#DEBUG_VALUE: crypto_pwhash_scryptsalsa208sha256_str_needs_rehash:r <- 8
	#DEBUG_VALUE: crypto_pwhash_scryptsalsa208sha256_str_needs_rehash:p <- 1
	#DEBUG_VALUE: pickparams:maxN <- $rax
	.loc	1 0 9                           # crypto_pwhash/scryptsalsa208sha256/pwhash_scryptsalsa208sha256.c:0:9
	movl	$63, %ebx
	jmp	.LBB18_14
.Ltmp161:
.LBB18_1:                               # %.preheader.i
	#DEBUG_VALUE: crypto_pwhash_scryptsalsa208sha256_str_needs_rehash:str <- $rdi
	#DEBUG_VALUE: crypto_pwhash_scryptsalsa208sha256_str_needs_rehash:opslimit <- $rsi
	#DEBUG_VALUE: crypto_pwhash_scryptsalsa208sha256_str_needs_rehash:memlimit <- $rdx
	#DEBUG_VALUE: pickparams:opslimit <- $rax
	#DEBUG_VALUE: pickparams:memlimit <- $rdx
	#DEBUG_VALUE: crypto_pwhash_scryptsalsa208sha256_str_needs_rehash:r <- 8
	shrq	$11, %rdx
.Ltmp162:
	#DEBUG_VALUE: crypto_pwhash_scryptsalsa208sha256_str_needs_rehash:memlimit <- [DW_OP_LLVM_entry_value 1] $rdx
	movl	$2, %ebx
.Ltmp163:
	.p2align	4
.LBB18_2:                               # =>This Inner Loop Header: Depth=1
	#DEBUG_VALUE: crypto_pwhash_scryptsalsa208sha256_str_needs_rehash:str <- $rdi
	#DEBUG_VALUE: crypto_pwhash_scryptsalsa208sha256_str_needs_rehash:opslimit <- [DW_OP_LLVM_entry_value 1] $rsi
	#DEBUG_VALUE: crypto_pwhash_scryptsalsa208sha256_str_needs_rehash:memlimit <- [DW_OP_LLVM_entry_value 1] $rdx
	#DEBUG_VALUE: pickparams:opslimit <- $rax
	#DEBUG_VALUE: crypto_pwhash_scryptsalsa208sha256_str_needs_rehash:r <- 8
	.loc	1 40 42 is_stmt 1               # crypto_pwhash/scryptsalsa208sha256/pwhash_scryptsalsa208sha256.c:40:42 @[ crypto_pwhash/scryptsalsa208sha256/pwhash_scryptsalsa208sha256.c:283:9 ]
	leal	-1(%rbx), %ecx
	movq	%rdx, %rsi
                                        # kill: def $cl killed $cl killed $ecx
	shrq	%cl, %rsi
	testq	%rsi, %rsi
	je	.LBB18_11
.Ltmp164:
# %bb.3:                                #   in Loop: Header=BB18_2 Depth=1
	#DEBUG_VALUE: crypto_pwhash_scryptsalsa208sha256_str_needs_rehash:str <- $rdi
	#DEBUG_VALUE: crypto_pwhash_scryptsalsa208sha256_str_needs_rehash:opslimit <- [DW_OP_LLVM_entry_value 1] $rsi
	#DEBUG_VALUE: crypto_pwhash_scryptsalsa208sha256_str_needs_rehash:memlimit <- [DW_OP_LLVM_entry_value 1] $rdx
	#DEBUG_VALUE: pickparams:opslimit <- $rax
	#DEBUG_VALUE: crypto_pwhash_scryptsalsa208sha256_str_needs_rehash:r <- 8
	movq	%rdx, %rsi
	movl	%ebx, %ecx
	shrq	%cl, %rsi
	testq	%rsi, %rsi
	je	.LBB18_12
.Ltmp165:
# %bb.4:                                #   in Loop: Header=BB18_2 Depth=1
	#DEBUG_VALUE: crypto_pwhash_scryptsalsa208sha256_str_needs_rehash:str <- $rdi
	#DEBUG_VALUE: crypto_pwhash_scryptsalsa208sha256_str_needs_rehash:opslimit <- [DW_OP_LLVM_entry_value 1] $rsi
	#DEBUG_VALUE: crypto_pwhash_scryptsalsa208sha256_str_needs_rehash:memlimit <- [DW_OP_LLVM_entry_value 1] $rdx
	#DEBUG_VALUE: pickparams:opslimit <- $rax
	#DEBUG_VALUE: crypto_pwhash_scryptsalsa208sha256_str_needs_rehash:r <- 8
	.loc	1 39 35                         # crypto_pwhash/scryptsalsa208sha256/pwhash_scryptsalsa208sha256.c:39:35 @[ crypto_pwhash/scryptsalsa208sha256/pwhash_scryptsalsa208sha256.c:283:9 ]
	addq	$2, %rbx
	cmpq	$64, %rbx
.Ltmp166:
	.loc	1 39 9 is_stmt 0                # crypto_pwhash/scryptsalsa208sha256/pwhash_scryptsalsa208sha256.c:39:9 @[ crypto_pwhash/scryptsalsa208sha256/pwhash_scryptsalsa208sha256.c:283:9 ]
	jne	.LBB18_2
.Ltmp167:
# %bb.5:
	#DEBUG_VALUE: crypto_pwhash_scryptsalsa208sha256_str_needs_rehash:str <- $rdi
	#DEBUG_VALUE: crypto_pwhash_scryptsalsa208sha256_str_needs_rehash:opslimit <- [DW_OP_LLVM_entry_value 1] $rsi
	#DEBUG_VALUE: crypto_pwhash_scryptsalsa208sha256_str_needs_rehash:memlimit <- [DW_OP_LLVM_entry_value 1] $rdx
	#DEBUG_VALUE: pickparams:opslimit <- $rax
	#DEBUG_VALUE: crypto_pwhash_scryptsalsa208sha256_str_needs_rehash:r <- 8
	.loc	1 0 9                           # crypto_pwhash/scryptsalsa208sha256/pwhash_scryptsalsa208sha256.c:0:9
	movl	$63, %ebx
	.loc	1 39 9                          # crypto_pwhash/scryptsalsa208sha256/pwhash_scryptsalsa208sha256.c:39:9 @[ crypto_pwhash/scryptsalsa208sha256/pwhash_scryptsalsa208sha256.c:283:9 ]
	jmp	.LBB18_12
.Ltmp168:
.LBB18_13:                              # %..loopexit.split.loop.exit.i_crit_edge
	#DEBUG_VALUE: crypto_pwhash_scryptsalsa208sha256_str_needs_rehash:str <- $rdi
	#DEBUG_VALUE: crypto_pwhash_scryptsalsa208sha256_str_needs_rehash:opslimit <- $rsi
	#DEBUG_VALUE: crypto_pwhash_scryptsalsa208sha256_str_needs_rehash:memlimit <- [DW_OP_LLVM_entry_value 1] $rdx
	#DEBUG_VALUE: crypto_pwhash_scryptsalsa208sha256_str_needs_rehash:r <- 8
	#DEBUG_VALUE: crypto_pwhash_scryptsalsa208sha256_str_needs_rehash:p <- 1
	#DEBUG_VALUE: pickparams:maxN <- $rax
	.loc	1 33 42 is_stmt 1               # crypto_pwhash/scryptsalsa208sha256/pwhash_scryptsalsa208sha256.c:33:42 @[ crypto_pwhash/scryptsalsa208sha256/pwhash_scryptsalsa208sha256.c:283:9 ]
	decq	%rbx
.Ltmp169:
.LBB18_14:                              # %.loopexit.split.loop.exit.i
	#DEBUG_VALUE: crypto_pwhash_scryptsalsa208sha256_str_needs_rehash:str <- $rdi
	#DEBUG_VALUE: crypto_pwhash_scryptsalsa208sha256_str_needs_rehash:opslimit <- $rsi
	#DEBUG_VALUE: crypto_pwhash_scryptsalsa208sha256_str_needs_rehash:memlimit <- [DW_OP_LLVM_entry_value 1] $rdx
	#DEBUG_VALUE: crypto_pwhash_scryptsalsa208sha256_str_needs_rehash:r <- 8
	#DEBUG_VALUE: crypto_pwhash_scryptsalsa208sha256_str_needs_rehash:p <- 1
	#DEBUG_VALUE: pickparams:maxN <- $rax
	.loc	1 0 42 is_stmt 0                # crypto_pwhash/scryptsalsa208sha256/pwhash_scryptsalsa208sha256.c:0:42
	movl	$1, %r14d
	jmp	.LBB18_15
.Ltmp170:
.LBB18_11:                              # %..split.loop.exit.i_crit_edge
	#DEBUG_VALUE: crypto_pwhash_scryptsalsa208sha256_str_needs_rehash:str <- $rdi
	#DEBUG_VALUE: crypto_pwhash_scryptsalsa208sha256_str_needs_rehash:opslimit <- [DW_OP_LLVM_entry_value 1] $rsi
	#DEBUG_VALUE: crypto_pwhash_scryptsalsa208sha256_str_needs_rehash:memlimit <- [DW_OP_LLVM_entry_value 1] $rdx
	#DEBUG_VALUE: pickparams:opslimit <- $rax
	#DEBUG_VALUE: crypto_pwhash_scryptsalsa208sha256_str_needs_rehash:r <- 8
	.loc	1 40 42 is_stmt 1               # crypto_pwhash/scryptsalsa208sha256/pwhash_scryptsalsa208sha256.c:40:42 @[ crypto_pwhash/scryptsalsa208sha256/pwhash_scryptsalsa208sha256.c:283:9 ]
	decq	%rbx
.Ltmp171:
.LBB18_12:                              # %.split.loop.exit36.i
	#DEBUG_VALUE: crypto_pwhash_scryptsalsa208sha256_str_needs_rehash:str <- $rdi
	#DEBUG_VALUE: crypto_pwhash_scryptsalsa208sha256_str_needs_rehash:opslimit <- [DW_OP_LLVM_entry_value 1] $rsi
	#DEBUG_VALUE: crypto_pwhash_scryptsalsa208sha256_str_needs_rehash:memlimit <- [DW_OP_LLVM_entry_value 1] $rdx
	#DEBUG_VALUE: pickparams:opslimit <- $rax
	#DEBUG_VALUE: crypto_pwhash_scryptsalsa208sha256_str_needs_rehash:r <- 8
	#DEBUG_VALUE: crypto_pwhash_scryptsalsa208sha256_str_needs_rehash:N_log2 <- $ebx
	.loc	1 44 27                         # crypto_pwhash/scryptsalsa208sha256/pwhash_scryptsalsa208sha256.c:44:27 @[ crypto_pwhash/scryptsalsa208sha256/pwhash_scryptsalsa208sha256.c:283:9 ]
	shrq	$2, %rax
.Ltmp172:
	.loc	1 44 32 is_stmt 0               # crypto_pwhash/scryptsalsa208sha256/pwhash_scryptsalsa208sha256.c:44:32 @[ crypto_pwhash/scryptsalsa208sha256/pwhash_scryptsalsa208sha256.c:283:9 ]
	movl	%ebx, %ecx
	shrq	%cl, %rax
.Ltmp173:
	#DEBUG_VALUE: pickparams:maxrp <- $rax
	.loc	1 46 19 is_stmt 1               # crypto_pwhash/scryptsalsa208sha256/pwhash_scryptsalsa208sha256.c:46:19 @[ crypto_pwhash/scryptsalsa208sha256/pwhash_scryptsalsa208sha256.c:283:9 ]
	cmpq	$1073741823, %rax               # imm = 0x3FFFFFFF
	movl	$1073741823, %r14d              # imm = 0x3FFFFFFF
	cmovbq	%rax, %r14
.Ltmp174:
	#DEBUG_VALUE: pickparams:maxrp <- $r14
	.loc	1 50 32                         # crypto_pwhash/scryptsalsa208sha256/pwhash_scryptsalsa208sha256.c:50:32 @[ crypto_pwhash/scryptsalsa208sha256/pwhash_scryptsalsa208sha256.c:283:9 ]
	shrl	$3, %r14d
.Ltmp175:
	#DEBUG_VALUE: crypto_pwhash_scryptsalsa208sha256_str_needs_rehash:p <- $r14d
.LBB18_15:                              # %pickparams.exit
	#DEBUG_VALUE: crypto_pwhash_scryptsalsa208sha256_str_needs_rehash:str <- $rdi
	#DEBUG_VALUE: crypto_pwhash_scryptsalsa208sha256_str_needs_rehash:opslimit <- [DW_OP_LLVM_entry_value 1] $rsi
	#DEBUG_VALUE: crypto_pwhash_scryptsalsa208sha256_str_needs_rehash:memlimit <- [DW_OP_LLVM_entry_value 1] $rdx
	#DEBUG_VALUE: crypto_pwhash_scryptsalsa208sha256_str_needs_rehash:r <- 8
	#DEBUG_VALUE: crypto_pwhash_scryptsalsa208sha256_str_needs_rehash:N_log2 <- $ebx
	#DEBUG_VALUE: crypto_pwhash_scryptsalsa208sha256_str_needs_rehash:p <- $r14d
	#DEBUG_VALUE: sodium_strnlen:str <- $rdi
	#DEBUG_VALUE: sodium_strnlen:maxlen <- 102
	#DEBUG_VALUE: sodium_strnlen:i <- 0
	#MEMBARRIER
	.loc	1 0 32 is_stmt 0                # crypto_pwhash/scryptsalsa208sha256/pwhash_scryptsalsa208sha256.c:0:32
	movl	$5, %eax
.Ltmp176:
	.p2align	4
.LBB18_16:                              # =>This Inner Loop Header: Depth=1
	#DEBUG_VALUE: crypto_pwhash_scryptsalsa208sha256_str_needs_rehash:str <- $rdi
	#DEBUG_VALUE: crypto_pwhash_scryptsalsa208sha256_str_needs_rehash:opslimit <- [DW_OP_LLVM_entry_value 1] $rsi
	#DEBUG_VALUE: crypto_pwhash_scryptsalsa208sha256_str_needs_rehash:memlimit <- [DW_OP_LLVM_entry_value 1] $rdx
	#DEBUG_VALUE: crypto_pwhash_scryptsalsa208sha256_str_needs_rehash:r <- 8
	#DEBUG_VALUE: crypto_pwhash_scryptsalsa208sha256_str_needs_rehash:N_log2 <- $ebx
	#DEBUG_VALUE: crypto_pwhash_scryptsalsa208sha256_str_needs_rehash:p <- $r14d
	#DEBUG_VALUE: sodium_strnlen:str <- $rdi
	#DEBUG_VALUE: sodium_strnlen:maxlen <- 102
	#DEBUG_VALUE: sodium_strnlen:i <- [DW_OP_constu 5, DW_OP_minus, DW_OP_stack_value] $rax
	.loc	1 61 33 is_stmt 1               # crypto_pwhash/scryptsalsa208sha256/pwhash_scryptsalsa208sha256.c:61:33 @[ crypto_pwhash/scryptsalsa208sha256/pwhash_scryptsalsa208sha256.c:287:9 ]
	cmpb	$0, -5(%rdi,%rax)
	.loc	1 61 5 is_stmt 0                # crypto_pwhash/scryptsalsa208sha256/pwhash_scryptsalsa208sha256.c:61:5 @[ crypto_pwhash/scryptsalsa208sha256/pwhash_scryptsalsa208sha256.c:287:9 ]
	je	.LBB18_23
.Ltmp177:
# %bb.17:                               #   in Loop: Header=BB18_16 Depth=1
	#DEBUG_VALUE: crypto_pwhash_scryptsalsa208sha256_str_needs_rehash:str <- $rdi
	#DEBUG_VALUE: crypto_pwhash_scryptsalsa208sha256_str_needs_rehash:opslimit <- [DW_OP_LLVM_entry_value 1] $rsi
	#DEBUG_VALUE: crypto_pwhash_scryptsalsa208sha256_str_needs_rehash:memlimit <- [DW_OP_LLVM_entry_value 1] $rdx
	#DEBUG_VALUE: crypto_pwhash_scryptsalsa208sha256_str_needs_rehash:r <- 8
	#DEBUG_VALUE: crypto_pwhash_scryptsalsa208sha256_str_needs_rehash:N_log2 <- $ebx
	#DEBUG_VALUE: crypto_pwhash_scryptsalsa208sha256_str_needs_rehash:p <- $r14d
	#DEBUG_VALUE: sodium_strnlen:str <- $rdi
	#DEBUG_VALUE: sodium_strnlen:maxlen <- 102
	#DEBUG_VALUE: sodium_strnlen:i <- [DW_OP_constu 5, DW_OP_minus, DW_OP_stack_value] $rax
	#DEBUG_VALUE: sodium_strnlen:i <- [DW_OP_constu 4, DW_OP_minus, DW_OP_stack_value] $rax
	.loc	1 61 33                         # crypto_pwhash/scryptsalsa208sha256/pwhash_scryptsalsa208sha256.c:61:33 @[ crypto_pwhash/scryptsalsa208sha256/pwhash_scryptsalsa208sha256.c:287:9 ]
	cmpb	$0, -4(%rdi,%rax)
	.loc	1 61 5                          # crypto_pwhash/scryptsalsa208sha256/pwhash_scryptsalsa208sha256.c:61:5 @[ crypto_pwhash/scryptsalsa208sha256/pwhash_scryptsalsa208sha256.c:287:9 ]
	je	.LBB18_27
.Ltmp178:
# %bb.18:                               #   in Loop: Header=BB18_16 Depth=1
	#DEBUG_VALUE: crypto_pwhash_scryptsalsa208sha256_str_needs_rehash:str <- $rdi
	#DEBUG_VALUE: crypto_pwhash_scryptsalsa208sha256_str_needs_rehash:opslimit <- [DW_OP_LLVM_entry_value 1] $rsi
	#DEBUG_VALUE: crypto_pwhash_scryptsalsa208sha256_str_needs_rehash:memlimit <- [DW_OP_LLVM_entry_value 1] $rdx
	#DEBUG_VALUE: crypto_pwhash_scryptsalsa208sha256_str_needs_rehash:r <- 8
	#DEBUG_VALUE: crypto_pwhash_scryptsalsa208sha256_str_needs_rehash:N_log2 <- $ebx
	#DEBUG_VALUE: crypto_pwhash_scryptsalsa208sha256_str_needs_rehash:p <- $r14d
	#DEBUG_VALUE: sodium_strnlen:str <- $rdi
	#DEBUG_VALUE: sodium_strnlen:maxlen <- 102
	#DEBUG_VALUE: sodium_strnlen:i <- [DW_OP_constu 4, DW_OP_minus, DW_OP_stack_value] $rax
	#DEBUG_VALUE: sodium_strnlen:i <- [DW_OP_constu 3, DW_OP_minus, DW_OP_stack_value] $rax
	.loc	1 61 33                         # crypto_pwhash/scryptsalsa208sha256/pwhash_scryptsalsa208sha256.c:61:33 @[ crypto_pwhash/scryptsalsa208sha256/pwhash_scryptsalsa208sha256.c:287:9 ]
	cmpb	$0, -3(%rdi,%rax)
	.loc	1 61 5                          # crypto_pwhash/scryptsalsa208sha256/pwhash_scryptsalsa208sha256.c:61:5 @[ crypto_pwhash/scryptsalsa208sha256/pwhash_scryptsalsa208sha256.c:287:9 ]
	je	.LBB18_24
.Ltmp179:
# %bb.19:                               #   in Loop: Header=BB18_16 Depth=1
	#DEBUG_VALUE: crypto_pwhash_scryptsalsa208sha256_str_needs_rehash:str <- $rdi
	#DEBUG_VALUE: crypto_pwhash_scryptsalsa208sha256_str_needs_rehash:opslimit <- [DW_OP_LLVM_entry_value 1] $rsi
	#DEBUG_VALUE: crypto_pwhash_scryptsalsa208sha256_str_needs_rehash:memlimit <- [DW_OP_LLVM_entry_value 1] $rdx
	#DEBUG_VALUE: crypto_pwhash_scryptsalsa208sha256_str_needs_rehash:r <- 8
	#DEBUG_VALUE: crypto_pwhash_scryptsalsa208sha256_str_needs_rehash:N_log2 <- $ebx
	#DEBUG_VALUE: crypto_pwhash_scryptsalsa208sha256_str_needs_rehash:p <- $r14d
	#DEBUG_VALUE: sodium_strnlen:str <- $rdi
	#DEBUG_VALUE: sodium_strnlen:maxlen <- 102
	#DEBUG_VALUE: sodium_strnlen:i <- [DW_OP_constu 3, DW_OP_minus, DW_OP_stack_value] $rax
	#DEBUG_VALUE: sodium_strnlen:i <- [DW_OP_constu 2, DW_OP_minus, DW_OP_stack_value] $rax
	.loc	1 61 33                         # crypto_pwhash/scryptsalsa208sha256/pwhash_scryptsalsa208sha256.c:61:33 @[ crypto_pwhash/scryptsalsa208sha256/pwhash_scryptsalsa208sha256.c:287:9 ]
	cmpb	$0, -2(%rdi,%rax)
	.loc	1 61 5                          # crypto_pwhash/scryptsalsa208sha256/pwhash_scryptsalsa208sha256.c:61:5 @[ crypto_pwhash/scryptsalsa208sha256/pwhash_scryptsalsa208sha256.c:287:9 ]
	je	.LBB18_25
.Ltmp180:
# %bb.20:                               #   in Loop: Header=BB18_16 Depth=1
	#DEBUG_VALUE: crypto_pwhash_scryptsalsa208sha256_str_needs_rehash:str <- $rdi
	#DEBUG_VALUE: crypto_pwhash_scryptsalsa208sha256_str_needs_rehash:opslimit <- [DW_OP_LLVM_entry_value 1] $rsi
	#DEBUG_VALUE: crypto_pwhash_scryptsalsa208sha256_str_needs_rehash:memlimit <- [DW_OP_LLVM_entry_value 1] $rdx
	#DEBUG_VALUE: crypto_pwhash_scryptsalsa208sha256_str_needs_rehash:r <- 8
	#DEBUG_VALUE: crypto_pwhash_scryptsalsa208sha256_str_needs_rehash:N_log2 <- $ebx
	#DEBUG_VALUE: crypto_pwhash_scryptsalsa208sha256_str_needs_rehash:p <- $r14d
	#DEBUG_VALUE: sodium_strnlen:str <- $rdi
	#DEBUG_VALUE: sodium_strnlen:maxlen <- 102
	#DEBUG_VALUE: sodium_strnlen:i <- [DW_OP_constu 2, DW_OP_minus, DW_OP_stack_value] $rax
	#DEBUG_VALUE: sodium_strnlen:i <- [DW_OP_constu 1, DW_OP_minus, DW_OP_stack_value] $rax
	.loc	1 61 33                         # crypto_pwhash/scryptsalsa208sha256/pwhash_scryptsalsa208sha256.c:61:33 @[ crypto_pwhash/scryptsalsa208sha256/pwhash_scryptsalsa208sha256.c:287:9 ]
	cmpb	$0, -1(%rdi,%rax)
	.loc	1 61 5                          # crypto_pwhash/scryptsalsa208sha256/pwhash_scryptsalsa208sha256.c:61:5 @[ crypto_pwhash/scryptsalsa208sha256/pwhash_scryptsalsa208sha256.c:287:9 ]
	je	.LBB18_26
.Ltmp181:
# %bb.21:                               #   in Loop: Header=BB18_16 Depth=1
	#DEBUG_VALUE: crypto_pwhash_scryptsalsa208sha256_str_needs_rehash:str <- $rdi
	#DEBUG_VALUE: crypto_pwhash_scryptsalsa208sha256_str_needs_rehash:opslimit <- [DW_OP_LLVM_entry_value 1] $rsi
	#DEBUG_VALUE: crypto_pwhash_scryptsalsa208sha256_str_needs_rehash:memlimit <- [DW_OP_LLVM_entry_value 1] $rdx
	#DEBUG_VALUE: crypto_pwhash_scryptsalsa208sha256_str_needs_rehash:r <- 8
	#DEBUG_VALUE: crypto_pwhash_scryptsalsa208sha256_str_needs_rehash:N_log2 <- $ebx
	#DEBUG_VALUE: crypto_pwhash_scryptsalsa208sha256_str_needs_rehash:p <- $r14d
	#DEBUG_VALUE: sodium_strnlen:str <- $rdi
	#DEBUG_VALUE: sodium_strnlen:maxlen <- 102
	#DEBUG_VALUE: sodium_strnlen:i <- [DW_OP_constu 1, DW_OP_minus, DW_OP_stack_value] $rax
	#DEBUG_VALUE: sodium_strnlen:i <- $rax
	.loc	1 61 33                         # crypto_pwhash/scryptsalsa208sha256/pwhash_scryptsalsa208sha256.c:61:33 @[ crypto_pwhash/scryptsalsa208sha256/pwhash_scryptsalsa208sha256.c:287:9 ]
	cmpb	$0, (%rdi,%rax)
	.loc	1 61 5                          # crypto_pwhash/scryptsalsa208sha256/pwhash_scryptsalsa208sha256.c:61:5 @[ crypto_pwhash/scryptsalsa208sha256/pwhash_scryptsalsa208sha256.c:287:9 ]
	je	.LBB18_28
.Ltmp182:
# %bb.22:                               #   in Loop: Header=BB18_16 Depth=1
	#DEBUG_VALUE: crypto_pwhash_scryptsalsa208sha256_str_needs_rehash:str <- $rdi
	#DEBUG_VALUE: crypto_pwhash_scryptsalsa208sha256_str_needs_rehash:opslimit <- [DW_OP_LLVM_entry_value 1] $rsi
	#DEBUG_VALUE: crypto_pwhash_scryptsalsa208sha256_str_needs_rehash:memlimit <- [DW_OP_LLVM_entry_value 1] $rdx
	#DEBUG_VALUE: crypto_pwhash_scryptsalsa208sha256_str_needs_rehash:r <- 8
	#DEBUG_VALUE: crypto_pwhash_scryptsalsa208sha256_str_needs_rehash:N_log2 <- $ebx
	#DEBUG_VALUE: crypto_pwhash_scryptsalsa208sha256_str_needs_rehash:p <- $r14d
	#DEBUG_VALUE: sodium_strnlen:str <- $rdi
	#DEBUG_VALUE: sodium_strnlen:maxlen <- 102
	#DEBUG_VALUE: sodium_strnlen:i <- $rax
	#DEBUG_VALUE: sodium_strnlen:i <- [DW_OP_plus_uconst 1, DW_OP_stack_value] $rax
	.loc	1 61 14                         # crypto_pwhash/scryptsalsa208sha256/pwhash_scryptsalsa208sha256.c:61:14 @[ crypto_pwhash/scryptsalsa208sha256/pwhash_scryptsalsa208sha256.c:287:9 ]
	addq	$6, %rax
.Ltmp183:
	cmpq	$107, %rax
	.loc	1 61 23                         # crypto_pwhash/scryptsalsa208sha256/pwhash_scryptsalsa208sha256.c:61:23 @[ crypto_pwhash/scryptsalsa208sha256/pwhash_scryptsalsa208sha256.c:287:9 ]
	jne	.LBB18_16
	jmp	.LBB18_29
.Ltmp184:
.LBB18_23:                              # %sodium_strnlen.exitsplitsplitsplitsplitsplit
	#DEBUG_VALUE: crypto_pwhash_scryptsalsa208sha256_str_needs_rehash:str <- $rdi
	#DEBUG_VALUE: crypto_pwhash_scryptsalsa208sha256_str_needs_rehash:opslimit <- [DW_OP_LLVM_entry_value 1] $rsi
	#DEBUG_VALUE: crypto_pwhash_scryptsalsa208sha256_str_needs_rehash:memlimit <- [DW_OP_LLVM_entry_value 1] $rdx
	#DEBUG_VALUE: crypto_pwhash_scryptsalsa208sha256_str_needs_rehash:r <- 8
	#DEBUG_VALUE: crypto_pwhash_scryptsalsa208sha256_str_needs_rehash:N_log2 <- $ebx
	#DEBUG_VALUE: crypto_pwhash_scryptsalsa208sha256_str_needs_rehash:p <- $r14d
	.loc	1 287 35 is_stmt 1              # crypto_pwhash/scryptsalsa208sha256/pwhash_scryptsalsa208sha256.c:287:35
	addq	$-5, %rax
	cmpq	$101, %rax
	je	.LBB18_30
	jmp	.LBB18_29
.Ltmp185:
.LBB18_27:                              # %.sodium_strnlen.exit_crit_edge
	#DEBUG_VALUE: crypto_pwhash_scryptsalsa208sha256_str_needs_rehash:str <- $rdi
	#DEBUG_VALUE: crypto_pwhash_scryptsalsa208sha256_str_needs_rehash:opslimit <- [DW_OP_LLVM_entry_value 1] $rsi
	#DEBUG_VALUE: crypto_pwhash_scryptsalsa208sha256_str_needs_rehash:memlimit <- [DW_OP_LLVM_entry_value 1] $rdx
	#DEBUG_VALUE: crypto_pwhash_scryptsalsa208sha256_str_needs_rehash:r <- 8
	#DEBUG_VALUE: crypto_pwhash_scryptsalsa208sha256_str_needs_rehash:N_log2 <- $ebx
	#DEBUG_VALUE: crypto_pwhash_scryptsalsa208sha256_str_needs_rehash:p <- $r14d
	#DEBUG_VALUE: sodium_strnlen:str <- $rdi
	#DEBUG_VALUE: sodium_strnlen:maxlen <- 102
	#DEBUG_VALUE: sodium_strnlen:i <- [DW_OP_constu 4, DW_OP_minus, DW_OP_stack_value] $rax
	.loc	1 61 5                          # crypto_pwhash/scryptsalsa208sha256/pwhash_scryptsalsa208sha256.c:61:5 @[ crypto_pwhash/scryptsalsa208sha256/pwhash_scryptsalsa208sha256.c:287:9 ]
	addq	$-4, %rax
.Ltmp186:
	.loc	1 287 35                        # crypto_pwhash/scryptsalsa208sha256/pwhash_scryptsalsa208sha256.c:287:35
	cmpq	$101, %rax
	je	.LBB18_30
	jmp	.LBB18_29
.Ltmp187:
.LBB18_24:                              # %.sodium_strnlen.exitsplitsplitsplitsplit_crit_edge
	#DEBUG_VALUE: crypto_pwhash_scryptsalsa208sha256_str_needs_rehash:str <- $rdi
	#DEBUG_VALUE: crypto_pwhash_scryptsalsa208sha256_str_needs_rehash:opslimit <- [DW_OP_LLVM_entry_value 1] $rsi
	#DEBUG_VALUE: crypto_pwhash_scryptsalsa208sha256_str_needs_rehash:memlimit <- [DW_OP_LLVM_entry_value 1] $rdx
	#DEBUG_VALUE: crypto_pwhash_scryptsalsa208sha256_str_needs_rehash:r <- 8
	#DEBUG_VALUE: crypto_pwhash_scryptsalsa208sha256_str_needs_rehash:N_log2 <- $ebx
	#DEBUG_VALUE: crypto_pwhash_scryptsalsa208sha256_str_needs_rehash:p <- $r14d
	#DEBUG_VALUE: sodium_strnlen:str <- $rdi
	#DEBUG_VALUE: sodium_strnlen:maxlen <- 102
	#DEBUG_VALUE: sodium_strnlen:i <- [DW_OP_constu 3, DW_OP_minus, DW_OP_stack_value] $rax
	.loc	1 61 5                          # crypto_pwhash/scryptsalsa208sha256/pwhash_scryptsalsa208sha256.c:61:5 @[ crypto_pwhash/scryptsalsa208sha256/pwhash_scryptsalsa208sha256.c:287:9 ]
	addq	$-3, %rax
.Ltmp188:
	.loc	1 287 35                        # crypto_pwhash/scryptsalsa208sha256/pwhash_scryptsalsa208sha256.c:287:35
	cmpq	$101, %rax
	je	.LBB18_30
	jmp	.LBB18_29
.Ltmp189:
.LBB18_25:                              # %.sodium_strnlen.exitsplitsplitsplit_crit_edge
	#DEBUG_VALUE: crypto_pwhash_scryptsalsa208sha256_str_needs_rehash:str <- $rdi
	#DEBUG_VALUE: crypto_pwhash_scryptsalsa208sha256_str_needs_rehash:opslimit <- [DW_OP_LLVM_entry_value 1] $rsi
	#DEBUG_VALUE: crypto_pwhash_scryptsalsa208sha256_str_needs_rehash:memlimit <- [DW_OP_LLVM_entry_value 1] $rdx
	#DEBUG_VALUE: crypto_pwhash_scryptsalsa208sha256_str_needs_rehash:r <- 8
	#DEBUG_VALUE: crypto_pwhash_scryptsalsa208sha256_str_needs_rehash:N_log2 <- $ebx
	#DEBUG_VALUE: crypto_pwhash_scryptsalsa208sha256_str_needs_rehash:p <- $r14d
	#DEBUG_VALUE: sodium_strnlen:str <- $rdi
	#DEBUG_VALUE: sodium_strnlen:maxlen <- 102
	#DEBUG_VALUE: sodium_strnlen:i <- [DW_OP_constu 2, DW_OP_minus, DW_OP_stack_value] $rax
	.loc	1 61 5                          # crypto_pwhash/scryptsalsa208sha256/pwhash_scryptsalsa208sha256.c:61:5 @[ crypto_pwhash/scryptsalsa208sha256/pwhash_scryptsalsa208sha256.c:287:9 ]
	addq	$-2, %rax
.Ltmp190:
.LBB18_28:                              # %sodium_strnlen.exit
	#DEBUG_VALUE: crypto_pwhash_scryptsalsa208sha256_str_needs_rehash:str <- $rdi
	#DEBUG_VALUE: crypto_pwhash_scryptsalsa208sha256_str_needs_rehash:opslimit <- [DW_OP_LLVM_entry_value 1] $rsi
	#DEBUG_VALUE: crypto_pwhash_scryptsalsa208sha256_str_needs_rehash:memlimit <- [DW_OP_LLVM_entry_value 1] $rdx
	#DEBUG_VALUE: crypto_pwhash_scryptsalsa208sha256_str_needs_rehash:r <- 8
	#DEBUG_VALUE: crypto_pwhash_scryptsalsa208sha256_str_needs_rehash:N_log2 <- $ebx
	#DEBUG_VALUE: crypto_pwhash_scryptsalsa208sha256_str_needs_rehash:p <- $r14d
	.loc	1 287 35                        # crypto_pwhash/scryptsalsa208sha256/pwhash_scryptsalsa208sha256.c:287:35
	cmpq	$101, %rax
	jne	.LBB18_29
.Ltmp191:
.LBB18_30:
	#DEBUG_VALUE: crypto_pwhash_scryptsalsa208sha256_str_needs_rehash:str <- $rdi
	#DEBUG_VALUE: crypto_pwhash_scryptsalsa208sha256_str_needs_rehash:opslimit <- [DW_OP_LLVM_entry_value 1] $rsi
	#DEBUG_VALUE: crypto_pwhash_scryptsalsa208sha256_str_needs_rehash:memlimit <- [DW_OP_LLVM_entry_value 1] $rdx
	#DEBUG_VALUE: crypto_pwhash_scryptsalsa208sha256_str_needs_rehash:r <- 8
	#DEBUG_VALUE: crypto_pwhash_scryptsalsa208sha256_str_needs_rehash:N_log2 <- $ebx
	#DEBUG_VALUE: crypto_pwhash_scryptsalsa208sha256_str_needs_rehash:p <- $r14d
	.loc	1 0 35 is_stmt 0                # crypto_pwhash/scryptsalsa208sha256/pwhash_scryptsalsa208sha256.c:0:35
	leaq	20(%rsp), %rsi
	leaq	12(%rsp), %rdx
	leaq	16(%rsp), %rcx
.Ltmp192:
	.loc	1 292 9 is_stmt 1               # crypto_pwhash/scryptsalsa208sha256/pwhash_scryptsalsa208sha256.c:292:9
	callq	escrypt_parse_setting@PLT
.Ltmp193:
	#DEBUG_VALUE: crypto_pwhash_scryptsalsa208sha256_str_needs_rehash:str <- [DW_OP_LLVM_entry_value 1] $rdi
	.loc	1 293 51                        # crypto_pwhash/scryptsalsa208sha256/pwhash_scryptsalsa208sha256.c:293:51
	testq	%rax, %rax
	je	.LBB18_29
.Ltmp194:
# %bb.31:
	#DEBUG_VALUE: crypto_pwhash_scryptsalsa208sha256_str_needs_rehash:str <- [DW_OP_LLVM_entry_value 1] $rdi
	#DEBUG_VALUE: crypto_pwhash_scryptsalsa208sha256_str_needs_rehash:opslimit <- [DW_OP_LLVM_entry_value 1] $rsi
	#DEBUG_VALUE: crypto_pwhash_scryptsalsa208sha256_str_needs_rehash:memlimit <- [DW_OP_LLVM_entry_value 1] $rdx
	#DEBUG_VALUE: crypto_pwhash_scryptsalsa208sha256_str_needs_rehash:r <- 8
	#DEBUG_VALUE: crypto_pwhash_scryptsalsa208sha256_str_needs_rehash:N_log2 <- $ebx
	#DEBUG_VALUE: crypto_pwhash_scryptsalsa208sha256_str_needs_rehash:p <- $r14d
	.loc	1 0 51 is_stmt 0                # crypto_pwhash/scryptsalsa208sha256/pwhash_scryptsalsa208sha256.c:0:51
	movl	$1, %eax
.Ltmp195:
	.loc	1 297 16 is_stmt 1              # crypto_pwhash/scryptsalsa208sha256/pwhash_scryptsalsa208sha256.c:297:16
	cmpl	20(%rsp), %ebx
	.loc	1 297 27 is_stmt 0              # crypto_pwhash/scryptsalsa208sha256/pwhash_scryptsalsa208sha256.c:297:27
	jne	.LBB18_34
.Ltmp196:
# %bb.32:
	#DEBUG_VALUE: crypto_pwhash_scryptsalsa208sha256_str_needs_rehash:str <- [DW_OP_LLVM_entry_value 1] $rdi
	#DEBUG_VALUE: crypto_pwhash_scryptsalsa208sha256_str_needs_rehash:opslimit <- [DW_OP_LLVM_entry_value 1] $rsi
	#DEBUG_VALUE: crypto_pwhash_scryptsalsa208sha256_str_needs_rehash:memlimit <- [DW_OP_LLVM_entry_value 1] $rdx
	#DEBUG_VALUE: crypto_pwhash_scryptsalsa208sha256_str_needs_rehash:r <- 8
	#DEBUG_VALUE: crypto_pwhash_scryptsalsa208sha256_str_needs_rehash:N_log2 <- $ebx
	#DEBUG_VALUE: crypto_pwhash_scryptsalsa208sha256_str_needs_rehash:p <- $r14d
	cmpl	$8, 12(%rsp)
	jne	.LBB18_34
.Ltmp197:
# %bb.33:
	#DEBUG_VALUE: crypto_pwhash_scryptsalsa208sha256_str_needs_rehash:str <- [DW_OP_LLVM_entry_value 1] $rdi
	#DEBUG_VALUE: crypto_pwhash_scryptsalsa208sha256_str_needs_rehash:opslimit <- [DW_OP_LLVM_entry_value 1] $rsi
	#DEBUG_VALUE: crypto_pwhash_scryptsalsa208sha256_str_needs_rehash:memlimit <- [DW_OP_LLVM_entry_value 1] $rdx
	#DEBUG_VALUE: crypto_pwhash_scryptsalsa208sha256_str_needs_rehash:r <- 8
	#DEBUG_VALUE: crypto_pwhash_scryptsalsa208sha256_str_needs_rehash:N_log2 <- $ebx
	#DEBUG_VALUE: crypto_pwhash_scryptsalsa208sha256_str_needs_rehash:p <- $r14d
	.loc	1 297 43                        # crypto_pwhash/scryptsalsa208sha256/pwhash_scryptsalsa208sha256.c:297:43
	xorl	%eax, %eax
	cmpl	16(%rsp), %r14d
	setne	%al
	jmp	.LBB18_34
.Ltmp198:
.LBB18_26:                              # %.sodium_strnlen.exitsplitsplit_crit_edge
	#DEBUG_VALUE: crypto_pwhash_scryptsalsa208sha256_str_needs_rehash:str <- $rdi
	#DEBUG_VALUE: crypto_pwhash_scryptsalsa208sha256_str_needs_rehash:opslimit <- [DW_OP_LLVM_entry_value 1] $rsi
	#DEBUG_VALUE: crypto_pwhash_scryptsalsa208sha256_str_needs_rehash:memlimit <- [DW_OP_LLVM_entry_value 1] $rdx
	#DEBUG_VALUE: crypto_pwhash_scryptsalsa208sha256_str_needs_rehash:r <- 8
	#DEBUG_VALUE: crypto_pwhash_scryptsalsa208sha256_str_needs_rehash:N_log2 <- $ebx
	#DEBUG_VALUE: crypto_pwhash_scryptsalsa208sha256_str_needs_rehash:p <- $r14d
	#DEBUG_VALUE: sodium_strnlen:str <- $rdi
	#DEBUG_VALUE: sodium_strnlen:maxlen <- 102
	#DEBUG_VALUE: sodium_strnlen:i <- [DW_OP_constu 1, DW_OP_minus, DW_OP_stack_value] $rax
	.loc	1 61 5 is_stmt 1                # crypto_pwhash/scryptsalsa208sha256/pwhash_scryptsalsa208sha256.c:61:5 @[ crypto_pwhash/scryptsalsa208sha256/pwhash_scryptsalsa208sha256.c:287:9 ]
	decq	%rax
.Ltmp199:
	.loc	1 287 35                        # crypto_pwhash/scryptsalsa208sha256/pwhash_scryptsalsa208sha256.c:287:35
	cmpq	$101, %rax
	je	.LBB18_30
.Ltmp200:
.LBB18_29:                              # %sodium_strnlen.exit.thread
	#DEBUG_VALUE: crypto_pwhash_scryptsalsa208sha256_str_needs_rehash:str <- [DW_OP_LLVM_entry_value 1] $rdi
	#DEBUG_VALUE: crypto_pwhash_scryptsalsa208sha256_str_needs_rehash:opslimit <- [DW_OP_LLVM_entry_value 1] $rsi
	#DEBUG_VALUE: crypto_pwhash_scryptsalsa208sha256_str_needs_rehash:memlimit <- [DW_OP_LLVM_entry_value 1] $rdx
	#DEBUG_VALUE: crypto_pwhash_scryptsalsa208sha256_str_needs_rehash:r <- 8
	#DEBUG_VALUE: crypto_pwhash_scryptsalsa208sha256_str_needs_rehash:N_log2 <- $ebx
	#DEBUG_VALUE: crypto_pwhash_scryptsalsa208sha256_str_needs_rehash:p <- $r14d
	#DEBUG_VALUE: sodium_strnlen:maxlen <- 102
	.loc	1 0 0 is_stmt 0                 # crypto_pwhash/scryptsalsa208sha256/pwhash_scryptsalsa208sha256.c:0
	callq	__errno_location@PLT
.Ltmp201:
	movl	$22, (%rax)
	movl	$-1, %eax
.Ltmp202:
.LBB18_34:
	#DEBUG_VALUE: crypto_pwhash_scryptsalsa208sha256_str_needs_rehash:str <- [DW_OP_LLVM_entry_value 1] $rdi
	#DEBUG_VALUE: crypto_pwhash_scryptsalsa208sha256_str_needs_rehash:opslimit <- [DW_OP_LLVM_entry_value 1] $rsi
	#DEBUG_VALUE: crypto_pwhash_scryptsalsa208sha256_str_needs_rehash:memlimit <- [DW_OP_LLVM_entry_value 1] $rdx
	#DEBUG_VALUE: crypto_pwhash_scryptsalsa208sha256_str_needs_rehash:r <- 8
	#DEBUG_VALUE: crypto_pwhash_scryptsalsa208sha256_str_needs_rehash:N_log2 <- $ebx
	#DEBUG_VALUE: crypto_pwhash_scryptsalsa208sha256_str_needs_rehash:p <- $r14d
	.loc	1 301 1 epilogue_begin is_stmt 1 # crypto_pwhash/scryptsalsa208sha256/pwhash_scryptsalsa208sha256.c:301:1
	addq	$24, %rsp
	.cfi_def_cfa_offset 24
	popq	%rbx
.Ltmp203:
	.cfi_def_cfa_offset 16
	popq	%r14
.Ltmp204:
	.cfi_def_cfa_offset 8
	retq
.Ltmp205:
.Lfunc_end18:
	.size	crypto_pwhash_scryptsalsa208sha256_str_needs_rehash, .Lfunc_end18-crypto_pwhash_scryptsalsa208sha256_str_needs_rehash
	.cfi_endproc
                                        # -- End function
	.type	.L.str,@object                  # @.str
	.section	.rodata.str1.1,"aMS",@progbits,1
.L.str:
	.asciz	"$7$"
	.size	.L.str, 4

	.section	".note.GNU-stack","",@progbits
	.addrsig
	.addrsig_sym __stack_chk_fail