	.file	"pwhash_argon2id.c"
	.file	0 "/home/leizhenyuu/opt/Anonymous_Repo/libsodium_o2_attr_inline/src/libsodium" "pwhash_argon2id.c" md5 0x61c33a7267020ebf46dd6749f2fbc3ab
	.file	1 "crypto_pwhash/argon2" "pwhash_argon2id.c"
	.file	2 "crypto_pwhash/argon2" "argon2.h"
	.file	3 "/usr/include/x86_64-linux-gnu/bits" "types.h"
	.file	4 "/usr/include/x86_64-linux-gnu/bits" "stdint-uintn.h"
	.file	5 "/home/leizhenyuu/opt/Anonymous_Repo" "llvm-project/build/lib/clang/21/include/__stddef_size_t.h"
	.text
	.globl	crypto_pwhash_argon2id_alg_argon2id13 # -- Begin function crypto_pwhash_argon2id_alg_argon2id13
	.p2align	4
	.type	crypto_pwhash_argon2id_alg_argon2id13,@function
crypto_pwhash_argon2id_alg_argon2id13:  # @crypto_pwhash_argon2id_alg_argon2id13
.Lfunc_begin0:
	.cfi_startproc
# %bb.0:
	.loc	1 20 5 prologue_end             # crypto_pwhash/argon2/pwhash_argon2id.c:20:5
	movl	$2, %eax
	retq
.Ltmp0:
.Lfunc_end0:
	.size	crypto_pwhash_argon2id_alg_argon2id13, .Lfunc_end0-crypto_pwhash_argon2id_alg_argon2id13
	.cfi_endproc
                                        # -- End function
	.globl	crypto_pwhash_argon2id_bytes_min # -- Begin function crypto_pwhash_argon2id_bytes_min
	.p2align	4
	.type	crypto_pwhash_argon2id_bytes_min,@function
crypto_pwhash_argon2id_bytes_min:       # @crypto_pwhash_argon2id_bytes_min
.Lfunc_begin1:
	.cfi_startproc
# %bb.0:
	.loc	1 27 5 prologue_end             # crypto_pwhash/argon2/pwhash_argon2id.c:27:5
	movl	$16, %eax
	retq
.Ltmp1:
.Lfunc_end1:
	.size	crypto_pwhash_argon2id_bytes_min, .Lfunc_end1-crypto_pwhash_argon2id_bytes_min
	.cfi_endproc
                                        # -- End function
	.globl	crypto_pwhash_argon2id_bytes_max # -- Begin function crypto_pwhash_argon2id_bytes_max
	.p2align	4
	.type	crypto_pwhash_argon2id_bytes_max,@function
crypto_pwhash_argon2id_bytes_max:       # @crypto_pwhash_argon2id_bytes_max
.Lfunc_begin2:
	.cfi_startproc
# %bb.0:
	.loc	1 34 5 prologue_end             # crypto_pwhash/argon2/pwhash_argon2id.c:34:5
	movl	$4294967295, %eax               # imm = 0xFFFFFFFF
	retq
.Ltmp2:
.Lfunc_end2:
	.size	crypto_pwhash_argon2id_bytes_max, .Lfunc_end2-crypto_pwhash_argon2id_bytes_max
	.cfi_endproc
                                        # -- End function
	.globl	crypto_pwhash_argon2id_passwd_min # -- Begin function crypto_pwhash_argon2id_passwd_min
	.p2align	4
	.type	crypto_pwhash_argon2id_passwd_min,@function
crypto_pwhash_argon2id_passwd_min:      # @crypto_pwhash_argon2id_passwd_min
.Lfunc_begin3:
	.cfi_startproc
# %bb.0:
	.loc	1 41 5 prologue_end             # crypto_pwhash/argon2/pwhash_argon2id.c:41:5
	xorl	%eax, %eax
	retq
.Ltmp3:
.Lfunc_end3:
	.size	crypto_pwhash_argon2id_passwd_min, .Lfunc_end3-crypto_pwhash_argon2id_passwd_min
	.cfi_endproc
                                        # -- End function
	.globl	crypto_pwhash_argon2id_passwd_max # -- Begin function crypto_pwhash_argon2id_passwd_max
	.p2align	4
	.type	crypto_pwhash_argon2id_passwd_max,@function
crypto_pwhash_argon2id_passwd_max:      # @crypto_pwhash_argon2id_passwd_max
.Lfunc_begin4:
	.cfi_startproc
# %bb.0:
	.loc	1 48 5 prologue_end             # crypto_pwhash/argon2/pwhash_argon2id.c:48:5
	movl	$4294967295, %eax               # imm = 0xFFFFFFFF
	retq
.Ltmp4:
.Lfunc_end4:
	.size	crypto_pwhash_argon2id_passwd_max, .Lfunc_end4-crypto_pwhash_argon2id_passwd_max
	.cfi_endproc
                                        # -- End function
	.globl	crypto_pwhash_argon2id_saltbytes # -- Begin function crypto_pwhash_argon2id_saltbytes
	.p2align	4
	.type	crypto_pwhash_argon2id_saltbytes,@function
crypto_pwhash_argon2id_saltbytes:       # @crypto_pwhash_argon2id_saltbytes
.Lfunc_begin5:
	.cfi_startproc
# %bb.0:
	.loc	1 56 5 prologue_end             # crypto_pwhash/argon2/pwhash_argon2id.c:56:5
	movl	$16, %eax
	retq
.Ltmp5:
.Lfunc_end5:
	.size	crypto_pwhash_argon2id_saltbytes, .Lfunc_end5-crypto_pwhash_argon2id_saltbytes
	.cfi_endproc
                                        # -- End function
	.globl	crypto_pwhash_argon2id_strbytes # -- Begin function crypto_pwhash_argon2id_strbytes
	.p2align	4
	.type	crypto_pwhash_argon2id_strbytes,@function
crypto_pwhash_argon2id_strbytes:        # @crypto_pwhash_argon2id_strbytes
.Lfunc_begin6:
	.cfi_startproc
# %bb.0:
	.loc	1 62 5 prologue_end             # crypto_pwhash/argon2/pwhash_argon2id.c:62:5
	movl	$128, %eax
	retq
.Ltmp6:
.Lfunc_end6:
	.size	crypto_pwhash_argon2id_strbytes, .Lfunc_end6-crypto_pwhash_argon2id_strbytes
	.cfi_endproc
                                        # -- End function
	.globl	crypto_pwhash_argon2id_strprefix # -- Begin function crypto_pwhash_argon2id_strprefix
	.p2align	4
	.type	crypto_pwhash_argon2id_strprefix,@function
crypto_pwhash_argon2id_strprefix:       # @crypto_pwhash_argon2id_strprefix
.Lfunc_begin7:
	.cfi_startproc
# %bb.0:
	.loc	1 68 5 prologue_end             # crypto_pwhash/argon2/pwhash_argon2id.c:68:5
	leaq	.L.str(%rip), %rax
	retq
.Ltmp7:
.Lfunc_end7:
	.size	crypto_pwhash_argon2id_strprefix, .Lfunc_end7-crypto_pwhash_argon2id_strprefix
	.cfi_endproc
                                        # -- End function
	.globl	crypto_pwhash_argon2id_opslimit_min # -- Begin function crypto_pwhash_argon2id_opslimit_min
	.p2align	4
	.type	crypto_pwhash_argon2id_opslimit_min,@function
crypto_pwhash_argon2id_opslimit_min:    # @crypto_pwhash_argon2id_opslimit_min
.Lfunc_begin8:
	.cfi_startproc
# %bb.0:
	.loc	1 75 5 prologue_end             # crypto_pwhash/argon2/pwhash_argon2id.c:75:5
	movl	$1, %eax
	retq
.Ltmp8:
.Lfunc_end8:
	.size	crypto_pwhash_argon2id_opslimit_min, .Lfunc_end8-crypto_pwhash_argon2id_opslimit_min
	.cfi_endproc
                                        # -- End function
	.globl	crypto_pwhash_argon2id_opslimit_max # -- Begin function crypto_pwhash_argon2id_opslimit_max
	.p2align	4
	.type	crypto_pwhash_argon2id_opslimit_max,@function
crypto_pwhash_argon2id_opslimit_max:    # @crypto_pwhash_argon2id_opslimit_max
.Lfunc_begin9:
	.cfi_startproc
# %bb.0:
	.loc	1 82 5 prologue_end             # crypto_pwhash/argon2/pwhash_argon2id.c:82:5
	movl	$4294967295, %eax               # imm = 0xFFFFFFFF
	retq
.Ltmp9:
.Lfunc_end9:
	.size	crypto_pwhash_argon2id_opslimit_max, .Lfunc_end9-crypto_pwhash_argon2id_opslimit_max
	.cfi_endproc
                                        # -- End function
	.globl	crypto_pwhash_argon2id_memlimit_min # -- Begin function crypto_pwhash_argon2id_memlimit_min
	.p2align	4
	.type	crypto_pwhash_argon2id_memlimit_min,@function
crypto_pwhash_argon2id_memlimit_min:    # @crypto_pwhash_argon2id_memlimit_min
.Lfunc_begin10:
	.cfi_startproc
# %bb.0:
	.loc	1 89 5 prologue_end             # crypto_pwhash/argon2/pwhash_argon2id.c:89:5
	movl	$8192, %eax                     # imm = 0x2000
	retq
.Ltmp10:
.Lfunc_end10:
	.size	crypto_pwhash_argon2id_memlimit_min, .Lfunc_end10-crypto_pwhash_argon2id_memlimit_min
	.cfi_endproc
                                        # -- End function
	.globl	crypto_pwhash_argon2id_memlimit_max # -- Begin function crypto_pwhash_argon2id_memlimit_max
	.p2align	4
	.type	crypto_pwhash_argon2id_memlimit_max,@function
crypto_pwhash_argon2id_memlimit_max:    # @crypto_pwhash_argon2id_memlimit_max
.Lfunc_begin11:
	.loc	1 94 0                          # crypto_pwhash/argon2/pwhash_argon2id.c:94:0
	.cfi_startproc
# %bb.0:
	movabsq	$4398046510080, %rax            # imm = 0x3FFFFFFFC00
.Ltmp11:
	.loc	1 96 5 prologue_end             # crypto_pwhash/argon2/pwhash_argon2id.c:96:5
	retq
.Ltmp12:
.Lfunc_end11:
	.size	crypto_pwhash_argon2id_memlimit_max, .Lfunc_end11-crypto_pwhash_argon2id_memlimit_max
	.cfi_endproc
                                        # -- End function
	.globl	crypto_pwhash_argon2id_opslimit_interactive # -- Begin function crypto_pwhash_argon2id_opslimit_interactive
	.p2align	4
	.type	crypto_pwhash_argon2id_opslimit_interactive,@function
crypto_pwhash_argon2id_opslimit_interactive: # @crypto_pwhash_argon2id_opslimit_interactive
.Lfunc_begin12:
	.cfi_startproc
# %bb.0:
	.loc	1 102 5 prologue_end            # crypto_pwhash/argon2/pwhash_argon2id.c:102:5
	movl	$2, %eax
	retq
.Ltmp13:
.Lfunc_end12:
	.size	crypto_pwhash_argon2id_opslimit_interactive, .Lfunc_end12-crypto_pwhash_argon2id_opslimit_interactive
	.cfi_endproc
                                        # -- End function
	.globl	crypto_pwhash_argon2id_memlimit_interactive # -- Begin function crypto_pwhash_argon2id_memlimit_interactive
	.p2align	4
	.type	crypto_pwhash_argon2id_memlimit_interactive,@function
crypto_pwhash_argon2id_memlimit_interactive: # @crypto_pwhash_argon2id_memlimit_interactive
.Lfunc_begin13:
	.cfi_startproc
# %bb.0:
	.loc	1 108 5 prologue_end            # crypto_pwhash/argon2/pwhash_argon2id.c:108:5
	movl	$67108864, %eax                 # imm = 0x4000000
	retq
.Ltmp14:
.Lfunc_end13:
	.size	crypto_pwhash_argon2id_memlimit_interactive, .Lfunc_end13-crypto_pwhash_argon2id_memlimit_interactive
	.cfi_endproc
                                        # -- End function
	.globl	crypto_pwhash_argon2id_opslimit_moderate # -- Begin function crypto_pwhash_argon2id_opslimit_moderate
	.p2align	4
	.type	crypto_pwhash_argon2id_opslimit_moderate,@function
crypto_pwhash_argon2id_opslimit_moderate: # @crypto_pwhash_argon2id_opslimit_moderate
.Lfunc_begin14:
	.cfi_startproc
# %bb.0:
	.loc	1 114 5 prologue_end            # crypto_pwhash/argon2/pwhash_argon2id.c:114:5
	movl	$3, %eax
	retq
.Ltmp15:
.Lfunc_end14:
	.size	crypto_pwhash_argon2id_opslimit_moderate, .Lfunc_end14-crypto_pwhash_argon2id_opslimit_moderate
	.cfi_endproc
                                        # -- End function
	.globl	crypto_pwhash_argon2id_memlimit_moderate # -- Begin function crypto_pwhash_argon2id_memlimit_moderate
	.p2align	4
	.type	crypto_pwhash_argon2id_memlimit_moderate,@function
crypto_pwhash_argon2id_memlimit_moderate: # @crypto_pwhash_argon2id_memlimit_moderate
.Lfunc_begin15:
	.cfi_startproc
# %bb.0:
	.loc	1 120 5 prologue_end            # crypto_pwhash/argon2/pwhash_argon2id.c:120:5
	movl	$268435456, %eax                # imm = 0x10000000
	retq
.Ltmp16:
.Lfunc_end15:
	.size	crypto_pwhash_argon2id_memlimit_moderate, .Lfunc_end15-crypto_pwhash_argon2id_memlimit_moderate
	.cfi_endproc
                                        # -- End function
	.globl	crypto_pwhash_argon2id_opslimit_sensitive # -- Begin function crypto_pwhash_argon2id_opslimit_sensitive
	.p2align	4
	.type	crypto_pwhash_argon2id_opslimit_sensitive,@function
crypto_pwhash_argon2id_opslimit_sensitive: # @crypto_pwhash_argon2id_opslimit_sensitive
.Lfunc_begin16:
	.cfi_startproc
# %bb.0:
	.loc	1 126 5 prologue_end            # crypto_pwhash/argon2/pwhash_argon2id.c:126:5
	movl	$4, %eax
	retq
.Ltmp17:
.Lfunc_end16:
	.size	crypto_pwhash_argon2id_opslimit_sensitive, .Lfunc_end16-crypto_pwhash_argon2id_opslimit_sensitive
	.cfi_endproc
                                        # -- End function
	.globl	crypto_pwhash_argon2id_memlimit_sensitive # -- Begin function crypto_pwhash_argon2id_memlimit_sensitive
	.p2align	4
	.type	crypto_pwhash_argon2id_memlimit_sensitive,@function
crypto_pwhash_argon2id_memlimit_sensitive: # @crypto_pwhash_argon2id_memlimit_sensitive
.Lfunc_begin17:
	.cfi_startproc
# %bb.0:
	.loc	1 132 5 prologue_end            # crypto_pwhash/argon2/pwhash_argon2id.c:132:5
	movl	$1073741824, %eax               # imm = 0x40000000
	retq
.Ltmp18:
.Lfunc_end17:
	.size	crypto_pwhash_argon2id_memlimit_sensitive, .Lfunc_end17-crypto_pwhash_argon2id_memlimit_sensitive
	.cfi_endproc
                                        # -- End function
	.globl	crypto_pwhash_argon2id          # -- Begin function crypto_pwhash_argon2id
	.p2align	4
	.type	crypto_pwhash_argon2id,@function
crypto_pwhash_argon2id:                 # @crypto_pwhash_argon2id
.Lfunc_begin18:
	.loc	1 140 0                         # crypto_pwhash/argon2/pwhash_argon2id.c:140:0
	.cfi_startproc
# %bb.0:
	#DEBUG_VALUE: crypto_pwhash_argon2id:out <- $rdi
	#DEBUG_VALUE: crypto_pwhash_argon2id:outlen <- $rsi
	#DEBUG_VALUE: crypto_pwhash_argon2id:passwd <- $rdx
	#DEBUG_VALUE: crypto_pwhash_argon2id:passwdlen <- $rcx
	#DEBUG_VALUE: crypto_pwhash_argon2id:salt <- $r8
	#DEBUG_VALUE: crypto_pwhash_argon2id:opslimit <- $r9
	#DEBUG_VALUE: memset:__dest <- $rdi
	#DEBUG_VALUE: memset:__len <- $rsi
	pushq	%rbp
	.cfi_def_cfa_offset 16
	pushq	%r15
	.cfi_def_cfa_offset 24
	pushq	%r14
	.cfi_def_cfa_offset 32
	pushq	%r13
	.cfi_def_cfa_offset 40
	pushq	%r12
	.cfi_def_cfa_offset 48
	pushq	%rbx
	.cfi_def_cfa_offset 56
	pushq	%rax
	.cfi_def_cfa_offset 64
	.cfi_offset %rbx, -56
	.cfi_offset %r12, -48
	.cfi_offset %r13, -40
	.cfi_offset %r14, -32
	.cfi_offset %r15, -24
	.cfi_offset %rbp, -16
.Ltmp19:
	#DEBUG_VALUE: crypto_pwhash_argon2id:memlimit <- [DW_OP_plus_uconst 64] [$rsp+0]
	#DEBUG_VALUE: crypto_pwhash_argon2id:alg <- [DW_OP_plus_uconst 72] [$rsp+0]
	movq	%r9, %rbp
	movq	%r8, %rbx
	movq	%rcx, %r12
	movq	%rdx, %r13
	movq	%rsi, %r15
	movq	%rdi, %r14
.Ltmp20:
	#DEBUG_VALUE: memset:__ch <- 0
	.file	6 "/usr/include/x86_64-linux-gnu/bits" "string_fortified.h"
	.loc	6 59 10 prologue_end            # /usr/include/x86_64-linux-gnu/bits/string_fortified.h:59:10 @[ crypto_pwhash/argon2/pwhash_argon2id.c:141:5 ]
	xorl	%esi, %esi
.Ltmp21:
	#DEBUG_VALUE: memset:__len <- $r15
	#DEBUG_VALUE: crypto_pwhash_argon2id:outlen <- $r15
	movq	%r15, %rdx
.Ltmp22:
	#DEBUG_VALUE: crypto_pwhash_argon2id:passwd <- $r13
	callq	memset@PLT
.Ltmp23:
	#DEBUG_VALUE: crypto_pwhash_argon2id:opslimit <- $rbp
	#DEBUG_VALUE: crypto_pwhash_argon2id:salt <- $rbx
	#DEBUG_VALUE: crypto_pwhash_argon2id:passwdlen <- $r12
	#DEBUG_VALUE: memset:__dest <- $r14
	#DEBUG_VALUE: crypto_pwhash_argon2id:out <- $r14
	.loc	1 142 16                        # crypto_pwhash/argon2/pwhash_argon2id.c:142:16
	movq	%r15, %rax
	shrq	$32, %rax
	je	.LBB18_2
.Ltmp24:
.LBB18_1:
	#DEBUG_VALUE: crypto_pwhash_argon2id:out <- $r14
	#DEBUG_VALUE: crypto_pwhash_argon2id:outlen <- $r15
	#DEBUG_VALUE: crypto_pwhash_argon2id:passwd <- $r13
	#DEBUG_VALUE: crypto_pwhash_argon2id:passwdlen <- $r12
	#DEBUG_VALUE: crypto_pwhash_argon2id:salt <- $rbx
	#DEBUG_VALUE: crypto_pwhash_argon2id:opslimit <- $rbp
	#DEBUG_VALUE: memset:__dest <- $r14
	#DEBUG_VALUE: memset:__len <- $r15
	#DEBUG_VALUE: crypto_pwhash_argon2id:memlimit <- [DW_OP_plus_uconst 64] [$rsp+0]
	#DEBUG_VALUE: crypto_pwhash_argon2id:alg <- [DW_OP_plus_uconst 72] [$rsp+0]
	#DEBUG_VALUE: memset:__ch <- 0
	.loc	1 0 0 is_stmt 0                 # crypto_pwhash/argon2/pwhash_argon2id.c:0
	callq	__errno_location@PLT
.Ltmp25:
	movl	$27, (%rax)
	jmp	.LBB18_9
.Ltmp26:
.LBB18_2:
	#DEBUG_VALUE: crypto_pwhash_argon2id:out <- $r14
	#DEBUG_VALUE: crypto_pwhash_argon2id:outlen <- $r15
	#DEBUG_VALUE: crypto_pwhash_argon2id:passwd <- $r13
	#DEBUG_VALUE: crypto_pwhash_argon2id:passwdlen <- $r12
	#DEBUG_VALUE: crypto_pwhash_argon2id:salt <- $rbx
	#DEBUG_VALUE: crypto_pwhash_argon2id:opslimit <- $rbp
	#DEBUG_VALUE: crypto_pwhash_argon2id:memlimit <- [DW_OP_plus_uconst 64] [$rsp+0]
	#DEBUG_VALUE: crypto_pwhash_argon2id:alg <- [DW_OP_plus_uconst 72] [$rsp+0]
	.loc	1 146 16 is_stmt 1              # crypto_pwhash/argon2/pwhash_argon2id.c:146:16
	cmpq	$15, %r15
	ja	.LBB18_3
.Ltmp27:
.LBB18_8:
	#DEBUG_VALUE: crypto_pwhash_argon2id:out <- $r14
	#DEBUG_VALUE: crypto_pwhash_argon2id:outlen <- $r15
	#DEBUG_VALUE: crypto_pwhash_argon2id:passwd <- $r13
	#DEBUG_VALUE: crypto_pwhash_argon2id:passwdlen <- $r12
	#DEBUG_VALUE: crypto_pwhash_argon2id:salt <- $rbx
	#DEBUG_VALUE: crypto_pwhash_argon2id:opslimit <- $rbp
	#DEBUG_VALUE: crypto_pwhash_argon2id:memlimit <- [DW_OP_plus_uconst 64] [$rsp+0]
	#DEBUG_VALUE: crypto_pwhash_argon2id:alg <- [DW_OP_plus_uconst 72] [$rsp+0]
	.loc	1 0 0 is_stmt 0                 # crypto_pwhash/argon2/pwhash_argon2id.c:0
	callq	__errno_location@PLT
.Ltmp28:
	movl	$22, (%rax)
.Ltmp29:
.LBB18_9:
	#DEBUG_VALUE: crypto_pwhash_argon2id:out <- $r14
	#DEBUG_VALUE: crypto_pwhash_argon2id:outlen <- $r15
	#DEBUG_VALUE: crypto_pwhash_argon2id:passwd <- $r13
	#DEBUG_VALUE: crypto_pwhash_argon2id:passwdlen <- $r12
	#DEBUG_VALUE: crypto_pwhash_argon2id:salt <- $rbx
	#DEBUG_VALUE: crypto_pwhash_argon2id:opslimit <- $rbp
	#DEBUG_VALUE: memset:__dest <- $r14
	#DEBUG_VALUE: memset:__len <- $r15
	#DEBUG_VALUE: crypto_pwhash_argon2id:memlimit <- [DW_OP_plus_uconst 64] [$rsp+0]
	#DEBUG_VALUE: crypto_pwhash_argon2id:alg <- [DW_OP_plus_uconst 72] [$rsp+0]
	#DEBUG_VALUE: memset:__ch <- 0
	movl	$-1, %eax
.Ltmp30:
.LBB18_10:
	#DEBUG_VALUE: crypto_pwhash_argon2id:out <- $r14
	#DEBUG_VALUE: crypto_pwhash_argon2id:outlen <- $r15
	#DEBUG_VALUE: crypto_pwhash_argon2id:passwd <- $r13
	#DEBUG_VALUE: crypto_pwhash_argon2id:passwdlen <- $r12
	#DEBUG_VALUE: crypto_pwhash_argon2id:salt <- $rbx
	#DEBUG_VALUE: crypto_pwhash_argon2id:opslimit <- $rbp
	.loc	1 179 1 epilogue_begin is_stmt 1 # crypto_pwhash/argon2/pwhash_argon2id.c:179:1
	addq	$8, %rsp
	.cfi_def_cfa_offset 56
	popq	%rbx
.Ltmp31:
	#DEBUG_VALUE: crypto_pwhash_argon2id:salt <- [DW_OP_LLVM_entry_value 1] $r8
	.cfi_def_cfa_offset 48
	popq	%r12
.Ltmp32:
	#DEBUG_VALUE: crypto_pwhash_argon2id:passwdlen <- [DW_OP_LLVM_entry_value 1] $rcx
	.cfi_def_cfa_offset 40
	popq	%r13
.Ltmp33:
	#DEBUG_VALUE: crypto_pwhash_argon2id:passwd <- [DW_OP_LLVM_entry_value 1] $rdx
	.cfi_def_cfa_offset 32
	popq	%r14
.Ltmp34:
	#DEBUG_VALUE: crypto_pwhash_argon2id:out <- [DW_OP_LLVM_entry_value 1] $rdi
	.cfi_def_cfa_offset 24
	popq	%r15
.Ltmp35:
	#DEBUG_VALUE: crypto_pwhash_argon2id:outlen <- [DW_OP_LLVM_entry_value 1] $rsi
	.cfi_def_cfa_offset 16
	popq	%rbp
.Ltmp36:
	#DEBUG_VALUE: crypto_pwhash_argon2id:opslimit <- [DW_OP_LLVM_entry_value 1] $r9
	.cfi_def_cfa_offset 8
	retq
.Ltmp37:
.LBB18_3:
	.cfi_def_cfa_offset 64
	#DEBUG_VALUE: crypto_pwhash_argon2id:out <- $r14
	#DEBUG_VALUE: crypto_pwhash_argon2id:outlen <- $r15
	#DEBUG_VALUE: crypto_pwhash_argon2id:passwd <- $r13
	#DEBUG_VALUE: crypto_pwhash_argon2id:passwdlen <- $r12
	#DEBUG_VALUE: crypto_pwhash_argon2id:salt <- $rbx
	#DEBUG_VALUE: crypto_pwhash_argon2id:opslimit <- $rbp
	#DEBUG_VALUE: crypto_pwhash_argon2id:memlimit <- [DW_OP_plus_uconst 64] [$rsp+0]
	#DEBUG_VALUE: crypto_pwhash_argon2id:alg <- [DW_OP_plus_uconst 72] [$rsp+0]
	.loc	1 0 1 is_stmt 0                 # crypto_pwhash/argon2/pwhash_argon2id.c:0:1
	movq	64(%rsp), %rsi
.Ltmp38:
	.loc	1 150 33 is_stmt 1              # crypto_pwhash/argon2/pwhash_argon2id.c:150:33
	movq	%rbp, %rax
	orq	%r12, %rax
	shrq	$32, %rax
	sete	%al
	movabsq	$4398046510081, %rcx            # imm = 0x3FFFFFFFC01
	cmpq	%rcx, %rsi
	setb	%cl
	testb	%cl, %al
	je	.LBB18_1
.Ltmp39:
# %bb.4:
	#DEBUG_VALUE: crypto_pwhash_argon2id:out <- $r14
	#DEBUG_VALUE: crypto_pwhash_argon2id:outlen <- $r15
	#DEBUG_VALUE: crypto_pwhash_argon2id:passwd <- $r13
	#DEBUG_VALUE: crypto_pwhash_argon2id:passwdlen <- $r12
	#DEBUG_VALUE: crypto_pwhash_argon2id:salt <- $rbx
	#DEBUG_VALUE: crypto_pwhash_argon2id:opslimit <- $rbp
	#DEBUG_VALUE: crypto_pwhash_argon2id:memlimit <- [DW_OP_plus_uconst 64] [$rsp+0]
	#DEBUG_VALUE: crypto_pwhash_argon2id:alg <- [DW_OP_plus_uconst 72] [$rsp+0]
	.loc	1 0 33 is_stmt 0                # crypto_pwhash/argon2/pwhash_argon2id.c:0:33
	testq	%rbp, %rbp
	setne	%al
	cmpq	$8192, %rsi                     # imm = 0x2000
	setae	%cl
.Ltmp40:
	.loc	1 156 24 is_stmt 1              # crypto_pwhash/argon2/pwhash_argon2id.c:156:24
	testb	%cl, %al
	je	.LBB18_8
.Ltmp41:
# %bb.5:
	#DEBUG_VALUE: crypto_pwhash_argon2id:out <- $r14
	#DEBUG_VALUE: crypto_pwhash_argon2id:outlen <- $r15
	#DEBUG_VALUE: crypto_pwhash_argon2id:passwd <- $r13
	#DEBUG_VALUE: crypto_pwhash_argon2id:passwdlen <- $r12
	#DEBUG_VALUE: crypto_pwhash_argon2id:salt <- $rbx
	#DEBUG_VALUE: crypto_pwhash_argon2id:opslimit <- $rbp
	#DEBUG_VALUE: crypto_pwhash_argon2id:memlimit <- [DW_OP_plus_uconst 64] [$rsp+0]
	#DEBUG_VALUE: crypto_pwhash_argon2id:alg <- [DW_OP_plus_uconst 72] [$rsp+0]
	.loc	1 162 28                        # crypto_pwhash/argon2/pwhash_argon2id.c:162:28
	cmpq	%r13, %r14
	je	.LBB18_8
.Ltmp42:
# %bb.6:
	#DEBUG_VALUE: crypto_pwhash_argon2id:out <- $r14
	#DEBUG_VALUE: crypto_pwhash_argon2id:outlen <- $r15
	#DEBUG_VALUE: crypto_pwhash_argon2id:passwd <- $r13
	#DEBUG_VALUE: crypto_pwhash_argon2id:passwdlen <- $r12
	#DEBUG_VALUE: crypto_pwhash_argon2id:salt <- $rbx
	#DEBUG_VALUE: crypto_pwhash_argon2id:opslimit <- $rbp
	#DEBUG_VALUE: crypto_pwhash_argon2id:memlimit <- [DW_OP_plus_uconst 64] [$rsp+0]
	#DEBUG_VALUE: crypto_pwhash_argon2id:alg <- [DW_OP_plus_uconst 72] [$rsp+0]
	.loc	1 166 5                         # crypto_pwhash/argon2/pwhash_argon2id.c:166:5
	cmpl	$2, 72(%rsp)
	jne	.LBB18_8
.Ltmp43:
# %bb.7:
	#DEBUG_VALUE: crypto_pwhash_argon2id:out <- $r14
	#DEBUG_VALUE: crypto_pwhash_argon2id:outlen <- $r15
	#DEBUG_VALUE: crypto_pwhash_argon2id:passwd <- $r13
	#DEBUG_VALUE: crypto_pwhash_argon2id:passwdlen <- $r12
	#DEBUG_VALUE: crypto_pwhash_argon2id:salt <- $rbx
	#DEBUG_VALUE: crypto_pwhash_argon2id:opslimit <- $rbp
	#DEBUG_VALUE: crypto_pwhash_argon2id:memlimit <- [DW_OP_plus_uconst 64] [$rsp+0]
	#DEBUG_VALUE: crypto_pwhash_argon2id:alg <- [DW_OP_plus_uconst 72] [$rsp+0]
	.loc	1 168 73                        # crypto_pwhash/argon2/pwhash_argon2id.c:168:73
	shrq	$10, %rsi
	.loc	1 168 13 is_stmt 0              # crypto_pwhash/argon2/pwhash_argon2id.c:168:13
	subq	$8, %rsp
.Ltmp44:
	.cfi_adjust_cfa_offset 8
	movl	%ebp, %edi
                                        # kill: def $esi killed $esi killed $rsi
	movl	$1, %edx
	movq	%r13, %rcx
	movq	%r12, %r8
	movq	%rbx, %r9
	pushq	%r15
	.cfi_adjust_cfa_offset 8
	pushq	%r14
	.cfi_adjust_cfa_offset 8
	pushq	$16
	.cfi_adjust_cfa_offset 8
	callq	argon2id_hash_raw@PLT
.Ltmp45:
	addq	$32, %rsp
	.cfi_adjust_cfa_offset -32
	movl	%eax, %ecx
.Ltmp46:
	.loc	1 0 0                           # crypto_pwhash/argon2/pwhash_argon2id.c:0
	xorl	%eax, %eax
	negl	%ecx
	sbbl	%eax, %eax
	jmp	.LBB18_10
.Ltmp47:
.Lfunc_end18:
	.size	crypto_pwhash_argon2id, .Lfunc_end18-crypto_pwhash_argon2id
	.cfi_endproc
	.file	7 "/usr/include" "errno.h"
                                        # -- End function
	.globl	crypto_pwhash_argon2id_str      # -- Begin function crypto_pwhash_argon2id_str
	.p2align	4
	.type	crypto_pwhash_argon2id_str,@function
crypto_pwhash_argon2id_str:             # @crypto_pwhash_argon2id_str
.Lfunc_begin19:
	.loc	1 186 0 is_stmt 1               # crypto_pwhash/argon2/pwhash_argon2id.c:186:0
	.cfi_startproc
# %bb.0:
	#DEBUG_VALUE: crypto_pwhash_argon2id_str:out <- $rdi
	#DEBUG_VALUE: crypto_pwhash_argon2id_str:passwd <- $rsi
	#DEBUG_VALUE: crypto_pwhash_argon2id_str:passwdlen <- $rdx
	#DEBUG_VALUE: crypto_pwhash_argon2id_str:opslimit <- $rcx
	#DEBUG_VALUE: crypto_pwhash_argon2id_str:memlimit <- $r8
	pushq	%rbp
	.cfi_def_cfa_offset 16
	pushq	%r15
	.cfi_def_cfa_offset 24
	pushq	%r14
	.cfi_def_cfa_offset 32
	pushq	%r13
	.cfi_def_cfa_offset 40
	pushq	%r12
	.cfi_def_cfa_offset 48
	pushq	%rbx
	.cfi_def_cfa_offset 56
	subq	$24, %rsp
	.cfi_def_cfa_offset 80
	.cfi_offset %rbx, -56
	.cfi_offset %r12, -48
	.cfi_offset %r13, -40
	.cfi_offset %r14, -32
	.cfi_offset %r15, -24
	.cfi_offset %rbp, -16
	movq	%fs:40, %rax
	movq	%rax, 16(%rsp)
.Ltmp48:
	#DEBUG_VALUE: memset:__dest <- $rdi
	#DEBUG_VALUE: memset:__ch <- 0
	#DEBUG_VALUE: memset:__len <- 128
	.loc	6 59 10 prologue_end            # /usr/include/x86_64-linux-gnu/bits/string_fortified.h:59:10 @[ crypto_pwhash/argon2/pwhash_argon2id.c:189:5 ]
	xorps	%xmm0, %xmm0
	movups	%xmm0, 112(%rdi)
	movups	%xmm0, 96(%rdi)
	movups	%xmm0, 80(%rdi)
	movups	%xmm0, 64(%rdi)
	movups	%xmm0, 48(%rdi)
	movups	%xmm0, 32(%rdi)
	movups	%xmm0, 16(%rdi)
	movups	%xmm0, (%rdi)
.Ltmp49:
	.loc	1 190 33                        # crypto_pwhash/argon2/pwhash_argon2id.c:190:33
	movq	%rcx, %rax
	orq	%rdx, %rax
	shrq	$32, %rax
	sete	%al
	movabsq	$4398046510081, %r9             # imm = 0x3FFFFFFFC01
	cmpq	%r9, %r8
	setb	%r9b
	testb	%r9b, %al
	jne	.LBB19_2
.Ltmp50:
# %bb.1:
	#DEBUG_VALUE: crypto_pwhash_argon2id_str:out <- $rdi
	#DEBUG_VALUE: crypto_pwhash_argon2id_str:passwd <- $rsi
	#DEBUG_VALUE: crypto_pwhash_argon2id_str:passwdlen <- $rdx
	#DEBUG_VALUE: crypto_pwhash_argon2id_str:opslimit <- $rcx
	#DEBUG_VALUE: crypto_pwhash_argon2id_str:memlimit <- $r8
	.loc	1 193 11                        # crypto_pwhash/argon2/pwhash_argon2id.c:193:11
	callq	__errno_location@PLT
.Ltmp51:
	#DEBUG_VALUE: crypto_pwhash_argon2id_str:memlimit <- [DW_OP_LLVM_entry_value 1] $r8
	#DEBUG_VALUE: crypto_pwhash_argon2id_str:opslimit <- [DW_OP_LLVM_entry_value 1] $rcx
	#DEBUG_VALUE: crypto_pwhash_argon2id_str:passwdlen <- [DW_OP_LLVM_entry_value 1] $rdx
	#DEBUG_VALUE: crypto_pwhash_argon2id_str:passwd <- [DW_OP_LLVM_entry_value 1] $rsi
	#DEBUG_VALUE: crypto_pwhash_argon2id_str:out <- [DW_OP_LLVM_entry_value 1] $rdi
	.loc	1 193 32 is_stmt 0              # crypto_pwhash/argon2/pwhash_argon2id.c:193:32
	movl	$27, (%rax)
	movl	$-1, %eax
.Ltmp52:
	.loc	1 200 9 is_stmt 1               # crypto_pwhash/argon2/pwhash_argon2id.c:200:9
	jmp	.LBB19_5
.Ltmp53:
.LBB19_2:
	#DEBUG_VALUE: crypto_pwhash_argon2id_str:out <- $rdi
	#DEBUG_VALUE: crypto_pwhash_argon2id_str:passwd <- $rsi
	#DEBUG_VALUE: crypto_pwhash_argon2id_str:passwdlen <- $rdx
	#DEBUG_VALUE: crypto_pwhash_argon2id_str:opslimit <- $rcx
	#DEBUG_VALUE: crypto_pwhash_argon2id_str:memlimit <- $r8
	.loc	1 0 9 is_stmt 0                 # crypto_pwhash/argon2/pwhash_argon2id.c:0:9
	testq	%rcx, %rcx
	setne	%al
	cmpq	$8192, %r8                      # imm = 0x2000
	setae	%r9b
	.loc	1 196 24 is_stmt 1              # crypto_pwhash/argon2/pwhash_argon2id.c:196:24
	testb	%r9b, %al
	jne	.LBB19_4
.Ltmp54:
# %bb.3:
	#DEBUG_VALUE: crypto_pwhash_argon2id_str:out <- $rdi
	#DEBUG_VALUE: crypto_pwhash_argon2id_str:passwd <- $rsi
	#DEBUG_VALUE: crypto_pwhash_argon2id_str:passwdlen <- $rdx
	#DEBUG_VALUE: crypto_pwhash_argon2id_str:opslimit <- $rcx
	#DEBUG_VALUE: crypto_pwhash_argon2id_str:memlimit <- $r8
	.loc	1 199 11                        # crypto_pwhash/argon2/pwhash_argon2id.c:199:11
	callq	__errno_location@PLT
.Ltmp55:
	#DEBUG_VALUE: crypto_pwhash_argon2id_str:memlimit <- [DW_OP_LLVM_entry_value 1] $r8
	#DEBUG_VALUE: crypto_pwhash_argon2id_str:opslimit <- [DW_OP_LLVM_entry_value 1] $rcx
	#DEBUG_VALUE: crypto_pwhash_argon2id_str:passwdlen <- [DW_OP_LLVM_entry_value 1] $rdx
	#DEBUG_VALUE: crypto_pwhash_argon2id_str:passwd <- [DW_OP_LLVM_entry_value 1] $rsi
	#DEBUG_VALUE: crypto_pwhash_argon2id_str:out <- [DW_OP_LLVM_entry_value 1] $rdi
	.loc	1 199 32 is_stmt 0              # crypto_pwhash/argon2/pwhash_argon2id.c:199:32
	movl	$22, (%rax)
	movl	$-1, %eax
	.loc	1 200 9 is_stmt 1               # crypto_pwhash/argon2/pwhash_argon2id.c:200:9
	jmp	.LBB19_5
.Ltmp56:
.LBB19_4:
	#DEBUG_VALUE: crypto_pwhash_argon2id_str:out <- $rdi
	#DEBUG_VALUE: crypto_pwhash_argon2id_str:passwd <- $rsi
	#DEBUG_VALUE: crypto_pwhash_argon2id_str:passwdlen <- $rdx
	#DEBUG_VALUE: crypto_pwhash_argon2id_str:opslimit <- $rcx
	#DEBUG_VALUE: crypto_pwhash_argon2id_str:memlimit <- $r8
	.loc	1 0 9 is_stmt 0                 # crypto_pwhash/argon2/pwhash_argon2id.c:0:9
	movq	%rsp, %rbx
	movq	%rsi, %r14
.Ltmp57:
	#DEBUG_VALUE: crypto_pwhash_argon2id_str:passwd <- $r14
	.loc	1 202 5 is_stmt 1               # crypto_pwhash/argon2/pwhash_argon2id.c:202:5
	movl	$16, %esi
	movq	%rdi, %rbp
.Ltmp58:
	#DEBUG_VALUE: crypto_pwhash_argon2id_str:out <- $rbp
	movq	%rbx, %rdi
	movq	%rdx, %r15
.Ltmp59:
	#DEBUG_VALUE: crypto_pwhash_argon2id_str:passwdlen <- $r15
	.loc	1 0 5 is_stmt 0                 # crypto_pwhash/argon2/pwhash_argon2id.c:0:5
	movq	%r8, %r12
.Ltmp60:
	#DEBUG_VALUE: crypto_pwhash_argon2id_str:memlimit <- $r12
	movq	%rcx, %r13
.Ltmp61:
	#DEBUG_VALUE: crypto_pwhash_argon2id_str:opslimit <- $r13
	.loc	1 202 5                         # crypto_pwhash/argon2/pwhash_argon2id.c:202:5
	callq	randombytes_buf@PLT
.Ltmp62:
	.loc	1 203 73 is_stmt 1              # crypto_pwhash/argon2/pwhash_argon2id.c:203:73
	shrq	$10, %r12
.Ltmp63:
	#DEBUG_VALUE: crypto_pwhash_argon2id_str:memlimit <- [DW_OP_LLVM_entry_value 1] $r8
	.loc	1 203 9 is_stmt 0               # crypto_pwhash/argon2/pwhash_argon2id.c:203:9
	movl	%r13d, %edi
	movl	%r12d, %esi
	movl	$1, %edx
	movq	%r14, %rcx
	movq	%r15, %r8
	movq	%rbx, %r9
	pushq	$128
	.cfi_adjust_cfa_offset 8
	pushq	%rbp
	.cfi_adjust_cfa_offset 8
	pushq	$32
	.cfi_adjust_cfa_offset 8
	pushq	$16
	.cfi_adjust_cfa_offset 8
	callq	argon2id_hash_encoded@PLT
.Ltmp64:
	addq	$32, %rsp
	.cfi_adjust_cfa_offset -32
	movl	%eax, %ecx
.Ltmp65:
	.loc	1 0 0                           # crypto_pwhash/argon2/pwhash_argon2id.c:0
	xorl	%eax, %eax
	negl	%ecx
	sbbl	%eax, %eax
.Ltmp66:
.LBB19_5:
	#DEBUG_VALUE: crypto_pwhash_argon2id_str:out <- [DW_OP_LLVM_entry_value 1] $rdi
	#DEBUG_VALUE: crypto_pwhash_argon2id_str:passwd <- [DW_OP_LLVM_entry_value 1] $rsi
	#DEBUG_VALUE: crypto_pwhash_argon2id_str:passwdlen <- [DW_OP_LLVM_entry_value 1] $rdx
	#DEBUG_VALUE: crypto_pwhash_argon2id_str:opslimit <- [DW_OP_LLVM_entry_value 1] $rcx
	#DEBUG_VALUE: crypto_pwhash_argon2id_str:memlimit <- [DW_OP_LLVM_entry_value 1] $r8
	.loc	1 210 1 is_stmt 1               # crypto_pwhash/argon2/pwhash_argon2id.c:210:1
	movq	%fs:40, %rcx
	cmpq	16(%rsp), %rcx
	jne	.LBB19_7
.Ltmp67:
# %bb.6:                                # %SP_return
	#DEBUG_VALUE: crypto_pwhash_argon2id_str:out <- [DW_OP_LLVM_entry_value 1] $rdi
	#DEBUG_VALUE: crypto_pwhash_argon2id_str:passwd <- [DW_OP_LLVM_entry_value 1] $rsi
	#DEBUG_VALUE: crypto_pwhash_argon2id_str:passwdlen <- [DW_OP_LLVM_entry_value 1] $rdx
	#DEBUG_VALUE: crypto_pwhash_argon2id_str:opslimit <- [DW_OP_LLVM_entry_value 1] $rcx
	#DEBUG_VALUE: crypto_pwhash_argon2id_str:memlimit <- [DW_OP_LLVM_entry_value 1] $r8
	.loc	1 210 1 epilogue_begin is_stmt 0 # crypto_pwhash/argon2/pwhash_argon2id.c:210:1
	addq	$24, %rsp
	.cfi_def_cfa_offset 56
	popq	%rbx
	.cfi_def_cfa_offset 48
	popq	%r12
	.cfi_def_cfa_offset 40
	popq	%r13
	.cfi_def_cfa_offset 32
	popq	%r14
	.cfi_def_cfa_offset 24
	popq	%r15
	.cfi_def_cfa_offset 16
	popq	%rbp
	.cfi_def_cfa_offset 8
	retq
.Ltmp68:
.LBB19_7:                               # %CallStackCheckFailBlk
	.cfi_def_cfa_offset 80
	#DEBUG_VALUE: crypto_pwhash_argon2id_str:out <- [DW_OP_LLVM_entry_value 1] $rdi
	#DEBUG_VALUE: crypto_pwhash_argon2id_str:passwd <- [DW_OP_LLVM_entry_value 1] $rsi
	#DEBUG_VALUE: crypto_pwhash_argon2id_str:passwdlen <- [DW_OP_LLVM_entry_value 1] $rdx
	#DEBUG_VALUE: crypto_pwhash_argon2id_str:opslimit <- [DW_OP_LLVM_entry_value 1] $rcx
	#DEBUG_VALUE: crypto_pwhash_argon2id_str:memlimit <- [DW_OP_LLVM_entry_value 1] $r8
	.loc	1 0 0                           # crypto_pwhash/argon2/pwhash_argon2id.c:0
	callq	__stack_chk_fail@PLT
.Ltmp69:
.Lfunc_end19:
	.size	crypto_pwhash_argon2id_str, .Lfunc_end19-crypto_pwhash_argon2id_str
	.cfi_endproc
	.file	8 "./include/sodium" "randombytes.h"
                                        # -- End function
	.globl	crypto_pwhash_argon2id_str_verify # -- Begin function crypto_pwhash_argon2id_str_verify
	.p2align	4
	.type	crypto_pwhash_argon2id_str_verify,@function
crypto_pwhash_argon2id_str_verify:      # @crypto_pwhash_argon2id_str_verify
.Lfunc_begin20:
	.loc	1 216 0 is_stmt 1               # crypto_pwhash/argon2/pwhash_argon2id.c:216:0
	.cfi_startproc
# %bb.0:
	#DEBUG_VALUE: crypto_pwhash_argon2id_str_verify:str <- $rdi
	#DEBUG_VALUE: crypto_pwhash_argon2id_str_verify:passwd <- $rsi
	#DEBUG_VALUE: crypto_pwhash_argon2id_str_verify:passwdlen <- $rdx
	pushq	%rax
	.cfi_def_cfa_offset 16
.Ltmp70:
	.loc	1 219 19 prologue_end           # crypto_pwhash/argon2/pwhash_argon2id.c:219:19
	movq	%rdx, %rax
	shrq	$32, %rax
	je	.LBB20_2
.Ltmp71:
# %bb.1:
	#DEBUG_VALUE: crypto_pwhash_argon2id_str_verify:str <- $rdi
	#DEBUG_VALUE: crypto_pwhash_argon2id_str_verify:passwd <- $rsi
	#DEBUG_VALUE: crypto_pwhash_argon2id_str_verify:passwdlen <- $rdx
	.loc	1 220 11                        # crypto_pwhash/argon2/pwhash_argon2id.c:220:11
	callq	__errno_location@PLT
.Ltmp72:
	#DEBUG_VALUE: crypto_pwhash_argon2id_str_verify:passwdlen <- [DW_OP_LLVM_entry_value 1] $rdx
	#DEBUG_VALUE: crypto_pwhash_argon2id_str_verify:passwd <- [DW_OP_LLVM_entry_value 1] $rsi
	#DEBUG_VALUE: crypto_pwhash_argon2id_str_verify:str <- [DW_OP_LLVM_entry_value 1] $rdi
	.loc	1 220 32 is_stmt 0              # crypto_pwhash/argon2/pwhash_argon2id.c:220:32
	movl	$27, (%rax)
	jmp	.LBB20_5
.Ltmp73:
.LBB20_2:
	#DEBUG_VALUE: crypto_pwhash_argon2id_str_verify:str <- $rdi
	#DEBUG_VALUE: crypto_pwhash_argon2id_str_verify:passwd <- $rsi
	#DEBUG_VALUE: crypto_pwhash_argon2id_str_verify:passwdlen <- $rdx
	.loc	1 230 18 is_stmt 1              # crypto_pwhash/argon2/pwhash_argon2id.c:230:18
	callq	argon2id_verify@PLT
.Ltmp74:
	#DEBUG_VALUE: crypto_pwhash_argon2id_str_verify:passwdlen <- [DW_OP_LLVM_entry_value 1] $rdx
	#DEBUG_VALUE: crypto_pwhash_argon2id_str_verify:passwd <- [DW_OP_LLVM_entry_value 1] $rsi
	#DEBUG_VALUE: crypto_pwhash_argon2id_str_verify:str <- [DW_OP_LLVM_entry_value 1] $rdi
	#DEBUG_VALUE: crypto_pwhash_argon2id_str_verify:verify_ret <- $eax
	.loc	1 231 20                        # crypto_pwhash/argon2/pwhash_argon2id.c:231:20
	testl	%eax, %eax
	je	.LBB20_6
.Ltmp75:
# %bb.3:
	#DEBUG_VALUE: crypto_pwhash_argon2id_str_verify:str <- [DW_OP_LLVM_entry_value 1] $rdi
	#DEBUG_VALUE: crypto_pwhash_argon2id_str_verify:passwd <- [DW_OP_LLVM_entry_value 1] $rsi
	#DEBUG_VALUE: crypto_pwhash_argon2id_str_verify:passwdlen <- [DW_OP_LLVM_entry_value 1] $rdx
	#DEBUG_VALUE: crypto_pwhash_argon2id_str_verify:verify_ret <- $eax
	cmpl	$-35, %eax
	jne	.LBB20_5
.Ltmp76:
# %bb.4:
	#DEBUG_VALUE: crypto_pwhash_argon2id_str_verify:str <- [DW_OP_LLVM_entry_value 1] $rdi
	#DEBUG_VALUE: crypto_pwhash_argon2id_str_verify:passwd <- [DW_OP_LLVM_entry_value 1] $rsi
	#DEBUG_VALUE: crypto_pwhash_argon2id_str_verify:passwdlen <- [DW_OP_LLVM_entry_value 1] $rdx
	#DEBUG_VALUE: crypto_pwhash_argon2id_str_verify:verify_ret <- $eax
	.loc	1 235 11                        # crypto_pwhash/argon2/pwhash_argon2id.c:235:11
	callq	__errno_location@PLT
.Ltmp77:
	.loc	1 235 32 is_stmt 0              # crypto_pwhash/argon2/pwhash_argon2id.c:235:32
	movl	$22, (%rax)
.Ltmp78:
.LBB20_5:
	#DEBUG_VALUE: crypto_pwhash_argon2id_str_verify:str <- [DW_OP_LLVM_entry_value 1] $rdi
	#DEBUG_VALUE: crypto_pwhash_argon2id_str_verify:passwd <- [DW_OP_LLVM_entry_value 1] $rsi
	#DEBUG_VALUE: crypto_pwhash_argon2id_str_verify:passwdlen <- [DW_OP_LLVM_entry_value 1] $rdx
	.loc	1 0 32                          # crypto_pwhash/argon2/pwhash_argon2id.c:0:32
	movl	$-1, %eax
.Ltmp79:
.LBB20_6:
	#DEBUG_VALUE: crypto_pwhash_argon2id_str_verify:str <- [DW_OP_LLVM_entry_value 1] $rdi
	#DEBUG_VALUE: crypto_pwhash_argon2id_str_verify:passwd <- [DW_OP_LLVM_entry_value 1] $rsi
	#DEBUG_VALUE: crypto_pwhash_argon2id_str_verify:passwdlen <- [DW_OP_LLVM_entry_value 1] $rdx
	.loc	1 238 1 epilogue_begin is_stmt 1 # crypto_pwhash/argon2/pwhash_argon2id.c:238:1
	popq	%rcx
	.cfi_def_cfa_offset 8
	retq
.Ltmp80:
.Lfunc_end20:
	.size	crypto_pwhash_argon2id_str_verify, .Lfunc_end20-crypto_pwhash_argon2id_str_verify
	.cfi_endproc
                                        # -- End function
	.type	.L.str,@object                  # @.str
	.section	.rodata.str1.1,"aMS",@progbits,1
.L.str:
	.asciz	"$argon2id$"
	.size	.L.str, 11

	.section	".note.GNU-stack","",@progbits
	.addrsig
	.addrsig_sym __stack_chk_fail