	.file	"randombytes_internal_random.c"
	.file	0 "/home/leizhenyuu/opt/Anonymous_Repo/libsodium_o2_attr_inline/src/libsodium" "randombytes_internal_random.c" md5 0x6b225ad21d91d037151a31d56572a80a
	.file	1 "./include/sodium" "randombytes.h"
	.file	2 "/usr/include/x86_64-linux-gnu/bits" "types.h"
	.file	3 "/usr/include/x86_64-linux-gnu/bits" "stdint-uintn.h"
	.file	4 "/home/leizhenyuu/opt/Anonymous_Repo" "llvm-project/build/lib/clang/21/include/__stddef_size_t.h"
	.file	5 "randombytes/internal" "randombytes_internal_random.c"
	.file	6 "/usr/include" "fcntl.h"
	.text
	.p2align	4                               # -- Begin function randombytes_internal_implementation_name
	.type	randombytes_internal_implementation_name,@function
randombytes_internal_implementation_name: # @randombytes_internal_implementation_name
.Lfunc_begin0:
	.cfi_startproc
# %bb.0:
	.loc	5 629 5 prologue_end            # randombytes/internal/randombytes_internal_random.c:629:5
	leaq	.L.str(%rip), %rax
	retq
.Ltmp0:
.Lfunc_end0:
	.size	randombytes_internal_implementation_name, .Lfunc_end0-randombytes_internal_implementation_name
	.cfi_endproc
                                        # -- End function
	.p2align	4                               # -- Begin function randombytes_internal_random
	.type	randombytes_internal_random,@function
randombytes_internal_random:            # @randombytes_internal_random
.Lfunc_begin1:
	.loc	5 598 0                         # randombytes/internal/randombytes_internal_random.c:598:0
	.cfi_startproc
# %bb.0:
	pushq	%rbp
	.cfi_def_cfa_offset 16
	pushq	%r15
	.cfi_def_cfa_offset 24
	pushq	%r14
	.cfi_def_cfa_offset 32
	pushq	%rbx
	.cfi_def_cfa_offset 40
	pushq	%rax
	.cfi_def_cfa_offset 48
	.cfi_offset %rbx, -40
	.cfi_offset %r14, -32
	.cfi_offset %r15, -24
	.cfi_offset %rbp, -16
	.loc	5 605 16 prologue_end           # randombytes/internal/randombytes_internal_random.c:605:16
	movq	%fs:stream@TPOFF+8, %rcx
	.loc	5 605 30 is_stmt 0              # randombytes/internal/randombytes_internal_random.c:605:30
	testq	%rcx, %rcx
	jne	.LBB1_12
# %bb.1:
	.loc	5 0 0                           # randombytes/internal/randombytes_internal_random.c:0
	movq	%fs:0, %rbx
.Ltmp1:
	.loc	5 460 28 is_stmt 1              # randombytes/internal/randombytes_internal_random.c:460:28 @[ randombytes/internal/randombytes_internal_random.c:606:9 ]
	cmpl	$0, %fs:stream@TPOFF
	je	.LBB1_2
# %bb.3:
.Ltmp2:
	.loc	5 462 23                        # randombytes/internal/randombytes_internal_random.c:462:23 @[ randombytes/internal/randombytes_internal_random.c:606:9 ]
	movl	global.5(%rip), %ebp
	.loc	5 462 30 is_stmt 0              # randombytes/internal/randombytes_internal_random.c:462:30 @[ randombytes/internal/randombytes_internal_random.c:606:9 ]
	callq	getpid@PLT
.Ltmp3:
	.loc	5 462 27                        # randombytes/internal/randombytes_internal_random.c:462:27 @[ randombytes/internal/randombytes_internal_random.c:606:9 ]
	cmpl	%eax, %ebp
	je	.LBB1_4
# %bb.13:
.Ltmp4:
	.loc	5 463 9 is_stmt 1               # randombytes/internal/randombytes_internal_random.c:463:9 @[ randombytes/internal/randombytes_internal_random.c:606:9 ]
	callq	sodium_misuse@PLT
.Ltmp5:
.LBB1_2:
	.loc	5 461 9                         # randombytes/internal/randombytes_internal_random.c:461:9 @[ randombytes/internal/randombytes_internal_random.c:606:9 ]
	callq	randombytes_internal_random_stir
.Ltmp6:
.LBB1_4:                                # %randombytes_internal_random_stir_if_needed.exit
	.loc	5 0 0 is_stmt 0                 # randombytes/internal/randombytes_internal_random.c:0
	leaq	stream@TPOFF(%rbx), %r15
.Ltmp7:
	.loc	5 608 63 is_stmt 1              # randombytes/internal/randombytes_internal_random.c:608:63
	leaq	48(%r15), %rbx
	.loc	5 610 64                        # randombytes/internal/randombytes_internal_random.c:610:64
	leaq	560(%r15), %rdx
	.loc	5 611 45                        # randombytes/internal/randombytes_internal_random.c:611:45
	leaq	16(%r15), %r14
	.loc	5 608 15                        # randombytes/internal/randombytes_internal_random.c:608:15
	movl	$512, %esi                      # imm = 0x200
	movq	%rbx, %rdi
	movq	%r14, %rcx
	callq	crypto_stream_chacha20@PLT
.Ltmp8:
	#DEBUG_VALUE: randombytes_internal_random:ret <- $eax
	.loc	5 612 71                        # randombytes/internal/randombytes_internal_random.c:612:71
	testl	%eax, %eax
	jne	.LBB1_14
.Ltmp9:
# %bb.5:
	#DEBUG_VALUE: randombytes_internal_random:ret <- $eax
	.loc	5 613 30                        # randombytes/internal/randombytes_internal_random.c:613:30
	movq	$480, %fs:stream@TPOFF+8        # imm = 0x1E0
.Ltmp10:
	.loc	5 535 33                        # randombytes/internal/randombytes_internal_random.c:535:33 @[ randombytes/internal/randombytes_internal_random.c:614:9 ]
	cmpl	$0, global.4(%rip)
	je	.LBB1_6
.Ltmp11:
# %bb.7:
	#DEBUG_VALUE: randombytes_internal_random:ret <- $eax
	.loc	5 538 12                        # randombytes/internal/randombytes_internal_random.c:538:12 @[ randombytes/internal/randombytes_internal_random.c:614:9 ]
	rdrandl	%eax
.Ltmp12:
	#DEBUG_VALUE: randombytes_internal_random_xorhwrand:r <- $eax
	.loc	5 540 30                        # randombytes/internal/randombytes_internal_random.c:540:30 @[ randombytes/internal/randombytes_internal_random.c:614:9 ]
	xorl	%eax, %fs:stream@TPOFF+44
.Ltmp13:
	.loc	5 615 65                        # randombytes/internal/randombytes_internal_random.c:615:65
	movq	%fs:stream@TPOFF+8, %rcx
	jmp	.LBB1_8
.Ltmp14:
.LBB1_6:
	#DEBUG_VALUE: randombytes_internal_random:ret <- $eax
	.loc	5 0 65 is_stmt 0                # randombytes/internal/randombytes_internal_random.c:0:65
	movl	$480, %ecx                      # imm = 0x1E0
.Ltmp15:
.LBB1_8:                                # %randombytes_internal_random_xorhwrand.exit
	.loc	5 615 45 is_stmt 1              # randombytes/internal/randombytes_internal_random.c:615:45
	leaq	(%rbx,%rcx), %rax
.Ltmp16:
	#DEBUG_VALUE: randombytes_internal_random_xorkey:mix <- $rax
	#DEBUG_VALUE: randombytes_internal_random_xorkey:key <- $r14
	#DEBUG_VALUE: randombytes_internal_random_xorkey:i <- 0
	.loc	5 555 5                         # randombytes/internal/randombytes_internal_random.c:555:5 @[ randombytes/internal/randombytes_internal_random.c:615:9 ]
	leaq	(%r15,%rcx), %rdx
	addq	$80, %rdx
	cmpq	%rdx, %r14
	setae	%dl
	cmpq	%rbx, %rax
	setae	%sil
.Ltmp17:
	.loc	5 555 51 is_stmt 0              # randombytes/internal/randombytes_internal_random.c:555:51 @[ randombytes/internal/randombytes_internal_random.c:615:9 ]
	orb	%dl, %sil
	jne	.LBB1_15
.Ltmp18:
# %bb.9:                                # %scalar.ph.preheader
	#DEBUG_VALUE: randombytes_internal_random_xorkey:mix <- $rax
	#DEBUG_VALUE: randombytes_internal_random_xorkey:key <- $r14
	#DEBUG_VALUE: randombytes_internal_random_xorkey:i <- 0
	.loc	5 555 5                         # randombytes/internal/randombytes_internal_random.c:555:5 @[ randombytes/internal/randombytes_internal_random.c:615:9 ]
	addq	%r15, %rcx
	addq	$51, %rcx
	xorl	%edx, %edx
.Ltmp19:
	.loc	5 0 5                           # :0:5
.Ltmp20:
	.p2align	4
.LBB1_10:                               # %scalar.ph
                                        # =>This Inner Loop Header: Depth=1
	#DEBUG_VALUE: randombytes_internal_random_xorkey:mix <- $rax
	#DEBUG_VALUE: randombytes_internal_random_xorkey:key <- $r14
	#DEBUG_VALUE: randombytes_internal_random_xorkey:i <- $rdx
	.loc	5 556 19 is_stmt 1              # randombytes/internal/randombytes_internal_random.c:556:19 @[ randombytes/internal/randombytes_internal_random.c:615:9 ]
	movzbl	-3(%rcx,%rdx), %esi
	.loc	5 556 16 is_stmt 0              # randombytes/internal/randombytes_internal_random.c:556:16 @[ randombytes/internal/randombytes_internal_random.c:615:9 ]
	xorb	%sil, %fs:stream@TPOFF+16(%rdx)
.Ltmp21:
	#DEBUG_VALUE: randombytes_internal_random_xorkey:i <- [DW_OP_constu 1, DW_OP_or, DW_OP_stack_value] $rdx
	.loc	5 556 19                        # randombytes/internal/randombytes_internal_random.c:556:19 @[ randombytes/internal/randombytes_internal_random.c:615:9 ]
	movzbl	-2(%rcx,%rdx), %esi
	.loc	5 556 16                        # randombytes/internal/randombytes_internal_random.c:556:16 @[ randombytes/internal/randombytes_internal_random.c:615:9 ]
	xorb	%sil, %fs:stream@TPOFF+17(%rdx)
.Ltmp22:
	#DEBUG_VALUE: randombytes_internal_random_xorkey:i <- [DW_OP_constu 2, DW_OP_or, DW_OP_stack_value] $rdx
	.loc	5 556 19                        # randombytes/internal/randombytes_internal_random.c:556:19 @[ randombytes/internal/randombytes_internal_random.c:615:9 ]
	movzbl	-1(%rcx,%rdx), %esi
	.loc	5 556 16                        # randombytes/internal/randombytes_internal_random.c:556:16 @[ randombytes/internal/randombytes_internal_random.c:615:9 ]
	xorb	%sil, %fs:stream@TPOFF+18(%rdx)
.Ltmp23:
	#DEBUG_VALUE: randombytes_internal_random_xorkey:i <- [DW_OP_constu 3, DW_OP_or, DW_OP_stack_value] $rdx
	.loc	5 556 19                        # randombytes/internal/randombytes_internal_random.c:556:19 @[ randombytes/internal/randombytes_internal_random.c:615:9 ]
	movzbl	(%rcx,%rdx), %esi
	.loc	5 556 16                        # randombytes/internal/randombytes_internal_random.c:556:16 @[ randombytes/internal/randombytes_internal_random.c:615:9 ]
	xorb	%sil, %fs:stream@TPOFF+19(%rdx)
.Ltmp24:
	.loc	5 555 51 is_stmt 1              # randombytes/internal/randombytes_internal_random.c:555:51 @[ randombytes/internal/randombytes_internal_random.c:615:9 ]
	addq	$4, %rdx
.Ltmp25:
	#DEBUG_VALUE: randombytes_internal_random_xorkey:i <- $rdx
	.loc	5 555 29 is_stmt 0              # randombytes/internal/randombytes_internal_random.c:555:29 @[ randombytes/internal/randombytes_internal_random.c:615:9 ]
	cmpq	$32, %rdx
.Ltmp26:
	.loc	5 555 5                         # randombytes/internal/randombytes_internal_random.c:555:5 @[ randombytes/internal/randombytes_internal_random.c:615:9 ]
	jne	.LBB1_10
	jmp	.LBB1_11
.Ltmp27:
.LBB1_15:                               # %vector.body
	#DEBUG_VALUE: randombytes_internal_random_xorkey:mix <- $rax
	#DEBUG_VALUE: randombytes_internal_random_xorkey:key <- $r14
	#DEBUG_VALUE: randombytes_internal_random_xorkey:i <- 0
	.loc	5 556 19 is_stmt 1              # randombytes/internal/randombytes_internal_random.c:556:19 @[ randombytes/internal/randombytes_internal_random.c:615:9 ]
	movups	(%rax), %xmm0
	movups	16(%rax), %xmm1
	.loc	5 556 16 is_stmt 0              # randombytes/internal/randombytes_internal_random.c:556:16 @[ randombytes/internal/randombytes_internal_random.c:615:9 ]
	movups	%fs:stream@TPOFF+16, %xmm2
	xorps	%xmm0, %xmm2
	movups	%fs:stream@TPOFF+32, %xmm0
	xorps	%xmm1, %xmm0
	movups	%xmm2, %fs:stream@TPOFF+16
	movups	%xmm0, %fs:stream@TPOFF+32
.Ltmp28:
.LBB1_11:                               # %randombytes_internal_random_xorkey.exit
	#DEBUG_VALUE: memset:__dest <- $rax
	#DEBUG_VALUE: memset:__ch <- 0
	#DEBUG_VALUE: memset:__len <- 32
	.file	7 "/usr/include/x86_64-linux-gnu/bits" "string_fortified.h"
	.loc	7 59 10 is_stmt 1               # /usr/include/x86_64-linux-gnu/bits/string_fortified.h:59:10 @[ randombytes/internal/randombytes_internal_random.c:616:9 ]
	xorps	%xmm0, %xmm0
	movups	%xmm0, 16(%rax)
	movups	%xmm0, (%rax)
.Ltmp29:
	.loc	5 617 21                        # randombytes/internal/randombytes_internal_random.c:617:21
	incq	%fs:stream@TPOFF+560
.Ltmp30:
	.loc	5 619 26                        # randombytes/internal/randombytes_internal_random.c:619:26
	movq	%fs:stream@TPOFF+8, %rcx
.Ltmp31:
.LBB1_12:
	.loc	5 619 26                        # randombytes/internal/randombytes_internal_random.c:619:26
	leaq	-4(%rcx), %rax
	movq	%rax, %fs:stream@TPOFF+8
.Ltmp32:
	#DEBUG_VALUE: memcpy:__dest <- undef
	#DEBUG_VALUE: memcpy:__src <- [DW_OP_LLVM_arg 0, DW_OP_plus_uconst 48, DW_OP_LLVM_arg 1, DW_OP_plus, DW_OP_stack_value] undef, undef
	#DEBUG_VALUE: memcpy:__len <- 4
	.loc	7 29 10                         # /usr/include/x86_64-linux-gnu/bits/string_fortified.h:29:10 @[ randombytes/internal/randombytes_internal_random.c:620:5 ]
	movl	%fs:stream@TPOFF+44(%rcx), %eax
.Ltmp33:
	#DEBUG_VALUE: memset:__ch <- 0
	#DEBUG_VALUE: memset:__len <- 4
	#DEBUG_VALUE: memset:__dest <- undef
	.loc	7 59 10                         # /usr/include/x86_64-linux-gnu/bits/string_fortified.h:59:10 @[ randombytes/internal/randombytes_internal_random.c:621:5 ]
	movl	$0, %fs:stream@TPOFF+44(%rcx)
.Ltmp34:
	.loc	5 623 5 epilogue_begin          # randombytes/internal/randombytes_internal_random.c:623:5
	addq	$8, %rsp
	.cfi_def_cfa_offset 40
	popq	%rbx
	.cfi_def_cfa_offset 32
	popq	%r14
	.cfi_def_cfa_offset 24
	popq	%r15
	.cfi_def_cfa_offset 16
	popq	%rbp
	.cfi_def_cfa_offset 8
	retq
.Ltmp35:
.LBB1_14:
	.cfi_def_cfa_offset 48
	#DEBUG_VALUE: randombytes_internal_random:ret <- $eax
	.loc	5 612 84                        # randombytes/internal/randombytes_internal_random.c:612:84
	leaq	.L.str.1(%rip), %rdi
	leaq	.L.str.2(%rip), %rsi
	leaq	.L__PRETTY_FUNCTION__.randombytes_internal_random(%rip), %rcx
	movl	$612, %edx                      # imm = 0x264
	callq	__assert_fail@PLT
.Ltmp36:
.Lfunc_end1:
	.size	randombytes_internal_random, .Lfunc_end1-randombytes_internal_random
	.cfi_endproc
	.file	8 "/usr/include" "unistd.h"
	.file	9 "./include/sodium" "core.h"
	.file	10 "./include/sodium" "crypto_stream_chacha20.h"
	.file	11 "/usr/include" "assert.h"
                                        # -- End function
	.p2align	4                               # -- Begin function randombytes_internal_random_stir
	.type	randombytes_internal_random_stir,@function
randombytes_internal_random_stir:       # @randombytes_internal_random_stir
.Lfunc_begin2:
	.loc	5 404 0                         # randombytes/internal/randombytes_internal_random.c:404:0
	.cfi_startproc
# %bb.0:
	pushq	%rbp
	.cfi_def_cfa_offset 16
	pushq	%r15
	.cfi_def_cfa_offset 24
	pushq	%r14
	.cfi_def_cfa_offset 32
	pushq	%r13
	.cfi_def_cfa_offset 40
	pushq	%r12
	.cfi_def_cfa_offset 48
	pushq	%rbx
	.cfi_def_cfa_offset 56
	subq	$184, %rsp
	.cfi_def_cfa_offset 240
	.cfi_offset %rbx, -56
	.cfi_offset %r12, -48
	.cfi_offset %r13, -40
	.cfi_offset %r14, -32
	.cfi_offset %r15, -24
	.cfi_offset %rbp, -16
	movq	%fs:40, %rax
	movq	%rax, 176(%rsp)
	leaq	32(%rsp), %rdi
.Ltmp37:
	.loc	5 165 9 prologue_end            # randombytes/internal/randombytes_internal_random.c:165:9 @[ randombytes/internal/randombytes_internal_random.c:405:20 ]
	xorl	%esi, %esi
	callq	gettimeofday@PLT
.Ltmp38:
	.loc	5 165 39 is_stmt 0              # randombytes/internal/randombytes_internal_random.c:165:39 @[ randombytes/internal/randombytes_internal_random.c:405:20 ]
	testl	%eax, %eax
	jne	.LBB2_24
.Ltmp39:
# %bb.1:                                # %sodium_hrtime.exit
	.loc	5 168 35 is_stmt 1              # randombytes/internal/randombytes_internal_random.c:168:35 @[ randombytes/internal/randombytes_internal_random.c:405:20 ]
	imulq	$1000000, 32(%rsp), %rcx        # imm = 0xF4240
.Ltmp40:
	.loc	5 405 5                         # randombytes/internal/randombytes_internal_random.c:405:5
	movq	%fs:0, %rax
.Ltmp41:
	.loc	5 406 97                        # randombytes/internal/randombytes_internal_random.c:406:97
	addq	40(%rsp), %rcx
.Ltmp42:
	.loc	5 405 18                        # randombytes/internal/randombytes_internal_random.c:405:18
	movq	%rcx, %fs:stream@TPOFF+560
.Ltmp43:
	.loc	5 406 97                        # randombytes/internal/randombytes_internal_random.c:406:97
	je	.LBB2_31
.Ltmp44:
# %bb.2:
	.loc	5 0 0 is_stmt 0                 # randombytes/internal/randombytes_internal_random.c:0
	leaq	stream@TPOFF(%rax), %rbx
	.loc	5 407 19 is_stmt 1              # randombytes/internal/randombytes_internal_random.c:407:19
	leaq	48(%rbx), %rdi
.Ltmp45:
	#DEBUG_VALUE: memset:__dest <- $rdi
	#DEBUG_VALUE: memset:__ch <- 0
	#DEBUG_VALUE: memset:__len <- 512
	.loc	7 59 10                         # /usr/include/x86_64-linux-gnu/bits/string_fortified.h:59:10 @[ randombytes/internal/randombytes_internal_random.c:407:5 ]
	movl	$512, %edx                      # imm = 0x200
	xorl	%esi, %esi
	callq	memset@PLT
.Ltmp46:
	.loc	5 408 26                        # randombytes/internal/randombytes_internal_random.c:408:26
	movq	$0, %fs:stream@TPOFF+8
.Ltmp47:
	.loc	5 409 28                        # randombytes/internal/randombytes_internal_random.c:409:28
	cmpb	$0, global.0(%rip)
	jne	.LBB2_27
.Ltmp48:
# %bb.3:
	#DEBUG_VALUE: fodder <- [DW_OP_plus_uconst 32, DW_OP_deref] $rsp
	.loc	5 353 30                        # randombytes/internal/randombytes_internal_random.c:353:30 @[ randombytes/internal/randombytes_internal_random.c:410:9 ]
	callq	__errno_location@PLT
.Ltmp49:
	movq	%rax, %r14
	.loc	5 353 29 is_stmt 0              # randombytes/internal/randombytes_internal_random.c:353:29 @[ randombytes/internal/randombytes_internal_random.c:410:9 ]
	movl	(%rax), %r12d
.Ltmp50:
	#DEBUG_VALUE: randombytes_internal_random_init:errno_save <- $r12d
	.loc	5 355 31 is_stmt 1              # randombytes/internal/randombytes_internal_random.c:355:31 @[ randombytes/internal/randombytes_internal_random.c:410:9 ]
	callq	sodium_runtime_has_rdrand@PLT
.Ltmp51:
	.loc	5 355 29 is_stmt 0              # randombytes/internal/randombytes_internal_random.c:355:29 @[ randombytes/internal/randombytes_internal_random.c:410:9 ]
	movl	%eax, global.4(%rip)
	.loc	5 356 33 is_stmt 1              # randombytes/internal/randombytes_internal_random.c:356:33 @[ randombytes/internal/randombytes_internal_random.c:410:9 ]
	movb	$0, global.2(%rip)
.Ltmp52:
	#DEBUG_VALUE: randombytes_getentropy:buf_ <- [DW_OP_plus_uconst 32, DW_OP_stack_value] $rsp
	#DEBUG_VALUE: randombytes_getentropy:buf <- [DW_OP_plus_uconst 32, DW_OP_stack_value] $rsp
	#DEBUG_VALUE: randombytes_getentropy:size <- 16
	#DEBUG_VALUE: randombytes_getentropy:chunk_size <- 16
	#DEBUG_VALUE: _randombytes_getentropy:buf <- [DW_OP_plus_uconst 32, DW_OP_stack_value] $rsp
	#DEBUG_VALUE: _randombytes_getentropy:size <- 16
	.loc	5 0 33 is_stmt 0                # randombytes/internal/randombytes_internal_random.c:0:33
	leaq	32(%rsp), %rdi
.Ltmp53:
	.loc	5 191 9 is_stmt 1               # randombytes/internal/randombytes_internal_random.c:191:9 @[ randombytes/internal/randombytes_internal_random.c:208:13 @[ randombytes/internal/randombytes_internal_random.c:363:13 @[ randombytes/internal/randombytes_internal_random.c:410:9 ] ] ]
	movl	$16, %esi
	callq	getentropy@PLT
.Ltmp54:
	.loc	5 191 31 is_stmt 0              # randombytes/internal/randombytes_internal_random.c:191:31 @[ randombytes/internal/randombytes_internal_random.c:208:13 @[ randombytes/internal/randombytes_internal_random.c:363:13 @[ randombytes/internal/randombytes_internal_random.c:410:9 ] ] ]
	testl	%eax, %eax
.Ltmp55:
	.loc	5 208 54 is_stmt 1              # randombytes/internal/randombytes_internal_random.c:208:54 @[ randombytes/internal/randombytes_internal_random.c:363:13 @[ randombytes/internal/randombytes_internal_random.c:410:9 ] ]
	je	.LBB2_4
.Ltmp56:
# %bb.5:                                # %.critedge.i
	#DEBUG_VALUE: randombytes_internal_random_init:errno_save <- $r12d
	.loc	5 382 177                       # randombytes/internal/randombytes_internal_random.c:382:177 @[ randombytes/internal/randombytes_internal_random.c:410:9 ]
	cmpb	$1, global.2(%rip)
	je	.LBB2_32
.Ltmp57:
# %bb.6:
	#DEBUG_VALUE: randombytes_internal_random_init:errno_save <- $r12d
	#DEBUG_VALUE: randombytes_internal_random_random_dev_open:st <- [DW_OP_plus_uconst 32, DW_OP_deref] $rsp
	#DEBUG_VALUE: randombytes_block_on_dev_random:pfd <- [DW_OP_plus_uconst 16, DW_OP_deref] $rsp
	.loc	5 265 10                        # randombytes/internal/randombytes_internal_random.c:265:10 @[ randombytes/internal/randombytes_internal_random.c:299:9 @[ randombytes/internal/randombytes_internal_random.c:384:10 @[ randombytes/internal/randombytes_internal_random.c:410:9 ] ] ]
	leaq	.L.str.7(%rip), %rdi
	xorl	%esi, %esi
	xorl	%eax, %eax
	callq	open@PLT
.Ltmp58:
	#DEBUG_VALUE: randombytes_block_on_dev_random:fd <- $eax
	.loc	5 266 12                        # randombytes/internal/randombytes_internal_random.c:266:12 @[ randombytes/internal/randombytes_internal_random.c:299:9 @[ randombytes/internal/randombytes_internal_random.c:384:10 @[ randombytes/internal/randombytes_internal_random.c:410:9 ] ] ]
	cmpl	$-1, %eax
.Ltmp59:
	#DEBUG_VALUE: randombytes_internal_random_random_dev_open:device <- undef
	.loc	5 0 12 is_stmt 0                # randombytes/internal/randombytes_internal_random.c:0:12
	movq	%rbx, 24(%rsp)                  # 8-byte Spill
	movl	%r12d, 12(%rsp)                 # 4-byte Spill
.Ltmp60:
	#DEBUG_VALUE: randombytes_internal_random_init:errno_save <- [DW_OP_plus_uconst 12, DW_OP_deref] $rsp
	.loc	5 266 12                        # randombytes/internal/randombytes_internal_random.c:266:12 @[ randombytes/internal/randombytes_internal_random.c:299:9 @[ randombytes/internal/randombytes_internal_random.c:384:10 @[ randombytes/internal/randombytes_internal_random.c:410:9 ] ] ]
	je	.LBB2_15
.Ltmp61:
# %bb.7:
	#DEBUG_VALUE: randombytes_internal_random_init:errno_save <- [DW_OP_plus_uconst 12, DW_OP_deref] $rsp
	#DEBUG_VALUE: randombytes_internal_random_random_dev_open:st <- [DW_OP_plus_uconst 32, DW_OP_deref] $rsp
	#DEBUG_VALUE: randombytes_block_on_dev_random:pfd <- [DW_OP_plus_uconst 16, DW_OP_deref] $rsp
	#DEBUG_VALUE: randombytes_block_on_dev_random:fd <- $eax
	.loc	5 0 0                           # randombytes/internal/randombytes_internal_random.c:0 @[ randombytes/internal/randombytes_internal_random.c:299:9 @[ randombytes/internal/randombytes_internal_random.c:384:10 @[ randombytes/internal/randombytes_internal_random.c:410:9 ] ] ]
	movl	%eax, %ebp
	.loc	5 269 12 is_stmt 1              # randombytes/internal/randombytes_internal_random.c:269:12 @[ randombytes/internal/randombytes_internal_random.c:299:9 @[ randombytes/internal/randombytes_internal_random.c:384:10 @[ randombytes/internal/randombytes_internal_random.c:410:9 ] ] ]
	movl	%eax, 16(%rsp)
	#DEBUG_VALUE: randombytes_block_on_dev_random:pfd <- [DW_OP_plus_uconst 16, DW_OP_deref] $rsp
	.loc	5 270 16                        # randombytes/internal/randombytes_internal_random.c:270:16 @[ randombytes/internal/randombytes_internal_random.c:299:9 @[ randombytes/internal/randombytes_internal_random.c:384:10 @[ randombytes/internal/randombytes_internal_random.c:410:9 ] ] ]
	movl	$1, 20(%rsp)
	leaq	16(%rsp), %rdi
.Ltmp62:
	.loc	5 273 16                        # randombytes/internal/randombytes_internal_random.c:273:16 @[ randombytes/internal/randombytes_internal_random.c:299:9 @[ randombytes/internal/randombytes_internal_random.c:384:10 @[ randombytes/internal/randombytes_internal_random.c:410:9 ] ] ]
	movl	$1, %esi
	movl	$-1, %edx
	callq	poll@PLT
.Ltmp63:
	#DEBUG_VALUE: randombytes_block_on_dev_random:fd <- $ebp
	.loc	5 274 19                        # randombytes/internal/randombytes_internal_random.c:274:19 @[ randombytes/internal/randombytes_internal_random.c:299:9 @[ randombytes/internal/randombytes_internal_random.c:384:10 @[ randombytes/internal/randombytes_internal_random.c:410:9 ] ] ]
	testl	%eax, %eax
	.loc	5 274 23 is_stmt 0              # randombytes/internal/randombytes_internal_random.c:274:23 @[ randombytes/internal/randombytes_internal_random.c:299:9 @[ randombytes/internal/randombytes_internal_random.c:384:10 @[ randombytes/internal/randombytes_internal_random.c:410:9 ] ] ]
	js	.LBB2_8
.Ltmp64:
.LBB2_12:                               # %.critedge.i.i.i
	#DEBUG_VALUE: randombytes_internal_random_init:errno_save <- [DW_OP_plus_uconst 12, DW_OP_deref] $rsp
	#DEBUG_VALUE: randombytes_internal_random_random_dev_open:st <- [DW_OP_plus_uconst 32, DW_OP_deref] $rsp
	#DEBUG_VALUE: randombytes_block_on_dev_random:pfd <- [DW_OP_plus_uconst 16, DW_OP_deref] $rsp
	#DEBUG_VALUE: randombytes_block_on_dev_random:fd <- $ebp
	.loc	5 275 14 is_stmt 1              # randombytes/internal/randombytes_internal_random.c:275:14 @[ randombytes/internal/randombytes_internal_random.c:299:9 @[ randombytes/internal/randombytes_internal_random.c:384:10 @[ randombytes/internal/randombytes_internal_random.c:410:9 ] ] ]
	cmpl	$1, %eax
	jne	.LBB2_13
.Ltmp65:
# %bb.14:                               # %randombytes_block_on_dev_random.exit.i.i
	#DEBUG_VALUE: randombytes_internal_random_init:errno_save <- [DW_OP_plus_uconst 12, DW_OP_deref] $rsp
	#DEBUG_VALUE: randombytes_internal_random_random_dev_open:st <- [DW_OP_plus_uconst 32, DW_OP_deref] $rsp
	#DEBUG_VALUE: randombytes_block_on_dev_random:pfd <- [DW_OP_plus_uconst 16, DW_OP_deref] $rsp
	#DEBUG_VALUE: randombytes_block_on_dev_random:fd <- $ebp
	.loc	5 280 12                        # randombytes/internal/randombytes_internal_random.c:280:12 @[ randombytes/internal/randombytes_internal_random.c:299:9 @[ randombytes/internal/randombytes_internal_random.c:384:10 @[ randombytes/internal/randombytes_internal_random.c:410:9 ] ] ]
	movl	%ebp, %edi
	callq	close@PLT
.Ltmp66:
	.loc	5 299 43                        # randombytes/internal/randombytes_internal_random.c:299:43 @[ randombytes/internal/randombytes_internal_random.c:384:10 @[ randombytes/internal/randombytes_internal_random.c:410:9 ] ]
	testl	%eax, %eax
	jne	.LBB2_24
.Ltmp67:
.LBB2_15:                               # %.preheader.i.i
	#DEBUG_VALUE: randombytes_internal_random_init:errno_save <- [DW_OP_plus_uconst 12, DW_OP_deref] $rsp
	#DEBUG_VALUE: randombytes_internal_random_random_dev_open:st <- [DW_OP_plus_uconst 32, DW_OP_deref] $rsp
	#DEBUG_VALUE: randombytes_block_on_dev_random:pfd <- [DW_OP_plus_uconst 16, DW_OP_deref] $rsp
	.loc	5 0 43 is_stmt 0                # randombytes/internal/randombytes_internal_random.c:0:43
	leaq	randombytes_internal_random_random_dev_open.devices(%rip), %r13
	leaq	.L.str.6(%rip), %r12
	leaq	32(%rsp), %r15
	movl	$61440, %ebx                    # imm = 0xF000
	jmp	.LBB2_16
.Ltmp68:
	.p2align	4
.LBB2_19:                               #   in Loop: Header=BB2_16 Depth=1
	#DEBUG_VALUE: randombytes_internal_random_init:errno_save <- [DW_OP_plus_uconst 12, DW_OP_deref] $rsp
	#DEBUG_VALUE: randombytes_internal_random_random_dev_open:st <- [DW_OP_plus_uconst 32, DW_OP_deref] $rsp
	#DEBUG_VALUE: randombytes_internal_random_random_dev_open:device <- $r13
	#DEBUG_VALUE: randombytes_internal_random_random_dev_open:fd <- $ebp
	.loc	5 312 20 is_stmt 1              # randombytes/internal/randombytes_internal_random.c:312:20 @[ randombytes/internal/randombytes_internal_random.c:384:10 @[ randombytes/internal/randombytes_internal_random.c:410:9 ] ]
	movl	%ebp, %edi
	callq	close@PLT
.Ltmp69:
.LBB2_21:                               #   in Loop: Header=BB2_16 Depth=1
	#DEBUG_VALUE: randombytes_internal_random_init:errno_save <- [DW_OP_plus_uconst 12, DW_OP_deref] $rsp
	#DEBUG_VALUE: randombytes_internal_random_random_dev_open:st <- [DW_OP_plus_uconst 32, DW_OP_deref] $rsp
	#DEBUG_VALUE: randombytes_internal_random_random_dev_open:device <- $r13
	.loc	5 317 14                        # randombytes/internal/randombytes_internal_random.c:317:14 @[ randombytes/internal/randombytes_internal_random.c:384:10 @[ randombytes/internal/randombytes_internal_random.c:410:9 ] ]
	movq	8(%r13), %r12
.Ltmp70:
	.loc	5 316 15                        # randombytes/internal/randombytes_internal_random.c:316:15 @[ randombytes/internal/randombytes_internal_random.c:384:10 @[ randombytes/internal/randombytes_internal_random.c:410:9 ] ]
	addq	$8, %r13
.Ltmp71:
	#DEBUG_VALUE: randombytes_internal_random_random_dev_open:device <- $r13
.LBB2_22:                               #   in Loop: Header=BB2_16 Depth=1
	#DEBUG_VALUE: randombytes_internal_random_init:errno_save <- [DW_OP_plus_uconst 12, DW_OP_deref] $rsp
	#DEBUG_VALUE: randombytes_internal_random_random_dev_open:st <- [DW_OP_plus_uconst 32, DW_OP_deref] $rsp
	#DEBUG_VALUE: randombytes_internal_random_random_dev_open:device <- $r13
	#DEBUG_VALUE: randombytes_internal_random_random_dev_open:device <- $r13
	.loc	5 317 22                        # randombytes/internal/randombytes_internal_random.c:317:22 @[ randombytes/internal/randombytes_internal_random.c:384:10 @[ randombytes/internal/randombytes_internal_random.c:410:9 ] ]
	testq	%r12, %r12
.Ltmp72:
	.loc	5 317 5 is_stmt 0               # randombytes/internal/randombytes_internal_random.c:317:5 @[ randombytes/internal/randombytes_internal_random.c:384:10 @[ randombytes/internal/randombytes_internal_random.c:410:9 ] ]
	je	.LBB2_23
.Ltmp73:
.LBB2_16:                               # =>This Inner Loop Header: Depth=1
	#DEBUG_VALUE: randombytes_internal_random_init:errno_save <- [DW_OP_plus_uconst 12, DW_OP_deref] $rsp
	#DEBUG_VALUE: randombytes_internal_random_random_dev_open:st <- [DW_OP_plus_uconst 32, DW_OP_deref] $rsp
	#DEBUG_VALUE: randombytes_internal_random_random_dev_open:device <- $r13
	.loc	5 304 14 is_stmt 1              # randombytes/internal/randombytes_internal_random.c:304:14 @[ randombytes/internal/randombytes_internal_random.c:384:10 @[ randombytes/internal/randombytes_internal_random.c:410:9 ] ]
	movq	%r12, %rdi
	xorl	%esi, %esi
	xorl	%eax, %eax
	callq	open@PLT
.Ltmp74:
	#DEBUG_VALUE: randombytes_internal_random_random_dev_open:fd <- $eax
	.loc	5 305 16                        # randombytes/internal/randombytes_internal_random.c:305:16 @[ randombytes/internal/randombytes_internal_random.c:384:10 @[ randombytes/internal/randombytes_internal_random.c:410:9 ] ]
	cmpl	$-1, %eax
	je	.LBB2_20
.Ltmp75:
# %bb.17:                               #   in Loop: Header=BB2_16 Depth=1
	#DEBUG_VALUE: randombytes_internal_random_init:errno_save <- [DW_OP_plus_uconst 12, DW_OP_deref] $rsp
	#DEBUG_VALUE: randombytes_internal_random_random_dev_open:st <- [DW_OP_plus_uconst 32, DW_OP_deref] $rsp
	#DEBUG_VALUE: randombytes_internal_random_random_dev_open:device <- $r13
	#DEBUG_VALUE: randombytes_internal_random_random_dev_open:fd <- $eax
	.loc	5 0 0 is_stmt 0                 # randombytes/internal/randombytes_internal_random.c:0 @[ randombytes/internal/randombytes_internal_random.c:384:10 @[ randombytes/internal/randombytes_internal_random.c:410:9 ] ]
	movl	%eax, %ebp
.Ltmp76:
	.loc	5 306 17 is_stmt 1              # randombytes/internal/randombytes_internal_random.c:306:17 @[ randombytes/internal/randombytes_internal_random.c:384:10 @[ randombytes/internal/randombytes_internal_random.c:410:9 ] ]
	movl	%eax, %edi
	movq	%r15, %rsi
	callq	fstat@PLT
.Ltmp77:
	#DEBUG_VALUE: randombytes_internal_random_random_dev_open:fd <- $ebp
	.loc	5 306 32 is_stmt 0              # randombytes/internal/randombytes_internal_random.c:306:32 @[ randombytes/internal/randombytes_internal_random.c:384:10 @[ randombytes/internal/randombytes_internal_random.c:410:9 ] ]
	testl	%eax, %eax
	.loc	5 306 37                        # randombytes/internal/randombytes_internal_random.c:306:37 @[ randombytes/internal/randombytes_internal_random.c:384:10 @[ randombytes/internal/randombytes_internal_random.c:410:9 ] ]
	jne	.LBB2_19
.Ltmp78:
# %bb.18:                               #   in Loop: Header=BB2_16 Depth=1
	#DEBUG_VALUE: randombytes_internal_random_init:errno_save <- [DW_OP_plus_uconst 12, DW_OP_deref] $rsp
	#DEBUG_VALUE: randombytes_internal_random_random_dev_open:st <- [DW_OP_plus_uconst 32, DW_OP_deref] $rsp
	#DEBUG_VALUE: randombytes_internal_random_random_dev_open:device <- $r13
	#DEBUG_VALUE: randombytes_internal_random_random_dev_open:fd <- $ebp
	.loc	5 0 37                          # randombytes/internal/randombytes_internal_random.c:0:37
	movl	56(%rsp), %eax
	.loc	5 306 63                        # randombytes/internal/randombytes_internal_random.c:306:63 @[ randombytes/internal/randombytes_internal_random.c:384:10 @[ randombytes/internal/randombytes_internal_random.c:410:9 ] ]
	andl	%ebx, %eax
	.loc	5 306 74                        # randombytes/internal/randombytes_internal_random.c:306:74 @[ randombytes/internal/randombytes_internal_random.c:384:10 @[ randombytes/internal/randombytes_internal_random.c:410:9 ] ]
	cmpl	$8192, %eax                     # imm = 0x2000
	.loc	5 306 37                        # randombytes/internal/randombytes_internal_random.c:306:37 @[ randombytes/internal/randombytes_internal_random.c:384:10 @[ randombytes/internal/randombytes_internal_random.c:410:9 ] ]
	jne	.LBB2_19
	jmp	.LBB2_25
.Ltmp79:
	.loc	5 0 37                          # :0:37
.Ltmp80:
	.p2align	4
.LBB2_20:                               #   in Loop: Header=BB2_16 Depth=1
	#DEBUG_VALUE: randombytes_internal_random_init:errno_save <- [DW_OP_plus_uconst 12, DW_OP_deref] $rsp
	#DEBUG_VALUE: randombytes_internal_random_random_dev_open:st <- [DW_OP_plus_uconst 32, DW_OP_deref] $rsp
	#DEBUG_VALUE: randombytes_internal_random_random_dev_open:device <- $r13
	#DEBUG_VALUE: randombytes_internal_random_random_dev_open:fd <- $eax
	.loc	5 313 43 is_stmt 1              # randombytes/internal/randombytes_internal_random.c:313:43 @[ randombytes/internal/randombytes_internal_random.c:384:10 @[ randombytes/internal/randombytes_internal_random.c:410:9 ] ]
	cmpl	$4, (%r14)
	jne	.LBB2_21
	jmp	.LBB2_22
.Ltmp81:
.LBB2_25:
	#DEBUG_VALUE: randombytes_internal_random_init:errno_save <- [DW_OP_plus_uconst 12, DW_OP_deref] $rsp
	#DEBUG_VALUE: randombytes_internal_random_random_dev_open:st <- [DW_OP_plus_uconst 32, DW_OP_deref] $rsp
	#DEBUG_VALUE: randombytes_internal_random_random_dev_open:device <- $r13
	#DEBUG_VALUE: randombytes_internal_random_random_dev_open:fd <- $ebp
	.loc	5 308 37                        # randombytes/internal/randombytes_internal_random.c:308:37 @[ randombytes/internal/randombytes_internal_random.c:384:10 @[ randombytes/internal/randombytes_internal_random.c:410:9 ] ]
	movl	%ebp, %edi
	movl	$1, %esi
	xorl	%eax, %eax
	callq	fcntl@PLT
.Ltmp82:
	.loc	5 308 50 is_stmt 0              # randombytes/internal/randombytes_internal_random.c:308:50 @[ randombytes/internal/randombytes_internal_random.c:384:10 @[ randombytes/internal/randombytes_internal_random.c:410:9 ] ]
	orl	$1, %eax
	.loc	5 308 24                        # randombytes/internal/randombytes_internal_random.c:308:24 @[ randombytes/internal/randombytes_internal_random.c:384:10 @[ randombytes/internal/randombytes_internal_random.c:410:9 ] ]
	movl	%ebp, %edi
	movl	$2, %esi
	movl	%eax, %edx
	xorl	%eax, %eax
	callq	fcntl@PLT
.Ltmp83:
	.loc	5 0 24                          # randombytes/internal/randombytes_internal_random.c:0:24
	movl	12(%rsp), %eax                  # 4-byte Reload
.Ltmp84:
	.loc	5 387 28 is_stmt 1              # randombytes/internal/randombytes_internal_random.c:387:28 @[ randombytes/internal/randombytes_internal_random.c:410:9 ]
	movl	%eax, (%r14)
	movq	24(%rsp), %rbx                  # 8-byte Reload
	jmp	.LBB2_26
.Ltmp85:
.LBB2_4:
	#DEBUG_VALUE: fodder <- [DW_OP_plus_uconst 32, DW_OP_deref] $rsp
	#DEBUG_VALUE: randombytes_internal_random_init:errno_save <- $r12d
	#DEBUG_VALUE: randombytes_getentropy:buf_ <- [DW_OP_plus_uconst 32, DW_OP_stack_value] $rsp
	#DEBUG_VALUE: randombytes_getentropy:buf <- [DW_OP_plus_uconst 32, DW_OP_stack_value] $rsp
	#DEBUG_VALUE: randombytes_getentropy:size <- 16
	#DEBUG_VALUE: randombytes_getentropy:chunk_size <- 16
	#DEBUG_VALUE: randombytes_getentropy:size <- 0
	#DEBUG_VALUE: randombytes_getentropy:buf <- [DW_OP_plus_uconst 32, DW_OP_plus_uconst 16, DW_OP_stack_value] $rsp
	.loc	5 364 41                        # randombytes/internal/randombytes_internal_random.c:364:41 @[ randombytes/internal/randombytes_internal_random.c:410:9 ]
	movb	$1, global.2(%rip)
	.loc	5 365 36                        # randombytes/internal/randombytes_internal_random.c:365:36 @[ randombytes/internal/randombytes_internal_random.c:410:9 ]
	movl	%r12d, (%r14)
.Ltmp86:
.LBB2_26:                               # %randombytes_internal_random_init.exit
	.loc	5 411 28                        # randombytes/internal/randombytes_internal_random.c:411:28
	movb	$1, global.0(%rip)
.Ltmp87:
.LBB2_27:
	.loc	5 414 18                        # randombytes/internal/randombytes_internal_random.c:414:18
	callq	getpid@PLT
.Ltmp88:
	.loc	5 414 16 is_stmt 0              # randombytes/internal/randombytes_internal_random.c:414:16
	movl	%eax, global.5(%rip)
.Ltmp89:
	.loc	5 420 38 is_stmt 1              # randombytes/internal/randombytes_internal_random.c:420:38
	cmpb	$1, global.2(%rip)
	jne	.LBB2_29
# %bb.28:                               # %_randombytes_getentropy.exit.i
	#DEBUG_VALUE: randombytes_getentropy:buf_ <- [DW_OP_plus_uconst 16, DW_OP_stack_value] $rbx
.Ltmp90:
	#DEBUG_VALUE: randombytes_getentropy:size <- 32
	#DEBUG_VALUE: randombytes_getentropy:buf <- [DW_OP_plus_uconst 16, DW_OP_stack_value] $rbx
	#DEBUG_VALUE: randombytes_getentropy:chunk_size <- 256
	.loc	5 421 44                        # randombytes/internal/randombytes_internal_random.c:421:44
	addq	$16, %rbx
.Ltmp91:
	#DEBUG_VALUE: randombytes_getentropy:buf_ <- $rbx
	#DEBUG_VALUE: randombytes_getentropy:buf <- $rbx
	#DEBUG_VALUE: _randombytes_getentropy:buf <- $rbx
	#DEBUG_VALUE: randombytes_getentropy:chunk_size <- 32
	#DEBUG_VALUE: _randombytes_getentropy:size <- 32
	.loc	5 191 9                         # randombytes/internal/randombytes_internal_random.c:191:9 @[ randombytes/internal/randombytes_internal_random.c:208:13 @[ randombytes/internal/randombytes_internal_random.c:421:14 ] ]
	movl	$32, %esi
	movq	%rbx, %rdi
	callq	getentropy@PLT
.Ltmp92:
	.loc	5 191 31 is_stmt 0              # randombytes/internal/randombytes_internal_random.c:191:31 @[ randombytes/internal/randombytes_internal_random.c:208:13 @[ randombytes/internal/randombytes_internal_random.c:421:14 ] ]
	testl	%eax, %eax
.Ltmp93:
	.loc	5 208 54 is_stmt 1              # randombytes/internal/randombytes_internal_random.c:208:54 @[ randombytes/internal/randombytes_internal_random.c:421:14 ]
	jne	.LBB2_24
.Ltmp94:
.LBB2_29:                               # %randombytes_getentropy.exit.thread
	.loc	5 449 24                        # randombytes/internal/randombytes_internal_random.c:449:24
	movl	$1, %fs:stream@TPOFF
	.loc	5 450 1                         # randombytes/internal/randombytes_internal_random.c:450:1
	movq	%fs:40, %rax
	cmpq	176(%rsp), %rax
	jne	.LBB2_30
# %bb.33:                               # %SP_return
	.loc	5 450 1 epilogue_begin is_stmt 0 # randombytes/internal/randombytes_internal_random.c:450:1
	addq	$184, %rsp
	.cfi_def_cfa_offset 56
	popq	%rbx
	.cfi_def_cfa_offset 48
	popq	%r12
	.cfi_def_cfa_offset 40
	popq	%r13
	.cfi_def_cfa_offset 32
	popq	%r14
	.cfi_def_cfa_offset 24
	popq	%r15
	.cfi_def_cfa_offset 16
	popq	%rbp
	.cfi_def_cfa_offset 8
	retq
.LBB2_8:                                # %.lr.ph.i.i.i.preheader
	.cfi_def_cfa_offset 240
	#DEBUG_VALUE: randombytes_internal_random_init:errno_save <- [DW_OP_plus_uconst 12, DW_OP_deref] $rsp
	#DEBUG_VALUE: randombytes_internal_random_random_dev_open:st <- [DW_OP_plus_uconst 32, DW_OP_deref] $rsp
	#DEBUG_VALUE: randombytes_block_on_dev_random:pfd <- [DW_OP_plus_uconst 16, DW_OP_deref] $rsp
	#DEBUG_VALUE: randombytes_block_on_dev_random:fd <- $ebp
	.loc	5 0 1                           # randombytes/internal/randombytes_internal_random.c:0:1
	leaq	16(%rsp), %r15
	jmp	.LBB2_9
	.p2align	4
.LBB2_11:                               # %.critedge2.backedge.i.i.i
                                        #   in Loop: Header=BB2_9 Depth=1
.Ltmp95:
	#DEBUG_VALUE: randombytes_internal_random_init:errno_save <- [DW_OP_plus_uconst 12, DW_OP_deref] $rsp
	#DEBUG_VALUE: randombytes_internal_random_random_dev_open:st <- [DW_OP_plus_uconst 32, DW_OP_deref] $rsp
	#DEBUG_VALUE: randombytes_block_on_dev_random:pfd <- [DW_OP_plus_uconst 16, DW_OP_deref] $rsp
	#DEBUG_VALUE: randombytes_block_on_dev_random:fd <- $ebp
	.loc	5 273 16 is_stmt 1              # randombytes/internal/randombytes_internal_random.c:273:16 @[ randombytes/internal/randombytes_internal_random.c:299:9 @[ randombytes/internal/randombytes_internal_random.c:384:10 @[ randombytes/internal/randombytes_internal_random.c:410:9 ] ] ]
	movl	$1, %esi
	movq	%r15, %rdi
	movl	$-1, %edx
	callq	poll@PLT
.Ltmp96:
	#DEBUG_VALUE: randombytes_block_on_dev_random:pret <- $eax
	.loc	5 274 19                        # randombytes/internal/randombytes_internal_random.c:274:19 @[ randombytes/internal/randombytes_internal_random.c:299:9 @[ randombytes/internal/randombytes_internal_random.c:384:10 @[ randombytes/internal/randombytes_internal_random.c:410:9 ] ] ]
	testl	%eax, %eax
	.loc	5 274 23 is_stmt 0              # randombytes/internal/randombytes_internal_random.c:274:23 @[ randombytes/internal/randombytes_internal_random.c:299:9 @[ randombytes/internal/randombytes_internal_random.c:384:10 @[ randombytes/internal/randombytes_internal_random.c:410:9 ] ] ]
	jns	.LBB2_12
.Ltmp97:
.LBB2_9:                                # %.lr.ph.i.i.i
                                        # =>This Inner Loop Header: Depth=1
	#DEBUG_VALUE: randombytes_internal_random_init:errno_save <- [DW_OP_plus_uconst 12, DW_OP_deref] $rsp
	#DEBUG_VALUE: randombytes_internal_random_random_dev_open:st <- [DW_OP_plus_uconst 32, DW_OP_deref] $rsp
	#DEBUG_VALUE: randombytes_block_on_dev_random:pfd <- [DW_OP_plus_uconst 16, DW_OP_deref] $rsp
	#DEBUG_VALUE: randombytes_block_on_dev_random:fd <- $ebp
	.loc	5 274 28 is_stmt 1              # randombytes/internal/randombytes_internal_random.c:274:28 @[ randombytes/internal/randombytes_internal_random.c:299:9 @[ randombytes/internal/randombytes_internal_random.c:384:10 @[ randombytes/internal/randombytes_internal_random.c:410:9 ] ] ]
	movl	(%r14), %eax
	.loc	5 274 55 is_stmt 0              # randombytes/internal/randombytes_internal_random.c:274:55 @[ randombytes/internal/randombytes_internal_random.c:299:9 @[ randombytes/internal/randombytes_internal_random.c:384:10 @[ randombytes/internal/randombytes_internal_random.c:410:9 ] ] ]
	cmpl	$11, %eax
	je	.LBB2_11
.Ltmp98:
# %bb.10:                               # %.lr.ph.i.i.i
                                        #   in Loop: Header=BB2_9 Depth=1
	#DEBUG_VALUE: randombytes_internal_random_init:errno_save <- [DW_OP_plus_uconst 12, DW_OP_deref] $rsp
	#DEBUG_VALUE: randombytes_internal_random_random_dev_open:st <- [DW_OP_plus_uconst 32, DW_OP_deref] $rsp
	#DEBUG_VALUE: randombytes_block_on_dev_random:pfd <- [DW_OP_plus_uconst 16, DW_OP_deref] $rsp
	#DEBUG_VALUE: randombytes_block_on_dev_random:fd <- $ebp
	cmpl	$4, %eax
	je	.LBB2_11
.Ltmp99:
.LBB2_13:                               # %randombytes_block_on_dev_random.exit.thread.i.i
	#DEBUG_VALUE: randombytes_internal_random_init:errno_save <- [DW_OP_plus_uconst 12, DW_OP_deref] $rsp
	#DEBUG_VALUE: randombytes_internal_random_random_dev_open:st <- [DW_OP_plus_uconst 32, DW_OP_deref] $rsp
	#DEBUG_VALUE: randombytes_block_on_dev_random:pfd <- [DW_OP_plus_uconst 16, DW_OP_deref] $rsp
	#DEBUG_VALUE: randombytes_block_on_dev_random:fd <- $ebp
	.loc	5 276 16 is_stmt 1              # randombytes/internal/randombytes_internal_random.c:276:16 @[ randombytes/internal/randombytes_internal_random.c:299:9 @[ randombytes/internal/randombytes_internal_random.c:384:10 @[ randombytes/internal/randombytes_internal_random.c:410:9 ] ] ]
	movl	%ebp, %edi
	callq	close@PLT
.Ltmp100:
.LBB2_23:
	#DEBUG_VALUE: randombytes_internal_random_init:errno_save <- [DW_OP_plus_uconst 12, DW_OP_deref] $rsp
	#DEBUG_VALUE: randombytes_internal_random_random_dev_open:st <- [DW_OP_plus_uconst 32, DW_OP_deref] $rsp
	.loc	5 0 0 is_stmt 0                 # randombytes/internal/randombytes_internal_random.c:0 @[ randombytes/internal/randombytes_internal_random.c:384:10 @[ randombytes/internal/randombytes_internal_random.c:410:9 ] ]
	movl	$5, (%r14)
.Ltmp101:
.LBB2_24:
	callq	sodium_misuse@PLT
.Ltmp102:
.LBB2_31:
	.loc	5 406 122 is_stmt 1             # randombytes/internal/randombytes_internal_random.c:406:122
	leaq	.L.str.4(%rip), %rdi
	leaq	.L.str.2(%rip), %rsi
	leaq	.L__PRETTY_FUNCTION__.randombytes_internal_random_stir(%rip), %rcx
	movl	$406, %edx                      # imm = 0x196
	callq	__assert_fail@PLT
.Ltmp103:
.LBB2_30:                               # %CallStackCheckFailBlk
	.loc	5 0 0 is_stmt 0                 # randombytes/internal/randombytes_internal_random.c:0
	callq	__stack_chk_fail@PLT
.Ltmp104:
.LBB2_32:
	#DEBUG_VALUE: randombytes_internal_random_init:errno_save <- $r12d
	.loc	5 382 190 is_stmt 1             # randombytes/internal/randombytes_internal_random.c:382:190 @[ randombytes/internal/randombytes_internal_random.c:410:9 ]
	leaq	.L.str.5(%rip), %rdi
	leaq	.L.str.2(%rip), %rsi
	leaq	.L__PRETTY_FUNCTION__.randombytes_internal_random_init(%rip), %rcx
	movl	$382, %edx                      # imm = 0x17E
	callq	__assert_fail@PLT
.Ltmp105:
.Lfunc_end2:
	.size	randombytes_internal_random_stir, .Lfunc_end2-randombytes_internal_random_stir
	.cfi_endproc
	.file	12 "/usr/include/x86_64-linux-gnu/bits/types" "struct_timeval.h"
	.file	13 "/usr/include/x86_64-linux-gnu/sys" "poll.h"
	.file	14 "/usr/include/x86_64-linux-gnu/bits" "struct_stat.h"
	.file	15 "/usr/include/x86_64-linux-gnu/bits/types" "struct_timespec.h"
	.file	16 "/usr/include/x86_64-linux-gnu/sys" "time.h"
	.file	17 "/usr/include" "errno.h"
	.file	18 "./include/sodium" "runtime.h"
	.file	19 "/usr/include/x86_64-linux-gnu/sys" "random.h"
	.file	20 "/usr/include/x86_64-linux-gnu/sys" "stat.h"
                                        # -- End function
	.p2align	4                               # -- Begin function randombytes_internal_random_buf
	.type	randombytes_internal_random_buf,@function
randombytes_internal_random_buf:        # @randombytes_internal_random_buf
.Lfunc_begin3:
	.loc	5 566 0                         # randombytes/internal/randombytes_internal_random.c:566:0
	.cfi_startproc
# %bb.0:
	#DEBUG_VALUE: randombytes_internal_random_buf:buf <- $rdi
	pushq	%rbp
	.cfi_def_cfa_offset 16
	pushq	%r15
	.cfi_def_cfa_offset 24
	pushq	%r14
	.cfi_def_cfa_offset 32
	pushq	%r12
	.cfi_def_cfa_offset 40
	pushq	%rbx
	.cfi_def_cfa_offset 48
	.cfi_offset %rbx, -48
	.cfi_offset %r12, -40
	.cfi_offset %r14, -32
	.cfi_offset %r15, -24
	.cfi_offset %rbp, -16
	movq	%rsi, %rbx
	movq	%rdi, %r12
	#DEBUG_VALUE: randombytes_internal_random_buf:size <- [DW_OP_LLVM_fragment 56 8] undef
.Ltmp106:
	#DEBUG_VALUE: randombytes_internal_random_buf:size <- [DW_OP_LLVM_fragment 0 8] $bl
	#DEBUG_VALUE: randombytes_internal_random_buf:size <- [DW_OP_LLVM_fragment 32 8] undef
	#DEBUG_VALUE: randombytes_internal_random_buf:size <- [DW_OP_LLVM_fragment 40 8] undef
	#DEBUG_VALUE: randombytes_internal_random_buf:size <- [DW_OP_LLVM_fragment 48 8] undef
	#DEBUG_VALUE: randombytes_internal_random_buf:size <- [DW_OP_LLVM_fragment 24 8] undef
	#DEBUG_VALUE: randombytes_internal_random_buf:size <- [DW_OP_LLVM_fragment 16 8] undef
	#DEBUG_VALUE: randombytes_internal_random_buf:size <- [DW_OP_LLVM_fragment 8 8] undef
	.loc	5 460 9 prologue_end            # randombytes/internal/randombytes_internal_random.c:460:9 @[ randombytes/internal/randombytes_internal_random.c:570:5 ]
	movq	%fs:0, %r14
	.loc	5 460 28 is_stmt 0              # randombytes/internal/randombytes_internal_random.c:460:28 @[ randombytes/internal/randombytes_internal_random.c:570:5 ]
	cmpl	$0, %fs:stream@TPOFF
	je	.LBB3_1
.Ltmp107:
# %bb.2:
	#DEBUG_VALUE: randombytes_internal_random_buf:buf <- $r12
	#DEBUG_VALUE: randombytes_internal_random_buf:size <- [DW_OP_LLVM_fragment 0 8] $bl
	.loc	5 462 23 is_stmt 1              # randombytes/internal/randombytes_internal_random.c:462:23 @[ randombytes/internal/randombytes_internal_random.c:570:5 ]
	movl	global.5(%rip), %ebp
	.loc	5 462 30 is_stmt 0              # randombytes/internal/randombytes_internal_random.c:462:30 @[ randombytes/internal/randombytes_internal_random.c:570:5 ]
	callq	getpid@PLT
.Ltmp108:
	.loc	5 462 27                        # randombytes/internal/randombytes_internal_random.c:462:27 @[ randombytes/internal/randombytes_internal_random.c:570:5 ]
	cmpl	%eax, %ebp
	je	.LBB3_3
.Ltmp109:
# %bb.7:
	#DEBUG_VALUE: randombytes_internal_random_buf:buf <- $r12
	#DEBUG_VALUE: randombytes_internal_random_buf:size <- [DW_OP_LLVM_fragment 0 8] $bl
	.loc	5 463 9 is_stmt 1               # randombytes/internal/randombytes_internal_random.c:463:9 @[ randombytes/internal/randombytes_internal_random.c:570:5 ]
	callq	sodium_misuse@PLT
.Ltmp110:
.LBB3_1:
	#DEBUG_VALUE: randombytes_internal_random_buf:buf <- $r12
	#DEBUG_VALUE: randombytes_internal_random_buf:size <- [DW_OP_LLVM_fragment 0 8] $bl
	.loc	5 461 9                         # randombytes/internal/randombytes_internal_random.c:461:9 @[ randombytes/internal/randombytes_internal_random.c:570:5 ]
	callq	randombytes_internal_random_stir
.Ltmp111:
.LBB3_3:                                # %randombytes_internal_random_stir_if_needed.exit
	#DEBUG_VALUE: randombytes_internal_random_buf:buf <- $r12
	#DEBUG_VALUE: randombytes_internal_random_buf:size <- [DW_OP_LLVM_fragment 0 8] $bl
	.loc	5 0 0 is_stmt 0                 # randombytes/internal/randombytes_internal_random.c:0
	leaq	stream@TPOFF(%r14), %r14
	.loc	5 579 60 is_stmt 1              # randombytes/internal/randombytes_internal_random.c:579:60
	leaq	560(%r14), %r15
	.loc	5 579 74 is_stmt 0              # randombytes/internal/randombytes_internal_random.c:579:74
	addq	$16, %r14
	.loc	5 578 11 is_stmt 1              # randombytes/internal/randombytes_internal_random.c:578:11
	movq	%r12, %rdi
	movq	%rbx, %rsi
	movq	%r15, %rdx
	movq	%r14, %rcx
	callq	crypto_stream_chacha20@PLT
.Ltmp112:
	#DEBUG_VALUE: randombytes_internal_random_buf:ret <- $eax
	.loc	5 580 67                        # randombytes/internal/randombytes_internal_random.c:580:67
	testl	%eax, %eax
	jne	.LBB3_8
.Ltmp113:
# %bb.4:                                # %.preheader.preheader
	#DEBUG_VALUE: randombytes_internal_random_buf:buf <- $r12
	#DEBUG_VALUE: randombytes_internal_random_buf:size <- [DW_OP_LLVM_fragment 0 8] $bl
	#DEBUG_VALUE: randombytes_internal_random_buf:ret <- $eax
	.loc	5 0 67 is_stmt 0                # randombytes/internal/randombytes_internal_random.c:0:67
	movl	%ebx, %eax
.Ltmp114:
	shrl	$8, %eax
.Ltmp115:
	#DEBUG_VALUE: randombytes_internal_random_buf:size <- [DW_OP_LLVM_fragment 8 8] $al
	movl	%ebx, %ecx
	shrl	$16, %ecx
.Ltmp116:
	#DEBUG_VALUE: randombytes_internal_random_buf:size <- [DW_OP_LLVM_fragment 16 8] $cl
	movl	%ebx, %edx
	shrl	$24, %edx
.Ltmp117:
	#DEBUG_VALUE: randombytes_internal_random_buf:size <- [DW_OP_LLVM_fragment 24 8] $dl
	movq	%rbx, %rsi
.Ltmp118:
	.loc	5 582 23 is_stmt 1              # randombytes/internal/randombytes_internal_random.c:582:23
	xorb	%bl, %fs:stream@TPOFF+16
.Ltmp119:
	#DEBUG_VALUE: randombytes_internal_random_buf:i <- 1
	.loc	5 0 23 is_stmt 0                # randombytes/internal/randombytes_internal_random.c:0:23
	shrq	$32, %rsi
.Ltmp120:
	#DEBUG_VALUE: randombytes_internal_random_buf:size <- [DW_OP_LLVM_fragment 32 8] $sil
	.loc	5 582 23                        # randombytes/internal/randombytes_internal_random.c:582:23
	xorb	%al, %fs:stream@TPOFF+17
.Ltmp121:
	#DEBUG_VALUE: randombytes_internal_random_buf:i <- 2
	.loc	5 0 23                          # randombytes/internal/randombytes_internal_random.c:0:23
	movq	%rbx, %rax
.Ltmp122:
	.loc	5 582 23                        # randombytes/internal/randombytes_internal_random.c:582:23
	xorb	%cl, %fs:stream@TPOFF+18
.Ltmp123:
	#DEBUG_VALUE: randombytes_internal_random_buf:i <- 3
	.loc	5 0 23                          # randombytes/internal/randombytes_internal_random.c:0:23
	shrq	$40, %rax
.Ltmp124:
	#DEBUG_VALUE: randombytes_internal_random_buf:size <- [DW_OP_LLVM_fragment 40 8] $al
	.loc	5 582 23                        # randombytes/internal/randombytes_internal_random.c:582:23
	xorb	%dl, %fs:stream@TPOFF+19
.Ltmp125:
	#DEBUG_VALUE: randombytes_internal_random_buf:i <- 4
	.loc	5 0 23                          # randombytes/internal/randombytes_internal_random.c:0:23
	movq	%rbx, %rcx
.Ltmp126:
	.loc	5 582 23                        # randombytes/internal/randombytes_internal_random.c:582:23
	xorb	%sil, %fs:stream@TPOFF+20
.Ltmp127:
	#DEBUG_VALUE: randombytes_internal_random_buf:i <- 5
	.loc	5 0 23                          # randombytes/internal/randombytes_internal_random.c:0:23
	shrq	$48, %rcx
.Ltmp128:
	#DEBUG_VALUE: randombytes_internal_random_buf:size <- [DW_OP_LLVM_fragment 48 8] $cl
	.loc	5 582 23                        # randombytes/internal/randombytes_internal_random.c:582:23
	xorb	%al, %fs:stream@TPOFF+21
.Ltmp129:
	#DEBUG_VALUE: randombytes_internal_random_buf:i <- 6
	xorb	%cl, %fs:stream@TPOFF+22
.Ltmp130:
	#DEBUG_VALUE: randombytes_internal_random_buf:i <- 7
	.loc	5 0 23                          # randombytes/internal/randombytes_internal_random.c:0:23
	shrq	$56, %rbx
.Ltmp131:
	#DEBUG_VALUE: randombytes_internal_random_buf:size <- [DW_OP_LLVM_fragment 56 8] $bl
	#DEBUG_VALUE: randombytes_internal_random_buf:i <- 0
	.loc	5 582 23                        # randombytes/internal/randombytes_internal_random.c:582:23
	xorb	%bl, %fs:stream@TPOFF+23
.Ltmp132:
	#DEBUG_VALUE: randombytes_internal_random_buf:i <- 8
	.loc	5 535 33 is_stmt 1              # randombytes/internal/randombytes_internal_random.c:535:33 @[ randombytes/internal/randombytes_internal_random.c:584:5 ]
	cmpl	$0, global.4(%rip)
	je	.LBB3_6
.Ltmp133:
# %bb.5:
	#DEBUG_VALUE: randombytes_internal_random_buf:buf <- $r12
	#DEBUG_VALUE: randombytes_internal_random_buf:size <- [DW_OP_LLVM_fragment 56 8] $bl
	#DEBUG_VALUE: randombytes_internal_random_buf:size <- [DW_OP_LLVM_fragment 32 8] $sil
	#DEBUG_VALUE: randombytes_internal_random_buf:size <- [DW_OP_LLVM_fragment 40 8] $al
	#DEBUG_VALUE: randombytes_internal_random_buf:size <- [DW_OP_LLVM_fragment 48 8] $cl
	#DEBUG_VALUE: randombytes_internal_random_buf:size <- [DW_OP_LLVM_fragment 24 8] $dl
	#DEBUG_VALUE: randombytes_internal_random_buf:i <- 8
	.loc	5 538 12                        # randombytes/internal/randombytes_internal_random.c:538:12 @[ randombytes/internal/randombytes_internal_random.c:584:5 ]
	rdrandl	%eax
.Ltmp134:
	#DEBUG_VALUE: randombytes_internal_random_xorhwrand:r <- $eax
	.loc	5 540 30                        # randombytes/internal/randombytes_internal_random.c:540:30 @[ randombytes/internal/randombytes_internal_random.c:584:5 ]
	xorl	%eax, %fs:stream@TPOFF+44
.Ltmp135:
.LBB3_6:                                # %randombytes_internal_random_xorhwrand.exit
	#DEBUG_VALUE: randombytes_internal_random_buf:buf <- $r12
	#DEBUG_VALUE: randombytes_internal_random_buf:size <- [DW_OP_LLVM_fragment 56 8] $bl
	#DEBUG_VALUE: randombytes_internal_random_buf:size <- [DW_OP_LLVM_fragment 32 8] $sil
	#DEBUG_VALUE: randombytes_internal_random_buf:size <- [DW_OP_LLVM_fragment 48 8] $cl
	#DEBUG_VALUE: randombytes_internal_random_buf:size <- [DW_OP_LLVM_fragment 24 8] $dl
	#DEBUG_VALUE: randombytes_internal_random_buf:i <- 8
	.loc	5 585 17                        # randombytes/internal/randombytes_internal_random.c:585:17
	incq	%fs:stream@TPOFF+560
	.loc	5 586 5                         # randombytes/internal/randombytes_internal_random.c:586:5
	movl	$32, %edx
.Ltmp136:
	movq	%r14, %rdi
	movq	%r14, %rsi
.Ltmp137:
	movq	%r15, %rcx
.Ltmp138:
	movq	%r14, %r8
	.loc	5 586 5 epilogue_begin is_stmt 0 # randombytes/internal/randombytes_internal_random.c:586:5
	popq	%rbx
.Ltmp139:
	.cfi_def_cfa_offset 40
	popq	%r12
.Ltmp140:
	#DEBUG_VALUE: randombytes_internal_random_buf:buf <- [DW_OP_LLVM_entry_value 1] $rdi
	.cfi_def_cfa_offset 32
	popq	%r14
	.cfi_def_cfa_offset 24
	popq	%r15
	.cfi_def_cfa_offset 16
	popq	%rbp
	.cfi_def_cfa_offset 8
.Ltmp141:
	jmp	crypto_stream_chacha20_xor@PLT  # TAILCALL
.Ltmp142:
.LBB3_8:
	.cfi_def_cfa_offset 48
	#DEBUG_VALUE: randombytes_internal_random_buf:buf <- $r12
	#DEBUG_VALUE: randombytes_internal_random_buf:size <- [DW_OP_LLVM_fragment 0 8] $bl
	#DEBUG_VALUE: randombytes_internal_random_buf:ret <- $eax
	.loc	5 580 80 is_stmt 1              # randombytes/internal/randombytes_internal_random.c:580:80
	leaq	.L.str.1(%rip), %rdi
	leaq	.L.str.2(%rip), %rsi
	leaq	.L__PRETTY_FUNCTION__.randombytes_internal_random_buf(%rip), %rcx
	movl	$580, %edx                      # imm = 0x244
	callq	__assert_fail@PLT
.Ltmp143:
.Lfunc_end3:
	.size	randombytes_internal_random_buf, .Lfunc_end3-randombytes_internal_random_buf
	.cfi_endproc
                                        # -- End function
	.p2align	4                               # -- Begin function randombytes_internal_random_close
	.type	randombytes_internal_random_close,@function
randombytes_internal_random_close:      # @randombytes_internal_random_close
.Lfunc_begin4:
	.loc	5 493 0                         # randombytes/internal/randombytes_internal_random.c:493:0
	.cfi_startproc
# %bb.0:
	pushq	%rbx
	.cfi_def_cfa_offset 16
	.cfi_offset %rbx, -16
.Ltmp144:
	#DEBUG_VALUE: randombytes_internal_random_close:ret <- -1
	.loc	5 497 16 prologue_end           # randombytes/internal/randombytes_internal_random.c:497:16
	movzbl	global.2(%rip), %ebx
	.loc	5 497 37 is_stmt 0              # randombytes/internal/randombytes_internal_random.c:497:37
	decl	%ebx
.Ltmp145:
	#DEBUG_VALUE: randombytes_internal_random_close:ret <- $ebx
	.loc	5 518 21 is_stmt 1              # randombytes/internal/randombytes_internal_random.c:518:21
	movq	%fs:0, %rax
	leaq	stream@TPOFF(%rax), %rdi
	.loc	5 518 5 is_stmt 0               # randombytes/internal/randombytes_internal_random.c:518:5
	movl	$568, %esi                      # imm = 0x238
	callq	sodium_memzero@PLT
.Ltmp146:
	.loc	5 520 5 is_stmt 1               # randombytes/internal/randombytes_internal_random.c:520:5
	movl	%ebx, %eax
	.loc	5 520 5 epilogue_begin is_stmt 0 # randombytes/internal/randombytes_internal_random.c:520:5
	popq	%rbx
.Ltmp147:
	#DEBUG_VALUE: randombytes_internal_random_close:ret <- $eax
	.cfi_def_cfa_offset 8
	retq
.Ltmp148:
.Lfunc_end4:
	.size	randombytes_internal_random_close, .Lfunc_end4-randombytes_internal_random_close
	.cfi_endproc
	.file	21 "./include/sodium" "utils.h"
                                        # -- End function
	.type	randombytes_internal_implementation,@object # @randombytes_internal_implementation
	.data
	.globl	randombytes_internal_implementation
	.p2align	3, 0x0
randombytes_internal_implementation:
	.quad	randombytes_internal_implementation_name
	.quad	randombytes_internal_random
	.quad	randombytes_internal_random_stir
	.quad	0
	.quad	randombytes_internal_random_buf
	.quad	randombytes_internal_random_close
	.size	randombytes_internal_implementation, 48

	.type	.L.str,@object                  # @.str
	.section	.rodata.str1.1,"aMS",@progbits,1
.L.str:
	.asciz	"internal"
	.size	.L.str, 9

	.type	.L.str.1,@object                # @.str.1
.L.str.1:
	.asciz	"ret == 0"
	.size	.L.str.1, 9

	.type	.L.str.2,@object                # @.str.2
.L.str.2:
	.asciz	"randombytes/internal/randombytes_internal_random.c"
	.size	.L.str.2, 51

	.type	.L__PRETTY_FUNCTION__.randombytes_internal_random,@object # @__PRETTY_FUNCTION__.randombytes_internal_random
.L__PRETTY_FUNCTION__.randombytes_internal_random:
	.asciz	"uint32_t randombytes_internal_random(void)"
	.size	.L__PRETTY_FUNCTION__.randombytes_internal_random, 43

	.type	stream,@object                  # @stream
	.section	.tbss,"awT",@nobits
	.p2align	3, 0x0
stream:
	.zero	568
	.size	stream, 568

	.type	global.0,@object                # @global.0
	.local	global.0
	.comm	global.0,1,4
	.type	global.2,@object                # @global.2
	.local	global.2
	.comm	global.2,1,4
	.type	global.4,@object                # @global.4
	.local	global.4
	.comm	global.4,4,4
	.type	global.5,@object                # @global.5
	.local	global.5
	.comm	global.5,4,4
	.type	.L.str.4,@object                # @.str.4
	.section	.rodata.str1.1,"aMS",@progbits,1
.L.str.4:
	.asciz	"stream.nonce != (uint64_t) 0U"
	.size	.L.str.4, 30

	.type	.L__PRETTY_FUNCTION__.randombytes_internal_random_stir,@object # @__PRETTY_FUNCTION__.randombytes_internal_random_stir
.L__PRETTY_FUNCTION__.randombytes_internal_random_stir:
	.asciz	"void randombytes_internal_random_stir(void)"
	.size	.L__PRETTY_FUNCTION__.randombytes_internal_random_stir, 44

	.type	.L.str.5,@object                # @.str.5
.L.str.5:
	.asciz	"(global.getentropy_available | global.getrandom_available) == 0"
	.size	.L.str.5, 64

	.type	.L__PRETTY_FUNCTION__.randombytes_internal_random_init,@object # @__PRETTY_FUNCTION__.randombytes_internal_random_init
.L__PRETTY_FUNCTION__.randombytes_internal_random_init:
	.asciz	"void randombytes_internal_random_init(void)"
	.size	.L__PRETTY_FUNCTION__.randombytes_internal_random_init, 44

	.type	randombytes_internal_random_random_dev_open.devices,@object # @randombytes_internal_random_random_dev_open.devices
	.section	.data.rel.ro,"aw",@progbits
	.p2align	4, 0x0
randombytes_internal_random_random_dev_open.devices:
	.quad	.L.str.6
	.quad	.L.str.7
	.quad	0
	.size	randombytes_internal_random_random_dev_open.devices, 24

	.type	.L.str.6,@object                # @.str.6
	.section	.rodata.str1.1,"aMS",@progbits,1
.L.str.6:
	.asciz	"/dev/urandom"
	.size	.L.str.6, 13

	.type	.L.str.7,@object                # @.str.7
.L.str.7:
	.asciz	"/dev/random"
	.size	.L.str.7, 12

	.type	.L__PRETTY_FUNCTION__.randombytes_internal_random_buf,@object # @__PRETTY_FUNCTION__.randombytes_internal_random_buf
.L__PRETTY_FUNCTION__.randombytes_internal_random_buf:
	.asciz	"void randombytes_internal_random_buf(void *const, const size_t)"
	.size	.L__PRETTY_FUNCTION__.randombytes_internal_random_buf, 64

	.section	".note.GNU-stack","",@progbits
	.addrsig
	.addrsig_sym randombytes_internal_implementation_name
	.addrsig_sym randombytes_internal_random
	.addrsig_sym randombytes_internal_random_stir
	.addrsig_sym randombytes_internal_random_buf
	.addrsig_sym randombytes_internal_random_close
	.addrsig_sym __stack_chk_fail