	.file	"randombytes_sysrandom.c"
	.file	0 "/home/leizhenyuu/opt/Anonymous_Repo/libsodium_o2_attr_inline/src/libsodium" "randombytes_sysrandom.c" md5 0x6d20f6b7f28f10643bf20e99992af4b5
	.file	1 "./include/sodium" "randombytes.h"
	.file	2 "/usr/include/x86_64-linux-gnu/bits" "types.h"
	.file	3 "/usr/include/x86_64-linux-gnu/bits" "stdint-uintn.h"
	.file	4 "/home/leizhenyuu/opt/Anonymous_Repo" "llvm-project/build/lib/clang/21/include/__stddef_size_t.h"
	.file	5 "randombytes/sysrandom" "randombytes_sysrandom.c"
	.file	6 "/usr/include" "unistd.h"
	.text
	.p2align	4                               # -- Begin function randombytes_sysrandom_implementation_name
	.type	randombytes_sysrandom_implementation_name,@function
randombytes_sysrandom_implementation_name: # @randombytes_sysrandom_implementation_name
.Lfunc_begin0:
	.cfi_startproc
# %bb.0:
	.loc	5 386 5 prologue_end            # randombytes/sysrandom/randombytes_sysrandom.c:386:5
	leaq	.L.str(%rip), %rax
	retq
.Ltmp0:
.Lfunc_end0:
	.size	randombytes_sysrandom_implementation_name, .Lfunc_end0-randombytes_sysrandom_implementation_name
	.cfi_endproc
                                        # -- End function
	.p2align	4                               # -- Begin function randombytes_sysrandom
	.type	randombytes_sysrandom,@function
randombytes_sysrandom:                  # @randombytes_sysrandom
.Lfunc_begin1:
	.loc	5 373 0                         # randombytes/sysrandom/randombytes_sysrandom.c:373:0
	.cfi_startproc
# %bb.0:
	pushq	%rax
	.cfi_def_cfa_offset 16
	leaq	4(%rsp), %rdi
.Ltmp1:
	.loc	5 376 5 prologue_end            # randombytes/sysrandom/randombytes_sysrandom.c:376:5
	movl	$4, %esi
	callq	randombytes_sysrandom_buf
.Ltmp2:
	.loc	5 378 12                        # randombytes/sysrandom/randombytes_sysrandom.c:378:12
	movl	4(%rsp), %eax
	.loc	5 378 5 epilogue_begin is_stmt 0 # randombytes/sysrandom/randombytes_sysrandom.c:378:5
	popq	%rcx
	.cfi_def_cfa_offset 8
	retq
.Ltmp3:
.Lfunc_end1:
	.size	randombytes_sysrandom, .Lfunc_end1-randombytes_sysrandom
	.cfi_endproc
                                        # -- End function
	.p2align	4                               # -- Begin function randombytes_sysrandom_stir
	.type	randombytes_sysrandom_stir,@function
randombytes_sysrandom_stir:             # @randombytes_sysrandom_stir
.Lfunc_begin2:
	.loc	5 296 0 is_stmt 1               # randombytes/sysrandom/randombytes_sysrandom.c:296:0
	.cfi_startproc
# %bb.0:
	pushq	%rbp
	.cfi_def_cfa_offset 16
	pushq	%r15
	.cfi_def_cfa_offset 24
	pushq	%r14
	.cfi_def_cfa_offset 32
	pushq	%r13
	.cfi_def_cfa_offset 40
	pushq	%r12
	.cfi_def_cfa_offset 48
	pushq	%rbx
	.cfi_def_cfa_offset 56
	subq	$168, %rsp
	.cfi_def_cfa_offset 224
	.cfi_offset %rbx, -56
	.cfi_offset %r12, -48
	.cfi_offset %r13, -40
	.cfi_offset %r14, -32
	.cfi_offset %r15, -24
	.cfi_offset %rbp, -16
	movq	%fs:40, %rax
	movq	%rax, 160(%rsp)
.Ltmp4:
	.loc	5 297 28 prologue_end           # randombytes/sysrandom/randombytes_sysrandom.c:297:28
	cmpb	$0, stream.1(%rip)
	jne	.LBB2_24
# %bb.1:
.Ltmp5:
	#DEBUG_VALUE: fodder <- [DW_OP_plus_uconst 16, DW_OP_deref] $rsp
	.loc	5 264 30                        # randombytes/sysrandom/randombytes_sysrandom.c:264:30 @[ randombytes/sysrandom/randombytes_sysrandom.c:298:9 ]
	callq	__errno_location@PLT
.Ltmp6:
	movq	%rax, %rbx
	.loc	5 264 29 is_stmt 0              # randombytes/sysrandom/randombytes_sysrandom.c:264:29 @[ randombytes/sysrandom/randombytes_sysrandom.c:298:9 ]
	movl	(%rax), %r15d
.Ltmp7:
	#DEBUG_VALUE: randombytes_sysrandom_init:errno_save <- $r15d
	.loc	5 0 29                          # randombytes/sysrandom/randombytes_sysrandom.c:0:29
	leaq	16(%rsp), %rdi
.Ltmp8:
	.loc	5 270 13 is_stmt 1              # randombytes/sysrandom/randombytes_sysrandom.c:270:13 @[ randombytes/sysrandom/randombytes_sysrandom.c:298:9 ]
	movl	$16, %esi
	callq	randombytes_linux_getrandom
.Ltmp9:
	.loc	5 270 64 is_stmt 0              # randombytes/sysrandom/randombytes_sysrandom.c:270:64 @[ randombytes/sysrandom/randombytes_sysrandom.c:298:9 ]
	testl	%eax, %eax
	je	.LBB2_2
.Ltmp10:
# %bb.3:
	#DEBUG_VALUE: fodder <- [DW_OP_plus_uconst 16, DW_OP_deref] $rsp
	#DEBUG_VALUE: randombytes_sysrandom_init:errno_save <- $r15d
	.loc	5 275 36 is_stmt 1              # randombytes/sysrandom/randombytes_sysrandom.c:275:36 @[ randombytes/sysrandom/randombytes_sysrandom.c:298:9 ]
	movb	$0, stream.2(%rip)
.Ltmp11:
	#DEBUG_VALUE: randombytes_sysrandom_random_dev_open:st <- [DW_OP_plus_uconst 16, DW_OP_deref] $rsp
	#DEBUG_VALUE: randombytes_block_on_dev_random:pfd <- [DW_OP_plus_uconst 8, DW_OP_deref] $rsp
	.loc	5 158 10                        # randombytes/sysrandom/randombytes_sysrandom.c:158:10 @[ randombytes/sysrandom/randombytes_sysrandom.c:192:9 @[ randombytes/sysrandom/randombytes_sysrandom.c:280:10 @[ randombytes/sysrandom/randombytes_sysrandom.c:298:9 ] ] ]
	leaq	.L.str.5(%rip), %rdi
	xorl	%esi, %esi
	xorl	%eax, %eax
	callq	open@PLT
.Ltmp12:
	#DEBUG_VALUE: randombytes_block_on_dev_random:fd <- $eax
	.loc	5 159 12                        # randombytes/sysrandom/randombytes_sysrandom.c:159:12 @[ randombytes/sysrandom/randombytes_sysrandom.c:192:9 @[ randombytes/sysrandom/randombytes_sysrandom.c:280:10 @[ randombytes/sysrandom/randombytes_sysrandom.c:298:9 ] ] ]
	cmpl	$-1, %eax
.Ltmp13:
	#DEBUG_VALUE: randombytes_sysrandom_random_dev_open:device <- undef
	.loc	5 0 12 is_stmt 0                # randombytes/sysrandom/randombytes_sysrandom.c:0:12
	movl	%r15d, 4(%rsp)                  # 4-byte Spill
.Ltmp14:
	#DEBUG_VALUE: randombytes_sysrandom_init:errno_save <- [DW_OP_plus_uconst 4, DW_OP_deref] $rsp
	.loc	5 159 12                        # randombytes/sysrandom/randombytes_sysrandom.c:159:12 @[ randombytes/sysrandom/randombytes_sysrandom.c:192:9 @[ randombytes/sysrandom/randombytes_sysrandom.c:280:10 @[ randombytes/sysrandom/randombytes_sysrandom.c:298:9 ] ] ]
	je	.LBB2_12
.Ltmp15:
# %bb.4:
	#DEBUG_VALUE: randombytes_sysrandom_init:errno_save <- [DW_OP_plus_uconst 4, DW_OP_deref] $rsp
	#DEBUG_VALUE: randombytes_sysrandom_random_dev_open:st <- [DW_OP_plus_uconst 16, DW_OP_deref] $rsp
	#DEBUG_VALUE: randombytes_block_on_dev_random:pfd <- [DW_OP_plus_uconst 8, DW_OP_deref] $rsp
	#DEBUG_VALUE: randombytes_block_on_dev_random:fd <- $eax
	.loc	5 0 0                           # randombytes/sysrandom/randombytes_sysrandom.c:0 @[ randombytes/sysrandom/randombytes_sysrandom.c:192:9 @[ randombytes/sysrandom/randombytes_sysrandom.c:280:10 @[ randombytes/sysrandom/randombytes_sysrandom.c:298:9 ] ] ]
	movl	%eax, %ebp
	.loc	5 162 12 is_stmt 1              # randombytes/sysrandom/randombytes_sysrandom.c:162:12 @[ randombytes/sysrandom/randombytes_sysrandom.c:192:9 @[ randombytes/sysrandom/randombytes_sysrandom.c:280:10 @[ randombytes/sysrandom/randombytes_sysrandom.c:298:9 ] ] ]
	movl	%eax, 8(%rsp)
	#DEBUG_VALUE: randombytes_block_on_dev_random:pfd <- [DW_OP_plus_uconst 8, DW_OP_deref] $rsp
	.loc	5 163 16                        # randombytes/sysrandom/randombytes_sysrandom.c:163:16 @[ randombytes/sysrandom/randombytes_sysrandom.c:192:9 @[ randombytes/sysrandom/randombytes_sysrandom.c:280:10 @[ randombytes/sysrandom/randombytes_sysrandom.c:298:9 ] ] ]
	movl	$1, 12(%rsp)
	leaq	8(%rsp), %rdi
.Ltmp16:
	.loc	5 166 16                        # randombytes/sysrandom/randombytes_sysrandom.c:166:16 @[ randombytes/sysrandom/randombytes_sysrandom.c:192:9 @[ randombytes/sysrandom/randombytes_sysrandom.c:280:10 @[ randombytes/sysrandom/randombytes_sysrandom.c:298:9 ] ] ]
	movl	$1, %esi
	movl	$-1, %edx
	callq	poll@PLT
.Ltmp17:
	#DEBUG_VALUE: randombytes_block_on_dev_random:fd <- $ebp
	.loc	5 167 19                        # randombytes/sysrandom/randombytes_sysrandom.c:167:19 @[ randombytes/sysrandom/randombytes_sysrandom.c:192:9 @[ randombytes/sysrandom/randombytes_sysrandom.c:280:10 @[ randombytes/sysrandom/randombytes_sysrandom.c:298:9 ] ] ]
	testl	%eax, %eax
	.loc	5 167 23 is_stmt 0              # randombytes/sysrandom/randombytes_sysrandom.c:167:23 @[ randombytes/sysrandom/randombytes_sysrandom.c:192:9 @[ randombytes/sysrandom/randombytes_sysrandom.c:280:10 @[ randombytes/sysrandom/randombytes_sysrandom.c:298:9 ] ] ]
	js	.LBB2_5
.Ltmp18:
.LBB2_9:                                # %.critedge.i.i.i
	#DEBUG_VALUE: randombytes_sysrandom_init:errno_save <- [DW_OP_plus_uconst 4, DW_OP_deref] $rsp
	#DEBUG_VALUE: randombytes_sysrandom_random_dev_open:st <- [DW_OP_plus_uconst 16, DW_OP_deref] $rsp
	#DEBUG_VALUE: randombytes_block_on_dev_random:pfd <- [DW_OP_plus_uconst 8, DW_OP_deref] $rsp
	#DEBUG_VALUE: randombytes_block_on_dev_random:fd <- $ebp
	.loc	5 168 14 is_stmt 1              # randombytes/sysrandom/randombytes_sysrandom.c:168:14 @[ randombytes/sysrandom/randombytes_sysrandom.c:192:9 @[ randombytes/sysrandom/randombytes_sysrandom.c:280:10 @[ randombytes/sysrandom/randombytes_sysrandom.c:298:9 ] ] ]
	cmpl	$1, %eax
	jne	.LBB2_10
.Ltmp19:
# %bb.11:                               # %randombytes_block_on_dev_random.exit.i.i
	#DEBUG_VALUE: randombytes_sysrandom_init:errno_save <- [DW_OP_plus_uconst 4, DW_OP_deref] $rsp
	#DEBUG_VALUE: randombytes_sysrandom_random_dev_open:st <- [DW_OP_plus_uconst 16, DW_OP_deref] $rsp
	#DEBUG_VALUE: randombytes_block_on_dev_random:pfd <- [DW_OP_plus_uconst 8, DW_OP_deref] $rsp
	#DEBUG_VALUE: randombytes_block_on_dev_random:fd <- $ebp
	.loc	5 173 12                        # randombytes/sysrandom/randombytes_sysrandom.c:173:12 @[ randombytes/sysrandom/randombytes_sysrandom.c:192:9 @[ randombytes/sysrandom/randombytes_sysrandom.c:280:10 @[ randombytes/sysrandom/randombytes_sysrandom.c:298:9 ] ] ]
	movl	%ebp, %edi
	callq	close@PLT
.Ltmp20:
	.loc	5 192 43                        # randombytes/sysrandom/randombytes_sysrandom.c:192:43 @[ randombytes/sysrandom/randombytes_sysrandom.c:280:10 @[ randombytes/sysrandom/randombytes_sysrandom.c:298:9 ] ]
	testl	%eax, %eax
	jne	.LBB2_21
.Ltmp21:
.LBB2_12:                               # %.preheader.i.i
	#DEBUG_VALUE: fodder <- [DW_OP_plus_uconst 16, DW_OP_deref] $rsp
	#DEBUG_VALUE: randombytes_sysrandom_init:errno_save <- [DW_OP_plus_uconst 4, DW_OP_deref] $rsp
	#DEBUG_VALUE: randombytes_sysrandom_random_dev_open:st <- [DW_OP_plus_uconst 16, DW_OP_deref] $rsp
	#DEBUG_VALUE: randombytes_block_on_dev_random:pfd <- [DW_OP_plus_uconst 8, DW_OP_deref] $rsp
	.loc	5 0 43 is_stmt 0                # randombytes/sysrandom/randombytes_sysrandom.c:0:43
	leaq	randombytes_sysrandom_random_dev_open.devices(%rip), %r13
	leaq	.L.str.4(%rip), %r15
	leaq	16(%rsp), %r14
	movl	$61440, %r12d                   # imm = 0xF000
	jmp	.LBB2_13
.Ltmp22:
	.p2align	4
.LBB2_16:                               #   in Loop: Header=BB2_13 Depth=1
	#DEBUG_VALUE: randombytes_sysrandom_init:errno_save <- [DW_OP_plus_uconst 4, DW_OP_deref] $rsp
	#DEBUG_VALUE: randombytes_sysrandom_random_dev_open:st <- [DW_OP_plus_uconst 16, DW_OP_deref] $rsp
	#DEBUG_VALUE: randombytes_sysrandom_random_dev_open:device <- $r13
	#DEBUG_VALUE: randombytes_sysrandom_random_dev_open:fd <- $ebp
	.loc	5 213 20 is_stmt 1              # randombytes/sysrandom/randombytes_sysrandom.c:213:20 @[ randombytes/sysrandom/randombytes_sysrandom.c:280:10 @[ randombytes/sysrandom/randombytes_sysrandom.c:298:9 ] ]
	movl	%ebp, %edi
	callq	close@PLT
.Ltmp23:
.LBB2_18:                               #   in Loop: Header=BB2_13 Depth=1
	#DEBUG_VALUE: randombytes_sysrandom_init:errno_save <- [DW_OP_plus_uconst 4, DW_OP_deref] $rsp
	#DEBUG_VALUE: randombytes_sysrandom_random_dev_open:st <- [DW_OP_plus_uconst 16, DW_OP_deref] $rsp
	#DEBUG_VALUE: randombytes_sysrandom_random_dev_open:device <- $r13
	.loc	5 218 14                        # randombytes/sysrandom/randombytes_sysrandom.c:218:14 @[ randombytes/sysrandom/randombytes_sysrandom.c:280:10 @[ randombytes/sysrandom/randombytes_sysrandom.c:298:9 ] ]
	movq	8(%r13), %r15
.Ltmp24:
	.loc	5 217 15                        # randombytes/sysrandom/randombytes_sysrandom.c:217:15 @[ randombytes/sysrandom/randombytes_sysrandom.c:280:10 @[ randombytes/sysrandom/randombytes_sysrandom.c:298:9 ] ]
	addq	$8, %r13
.Ltmp25:
	#DEBUG_VALUE: randombytes_sysrandom_random_dev_open:device <- $r13
.LBB2_19:                               #   in Loop: Header=BB2_13 Depth=1
	#DEBUG_VALUE: randombytes_sysrandom_init:errno_save <- [DW_OP_plus_uconst 4, DW_OP_deref] $rsp
	#DEBUG_VALUE: randombytes_sysrandom_random_dev_open:st <- [DW_OP_plus_uconst 16, DW_OP_deref] $rsp
	#DEBUG_VALUE: randombytes_sysrandom_random_dev_open:device <- $r13
	#DEBUG_VALUE: randombytes_sysrandom_random_dev_open:device <- $r13
	.loc	5 218 22                        # randombytes/sysrandom/randombytes_sysrandom.c:218:22 @[ randombytes/sysrandom/randombytes_sysrandom.c:280:10 @[ randombytes/sysrandom/randombytes_sysrandom.c:298:9 ] ]
	testq	%r15, %r15
.Ltmp26:
	.loc	5 218 5 is_stmt 0               # randombytes/sysrandom/randombytes_sysrandom.c:218:5 @[ randombytes/sysrandom/randombytes_sysrandom.c:280:10 @[ randombytes/sysrandom/randombytes_sysrandom.c:298:9 ] ]
	je	.LBB2_20
.Ltmp27:
.LBB2_13:                               # =>This Inner Loop Header: Depth=1
	#DEBUG_VALUE: randombytes_sysrandom_init:errno_save <- [DW_OP_plus_uconst 4, DW_OP_deref] $rsp
	#DEBUG_VALUE: randombytes_sysrandom_random_dev_open:st <- [DW_OP_plus_uconst 16, DW_OP_deref] $rsp
	#DEBUG_VALUE: randombytes_sysrandom_random_dev_open:device <- $r13
	.loc	5 197 14 is_stmt 1              # randombytes/sysrandom/randombytes_sysrandom.c:197:14 @[ randombytes/sysrandom/randombytes_sysrandom.c:280:10 @[ randombytes/sysrandom/randombytes_sysrandom.c:298:9 ] ]
	movq	%r15, %rdi
	xorl	%esi, %esi
	xorl	%eax, %eax
	callq	open@PLT
.Ltmp28:
	#DEBUG_VALUE: randombytes_sysrandom_random_dev_open:fd <- $eax
	.loc	5 198 16                        # randombytes/sysrandom/randombytes_sysrandom.c:198:16 @[ randombytes/sysrandom/randombytes_sysrandom.c:280:10 @[ randombytes/sysrandom/randombytes_sysrandom.c:298:9 ] ]
	cmpl	$-1, %eax
	je	.LBB2_17
.Ltmp29:
# %bb.14:                               #   in Loop: Header=BB2_13 Depth=1
	#DEBUG_VALUE: randombytes_sysrandom_init:errno_save <- [DW_OP_plus_uconst 4, DW_OP_deref] $rsp
	#DEBUG_VALUE: randombytes_sysrandom_random_dev_open:st <- [DW_OP_plus_uconst 16, DW_OP_deref] $rsp
	#DEBUG_VALUE: randombytes_sysrandom_random_dev_open:device <- $r13
	#DEBUG_VALUE: randombytes_sysrandom_random_dev_open:fd <- $eax
	.loc	5 0 0 is_stmt 0                 # randombytes/sysrandom/randombytes_sysrandom.c:0 @[ randombytes/sysrandom/randombytes_sysrandom.c:280:10 @[ randombytes/sysrandom/randombytes_sysrandom.c:298:9 ] ]
	movl	%eax, %ebp
.Ltmp30:
	.loc	5 199 17 is_stmt 1              # randombytes/sysrandom/randombytes_sysrandom.c:199:17 @[ randombytes/sysrandom/randombytes_sysrandom.c:280:10 @[ randombytes/sysrandom/randombytes_sysrandom.c:298:9 ] ]
	movl	%eax, %edi
	movq	%r14, %rsi
	callq	fstat@PLT
.Ltmp31:
	#DEBUG_VALUE: randombytes_sysrandom_random_dev_open:fd <- $ebp
	.loc	5 199 32 is_stmt 0              # randombytes/sysrandom/randombytes_sysrandom.c:199:32 @[ randombytes/sysrandom/randombytes_sysrandom.c:280:10 @[ randombytes/sysrandom/randombytes_sysrandom.c:298:9 ] ]
	testl	%eax, %eax
	.loc	5 199 37                        # randombytes/sysrandom/randombytes_sysrandom.c:199:37 @[ randombytes/sysrandom/randombytes_sysrandom.c:280:10 @[ randombytes/sysrandom/randombytes_sysrandom.c:298:9 ] ]
	jne	.LBB2_16
.Ltmp32:
# %bb.15:                               #   in Loop: Header=BB2_13 Depth=1
	#DEBUG_VALUE: randombytes_sysrandom_init:errno_save <- [DW_OP_plus_uconst 4, DW_OP_deref] $rsp
	#DEBUG_VALUE: randombytes_sysrandom_random_dev_open:st <- [DW_OP_plus_uconst 16, DW_OP_deref] $rsp
	#DEBUG_VALUE: randombytes_sysrandom_random_dev_open:device <- $r13
	#DEBUG_VALUE: randombytes_sysrandom_random_dev_open:fd <- $ebp
	.loc	5 0 37                          # randombytes/sysrandom/randombytes_sysrandom.c:0:37
	movl	40(%rsp), %eax
	.loc	5 205 34 is_stmt 1              # randombytes/sysrandom/randombytes_sysrandom.c:205:34 @[ randombytes/sysrandom/randombytes_sysrandom.c:280:10 @[ randombytes/sysrandom/randombytes_sysrandom.c:298:9 ] ]
	andl	%r12d, %eax
	.loc	5 205 45 is_stmt 0              # randombytes/sysrandom/randombytes_sysrandom.c:205:45 @[ randombytes/sysrandom/randombytes_sysrandom.c:280:10 @[ randombytes/sysrandom/randombytes_sysrandom.c:298:9 ] ]
	cmpl	$8192, %eax                     # imm = 0x2000
	.loc	5 199 37 is_stmt 1              # randombytes/sysrandom/randombytes_sysrandom.c:199:37 @[ randombytes/sysrandom/randombytes_sysrandom.c:280:10 @[ randombytes/sysrandom/randombytes_sysrandom.c:298:9 ] ]
	jne	.LBB2_16
	jmp	.LBB2_22
.Ltmp33:
	.loc	5 0 37 is_stmt 0                # :0:37
.Ltmp34:
	.p2align	4
.LBB2_17:                               #   in Loop: Header=BB2_13 Depth=1
	#DEBUG_VALUE: randombytes_sysrandom_init:errno_save <- [DW_OP_plus_uconst 4, DW_OP_deref] $rsp
	#DEBUG_VALUE: randombytes_sysrandom_random_dev_open:st <- [DW_OP_plus_uconst 16, DW_OP_deref] $rsp
	#DEBUG_VALUE: randombytes_sysrandom_random_dev_open:device <- $r13
	#DEBUG_VALUE: randombytes_sysrandom_random_dev_open:fd <- $eax
	.loc	5 214 43 is_stmt 1              # randombytes/sysrandom/randombytes_sysrandom.c:214:43 @[ randombytes/sysrandom/randombytes_sysrandom.c:280:10 @[ randombytes/sysrandom/randombytes_sysrandom.c:298:9 ] ]
	cmpl	$4, (%rbx)
	jne	.LBB2_18
	jmp	.LBB2_19
.Ltmp35:
.LBB2_22:
	#DEBUG_VALUE: randombytes_sysrandom_init:errno_save <- [DW_OP_plus_uconst 4, DW_OP_deref] $rsp
	#DEBUG_VALUE: randombytes_sysrandom_random_dev_open:st <- [DW_OP_plus_uconst 16, DW_OP_deref] $rsp
	#DEBUG_VALUE: randombytes_sysrandom_random_dev_open:device <- $r13
	#DEBUG_VALUE: randombytes_sysrandom_random_dev_open:fd <- $ebp
	.loc	5 209 37                        # randombytes/sysrandom/randombytes_sysrandom.c:209:37 @[ randombytes/sysrandom/randombytes_sysrandom.c:280:10 @[ randombytes/sysrandom/randombytes_sysrandom.c:298:9 ] ]
	movl	%ebp, %edi
	movl	$1, %esi
	xorl	%eax, %eax
	callq	fcntl@PLT
.Ltmp36:
	.loc	5 209 50 is_stmt 0              # randombytes/sysrandom/randombytes_sysrandom.c:209:50 @[ randombytes/sysrandom/randombytes_sysrandom.c:280:10 @[ randombytes/sysrandom/randombytes_sysrandom.c:298:9 ] ]
	orl	$1, %eax
	.loc	5 209 24                        # randombytes/sysrandom/randombytes_sysrandom.c:209:24 @[ randombytes/sysrandom/randombytes_sysrandom.c:280:10 @[ randombytes/sysrandom/randombytes_sysrandom.c:298:9 ] ]
	movl	%ebp, %edi
	movl	$2, %esi
	movl	%eax, %edx
	xorl	%eax, %eax
	callq	fcntl@PLT
.Ltmp37:
	.loc	5 279 39 is_stmt 1              # randombytes/sysrandom/randombytes_sysrandom.c:279:39 @[ randombytes/sysrandom/randombytes_sysrandom.c:298:9 ]
	movl	%ebp, stream.0(%rip)
	movl	4(%rsp), %eax                   # 4-byte Reload
.Ltmp38:
	.loc	5 283 28                        # randombytes/sysrandom/randombytes_sysrandom.c:283:28 @[ randombytes/sysrandom/randombytes_sysrandom.c:298:9 ]
	movl	%eax, (%rbx)
	jmp	.LBB2_23
.Ltmp39:
.LBB2_2:                                # %.thread.i
	#DEBUG_VALUE: fodder <- [DW_OP_plus_uconst 16, DW_OP_deref] $rsp
	#DEBUG_VALUE: randombytes_sysrandom_init:errno_save <- $r15d
	.loc	5 271 40                        # randombytes/sysrandom/randombytes_sysrandom.c:271:40 @[ randombytes/sysrandom/randombytes_sysrandom.c:298:9 ]
	movb	$1, stream.2(%rip)
	.loc	5 272 36                        # randombytes/sysrandom/randombytes_sysrandom.c:272:36 @[ randombytes/sysrandom/randombytes_sysrandom.c:298:9 ]
	movl	%r15d, (%rbx)
.Ltmp40:
.LBB2_23:                               # %randombytes_sysrandom_init.exit
	.loc	5 299 28                        # randombytes/sysrandom/randombytes_sysrandom.c:299:28
	movb	$1, stream.1(%rip)
.Ltmp41:
.LBB2_24:
	.loc	5 301 1                         # randombytes/sysrandom/randombytes_sysrandom.c:301:1
	movq	%fs:40, %rax
	cmpq	160(%rsp), %rax
	jne	.LBB2_26
# %bb.25:                               # %SP_return
	.loc	5 301 1 epilogue_begin is_stmt 0 # randombytes/sysrandom/randombytes_sysrandom.c:301:1
	addq	$168, %rsp
	.cfi_def_cfa_offset 56
	popq	%rbx
	.cfi_def_cfa_offset 48
	popq	%r12
	.cfi_def_cfa_offset 40
	popq	%r13
	.cfi_def_cfa_offset 32
	popq	%r14
	.cfi_def_cfa_offset 24
	popq	%r15
	.cfi_def_cfa_offset 16
	popq	%rbp
	.cfi_def_cfa_offset 8
	retq
.LBB2_5:                                # %.lr.ph.i.i.i.preheader
	.cfi_def_cfa_offset 224
	#DEBUG_VALUE: randombytes_sysrandom_init:errno_save <- [DW_OP_plus_uconst 4, DW_OP_deref] $rsp
	#DEBUG_VALUE: randombytes_sysrandom_random_dev_open:st <- [DW_OP_plus_uconst 16, DW_OP_deref] $rsp
	#DEBUG_VALUE: randombytes_block_on_dev_random:pfd <- [DW_OP_plus_uconst 8, DW_OP_deref] $rsp
	#DEBUG_VALUE: randombytes_block_on_dev_random:fd <- $ebp
	.loc	5 0 1                           # randombytes/sysrandom/randombytes_sysrandom.c:0:1
	leaq	8(%rsp), %r14
	jmp	.LBB2_6
	.p2align	4
.LBB2_8:                                # %.critedge2.backedge.i.i.i
                                        #   in Loop: Header=BB2_6 Depth=1
.Ltmp42:
	#DEBUG_VALUE: randombytes_sysrandom_init:errno_save <- [DW_OP_plus_uconst 4, DW_OP_deref] $rsp
	#DEBUG_VALUE: randombytes_sysrandom_random_dev_open:st <- [DW_OP_plus_uconst 16, DW_OP_deref] $rsp
	#DEBUG_VALUE: randombytes_block_on_dev_random:pfd <- [DW_OP_plus_uconst 8, DW_OP_deref] $rsp
	#DEBUG_VALUE: randombytes_block_on_dev_random:fd <- $ebp
	.loc	5 166 16 is_stmt 1              # randombytes/sysrandom/randombytes_sysrandom.c:166:16 @[ randombytes/sysrandom/randombytes_sysrandom.c:192:9 @[ randombytes/sysrandom/randombytes_sysrandom.c:280:10 @[ randombytes/sysrandom/randombytes_sysrandom.c:298:9 ] ] ]
	movl	$1, %esi
	movq	%r14, %rdi
	movl	$-1, %edx
	callq	poll@PLT
.Ltmp43:
	#DEBUG_VALUE: randombytes_block_on_dev_random:pret <- $eax
	.loc	5 167 19                        # randombytes/sysrandom/randombytes_sysrandom.c:167:19 @[ randombytes/sysrandom/randombytes_sysrandom.c:192:9 @[ randombytes/sysrandom/randombytes_sysrandom.c:280:10 @[ randombytes/sysrandom/randombytes_sysrandom.c:298:9 ] ] ]
	testl	%eax, %eax
	.loc	5 167 23 is_stmt 0              # randombytes/sysrandom/randombytes_sysrandom.c:167:23 @[ randombytes/sysrandom/randombytes_sysrandom.c:192:9 @[ randombytes/sysrandom/randombytes_sysrandom.c:280:10 @[ randombytes/sysrandom/randombytes_sysrandom.c:298:9 ] ] ]
	jns	.LBB2_9
.Ltmp44:
.LBB2_6:                                # %.lr.ph.i.i.i
                                        # =>This Inner Loop Header: Depth=1
	#DEBUG_VALUE: randombytes_sysrandom_init:errno_save <- [DW_OP_plus_uconst 4, DW_OP_deref] $rsp
	#DEBUG_VALUE: randombytes_sysrandom_random_dev_open:st <- [DW_OP_plus_uconst 16, DW_OP_deref] $rsp
	#DEBUG_VALUE: randombytes_block_on_dev_random:pfd <- [DW_OP_plus_uconst 8, DW_OP_deref] $rsp
	#DEBUG_VALUE: randombytes_block_on_dev_random:fd <- $ebp
	.loc	5 167 28 is_stmt 1              # randombytes/sysrandom/randombytes_sysrandom.c:167:28 @[ randombytes/sysrandom/randombytes_sysrandom.c:192:9 @[ randombytes/sysrandom/randombytes_sysrandom.c:280:10 @[ randombytes/sysrandom/randombytes_sysrandom.c:298:9 ] ] ]
	movl	(%rbx), %eax
	.loc	5 167 55 is_stmt 0              # randombytes/sysrandom/randombytes_sysrandom.c:167:55 @[ randombytes/sysrandom/randombytes_sysrandom.c:192:9 @[ randombytes/sysrandom/randombytes_sysrandom.c:280:10 @[ randombytes/sysrandom/randombytes_sysrandom.c:298:9 ] ] ]
	cmpl	$11, %eax
	je	.LBB2_8
.Ltmp45:
# %bb.7:                                # %.lr.ph.i.i.i
                                        #   in Loop: Header=BB2_6 Depth=1
	#DEBUG_VALUE: randombytes_sysrandom_init:errno_save <- [DW_OP_plus_uconst 4, DW_OP_deref] $rsp
	#DEBUG_VALUE: randombytes_sysrandom_random_dev_open:st <- [DW_OP_plus_uconst 16, DW_OP_deref] $rsp
	#DEBUG_VALUE: randombytes_block_on_dev_random:pfd <- [DW_OP_plus_uconst 8, DW_OP_deref] $rsp
	#DEBUG_VALUE: randombytes_block_on_dev_random:fd <- $ebp
	cmpl	$4, %eax
	je	.LBB2_8
.Ltmp46:
.LBB2_10:                               # %randombytes_block_on_dev_random.exit.thread.i.i
	#DEBUG_VALUE: randombytes_sysrandom_init:errno_save <- [DW_OP_plus_uconst 4, DW_OP_deref] $rsp
	#DEBUG_VALUE: randombytes_sysrandom_random_dev_open:st <- [DW_OP_plus_uconst 16, DW_OP_deref] $rsp
	#DEBUG_VALUE: randombytes_block_on_dev_random:pfd <- [DW_OP_plus_uconst 8, DW_OP_deref] $rsp
	#DEBUG_VALUE: randombytes_block_on_dev_random:fd <- $ebp
	.loc	5 169 16 is_stmt 1              # randombytes/sysrandom/randombytes_sysrandom.c:169:16 @[ randombytes/sysrandom/randombytes_sysrandom.c:192:9 @[ randombytes/sysrandom/randombytes_sysrandom.c:280:10 @[ randombytes/sysrandom/randombytes_sysrandom.c:298:9 ] ] ]
	movl	%ebp, %edi
	callq	close@PLT
.Ltmp47:
.LBB2_20:
	#DEBUG_VALUE: randombytes_sysrandom_init:errno_save <- [DW_OP_plus_uconst 4, DW_OP_deref] $rsp
	#DEBUG_VALUE: randombytes_sysrandom_random_dev_open:st <- [DW_OP_plus_uconst 16, DW_OP_deref] $rsp
	.loc	5 0 0 is_stmt 0                 # randombytes/sysrandom/randombytes_sysrandom.c:0 @[ randombytes/sysrandom/randombytes_sysrandom.c:280:10 @[ randombytes/sysrandom/randombytes_sysrandom.c:298:9 ] ]
	movl	$5, (%rbx)
.Ltmp48:
.LBB2_21:
	#DEBUG_VALUE: randombytes_sysrandom_init:errno_save <- [DW_OP_plus_uconst 4, DW_OP_deref] $rsp
	.loc	5 279 39 is_stmt 1              # randombytes/sysrandom/randombytes_sysrandom.c:279:39 @[ randombytes/sysrandom/randombytes_sysrandom.c:298:9 ]
	movl	$-1, stream.0(%rip)
.Ltmp49:
	.loc	5 281 9                         # randombytes/sysrandom/randombytes_sysrandom.c:281:9 @[ randombytes/sysrandom/randombytes_sysrandom.c:298:9 ]
	callq	sodium_misuse@PLT
.Ltmp50:
.LBB2_26:                               # %CallStackCheckFailBlk
	.loc	5 0 0 is_stmt 0                 # randombytes/sysrandom/randombytes_sysrandom.c:0
	callq	__stack_chk_fail@PLT
.Ltmp51:
.Lfunc_end2:
	.size	randombytes_sysrandom_stir, .Lfunc_end2-randombytes_sysrandom_stir
	.cfi_endproc
	.file	7 "/usr/include/x86_64-linux-gnu/sys" "poll.h"
	.file	8 "/usr/include/x86_64-linux-gnu/bits" "struct_stat.h"
	.file	9 "/usr/include/x86_64-linux-gnu/bits/types" "struct_timespec.h"
	.file	10 "/usr/include" "errno.h"
	.file	11 "/usr/include" "fcntl.h"
	.file	12 "/usr/include/x86_64-linux-gnu/sys" "stat.h"
	.file	13 "./include/sodium" "core.h"
                                        # -- End function
	.p2align	4                               # -- Begin function randombytes_sysrandom_buf
	.type	randombytes_sysrandom_buf,@function
randombytes_sysrandom_buf:              # @randombytes_sysrandom_buf
.Lfunc_begin3:
	.loc	5 339 0 is_stmt 1               # randombytes/sysrandom/randombytes_sysrandom.c:339:0
	.cfi_startproc
# %bb.0:
	#DEBUG_VALUE: randombytes_sysrandom_buf:buf <- $rdi
	#DEBUG_VALUE: randombytes_sysrandom_buf:size <- $rsi
	pushq	%rbp
	.cfi_def_cfa_offset 16
	pushq	%r15
	.cfi_def_cfa_offset 24
	pushq	%r14
	.cfi_def_cfa_offset 32
	pushq	%r13
	.cfi_def_cfa_offset 40
	pushq	%r12
	.cfi_def_cfa_offset 48
	pushq	%rbx
	.cfi_def_cfa_offset 56
	pushq	%rax
	.cfi_def_cfa_offset 64
	.cfi_offset %rbx, -56
	.cfi_offset %r12, -48
	.cfi_offset %r13, -40
	.cfi_offset %r14, -32
	.cfi_offset %r15, -24
	.cfi_offset %rbp, -16
	movq	%rsi, %rbx
.Ltmp52:
	.loc	5 306 28 prologue_end           # randombytes/sysrandom/randombytes_sysrandom.c:306:28 @[ randombytes/sysrandom/randombytes_sysrandom.c:340:5 ]
	cmpb	$0, stream.1(%rip)
	jne	.LBB3_2
.Ltmp53:
# %bb.1:
	#DEBUG_VALUE: randombytes_sysrandom_buf:buf <- $rdi
	#DEBUG_VALUE: randombytes_sysrandom_buf:size <- $rbx
	.loc	5 0 28 is_stmt 0                # randombytes/sysrandom/randombytes_sysrandom.c:0:28
	movq	%rdi, %r14
.Ltmp54:
	#DEBUG_VALUE: randombytes_sysrandom_buf:buf <- $r14
	.loc	5 307 9 is_stmt 1               # randombytes/sysrandom/randombytes_sysrandom.c:307:9 @[ randombytes/sysrandom/randombytes_sysrandom.c:340:5 ]
	callq	randombytes_sysrandom_stir
.Ltmp55:
	.loc	5 0 9 is_stmt 0                 # randombytes/sysrandom/randombytes_sysrandom.c:0:9
	movq	%r14, %rdi
.Ltmp56:
.LBB3_2:                                # %randombytes_sysrandom_stir_if_needed.exit
	#DEBUG_VALUE: randombytes_sysrandom_buf:buf <- [DW_OP_LLVM_entry_value 1] $rdi
	#DEBUG_VALUE: randombytes_sysrandom_buf:size <- $rbx
	.loc	5 349 36 is_stmt 1              # randombytes/sysrandom/randombytes_sysrandom.c:349:36
	cmpb	$1, stream.2(%rip)
	jne	.LBB3_5
.Ltmp57:
# %bb.3:
	#DEBUG_VALUE: randombytes_sysrandom_buf:buf <- [DW_OP_LLVM_entry_value 1] $rdi
	#DEBUG_VALUE: randombytes_sysrandom_buf:size <- $rbx
	.loc	5 350 13                        # randombytes/sysrandom/randombytes_sysrandom.c:350:13
	movq	%rbx, %rsi
	callq	randombytes_linux_getrandom
.Ltmp58:
	.loc	5 350 52 is_stmt 0              # randombytes/sysrandom/randombytes_sysrandom.c:350:52
	testl	%eax, %eax
	je	.LBB3_18
	jmp	.LBB3_4
.Ltmp59:
.LBB3_5:
	#DEBUG_VALUE: randombytes_sysrandom_buf:buf <- [DW_OP_LLVM_entry_value 1] $rdi
	#DEBUG_VALUE: randombytes_sysrandom_buf:size <- $rbx
	.loc	5 356 16 is_stmt 1              # randombytes/sysrandom/randombytes_sysrandom.c:356:16
	movl	stream.0(%rip), %ebp
	.loc	5 356 38 is_stmt 0              # randombytes/sysrandom/randombytes_sysrandom.c:356:38
	cmpl	$-1, %ebp
	.loc	5 356 44                        # randombytes/sysrandom/randombytes_sysrandom.c:356:44
	je	.LBB3_4
.Ltmp60:
# %bb.6:
	#DEBUG_VALUE: randombytes_sysrandom_buf:buf <- [DW_OP_LLVM_entry_value 1] $rdi
	#DEBUG_VALUE: randombytes_sysrandom_buf:size <- $rbx
	#DEBUG_VALUE: safe_read:fd <- $ebp
	#DEBUG_VALUE: safe_read:buf_ <- undef
	#DEBUG_VALUE: safe_read:size <- $rbx
	#DEBUG_VALUE: safe_read:buf <- undef
	.loc	5 132 78 is_stmt 1              # randombytes/sysrandom/randombytes_sysrandom.c:132:78 @[ randombytes/sysrandom/randombytes_sysrandom.c:357:9 ]
	testq	%rbx, %rbx
	je	.LBB3_19
.Ltmp61:
# %bb.7:
	#DEBUG_VALUE: randombytes_sysrandom_buf:buf <- [DW_OP_LLVM_entry_value 1] $rdi
	#DEBUG_VALUE: randombytes_sysrandom_buf:size <- $rbx
	#DEBUG_VALUE: safe_read:fd <- $ebp
	#DEBUG_VALUE: safe_read:size <- $rbx
	.loc	5 133 88                        # randombytes/sysrandom/randombytes_sysrandom.c:133:88 @[ randombytes/sysrandom/randombytes_sysrandom.c:357:9 ]
	js	.LBB3_20
.Ltmp62:
# %bb.8:
	#DEBUG_VALUE: randombytes_sysrandom_buf:buf <- [DW_OP_LLVM_entry_value 1] $rdi
	#DEBUG_VALUE: randombytes_sysrandom_buf:size <- $rbx
	#DEBUG_VALUE: safe_read:fd <- $ebp
	#DEBUG_VALUE: safe_read:size <- $rbx
	.loc	5 0 88 is_stmt 0                # randombytes/sysrandom/randombytes_sysrandom.c:0:88
	movq	%rbx, %r12
	movq	%rdi, (%rsp)                    # 8-byte Spill
	movq	%rdi, %r15
.Ltmp63:
	.p2align	4
.LBB3_9:                                # %.preheader.i
                                        # =>This Loop Header: Depth=1
                                        #     Child Loop BB3_11 Depth 2
	#DEBUG_VALUE: randombytes_sysrandom_buf:buf <- [DW_OP_LLVM_entry_value 1] $rdi
	#DEBUG_VALUE: randombytes_sysrandom_buf:size <- $rbx
	#DEBUG_VALUE: safe_read:fd <- $ebp
	#DEBUG_VALUE: safe_read:size <- $r12
	#DEBUG_VALUE: safe_read:buf <- $r15
	#DEBUG_VALUE: safe_read:size <- $r12
	.loc	5 135 26 is_stmt 1              # randombytes/sysrandom/randombytes_sysrandom.c:135:26 @[ randombytes/sysrandom/randombytes_sysrandom.c:357:9 ]
	movl	%ebp, %edi
	movq	%r15, %rsi
	movq	%r12, %rdx
	callq	read@PLT
.Ltmp64:
	.loc	5 135 47 is_stmt 0              # randombytes/sysrandom/randombytes_sysrandom.c:135:47 @[ randombytes/sysrandom/randombytes_sysrandom.c:357:9 ]
	testq	%rax, %rax
	.loc	5 135 61                        # randombytes/sysrandom/randombytes_sysrandom.c:135:61 @[ randombytes/sysrandom/randombytes_sysrandom.c:357:9 ]
	js	.LBB3_10
.Ltmp65:
.LBB3_14:                               # %.critedge26.i
                                        #   in Loop: Header=BB3_9 Depth=1
	#DEBUG_VALUE: randombytes_sysrandom_buf:buf <- [DW_OP_LLVM_entry_value 1] $rdi
	#DEBUG_VALUE: randombytes_sysrandom_buf:size <- $rbx
	#DEBUG_VALUE: safe_read:fd <- $ebp
	#DEBUG_VALUE: safe_read:size <- $r12
	#DEBUG_VALUE: safe_read:buf <- $r15
	.loc	5 140 20 is_stmt 1              # randombytes/sysrandom/randombytes_sysrandom.c:140:20 @[ randombytes/sysrandom/randombytes_sysrandom.c:357:9 ]
	testq	%rax, %rax
	je	.LBB3_16
.Ltmp66:
# %bb.15:                               #   in Loop: Header=BB3_9 Depth=1
	#DEBUG_VALUE: randombytes_sysrandom_buf:buf <- [DW_OP_LLVM_entry_value 1] $rdi
	#DEBUG_VALUE: randombytes_sysrandom_buf:size <- $rbx
	#DEBUG_VALUE: safe_read:fd <- $ebp
	#DEBUG_VALUE: safe_read:size <- $r12
	#DEBUG_VALUE: safe_read:buf <- $r15
	.loc	5 144 13                        # randombytes/sysrandom/randombytes_sysrandom.c:144:13 @[ randombytes/sysrandom/randombytes_sysrandom.c:357:9 ]
	addq	%rax, %r15
.Ltmp67:
	#DEBUG_VALUE: safe_read:buf <- $r15
	.loc	5 145 19                        # randombytes/sysrandom/randombytes_sysrandom.c:145:19 @[ randombytes/sysrandom/randombytes_sysrandom.c:357:9 ]
	subq	%rax, %r12
.Ltmp68:
	#DEBUG_VALUE: safe_read:size <- $r12
	.loc	5 145 5 is_stmt 0               # randombytes/sysrandom/randombytes_sysrandom.c:145:5 @[ randombytes/sysrandom/randombytes_sysrandom.c:357:9 ]
	jne	.LBB3_9
	jmp	.LBB3_16
.Ltmp69:
	.loc	5 0 5                           # :0:5
.Ltmp70:
	.p2align	4
.LBB3_10:                               # %.lr.ph.i
                                        #   in Loop: Header=BB3_9 Depth=1
	#DEBUG_VALUE: randombytes_sysrandom_buf:buf <- [DW_OP_LLVM_entry_value 1] $rdi
	#DEBUG_VALUE: randombytes_sysrandom_buf:size <- $rbx
	#DEBUG_VALUE: safe_read:fd <- $ebp
	#DEBUG_VALUE: safe_read:size <- $r12
	#DEBUG_VALUE: safe_read:buf <- $r15
	movq	%rax, %r14
	callq	__errno_location@PLT
.Ltmp71:
	movq	%rax, %r13
	movq	%r14, %rax
	jmp	.LBB3_11
.Ltmp72:
	.p2align	4
.LBB3_13:                               # %.critedge2.i
                                        #   in Loop: Header=BB3_11 Depth=2
	#DEBUG_VALUE: randombytes_sysrandom_buf:buf <- [DW_OP_LLVM_entry_value 1] $rdi
	#DEBUG_VALUE: randombytes_sysrandom_buf:size <- $rbx
	#DEBUG_VALUE: safe_read:fd <- $ebp
	#DEBUG_VALUE: safe_read:size <- $r12
	#DEBUG_VALUE: safe_read:buf <- $r15
	.loc	5 135 26 is_stmt 1              # randombytes/sysrandom/randombytes_sysrandom.c:135:26 @[ randombytes/sysrandom/randombytes_sysrandom.c:357:9 ]
	movl	%ebp, %edi
	movq	%r15, %rsi
	movq	%r12, %rdx
	callq	read@PLT
.Ltmp73:
	#DEBUG_VALUE: safe_read:readnb <- $rax
	.loc	5 135 47 is_stmt 0              # randombytes/sysrandom/randombytes_sysrandom.c:135:47 @[ randombytes/sysrandom/randombytes_sysrandom.c:357:9 ]
	testq	%rax, %rax
	.loc	5 135 61                        # randombytes/sysrandom/randombytes_sysrandom.c:135:61 @[ randombytes/sysrandom/randombytes_sysrandom.c:357:9 ]
	jns	.LBB3_14
.Ltmp74:
.LBB3_11:                               #   Parent Loop BB3_9 Depth=1
                                        # =>  This Inner Loop Header: Depth=2
	#DEBUG_VALUE: randombytes_sysrandom_buf:buf <- [DW_OP_LLVM_entry_value 1] $rdi
	#DEBUG_VALUE: randombytes_sysrandom_buf:size <- $rbx
	#DEBUG_VALUE: safe_read:fd <- $ebp
	#DEBUG_VALUE: safe_read:size <- $r12
	#DEBUG_VALUE: safe_read:buf <- $r15
	.loc	5 136 18 is_stmt 1              # randombytes/sysrandom/randombytes_sysrandom.c:136:18 @[ randombytes/sysrandom/randombytes_sysrandom.c:357:9 ]
	movl	(%r13), %ecx
	.loc	5 136 45 is_stmt 0              # randombytes/sysrandom/randombytes_sysrandom.c:136:45 @[ randombytes/sysrandom/randombytes_sysrandom.c:357:9 ]
	cmpl	$11, %ecx
	je	.LBB3_13
.Ltmp75:
# %bb.12:                               #   in Loop: Header=BB3_11 Depth=2
	#DEBUG_VALUE: randombytes_sysrandom_buf:buf <- [DW_OP_LLVM_entry_value 1] $rdi
	#DEBUG_VALUE: randombytes_sysrandom_buf:size <- $rbx
	#DEBUG_VALUE: safe_read:fd <- $ebp
	#DEBUG_VALUE: safe_read:size <- $r12
	#DEBUG_VALUE: safe_read:buf <- $r15
	cmpl	$4, %ecx
	je	.LBB3_13
.Ltmp76:
# %bb.17:                               # %safe_read.exit
	#DEBUG_VALUE: randombytes_sysrandom_buf:buf <- [DW_OP_LLVM_entry_value 1] $rdi
	#DEBUG_VALUE: randombytes_sysrandom_buf:size <- $rbx
	.loc	5 357 60 is_stmt 1              # randombytes/sysrandom/randombytes_sysrandom.c:357:60
	cmpq	%rbx, %rax
	.loc	5 356 44                        # randombytes/sysrandom/randombytes_sysrandom.c:356:44
	jne	.LBB3_4
.Ltmp77:
.LBB3_18:
	#DEBUG_VALUE: randombytes_sysrandom_buf:buf <- [DW_OP_LLVM_entry_value 1] $rdi
	#DEBUG_VALUE: randombytes_sysrandom_buf:size <- $rbx
	.loc	5 369 1 epilogue_begin          # randombytes/sysrandom/randombytes_sysrandom.c:369:1
	addq	$8, %rsp
	.cfi_def_cfa_offset 56
	popq	%rbx
.Ltmp78:
	#DEBUG_VALUE: randombytes_sysrandom_buf:size <- [DW_OP_LLVM_entry_value 1] $rsi
	.cfi_def_cfa_offset 48
	popq	%r12
	.cfi_def_cfa_offset 40
	popq	%r13
	.cfi_def_cfa_offset 32
	popq	%r14
	.cfi_def_cfa_offset 24
	popq	%r15
	.cfi_def_cfa_offset 16
	popq	%rbp
	.cfi_def_cfa_offset 8
	retq
.Ltmp79:
.LBB3_16:
	.cfi_def_cfa_offset 64
	#DEBUG_VALUE: randombytes_sysrandom_buf:buf <- [DW_OP_LLVM_entry_value 1] $rdi
	#DEBUG_VALUE: randombytes_sysrandom_buf:size <- $rbx
	#DEBUG_VALUE: safe_read:fd <- $ebp
	#DEBUG_VALUE: safe_read:size <- $r12
	#DEBUG_VALUE: safe_read:buf <- $r15
	#DEBUG_VALUE: safe_read:buf <- $r15
	.loc	5 147 27                        # randombytes/sysrandom/randombytes_sysrandom.c:147:27 @[ randombytes/sysrandom/randombytes_sysrandom.c:357:9 ]
	subq	(%rsp), %r15                    # 8-byte Folded Reload
.Ltmp80:
	.loc	5 0 27 is_stmt 0                # randombytes/sysrandom/randombytes_sysrandom.c:0:27
	movq	%r15, %rax
.Ltmp81:
	.loc	5 357 60 is_stmt 1              # randombytes/sysrandom/randombytes_sysrandom.c:357:60
	cmpq	%rbx, %rax
	.loc	5 356 44                        # randombytes/sysrandom/randombytes_sysrandom.c:356:44
	je	.LBB3_18
.Ltmp82:
.LBB3_4:
	#DEBUG_VALUE: randombytes_sysrandom_buf:buf <- [DW_OP_LLVM_entry_value 1] $rdi
	#DEBUG_VALUE: randombytes_sysrandom_buf:size <- $rbx
	.loc	5 0 0 is_stmt 0                 # randombytes/sysrandom/randombytes_sysrandom.c:0
	callq	sodium_misuse@PLT
.Ltmp83:
.LBB3_19:
	#DEBUG_VALUE: randombytes_sysrandom_buf:buf <- [DW_OP_LLVM_entry_value 1] $rdi
	#DEBUG_VALUE: randombytes_sysrandom_buf:size <- $rbx
	#DEBUG_VALUE: safe_read:fd <- $ebp
	#DEBUG_VALUE: safe_read:size <- $rbx
	.loc	5 132 100 is_stmt 1             # randombytes/sysrandom/randombytes_sysrandom.c:132:100 @[ randombytes/sysrandom/randombytes_sysrandom.c:357:9 ]
	leaq	.L.str.6(%rip), %rdi
	leaq	.L.str.2(%rip), %rsi
	leaq	.L__PRETTY_FUNCTION__.safe_read(%rip), %rcx
	movl	$132, %edx
	callq	__assert_fail@PLT
.Ltmp84:
.LBB3_20:
	#DEBUG_VALUE: randombytes_sysrandom_buf:buf <- [DW_OP_LLVM_entry_value 1] $rdi
	#DEBUG_VALUE: randombytes_sysrandom_buf:size <- $rbx
	#DEBUG_VALUE: safe_read:fd <- $ebp
	#DEBUG_VALUE: safe_read:size <- $rbx
	.loc	5 133 120                       # randombytes/sysrandom/randombytes_sysrandom.c:133:120 @[ randombytes/sysrandom/randombytes_sysrandom.c:357:9 ]
	leaq	.L.str.7(%rip), %rdi
	leaq	.L.str.2(%rip), %rsi
	leaq	.L__PRETTY_FUNCTION__.safe_read(%rip), %rcx
	movl	$133, %edx
	callq	__assert_fail@PLT
.Ltmp85:
.Lfunc_end3:
	.size	randombytes_sysrandom_buf, .Lfunc_end3-randombytes_sysrandom_buf
	.cfi_endproc
	.file	14 "/usr/include" "assert.h"
                                        # -- End function
	.p2align	4                               # -- Begin function randombytes_sysrandom_close
	.type	randombytes_sysrandom_close,@function
randombytes_sysrandom_close:            # @randombytes_sysrandom_close
.Lfunc_begin4:
	.loc	5 313 0                         # randombytes/sysrandom/randombytes_sysrandom.c:313:0
	.cfi_startproc
# %bb.0:
	pushq	%rbx
	.cfi_def_cfa_offset 16
	.cfi_offset %rbx, -16
.Ltmp86:
	#DEBUG_VALUE: randombytes_sysrandom_close:ret <- -1
	.loc	5 317 16 prologue_end           # randombytes/sysrandom/randombytes_sysrandom.c:317:16
	movl	stream.0(%rip), %edi
	movl	$-1, %ebx
	.loc	5 317 38 is_stmt 0              # randombytes/sysrandom/randombytes_sysrandom.c:317:38
	cmpl	$-1, %edi
	.loc	5 317 44                        # randombytes/sysrandom/randombytes_sysrandom.c:317:44
	je	.LBB4_3
.Ltmp87:
# %bb.1:
	#DEBUG_VALUE: randombytes_sysrandom_close:ret <- -1
	.loc	5 318 9 is_stmt 1               # randombytes/sysrandom/randombytes_sysrandom.c:318:9
	callq	close@PLT
.Ltmp88:
	.loc	5 318 45 is_stmt 0              # randombytes/sysrandom/randombytes_sysrandom.c:318:45
	testl	%eax, %eax
	.loc	5 317 44 is_stmt 1              # randombytes/sysrandom/randombytes_sysrandom.c:317:44
	jne	.LBB4_3
.Ltmp89:
# %bb.2:
	#DEBUG_VALUE: randombytes_sysrandom_close:ret <- -1
	.loc	5 319 38                        # randombytes/sysrandom/randombytes_sysrandom.c:319:38
	movl	$-1, stream.0(%rip)
	.loc	5 320 28                        # randombytes/sysrandom/randombytes_sysrandom.c:320:28
	movb	$0, stream.1(%rip)
	xorl	%ebx, %ebx
.Ltmp90:
	#DEBUG_VALUE: randombytes_sysrandom_close:ret <- 0
.LBB4_3:
	#DEBUG_VALUE: randombytes_sysrandom_close:ret <- $ebx
	.loc	5 0 28 is_stmt 0                # randombytes/sysrandom/randombytes_sysrandom.c:0:28
	xorl	%eax, %eax
.Ltmp91:
	.loc	5 324 36 is_stmt 1              # randombytes/sysrandom/randombytes_sysrandom.c:324:36
	cmpb	$0, stream.2(%rip)
	cmovel	%ebx, %eax
.Ltmp92:
	#DEBUG_VALUE: randombytes_sysrandom_close:ret <- $eax
	.loc	5 334 5 epilogue_begin          # randombytes/sysrandom/randombytes_sysrandom.c:334:5
	popq	%rbx
	.cfi_def_cfa_offset 8
	retq
.Ltmp93:
.Lfunc_end4:
	.size	randombytes_sysrandom_close, .Lfunc_end4-randombytes_sysrandom_close
	.cfi_endproc
                                        # -- End function
	.p2align	4                               # -- Begin function randombytes_linux_getrandom
	.type	randombytes_linux_getrandom,@function
randombytes_linux_getrandom:            # @randombytes_linux_getrandom
.Lfunc_begin5:
	.loc	5 241 0                         # randombytes/sysrandom/randombytes_sysrandom.c:241:0
	.cfi_startproc
# %bb.0:
	#DEBUG_VALUE: randombytes_linux_getrandom:buf_ <- $rdi
	#DEBUG_VALUE: randombytes_linux_getrandom:size <- $rsi
	pushq	%r15
	.cfi_def_cfa_offset 16
	pushq	%r14
	.cfi_def_cfa_offset 24
	pushq	%r13
	.cfi_def_cfa_offset 32
	pushq	%r12
	.cfi_def_cfa_offset 40
	pushq	%rbx
	.cfi_def_cfa_offset 48
	.cfi_offset %rbx, -48
	.cfi_offset %r12, -40
	.cfi_offset %r13, -32
	.cfi_offset %r14, -24
	.cfi_offset %r15, -16
.Ltmp94:
	#DEBUG_VALUE: randombytes_linux_getrandom:buf <- $rdi
	movq	%rsi, %rbx
	movq	%rdi, %r14
	movl	$256, %r15d                     # imm = 0x100
.Ltmp95:
	#DEBUG_VALUE: randombytes_linux_getrandom:chunk_size <- 256
	.loc	5 0 0 is_stmt 0                 # :0:0
.Ltmp96:
	.p2align	4
.LBB5_1:                                # =>This Loop Header: Depth=1
                                        #     Child Loop BB5_5 Depth 2
	#DEBUG_VALUE: randombytes_linux_getrandom:buf_ <- [DW_OP_LLVM_entry_value 1] $rdi
	#DEBUG_VALUE: randombytes_linux_getrandom:size <- $rbx
	#DEBUG_VALUE: randombytes_linux_getrandom:buf <- $r14
	#DEBUG_VALUE: randombytes_linux_getrandom:chunk_size <- $r15
	#DEBUG_VALUE: randombytes_linux_getrandom:buf <- $r14
	#DEBUG_VALUE: randombytes_linux_getrandom:size <- $rbx
	.loc	5 246 18 prologue_end is_stmt 1 # randombytes/sysrandom/randombytes_sysrandom.c:246:18
	cmpq	%r15, %rbx
	jae	.LBB5_3
.Ltmp97:
# %bb.2:                                #   in Loop: Header=BB5_1 Depth=1
	#DEBUG_VALUE: randombytes_linux_getrandom:buf_ <- [DW_OP_LLVM_entry_value 1] $rdi
	#DEBUG_VALUE: randombytes_linux_getrandom:size <- $rbx
	#DEBUG_VALUE: randombytes_linux_getrandom:buf <- $r14
	#DEBUG_VALUE: randombytes_linux_getrandom:chunk_size <- $r15
	#DEBUG_VALUE: randombytes_linux_getrandom:chunk_size <- $rbx
	.loc	5 0 18 is_stmt 0                # randombytes/sysrandom/randombytes_sysrandom.c:0:18
	movq	%rbx, %r15
.Ltmp98:
	.loc	5 248 98 is_stmt 1              # randombytes/sysrandom/randombytes_sysrandom.c:248:98
	testq	%rbx, %rbx
	je	.LBB5_13
.Ltmp99:
.LBB5_3:                                #   in Loop: Header=BB5_1 Depth=1
	#DEBUG_VALUE: randombytes_linux_getrandom:buf_ <- [DW_OP_LLVM_entry_value 1] $rdi
	#DEBUG_VALUE: randombytes_linux_getrandom:size <- $rbx
	#DEBUG_VALUE: randombytes_linux_getrandom:buf <- $r14
	#DEBUG_VALUE: randombytes_linux_getrandom:chunk_size <- $r15
	#DEBUG_VALUE: randombytes_linux_getrandom:chunk_size <- $r15
	#DEBUG_VALUE: _randombytes_linux_getrandom:buf <- $r14
	#DEBUG_VALUE: _randombytes_linux_getrandom:size <- $r15
	.loc	5 233 18                        # randombytes/sysrandom/randombytes_sysrandom.c:233:18 @[ randombytes/sysrandom/randombytes_sysrandom.c:250:13 ]
	movq	%r14, %rdi
	movq	%r15, %rsi
	xorl	%edx, %edx
	callq	getrandom@PLT
.Ltmp100:
	.loc	5 234 21                        # randombytes/sysrandom/randombytes_sysrandom.c:234:21 @[ randombytes/sysrandom/randombytes_sysrandom.c:250:13 ]
	testl	%eax, %eax
	.loc	5 234 25 is_stmt 0              # randombytes/sysrandom/randombytes_sysrandom.c:234:25 @[ randombytes/sysrandom/randombytes_sysrandom.c:250:13 ]
	js	.LBB5_4
.Ltmp101:
.LBB5_8:                                # %_randombytes_linux_getrandom.exit
                                        #   in Loop: Header=BB5_1 Depth=1
	#DEBUG_VALUE: randombytes_linux_getrandom:buf_ <- [DW_OP_LLVM_entry_value 1] $rdi
	#DEBUG_VALUE: randombytes_linux_getrandom:size <- $rbx
	#DEBUG_VALUE: randombytes_linux_getrandom:buf <- $r14
	#DEBUG_VALUE: randombytes_linux_getrandom:chunk_size <- $r15
	#DEBUG_VALUE: _randombytes_linux_getrandom:buf <- $r14
	#DEBUG_VALUE: _randombytes_linux_getrandom:size <- $r15
	.loc	5 236 20 is_stmt 1              # randombytes/sysrandom/randombytes_sysrandom.c:236:20 @[ randombytes/sysrandom/randombytes_sysrandom.c:250:13 ]
	cmpl	%r15d, %eax
.Ltmp102:
	.loc	5 250 59                        # randombytes/sysrandom/randombytes_sysrandom.c:250:59
	jne	.LBB5_9
.Ltmp103:
# %bb.10:                               #   in Loop: Header=BB5_1 Depth=1
	#DEBUG_VALUE: randombytes_linux_getrandom:buf_ <- [DW_OP_LLVM_entry_value 1] $rdi
	#DEBUG_VALUE: randombytes_linux_getrandom:size <- $rbx
	#DEBUG_VALUE: randombytes_linux_getrandom:buf <- $r14
	#DEBUG_VALUE: randombytes_linux_getrandom:chunk_size <- $r15
	.loc	5 254 13                        # randombytes/sysrandom/randombytes_sysrandom.c:254:13
	addq	%r15, %r14
.Ltmp104:
	#DEBUG_VALUE: randombytes_linux_getrandom:buf <- $r14
	.loc	5 255 19                        # randombytes/sysrandom/randombytes_sysrandom.c:255:19
	subq	%r15, %rbx
.Ltmp105:
	#DEBUG_VALUE: randombytes_linux_getrandom:size <- $rbx
	.loc	5 255 5 is_stmt 0               # randombytes/sysrandom/randombytes_sysrandom.c:255:5
	jne	.LBB5_1
	jmp	.LBB5_11
.Ltmp106:
	.loc	5 0 5                           # :0:5
.Ltmp107:
	.p2align	4
.LBB5_4:                                # %.lr.ph.i
                                        #   in Loop: Header=BB5_1 Depth=1
	#DEBUG_VALUE: randombytes_linux_getrandom:buf_ <- [DW_OP_LLVM_entry_value 1] $rdi
	#DEBUG_VALUE: randombytes_linux_getrandom:size <- $rbx
	#DEBUG_VALUE: randombytes_linux_getrandom:buf <- $r14
	#DEBUG_VALUE: randombytes_linux_getrandom:chunk_size <- $r15
	#DEBUG_VALUE: _randombytes_linux_getrandom:buf <- $r14
	#DEBUG_VALUE: _randombytes_linux_getrandom:size <- $r15
	movq	%rax, %r13
.Ltmp108:
	callq	__errno_location@PLT
.Ltmp109:
	movq	%rax, %r12
	movq	%r13, %rax
	jmp	.LBB5_5
.Ltmp110:
	.p2align	4
.LBB5_7:                                # %.critedge2.backedge.i
                                        #   in Loop: Header=BB5_5 Depth=2
	#DEBUG_VALUE: randombytes_linux_getrandom:buf_ <- [DW_OP_LLVM_entry_value 1] $rdi
	#DEBUG_VALUE: randombytes_linux_getrandom:size <- $rbx
	#DEBUG_VALUE: randombytes_linux_getrandom:buf <- $r14
	#DEBUG_VALUE: randombytes_linux_getrandom:chunk_size <- $r15
	#DEBUG_VALUE: _randombytes_linux_getrandom:buf <- $r14
	#DEBUG_VALUE: _randombytes_linux_getrandom:size <- $r15
	.loc	5 233 18 is_stmt 1              # randombytes/sysrandom/randombytes_sysrandom.c:233:18 @[ randombytes/sysrandom/randombytes_sysrandom.c:250:13 ]
	movq	%r14, %rdi
	movq	%r15, %rsi
	xorl	%edx, %edx
	callq	getrandom@PLT
.Ltmp111:
	#DEBUG_VALUE: _randombytes_linux_getrandom:readnb <- $eax
	.loc	5 234 21                        # randombytes/sysrandom/randombytes_sysrandom.c:234:21 @[ randombytes/sysrandom/randombytes_sysrandom.c:250:13 ]
	testl	%eax, %eax
	.loc	5 234 25 is_stmt 0              # randombytes/sysrandom/randombytes_sysrandom.c:234:25 @[ randombytes/sysrandom/randombytes_sysrandom.c:250:13 ]
	jns	.LBB5_8
.Ltmp112:
.LBB5_5:                                #   Parent Loop BB5_1 Depth=1
                                        # =>  This Inner Loop Header: Depth=2
	#DEBUG_VALUE: randombytes_linux_getrandom:buf_ <- [DW_OP_LLVM_entry_value 1] $rdi
	#DEBUG_VALUE: randombytes_linux_getrandom:size <- $rbx
	#DEBUG_VALUE: randombytes_linux_getrandom:buf <- $r14
	#DEBUG_VALUE: randombytes_linux_getrandom:chunk_size <- $r15
	#DEBUG_VALUE: _randombytes_linux_getrandom:buf <- $r14
	#DEBUG_VALUE: _randombytes_linux_getrandom:size <- $r15
	.loc	5 234 30 is_stmt 1              # randombytes/sysrandom/randombytes_sysrandom.c:234:30 @[ randombytes/sysrandom/randombytes_sysrandom.c:250:13 ]
	movl	(%r12), %ecx
	.loc	5 234 57 is_stmt 0              # randombytes/sysrandom/randombytes_sysrandom.c:234:57 @[ randombytes/sysrandom/randombytes_sysrandom.c:250:13 ]
	cmpl	$11, %ecx
	je	.LBB5_7
.Ltmp113:
# %bb.6:                                #   in Loop: Header=BB5_5 Depth=2
	#DEBUG_VALUE: randombytes_linux_getrandom:buf_ <- [DW_OP_LLVM_entry_value 1] $rdi
	#DEBUG_VALUE: randombytes_linux_getrandom:size <- $rbx
	#DEBUG_VALUE: randombytes_linux_getrandom:buf <- $r14
	#DEBUG_VALUE: randombytes_linux_getrandom:chunk_size <- $r15
	#DEBUG_VALUE: _randombytes_linux_getrandom:buf <- $r14
	#DEBUG_VALUE: _randombytes_linux_getrandom:size <- $r15
	cmpl	$4, %ecx
	je	.LBB5_7
	jmp	.LBB5_8
.Ltmp114:
.LBB5_9:
	#DEBUG_VALUE: randombytes_linux_getrandom:buf_ <- [DW_OP_LLVM_entry_value 1] $rdi
	#DEBUG_VALUE: randombytes_linux_getrandom:size <- $rbx
	#DEBUG_VALUE: randombytes_linux_getrandom:buf <- $r14
	#DEBUG_VALUE: randombytes_linux_getrandom:chunk_size <- $r15
	.loc	5 0 57                          # randombytes/sysrandom/randombytes_sysrandom.c:0:57
	movl	$-1, %eax
	.loc	5 250 59 is_stmt 1              # randombytes/sysrandom/randombytes_sysrandom.c:250:59
	jmp	.LBB5_12
.Ltmp115:
.LBB5_11:
	#DEBUG_VALUE: randombytes_linux_getrandom:buf_ <- [DW_OP_LLVM_entry_value 1] $rdi
	#DEBUG_VALUE: randombytes_linux_getrandom:size <- $rbx
	#DEBUG_VALUE: randombytes_linux_getrandom:buf <- $r14
	#DEBUG_VALUE: randombytes_linux_getrandom:chunk_size <- $r15
	.loc	5 0 59 is_stmt 0                # randombytes/sysrandom/randombytes_sysrandom.c:0:59
	xorl	%eax, %eax
.Ltmp116:
.LBB5_12:
	#DEBUG_VALUE: randombytes_linux_getrandom:buf_ <- [DW_OP_LLVM_entry_value 1] $rdi
	#DEBUG_VALUE: randombytes_linux_getrandom:size <- $rbx
	#DEBUG_VALUE: randombytes_linux_getrandom:buf <- $r14
	#DEBUG_VALUE: randombytes_linux_getrandom:chunk_size <- $r15
	.loc	5 258 1 epilogue_begin is_stmt 1 # randombytes/sysrandom/randombytes_sysrandom.c:258:1
	popq	%rbx
.Ltmp117:
	.cfi_def_cfa_offset 40
	popq	%r12
	.cfi_def_cfa_offset 32
	popq	%r13
	.cfi_def_cfa_offset 24
	popq	%r14
.Ltmp118:
	.cfi_def_cfa_offset 16
	popq	%r15
.Ltmp119:
	.cfi_def_cfa_offset 8
	retq
.Ltmp120:
.LBB5_13:
	.cfi_def_cfa_offset 48
	#DEBUG_VALUE: randombytes_linux_getrandom:buf_ <- [DW_OP_LLVM_entry_value 1] $rdi
	#DEBUG_VALUE: randombytes_linux_getrandom:size <- $rbx
	#DEBUG_VALUE: randombytes_linux_getrandom:buf <- $r14
	#DEBUG_VALUE: randombytes_linux_getrandom:chunk_size <- $rbx
	.loc	5 248 120                       # randombytes/sysrandom/randombytes_sysrandom.c:248:120
	leaq	.L.str.1(%rip), %rdi
	leaq	.L.str.2(%rip), %rsi
	leaq	.L__PRETTY_FUNCTION__.randombytes_linux_getrandom(%rip), %rcx
	movl	$248, %edx
	callq	__assert_fail@PLT
.Ltmp121:
.Lfunc_end5:
	.size	randombytes_linux_getrandom, .Lfunc_end5-randombytes_linux_getrandom
	.cfi_endproc
	.file	15 "/usr/include/x86_64-linux-gnu/sys" "random.h"
                                        # -- End function
	.type	randombytes_sysrandom_implementation,@object # @randombytes_sysrandom_implementation
	.data
	.globl	randombytes_sysrandom_implementation
	.p2align	3, 0x0
randombytes_sysrandom_implementation:
	.quad	randombytes_sysrandom_implementation_name
	.quad	randombytes_sysrandom
	.quad	randombytes_sysrandom_stir
	.quad	0
	.quad	randombytes_sysrandom_buf
	.quad	randombytes_sysrandom_close
	.size	randombytes_sysrandom_implementation, 48

	.type	.L.str,@object                  # @.str
	.section	.rodata.str1.1,"aMS",@progbits,1
.L.str:
	.asciz	"sysrandom"
	.size	.L.str, 10

	.type	stream.0,@object                # @stream.0
	.data
	.p2align	2, 0x0
stream.0:
	.long	4294967295                      # 0xffffffff
	.size	stream.0, 4

	.type	stream.1,@object                # @stream.1
	.local	stream.1
	.comm	stream.1,1,4
	.type	stream.2,@object                # @stream.2
	.local	stream.2
	.comm	stream.2,1,4
	.type	.L.str.1,@object                # @.str.1
	.section	.rodata.str1.1,"aMS",@progbits,1
.L.str.1:
	.asciz	"chunk_size > (size_t) 0U"
	.size	.L.str.1, 25

	.type	.L.str.2,@object                # @.str.2
.L.str.2:
	.asciz	"randombytes/sysrandom/randombytes_sysrandom.c"
	.size	.L.str.2, 46

	.type	.L__PRETTY_FUNCTION__.randombytes_linux_getrandom,@object # @__PRETTY_FUNCTION__.randombytes_linux_getrandom
.L__PRETTY_FUNCTION__.randombytes_linux_getrandom:
	.asciz	"int randombytes_linux_getrandom(void *const, size_t)"
	.size	.L__PRETTY_FUNCTION__.randombytes_linux_getrandom, 53

	.type	randombytes_sysrandom_random_dev_open.devices,@object # @randombytes_sysrandom_random_dev_open.devices
	.section	.data.rel.ro,"aw",@progbits
	.p2align	4, 0x0
randombytes_sysrandom_random_dev_open.devices:
	.quad	.L.str.4
	.quad	.L.str.5
	.quad	0
	.size	randombytes_sysrandom_random_dev_open.devices, 24

	.type	.L.str.4,@object                # @.str.4
	.section	.rodata.str1.1,"aMS",@progbits,1
.L.str.4:
	.asciz	"/dev/urandom"
	.size	.L.str.4, 13

	.type	.L.str.5,@object                # @.str.5
.L.str.5:
	.asciz	"/dev/random"
	.size	.L.str.5, 12

	.type	.L.str.6,@object                # @.str.6
.L.str.6:
	.asciz	"size > (size_t) 0U"
	.size	.L.str.6, 19

	.type	.L__PRETTY_FUNCTION__.safe_read,@object # @__PRETTY_FUNCTION__.safe_read
.L__PRETTY_FUNCTION__.safe_read:
	.asciz	"ssize_t safe_read(const int, void *const, size_t)"
	.size	.L__PRETTY_FUNCTION__.safe_read, 50

	.type	.L.str.7,@object                # @.str.7
.L.str.7:
	.asciz	"size <= SSIZE_MAX"
	.size	.L.str.7, 18

	.section	".note.GNU-stack","",@progbits
	.addrsig
	.addrsig_sym randombytes_sysrandom_implementation_name
	.addrsig_sym randombytes_sysrandom
	.addrsig_sym randombytes_sysrandom_stir
	.addrsig_sym randombytes_sysrandom_buf
	.addrsig_sym randombytes_sysrandom_close
	.addrsig_sym __stack_chk_fail