	.file	"randombytes.c"
	.file	0 "/home/leizhenyuu/opt/Anonymous_Repo/libsodium_o2_attr_inline/src/libsodium" "randombytes.c" md5 0x67d2373dab0dbe306141bb97106976ca
	.file	1 "randombytes" "randombytes.c"
	.file	2 "./include/sodium" "randombytes.h"
	.file	3 "/usr/include/x86_64-linux-gnu/bits" "types.h"
	.file	4 "/usr/include/x86_64-linux-gnu/bits" "stdint-uintn.h"
	.file	5 "/home/leizhenyuu/opt/Anonymous_Repo" "llvm-project/build/lib/clang/21/include/__stddef_size_t.h"
	.text
	.globl	randombytes_set_implementation  # -- Begin function randombytes_set_implementation
	.p2align	4
	.type	randombytes_set_implementation,@function
randombytes_set_implementation:         # @randombytes_set_implementation
.Lfunc_begin0:
	.cfi_startproc
# %bb.0:
	#DEBUG_VALUE: randombytes_set_implementation:impl <- $rdi
	.loc	1 49 20 prologue_end            # randombytes/randombytes.c:49:20
	movq	%rdi, implementation(%rip)
	.loc	1 51 5                          # randombytes/randombytes.c:51:5
	xorl	%eax, %eax
	retq
.Ltmp0:
.Lfunc_end0:
	.size	randombytes_set_implementation, .Lfunc_end0-randombytes_set_implementation
	.cfi_endproc
                                        # -- End function
	.globl	randombytes_implementation_name # -- Begin function randombytes_implementation_name
	.p2align	4
	.type	randombytes_implementation_name,@function
randombytes_implementation_name:        # @randombytes_implementation_name
.Lfunc_begin1:
	.loc	1 56 0                          # randombytes/randombytes.c:56:0
	.cfi_startproc
# %bb.0:
	pushq	%rax
	.cfi_def_cfa_offset 16
.Ltmp1:
	.loc	1 58 5 prologue_end             # randombytes/randombytes.c:58:5
	callq	randombytes_init_if_needed
.Ltmp2:
	.loc	1 59 12                         # randombytes/randombytes.c:59:12
	movq	implementation(%rip), %rax
	.loc	1 59 12 epilogue_begin is_stmt 0 # randombytes/randombytes.c:59:12
	popq	%rcx
	.cfi_def_cfa_offset 8
.Ltmp3:
	jmpq	*(%rax)                         # TAILCALL
.Ltmp4:
.Lfunc_end1:
	.size	randombytes_implementation_name, .Lfunc_end1-randombytes_implementation_name
	.cfi_endproc
                                        # -- End function
	.p2align	4                               # -- Begin function randombytes_init_if_needed
	.type	randombytes_init_if_needed,@function
randombytes_init_if_needed:             # @randombytes_init_if_needed
.Lfunc_begin2:
	.cfi_startproc
# %bb.0:
	.loc	1 40 24 prologue_end is_stmt 1  # randombytes/randombytes.c:40:24
	cmpq	$0, implementation(%rip)
	je	.LBB2_1
.Ltmp5:
.LBB2_2:                                # %randombytes_stir.exit
	.loc	1 44 1                          # randombytes/randombytes.c:44:1
	retq
.LBB2_1:
	pushq	%rax
	.cfi_def_cfa_offset 16
.Ltmp6:
	.loc	1 41 24                         # randombytes/randombytes.c:41:24
	movq	randombytes_sysrandom_implementation@GOTPCREL(%rip), %rax
	movq	%rax, implementation(%rip)
.Ltmp7:
	.loc	1 82 5                          # randombytes/randombytes.c:82:5 @[ randombytes/randombytes.c:42:9 ]
	callq	randombytes_init_if_needed
.Ltmp8:
	.loc	1 83 9                          # randombytes/randombytes.c:83:9 @[ randombytes/randombytes.c:42:9 ]
	movq	implementation(%rip), %rax
	.loc	1 83 25 is_stmt 0               # randombytes/randombytes.c:83:25 @[ randombytes/randombytes.c:42:9 ]
	movq	16(%rax), %rax
	.loc	1 83 30                         # randombytes/randombytes.c:83:30 @[ randombytes/randombytes.c:42:9 ]
	testq	%rax, %rax
	.loc	1 83 30 epilogue_begin          # randombytes/randombytes.c:83:30 @[ randombytes/randombytes.c:42:9 ]
	leaq	8(%rsp), %rsp
	.cfi_def_cfa_offset 8
	je	.LBB2_2
# %bb.3:
.Ltmp9:
	.loc	1 84 9 is_stmt 1                # randombytes/randombytes.c:84:9 @[ randombytes/randombytes.c:42:9 ]
	jmpq	*%rax                           # TAILCALL
.Ltmp10:
.Lfunc_end2:
	.size	randombytes_init_if_needed, .Lfunc_end2-randombytes_init_if_needed
	.cfi_endproc
                                        # -- End function
	.globl	randombytes_random              # -- Begin function randombytes_random
	.p2align	4
	.type	randombytes_random,@function
randombytes_random:                     # @randombytes_random
.Lfunc_begin3:
	.loc	1 67 0                          # randombytes/randombytes.c:67:0
	.cfi_startproc
# %bb.0:
	pushq	%rax
	.cfi_def_cfa_offset 16
.Ltmp11:
	.loc	1 69 5 prologue_end             # randombytes/randombytes.c:69:5
	callq	randombytes_init_if_needed
.Ltmp12:
	.loc	1 70 12                         # randombytes/randombytes.c:70:12
	movq	implementation(%rip), %rax
	.loc	1 70 12 epilogue_begin is_stmt 0 # randombytes/randombytes.c:70:12
	popq	%rcx
	.cfi_def_cfa_offset 8
.Ltmp13:
	jmpq	*8(%rax)                        # TAILCALL
.Ltmp14:
.Lfunc_end3:
	.size	randombytes_random, .Lfunc_end3-randombytes_random
	.cfi_endproc
                                        # -- End function
	.globl	randombytes_stir                # -- Begin function randombytes_stir
	.p2align	4
	.type	randombytes_stir,@function
randombytes_stir:                       # @randombytes_stir
.Lfunc_begin4:
	.loc	1 80 0 is_stmt 1                # randombytes/randombytes.c:80:0
	.cfi_startproc
# %bb.0:
	pushq	%rax
	.cfi_def_cfa_offset 16
.Ltmp15:
	.loc	1 82 5 prologue_end             # randombytes/randombytes.c:82:5
	callq	randombytes_init_if_needed
.Ltmp16:
	.loc	1 83 9                          # randombytes/randombytes.c:83:9
	movq	implementation(%rip), %rax
	.loc	1 83 25 is_stmt 0               # randombytes/randombytes.c:83:25
	movq	16(%rax), %rax
	.loc	1 83 30                         # randombytes/randombytes.c:83:30
	testq	%rax, %rax
	je	.LBB4_1
# %bb.2:
.Ltmp17:
	.loc	1 84 9 epilogue_begin is_stmt 1 # randombytes/randombytes.c:84:9
	popq	%rcx
	.cfi_def_cfa_offset 8
.Ltmp18:
	jmpq	*%rax                           # TAILCALL
.Ltmp19:
.LBB4_1:
	.cfi_def_cfa_offset 16
	.loc	1 115 1 epilogue_begin          # randombytes/randombytes.c:115:1
	popq	%rax
	.cfi_def_cfa_offset 8
	retq
.Ltmp20:
.Lfunc_end4:
	.size	randombytes_stir, .Lfunc_end4-randombytes_stir
	.cfi_endproc
                                        # -- End function
	.globl	randombytes_uniform             # -- Begin function randombytes_uniform
	.p2align	4
	.type	randombytes_uniform,@function
randombytes_uniform:                    # @randombytes_uniform
.Lfunc_begin5:
	.loc	1 119 0                         # randombytes/randombytes.c:119:0
	.cfi_startproc
# %bb.0:
	#DEBUG_VALUE: randombytes_uniform:upper_bound <- $edi
	pushq	%rbp
	.cfi_def_cfa_offset 16
	pushq	%rbx
	.cfi_def_cfa_offset 24
	pushq	%rax
	.cfi_def_cfa_offset 32
	.cfi_offset %rbx, -24
	.cfi_offset %rbp, -16
	movl	%edi, %ebx
.Ltmp21:
	.loc	1 124 5 prologue_end            # randombytes/randombytes.c:124:5
	callq	randombytes_init_if_needed
.Ltmp22:
	#DEBUG_VALUE: randombytes_uniform:upper_bound <- $ebx
	.loc	1 125 9                         # randombytes/randombytes.c:125:9
	movq	implementation(%rip), %rax
	.loc	1 125 25 is_stmt 0              # randombytes/randombytes.c:125:25
	movq	24(%rax), %rax
	.loc	1 125 33                        # randombytes/randombytes.c:125:33
	testq	%rax, %rax
	je	.LBB5_1
.Ltmp23:
# %bb.6:
	#DEBUG_VALUE: randombytes_uniform:upper_bound <- $ebx
	.loc	1 126 16 is_stmt 1              # randombytes/randombytes.c:126:16
	movl	%ebx, %edi
	.loc	1 126 16 epilogue_begin is_stmt 0 # randombytes/randombytes.c:126:16
	addq	$8, %rsp
	.cfi_def_cfa_offset 24
	popq	%rbx
.Ltmp24:
	#DEBUG_VALUE: randombytes_uniform:upper_bound <- $edi
	.cfi_def_cfa_offset 16
	popq	%rbp
	.cfi_def_cfa_offset 8
.Ltmp25:
	jmpq	*%rax                           # TAILCALL
.Ltmp26:
.LBB5_1:
	.cfi_def_cfa_offset 32
	#DEBUG_VALUE: randombytes_uniform:upper_bound <- $ebx
	.loc	1 0 16                          # randombytes/randombytes.c:0:16
	xorl	%eax, %eax
.Ltmp27:
	.loc	1 129 21 is_stmt 1              # randombytes/randombytes.c:129:21
	cmpl	$2, %ebx
	jb	.LBB5_5
.Ltmp28:
# %bb.2:
	#DEBUG_VALUE: randombytes_uniform:upper_bound <- $ebx
	.loc	1 132 15                        # randombytes/randombytes.c:132:15
	movl	%ebx, %eax
	negl	%eax
	.loc	1 132 31 is_stmt 0              # randombytes/randombytes.c:132:31
	xorl	%edx, %edx
	divl	%ebx
	movl	%edx, %ebp
.Ltmp29:
	#DEBUG_VALUE: randombytes_uniform:min <- $ebp
	.loc	1 0 31                          # :0:31
.Ltmp30:
	.p2align	4
.LBB5_3:                                # =>This Inner Loop Header: Depth=1
	#DEBUG_VALUE: randombytes_uniform:upper_bound <- $ebx
	#DEBUG_VALUE: randombytes_uniform:min <- $ebp
	.loc	1 69 5 is_stmt 1                # randombytes/randombytes.c:69:5 @[ randombytes/randombytes.c:134:13 ]
	callq	randombytes_init_if_needed
.Ltmp31:
	.loc	1 70 12                         # randombytes/randombytes.c:70:12 @[ randombytes/randombytes.c:134:13 ]
	movq	implementation(%rip), %rax
	callq	*8(%rax)
.Ltmp32:
	#DEBUG_VALUE: randombytes_uniform:r <- $eax
	.loc	1 135 16                        # randombytes/randombytes.c:135:16
	cmpl	%ebp, %eax
.Ltmp33:
	.loc	1 135 5 is_stmt 0               # randombytes/randombytes.c:135:5
	jb	.LBB5_3
.Ltmp34:
# %bb.4:
	#DEBUG_VALUE: randombytes_uniform:upper_bound <- $ebx
	#DEBUG_VALUE: randombytes_uniform:min <- $ebp
	#DEBUG_VALUE: randombytes_uniform:r <- $eax
	.loc	1 139 14 is_stmt 1              # randombytes/randombytes.c:139:14
	xorl	%edx, %edx
	divl	%ebx
.Ltmp35:
	movl	%edx, %eax
.Ltmp36:
.LBB5_5:
	#DEBUG_VALUE: randombytes_uniform:upper_bound <- $ebx
	.loc	1 140 1 epilogue_begin          # randombytes/randombytes.c:140:1
	addq	$8, %rsp
	.cfi_def_cfa_offset 24
	popq	%rbx
.Ltmp37:
	#DEBUG_VALUE: randombytes_uniform:upper_bound <- [DW_OP_LLVM_entry_value 1] $edi
	.cfi_def_cfa_offset 16
	popq	%rbp
	.cfi_def_cfa_offset 8
	retq
.Ltmp38:
.Lfunc_end5:
	.size	randombytes_uniform, .Lfunc_end5-randombytes_uniform
	.cfi_endproc
                                        # -- End function
	.globl	randombytes_buf                 # -- Begin function randombytes_buf
	.p2align	4
	.type	randombytes_buf,@function
randombytes_buf:                        # @randombytes_buf
.Lfunc_begin6:
	.loc	1 144 0                         # randombytes/randombytes.c:144:0
	.cfi_startproc
# %bb.0:
	#DEBUG_VALUE: randombytes_buf:buf <- $rdi
	#DEBUG_VALUE: randombytes_buf:size <- $rsi
	pushq	%r14
	.cfi_def_cfa_offset 16
	pushq	%rbx
	.cfi_def_cfa_offset 24
	pushq	%rax
	.cfi_def_cfa_offset 32
	.cfi_offset %rbx, -24
	.cfi_offset %r14, -16
	movq	%rsi, %r14
	movq	%rdi, %rbx
.Ltmp39:
	.loc	1 146 5 prologue_end            # randombytes/randombytes.c:146:5
	callq	randombytes_init_if_needed
.Ltmp40:
	#DEBUG_VALUE: randombytes_buf:size <- $r14
	#DEBUG_VALUE: randombytes_buf:buf <- $rbx
	.loc	1 147 14                        # randombytes/randombytes.c:147:14
	testq	%r14, %r14
	je	.LBB6_1
.Ltmp41:
# %bb.2:
	#DEBUG_VALUE: randombytes_buf:buf <- $rbx
	#DEBUG_VALUE: randombytes_buf:size <- $r14
	.loc	1 148 9                         # randombytes/randombytes.c:148:9
	movq	implementation(%rip), %rax
	movq	32(%rax), %rax
	movq	%rbx, %rdi
	movq	%r14, %rsi
	.loc	1 148 9 epilogue_begin is_stmt 0 # randombytes/randombytes.c:148:9
	addq	$8, %rsp
	.cfi_def_cfa_offset 24
	popq	%rbx
.Ltmp42:
	#DEBUG_VALUE: randombytes_buf:buf <- $rdi
	.cfi_def_cfa_offset 16
	popq	%r14
.Ltmp43:
	#DEBUG_VALUE: randombytes_buf:size <- $rsi
	.cfi_def_cfa_offset 8
	jmpq	*%rax                           # TAILCALL
.Ltmp44:
.LBB6_1:
	.cfi_def_cfa_offset 32
	#DEBUG_VALUE: randombytes_buf:buf <- $rbx
	#DEBUG_VALUE: randombytes_buf:size <- $r14
	.loc	1 158 1 epilogue_begin is_stmt 1 # randombytes/randombytes.c:158:1
	addq	$8, %rsp
	.cfi_def_cfa_offset 24
	popq	%rbx
.Ltmp45:
	#DEBUG_VALUE: randombytes_buf:buf <- [DW_OP_LLVM_entry_value 1] $rdi
	.cfi_def_cfa_offset 16
	popq	%r14
.Ltmp46:
	#DEBUG_VALUE: randombytes_buf:size <- [DW_OP_LLVM_entry_value 1] $rsi
	.cfi_def_cfa_offset 8
	retq
.Ltmp47:
.Lfunc_end6:
	.size	randombytes_buf, .Lfunc_end6-randombytes_buf
	.cfi_endproc
                                        # -- End function
	.globl	randombytes_buf_deterministic   # -- Begin function randombytes_buf_deterministic
	.p2align	4
	.type	randombytes_buf_deterministic,@function
randombytes_buf_deterministic:          # @randombytes_buf_deterministic
.Lfunc_begin7:
	.loc	1 163 0                         # randombytes/randombytes.c:163:0
	.cfi_startproc
# %bb.0:
	#DEBUG_VALUE: randombytes_buf_deterministic:buf <- $rdi
	#DEBUG_VALUE: randombytes_buf_deterministic:size <- $rsi
	#DEBUG_VALUE: randombytes_buf_deterministic:seed <- $rdx
	movabsq	$274877906945, %rax             # imm = 0x4000000001
.Ltmp48:
	.loc	1 171 14 prologue_end           # randombytes/randombytes.c:171:14
	cmpq	%rax, %rsi
	jae	.LBB7_1
.Ltmp49:
# %bb.2:
	#DEBUG_VALUE: randombytes_buf_deterministic:buf <- $rdi
	#DEBUG_VALUE: randombytes_buf_deterministic:size <- $rsi
	#DEBUG_VALUE: randombytes_buf_deterministic:seed <- $rdx
	.loc	1 0 14 is_stmt 0                # randombytes/randombytes.c:0:14
	movq	%rdx, %rcx
	.loc	1 175 5 is_stmt 1               # randombytes/randombytes.c:175:5
	leaq	randombytes_buf_deterministic.nonce(%rip), %rdx
.Ltmp50:
	#DEBUG_VALUE: randombytes_buf_deterministic:seed <- $rcx
	jmp	crypto_stream_chacha20_ietf@PLT # TAILCALL
.Ltmp51:
.LBB7_1:
	#DEBUG_VALUE: randombytes_buf_deterministic:buf <- $rdi
	#DEBUG_VALUE: randombytes_buf_deterministic:size <- $rsi
	#DEBUG_VALUE: randombytes_buf_deterministic:seed <- $rdx
	pushq	%rax
	.cfi_def_cfa_offset 16
.Ltmp52:
	.loc	1 172 9                         # randombytes/randombytes.c:172:9
	callq	sodium_misuse@PLT
.Ltmp53:
	#DEBUG_VALUE: randombytes_buf_deterministic:seed <- [DW_OP_LLVM_entry_value 1] $rdx
	#DEBUG_VALUE: randombytes_buf_deterministic:size <- [DW_OP_LLVM_entry_value 1] $rsi
	#DEBUG_VALUE: randombytes_buf_deterministic:buf <- [DW_OP_LLVM_entry_value 1] $rdi
.Lfunc_end7:
	.size	randombytes_buf_deterministic, .Lfunc_end7-randombytes_buf_deterministic
	.cfi_endproc
	.file	6 "./include/sodium" "crypto_stream_chacha20.h"
	.file	7 "./include/sodium" "core.h"
                                        # -- End function
	.globl	randombytes_seedbytes           # -- Begin function randombytes_seedbytes
	.p2align	4
	.type	randombytes_seedbytes,@function
randombytes_seedbytes:                  # @randombytes_seedbytes
.Lfunc_begin8:
	.cfi_startproc
# %bb.0:
	.loc	1 182 5 prologue_end            # randombytes/randombytes.c:182:5
	movl	$32, %eax
	retq
.Ltmp54:
.Lfunc_end8:
	.size	randombytes_seedbytes, .Lfunc_end8-randombytes_seedbytes
	.cfi_endproc
                                        # -- End function
	.globl	randombytes_close               # -- Begin function randombytes_close
	.p2align	4
	.type	randombytes_close,@function
randombytes_close:                      # @randombytes_close
.Lfunc_begin9:
	.cfi_startproc
# %bb.0:
	.loc	1 188 9 prologue_end            # randombytes/randombytes.c:188:9
	movq	implementation(%rip), %rax
	.loc	1 188 24 is_stmt 0              # randombytes/randombytes.c:188:24
	testq	%rax, %rax
	.loc	1 188 38                        # randombytes/randombytes.c:188:38
	je	.LBB9_2
# %bb.1:
	.loc	1 188 57                        # randombytes/randombytes.c:188:57
	movq	40(%rax), %rax
	.loc	1 188 63                        # randombytes/randombytes.c:188:63
	testq	%rax, %rax
	.loc	1 188 38                        # randombytes/randombytes.c:188:38
	je	.LBB9_2
# %bb.3:
.Ltmp55:
	.loc	1 189 16 is_stmt 1              # randombytes/randombytes.c:189:16
	jmpq	*%rax                           # TAILCALL
.Ltmp56:
.LBB9_2:
	.loc	1 192 1                         # randombytes/randombytes.c:192:1
	xorl	%eax, %eax
	retq
.Ltmp57:
.Lfunc_end9:
	.size	randombytes_close, .Lfunc_end9-randombytes_close
	.cfi_endproc
                                        # -- End function
	.globl	randombytes                     # -- Begin function randombytes
	.p2align	4
	.type	randombytes,@function
randombytes:                            # @randombytes
.Lfunc_begin10:
	.loc	1 196 0                         # randombytes/randombytes.c:196:0
	.cfi_startproc
# %bb.0:
	#DEBUG_VALUE: randombytes:buf <- $rdi
	#DEBUG_VALUE: randombytes:buf_len <- $rsi
	#DEBUG_VALUE: randombytes_buf:buf <- $rdi
	#DEBUG_VALUE: randombytes_buf:size <- $rsi
	pushq	%r14
	.cfi_def_cfa_offset 16
	pushq	%rbx
	.cfi_def_cfa_offset 24
	pushq	%rax
	.cfi_def_cfa_offset 32
	.cfi_offset %rbx, -24
	.cfi_offset %r14, -16
	movq	%rsi, %r14
	movq	%rdi, %rbx
.Ltmp58:
	.loc	1 146 5 prologue_end            # randombytes/randombytes.c:146:5 @[ randombytes/randombytes.c:198:5 ]
	callq	randombytes_init_if_needed
.Ltmp59:
	#DEBUG_VALUE: randombytes_buf:size <- $r14
	#DEBUG_VALUE: randombytes:buf_len <- $r14
	#DEBUG_VALUE: randombytes_buf:buf <- $rbx
	#DEBUG_VALUE: randombytes:buf <- $rbx
	.loc	1 147 14                        # randombytes/randombytes.c:147:14 @[ randombytes/randombytes.c:198:5 ]
	testq	%r14, %r14
	je	.LBB10_1
.Ltmp60:
# %bb.2:
	#DEBUG_VALUE: randombytes:buf <- $rbx
	#DEBUG_VALUE: randombytes:buf_len <- $r14
	#DEBUG_VALUE: randombytes_buf:buf <- $rbx
	#DEBUG_VALUE: randombytes_buf:size <- $r14
	.loc	1 148 9                         # randombytes/randombytes.c:148:9 @[ randombytes/randombytes.c:198:5 ]
	movq	implementation(%rip), %rax
	movq	32(%rax), %rax
	movq	%rbx, %rdi
	movq	%r14, %rsi
	.loc	1 148 9 epilogue_begin is_stmt 0 # randombytes/randombytes.c:148:9 @[ randombytes/randombytes.c:198:5 ]
	addq	$8, %rsp
	.cfi_def_cfa_offset 24
	popq	%rbx
.Ltmp61:
	#DEBUG_VALUE: randombytes_buf:buf <- $rdi
	#DEBUG_VALUE: randombytes:buf <- $rdi
	.cfi_def_cfa_offset 16
	popq	%r14
.Ltmp62:
	#DEBUG_VALUE: randombytes_buf:size <- $rsi
	#DEBUG_VALUE: randombytes:buf_len <- $rsi
	.cfi_def_cfa_offset 8
	jmpq	*%rax                           # TAILCALL
.Ltmp63:
.LBB10_1:                               # %randombytes_buf.exit
	.cfi_def_cfa_offset 32
	#DEBUG_VALUE: randombytes:buf <- $rbx
	#DEBUG_VALUE: randombytes:buf_len <- $r14
	.loc	1 199 1 epilogue_begin is_stmt 1 # randombytes/randombytes.c:199:1
	addq	$8, %rsp
	.cfi_def_cfa_offset 24
	popq	%rbx
.Ltmp64:
	#DEBUG_VALUE: randombytes:buf <- [DW_OP_LLVM_entry_value 1] $rdi
	.cfi_def_cfa_offset 16
	popq	%r14
.Ltmp65:
	#DEBUG_VALUE: randombytes:buf_len <- [DW_OP_LLVM_entry_value 1] $rsi
	.cfi_def_cfa_offset 8
	retq
.Ltmp66:
.Lfunc_end10:
	.size	randombytes, .Lfunc_end10-randombytes
	.cfi_endproc
                                        # -- End function
	.type	implementation,@object          # @implementation
	.local	implementation
	.comm	implementation,8,8
	.type	randombytes_buf_deterministic.nonce,@object # @randombytes_buf_deterministic.nonce
	.section	.rodata,"a",@progbits
randombytes_buf_deterministic.nonce:
	.ascii	"LibsodiumDRG"
	.size	randombytes_buf_deterministic.nonce, 12

	.section	".note.GNU-stack","",@progbits
	.addrsig
	.addrsig_sym randombytes_buf_deterministic.nonce
	.addrsig_sym randombytes_sysrandom_implementation