	.file	"salsa20_xmm6int-avx2.c"
	.file	0 "/home/leizhenyuu/opt/Anonymous_Repo/libsodium_o2_attr_inline/src/libsodium" "salsa20_xmm6int-avx2.c" md5 0x165a8dcd33f592b2342d9a25475ad389
	.file	1 "crypto_stream/salsa20/xmm6int/.." "stream_salsa20.h"
	.file	2 "/usr/include/x86_64-linux-gnu/bits" "types.h"
	.file	3 "/usr/include/x86_64-linux-gnu/bits" "stdint-uintn.h"
	.file	4 "crypto_stream/salsa20/xmm6int" "salsa20_xmm6int-avx2.c"
	.file	5 "/home/leizhenyuu/opt/Anonymous_Repo" "llvm-project/build/lib/clang/21/include/avxintrin.h"
	.file	6 "/home/leizhenyuu/opt/Anonymous_Repo" "llvm-project/build/lib/clang/21/include/emmintrin.h"
	.file	7 "/home/leizhenyuu/opt/Anonymous_Repo" "llvm-project/build/lib/clang/21/include/xmmintrin.h"
	.section	.rodata.cst16,"aM",@progbits,16
	.p2align	4, 0x0                          # -- Begin function stream_avx2
.LCPI0_0:
	.long	1634760805                      # 0x61707865
	.long	857760878                       # 0x3320646e
	.long	2036477234                      # 0x79622d32
	.long	1797285236                      # 0x6b206574
	.text
	.p2align	4
	.type	stream_avx2,@function
stream_avx2:                            # @stream_avx2
.Lfunc_begin0:
	.cfi_startproc
# %bb.0:
	#DEBUG_VALUE: stream_avx2:c <- $rdi
	#DEBUG_VALUE: stream_avx2:clen <- $rsi
	#DEBUG_VALUE: stream_avx2:n <- $rdx
	#DEBUG_VALUE: stream_avx2:k <- $rcx
	#DEBUG_VALUE: stream_avx2:ctx <- [DW_OP_deref] $rsp
	.loc	4 86 10 prologue_end            # crypto_stream/salsa20/xmm6int/salsa20_xmm6int-avx2.c:86:10
	testq	%rsi, %rsi
	.loc	4 86 9 is_stmt 0                # crypto_stream/salsa20/xmm6int/salsa20_xmm6int-avx2.c:86:9
	je	.LBB0_2
.Ltmp0:
# %bb.1:
	#DEBUG_VALUE: stream_avx2:c <- $rdi
	#DEBUG_VALUE: stream_avx2:clen <- $rsi
	#DEBUG_VALUE: stream_avx2:n <- $rdx
	#DEBUG_VALUE: stream_avx2:k <- $rcx
	#DEBUG_VALUE: stream_avx2:ctx <- [DW_OP_deref] $rsp
	pushq	%r15
	.cfi_def_cfa_offset 16
	pushq	%r14
	.cfi_def_cfa_offset 24
	pushq	%rbx
	.cfi_def_cfa_offset 32
	subq	$64, %rsp
	.cfi_def_cfa_offset 96
	.cfi_offset %rbx, -32
	.cfi_offset %r14, -24
	.cfi_offset %r15, -16
	movq	%rsi, %rbx
.Ltmp1:
	#DEBUG_VALUE: salsa_keysetup:ctx <- $rsp
	#DEBUG_VALUE: salsa_keysetup:k <- $rcx
	#DEBUG_VALUE: load32_le:w <- undef
	#DEBUG_VALUE: load32_le:src <- $rcx
	#DEBUG_VALUE: memcpy:__dest <- undef
	#DEBUG_VALUE: memcpy:__src <- $rcx
	#DEBUG_VALUE: memcpy:__len <- 4
	.file	8 "/usr/include/x86_64-linux-gnu/bits" "string_fortified.h"
	.loc	8 29 10 is_stmt 1               # /usr/include/x86_64-linux-gnu/bits/string_fortified.h:29:10 @[ ./include/sodium/private/common.h:106:5 @[ crypto_stream/salsa20/xmm6int/salsa20_xmm6int-avx2.c:41:25 @[ crypto_stream/salsa20/xmm6int/salsa20_xmm6int-avx2.c:90:5 ] ] ]
	movl	(%rcx), %eax
.Ltmp2:
	#DEBUG_VALUE: stream_avx2:ctx <- [DW_OP_LLVM_fragment 160 32] $eax
	#DEBUG_VALUE: stream_avx2:ctx <- [DW_OP_deref, DW_OP_LLVM_fragment 0 160] $rsp
	#DEBUG_VALUE: stream_avx2:ctx <- [DW_OP_plus_uconst 24, DW_OP_deref, DW_OP_LLVM_fragment 192 320] $rsp
	#DEBUG_VALUE: load32_le:w <- undef
	#DEBUG_VALUE: memcpy:__dest <- undef
	#DEBUG_VALUE: memcpy:__len <- 4
	#DEBUG_VALUE: load32_le:src <- [DW_OP_plus_uconst 4, DW_OP_stack_value] $rcx
	#DEBUG_VALUE: memcpy:__src <- [DW_OP_plus_uconst 4, DW_OP_stack_value] $rcx
	.loc	8 29 10 is_stmt 0               # /usr/include/x86_64-linux-gnu/bits/string_fortified.h:29:10 @[ ./include/sodium/private/common.h:106:5 @[ crypto_stream/salsa20/xmm6int/salsa20_xmm6int-avx2.c:42:25 @[ crypto_stream/salsa20/xmm6int/salsa20_xmm6int-avx2.c:90:5 ] ] ]
	movl	4(%rcx), %esi
.Ltmp3:
	#DEBUG_VALUE: stream_avx2:clen <- $rbx
	.loc	4 42 23 is_stmt 1               # crypto_stream/salsa20/xmm6int/salsa20_xmm6int-avx2.c:42:23 @[ crypto_stream/salsa20/xmm6int/salsa20_xmm6int-avx2.c:90:5 ]
	movl	%esi, 40(%rsp)
.Ltmp4:
	#DEBUG_VALUE: load32_le:w <- undef
	#DEBUG_VALUE: memcpy:__dest <- undef
	#DEBUG_VALUE: memcpy:__len <- 4
	#DEBUG_VALUE: load32_le:src <- [DW_OP_plus_uconst 8, DW_OP_stack_value] $rcx
	#DEBUG_VALUE: memcpy:__src <- [DW_OP_plus_uconst 8, DW_OP_stack_value] $rcx
	.loc	8 29 10                         # /usr/include/x86_64-linux-gnu/bits/string_fortified.h:29:10 @[ ./include/sodium/private/common.h:106:5 @[ crypto_stream/salsa20/xmm6int/salsa20_xmm6int-avx2.c:43:25 @[ crypto_stream/salsa20/xmm6int/salsa20_xmm6int-avx2.c:90:5 ] ] ]
	movl	8(%rcx), %esi
.Ltmp5:
	.loc	4 43 23                         # crypto_stream/salsa20/xmm6int/salsa20_xmm6int-avx2.c:43:23 @[ crypto_stream/salsa20/xmm6int/salsa20_xmm6int-avx2.c:90:5 ]
	movl	%esi, 60(%rsp)
.Ltmp6:
	#DEBUG_VALUE: load32_le:w <- undef
	#DEBUG_VALUE: memcpy:__dest <- undef
	#DEBUG_VALUE: memcpy:__len <- 4
	#DEBUG_VALUE: load32_le:src <- [DW_OP_plus_uconst 12, DW_OP_stack_value] $rcx
	#DEBUG_VALUE: memcpy:__src <- [DW_OP_plus_uconst 12, DW_OP_stack_value] $rcx
	.loc	8 29 10                         # /usr/include/x86_64-linux-gnu/bits/string_fortified.h:29:10 @[ ./include/sodium/private/common.h:106:5 @[ crypto_stream/salsa20/xmm6int/salsa20_xmm6int-avx2.c:44:25 @[ crypto_stream/salsa20/xmm6int/salsa20_xmm6int-avx2.c:90:5 ] ] ]
	movl	12(%rcx), %esi
.Ltmp7:
	.loc	4 44 23                         # crypto_stream/salsa20/xmm6int/salsa20_xmm6int-avx2.c:44:23 @[ crypto_stream/salsa20/xmm6int/salsa20_xmm6int-avx2.c:90:5 ]
	movl	%esi, 48(%rsp)
.Ltmp8:
	#DEBUG_VALUE: load32_le:w <- undef
	#DEBUG_VALUE: load32_le:src <- undef
	#DEBUG_VALUE: memcpy:__dest <- undef
	#DEBUG_VALUE: memcpy:__src <- undef
	#DEBUG_VALUE: memcpy:__len <- 4
	#DEBUG_VALUE: stream_avx2:ctx <- [DW_OP_LLVM_fragment 224 32] undef
	#DEBUG_VALUE: stream_avx2:ctx <- [DW_OP_plus_uconst 24, DW_OP_deref, DW_OP_LLVM_fragment 192 32] $rsp
	#DEBUG_VALUE: stream_avx2:ctx <- [DW_OP_plus_uconst 32, DW_OP_deref, DW_OP_LLVM_fragment 256 256] $rsp
	#DEBUG_VALUE: load32_le:w <- undef
	#DEBUG_VALUE: memcpy:__dest <- undef
	#DEBUG_VALUE: memcpy:__len <- 4
	#DEBUG_VALUE: stream_avx2:ctx <- [DW_OP_LLVM_fragment 128 32] undef
	#DEBUG_VALUE: stream_avx2:ctx <- [DW_OP_deref, DW_OP_LLVM_fragment 0 128] $rsp
	#DEBUG_VALUE: load32_le:w <- undef
	#DEBUG_VALUE: memcpy:__dest <- undef
	#DEBUG_VALUE: memcpy:__len <- 4
	#DEBUG_VALUE: load32_le:src <- [DW_OP_plus_uconst 24, DW_OP_stack_value] $rcx
	#DEBUG_VALUE: memcpy:__src <- [DW_OP_plus_uconst 24, DW_OP_stack_value] $rcx
	.loc	8 29 10                         # /usr/include/x86_64-linux-gnu/bits/string_fortified.h:29:10 @[ ./include/sodium/private/common.h:106:5 @[ crypto_stream/salsa20/xmm6int/salsa20_xmm6int-avx2.c:47:26 @[ crypto_stream/salsa20/xmm6int/salsa20_xmm6int-avx2.c:90:5 ] ] ]
	movl	24(%rcx), %esi
.Ltmp9:
	.loc	4 47 24                         # crypto_stream/salsa20/xmm6int/salsa20_xmm6int-avx2.c:47:24 @[ crypto_stream/salsa20/xmm6int/salsa20_xmm6int-avx2.c:90:5 ]
	movl	%esi, 36(%rsp)
.Ltmp10:
	#DEBUG_VALUE: stream_avx2:ctx <- [DW_OP_plus_uconst 32, DW_OP_deref, DW_OP_LLVM_fragment 256 256] $rsp
	#DEBUG_VALUE: load32_le:w <- undef
	#DEBUG_VALUE: memcpy:__dest <- undef
	#DEBUG_VALUE: memcpy:__len <- 4
	#DEBUG_VALUE: load32_le:src <- [DW_OP_plus_uconst 28, DW_OP_stack_value] $rcx
	#DEBUG_VALUE: memcpy:__src <- [DW_OP_plus_uconst 28, DW_OP_stack_value] $rcx
	.loc	8 29 10                         # /usr/include/x86_64-linux-gnu/bits/string_fortified.h:29:10 @[ ./include/sodium/private/common.h:106:5 @[ crypto_stream/salsa20/xmm6int/salsa20_xmm6int-avx2.c:48:26 @[ crypto_stream/salsa20/xmm6int/salsa20_xmm6int-avx2.c:90:5 ] ] ]
	movl	28(%rcx), %esi
.Ltmp11:
	.loc	4 48 24                         # crypto_stream/salsa20/xmm6int/salsa20_xmm6int-avx2.c:48:24 @[ crypto_stream/salsa20/xmm6int/salsa20_xmm6int-avx2.c:90:5 ]
	movl	%esi, 56(%rsp)
.Ltmp12:
	#DEBUG_VALUE: stream_avx2:ctx <- [DW_OP_LLVM_fragment 0 32] 1634760805
	#DEBUG_VALUE: stream_avx2:ctx <- [DW_OP_LLVM_fragment 32 32] 857760878
	#DEBUG_VALUE: stream_avx2:ctx <- [DW_OP_LLVM_fragment 64 32] 2036477234
	#DEBUG_VALUE: stream_avx2:ctx <- [DW_OP_plus_uconst 12, DW_OP_deref, DW_OP_LLVM_fragment 96 32] $rsp
	.loc	4 49 23                         # crypto_stream/salsa20/xmm6int/salsa20_xmm6int-avx2.c:49:23 @[ crypto_stream/salsa20/xmm6int/salsa20_xmm6int-avx2.c:90:5 ]
	vmovaps	.LCPI0_0(%rip), %xmm0           # xmm0 = [1634760805,857760878,2036477234,1797285236]
	vmovaps	%xmm0, (%rsp)
.Ltmp13:
	#DEBUG_VALUE: stream_avx2:ctx <- [DW_OP_plus_uconst 8, DW_OP_deref, DW_OP_LLVM_fragment 64 64] $rsp
	#DEBUG_VALUE: salsa_ivsetup:ctx <- $rsp
	#DEBUG_VALUE: salsa_ivsetup:iv <- $rdx
	#DEBUG_VALUE: salsa_ivsetup:counter <- 0
	#DEBUG_VALUE: load32_le:w <- undef
	#DEBUG_VALUE: memcpy:__dest <- undef
	#DEBUG_VALUE: memcpy:__len <- 4
	.loc	8 29 10                         # /usr/include/x86_64-linux-gnu/bits/string_fortified.h:29:10 @[ ./include/sodium/private/common.h:106:5 @[ crypto_stream/salsa20/xmm6int/salsa20_xmm6int-avx2.c:45:26 @[ crypto_stream/salsa20/xmm6int/salsa20_xmm6int-avx2.c:90:5 ] ] ]
	vmovq	16(%rcx), %xmm0                 # xmm0 = mem[0],zero
.Ltmp14:
	.loc	4 46 24                         # crypto_stream/salsa20/xmm6int/salsa20_xmm6int-avx2.c:46:24 @[ crypto_stream/salsa20/xmm6int/salsa20_xmm6int-avx2.c:90:5 ]
	vpshufd	$37, %xmm0, %xmm0               # xmm0 = xmm0[1,1,2,0]
	vpinsrd	$1, %eax, %xmm0, %xmm0
	vpinsrd	$2, (%rdx), %xmm0, %xmm0
	vmovdqa	%xmm0, 16(%rsp)
.Ltmp15:
	#DEBUG_VALUE: stream_avx2:ctx <- [DW_OP_LLVM_fragment 192 32] undef
	#DEBUG_VALUE: stream_avx2:ctx <- [DW_OP_plus_uconst 28, DW_OP_deref, DW_OP_LLVM_fragment 224 288] $rsp
	#DEBUG_VALUE: load32_le:w <- undef
	#DEBUG_VALUE: memcpy:__dest <- undef
	#DEBUG_VALUE: memcpy:__len <- 4
	#DEBUG_VALUE: load32_le:src <- [DW_OP_plus_uconst 4, DW_OP_stack_value] $rdx
	#DEBUG_VALUE: memcpy:__src <- [DW_OP_plus_uconst 4, DW_OP_stack_value] $rdx
	.loc	8 29 10                         # /usr/include/x86_64-linux-gnu/bits/string_fortified.h:29:10 @[ ./include/sodium/private/common.h:106:5 @[ crypto_stream/salsa20/xmm6int/salsa20_xmm6int-avx2.c:59:25 @[ crypto_stream/salsa20/xmm6int/salsa20_xmm6int-avx2.c:91:5 ] ] ]
	movl	4(%rdx), %eax
.Ltmp16:
	.loc	4 59 23                         # crypto_stream/salsa20/xmm6int/salsa20_xmm6int-avx2.c:59:23 @[ crypto_stream/salsa20/xmm6int/salsa20_xmm6int-avx2.c:91:5 ]
	movl	%eax, 44(%rsp)
	.loc	4 60 23                         # crypto_stream/salsa20/xmm6int/salsa20_xmm6int-avx2.c:60:23 @[ crypto_stream/salsa20/xmm6int/salsa20_xmm6int-avx2.c:91:5 ]
	movl	$0, 32(%rsp)
	.loc	4 61 23                         # crypto_stream/salsa20/xmm6int/salsa20_xmm6int-avx2.c:61:23 @[ crypto_stream/salsa20/xmm6int/salsa20_xmm6int-avx2.c:91:5 ]
	movl	$0, 52(%rsp)
.Ltmp17:
	#DEBUG_VALUE: memset:__dest <- $rdi
	#DEBUG_VALUE: memset:__ch <- 0
	#DEBUG_VALUE: memset:__len <- $rbx
	.loc	4 0 23 is_stmt 0                # crypto_stream/salsa20/xmm6int/salsa20_xmm6int-avx2.c:0:23
	movq	%rdi, %r14
.Ltmp18:
	.loc	8 59 10 is_stmt 1               # /usr/include/x86_64-linux-gnu/bits/string_fortified.h:59:10 @[ crypto_stream/salsa20/xmm6int/salsa20_xmm6int-avx2.c:92:5 ]
	xorl	%esi, %esi
	movq	%rbx, %rdx
.Ltmp19:
	#DEBUG_VALUE: stream_avx2:n <- [DW_OP_LLVM_entry_value 1] $rdx
	callq	memset@PLT
.Ltmp20:
	#DEBUG_VALUE: stream_avx2:k <- [DW_OP_LLVM_entry_value 1] $rcx
	#DEBUG_VALUE: memset:__dest <- $r14
	#DEBUG_VALUE: stream_avx2:c <- $r14
	.loc	8 0 10 is_stmt 0                # /usr/include/x86_64-linux-gnu/bits/string_fortified.h:0:10
	movq	%rsp, %r15
.Ltmp21:
	.loc	4 93 5 is_stmt 1                # crypto_stream/salsa20/xmm6int/salsa20_xmm6int-avx2.c:93:5
	movq	%r15, %rdi
	movq	%r14, %rsi
	movq	%r14, %rdx
	movq	%rbx, %rcx
	callq	salsa20_encrypt_bytes
.Ltmp22:
	.loc	4 94 5                          # crypto_stream/salsa20/xmm6int/salsa20_xmm6int-avx2.c:94:5
	movl	$64, %esi
	movq	%r15, %rdi
	callq	sodium_memzero@PLT
.Ltmp23:
	.loc	4 0 5 is_stmt 0                 # crypto_stream/salsa20/xmm6int/salsa20_xmm6int-avx2.c:0:5
	addq	$64, %rsp
.Ltmp24:
	#DEBUG_VALUE: salsa_ivsetup:ctx <- $r15
	#DEBUG_VALUE: salsa_keysetup:ctx <- $r15
	#DEBUG_VALUE: stream_avx2:ctx <- [DW_OP_plus_uconst 28, DW_OP_deref, DW_OP_LLVM_fragment 224 288] $r15
	#DEBUG_VALUE: stream_avx2:ctx <- [DW_OP_plus_uconst 8, DW_OP_deref, DW_OP_LLVM_fragment 64 64] $r15
	#DEBUG_VALUE: stream_avx2:ctx <- [DW_OP_plus_uconst 12, DW_OP_deref, DW_OP_LLVM_fragment 96 32] $r15
	#DEBUG_VALUE: stream_avx2:ctx <- [DW_OP_deref, DW_OP_LLVM_fragment 0 128] $r15
	#DEBUG_VALUE: stream_avx2:ctx <- [DW_OP_plus_uconst 32, DW_OP_deref, DW_OP_LLVM_fragment 256 256] $r15
	#DEBUG_VALUE: stream_avx2:ctx <- [DW_OP_plus_uconst 24, DW_OP_deref, DW_OP_LLVM_fragment 192 320] $r15
	#DEBUG_VALUE: stream_avx2:ctx <- [DW_OP_deref, DW_OP_LLVM_fragment 0 160] $r15
	.cfi_def_cfa_offset 32
	popq	%rbx
.Ltmp25:
	#DEBUG_VALUE: stream_avx2:clen <- [DW_OP_LLVM_entry_value 1] $rsi
	.cfi_def_cfa_offset 24
	popq	%r14
.Ltmp26:
	#DEBUG_VALUE: stream_avx2:c <- [DW_OP_LLVM_entry_value 1] $rdi
	.cfi_def_cfa_offset 16
	popq	%r15
.Ltmp27:
	.cfi_def_cfa_offset 8
	.cfi_restore %rbx
	.cfi_restore %r14
	.cfi_restore %r15
.LBB0_2:
	#DEBUG_VALUE: stream_avx2:c <- [DW_OP_LLVM_entry_value 1] $rdi
	#DEBUG_VALUE: stream_avx2:clen <- [DW_OP_LLVM_entry_value 1] $rsi
	#DEBUG_VALUE: stream_avx2:n <- [DW_OP_LLVM_entry_value 1] $rdx
	#DEBUG_VALUE: stream_avx2:k <- [DW_OP_LLVM_entry_value 1] $rcx
	.loc	4 97 1 is_stmt 1                # crypto_stream/salsa20/xmm6int/salsa20_xmm6int-avx2.c:97:1
	xorl	%eax, %eax
	retq
.Ltmp28:
.Lfunc_end0:
	.size	stream_avx2, .Lfunc_end0-stream_avx2
	.cfi_endproc
	.file	9 "/home/leizhenyuu/opt/Anonymous_Repo" "llvm-project/build/lib/clang/21/include/__stddef_size_t.h"
	.file	10 "./include/sodium/private" "common.h"
	.file	11 "./include/sodium" "utils.h"
                                        # -- End function
	.section	.rodata.cst16,"aM",@progbits,16
	.p2align	4, 0x0                          # -- Begin function stream_avx2_xor_ic
.LCPI1_0:
	.long	1634760805                      # 0x61707865
	.long	857760878                       # 0x3320646e
	.long	2036477234                      # 0x79622d32
	.long	1797285236                      # 0x6b206574
	.text
	.p2align	4
	.type	stream_avx2_xor_ic,@function
stream_avx2_xor_ic:                     # @stream_avx2_xor_ic
.Lfunc_begin1:
	.loc	4 103 0                         # crypto_stream/salsa20/xmm6int/salsa20_xmm6int-avx2.c:103:0
	.cfi_startproc
# %bb.0:
	#DEBUG_VALUE: stream_avx2_xor_ic:c <- $rdi
	#DEBUG_VALUE: stream_avx2_xor_ic:m <- $rsi
	#DEBUG_VALUE: stream_avx2_xor_ic:mlen <- $rdx
	#DEBUG_VALUE: stream_avx2_xor_ic:n <- $rcx
	#DEBUG_VALUE: stream_avx2_xor_ic:ic <- $r8
	#DEBUG_VALUE: stream_avx2_xor_ic:k <- $r9
	movq	%rdx, %rax
.Ltmp29:
	#DEBUG_VALUE: stream_avx2_xor_ic:ctx <- [DW_OP_deref] $rsp
	.loc	4 109 10 prologue_end           # crypto_stream/salsa20/xmm6int/salsa20_xmm6int-avx2.c:109:10
	testq	%rdx, %rdx
	.loc	4 109 9 is_stmt 0               # crypto_stream/salsa20/xmm6int/salsa20_xmm6int-avx2.c:109:9
	je	.LBB1_2
.Ltmp30:
# %bb.1:
	#DEBUG_VALUE: stream_avx2_xor_ic:c <- $rdi
	#DEBUG_VALUE: stream_avx2_xor_ic:m <- $rsi
	#DEBUG_VALUE: stream_avx2_xor_ic:mlen <- $rdx
	#DEBUG_VALUE: stream_avx2_xor_ic:n <- $rcx
	#DEBUG_VALUE: stream_avx2_xor_ic:ic <- $r8
	#DEBUG_VALUE: stream_avx2_xor_ic:k <- $r9
	#DEBUG_VALUE: stream_avx2_xor_ic:ctx <- [DW_OP_deref] $rsp
	pushq	%rbx
	.cfi_def_cfa_offset 16
	subq	$64, %rsp
	.cfi_def_cfa_offset 80
	.cfi_offset %rbx, -16
	movq	%rdi, %rdx
.Ltmp31:
	#DEBUG_VALUE: stream_avx2_xor_ic:mlen <- $rax
	.loc	4 112 30 is_stmt 1              # crypto_stream/salsa20/xmm6int/salsa20_xmm6int-avx2.c:112:30
	movq	%r8, %rdi
.Ltmp32:
	#DEBUG_VALUE: stream_avx2_xor_ic:c <- $rdx
	#DEBUG_VALUE: stream_avx2_xor_ic:ic_high <- undef
	#DEBUG_VALUE: stream_avx2_xor_ic:ic_low <- $r8d
	#DEBUG_VALUE: stream_avx2_xor_ic:ic_bytes <- [DW_OP_LLVM_fragment 0 32] $r8d
	#DEBUG_VALUE: memcpy:__dest <- undef
	#DEBUG_VALUE: memcpy:__src <- undef
	#DEBUG_VALUE: memcpy:__len <- 4
	#DEBUG_VALUE: memcpy:__dest <- undef
	#DEBUG_VALUE: memcpy:__src <- undef
	#DEBUG_VALUE: memcpy:__len <- 4
	#DEBUG_VALUE: stream_avx2_xor_ic:ic_bytes <- [DW_OP_LLVM_fragment 32 32] undef
	#DEBUG_VALUE: salsa_keysetup:ctx <- $rsp
	#DEBUG_VALUE: salsa_keysetup:k <- $r9
	#DEBUG_VALUE: load32_le:w <- undef
	#DEBUG_VALUE: load32_le:src <- $r9
	#DEBUG_VALUE: memcpy:__dest <- undef
	#DEBUG_VALUE: memcpy:__src <- $r9
	#DEBUG_VALUE: memcpy:__len <- 4
	.loc	8 29 10                         # /usr/include/x86_64-linux-gnu/bits/string_fortified.h:29:10 @[ ./include/sodium/private/common.h:106:5 @[ crypto_stream/salsa20/xmm6int/salsa20_xmm6int-avx2.c:41:25 @[ crypto_stream/salsa20/xmm6int/salsa20_xmm6int-avx2.c:116:5 ] ] ]
	movl	(%r9), %r10d
.Ltmp33:
	#DEBUG_VALUE: stream_avx2_xor_ic:ctx <- [DW_OP_LLVM_fragment 160 32] $r10d
	#DEBUG_VALUE: stream_avx2_xor_ic:ctx <- [DW_OP_deref, DW_OP_LLVM_fragment 0 160] $rsp
	#DEBUG_VALUE: stream_avx2_xor_ic:ctx <- [DW_OP_plus_uconst 24, DW_OP_deref, DW_OP_LLVM_fragment 192 320] $rsp
	#DEBUG_VALUE: load32_le:w <- undef
	#DEBUG_VALUE: memcpy:__dest <- undef
	#DEBUG_VALUE: memcpy:__len <- 4
	#DEBUG_VALUE: load32_le:src <- [DW_OP_plus_uconst 4, DW_OP_stack_value] $r9
	#DEBUG_VALUE: memcpy:__src <- [DW_OP_plus_uconst 4, DW_OP_stack_value] $r9
	.loc	8 29 10 is_stmt 0               # /usr/include/x86_64-linux-gnu/bits/string_fortified.h:29:10 @[ ./include/sodium/private/common.h:106:5 @[ crypto_stream/salsa20/xmm6int/salsa20_xmm6int-avx2.c:42:25 @[ crypto_stream/salsa20/xmm6int/salsa20_xmm6int-avx2.c:116:5 ] ] ]
	movl	4(%r9), %r11d
.Ltmp34:
	.loc	4 42 23 is_stmt 1               # crypto_stream/salsa20/xmm6int/salsa20_xmm6int-avx2.c:42:23 @[ crypto_stream/salsa20/xmm6int/salsa20_xmm6int-avx2.c:116:5 ]
	movl	%r11d, 40(%rsp)
.Ltmp35:
	#DEBUG_VALUE: load32_le:w <- undef
	#DEBUG_VALUE: memcpy:__dest <- undef
	#DEBUG_VALUE: memcpy:__len <- 4
	#DEBUG_VALUE: load32_le:src <- [DW_OP_plus_uconst 8, DW_OP_stack_value] $r9
	#DEBUG_VALUE: memcpy:__src <- [DW_OP_plus_uconst 8, DW_OP_stack_value] $r9
	.loc	8 29 10                         # /usr/include/x86_64-linux-gnu/bits/string_fortified.h:29:10 @[ ./include/sodium/private/common.h:106:5 @[ crypto_stream/salsa20/xmm6int/salsa20_xmm6int-avx2.c:43:25 @[ crypto_stream/salsa20/xmm6int/salsa20_xmm6int-avx2.c:116:5 ] ] ]
	movl	8(%r9), %r11d
.Ltmp36:
	.loc	4 43 23                         # crypto_stream/salsa20/xmm6int/salsa20_xmm6int-avx2.c:43:23 @[ crypto_stream/salsa20/xmm6int/salsa20_xmm6int-avx2.c:116:5 ]
	movl	%r11d, 60(%rsp)
.Ltmp37:
	#DEBUG_VALUE: load32_le:w <- undef
	#DEBUG_VALUE: memcpy:__dest <- undef
	#DEBUG_VALUE: memcpy:__len <- 4
	#DEBUG_VALUE: load32_le:src <- [DW_OP_plus_uconst 12, DW_OP_stack_value] $r9
	#DEBUG_VALUE: memcpy:__src <- [DW_OP_plus_uconst 12, DW_OP_stack_value] $r9
	.loc	8 29 10                         # /usr/include/x86_64-linux-gnu/bits/string_fortified.h:29:10 @[ ./include/sodium/private/common.h:106:5 @[ crypto_stream/salsa20/xmm6int/salsa20_xmm6int-avx2.c:44:25 @[ crypto_stream/salsa20/xmm6int/salsa20_xmm6int-avx2.c:116:5 ] ] ]
	movl	12(%r9), %r11d
.Ltmp38:
	.loc	4 44 23                         # crypto_stream/salsa20/xmm6int/salsa20_xmm6int-avx2.c:44:23 @[ crypto_stream/salsa20/xmm6int/salsa20_xmm6int-avx2.c:116:5 ]
	movl	%r11d, 48(%rsp)
.Ltmp39:
	#DEBUG_VALUE: load32_le:w <- undef
	#DEBUG_VALUE: load32_le:src <- undef
	#DEBUG_VALUE: memcpy:__dest <- undef
	#DEBUG_VALUE: memcpy:__src <- undef
	#DEBUG_VALUE: memcpy:__len <- 4
	#DEBUG_VALUE: stream_avx2_xor_ic:ctx <- [DW_OP_LLVM_fragment 224 32] undef
	#DEBUG_VALUE: stream_avx2_xor_ic:ctx <- [DW_OP_plus_uconst 24, DW_OP_deref, DW_OP_LLVM_fragment 192 32] $rsp
	#DEBUG_VALUE: stream_avx2_xor_ic:ctx <- [DW_OP_plus_uconst 32, DW_OP_deref, DW_OP_LLVM_fragment 256 256] $rsp
	#DEBUG_VALUE: load32_le:w <- undef
	#DEBUG_VALUE: memcpy:__dest <- undef
	#DEBUG_VALUE: memcpy:__len <- 4
	#DEBUG_VALUE: stream_avx2_xor_ic:ctx <- [DW_OP_LLVM_fragment 128 32] undef
	#DEBUG_VALUE: stream_avx2_xor_ic:ctx <- [DW_OP_deref, DW_OP_LLVM_fragment 0 128] $rsp
	#DEBUG_VALUE: load32_le:w <- undef
	#DEBUG_VALUE: memcpy:__dest <- undef
	#DEBUG_VALUE: memcpy:__len <- 4
	#DEBUG_VALUE: load32_le:src <- [DW_OP_plus_uconst 24, DW_OP_stack_value] $r9
	#DEBUG_VALUE: memcpy:__src <- [DW_OP_plus_uconst 24, DW_OP_stack_value] $r9
	.loc	8 29 10                         # /usr/include/x86_64-linux-gnu/bits/string_fortified.h:29:10 @[ ./include/sodium/private/common.h:106:5 @[ crypto_stream/salsa20/xmm6int/salsa20_xmm6int-avx2.c:47:26 @[ crypto_stream/salsa20/xmm6int/salsa20_xmm6int-avx2.c:116:5 ] ] ]
	movl	24(%r9), %r11d
.Ltmp40:
	.loc	4 47 24                         # crypto_stream/salsa20/xmm6int/salsa20_xmm6int-avx2.c:47:24 @[ crypto_stream/salsa20/xmm6int/salsa20_xmm6int-avx2.c:116:5 ]
	movl	%r11d, 36(%rsp)
.Ltmp41:
	#DEBUG_VALUE: stream_avx2_xor_ic:ctx <- [DW_OP_plus_uconst 32, DW_OP_deref, DW_OP_LLVM_fragment 256 256] $rsp
	#DEBUG_VALUE: load32_le:w <- undef
	#DEBUG_VALUE: memcpy:__dest <- undef
	#DEBUG_VALUE: memcpy:__len <- 4
	#DEBUG_VALUE: load32_le:src <- [DW_OP_plus_uconst 28, DW_OP_stack_value] $r9
	#DEBUG_VALUE: memcpy:__src <- [DW_OP_plus_uconst 28, DW_OP_stack_value] $r9
	.loc	8 29 10                         # /usr/include/x86_64-linux-gnu/bits/string_fortified.h:29:10 @[ ./include/sodium/private/common.h:106:5 @[ crypto_stream/salsa20/xmm6int/salsa20_xmm6int-avx2.c:48:26 @[ crypto_stream/salsa20/xmm6int/salsa20_xmm6int-avx2.c:116:5 ] ] ]
	movl	28(%r9), %r11d
.Ltmp42:
	.loc	4 48 24                         # crypto_stream/salsa20/xmm6int/salsa20_xmm6int-avx2.c:48:24 @[ crypto_stream/salsa20/xmm6int/salsa20_xmm6int-avx2.c:116:5 ]
	movl	%r11d, 56(%rsp)
.Ltmp43:
	#DEBUG_VALUE: stream_avx2_xor_ic:ctx <- [DW_OP_LLVM_fragment 0 32] 1634760805
	#DEBUG_VALUE: stream_avx2_xor_ic:ctx <- [DW_OP_LLVM_fragment 32 32] 857760878
	#DEBUG_VALUE: stream_avx2_xor_ic:ctx <- [DW_OP_LLVM_fragment 64 32] 2036477234
	#DEBUG_VALUE: stream_avx2_xor_ic:ctx <- [DW_OP_plus_uconst 12, DW_OP_deref, DW_OP_LLVM_fragment 96 32] $rsp
	.loc	4 49 23                         # crypto_stream/salsa20/xmm6int/salsa20_xmm6int-avx2.c:49:23 @[ crypto_stream/salsa20/xmm6int/salsa20_xmm6int-avx2.c:116:5 ]
	vmovaps	.LCPI1_0(%rip), %xmm0           # xmm0 = [1634760805,857760878,2036477234,1797285236]
	vmovaps	%xmm0, (%rsp)
.Ltmp44:
	#DEBUG_VALUE: stream_avx2_xor_ic:ctx <- [DW_OP_plus_uconst 8, DW_OP_deref, DW_OP_LLVM_fragment 64 64] $rsp
	#DEBUG_VALUE: salsa_ivsetup:ctx <- $rsp
	#DEBUG_VALUE: salsa_ivsetup:iv <- $rcx
	#DEBUG_VALUE: salsa_ivsetup:counter <- undef
	#DEBUG_VALUE: load32_le:w <- undef
	#DEBUG_VALUE: memcpy:__dest <- undef
	#DEBUG_VALUE: memcpy:__len <- 4
	.loc	8 29 10                         # /usr/include/x86_64-linux-gnu/bits/string_fortified.h:29:10 @[ ./include/sodium/private/common.h:106:5 @[ crypto_stream/salsa20/xmm6int/salsa20_xmm6int-avx2.c:45:26 @[ crypto_stream/salsa20/xmm6int/salsa20_xmm6int-avx2.c:116:5 ] ] ]
	vmovq	16(%r9), %xmm0                  # xmm0 = mem[0],zero
.Ltmp45:
	.loc	4 46 24                         # crypto_stream/salsa20/xmm6int/salsa20_xmm6int-avx2.c:46:24 @[ crypto_stream/salsa20/xmm6int/salsa20_xmm6int-avx2.c:116:5 ]
	vpshufd	$37, %xmm0, %xmm0               # xmm0 = xmm0[1,1,2,0]
	vpinsrd	$1, %r10d, %xmm0, %xmm0
.Ltmp46:
	.loc	4 112 30                        # crypto_stream/salsa20/xmm6int/salsa20_xmm6int-avx2.c:112:30
	shrq	$32, %rdi
.Ltmp47:
	#DEBUG_VALUE: stream_avx2_xor_ic:ic_bytes <- [DW_OP_LLVM_fragment 32 32] $edi
	#DEBUG_VALUE: stream_avx2_xor_ic:ic_high <- $edi
	.loc	4 46 24                         # crypto_stream/salsa20/xmm6int/salsa20_xmm6int-avx2.c:46:24 @[ crypto_stream/salsa20/xmm6int/salsa20_xmm6int-avx2.c:116:5 ]
	vpinsrd	$2, (%rcx), %xmm0, %xmm0
	vmovdqa	%xmm0, 16(%rsp)
.Ltmp48:
	#DEBUG_VALUE: stream_avx2_xor_ic:ctx <- [DW_OP_LLVM_fragment 192 32] undef
	#DEBUG_VALUE: stream_avx2_xor_ic:ctx <- [DW_OP_plus_uconst 28, DW_OP_deref, DW_OP_LLVM_fragment 224 288] $rsp
	#DEBUG_VALUE: load32_le:w <- undef
	#DEBUG_VALUE: memcpy:__dest <- undef
	#DEBUG_VALUE: memcpy:__len <- 4
	#DEBUG_VALUE: load32_le:src <- [DW_OP_plus_uconst 4, DW_OP_stack_value] $rcx
	#DEBUG_VALUE: memcpy:__src <- [DW_OP_plus_uconst 4, DW_OP_stack_value] $rcx
	.loc	8 29 10                         # /usr/include/x86_64-linux-gnu/bits/string_fortified.h:29:10 @[ ./include/sodium/private/common.h:106:5 @[ crypto_stream/salsa20/xmm6int/salsa20_xmm6int-avx2.c:59:25 @[ crypto_stream/salsa20/xmm6int/salsa20_xmm6int-avx2.c:117:5 ] ] ]
	movl	4(%rcx), %ecx
.Ltmp49:
	#DEBUG_VALUE: stream_avx2_xor_ic:n <- [DW_OP_LLVM_entry_value 1] $rcx
	.loc	4 59 23                         # crypto_stream/salsa20/xmm6int/salsa20_xmm6int-avx2.c:59:23 @[ crypto_stream/salsa20/xmm6int/salsa20_xmm6int-avx2.c:117:5 ]
	movl	%ecx, 44(%rsp)
.Ltmp50:
	#DEBUG_VALUE: load32_le:w <- undef
	#DEBUG_VALUE: load32_le:src <- undef
	#DEBUG_VALUE: memcpy:__dest <- undef
	#DEBUG_VALUE: memcpy:__src <- undef
	#DEBUG_VALUE: memcpy:__len <- 4
	.loc	4 60 23                         # crypto_stream/salsa20/xmm6int/salsa20_xmm6int-avx2.c:60:23 @[ crypto_stream/salsa20/xmm6int/salsa20_xmm6int-avx2.c:117:5 ]
	movl	%r8d, 32(%rsp)
.Ltmp51:
	#DEBUG_VALUE: load32_le:w <- undef
	#DEBUG_VALUE: load32_le:src <- undef
	#DEBUG_VALUE: memcpy:__dest <- undef
	#DEBUG_VALUE: memcpy:__src <- undef
	#DEBUG_VALUE: memcpy:__len <- 4
	.loc	4 61 23                         # crypto_stream/salsa20/xmm6int/salsa20_xmm6int-avx2.c:61:23 @[ crypto_stream/salsa20/xmm6int/salsa20_xmm6int-avx2.c:117:5 ]
	movl	%edi, 52(%rsp)
	movq	%rsp, %rbx
.Ltmp52:
	.loc	4 118 5                         # crypto_stream/salsa20/xmm6int/salsa20_xmm6int-avx2.c:118:5
	movq	%rbx, %rdi
.Ltmp53:
	movq	%rax, %rcx
	callq	salsa20_encrypt_bytes
.Ltmp54:
	#DEBUG_VALUE: stream_avx2_xor_ic:mlen <- [DW_OP_LLVM_entry_value 1] $rdx
	#DEBUG_VALUE: stream_avx2_xor_ic:c <- [DW_OP_LLVM_entry_value 1] $rdi
	#DEBUG_VALUE: stream_avx2_xor_ic:m <- [DW_OP_LLVM_entry_value 1] $rsi
	#DEBUG_VALUE: stream_avx2_xor_ic:ic <- [DW_OP_LLVM_entry_value 1] $r8
	#DEBUG_VALUE: stream_avx2_xor_ic:k <- [DW_OP_LLVM_entry_value 1] $r9
	.loc	4 119 5                         # crypto_stream/salsa20/xmm6int/salsa20_xmm6int-avx2.c:119:5
	movl	$64, %esi
	movq	%rbx, %rdi
	callq	sodium_memzero@PLT
.Ltmp55:
	.loc	4 0 5 is_stmt 0                 # crypto_stream/salsa20/xmm6int/salsa20_xmm6int-avx2.c:0:5
	addq	$64, %rsp
.Ltmp56:
	#DEBUG_VALUE: salsa_ivsetup:ctx <- $rbx
	#DEBUG_VALUE: salsa_keysetup:ctx <- $rbx
	#DEBUG_VALUE: stream_avx2_xor_ic:ctx <- [DW_OP_plus_uconst 28, DW_OP_deref, DW_OP_LLVM_fragment 224 288] $rbx
	#DEBUG_VALUE: stream_avx2_xor_ic:ctx <- [DW_OP_plus_uconst 8, DW_OP_deref, DW_OP_LLVM_fragment 64 64] $rbx
	#DEBUG_VALUE: stream_avx2_xor_ic:ctx <- [DW_OP_plus_uconst 12, DW_OP_deref, DW_OP_LLVM_fragment 96 32] $rbx
	#DEBUG_VALUE: stream_avx2_xor_ic:ctx <- [DW_OP_deref, DW_OP_LLVM_fragment 0 128] $rbx
	#DEBUG_VALUE: stream_avx2_xor_ic:ctx <- [DW_OP_plus_uconst 32, DW_OP_deref, DW_OP_LLVM_fragment 256 256] $rbx
	#DEBUG_VALUE: stream_avx2_xor_ic:ctx <- [DW_OP_plus_uconst 24, DW_OP_deref, DW_OP_LLVM_fragment 192 320] $rbx
	#DEBUG_VALUE: stream_avx2_xor_ic:ctx <- [DW_OP_deref, DW_OP_LLVM_fragment 0 160] $rbx
	.cfi_def_cfa_offset 16
	popq	%rbx
.Ltmp57:
	.cfi_def_cfa_offset 8
	.cfi_restore %rbx
.LBB1_2:
	#DEBUG_VALUE: stream_avx2_xor_ic:c <- [DW_OP_LLVM_entry_value 1] $rdi
	#DEBUG_VALUE: stream_avx2_xor_ic:m <- [DW_OP_LLVM_entry_value 1] $rsi
	#DEBUG_VALUE: stream_avx2_xor_ic:mlen <- [DW_OP_LLVM_entry_value 1] $rdx
	#DEBUG_VALUE: stream_avx2_xor_ic:n <- [DW_OP_LLVM_entry_value 1] $rcx
	#DEBUG_VALUE: stream_avx2_xor_ic:ic <- [DW_OP_LLVM_entry_value 1] $r8
	#DEBUG_VALUE: stream_avx2_xor_ic:k <- [DW_OP_LLVM_entry_value 1] $r9
	.loc	4 122 1 is_stmt 1               # crypto_stream/salsa20/xmm6int/salsa20_xmm6int-avx2.c:122:1
	xorl	%eax, %eax
	retq
.Ltmp58:
.Lfunc_end1:
	.size	stream_avx2_xor_ic, .Lfunc_end1-stream_avx2_xor_ic
	.cfi_endproc
                                        # -- End function
	.section	.rodata.cst32,"aM",@progbits,32
	.p2align	5, 0x0                          # -- Begin function salsa20_encrypt_bytes
.LCPI2_0:
	.quad	0                               # 0x0
	.quad	1                               # 0x1
	.quad	2                               # 0x2
	.quad	3                               # 0x3
.LCPI2_1:
	.quad	4                               # 0x4
	.quad	5                               # 0x5
	.quad	6                               # 0x6
	.quad	7                               # 0x7
	.section	.rodata.cst16,"aM",@progbits,16
	.p2align	4, 0x0
.LCPI2_2:
	.byte	0                               # 0x0
	.byte	0                               # 0x0
	.byte	0                               # 0x0
	.byte	0                               # 0x0
	.byte	0                               # 0x0
	.byte	0                               # 0x0
	.byte	0                               # 0x0
	.byte	0                               # 0x0
	.byte	1                               # 0x1
	.byte	0                               # 0x0
	.byte	0                               # 0x0
	.byte	0                               # 0x0
	.byte	0                               # 0x0
	.byte	0                               # 0x0
	.byte	0                               # 0x0
	.byte	0                               # 0x0
.LCPI2_3:
	.quad	2                               # 0x2
	.quad	3                               # 0x3
	.text
	.p2align	4
	.type	salsa20_encrypt_bytes,@function
salsa20_encrypt_bytes:                  # @salsa20_encrypt_bytes
.Lfunc_begin2:
	.loc	4 67 0                          # crypto_stream/salsa20/xmm6int/salsa20_xmm6int-avx2.c:67:0
	.cfi_startproc
# %bb.0:
	#DEBUG_VALUE: salsa20_encrypt_bytes:ctx <- $rdi
	#DEBUG_VALUE: salsa20_encrypt_bytes:m <- $rsi
	#DEBUG_VALUE: salsa20_encrypt_bytes:c <- $rdx
	#DEBUG_VALUE: salsa20_encrypt_bytes:bytes <- $rcx
	subq	$808, %rsp                      # imm = 0x328
	.cfi_def_cfa_offset 816
	movq	%fs:40, %rax
	movq	%rax, 800(%rsp)
	#DEBUG_VALUE: partialblock <- [DW_OP_plus_uconst 736, DW_OP_deref] $rsp
.Ltmp59:
	#DEBUG_VALUE: salsa20_encrypt_bytes:x <- undef
	.file	12 "crypto_stream/salsa20/xmm6int" "u8.h"
	.loc	12 1 11 prologue_end            # crypto_stream/salsa20/xmm6int/u8.h:1:11
	cmpq	$512, %rcx                      # imm = 0x200
	jb	.LBB2_5
.Ltmp60:
# %bb.1:
	#DEBUG_VALUE: salsa20_encrypt_bytes:ctx <- $rdi
	#DEBUG_VALUE: salsa20_encrypt_bytes:m <- $rsi
	#DEBUG_VALUE: salsa20_encrypt_bytes:c <- $rdx
	#DEBUG_VALUE: salsa20_encrypt_bytes:bytes <- $rcx
	.loc	12 6 18                         # crypto_stream/salsa20/xmm6int/u8.h:6:18
	vpbroadcastd	(%rdi), %ymm8
.Ltmp61:
	#DEBUG_VALUE: z0 <- $ymm8
	.loc	12 7 18                         # crypto_stream/salsa20/xmm6int/u8.h:7:18
	vpbroadcastd	4(%rdi), %ymm11
.Ltmp62:
	#DEBUG_VALUE: z5 <- $ymm11
	.loc	12 8 19                         # crypto_stream/salsa20/xmm6int/u8.h:8:19
	vpbroadcastd	8(%rdi), %ymm12
.Ltmp63:
	#DEBUG_VALUE: z10 <- $ymm12
	.loc	12 9 19                         # crypto_stream/salsa20/xmm6int/u8.h:9:19
	vpbroadcastd	12(%rdi), %ymm10
.Ltmp64:
	#DEBUG_VALUE: z15 <- $ymm10
	.loc	12 10 19                        # crypto_stream/salsa20/xmm6int/u8.h:10:19
	vpbroadcastd	16(%rdi), %ymm9
.Ltmp65:
	#DEBUG_VALUE: z12 <- $ymm9
	.loc	12 11 18                        # crypto_stream/salsa20/xmm6int/u8.h:11:18
	vpbroadcastd	20(%rdi), %ymm5
.Ltmp66:
	#DEBUG_VALUE: z1 <- $ymm5
	.loc	12 12 18                        # crypto_stream/salsa20/xmm6int/u8.h:12:18
	vpbroadcastd	24(%rdi), %ymm6
.Ltmp67:
	#DEBUG_VALUE: z6 <- $ymm6
	.loc	12 13 19                        # crypto_stream/salsa20/xmm6int/u8.h:13:19
	vpbroadcastd	28(%rdi), %ymm15
.Ltmp68:
	#DEBUG_VALUE: z11 <- $ymm15
	.loc	12 15 19                        # crypto_stream/salsa20/xmm6int/u8.h:15:19
	vpbroadcastd	36(%rdi), %ymm4
.Ltmp69:
	#DEBUG_VALUE: z13 <- $ymm4
	.loc	12 16 18                        # crypto_stream/salsa20/xmm6int/u8.h:16:18
	vbroadcastss	40(%rdi), %ymm0
.Ltmp70:
	#DEBUG_VALUE: z2 <- $ymm0
	.loc	12 0 18 is_stmt 0               # crypto_stream/salsa20/xmm6int/u8.h:0:18
	vmovups	%ymm0, 128(%rsp)                # 32-byte Spill
.Ltmp71:
	#DEBUG_VALUE: z2 <- [DW_OP_plus_uconst 128, DW_OP_deref] $rsp
	.loc	12 17 18 is_stmt 1              # crypto_stream/salsa20/xmm6int/u8.h:17:18
	vbroadcastss	44(%rdi), %ymm0
.Ltmp72:
	#DEBUG_VALUE: z7 <- $ymm0
	.loc	12 0 18 is_stmt 0               # crypto_stream/salsa20/xmm6int/u8.h:0:18
	vmovups	%ymm0, 384(%rsp)                # 32-byte Spill
.Ltmp73:
	#DEBUG_VALUE: z7 <- [DW_OP_plus_uconst 384, DW_OP_deref] $rsp
	.loc	12 18 18 is_stmt 1              # crypto_stream/salsa20/xmm6int/u8.h:18:18
	vbroadcastss	48(%rdi), %ymm0
.Ltmp74:
	#DEBUG_VALUE: z4 <- $ymm0
	.loc	12 0 18 is_stmt 0               # crypto_stream/salsa20/xmm6int/u8.h:0:18
	vmovups	%ymm0, 352(%rsp)                # 32-byte Spill
.Ltmp75:
	#DEBUG_VALUE: z4 <- [DW_OP_plus_uconst 352, DW_OP_deref] $rsp
	.loc	12 20 19 is_stmt 1              # crypto_stream/salsa20/xmm6int/u8.h:20:19
	vpbroadcastd	56(%rdi), %ymm13
.Ltmp76:
	#DEBUG_VALUE: z14 <- $ymm13
	.loc	12 21 18                        # crypto_stream/salsa20/xmm6int/u8.h:21:18
	vpbroadcastd	60(%rdi), %ymm0
.Ltmp77:
	#DEBUG_VALUE: orig5 <- $ymm11
	#DEBUG_VALUE: orig10 <- $ymm12
	#DEBUG_VALUE: orig15 <- $ymm10
	#DEBUG_VALUE: orig12 <- $ymm9
	#DEBUG_VALUE: orig1 <- $ymm5
	#DEBUG_VALUE: orig6 <- $ymm6
	#DEBUG_VALUE: orig11 <- $ymm15
	#DEBUG_VALUE: orig13 <- $ymm4
	#DEBUG_VALUE: orig2 <- [DW_OP_plus_uconst 128, DW_OP_deref] $rsp
	#DEBUG_VALUE: orig7 <- [DW_OP_plus_uconst 384, DW_OP_deref] $rsp
	#DEBUG_VALUE: orig4 <- [DW_OP_plus_uconst 352, DW_OP_deref] $rsp
	#DEBUG_VALUE: orig14 <- $ymm13
	#DEBUG_VALUE: z3 <- $ymm0
	#DEBUG_VALUE: orig3 <- $ymm0
	#DEBUG_VALUE: orig0 <- $ymm8
	#DEBUG_VALUE: salsa20_encrypt_bytes:m <- undef
	#DEBUG_VALUE: salsa20_encrypt_bytes:c <- undef
	#DEBUG_VALUE: salsa20_encrypt_bytes:bytes <- undef
	.loc	12 0 18 is_stmt 0               # crypto_stream/salsa20/xmm6int/u8.h:0:18
	vmovdqu	%ymm0, 320(%rsp)                # 32-byte Spill
.Ltmp78:
	#DEBUG_VALUE: orig3 <- [DW_OP_plus_uconst 320, DW_OP_deref] $rsp
	#DEBUG_VALUE: z3 <- [DW_OP_plus_uconst 320, DW_OP_deref] $rsp
	vmovdqu	%ymm8, 256(%rsp)                # 32-byte Spill
.Ltmp79:
	#DEBUG_VALUE: orig0 <- [DW_OP_plus_uconst 256, DW_OP_deref] $rsp
	#DEBUG_VALUE: z0 <- [DW_OP_plus_uconst 256, DW_OP_deref] $rsp
	vmovdqu	%ymm11, 224(%rsp)               # 32-byte Spill
.Ltmp80:
	#DEBUG_VALUE: orig5 <- [DW_OP_plus_uconst 224, DW_OP_deref] $rsp
	#DEBUG_VALUE: z5 <- [DW_OP_plus_uconst 224, DW_OP_deref] $rsp
	vmovdqu	%ymm12, 576(%rsp)               # 32-byte Spill
.Ltmp81:
	#DEBUG_VALUE: orig10 <- [DW_OP_plus_uconst 576, DW_OP_deref] $rsp
	#DEBUG_VALUE: z10 <- [DW_OP_plus_uconst 576, DW_OP_deref] $rsp
	vmovdqu	%ymm10, 544(%rsp)               # 32-byte Spill
.Ltmp82:
	#DEBUG_VALUE: orig15 <- [DW_OP_plus_uconst 544, DW_OP_deref] $rsp
	#DEBUG_VALUE: z15 <- [DW_OP_plus_uconst 544, DW_OP_deref] $rsp
	vmovdqu	%ymm9, 512(%rsp)                # 32-byte Spill
.Ltmp83:
	#DEBUG_VALUE: orig12 <- [DW_OP_plus_uconst 512, DW_OP_deref] $rsp
	#DEBUG_VALUE: z12 <- [DW_OP_plus_uconst 512, DW_OP_deref] $rsp
	vmovdqu	%ymm5, 192(%rsp)                # 32-byte Spill
.Ltmp84:
	#DEBUG_VALUE: orig1 <- [DW_OP_plus_uconst 192, DW_OP_deref] $rsp
	#DEBUG_VALUE: z1 <- [DW_OP_plus_uconst 192, DW_OP_deref] $rsp
	vmovdqu	%ymm6, 160(%rsp)                # 32-byte Spill
.Ltmp85:
	#DEBUG_VALUE: orig6 <- [DW_OP_plus_uconst 160, DW_OP_deref] $rsp
	#DEBUG_VALUE: z6 <- [DW_OP_plus_uconst 160, DW_OP_deref] $rsp
	vmovdqu	%ymm15, 480(%rsp)               # 32-byte Spill
.Ltmp86:
	#DEBUG_VALUE: orig11 <- [DW_OP_plus_uconst 480, DW_OP_deref] $rsp
	#DEBUG_VALUE: z11 <- [DW_OP_plus_uconst 480, DW_OP_deref] $rsp
	vmovdqu	%ymm4, 448(%rsp)                # 32-byte Spill
.Ltmp87:
	#DEBUG_VALUE: orig13 <- [DW_OP_plus_uconst 448, DW_OP_deref] $rsp
	#DEBUG_VALUE: z13 <- [DW_OP_plus_uconst 448, DW_OP_deref] $rsp
	vmovdqu	%ymm13, 416(%rsp)               # 32-byte Spill
.Ltmp88:
	#DEBUG_VALUE: orig14 <- [DW_OP_plus_uconst 416, DW_OP_deref] $rsp
	#DEBUG_VALUE: z14 <- [DW_OP_plus_uconst 416, DW_OP_deref] $rsp
	.p2align	4
.LBB2_2:                                # =>This Loop Header: Depth=1
                                        #     Child Loop BB2_3 Depth 2
	#DEBUG_VALUE: salsa20_encrypt_bytes:ctx <- $rdi
	#DEBUG_VALUE: orig5 <- [DW_OP_plus_uconst 224, DW_OP_deref] $rsp
	#DEBUG_VALUE: orig10 <- [DW_OP_plus_uconst 576, DW_OP_deref] $rsp
	#DEBUG_VALUE: orig15 <- [DW_OP_plus_uconst 544, DW_OP_deref] $rsp
	#DEBUG_VALUE: orig12 <- [DW_OP_plus_uconst 512, DW_OP_deref] $rsp
	#DEBUG_VALUE: orig1 <- [DW_OP_plus_uconst 192, DW_OP_deref] $rsp
	#DEBUG_VALUE: orig6 <- [DW_OP_plus_uconst 160, DW_OP_deref] $rsp
	#DEBUG_VALUE: orig11 <- [DW_OP_plus_uconst 480, DW_OP_deref] $rsp
	#DEBUG_VALUE: orig13 <- [DW_OP_plus_uconst 448, DW_OP_deref] $rsp
	#DEBUG_VALUE: orig2 <- [DW_OP_plus_uconst 128, DW_OP_deref] $rsp
	#DEBUG_VALUE: orig7 <- [DW_OP_plus_uconst 384, DW_OP_deref] $rsp
	#DEBUG_VALUE: orig4 <- [DW_OP_plus_uconst 352, DW_OP_deref] $rsp
	#DEBUG_VALUE: orig14 <- [DW_OP_plus_uconst 416, DW_OP_deref] $rsp
	#DEBUG_VALUE: orig3 <- [DW_OP_plus_uconst 320, DW_OP_deref] $rsp
	#DEBUG_VALUE: orig0 <- [DW_OP_plus_uconst 256, DW_OP_deref] $rsp
	#DEBUG_VALUE: salsa20_encrypt_bytes:m <- $rsi
	#DEBUG_VALUE: salsa20_encrypt_bytes:c <- $rdx
	#DEBUG_VALUE: salsa20_encrypt_bytes:bytes <- $rcx
	.loc	12 54 15 is_stmt 1              # crypto_stream/salsa20/xmm6int/u8.h:54:15
	movl	32(%rdi), %eax
.Ltmp89:
	#DEBUG_VALUE: in8 <- undef
	#DEBUG_VALUE: in9 <- undef
	.loc	12 56 37                        # crypto_stream/salsa20/xmm6int/u8.h:56:37
	movl	52(%rdi), %r8d
	.loc	12 56 53 is_stmt 0              # crypto_stream/salsa20/xmm6int/u8.h:56:53
	shlq	$32, %r8
	.loc	12 56 33                        # crypto_stream/salsa20/xmm6int/u8.h:56:33
	leaq	(%r8,%rax), %r9
.Ltmp90:
	#DEBUG_VALUE: in89 <- $r9
	.loc	12 58 19 is_stmt 1              # crypto_stream/salsa20/xmm6int/u8.h:58:19
	vmovq	%r9, %xmm0
	vpbroadcastq	%xmm0, %ymm0
.Ltmp91:
	#DEBUG_VALUE: z9 <- $ymm0
	#DEBUG_VALUE: z8 <- $ymm0
	.loc	12 60 14                        # crypto_stream/salsa20/xmm6int/u8.h:60:14
	vpaddq	.LCPI2_0(%rip), %ymm0, %ymm1
.Ltmp92:
	#DEBUG_VALUE: t8 <- undef
	#DEBUG_VALUE: addv8 <- undef
	.loc	12 61 14                        # crypto_stream/salsa20/xmm6int/u8.h:61:14
	vpaddq	.LCPI2_1(%rip), %ymm0, %ymm0
.Ltmp93:
	#DEBUG_VALUE: t9 <- undef
	#DEBUG_VALUE: addv9 <- undef
	#DEBUG_VALUE: z8 <- undef
	#DEBUG_VALUE: z9 <- undef
	#DEBUG_VALUE: t8 <- undef
	#DEBUG_VALUE: t9 <- undef
	.loc	12 70 14                        # crypto_stream/salsa20/xmm6int/u8.h:70:14
	vshufps	$136, %ymm0, %ymm1, %ymm2       # ymm2 = ymm1[0,2],ymm0[0,2],ymm1[4,6],ymm0[4,6]
	vpermpd	$216, %ymm2, %ymm14             # ymm14 = ymm2[0,2,1,3]
.Ltmp94:
	#DEBUG_VALUE: z8 <- $ymm14
	#DEBUG_VALUE: orig8 <- $ymm14
	.loc	12 71 14                        # crypto_stream/salsa20/xmm6int/u8.h:71:14
	vshufps	$221, %ymm0, %ymm1, %ymm0       # ymm0 = ymm1[1,3],ymm0[1,3],ymm1[5,7],ymm0[5,7]
	vpermpd	$216, %ymm0, %ymm0              # ymm0 = ymm0[0,2,1,3]
.Ltmp95:
	#DEBUG_VALUE: z9 <- $ymm0
	#DEBUG_VALUE: orig9 <- $ymm0
	.loc	12 76 14                        # crypto_stream/salsa20/xmm6int/u8.h:76:14
	addq	%r8, %rax
	addq	$8, %rax
.Ltmp96:
	#DEBUG_VALUE: in89 <- $rax
	.loc	12 78 14                        # crypto_stream/salsa20/xmm6int/u8.h:78:14
	movl	%eax, 32(%rdi)
	.loc	12 79 23                        # crypto_stream/salsa20/xmm6int/u8.h:79:23
	shrq	$32, %rax
.Ltmp97:
	.loc	12 79 15 is_stmt 0              # crypto_stream/salsa20/xmm6int/u8.h:79:15
	movl	%eax, 52(%rdi)
	movl	$-2, %eax
.Ltmp98:
	#DEBUG_VALUE: z5 <- [DW_OP_plus_uconst 224, DW_OP_deref] $rsp
	#DEBUG_VALUE: z10 <- [DW_OP_plus_uconst 576, DW_OP_deref] $rsp
	#DEBUG_VALUE: z15 <- [DW_OP_plus_uconst 544, DW_OP_deref] $rsp
	#DEBUG_VALUE: z14 <- [DW_OP_plus_uconst 416, DW_OP_deref] $rsp
	#DEBUG_VALUE: z3 <- [DW_OP_plus_uconst 320, DW_OP_deref] $rsp
	#DEBUG_VALUE: z6 <- [DW_OP_plus_uconst 160, DW_OP_deref] $rsp
	#DEBUG_VALUE: z11 <- [DW_OP_plus_uconst 480, DW_OP_deref] $rsp
	#DEBUG_VALUE: z1 <- [DW_OP_plus_uconst 192, DW_OP_deref] $rsp
	#DEBUG_VALUE: z7 <- [DW_OP_plus_uconst 384, DW_OP_deref] $rsp
	#DEBUG_VALUE: z13 <- [DW_OP_plus_uconst 448, DW_OP_deref] $rsp
	#DEBUG_VALUE: z2 <- [DW_OP_plus_uconst 128, DW_OP_deref] $rsp
	#DEBUG_VALUE: z0 <- [DW_OP_plus_uconst 256, DW_OP_deref] $rsp
	#DEBUG_VALUE: z12 <- [DW_OP_plus_uconst 512, DW_OP_deref] $rsp
	#DEBUG_VALUE: z4 <- [DW_OP_plus_uconst 352, DW_OP_deref] $rsp
	#DEBUG_VALUE: i <- 0
	#DEBUG_VALUE: permute <- undef
	.loc	12 0 15                         # crypto_stream/salsa20/xmm6int/u8.h:0:15
	vmovdqu	%ymm12, 32(%rsp)                # 32-byte Spill
	vmovdqa	%ymm9, %ymm2
	vmovdqa	%ymm15, %ymm7
	vmovups	%ymm14, 640(%rsp)               # 32-byte Spill
.Ltmp99:
	#DEBUG_VALUE: orig8 <- [DW_OP_plus_uconst 640, DW_OP_deref] $rsp
	#DEBUG_VALUE: z8 <- [DW_OP_plus_uconst 640, DW_OP_deref] $rsp
	vmovdqa	%ymm4, %ymm1
	vmovdqu	128(%rsp), %ymm9                # 32-byte Reload
	vmovups	384(%rsp), %ymm3                # 32-byte Reload
	vmovups	%ymm3, 96(%rsp)                 # 32-byte Spill
	vmovdqu	352(%rsp), %ymm15               # 32-byte Reload
	vmovups	%ymm0, 608(%rsp)                # 32-byte Spill
.Ltmp100:
	#DEBUG_VALUE: orig9 <- [DW_OP_plus_uconst 608, DW_OP_deref] $rsp
	#DEBUG_VALUE: z9 <- [DW_OP_plus_uconst 608, DW_OP_deref] $rsp
	vmovdqu	%ymm13, 64(%rsp)                # 32-byte Spill
	vmovups	320(%rsp), %ymm3                # 32-byte Reload
	vmovups	%ymm3, (%rsp)                   # 32-byte Spill
.Ltmp101:
	.p2align	4
.LBB2_3:                                #   Parent Loop BB2_2 Depth=1
                                        # =>  This Inner Loop Header: Depth=2
	#DEBUG_VALUE: salsa20_encrypt_bytes:ctx <- $rdi
	#DEBUG_VALUE: salsa20_encrypt_bytes:m <- $rsi
	#DEBUG_VALUE: salsa20_encrypt_bytes:c <- $rdx
	#DEBUG_VALUE: salsa20_encrypt_bytes:bytes <- $rcx
	#DEBUG_VALUE: z0 <- $ymm8
	#DEBUG_VALUE: z5 <- $ymm11
	#DEBUG_VALUE: z10 <- [DW_OP_plus_uconst 32, DW_OP_deref] $rsp
	#DEBUG_VALUE: z15 <- $ymm10
	#DEBUG_VALUE: z1 <- $ymm5
	#DEBUG_VALUE: z6 <- $ymm6
	#DEBUG_VALUE: z2 <- $ymm9
	#DEBUG_VALUE: z7 <- [DW_OP_plus_uconst 96, DW_OP_deref] $rsp
	#DEBUG_VALUE: z4 <- $ymm15
	#DEBUG_VALUE: z14 <- $ymm13
	#DEBUG_VALUE: orig5 <- [DW_OP_plus_uconst 224, DW_OP_deref] $rsp
	#DEBUG_VALUE: orig10 <- [DW_OP_plus_uconst 576, DW_OP_deref] $rsp
	#DEBUG_VALUE: orig15 <- [DW_OP_plus_uconst 544, DW_OP_deref] $rsp
	#DEBUG_VALUE: orig12 <- [DW_OP_plus_uconst 512, DW_OP_deref] $rsp
	#DEBUG_VALUE: orig1 <- [DW_OP_plus_uconst 192, DW_OP_deref] $rsp
	#DEBUG_VALUE: orig6 <- [DW_OP_plus_uconst 160, DW_OP_deref] $rsp
	#DEBUG_VALUE: orig11 <- [DW_OP_plus_uconst 480, DW_OP_deref] $rsp
	#DEBUG_VALUE: orig13 <- [DW_OP_plus_uconst 448, DW_OP_deref] $rsp
	#DEBUG_VALUE: orig2 <- [DW_OP_plus_uconst 128, DW_OP_deref] $rsp
	#DEBUG_VALUE: orig7 <- [DW_OP_plus_uconst 384, DW_OP_deref] $rsp
	#DEBUG_VALUE: orig4 <- [DW_OP_plus_uconst 352, DW_OP_deref] $rsp
	#DEBUG_VALUE: orig14 <- [DW_OP_plus_uconst 416, DW_OP_deref] $rsp
	#DEBUG_VALUE: z3 <- [DW_OP_deref] $rsp
	#DEBUG_VALUE: orig3 <- [DW_OP_plus_uconst 320, DW_OP_deref] $rsp
	#DEBUG_VALUE: orig0 <- [DW_OP_plus_uconst 256, DW_OP_deref] $rsp
	#DEBUG_VALUE: z9 <- $ymm0
	#DEBUG_VALUE: z8 <- $ymm14
	#DEBUG_VALUE: orig8 <- [DW_OP_plus_uconst 640, DW_OP_deref] $rsp
	#DEBUG_VALUE: orig9 <- [DW_OP_plus_uconst 608, DW_OP_deref] $rsp
	#DEBUG_VALUE: z0 <- $ymm8
	#DEBUG_VALUE: z5 <- $ymm11
	#DEBUG_VALUE: z10 <- [DW_OP_plus_uconst 32, DW_OP_deref] $rsp
	#DEBUG_VALUE: z15 <- $ymm10
	#DEBUG_VALUE: z12 <- $ymm2
	#DEBUG_VALUE: z1 <- $ymm5
	#DEBUG_VALUE: z6 <- $ymm6
	#DEBUG_VALUE: z11 <- $ymm7
	#DEBUG_VALUE: z8 <- $ymm14
	#DEBUG_VALUE: z13 <- $ymm1
	#DEBUG_VALUE: z2 <- $ymm9
	#DEBUG_VALUE: z7 <- [DW_OP_plus_uconst 96, DW_OP_deref] $rsp
	#DEBUG_VALUE: z4 <- $ymm15
	#DEBUG_VALUE: z9 <- $ymm0
	#DEBUG_VALUE: z14 <- [DW_OP_plus_uconst 64, DW_OP_deref] $rsp
	#DEBUG_VALUE: z3 <- [DW_OP_deref] $rsp
	#DEBUG_VALUE: i <- [DW_OP_plus_uconst 2, DW_OP_stack_value] $eax
	#DEBUG_VALUE: y4 <- $ymm2
	.loc	12 106 18 is_stmt 1             # crypto_stream/salsa20/xmm6int/u8.h:106:18
	vpaddd	%ymm2, %ymm8, %ymm3
.Ltmp102:
	#DEBUG_VALUE: y4 <- [DW_OP_LLVM_arg 0, DW_OP_LLVM_arg 0, DW_OP_shl, DW_OP_stack_value] undef
	#DEBUG_VALUE: z4 <- [DW_OP_LLVM_arg 0, DW_OP_LLVM_arg 0, DW_OP_LLVM_arg 0, DW_OP_shl, DW_OP_xor, DW_OP_stack_value] undef
	#DEBUG_VALUE: r4 <- [DW_OP_LLVM_arg 0, DW_OP_LLVM_arg 0, DW_OP_shr, DW_OP_stack_value] undef
	.loc	12 111 18                       # crypto_stream/salsa20/xmm6int/u8.h:111:18
	vpsrld	$25, %ymm3, %ymm12
	vpslld	$7, %ymm3, %ymm3
	vpor	%ymm3, %ymm12, %ymm3
	vpxor	%ymm3, %ymm15, %ymm15
.Ltmp103:
	#DEBUG_VALUE: z4 <- $ymm15
	#DEBUG_VALUE: y9 <- $ymm5
	.loc	12 114 18                       # crypto_stream/salsa20/xmm6int/u8.h:114:18
	vpaddd	%ymm5, %ymm11, %ymm3
.Ltmp104:
	#DEBUG_VALUE: r9 <- [DW_OP_LLVM_arg 0, DW_OP_LLVM_arg 0, DW_OP_shr, DW_OP_stack_value] undef
	#DEBUG_VALUE: y9 <- undef
	#DEBUG_VALUE: z9 <- undef
	.loc	12 119 18                       # crypto_stream/salsa20/xmm6int/u8.h:119:18
	vpsrld	$25, %ymm3, %ymm12
	vpslld	$7, %ymm3, %ymm3
	vpor	%ymm3, %ymm12, %ymm3
	vxorps	%ymm3, %ymm0, %ymm0
.Ltmp105:
	#DEBUG_VALUE: z9 <- $ymm0
	#DEBUG_VALUE: y8 <- $ymm8
	.loc	12 0 18 is_stmt 0               # crypto_stream/salsa20/xmm6int/u8.h:0:18
	vmovups	%ymm0, 672(%rsp)                # 32-byte Spill
.Ltmp106:
	#DEBUG_VALUE: z9 <- [DW_OP_plus_uconst 672, DW_OP_deref] $rsp
	.loc	12 122 18 is_stmt 1             # crypto_stream/salsa20/xmm6int/u8.h:122:18
	vpaddd	%ymm8, %ymm15, %ymm3
.Ltmp107:
	#DEBUG_VALUE: y8 <- [DW_OP_LLVM_arg 0, DW_OP_LLVM_arg 0, DW_OP_shl, DW_OP_stack_value] undef
	#DEBUG_VALUE: z8 <- [DW_OP_LLVM_arg 0, DW_OP_LLVM_arg 0, DW_OP_LLVM_arg 0, DW_OP_shl, DW_OP_xor, DW_OP_stack_value] undef
	#DEBUG_VALUE: r8 <- [DW_OP_LLVM_arg 0, DW_OP_LLVM_arg 0, DW_OP_shr, DW_OP_stack_value] undef
	.loc	12 127 18                       # crypto_stream/salsa20/xmm6int/u8.h:127:18
	vpsrld	$23, %ymm3, %ymm12
	vpslld	$9, %ymm3, %ymm3
	vpor	%ymm3, %ymm12, %ymm3
	vxorps	%ymm3, %ymm14, %ymm14
.Ltmp108:
	#DEBUG_VALUE: z8 <- $ymm14
	#DEBUG_VALUE: y13 <- $ymm11
	.loc	12 130 19                       # crypto_stream/salsa20/xmm6int/u8.h:130:19
	vpaddd	%ymm0, %ymm11, %ymm3
.Ltmp109:
	#DEBUG_VALUE: r13 <- [DW_OP_LLVM_arg 0, DW_OP_LLVM_arg 0, DW_OP_shr, DW_OP_stack_value] undef
	#DEBUG_VALUE: y13 <- undef
	#DEBUG_VALUE: z13 <- undef
	.loc	12 135 19                       # crypto_stream/salsa20/xmm6int/u8.h:135:19
	vpsrld	$23, %ymm3, %ymm12
	vpslld	$9, %ymm3, %ymm3
	vpor	%ymm3, %ymm12, %ymm3
	vpxor	%ymm3, %ymm1, %ymm4
.Ltmp110:
	#DEBUG_VALUE: z13 <- $ymm4
	#DEBUG_VALUE: y12 <- $ymm15
	.loc	12 0 19 is_stmt 0               # crypto_stream/salsa20/xmm6int/u8.h:0:19
	vmovdqu	%ymm4, 288(%rsp)                # 32-byte Spill
.Ltmp111:
	#DEBUG_VALUE: z13 <- [DW_OP_plus_uconst 288, DW_OP_deref] $rsp
	.loc	12 138 19 is_stmt 1             # crypto_stream/salsa20/xmm6int/u8.h:138:19
	vpaddd	%ymm15, %ymm14, %ymm3
.Ltmp112:
	#DEBUG_VALUE: y12 <- [DW_OP_LLVM_arg 0, DW_OP_LLVM_arg 0, DW_OP_shl, DW_OP_stack_value] undef
	#DEBUG_VALUE: z12 <- [DW_OP_LLVM_arg 0, DW_OP_LLVM_arg 0, DW_OP_LLVM_arg 0, DW_OP_shl, DW_OP_xor, DW_OP_stack_value] undef
	#DEBUG_VALUE: r12 <- [DW_OP_LLVM_arg 0, DW_OP_LLVM_arg 0, DW_OP_shr, DW_OP_stack_value] undef
	.loc	12 143 19                       # crypto_stream/salsa20/xmm6int/u8.h:143:19
	vpsrld	$19, %ymm3, %ymm12
	vpslld	$13, %ymm3, %ymm3
	vpor	%ymm3, %ymm12, %ymm3
	vpxor	%ymm3, %ymm2, %ymm2
.Ltmp113:
	#DEBUG_VALUE: z12 <- $ymm2
	#DEBUG_VALUE: y1 <- [DW_OP_plus_uconst 672, DW_OP_deref] $rsp
	.loc	12 0 19 is_stmt 0               # crypto_stream/salsa20/xmm6int/u8.h:0:19
	vmovdqu	%ymm2, 704(%rsp)                # 32-byte Spill
.Ltmp114:
	#DEBUG_VALUE: z12 <- [DW_OP_plus_uconst 704, DW_OP_deref] $rsp
	.loc	12 146 18 is_stmt 1             # crypto_stream/salsa20/xmm6int/u8.h:146:18
	vpaddd	%ymm0, %ymm4, %ymm3
.Ltmp115:
	#DEBUG_VALUE: r1 <- [DW_OP_LLVM_arg 0, DW_OP_LLVM_arg 0, DW_OP_shr, DW_OP_stack_value] undef
	#DEBUG_VALUE: y1 <- undef
	#DEBUG_VALUE: z1 <- undef
	.loc	12 151 18                       # crypto_stream/salsa20/xmm6int/u8.h:151:18
	vpsrld	$19, %ymm3, %ymm12
	vpslld	$13, %ymm3, %ymm3
	vpor	%ymm3, %ymm12, %ymm3
	vpxor	%ymm3, %ymm5, %ymm1
.Ltmp116:
	#DEBUG_VALUE: z1 <- $ymm1
	#DEBUG_VALUE: y0 <- $ymm14
	.loc	12 154 18                       # crypto_stream/salsa20/xmm6int/u8.h:154:18
	vpaddd	%ymm2, %ymm14, %ymm3
.Ltmp117:
	#DEBUG_VALUE: y0 <- [DW_OP_LLVM_arg 0, DW_OP_LLVM_arg 0, DW_OP_shl, DW_OP_stack_value] undef
	#DEBUG_VALUE: z0 <- [DW_OP_LLVM_arg 0, DW_OP_LLVM_arg 0, DW_OP_LLVM_arg 0, DW_OP_shl, DW_OP_xor, DW_OP_stack_value] undef
	#DEBUG_VALUE: r0 <- [DW_OP_LLVM_arg 0, DW_OP_LLVM_arg 0, DW_OP_shr, DW_OP_stack_value] undef
	.loc	12 159 18                       # crypto_stream/salsa20/xmm6int/u8.h:159:18
	vpsrld	$14, %ymm3, %ymm12
	vpslld	$18, %ymm3, %ymm3
	vpor	%ymm3, %ymm12, %ymm3
	vpxor	%ymm3, %ymm8, %ymm8
.Ltmp118:
	#DEBUG_VALUE: z0 <- $ymm8
	#DEBUG_VALUE: y5 <- [DW_OP_plus_uconst 288, DW_OP_deref] $rsp
	.loc	12 162 18                       # crypto_stream/salsa20/xmm6int/u8.h:162:18
	vpaddd	%ymm4, %ymm1, %ymm3
.Ltmp119:
	#DEBUG_VALUE: r5 <- [DW_OP_LLVM_arg 0, DW_OP_LLVM_arg 0, DW_OP_shr, DW_OP_stack_value] undef
	#DEBUG_VALUE: y5 <- undef
	#DEBUG_VALUE: z5 <- undef
	.loc	12 167 18                       # crypto_stream/salsa20/xmm6int/u8.h:167:18
	vpsrld	$14, %ymm3, %ymm12
	vpslld	$18, %ymm3, %ymm3
	vpor	%ymm3, %ymm12, %ymm3
	vpxor	%ymm3, %ymm11, %ymm11
.Ltmp120:
	#DEBUG_VALUE: z5 <- $ymm11
	#DEBUG_VALUE: y14 <- $ymm6
	.loc	12 0 18 is_stmt 0               # crypto_stream/salsa20/xmm6int/u8.h:0:18
	vmovdqu	32(%rsp), %ymm0                 # 32-byte Reload
	.loc	12 170 19 is_stmt 1             # crypto_stream/salsa20/xmm6int/u8.h:170:19
	vpaddd	%ymm6, %ymm0, %ymm3
.Ltmp121:
	#DEBUG_VALUE: r14 <- [DW_OP_LLVM_arg 0, DW_OP_LLVM_arg 0, DW_OP_shr, DW_OP_stack_value] undef
	#DEBUG_VALUE: y14 <- undef
	#DEBUG_VALUE: z14 <- undef
	.loc	12 175 19                       # crypto_stream/salsa20/xmm6int/u8.h:175:19
	vpsrld	$25, %ymm3, %ymm12
	vpslld	$7, %ymm3, %ymm3
	vpor	%ymm3, %ymm12, %ymm3
	vpxor	64(%rsp), %ymm3, %ymm12         # 32-byte Folded Reload
.Ltmp122:
	#DEBUG_VALUE: z14 <- $ymm12
	#DEBUG_VALUE: y3 <- $ymm7
	.loc	12 178 18                       # crypto_stream/salsa20/xmm6int/u8.h:178:18
	vpaddd	%ymm7, %ymm10, %ymm3
.Ltmp123:
	#DEBUG_VALUE: r3 <- [DW_OP_LLVM_arg 0, DW_OP_LLVM_arg 0, DW_OP_shr, DW_OP_stack_value] undef
	#DEBUG_VALUE: y3 <- undef
	#DEBUG_VALUE: z3 <- undef
	.loc	12 183 18                       # crypto_stream/salsa20/xmm6int/u8.h:183:18
	vpsrld	$25, %ymm3, %ymm13
	vpslld	$7, %ymm3, %ymm3
	vpor	%ymm3, %ymm13, %ymm3
	vpxor	(%rsp), %ymm3, %ymm13           # 32-byte Folded Reload
.Ltmp124:
	#DEBUG_VALUE: z3 <- $ymm13
	#DEBUG_VALUE: y2 <- [DW_OP_plus_uconst 32, DW_OP_deref] $rsp
	.loc	12 186 18                       # crypto_stream/salsa20/xmm6int/u8.h:186:18
	vpaddd	%ymm0, %ymm12, %ymm3
.Ltmp125:
	#DEBUG_VALUE: r2 <- [DW_OP_LLVM_arg 0, DW_OP_LLVM_arg 0, DW_OP_shr, DW_OP_stack_value] undef
	#DEBUG_VALUE: y2 <- undef
	#DEBUG_VALUE: z2 <- undef
	.loc	12 0 18 is_stmt 0               # crypto_stream/salsa20/xmm6int/u8.h:0:18
	vmovdqa	%ymm10, %ymm2
	.loc	12 191 18 is_stmt 1             # crypto_stream/salsa20/xmm6int/u8.h:191:18
	vpsrld	$23, %ymm3, %ymm10
.Ltmp126:
	vpslld	$9, %ymm3, %ymm3
	vpor	%ymm3, %ymm10, %ymm3
	vpxor	%ymm3, %ymm9, %ymm9
.Ltmp127:
	#DEBUG_VALUE: z2 <- $ymm9
	#DEBUG_VALUE: y7 <- undef
	.loc	12 194 18                       # crypto_stream/salsa20/xmm6int/u8.h:194:18
	vpaddd	%ymm2, %ymm13, %ymm3
.Ltmp128:
	#DEBUG_VALUE: r7 <- [DW_OP_LLVM_arg 0, DW_OP_LLVM_arg 0, DW_OP_shr, DW_OP_stack_value] undef
	#DEBUG_VALUE: y7 <- undef
	#DEBUG_VALUE: z7 <- undef
	.loc	12 199 18                       # crypto_stream/salsa20/xmm6int/u8.h:199:18
	vpsrld	$23, %ymm3, %ymm10
	vpslld	$9, %ymm3, %ymm3
	vpor	%ymm3, %ymm10, %ymm3
	vpxor	96(%rsp), %ymm3, %ymm10         # 32-byte Folded Reload
.Ltmp129:
	#DEBUG_VALUE: z7 <- $ymm10
	#DEBUG_VALUE: y6 <- $ymm12
	.loc	12 202 18                       # crypto_stream/salsa20/xmm6int/u8.h:202:18
	vpaddd	%ymm12, %ymm9, %ymm3
.Ltmp130:
	#DEBUG_VALUE: r6 <- [DW_OP_LLVM_arg 0, DW_OP_LLVM_arg 0, DW_OP_shr, DW_OP_stack_value] undef
	#DEBUG_VALUE: y6 <- undef
	#DEBUG_VALUE: z6 <- undef
	.loc	12 207 18                       # crypto_stream/salsa20/xmm6int/u8.h:207:18
	vpsrld	$19, %ymm3, %ymm4
	vpslld	$13, %ymm3, %ymm3
	vpor	%ymm4, %ymm3, %ymm3
	vpxor	%ymm3, %ymm6, %ymm6
.Ltmp131:
	#DEBUG_VALUE: z6 <- $ymm6
	#DEBUG_VALUE: y11 <- $ymm13
	.loc	12 210 19                       # crypto_stream/salsa20/xmm6int/u8.h:210:19
	vpaddd	%ymm13, %ymm10, %ymm3
.Ltmp132:
	#DEBUG_VALUE: r11 <- [DW_OP_LLVM_arg 0, DW_OP_LLVM_arg 0, DW_OP_shr, DW_OP_stack_value] undef
	#DEBUG_VALUE: y11 <- undef
	#DEBUG_VALUE: z11 <- undef
	.loc	12 215 19                       # crypto_stream/salsa20/xmm6int/u8.h:215:19
	vpsrld	$19, %ymm3, %ymm4
	vpslld	$13, %ymm3, %ymm3
	vpor	%ymm4, %ymm3, %ymm3
	vpxor	%ymm3, %ymm7, %ymm7
.Ltmp133:
	#DEBUG_VALUE: z11 <- $ymm7
	#DEBUG_VALUE: y10 <- $ymm9
	.loc	12 218 19                       # crypto_stream/salsa20/xmm6int/u8.h:218:19
	vpaddd	%ymm6, %ymm9, %ymm3
.Ltmp134:
	#DEBUG_VALUE: r10 <- [DW_OP_LLVM_arg 0, DW_OP_LLVM_arg 0, DW_OP_shr, DW_OP_stack_value] undef
	#DEBUG_VALUE: y10 <- undef
	#DEBUG_VALUE: z10 <- undef
	.loc	12 223 19                       # crypto_stream/salsa20/xmm6int/u8.h:223:19
	vpsrld	$14, %ymm3, %ymm4
	vpslld	$18, %ymm3, %ymm3
	vpor	%ymm4, %ymm3, %ymm3
	vpxor	%ymm3, %ymm0, %ymm4
.Ltmp135:
	#DEBUG_VALUE: z10 <- $ymm4
	#DEBUG_VALUE: y1 <- $ymm13
	.loc	12 226 18                       # crypto_stream/salsa20/xmm6int/u8.h:226:18
	vpaddd	%ymm13, %ymm8, %ymm3
	#DEBUG_VALUE: r1 <- [DW_OP_LLVM_arg 0, DW_OP_LLVM_arg 0, DW_OP_shr, DW_OP_stack_value] undef
	.loc	12 231 18                       # crypto_stream/salsa20/xmm6int/u8.h:231:18
	vpsrld	$25, %ymm3, %ymm0
	vpslld	$7, %ymm3, %ymm3
	vpor	%ymm0, %ymm3, %ymm0
	vpxor	%ymm0, %ymm1, %ymm5
.Ltmp136:
	#DEBUG_VALUE: z1 <- $ymm5
	#DEBUG_VALUE: y15 <- $ymm10
	.loc	12 234 19                       # crypto_stream/salsa20/xmm6int/u8.h:234:19
	vpaddd	%ymm7, %ymm10, %ymm1
.Ltmp137:
	#DEBUG_VALUE: r15 <- [DW_OP_LLVM_arg 0, DW_OP_LLVM_arg 0, DW_OP_shr, DW_OP_stack_value] undef
	#DEBUG_VALUE: y15 <- undef
	#DEBUG_VALUE: z15 <- undef
	.loc	12 239 19                       # crypto_stream/salsa20/xmm6int/u8.h:239:19
	vpsrld	$14, %ymm1, %ymm3
	vpslld	$18, %ymm1, %ymm1
	vpor	%ymm3, %ymm1, %ymm1
	vpxor	%ymm1, %ymm2, %ymm3
.Ltmp138:
	#DEBUG_VALUE: z15 <- $ymm3
	#DEBUG_VALUE: y6 <- $ymm15
	.loc	12 242 18                       # crypto_stream/salsa20/xmm6int/u8.h:242:18
	vpaddd	%ymm15, %ymm11, %ymm1
	#DEBUG_VALUE: r6 <- [DW_OP_LLVM_arg 0, DW_OP_LLVM_arg 0, DW_OP_shr, DW_OP_stack_value] undef
	.loc	12 247 18                       # crypto_stream/salsa20/xmm6int/u8.h:247:18
	vpsrld	$25, %ymm1, %ymm0
	vpslld	$7, %ymm1, %ymm1
	vpor	%ymm0, %ymm1, %ymm0
	vpxor	%ymm0, %ymm6, %ymm6
.Ltmp139:
	#DEBUG_VALUE: z6 <- $ymm6
	#DEBUG_VALUE: y2 <- $ymm8
	.loc	12 250 18                       # crypto_stream/salsa20/xmm6int/u8.h:250:18
	vpaddd	%ymm5, %ymm8, %ymm0
	#DEBUG_VALUE: r2 <- [DW_OP_LLVM_arg 0, DW_OP_LLVM_arg 0, DW_OP_shr, DW_OP_stack_value] undef
	.loc	12 255 18                       # crypto_stream/salsa20/xmm6int/u8.h:255:18
	vpsrld	$23, %ymm0, %ymm1
	vpslld	$9, %ymm0, %ymm0
	vpor	%ymm1, %ymm0, %ymm0
	vpxor	%ymm0, %ymm9, %ymm9
.Ltmp140:
	#DEBUG_VALUE: z2 <- $ymm9
	#DEBUG_VALUE: y7 <- $ymm11
	.loc	12 258 18                       # crypto_stream/salsa20/xmm6int/u8.h:258:18
	vpaddd	%ymm6, %ymm11, %ymm0
	#DEBUG_VALUE: r7 <- [DW_OP_LLVM_arg 0, DW_OP_LLVM_arg 0, DW_OP_shr, DW_OP_stack_value] undef
	.loc	12 263 18                       # crypto_stream/salsa20/xmm6int/u8.h:263:18
	vpsrld	$23, %ymm0, %ymm1
	vpslld	$9, %ymm0, %ymm0
	vpor	%ymm1, %ymm0, %ymm0
	vpxor	%ymm0, %ymm10, %ymm2
.Ltmp141:
	#DEBUG_VALUE: z7 <- $ymm2
	#DEBUG_VALUE: y3 <- $ymm5
	.loc	12 266 18                       # crypto_stream/salsa20/xmm6int/u8.h:266:18
	vpaddd	%ymm5, %ymm9, %ymm0
	#DEBUG_VALUE: r3 <- [DW_OP_LLVM_arg 0, DW_OP_LLVM_arg 0, DW_OP_shr, DW_OP_stack_value] undef
	.loc	12 271 18                       # crypto_stream/salsa20/xmm6int/u8.h:271:18
	vpsrld	$19, %ymm0, %ymm1
	vpslld	$13, %ymm0, %ymm0
	vpor	%ymm1, %ymm0, %ymm0
	vpxor	%ymm0, %ymm13, %ymm10
.Ltmp142:
	#DEBUG_VALUE: z3 <- $ymm10
	#DEBUG_VALUE: y4 <- $ymm6
	.loc	12 274 18                       # crypto_stream/salsa20/xmm6int/u8.h:274:18
	vpaddd	%ymm6, %ymm2, %ymm0
	#DEBUG_VALUE: r4 <- [DW_OP_LLVM_arg 0, DW_OP_LLVM_arg 0, DW_OP_shr, DW_OP_stack_value] undef
.Ltmp143:
	#DEBUG_VALUE: y4 <- undef
	#DEBUG_VALUE: z4 <- undef
	.loc	12 279 18                       # crypto_stream/salsa20/xmm6int/u8.h:279:18
	vpsrld	$19, %ymm0, %ymm1
	vpslld	$13, %ymm0, %ymm0
	vpor	%ymm1, %ymm0, %ymm0
	vpxor	%ymm0, %ymm15, %ymm15
.Ltmp144:
	#DEBUG_VALUE: z4 <- $ymm15
	#DEBUG_VALUE: y0 <- $ymm9
	.loc	12 0 18 is_stmt 0               # crypto_stream/salsa20/xmm6int/u8.h:0:18
	vmovdqu	%ymm10, (%rsp)                  # 32-byte Spill
.Ltmp145:
	#DEBUG_VALUE: z3 <- [DW_OP_deref] $rsp
	.loc	12 282 18 is_stmt 1             # crypto_stream/salsa20/xmm6int/u8.h:282:18
	vpaddd	%ymm9, %ymm10, %ymm0
	#DEBUG_VALUE: r0 <- [DW_OP_LLVM_arg 0, DW_OP_LLVM_arg 0, DW_OP_shr, DW_OP_stack_value] undef
.Ltmp146:
	#DEBUG_VALUE: y0 <- undef
	#DEBUG_VALUE: z0 <- undef
	.loc	12 287 18                       # crypto_stream/salsa20/xmm6int/u8.h:287:18
	vpsrld	$14, %ymm0, %ymm1
	vpslld	$18, %ymm0, %ymm0
	vpor	%ymm1, %ymm0, %ymm0
	vpxor	%ymm0, %ymm8, %ymm8
.Ltmp147:
	#DEBUG_VALUE: z0 <- $ymm8
	#DEBUG_VALUE: y5 <- $ymm2
	.loc	12 0 18 is_stmt 0               # crypto_stream/salsa20/xmm6int/u8.h:0:18
	vmovdqu	%ymm2, 96(%rsp)                 # 32-byte Spill
.Ltmp148:
	#DEBUG_VALUE: y5 <- [DW_OP_plus_uconst 96, DW_OP_deref] $rsp
	#DEBUG_VALUE: z7 <- [DW_OP_plus_uconst 96, DW_OP_deref] $rsp
	.loc	12 290 18 is_stmt 1             # crypto_stream/salsa20/xmm6int/u8.h:290:18
	vpaddd	%ymm2, %ymm15, %ymm0
	#DEBUG_VALUE: r5 <- [DW_OP_LLVM_arg 0, DW_OP_LLVM_arg 0, DW_OP_shr, DW_OP_stack_value] undef
	.loc	12 295 18                       # crypto_stream/salsa20/xmm6int/u8.h:295:18
	vpsrld	$14, %ymm0, %ymm1
	vpslld	$18, %ymm0, %ymm0
	vpor	%ymm1, %ymm0, %ymm0
	vpxor	%ymm0, %ymm11, %ymm11
.Ltmp149:
	#DEBUG_VALUE: z5 <- $ymm11
	#DEBUG_VALUE: y11 <- [DW_OP_plus_uconst 672, DW_OP_deref] $rsp
	.loc	12 0 18 is_stmt 0               # crypto_stream/salsa20/xmm6int/u8.h:0:18
	vmovdqu	672(%rsp), %ymm13               # 32-byte Reload
.Ltmp150:
	.loc	12 298 19 is_stmt 1             # crypto_stream/salsa20/xmm6int/u8.h:298:19
	vpaddd	%ymm4, %ymm13, %ymm0
	#DEBUG_VALUE: r11 <- [DW_OP_LLVM_arg 0, DW_OP_LLVM_arg 0, DW_OP_shr, DW_OP_stack_value] undef
	.loc	12 303 19                       # crypto_stream/salsa20/xmm6int/u8.h:303:19
	vpsrld	$25, %ymm0, %ymm1
	vpslld	$7, %ymm0, %ymm0
	vpor	%ymm1, %ymm0, %ymm0
	vpxor	%ymm0, %ymm7, %ymm7
.Ltmp151:
	#DEBUG_VALUE: z11 <- $ymm7
	#DEBUG_VALUE: y12 <- $ymm12
	.loc	12 306 19                       # crypto_stream/salsa20/xmm6int/u8.h:306:19
	vpaddd	%ymm3, %ymm12, %ymm0
	#DEBUG_VALUE: r12 <- [DW_OP_LLVM_arg 0, DW_OP_LLVM_arg 0, DW_OP_shr, DW_OP_stack_value] undef
.Ltmp152:
	#DEBUG_VALUE: y12 <- undef
	#DEBUG_VALUE: z12 <- undef
	.loc	12 311 19                       # crypto_stream/salsa20/xmm6int/u8.h:311:19
	vpsrld	$25, %ymm0, %ymm1
	vpslld	$7, %ymm0, %ymm0
	vpor	%ymm1, %ymm0, %ymm0
	vpxor	704(%rsp), %ymm0, %ymm2         # 32-byte Folded Reload
.Ltmp153:
	#DEBUG_VALUE: z12 <- $ymm2
	#DEBUG_VALUE: y8 <- $ymm4
	.loc	12 314 18                       # crypto_stream/salsa20/xmm6int/u8.h:314:18
	vpaddd	%ymm4, %ymm7, %ymm0
	#DEBUG_VALUE: r8 <- [DW_OP_LLVM_arg 0, DW_OP_LLVM_arg 0, DW_OP_shr, DW_OP_stack_value] undef
.Ltmp154:
	#DEBUG_VALUE: y8 <- undef
	#DEBUG_VALUE: z8 <- undef
	.loc	12 319 18                       # crypto_stream/salsa20/xmm6int/u8.h:319:18
	vpsrld	$23, %ymm0, %ymm1
	vpslld	$9, %ymm0, %ymm0
	vpor	%ymm1, %ymm0, %ymm0
	vpxor	%ymm0, %ymm14, %ymm14
.Ltmp155:
	#DEBUG_VALUE: z8 <- $ymm14
	#DEBUG_VALUE: y13 <- $ymm3
	.loc	12 322 19                       # crypto_stream/salsa20/xmm6int/u8.h:322:19
	vpaddd	%ymm3, %ymm2, %ymm0
	#DEBUG_VALUE: r13 <- [DW_OP_LLVM_arg 0, DW_OP_LLVM_arg 0, DW_OP_shr, DW_OP_stack_value] undef
	.loc	12 327 19                       # crypto_stream/salsa20/xmm6int/u8.h:327:19
	vpsrld	$23, %ymm0, %ymm1
	vpslld	$9, %ymm0, %ymm0
	vpor	%ymm1, %ymm0, %ymm0
	vpxor	288(%rsp), %ymm0, %ymm1         # 32-byte Folded Reload
.Ltmp156:
	#DEBUG_VALUE: z13 <- $ymm1
	#DEBUG_VALUE: y9 <- $ymm7
	.loc	12 330 18                       # crypto_stream/salsa20/xmm6int/u8.h:330:18
	vpaddd	%ymm7, %ymm14, %ymm0
	#DEBUG_VALUE: r9 <- [DW_OP_LLVM_arg 0, DW_OP_LLVM_arg 0, DW_OP_shr, DW_OP_stack_value] undef
	.loc	12 335 18                       # crypto_stream/salsa20/xmm6int/u8.h:335:18
	vpsrld	$19, %ymm0, %ymm10
	vpslld	$13, %ymm0, %ymm0
	vpor	%ymm0, %ymm10, %ymm0
	vpxor	%ymm0, %ymm13, %ymm0
.Ltmp157:
	#DEBUG_VALUE: z9 <- $ymm0
	#DEBUG_VALUE: y14 <- $ymm2
	.loc	12 338 19                       # crypto_stream/salsa20/xmm6int/u8.h:338:19
	vpaddd	%ymm2, %ymm1, %ymm10
	#DEBUG_VALUE: r14 <- [DW_OP_LLVM_arg 0, DW_OP_LLVM_arg 0, DW_OP_shr, DW_OP_stack_value] undef
	.loc	12 343 19                       # crypto_stream/salsa20/xmm6int/u8.h:343:19
	vpsrld	$19, %ymm10, %ymm13
	vpslld	$13, %ymm10, %ymm10
	vpor	%ymm13, %ymm10, %ymm10
	vpxor	%ymm10, %ymm12, %ymm13
.Ltmp158:
	#DEBUG_VALUE: z14 <- $ymm13
	#DEBUG_VALUE: y10 <- $ymm14
	.loc	12 346 19                       # crypto_stream/salsa20/xmm6int/u8.h:346:19
	vpaddd	%ymm0, %ymm14, %ymm10
	#DEBUG_VALUE: r10 <- [DW_OP_LLVM_arg 0, DW_OP_LLVM_arg 0, DW_OP_shr, DW_OP_stack_value] undef
	.loc	12 351 19                       # crypto_stream/salsa20/xmm6int/u8.h:351:19
	vpsrld	$14, %ymm10, %ymm12
	vpslld	$18, %ymm10, %ymm10
	vpor	%ymm12, %ymm10, %ymm10
	vpxor	%ymm4, %ymm10, %ymm4
.Ltmp159:
	#DEBUG_VALUE: z10 <- $ymm4
	#DEBUG_VALUE: y15 <- $ymm1
	.loc	12 0 19 is_stmt 0               # crypto_stream/salsa20/xmm6int/u8.h:0:19
	vmovdqu	%ymm4, 32(%rsp)                 # 32-byte Spill
.Ltmp160:
	#DEBUG_VALUE: z10 <- [DW_OP_plus_uconst 32, DW_OP_deref] $rsp
	vmovdqu	%ymm13, 64(%rsp)                # 32-byte Spill
.Ltmp161:
	#DEBUG_VALUE: z14 <- [DW_OP_plus_uconst 64, DW_OP_deref] $rsp
	.loc	12 354 19 is_stmt 1             # crypto_stream/salsa20/xmm6int/u8.h:354:19
	vpaddd	%ymm1, %ymm13, %ymm4
	#DEBUG_VALUE: r15 <- [DW_OP_LLVM_arg 0, DW_OP_LLVM_arg 0, DW_OP_shr, DW_OP_stack_value] undef
	.loc	12 359 19                       # crypto_stream/salsa20/xmm6int/u8.h:359:19
	vpsrld	$14, %ymm4, %ymm10
	vpslld	$18, %ymm4, %ymm4
	vpor	%ymm4, %ymm10, %ymm4
	vpxor	%ymm4, %ymm3, %ymm10
.Ltmp162:
	#DEBUG_VALUE: z15 <- $ymm10
	#DEBUG_VALUE: i <- [DW_OP_plus_uconst 4, DW_OP_stack_value] $eax
	.loc	12 99 23                        # crypto_stream/salsa20/xmm6int/u8.h:99:23
	addl	$2, %eax
.Ltmp163:
	cmpl	$18, %eax
.Ltmp164:
	.loc	12 99 9 is_stmt 0               # crypto_stream/salsa20/xmm6int/u8.h:99:9
	jb	.LBB2_3
.Ltmp165:
# %bb.4:                                #   in Loop: Header=BB2_2 Depth=1
	#DEBUG_VALUE: salsa20_encrypt_bytes:ctx <- $rdi
	#DEBUG_VALUE: salsa20_encrypt_bytes:m <- $rsi
	#DEBUG_VALUE: salsa20_encrypt_bytes:c <- $rdx
	#DEBUG_VALUE: salsa20_encrypt_bytes:bytes <- $rcx
	#DEBUG_VALUE: z0 <- $ymm8
	#DEBUG_VALUE: z5 <- $ymm11
	#DEBUG_VALUE: z10 <- [DW_OP_plus_uconst 32, DW_OP_deref] $rsp
	#DEBUG_VALUE: z15 <- $ymm10
	#DEBUG_VALUE: z12 <- $ymm2
	#DEBUG_VALUE: z1 <- $ymm5
	#DEBUG_VALUE: z6 <- $ymm6
	#DEBUG_VALUE: z11 <- $ymm7
	#DEBUG_VALUE: z13 <- $ymm1
	#DEBUG_VALUE: z2 <- $ymm9
	#DEBUG_VALUE: z7 <- [DW_OP_plus_uconst 96, DW_OP_deref] $rsp
	#DEBUG_VALUE: z4 <- $ymm15
	#DEBUG_VALUE: z14 <- [DW_OP_plus_uconst 64, DW_OP_deref] $rsp
	#DEBUG_VALUE: orig5 <- [DW_OP_plus_uconst 224, DW_OP_deref] $rsp
	#DEBUG_VALUE: orig10 <- [DW_OP_plus_uconst 576, DW_OP_deref] $rsp
	#DEBUG_VALUE: orig15 <- [DW_OP_plus_uconst 544, DW_OP_deref] $rsp
	#DEBUG_VALUE: orig12 <- [DW_OP_plus_uconst 512, DW_OP_deref] $rsp
	#DEBUG_VALUE: orig1 <- [DW_OP_plus_uconst 192, DW_OP_deref] $rsp
	#DEBUG_VALUE: orig6 <- [DW_OP_plus_uconst 160, DW_OP_deref] $rsp
	#DEBUG_VALUE: orig11 <- [DW_OP_plus_uconst 480, DW_OP_deref] $rsp
	#DEBUG_VALUE: orig13 <- [DW_OP_plus_uconst 448, DW_OP_deref] $rsp
	#DEBUG_VALUE: orig2 <- [DW_OP_plus_uconst 128, DW_OP_deref] $rsp
	#DEBUG_VALUE: orig7 <- [DW_OP_plus_uconst 384, DW_OP_deref] $rsp
	#DEBUG_VALUE: orig4 <- [DW_OP_plus_uconst 352, DW_OP_deref] $rsp
	#DEBUG_VALUE: orig14 <- [DW_OP_plus_uconst 416, DW_OP_deref] $rsp
	#DEBUG_VALUE: z3 <- [DW_OP_deref] $rsp
	#DEBUG_VALUE: orig3 <- [DW_OP_plus_uconst 320, DW_OP_deref] $rsp
	#DEBUG_VALUE: orig0 <- [DW_OP_plus_uconst 256, DW_OP_deref] $rsp
	#DEBUG_VALUE: z9 <- $ymm0
	#DEBUG_VALUE: z8 <- $ymm14
	#DEBUG_VALUE: orig8 <- [DW_OP_plus_uconst 640, DW_OP_deref] $rsp
	#DEBUG_VALUE: orig9 <- [DW_OP_plus_uconst 608, DW_OP_deref] $rsp
	#DEBUG_VALUE: y9 <- $ymm7
	#DEBUG_VALUE: y13 <- $ymm3
	#DEBUG_VALUE: y5 <- [DW_OP_plus_uconst 96, DW_OP_deref] $rsp
	#DEBUG_VALUE: y14 <- $ymm2
	#DEBUG_VALUE: y3 <- $ymm5
	#DEBUG_VALUE: y11 <- [DW_OP_plus_uconst 672, DW_OP_deref] $rsp
	#DEBUG_VALUE: y10 <- $ymm14
	#DEBUG_VALUE: y15 <- $ymm1
	.loc	12 461 18 is_stmt 1             # crypto_stream/salsa20/xmm6int/u8.h:461:18
	vpaddd	256(%rsp), %ymm8, %ymm3         # 32-byte Folded Reload
.Ltmp166:
	#DEBUG_VALUE: z0 <- $ymm3
	.loc	12 461 52 is_stmt 0             # crypto_stream/salsa20/xmm6int/u8.h:461:52
	vpaddd	192(%rsp), %ymm5, %ymm5         # 32-byte Folded Reload
.Ltmp167:
	#DEBUG_VALUE: z1 <- $ymm5
	#DEBUG_VALUE: z2 <- undef
	#DEBUG_VALUE: z3 <- undef
	.loc	12 461 154                      # crypto_stream/salsa20/xmm6int/u8.h:461:154
	vpunpckldq	%ymm5, %ymm3, %ymm4     # ymm4 = ymm3[0],ymm5[0],ymm3[1],ymm5[1],ymm3[4],ymm5[4],ymm3[5],ymm5[5]
.Ltmp168:
	#DEBUG_VALUE: y0 <- undef
	.loc	12 461 226                      # crypto_stream/salsa20/xmm6int/u8.h:461:226
	vpunpckhdq	%ymm5, %ymm3, %ymm5     # ymm5 = ymm3[2],ymm5[2],ymm3[3],ymm5[3],ymm3[6],ymm5[6],ymm3[7],ymm5[7]
.Ltmp169:
	#DEBUG_VALUE: y2 <- undef
	.loc	12 461 86                       # crypto_stream/salsa20/xmm6int/u8.h:461:86
	vpaddd	128(%rsp), %ymm9, %ymm3         # 32-byte Folded Reload
.Ltmp170:
	#DEBUG_VALUE: z2 <- $ymm3
	.loc	12 0 86                         # crypto_stream/salsa20/xmm6int/u8.h:0:86
	vmovdqu	(%rsp), %ymm8                   # 32-byte Reload
	.loc	12 461 120                      # crypto_stream/salsa20/xmm6int/u8.h:461:120
	vpaddd	320(%rsp), %ymm8, %ymm8         # 32-byte Folded Reload
.Ltmp171:
	#DEBUG_VALUE: z3 <- $ymm8
	.loc	12 461 190                      # crypto_stream/salsa20/xmm6int/u8.h:461:190
	vpunpckldq	%ymm8, %ymm3, %ymm9     # ymm9 = ymm3[0],ymm8[0],ymm3[1],ymm8[1],ymm3[4],ymm8[4],ymm3[5],ymm8[5]
.Ltmp172:
	#DEBUG_VALUE: y1 <- undef
	.loc	12 461 262                      # crypto_stream/salsa20/xmm6int/u8.h:461:262
	vpunpckhdq	%ymm8, %ymm3, %ymm3     # ymm3 = ymm3[2],ymm8[2],ymm3[3],ymm8[3],ymm3[6],ymm8[6],ymm3[7],ymm8[7]
.Ltmp173:
	#DEBUG_VALUE: y3 <- undef
	.loc	12 461 298                      # crypto_stream/salsa20/xmm6int/u8.h:461:298
	vpunpcklqdq	%ymm9, %ymm4, %ymm8     # ymm8 = ymm4[0],ymm9[0],ymm4[2],ymm9[2]
.Ltmp174:
	#DEBUG_VALUE: z0 <- undef
	.loc	12 461 334                      # crypto_stream/salsa20/xmm6int/u8.h:461:334
	vpunpckhqdq	%ymm9, %ymm4, %ymm4     # ymm4 = ymm4[1],ymm9[1],ymm4[3],ymm9[3]
.Ltmp175:
	#DEBUG_VALUE: z1 <- undef
	.loc	12 461 370                      # crypto_stream/salsa20/xmm6int/u8.h:461:370
	vpunpcklqdq	%ymm3, %ymm5, %ymm9     # ymm9 = ymm5[0],ymm3[0],ymm5[2],ymm3[2]
.Ltmp176:
	#DEBUG_VALUE: z2 <- undef
	.loc	12 461 406                      # crypto_stream/salsa20/xmm6int/u8.h:461:406
	vpunpckhqdq	%ymm3, %ymm5, %ymm5     # ymm5 = ymm5[1],ymm3[1],ymm5[3],ymm3[3]
.Ltmp177:
	#DEBUG_VALUE: z3 <- undef
	.loc	12 461 447                      # crypto_stream/salsa20/xmm6int/u8.h:461:447
	vpaddd	352(%rsp), %ymm15, %ymm3        # 32-byte Folded Reload
.Ltmp178:
	#DEBUG_VALUE: z4 <- $ymm3
	.loc	12 0 447                        # crypto_stream/salsa20/xmm6int/u8.h:0:447
	vmovdqu	%ymm10, (%rsp)                  # 32-byte Spill
.Ltmp179:
	#DEBUG_VALUE: z15 <- [DW_OP_deref] $rsp
	.loc	12 461 481                      # crypto_stream/salsa20/xmm6int/u8.h:461:481
	vpaddd	224(%rsp), %ymm11, %ymm10       # 32-byte Folded Reload
.Ltmp180:
	#DEBUG_VALUE: z5 <- $ymm10
	#DEBUG_VALUE: z6 <- undef
	#DEBUG_VALUE: z7 <- undef
	.loc	12 461 583                      # crypto_stream/salsa20/xmm6int/u8.h:461:583
	vpunpckldq	%ymm10, %ymm3, %ymm11   # ymm11 = ymm3[0],ymm10[0],ymm3[1],ymm10[1],ymm3[4],ymm10[4],ymm3[5],ymm10[5]
.Ltmp181:
	#DEBUG_VALUE: y4 <- undef
	.loc	12 461 655                      # crypto_stream/salsa20/xmm6int/u8.h:461:655
	vpunpckhdq	%ymm10, %ymm3, %ymm3    # ymm3 = ymm3[2],ymm10[2],ymm3[3],ymm10[3],ymm3[6],ymm10[6],ymm3[7],ymm10[7]
.Ltmp182:
	#DEBUG_VALUE: y6 <- undef
	.loc	12 461 515                      # crypto_stream/salsa20/xmm6int/u8.h:461:515
	vpaddd	160(%rsp), %ymm6, %ymm6         # 32-byte Folded Reload
.Ltmp183:
	#DEBUG_VALUE: z6 <- $ymm6
	.loc	12 0 515                        # crypto_stream/salsa20/xmm6int/u8.h:0:515
	vmovdqu	384(%rsp), %ymm10               # 32-byte Reload
.Ltmp184:
	.loc	12 461 549                      # crypto_stream/salsa20/xmm6int/u8.h:461:549
	vpaddd	96(%rsp), %ymm10, %ymm10        # 32-byte Folded Reload
.Ltmp185:
	#DEBUG_VALUE: z7 <- $ymm10
	.loc	12 461 619                      # crypto_stream/salsa20/xmm6int/u8.h:461:619
	vpunpckldq	%ymm10, %ymm6, %ymm12   # ymm12 = ymm6[0],ymm10[0],ymm6[1],ymm10[1],ymm6[4],ymm10[4],ymm6[5],ymm10[5]
.Ltmp186:
	#DEBUG_VALUE: y5 <- undef
	.loc	12 461 691                      # crypto_stream/salsa20/xmm6int/u8.h:461:691
	vpunpckhdq	%ymm10, %ymm6, %ymm6    # ymm6 = ymm6[2],ymm10[2],ymm6[3],ymm10[3],ymm6[6],ymm10[6],ymm6[7],ymm10[7]
.Ltmp187:
	#DEBUG_VALUE: y7 <- undef
	.loc	12 461 727                      # crypto_stream/salsa20/xmm6int/u8.h:461:727
	vpunpcklqdq	%ymm12, %ymm11, %ymm10  # ymm10 = ymm11[0],ymm12[0],ymm11[2],ymm12[2]
.Ltmp188:
	#DEBUG_VALUE: z4 <- undef
	.loc	12 461 763                      # crypto_stream/salsa20/xmm6int/u8.h:461:763
	vpunpckhqdq	%ymm12, %ymm11, %ymm11  # ymm11 = ymm11[1],ymm12[1],ymm11[3],ymm12[3]
.Ltmp189:
	#DEBUG_VALUE: z5 <- undef
	.loc	12 461 799                      # crypto_stream/salsa20/xmm6int/u8.h:461:799
	vpunpcklqdq	%ymm6, %ymm3, %ymm12    # ymm12 = ymm3[0],ymm6[0],ymm3[2],ymm6[2]
.Ltmp190:
	#DEBUG_VALUE: z6 <- undef
	.loc	12 461 835                      # crypto_stream/salsa20/xmm6int/u8.h:461:835
	vpunpckhqdq	%ymm6, %ymm3, %ymm3     # ymm3 = ymm3[1],ymm6[1],ymm3[3],ymm6[3]
.Ltmp191:
	#DEBUG_VALUE: z7 <- undef
	.loc	12 461 884                      # crypto_stream/salsa20/xmm6int/u8.h:461:884
	vinserti128	$1, %xmm10, %ymm8, %ymm6
.Ltmp192:
	#DEBUG_VALUE: y0 <- $ymm6
	.loc	12 461 969                      # crypto_stream/salsa20/xmm6int/u8.h:461:969
	vperm2i128	$49, %ymm10, %ymm8, %ymm8 # ymm8 = ymm8[2,3],ymm10[2,3]
.Ltmp193:
	#DEBUG_VALUE: y4 <- $ymm8
	.loc	12 461 1054                     # crypto_stream/salsa20/xmm6int/u8.h:461:1054
	vinserti128	$1, %xmm11, %ymm4, %ymm10
.Ltmp194:
	#DEBUG_VALUE: y1 <- $ymm10
	.loc	12 461 1139                     # crypto_stream/salsa20/xmm6int/u8.h:461:1139
	vperm2i128	$49, %ymm11, %ymm4, %ymm4 # ymm4 = ymm4[2,3],ymm11[2,3]
.Ltmp195:
	#DEBUG_VALUE: y5 <- $ymm4
	.loc	12 461 1224                     # crypto_stream/salsa20/xmm6int/u8.h:461:1224
	vinserti128	$1, %xmm12, %ymm9, %ymm11
.Ltmp196:
	#DEBUG_VALUE: y2 <- $ymm11
	.loc	12 461 1309                     # crypto_stream/salsa20/xmm6int/u8.h:461:1309
	vperm2i128	$49, %ymm12, %ymm9, %ymm9 # ymm9 = ymm9[2,3],ymm12[2,3]
.Ltmp197:
	#DEBUG_VALUE: y6 <- $ymm9
	.loc	12 461 1394                     # crypto_stream/salsa20/xmm6int/u8.h:461:1394
	vinserti128	$1, %xmm3, %ymm5, %ymm12
.Ltmp198:
	#DEBUG_VALUE: y3 <- $ymm12
	.loc	12 461 1479                     # crypto_stream/salsa20/xmm6int/u8.h:461:1479
	vperm2i128	$49, %ymm3, %ymm5, %ymm5 # ymm5 = ymm5[2,3],ymm3[2,3]
.Ltmp199:
	#DEBUG_VALUE: y7 <- $ymm5
	.loc	12 461 1554                     # crypto_stream/salsa20/xmm6int/u8.h:461:1554
	vpxor	(%rsi), %ymm6, %ymm3
.Ltmp200:
	#DEBUG_VALUE: y0 <- $ymm3
	.loc	12 461 1627                     # crypto_stream/salsa20/xmm6int/u8.h:461:1627
	vpxor	64(%rsi), %ymm10, %ymm6
.Ltmp201:
	#DEBUG_VALUE: y1 <- $ymm6
	.loc	12 461 1702                     # crypto_stream/salsa20/xmm6int/u8.h:461:1702
	vpxor	128(%rsi), %ymm11, %ymm10
.Ltmp202:
	#DEBUG_VALUE: y2 <- $ymm10
	.loc	12 461 1778                     # crypto_stream/salsa20/xmm6int/u8.h:461:1778
	vpxor	192(%rsi), %ymm12, %ymm11
.Ltmp203:
	#DEBUG_VALUE: y3 <- $ymm11
	.loc	12 461 1854                     # crypto_stream/salsa20/xmm6int/u8.h:461:1854
	vpxor	256(%rsi), %ymm8, %ymm8
.Ltmp204:
	#DEBUG_VALUE: y4 <- $ymm8
	.loc	12 461 1930                     # crypto_stream/salsa20/xmm6int/u8.h:461:1930
	vpxor	320(%rsi), %ymm4, %ymm4
.Ltmp205:
	#DEBUG_VALUE: y5 <- $ymm4
	.loc	12 461 2006                     # crypto_stream/salsa20/xmm6int/u8.h:461:2006
	vpxor	384(%rsi), %ymm9, %ymm9
.Ltmp206:
	#DEBUG_VALUE: y6 <- $ymm9
	.loc	12 461 2082                     # crypto_stream/salsa20/xmm6int/u8.h:461:2082
	vpxor	448(%rsi), %ymm5, %ymm5
.Ltmp207:
	#DEBUG_VALUE: y7 <- $ymm5
	.loc	12 461 2153                     # crypto_stream/salsa20/xmm6int/u8.h:461:2153
	vmovdqu	%ymm3, (%rdx)
	.loc	12 461 2198                     # crypto_stream/salsa20/xmm6int/u8.h:461:2198
	vmovdqu	%ymm6, 64(%rdx)
	.loc	12 461 2244                     # crypto_stream/salsa20/xmm6int/u8.h:461:2244
	vmovdqu	%ymm10, 128(%rdx)
	.loc	12 461 2291                     # crypto_stream/salsa20/xmm6int/u8.h:461:2291
	vmovdqu	%ymm11, 192(%rdx)
	.loc	12 461 2338                     # crypto_stream/salsa20/xmm6int/u8.h:461:2338
	vmovdqu	%ymm8, 256(%rdx)
	.loc	12 461 2385                     # crypto_stream/salsa20/xmm6int/u8.h:461:2385
	vmovdqu	%ymm4, 320(%rdx)
	.loc	12 461 2432                     # crypto_stream/salsa20/xmm6int/u8.h:461:2432
	vmovdqu	%ymm9, 384(%rdx)
	.loc	12 461 2479                     # crypto_stream/salsa20/xmm6int/u8.h:461:2479
	vmovdqu	%ymm5, 448(%rdx)
.Ltmp208:
	#DEBUG_VALUE: salsa20_encrypt_bytes:m <- undef
	#DEBUG_VALUE: salsa20_encrypt_bytes:c <- [DW_OP_plus_uconst 32, DW_OP_stack_value] $rdx
	.loc	12 464 18 is_stmt 1             # crypto_stream/salsa20/xmm6int/u8.h:464:18
	vpaddd	640(%rsp), %ymm14, %ymm5        # 32-byte Folded Reload
.Ltmp209:
	#DEBUG_VALUE: z8 <- $ymm5
	.loc	12 464 52 is_stmt 0             # crypto_stream/salsa20/xmm6int/u8.h:464:52
	vpaddd	608(%rsp), %ymm0, %ymm0         # 32-byte Folded Reload
.Ltmp210:
	#DEBUG_VALUE: z9 <- $ymm0
	.loc	12 0 52                         # crypto_stream/salsa20/xmm6int/u8.h:0:52
	vmovdqu	576(%rsp), %ymm12               # 32-byte Reload
	.loc	12 464 87                       # crypto_stream/salsa20/xmm6int/u8.h:464:87
	vpaddd	32(%rsp), %ymm12, %ymm3         # 32-byte Folded Reload
.Ltmp211:
	#DEBUG_VALUE: z10 <- $ymm3
	.loc	12 0 87                         # crypto_stream/salsa20/xmm6int/u8.h:0:87
	vmovdqu	480(%rsp), %ymm15               # 32-byte Reload
	.loc	12 464 124                      # crypto_stream/salsa20/xmm6int/u8.h:464:124
	vpaddd	%ymm7, %ymm15, %ymm4
.Ltmp212:
	#DEBUG_VALUE: z11 <- $ymm4
	.loc	12 464 160                      # crypto_stream/salsa20/xmm6int/u8.h:464:160
	vpunpckldq	%ymm0, %ymm5, %ymm6     # ymm6 = ymm5[0],ymm0[0],ymm5[1],ymm0[1],ymm5[4],ymm0[4],ymm5[5],ymm0[5]
.Ltmp213:
	#DEBUG_VALUE: y8 <- undef
	.loc	12 464 235                      # crypto_stream/salsa20/xmm6int/u8.h:464:235
	vpunpckhdq	%ymm0, %ymm5, %ymm0     # ymm0 = ymm5[2],ymm0[2],ymm5[3],ymm0[3],ymm5[6],ymm0[6],ymm5[7],ymm0[7]
.Ltmp214:
	#DEBUG_VALUE: y10 <- undef
	.loc	12 464 196                      # crypto_stream/salsa20/xmm6int/u8.h:464:196
	vpunpckldq	%ymm4, %ymm3, %ymm5     # ymm5 = ymm3[0],ymm4[0],ymm3[1],ymm4[1],ymm3[4],ymm4[4],ymm3[5],ymm4[5]
.Ltmp215:
	#DEBUG_VALUE: y9 <- undef
	.loc	12 464 272                      # crypto_stream/salsa20/xmm6int/u8.h:464:272
	vpunpckhdq	%ymm4, %ymm3, %ymm3     # ymm3 = ymm3[2],ymm4[2],ymm3[3],ymm4[3],ymm3[6],ymm4[6],ymm3[7],ymm4[7]
.Ltmp216:
	#DEBUG_VALUE: y11 <- undef
	.loc	12 464 310                      # crypto_stream/salsa20/xmm6int/u8.h:464:310
	vpunpcklqdq	%ymm5, %ymm6, %ymm4     # ymm4 = ymm6[0],ymm5[0],ymm6[2],ymm5[2]
.Ltmp217:
	#DEBUG_VALUE: z8 <- undef
	.loc	12 464 346                      # crypto_stream/salsa20/xmm6int/u8.h:464:346
	vpunpckhqdq	%ymm5, %ymm6, %ymm14    # ymm14 = ymm6[1],ymm5[1],ymm6[3],ymm5[3]
.Ltmp218:
	#DEBUG_VALUE: z9 <- undef
	.loc	12 464 383                      # crypto_stream/salsa20/xmm6int/u8.h:464:383
	vpunpcklqdq	%ymm3, %ymm0, %ymm6     # ymm6 = ymm0[0],ymm3[0],ymm0[2],ymm3[2]
.Ltmp219:
	#DEBUG_VALUE: z10 <- undef
	.loc	12 464 422                      # crypto_stream/salsa20/xmm6int/u8.h:464:422
	vpunpckhqdq	%ymm3, %ymm0, %ymm0     # ymm0 = ymm0[1],ymm3[1],ymm0[3],ymm3[3]
.Ltmp220:
	#DEBUG_VALUE: z11 <- undef
	.loc	12 0 422                        # crypto_stream/salsa20/xmm6int/u8.h:0:422
	vmovdqu	512(%rsp), %ymm9                # 32-byte Reload
.Ltmp221:
	.loc	12 464 466                      # crypto_stream/salsa20/xmm6int/u8.h:464:466
	vpaddd	%ymm2, %ymm9, %ymm3
.Ltmp222:
	#DEBUG_VALUE: z12 <- $ymm3
	.loc	12 0 466                        # crypto_stream/salsa20/xmm6int/u8.h:0:466
	vmovdqu	448(%rsp), %ymm11               # 32-byte Reload
.Ltmp223:
	.loc	12 464 503                      # crypto_stream/salsa20/xmm6int/u8.h:464:503
	vpaddd	%ymm1, %ymm11, %ymm1
.Ltmp224:
	#DEBUG_VALUE: z13 <- $ymm1
	.loc	12 0 503                        # crypto_stream/salsa20/xmm6int/u8.h:0:503
	vmovdqu	416(%rsp), %ymm13               # 32-byte Reload
	.loc	12 464 540                      # crypto_stream/salsa20/xmm6int/u8.h:464:540
	vpaddd	64(%rsp), %ymm13, %ymm5         # 32-byte Folded Reload
.Ltmp225:
	#DEBUG_VALUE: z14 <- $ymm5
	.loc	12 0 540                        # crypto_stream/salsa20/xmm6int/u8.h:0:540
	vmovdqu	544(%rsp), %ymm10               # 32-byte Reload
.Ltmp226:
	.loc	12 464 577                      # crypto_stream/salsa20/xmm6int/u8.h:464:577
	vpaddd	(%rsp), %ymm10, %ymm7           # 32-byte Folded Reload
.Ltmp227:
	#DEBUG_VALUE: z15 <- $ymm7
	.loc	12 464 614                      # crypto_stream/salsa20/xmm6int/u8.h:464:614
	vpunpckldq	%ymm1, %ymm3, %ymm8     # ymm8 = ymm3[0],ymm1[0],ymm3[1],ymm1[1],ymm3[4],ymm1[4],ymm3[5],ymm1[5]
.Ltmp228:
	#DEBUG_VALUE: y12 <- undef
	.loc	12 464 692                      # crypto_stream/salsa20/xmm6int/u8.h:464:692
	vpunpckhdq	%ymm1, %ymm3, %ymm1     # ymm1 = ymm3[2],ymm1[2],ymm3[3],ymm1[3],ymm3[6],ymm1[6],ymm3[7],ymm1[7]
.Ltmp229:
	#DEBUG_VALUE: y14 <- undef
	.loc	12 464 653                      # crypto_stream/salsa20/xmm6int/u8.h:464:653
	vpunpckldq	%ymm7, %ymm5, %ymm3     # ymm3 = ymm5[0],ymm7[0],ymm5[1],ymm7[1],ymm5[4],ymm7[4],ymm5[5],ymm7[5]
.Ltmp230:
	#DEBUG_VALUE: y13 <- undef
	.loc	12 464 731                      # crypto_stream/salsa20/xmm6int/u8.h:464:731
	vpunpckhdq	%ymm7, %ymm5, %ymm5     # ymm5 = ymm5[2],ymm7[2],ymm5[3],ymm7[3],ymm5[6],ymm7[6],ymm5[7],ymm7[7]
.Ltmp231:
	#DEBUG_VALUE: y15 <- undef
	.loc	12 464 770                      # crypto_stream/salsa20/xmm6int/u8.h:464:770
	vpunpcklqdq	%ymm3, %ymm8, %ymm7     # ymm7 = ymm8[0],ymm3[0],ymm8[2],ymm3[2]
.Ltmp232:
	#DEBUG_VALUE: z12 <- undef
	.loc	12 464 809                      # crypto_stream/salsa20/xmm6int/u8.h:464:809
	vpunpckhqdq	%ymm3, %ymm8, %ymm3     # ymm3 = ymm8[1],ymm3[1],ymm8[3],ymm3[3]
.Ltmp233:
	#DEBUG_VALUE: z13 <- undef
	.loc	12 464 848                      # crypto_stream/salsa20/xmm6int/u8.h:464:848
	vpunpcklqdq	%ymm5, %ymm1, %ymm8     # ymm8 = ymm1[0],ymm5[0],ymm1[2],ymm5[2]
.Ltmp234:
	#DEBUG_VALUE: z14 <- undef
	.loc	12 464 887                      # crypto_stream/salsa20/xmm6int/u8.h:464:887
	vpunpckhqdq	%ymm5, %ymm1, %ymm1     # ymm1 = ymm1[1],ymm5[1],ymm1[3],ymm5[3]
.Ltmp235:
	#DEBUG_VALUE: z15 <- undef
	.loc	12 464 938                      # crypto_stream/salsa20/xmm6int/u8.h:464:938
	vinserti128	$1, %xmm7, %ymm4, %ymm5
.Ltmp236:
	#DEBUG_VALUE: y8 <- $ymm5
	.loc	12 464 1025                     # crypto_stream/salsa20/xmm6int/u8.h:464:1025
	vperm2i128	$49, %ymm7, %ymm4, %ymm4 # ymm4 = ymm4[2,3],ymm7[2,3]
.Ltmp237:
	#DEBUG_VALUE: y12 <- $ymm4
	.loc	12 464 1111                     # crypto_stream/salsa20/xmm6int/u8.h:464:1111
	vinserti128	$1, %xmm3, %ymm14, %ymm7
.Ltmp238:
	#DEBUG_VALUE: y9 <- $ymm7
	.loc	12 464 1198                     # crypto_stream/salsa20/xmm6int/u8.h:464:1198
	vperm2i128	$49, %ymm3, %ymm14, %ymm2 # ymm2 = ymm14[2,3],ymm3[2,3]
.Ltmp239:
	#DEBUG_VALUE: y13 <- $ymm2
	.loc	12 464 1285                     # crypto_stream/salsa20/xmm6int/u8.h:464:1285
	vinserti128	$1, %xmm8, %ymm6, %ymm3
.Ltmp240:
	#DEBUG_VALUE: y10 <- $ymm3
	.loc	12 464 1373                     # crypto_stream/salsa20/xmm6int/u8.h:464:1373
	vperm2i128	$49, %ymm8, %ymm6, %ymm6 # ymm6 = ymm6[2,3],ymm8[2,3]
.Ltmp241:
	#DEBUG_VALUE: y14 <- $ymm6
	.loc	12 464 1461                     # crypto_stream/salsa20/xmm6int/u8.h:464:1461
	vinserti128	$1, %xmm1, %ymm0, %ymm8
.Ltmp242:
	#DEBUG_VALUE: y11 <- $ymm8
	.loc	12 464 1549                     # crypto_stream/salsa20/xmm6int/u8.h:464:1549
	vperm2i128	$49, %ymm1, %ymm0, %ymm0 # ymm0 = ymm0[2,3],ymm1[2,3]
.Ltmp243:
	#DEBUG_VALUE: y15 <- $ymm0
	.loc	12 464 1626                     # crypto_stream/salsa20/xmm6int/u8.h:464:1626
	vpxor	32(%rsi), %ymm5, %ymm1
.Ltmp244:
	#DEBUG_VALUE: y8 <- $ymm1
	.loc	12 464 1699                     # crypto_stream/salsa20/xmm6int/u8.h:464:1699
	vpxor	96(%rsi), %ymm7, %ymm5
.Ltmp245:
	#DEBUG_VALUE: y9 <- $ymm5
	.loc	12 464 1775                     # crypto_stream/salsa20/xmm6int/u8.h:464:1775
	vpxor	160(%rsi), %ymm3, %ymm3
.Ltmp246:
	#DEBUG_VALUE: y10 <- $ymm3
	.loc	12 464 1853                     # crypto_stream/salsa20/xmm6int/u8.h:464:1853
	vpxor	224(%rsi), %ymm8, %ymm7
.Ltmp247:
	#DEBUG_VALUE: y11 <- $ymm7
	.loc	12 0 1853                       # crypto_stream/salsa20/xmm6int/u8.h:0:1853
	vmovdqu	256(%rsp), %ymm8                # 32-byte Reload
	.loc	12 464 1931                     # crypto_stream/salsa20/xmm6int/u8.h:464:1931
	vpxor	288(%rsi), %ymm4, %ymm4
.Ltmp248:
	#DEBUG_VALUE: y12 <- $ymm4
	.loc	12 464 2009                     # crypto_stream/salsa20/xmm6int/u8.h:464:2009
	vpxor	352(%rsi), %ymm2, %ymm2
.Ltmp249:
	#DEBUG_VALUE: y13 <- $ymm2
	.loc	12 464 2087                     # crypto_stream/salsa20/xmm6int/u8.h:464:2087
	vpxor	416(%rsi), %ymm6, %ymm6
.Ltmp250:
	#DEBUG_VALUE: y14 <- $ymm6
	.loc	12 464 2165                     # crypto_stream/salsa20/xmm6int/u8.h:464:2165
	vpxor	480(%rsi), %ymm0, %ymm0
.Ltmp251:
	#DEBUG_VALUE: y15 <- $ymm0
	.loc	12 464 2237                     # crypto_stream/salsa20/xmm6int/u8.h:464:2237
	vmovdqu	%ymm1, 32(%rdx)
	.loc	12 464 2282                     # crypto_stream/salsa20/xmm6int/u8.h:464:2282
	vmovdqu	%ymm5, 96(%rdx)
	.loc	12 464 2328                     # crypto_stream/salsa20/xmm6int/u8.h:464:2328
	vmovdqu	%ymm3, 160(%rdx)
	vmovdqu	192(%rsp), %ymm5                # 32-byte Reload
.Ltmp252:
	.loc	12 464 2376                     # crypto_stream/salsa20/xmm6int/u8.h:464:2376
	vmovdqu	%ymm7, 224(%rdx)
	.loc	12 464 2424                     # crypto_stream/salsa20/xmm6int/u8.h:464:2424
	vmovdqu	%ymm4, 288(%rdx)
	vmovdqa	%ymm11, %ymm4
.Ltmp253:
	.loc	12 0 2424                       # crypto_stream/salsa20/xmm6int/u8.h:0:2424
	vmovdqu	224(%rsp), %ymm11               # 32-byte Reload
	.loc	12 464 2472                     # crypto_stream/salsa20/xmm6int/u8.h:464:2472
	vmovdqu	%ymm2, 352(%rdx)
	.loc	12 464 2520                     # crypto_stream/salsa20/xmm6int/u8.h:464:2520
	vmovdqu	%ymm6, 416(%rdx)
	vmovdqu	160(%rsp), %ymm6                # 32-byte Reload
.Ltmp254:
	.loc	12 464 2568                     # crypto_stream/salsa20/xmm6int/u8.h:464:2568
	vmovdqu	%ymm0, 480(%rdx)
.Ltmp255:
	#DEBUG_VALUE: salsa20_encrypt_bytes:m <- $rsi
	#DEBUG_VALUE: salsa20_encrypt_bytes:c <- $rdx
	.loc	12 473 15 is_stmt 1             # crypto_stream/salsa20/xmm6int/u8.h:473:15
	addq	$-512, %rcx                     # imm = 0xFE00
.Ltmp256:
	#DEBUG_VALUE: salsa20_encrypt_bytes:bytes <- $rcx
	.loc	12 474 11                       # crypto_stream/salsa20/xmm6int/u8.h:474:11
	addq	$512, %rdx                      # imm = 0x200
.Ltmp257:
	#DEBUG_VALUE: salsa20_encrypt_bytes:c <- $rdx
	.loc	12 475 11                       # crypto_stream/salsa20/xmm6int/u8.h:475:11
	addq	$512, %rsi                      # imm = 0x200
.Ltmp258:
	#DEBUG_VALUE: salsa20_encrypt_bytes:m <- $rsi
	.loc	12 44 18                        # crypto_stream/salsa20/xmm6int/u8.h:44:18
	cmpq	$511, %rcx                      # imm = 0x1FF
	.loc	12 44 5 is_stmt 0               # crypto_stream/salsa20/xmm6int/u8.h:44:5
	ja	.LBB2_2
.Ltmp259:
.LBB2_5:                                # %.loopexit1764
	#DEBUG_VALUE: salsa20_encrypt_bytes:ctx <- $rdi
	#DEBUG_VALUE: salsa20_encrypt_bytes:m <- $rsi
	#DEBUG_VALUE: salsa20_encrypt_bytes:c <- $rdx
	#DEBUG_VALUE: salsa20_encrypt_bytes:bytes <- $rcx
	#DEBUG_VALUE: salsa20_encrypt_bytes:m <- $rsi
	#DEBUG_VALUE: salsa20_encrypt_bytes:c <- $rdx
	#DEBUG_VALUE: salsa20_encrypt_bytes:bytes <- $rcx
	.file	13 "crypto_stream/salsa20/xmm6int" "u4.h"
	.loc	13 1 11 is_stmt 1               # crypto_stream/salsa20/xmm6int/u4.h:1:11
	cmpq	$256, %rcx                      # imm = 0x100
	jb	.LBB2_10
.Ltmp260:
# %bb.6:
	#DEBUG_VALUE: salsa20_encrypt_bytes:ctx <- $rdi
	#DEBUG_VALUE: salsa20_encrypt_bytes:m <- $rsi
	#DEBUG_VALUE: salsa20_encrypt_bytes:c <- $rdx
	#DEBUG_VALUE: salsa20_encrypt_bytes:bytes <- $rcx
	#DEBUG_VALUE: z0 <- undef
	.loc	13 16 20                        # crypto_stream/salsa20/xmm6int/u4.h:16:20
	vbroadcastss	4(%rdi), %xmm0
.Ltmp261:
	#DEBUG_VALUE: z5 <- $xmm0
	.loc	13 0 20 is_stmt 0               # crypto_stream/salsa20/xmm6int/u4.h:0:20
	vmovaps	%xmm0, 256(%rsp)                # 16-byte Spill
.Ltmp262:
	#DEBUG_VALUE: z5 <- [DW_OP_plus_uconst 256, DW_OP_deref] $rsp
	.loc	13 17 21 is_stmt 1              # crypto_stream/salsa20/xmm6int/u4.h:17:21
	vpbroadcastd	8(%rdi), %xmm7
.Ltmp263:
	#DEBUG_VALUE: z10 <- $xmm7
	.loc	13 18 21                        # crypto_stream/salsa20/xmm6int/u4.h:18:21
	vpbroadcastd	12(%rdi), %xmm6
.Ltmp264:
	#DEBUG_VALUE: z15 <- $xmm6
	.loc	13 19 20                        # crypto_stream/salsa20/xmm6int/u4.h:19:20
	vpbroadcastd	(%rdi), %xmm2
.Ltmp265:
	#DEBUG_VALUE: z0 <- $xmm2
	#DEBUG_VALUE: z1 <- undef
	.loc	13 21 20                        # crypto_stream/salsa20/xmm6int/u4.h:21:20
	vpbroadcastd	24(%rdi), %xmm13
.Ltmp266:
	#DEBUG_VALUE: z6 <- $xmm13
	.loc	13 22 21                        # crypto_stream/salsa20/xmm6int/u4.h:22:21
	vpbroadcastd	28(%rdi), %xmm5
.Ltmp267:
	#DEBUG_VALUE: z11 <- $xmm5
	.loc	13 23 21                        # crypto_stream/salsa20/xmm6int/u4.h:23:21
	vpbroadcastd	16(%rdi), %xmm3
.Ltmp268:
	#DEBUG_VALUE: z12 <- $xmm3
	.loc	13 24 20                        # crypto_stream/salsa20/xmm6int/u4.h:24:20
	vpbroadcastd	20(%rdi), %xmm11
.Ltmp269:
	#DEBUG_VALUE: z1 <- $xmm11
	#DEBUG_VALUE: z2 <- undef
	.loc	13 26 20                        # crypto_stream/salsa20/xmm6int/u4.h:26:20
	vpbroadcastd	44(%rdi), %xmm4
.Ltmp270:
	#DEBUG_VALUE: z7 <- $xmm4
	.loc	13 27 21                        # crypto_stream/salsa20/xmm6int/u4.h:27:21
	vpbroadcastd	36(%rdi), %xmm8
.Ltmp271:
	#DEBUG_VALUE: z13 <- $xmm8
	.loc	13 28 20                        # crypto_stream/salsa20/xmm6int/u4.h:28:20
	vpbroadcastd	40(%rdi), %xmm10
.Ltmp272:
	#DEBUG_VALUE: z2 <- $xmm10
	#DEBUG_VALUE: z3 <- undef
	.loc	13 31 20                        # crypto_stream/salsa20/xmm6int/u4.h:31:20
	vpbroadcastd	48(%rdi), %xmm0
.Ltmp273:
	#DEBUG_VALUE: z4 <- $xmm0
	.loc	13 0 20 is_stmt 0               # crypto_stream/salsa20/xmm6int/u4.h:0:20
	vmovdqa	%xmm0, 160(%rsp)                # 16-byte Spill
.Ltmp274:
	#DEBUG_VALUE: z4 <- [DW_OP_plus_uconst 160, DW_OP_deref] $rsp
	.loc	13 32 21 is_stmt 1              # crypto_stream/salsa20/xmm6int/u4.h:32:21
	vpbroadcastd	56(%rdi), %xmm12
.Ltmp275:
	#DEBUG_VALUE: z14 <- $xmm12
	.loc	13 33 20                        # crypto_stream/salsa20/xmm6int/u4.h:33:20
	vpbroadcastd	60(%rdi), %xmm15
	#DEBUG_VALUE: salsa20_encrypt_bytes:m <- $rsi
	#DEBUG_VALUE: salsa20_encrypt_bytes:c <- $rdx
	#DEBUG_VALUE: salsa20_encrypt_bytes:bytes <- $rcx
.Ltmp276:
	#DEBUG_VALUE: orig12 <- $xmm3
	#DEBUG_VALUE: orig4 <- [DW_OP_plus_uconst 160, DW_OP_deref] $rsp
	#DEBUG_VALUE: orig5 <- [DW_OP_plus_uconst 256, DW_OP_deref] $rsp
	#DEBUG_VALUE: orig10 <- $xmm7
	#DEBUG_VALUE: orig15 <- $xmm6
	#DEBUG_VALUE: z3 <- $xmm15
	#DEBUG_VALUE: orig3 <- $xmm15
	#DEBUG_VALUE: orig14 <- $xmm12
	#DEBUG_VALUE: orig2 <- $xmm10
	#DEBUG_VALUE: orig13 <- $xmm8
	#DEBUG_VALUE: orig7 <- $xmm4
	#DEBUG_VALUE: orig1 <- $xmm11
	#DEBUG_VALUE: orig11 <- $xmm5
	#DEBUG_VALUE: orig6 <- $xmm13
	#DEBUG_VALUE: orig0 <- $xmm2
	.loc	13 0 20 is_stmt 0               # crypto_stream/salsa20/xmm6int/u4.h:0:20
	vmovdqa	%xmm7, 320(%rsp)                # 16-byte Spill
.Ltmp277:
	#DEBUG_VALUE: orig10 <- [DW_OP_plus_uconst 320, DW_OP_deref] $rsp
	#DEBUG_VALUE: z10 <- [DW_OP_plus_uconst 320, DW_OP_deref] $rsp
	vmovdqa	%xmm6, 640(%rsp)                # 16-byte Spill
.Ltmp278:
	#DEBUG_VALUE: orig15 <- [DW_OP_plus_uconst 640, DW_OP_deref] $rsp
	#DEBUG_VALUE: z15 <- [DW_OP_plus_uconst 640, DW_OP_deref] $rsp
	vmovdqa	%xmm2, 224(%rsp)                # 16-byte Spill
.Ltmp279:
	#DEBUG_VALUE: orig0 <- [DW_OP_plus_uconst 224, DW_OP_deref] $rsp
	#DEBUG_VALUE: z0 <- [DW_OP_plus_uconst 224, DW_OP_deref] $rsp
	vmovdqa	%xmm13, 608(%rsp)               # 16-byte Spill
.Ltmp280:
	#DEBUG_VALUE: orig6 <- [DW_OP_plus_uconst 608, DW_OP_deref] $rsp
	#DEBUG_VALUE: z6 <- [DW_OP_plus_uconst 608, DW_OP_deref] $rsp
	vmovdqa	%xmm5, 576(%rsp)                # 16-byte Spill
.Ltmp281:
	#DEBUG_VALUE: orig11 <- [DW_OP_plus_uconst 576, DW_OP_deref] $rsp
	#DEBUG_VALUE: z11 <- [DW_OP_plus_uconst 576, DW_OP_deref] $rsp
	vmovdqa	%xmm3, 544(%rsp)                # 16-byte Spill
.Ltmp282:
	#DEBUG_VALUE: orig12 <- [DW_OP_plus_uconst 544, DW_OP_deref] $rsp
	#DEBUG_VALUE: z12 <- [DW_OP_plus_uconst 544, DW_OP_deref] $rsp
	vmovdqa	%xmm11, 512(%rsp)               # 16-byte Spill
.Ltmp283:
	#DEBUG_VALUE: orig1 <- [DW_OP_plus_uconst 512, DW_OP_deref] $rsp
	#DEBUG_VALUE: z1 <- [DW_OP_plus_uconst 512, DW_OP_deref] $rsp
	vmovdqa	%xmm4, 480(%rsp)                # 16-byte Spill
.Ltmp284:
	#DEBUG_VALUE: orig7 <- [DW_OP_plus_uconst 480, DW_OP_deref] $rsp
	#DEBUG_VALUE: z7 <- [DW_OP_plus_uconst 480, DW_OP_deref] $rsp
	vmovdqa	%xmm8, 448(%rsp)                # 16-byte Spill
.Ltmp285:
	#DEBUG_VALUE: orig13 <- [DW_OP_plus_uconst 448, DW_OP_deref] $rsp
	#DEBUG_VALUE: z13 <- [DW_OP_plus_uconst 448, DW_OP_deref] $rsp
	vmovdqa	%xmm10, 192(%rsp)               # 16-byte Spill
.Ltmp286:
	#DEBUG_VALUE: orig2 <- [DW_OP_plus_uconst 192, DW_OP_deref] $rsp
	#DEBUG_VALUE: z2 <- [DW_OP_plus_uconst 192, DW_OP_deref] $rsp
	vmovdqa	%xmm12, 416(%rsp)               # 16-byte Spill
.Ltmp287:
	#DEBUG_VALUE: orig14 <- [DW_OP_plus_uconst 416, DW_OP_deref] $rsp
	#DEBUG_VALUE: z14 <- [DW_OP_plus_uconst 416, DW_OP_deref] $rsp
	vmovdqa	%xmm15, 128(%rsp)               # 16-byte Spill
.Ltmp288:
	#DEBUG_VALUE: orig3 <- [DW_OP_plus_uconst 128, DW_OP_deref] $rsp
	#DEBUG_VALUE: z3 <- [DW_OP_plus_uconst 128, DW_OP_deref] $rsp
	.p2align	4
.LBB2_7:                                # =>This Loop Header: Depth=1
                                        #     Child Loop BB2_8 Depth 2
	#DEBUG_VALUE: salsa20_encrypt_bytes:ctx <- $rdi
	#DEBUG_VALUE: salsa20_encrypt_bytes:m <- $rsi
	#DEBUG_VALUE: salsa20_encrypt_bytes:c <- $rdx
	#DEBUG_VALUE: salsa20_encrypt_bytes:bytes <- $rcx
	#DEBUG_VALUE: orig12 <- [DW_OP_plus_uconst 544, DW_OP_deref] $rsp
	#DEBUG_VALUE: orig4 <- [DW_OP_plus_uconst 160, DW_OP_deref] $rsp
	#DEBUG_VALUE: orig5 <- [DW_OP_plus_uconst 256, DW_OP_deref] $rsp
	#DEBUG_VALUE: orig10 <- [DW_OP_plus_uconst 320, DW_OP_deref] $rsp
	#DEBUG_VALUE: orig15 <- [DW_OP_plus_uconst 640, DW_OP_deref] $rsp
	#DEBUG_VALUE: orig3 <- [DW_OP_plus_uconst 128, DW_OP_deref] $rsp
	#DEBUG_VALUE: orig14 <- [DW_OP_plus_uconst 416, DW_OP_deref] $rsp
	#DEBUG_VALUE: orig2 <- [DW_OP_plus_uconst 192, DW_OP_deref] $rsp
	#DEBUG_VALUE: orig13 <- [DW_OP_plus_uconst 448, DW_OP_deref] $rsp
	#DEBUG_VALUE: orig7 <- [DW_OP_plus_uconst 480, DW_OP_deref] $rsp
	#DEBUG_VALUE: orig1 <- [DW_OP_plus_uconst 512, DW_OP_deref] $rsp
	#DEBUG_VALUE: orig11 <- [DW_OP_plus_uconst 576, DW_OP_deref] $rsp
	#DEBUG_VALUE: orig6 <- [DW_OP_plus_uconst 608, DW_OP_deref] $rsp
	#DEBUG_VALUE: orig0 <- [DW_OP_plus_uconst 224, DW_OP_deref] $rsp
	#DEBUG_VALUE: salsa20_encrypt_bytes:m <- $rsi
	#DEBUG_VALUE: salsa20_encrypt_bytes:c <- $rdx
	#DEBUG_VALUE: salsa20_encrypt_bytes:bytes <- $rcx
	.loc	13 58 15 is_stmt 1              # crypto_stream/salsa20/xmm6int/u4.h:58:15
	movl	32(%rdi), %eax
.Ltmp289:
	#DEBUG_VALUE: in8 <- undef
	#DEBUG_VALUE: in9 <- undef
	.loc	13 60 37                        # crypto_stream/salsa20/xmm6int/u4.h:60:37
	movl	52(%rdi), %r8d
	.loc	13 60 53 is_stmt 0              # crypto_stream/salsa20/xmm6int/u4.h:60:53
	shlq	$32, %r8
	.loc	13 60 33                        # crypto_stream/salsa20/xmm6int/u4.h:60:33
	leaq	(%r8,%rax), %r9
.Ltmp290:
	#DEBUG_VALUE: in89 <- $r9
	.loc	13 61 14 is_stmt 1              # crypto_stream/salsa20/xmm6int/u4.h:61:14
	vmovq	%r9, %xmm0
	vpbroadcastq	%xmm0, %xmm0
.Ltmp291:
	#DEBUG_VALUE: t8 <- $xmm0
	#DEBUG_VALUE: t9 <- $xmm0
	.loc	13 64 14                        # crypto_stream/salsa20/xmm6int/u4.h:64:14
	vpaddq	.LCPI2_2(%rip), %xmm0, %xmm1
.Ltmp292:
	#DEBUG_VALUE: z8 <- undef
	#DEBUG_VALUE: addv8 <- undef
	.loc	13 65 14                        # crypto_stream/salsa20/xmm6int/u4.h:65:14
	vpaddq	.LCPI2_3(%rip), %xmm0, %xmm0
.Ltmp293:
	#DEBUG_VALUE: z9 <- undef
	#DEBUG_VALUE: addv9 <- undef
	#DEBUG_VALUE: t8 <- undef
	#DEBUG_VALUE: t9 <- undef
	.loc	13 70 14                        # crypto_stream/salsa20/xmm6int/u4.h:70:14
	vshufps	$136, %xmm0, %xmm1, %xmm14      # xmm14 = xmm1[0,2],xmm0[0,2]
.Ltmp294:
	#DEBUG_VALUE: z8 <- $xmm14
	.loc	13 71 14                        # crypto_stream/salsa20/xmm6int/u4.h:71:14
	vshufps	$221, %xmm0, %xmm1, %xmm1       # xmm1 = xmm1[1,3],xmm0[1,3]
.Ltmp295:
	#DEBUG_VALUE: z9 <- $xmm1
	#DEBUG_VALUE: orig9 <- $xmm1
	#DEBUG_VALUE: orig8 <- $xmm14
	.loc	13 76 14                        # crypto_stream/salsa20/xmm6int/u4.h:76:14
	addq	%r8, %rax
	addq	$4, %rax
.Ltmp296:
	#DEBUG_VALUE: in89 <- $rax
	.loc	13 78 14                        # crypto_stream/salsa20/xmm6int/u4.h:78:14
	movl	%eax, 32(%rdi)
	.loc	13 79 23                        # crypto_stream/salsa20/xmm6int/u4.h:79:23
	shrq	$32, %rax
.Ltmp297:
	.loc	13 79 15 is_stmt 0              # crypto_stream/salsa20/xmm6int/u4.h:79:15
	movl	%eax, 52(%rdi)
	movl	$-2, %eax
.Ltmp298:
	#DEBUG_VALUE: z5 <- [DW_OP_plus_uconst 256, DW_OP_deref] $rsp
	#DEBUG_VALUE: z10 <- [DW_OP_plus_uconst 320, DW_OP_deref] $rsp
	#DEBUG_VALUE: z15 <- [DW_OP_plus_uconst 640, DW_OP_deref] $rsp
	#DEBUG_VALUE: z14 <- [DW_OP_plus_uconst 416, DW_OP_deref] $rsp
	#DEBUG_VALUE: z3 <- [DW_OP_plus_uconst 128, DW_OP_deref] $rsp
	#DEBUG_VALUE: z6 <- [DW_OP_plus_uconst 608, DW_OP_deref] $rsp
	#DEBUG_VALUE: z11 <- [DW_OP_plus_uconst 576, DW_OP_deref] $rsp
	#DEBUG_VALUE: z1 <- [DW_OP_plus_uconst 512, DW_OP_deref] $rsp
	#DEBUG_VALUE: z7 <- [DW_OP_plus_uconst 480, DW_OP_deref] $rsp
	#DEBUG_VALUE: z13 <- [DW_OP_plus_uconst 448, DW_OP_deref] $rsp
	#DEBUG_VALUE: z2 <- [DW_OP_plus_uconst 192, DW_OP_deref] $rsp
	#DEBUG_VALUE: z0 <- [DW_OP_plus_uconst 224, DW_OP_deref] $rsp
	#DEBUG_VALUE: z12 <- [DW_OP_plus_uconst 544, DW_OP_deref] $rsp
	#DEBUG_VALUE: z4 <- [DW_OP_plus_uconst 160, DW_OP_deref] $rsp
	#DEBUG_VALUE: i <- 0
	.loc	13 0 15                         # crypto_stream/salsa20/xmm6int/u4.h:0:15
	vmovdqa	%xmm11, %xmm9
	vmovdqa	%xmm15, 32(%rsp)                # 16-byte Spill
	vmovdqa	160(%rsp), %xmm15               # 16-byte Reload
	vmovdqa	256(%rsp), %xmm0                # 16-byte Reload
	vmovdqa	%xmm13, 96(%rsp)                # 16-byte Spill
	vmovdqa	%xmm4, 64(%rsp)                 # 16-byte Spill
	vmovdqa	%xmm8, %xmm4
	vmovaps	%xmm14, 384(%rsp)               # 16-byte Spill
.Ltmp299:
	#DEBUG_VALUE: orig8 <- [DW_OP_plus_uconst 384, DW_OP_deref] $rsp
	#DEBUG_VALUE: z8 <- [DW_OP_plus_uconst 384, DW_OP_deref] $rsp
	vmovaps	%xmm1, 352(%rsp)                # 16-byte Spill
.Ltmp300:
	#DEBUG_VALUE: orig9 <- [DW_OP_plus_uconst 352, DW_OP_deref] $rsp
	#DEBUG_VALUE: z9 <- [DW_OP_plus_uconst 352, DW_OP_deref] $rsp
	vmovaps	%xmm1, %xmm11
	vmovdqa	%xmm7, %xmm8
	vmovdqa	%xmm3, %xmm1
	vmovdqa	%xmm12, (%rsp)                  # 16-byte Spill
	vmovdqa	%xmm6, %xmm3
.Ltmp301:
	.p2align	4
.LBB2_8:                                #   Parent Loop BB2_7 Depth=1
                                        # =>  This Inner Loop Header: Depth=2
	#DEBUG_VALUE: salsa20_encrypt_bytes:ctx <- $rdi
	#DEBUG_VALUE: salsa20_encrypt_bytes:m <- $rsi
	#DEBUG_VALUE: salsa20_encrypt_bytes:c <- $rdx
	#DEBUG_VALUE: salsa20_encrypt_bytes:bytes <- $rcx
	#DEBUG_VALUE: z0 <- $xmm2
	#DEBUG_VALUE: z5 <- $xmm0
	#DEBUG_VALUE: z6 <- [DW_OP_plus_uconst 96, DW_OP_deref] $rsp
	#DEBUG_VALUE: z2 <- $xmm10
	#DEBUG_VALUE: z3 <- [DW_OP_plus_uconst 32, DW_OP_deref] $rsp
	#DEBUG_VALUE: z4 <- $xmm15
	#DEBUG_VALUE: z14 <- $xmm12
	#DEBUG_VALUE: orig12 <- [DW_OP_plus_uconst 544, DW_OP_deref] $rsp
	#DEBUG_VALUE: orig4 <- [DW_OP_plus_uconst 160, DW_OP_deref] $rsp
	#DEBUG_VALUE: orig5 <- [DW_OP_plus_uconst 256, DW_OP_deref] $rsp
	#DEBUG_VALUE: orig10 <- [DW_OP_plus_uconst 320, DW_OP_deref] $rsp
	#DEBUG_VALUE: orig15 <- [DW_OP_plus_uconst 640, DW_OP_deref] $rsp
	#DEBUG_VALUE: orig3 <- [DW_OP_plus_uconst 128, DW_OP_deref] $rsp
	#DEBUG_VALUE: orig14 <- [DW_OP_plus_uconst 416, DW_OP_deref] $rsp
	#DEBUG_VALUE: orig2 <- [DW_OP_plus_uconst 192, DW_OP_deref] $rsp
	#DEBUG_VALUE: orig13 <- [DW_OP_plus_uconst 448, DW_OP_deref] $rsp
	#DEBUG_VALUE: orig7 <- [DW_OP_plus_uconst 480, DW_OP_deref] $rsp
	#DEBUG_VALUE: orig1 <- [DW_OP_plus_uconst 512, DW_OP_deref] $rsp
	#DEBUG_VALUE: orig11 <- [DW_OP_plus_uconst 576, DW_OP_deref] $rsp
	#DEBUG_VALUE: orig6 <- [DW_OP_plus_uconst 608, DW_OP_deref] $rsp
	#DEBUG_VALUE: orig0 <- [DW_OP_plus_uconst 224, DW_OP_deref] $rsp
	#DEBUG_VALUE: z8 <- $xmm14
	#DEBUG_VALUE: z9 <- $xmm11
	#DEBUG_VALUE: orig9 <- [DW_OP_plus_uconst 352, DW_OP_deref] $rsp
	#DEBUG_VALUE: orig8 <- [DW_OP_plus_uconst 384, DW_OP_deref] $rsp
	#DEBUG_VALUE: z0 <- $xmm2
	#DEBUG_VALUE: z1 <- $xmm9
	#DEBUG_VALUE: z2 <- $xmm10
	#DEBUG_VALUE: z3 <- [DW_OP_plus_uconst 32, DW_OP_deref] $rsp
	#DEBUG_VALUE: z4 <- $xmm15
	#DEBUG_VALUE: z5 <- $xmm0
	#DEBUG_VALUE: z6 <- [DW_OP_plus_uconst 96, DW_OP_deref] $rsp
	#DEBUG_VALUE: z7 <- [DW_OP_plus_uconst 64, DW_OP_deref] $rsp
	#DEBUG_VALUE: z8 <- $xmm14
	#DEBUG_VALUE: z9 <- $xmm11
	#DEBUG_VALUE: z10 <- $xmm8
	#DEBUG_VALUE: z11 <- $xmm5
	#DEBUG_VALUE: z12 <- $xmm1
	#DEBUG_VALUE: z13 <- $xmm4
	#DEBUG_VALUE: z14 <- [DW_OP_deref] $rsp
	#DEBUG_VALUE: z15 <- $xmm3
	#DEBUG_VALUE: i <- [DW_OP_plus_uconst 2, DW_OP_stack_value] $eax
	#DEBUG_VALUE: y4 <- $xmm1
	.loc	13 106 18 is_stmt 1             # crypto_stream/salsa20/xmm6int/u4.h:106:18
	vpaddd	%xmm1, %xmm2, %xmm13
.Ltmp302:
	#DEBUG_VALUE: y4 <- [DW_OP_LLVM_arg 0, DW_OP_LLVM_arg 0, DW_OP_shl, DW_OP_stack_value] undef
	#DEBUG_VALUE: z4 <- [DW_OP_LLVM_arg 0, DW_OP_LLVM_arg 0, DW_OP_LLVM_arg 0, DW_OP_shl, DW_OP_xor, DW_OP_stack_value] undef
	#DEBUG_VALUE: r4 <- [DW_OP_LLVM_arg 0, DW_OP_LLVM_arg 0, DW_OP_shr, DW_OP_stack_value] undef
	.loc	13 111 18                       # crypto_stream/salsa20/xmm6int/u4.h:111:18
	vpsrld	$25, %xmm13, %xmm12
	vpslld	$7, %xmm13, %xmm13
	vpor	%xmm12, %xmm13, %xmm12
	vpxor	%xmm12, %xmm15, %xmm15
.Ltmp303:
	#DEBUG_VALUE: z4 <- $xmm15
	#DEBUG_VALUE: y9 <- $xmm9
	.loc	13 114 18                       # crypto_stream/salsa20/xmm6int/u4.h:114:18
	vpaddd	%xmm0, %xmm9, %xmm12
.Ltmp304:
	#DEBUG_VALUE: r9 <- [DW_OP_LLVM_arg 0, DW_OP_LLVM_arg 0, DW_OP_shr, DW_OP_stack_value] undef
	#DEBUG_VALUE: y9 <- undef
	#DEBUG_VALUE: z9 <- undef
	.loc	13 119 18                       # crypto_stream/salsa20/xmm6int/u4.h:119:18
	vpsrld	$25, %xmm12, %xmm13
	vpslld	$7, %xmm12, %xmm12
	vpor	%xmm13, %xmm12, %xmm12
	vxorps	%xmm12, %xmm11, %xmm6
.Ltmp305:
	#DEBUG_VALUE: z9 <- $xmm6
	#DEBUG_VALUE: y8 <- $xmm2
	.loc	13 0 18 is_stmt 0               # crypto_stream/salsa20/xmm6int/u4.h:0:18
	vmovaps	%xmm6, 672(%rsp)                # 16-byte Spill
.Ltmp306:
	#DEBUG_VALUE: z9 <- [DW_OP_plus_uconst 672, DW_OP_deref] $rsp
	.loc	13 122 18 is_stmt 1             # crypto_stream/salsa20/xmm6int/u4.h:122:18
	vpaddd	%xmm2, %xmm15, %xmm12
.Ltmp307:
	#DEBUG_VALUE: y8 <- [DW_OP_LLVM_arg 0, DW_OP_LLVM_arg 0, DW_OP_shl, DW_OP_stack_value] undef
	#DEBUG_VALUE: z8 <- [DW_OP_LLVM_arg 0, DW_OP_LLVM_arg 0, DW_OP_LLVM_arg 0, DW_OP_shl, DW_OP_xor, DW_OP_stack_value] undef
	#DEBUG_VALUE: r8 <- [DW_OP_LLVM_arg 0, DW_OP_LLVM_arg 0, DW_OP_shr, DW_OP_stack_value] undef
	.loc	13 127 18                       # crypto_stream/salsa20/xmm6int/u4.h:127:18
	vpsrld	$23, %xmm12, %xmm13
	vpslld	$9, %xmm12, %xmm12
	vpor	%xmm13, %xmm12, %xmm12
	vxorps	%xmm12, %xmm14, %xmm14
.Ltmp308:
	#DEBUG_VALUE: z8 <- $xmm14
	#DEBUG_VALUE: y13 <- $xmm0
	.loc	13 130 19                       # crypto_stream/salsa20/xmm6int/u4.h:130:19
	vpaddd	%xmm0, %xmm6, %xmm12
.Ltmp309:
	#DEBUG_VALUE: r13 <- [DW_OP_LLVM_arg 0, DW_OP_LLVM_arg 0, DW_OP_shr, DW_OP_stack_value] undef
	#DEBUG_VALUE: y13 <- undef
	#DEBUG_VALUE: z13 <- undef
	.loc	13 135 19                       # crypto_stream/salsa20/xmm6int/u4.h:135:19
	vpsrld	$23, %xmm12, %xmm13
	vpslld	$9, %xmm12, %xmm12
	vpor	%xmm13, %xmm12, %xmm12
	vpxor	%xmm4, %xmm12, %xmm4
.Ltmp310:
	#DEBUG_VALUE: z13 <- $xmm4
	#DEBUG_VALUE: y12 <- $xmm15
	.loc	13 0 19 is_stmt 0               # crypto_stream/salsa20/xmm6int/u4.h:0:19
	vmovdqa	%xmm4, 288(%rsp)                # 16-byte Spill
.Ltmp311:
	#DEBUG_VALUE: z13 <- [DW_OP_plus_uconst 288, DW_OP_deref] $rsp
	.loc	13 138 19 is_stmt 1             # crypto_stream/salsa20/xmm6int/u4.h:138:19
	vpaddd	%xmm15, %xmm14, %xmm12
.Ltmp312:
	#DEBUG_VALUE: y12 <- [DW_OP_LLVM_arg 0, DW_OP_LLVM_arg 0, DW_OP_shl, DW_OP_stack_value] undef
	#DEBUG_VALUE: z12 <- [DW_OP_LLVM_arg 0, DW_OP_LLVM_arg 0, DW_OP_LLVM_arg 0, DW_OP_shl, DW_OP_xor, DW_OP_stack_value] undef
	#DEBUG_VALUE: r12 <- [DW_OP_LLVM_arg 0, DW_OP_LLVM_arg 0, DW_OP_shr, DW_OP_stack_value] undef
	.loc	13 143 19                       # crypto_stream/salsa20/xmm6int/u4.h:143:19
	vpsrld	$19, %xmm12, %xmm13
	vpslld	$13, %xmm12, %xmm12
	vpor	%xmm13, %xmm12, %xmm12
	vpxor	%xmm1, %xmm12, %xmm1
.Ltmp313:
	#DEBUG_VALUE: z12 <- $xmm1
	#DEBUG_VALUE: y1 <- [DW_OP_plus_uconst 672, DW_OP_deref] $rsp
	.loc	13 0 19 is_stmt 0               # crypto_stream/salsa20/xmm6int/u4.h:0:19
	vmovdqa	%xmm1, 704(%rsp)                # 16-byte Spill
.Ltmp314:
	#DEBUG_VALUE: z12 <- [DW_OP_plus_uconst 704, DW_OP_deref] $rsp
	.loc	13 146 18 is_stmt 1             # crypto_stream/salsa20/xmm6int/u4.h:146:18
	vpaddd	%xmm6, %xmm4, %xmm12
.Ltmp315:
	#DEBUG_VALUE: r1 <- [DW_OP_LLVM_arg 0, DW_OP_LLVM_arg 0, DW_OP_shr, DW_OP_stack_value] undef
	#DEBUG_VALUE: y1 <- undef
	#DEBUG_VALUE: z1 <- undef
	.loc	13 151 18                       # crypto_stream/salsa20/xmm6int/u4.h:151:18
	vpsrld	$19, %xmm12, %xmm13
	vpslld	$13, %xmm12, %xmm12
	vpor	%xmm13, %xmm12, %xmm12
	vpxor	%xmm12, %xmm9, %xmm7
.Ltmp316:
	#DEBUG_VALUE: z1 <- $xmm7
	#DEBUG_VALUE: y0 <- $xmm14
	.loc	13 154 18                       # crypto_stream/salsa20/xmm6int/u4.h:154:18
	vpaddd	%xmm1, %xmm14, %xmm12
.Ltmp317:
	#DEBUG_VALUE: y0 <- [DW_OP_LLVM_arg 0, DW_OP_LLVM_arg 0, DW_OP_shl, DW_OP_stack_value] undef
	#DEBUG_VALUE: z0 <- [DW_OP_LLVM_arg 0, DW_OP_LLVM_arg 0, DW_OP_LLVM_arg 0, DW_OP_shl, DW_OP_xor, DW_OP_stack_value] undef
	#DEBUG_VALUE: r0 <- [DW_OP_LLVM_arg 0, DW_OP_LLVM_arg 0, DW_OP_shr, DW_OP_stack_value] undef
	.loc	13 159 18                       # crypto_stream/salsa20/xmm6int/u4.h:159:18
	vpsrld	$14, %xmm12, %xmm13
	vpslld	$18, %xmm12, %xmm12
	vpor	%xmm13, %xmm12, %xmm12
	vpxor	%xmm2, %xmm12, %xmm2
.Ltmp318:
	#DEBUG_VALUE: z0 <- $xmm2
	#DEBUG_VALUE: y5 <- [DW_OP_plus_uconst 288, DW_OP_deref] $rsp
	.loc	13 162 18                       # crypto_stream/salsa20/xmm6int/u4.h:162:18
	vpaddd	%xmm4, %xmm7, %xmm12
.Ltmp319:
	#DEBUG_VALUE: r5 <- [DW_OP_LLVM_arg 0, DW_OP_LLVM_arg 0, DW_OP_shr, DW_OP_stack_value] undef
	#DEBUG_VALUE: y5 <- undef
	#DEBUG_VALUE: z5 <- undef
	.loc	13 167 18                       # crypto_stream/salsa20/xmm6int/u4.h:167:18
	vpsrld	$14, %xmm12, %xmm13
	vpslld	$18, %xmm12, %xmm12
	vpor	%xmm13, %xmm12, %xmm12
	vpxor	%xmm0, %xmm12, %xmm1
.Ltmp320:
	#DEBUG_VALUE: z5 <- $xmm1
	#DEBUG_VALUE: y14 <- [DW_OP_plus_uconst 96, DW_OP_deref] $rsp
	.loc	13 0 18 is_stmt 0               # crypto_stream/salsa20/xmm6int/u4.h:0:18
	vmovdqa	96(%rsp), %xmm0                 # 16-byte Reload
	.loc	13 170 19 is_stmt 1             # crypto_stream/salsa20/xmm6int/u4.h:170:19
	vpaddd	%xmm0, %xmm8, %xmm12
.Ltmp321:
	#DEBUG_VALUE: r14 <- [DW_OP_LLVM_arg 0, DW_OP_LLVM_arg 0, DW_OP_shr, DW_OP_stack_value] undef
	#DEBUG_VALUE: y14 <- undef
	#DEBUG_VALUE: z14 <- undef
	.loc	13 175 19                       # crypto_stream/salsa20/xmm6int/u4.h:175:19
	vpsrld	$25, %xmm12, %xmm13
	vpslld	$7, %xmm12, %xmm12
	vpor	%xmm13, %xmm12, %xmm12
	vpxor	(%rsp), %xmm12, %xmm12          # 16-byte Folded Reload
.Ltmp322:
	#DEBUG_VALUE: z14 <- $xmm12
	#DEBUG_VALUE: y3 <- $xmm5
	.loc	13 178 18                       # crypto_stream/salsa20/xmm6int/u4.h:178:18
	vpaddd	%xmm3, %xmm5, %xmm13
.Ltmp323:
	#DEBUG_VALUE: r3 <- [DW_OP_LLVM_arg 0, DW_OP_LLVM_arg 0, DW_OP_shr, DW_OP_stack_value] undef
	#DEBUG_VALUE: y3 <- undef
	#DEBUG_VALUE: z3 <- undef
	.loc	13 0 18 is_stmt 0               # crypto_stream/salsa20/xmm6int/u4.h:0:18
	vmovdqa	%xmm8, %xmm9
	.loc	13 183 18 is_stmt 1             # crypto_stream/salsa20/xmm6int/u4.h:183:18
	vpsrld	$25, %xmm13, %xmm8
.Ltmp324:
	vpslld	$7, %xmm13, %xmm13
	vpor	%xmm8, %xmm13, %xmm8
	vpxor	32(%rsp), %xmm8, %xmm13         # 16-byte Folded Reload
.Ltmp325:
	#DEBUG_VALUE: z3 <- $xmm13
	#DEBUG_VALUE: y2 <- undef
	.loc	13 186 18                       # crypto_stream/salsa20/xmm6int/u4.h:186:18
	vpaddd	%xmm9, %xmm12, %xmm8
.Ltmp326:
	#DEBUG_VALUE: r2 <- [DW_OP_LLVM_arg 0, DW_OP_LLVM_arg 0, DW_OP_shr, DW_OP_stack_value] undef
	#DEBUG_VALUE: y2 <- undef
	#DEBUG_VALUE: z2 <- undef
	.loc	13 0 18 is_stmt 0               # crypto_stream/salsa20/xmm6int/u4.h:0:18
	vmovdqa	%xmm3, %xmm11
	.loc	13 191 18 is_stmt 1             # crypto_stream/salsa20/xmm6int/u4.h:191:18
	vpsrld	$23, %xmm8, %xmm3
.Ltmp327:
	vpslld	$9, %xmm8, %xmm8
	vpor	%xmm3, %xmm8, %xmm3
	vpxor	%xmm3, %xmm10, %xmm10
.Ltmp328:
	#DEBUG_VALUE: z2 <- $xmm10
	#DEBUG_VALUE: y7 <- undef
	.loc	13 194 18                       # crypto_stream/salsa20/xmm6int/u4.h:194:18
	vpaddd	%xmm11, %xmm13, %xmm3
.Ltmp329:
	#DEBUG_VALUE: r7 <- [DW_OP_LLVM_arg 0, DW_OP_LLVM_arg 0, DW_OP_shr, DW_OP_stack_value] undef
	#DEBUG_VALUE: y7 <- undef
	#DEBUG_VALUE: z7 <- undef
	.loc	13 199 18                       # crypto_stream/salsa20/xmm6int/u4.h:199:18
	vpsrld	$23, %xmm3, %xmm8
	vpslld	$9, %xmm3, %xmm3
	vpor	%xmm3, %xmm8, %xmm3
	vpxor	64(%rsp), %xmm3, %xmm8          # 16-byte Folded Reload
.Ltmp330:
	#DEBUG_VALUE: z7 <- $xmm8
	#DEBUG_VALUE: y6 <- $xmm12
	.loc	13 202 18                       # crypto_stream/salsa20/xmm6int/u4.h:202:18
	vpaddd	%xmm12, %xmm10, %xmm3
.Ltmp331:
	#DEBUG_VALUE: r6 <- [DW_OP_LLVM_arg 0, DW_OP_LLVM_arg 0, DW_OP_shr, DW_OP_stack_value] undef
	#DEBUG_VALUE: y6 <- undef
	#DEBUG_VALUE: z6 <- undef
	.loc	13 207 18                       # crypto_stream/salsa20/xmm6int/u4.h:207:18
	vpsrld	$19, %xmm3, %xmm4
	vpslld	$13, %xmm3, %xmm3
	vpor	%xmm4, %xmm3, %xmm3
	vpxor	%xmm3, %xmm0, %xmm4
.Ltmp332:
	#DEBUG_VALUE: z6 <- $xmm4
	#DEBUG_VALUE: y11 <- $xmm13
	.loc	13 210 19                       # crypto_stream/salsa20/xmm6int/u4.h:210:19
	vpaddd	%xmm13, %xmm8, %xmm3
.Ltmp333:
	#DEBUG_VALUE: r11 <- [DW_OP_LLVM_arg 0, DW_OP_LLVM_arg 0, DW_OP_shr, DW_OP_stack_value] undef
	#DEBUG_VALUE: y11 <- undef
	#DEBUG_VALUE: z11 <- undef
	.loc	13 215 19                       # crypto_stream/salsa20/xmm6int/u4.h:215:19
	vpsrld	$19, %xmm3, %xmm6
	vpslld	$13, %xmm3, %xmm3
	vpor	%xmm6, %xmm3, %xmm3
	vpxor	%xmm3, %xmm5, %xmm5
.Ltmp334:
	#DEBUG_VALUE: z11 <- $xmm5
	#DEBUG_VALUE: y10 <- $xmm10
	.loc	13 218 19                       # crypto_stream/salsa20/xmm6int/u4.h:218:19
	vpaddd	%xmm4, %xmm10, %xmm3
.Ltmp335:
	#DEBUG_VALUE: r10 <- [DW_OP_LLVM_arg 0, DW_OP_LLVM_arg 0, DW_OP_shr, DW_OP_stack_value] undef
	#DEBUG_VALUE: y10 <- undef
	#DEBUG_VALUE: z10 <- undef
	.loc	13 223 19                       # crypto_stream/salsa20/xmm6int/u4.h:223:19
	vpsrld	$14, %xmm3, %xmm6
	vpslld	$18, %xmm3, %xmm3
	vpor	%xmm6, %xmm3, %xmm3
	vpxor	%xmm3, %xmm9, %xmm6
.Ltmp336:
	#DEBUG_VALUE: z10 <- $xmm6
	#DEBUG_VALUE: y1 <- $xmm13
	.loc	13 226 18                       # crypto_stream/salsa20/xmm6int/u4.h:226:18
	vpaddd	%xmm2, %xmm13, %xmm3
	#DEBUG_VALUE: r1 <- [DW_OP_LLVM_arg 0, DW_OP_LLVM_arg 0, DW_OP_shr, DW_OP_stack_value] undef
	.loc	13 231 18                       # crypto_stream/salsa20/xmm6int/u4.h:231:18
	vpsrld	$25, %xmm3, %xmm0
	vpslld	$7, %xmm3, %xmm3
	vpor	%xmm0, %xmm3, %xmm0
	vpxor	%xmm0, %xmm7, %xmm9
.Ltmp337:
	#DEBUG_VALUE: z1 <- $xmm9
	#DEBUG_VALUE: y15 <- $xmm8
	.loc	13 234 19                       # crypto_stream/salsa20/xmm6int/u4.h:234:19
	vpaddd	%xmm5, %xmm8, %xmm0
.Ltmp338:
	#DEBUG_VALUE: r15 <- [DW_OP_LLVM_arg 0, DW_OP_LLVM_arg 0, DW_OP_shr, DW_OP_stack_value] undef
	#DEBUG_VALUE: y15 <- undef
	#DEBUG_VALUE: z15 <- undef
	.loc	13 239 19                       # crypto_stream/salsa20/xmm6int/u4.h:239:19
	vpsrld	$14, %xmm0, %xmm3
	vpslld	$18, %xmm0, %xmm0
	vpor	%xmm3, %xmm0, %xmm0
	vpxor	%xmm0, %xmm11, %xmm3
.Ltmp339:
	#DEBUG_VALUE: z15 <- $xmm3
	#DEBUG_VALUE: y6 <- $xmm15
	.loc	13 242 18                       # crypto_stream/salsa20/xmm6int/u4.h:242:18
	vpaddd	%xmm1, %xmm15, %xmm0
	#DEBUG_VALUE: r6 <- [DW_OP_LLVM_arg 0, DW_OP_LLVM_arg 0, DW_OP_shr, DW_OP_stack_value] undef
	.loc	13 247 18                       # crypto_stream/salsa20/xmm6int/u4.h:247:18
	vpsrld	$25, %xmm0, %xmm7
	vpslld	$7, %xmm0, %xmm0
	vpor	%xmm7, %xmm0, %xmm0
	vpxor	%xmm0, %xmm4, %xmm7
.Ltmp340:
	#DEBUG_VALUE: z6 <- $xmm7
	#DEBUG_VALUE: y2 <- $xmm2
	.loc	13 250 18                       # crypto_stream/salsa20/xmm6int/u4.h:250:18
	vpaddd	%xmm2, %xmm9, %xmm0
	#DEBUG_VALUE: r2 <- [DW_OP_LLVM_arg 0, DW_OP_LLVM_arg 0, DW_OP_shr, DW_OP_stack_value] undef
	.loc	13 255 18                       # crypto_stream/salsa20/xmm6int/u4.h:255:18
	vpsrld	$23, %xmm0, %xmm4
	vpslld	$9, %xmm0, %xmm0
	vpor	%xmm4, %xmm0, %xmm0
	vpxor	%xmm0, %xmm10, %xmm10
.Ltmp341:
	#DEBUG_VALUE: z2 <- $xmm10
	#DEBUG_VALUE: y7 <- $xmm1
	.loc	13 258 18                       # crypto_stream/salsa20/xmm6int/u4.h:258:18
	vpaddd	%xmm1, %xmm7, %xmm0
	#DEBUG_VALUE: r7 <- [DW_OP_LLVM_arg 0, DW_OP_LLVM_arg 0, DW_OP_shr, DW_OP_stack_value] undef
	.loc	13 263 18                       # crypto_stream/salsa20/xmm6int/u4.h:263:18
	vpsrld	$23, %xmm0, %xmm4
	vpslld	$9, %xmm0, %xmm0
	vpor	%xmm4, %xmm0, %xmm0
	vpxor	%xmm0, %xmm8, %xmm8
.Ltmp342:
	#DEBUG_VALUE: z7 <- $xmm8
	#DEBUG_VALUE: y3 <- $xmm9
	.loc	13 266 18                       # crypto_stream/salsa20/xmm6int/u4.h:266:18
	vpaddd	%xmm9, %xmm10, %xmm0
	#DEBUG_VALUE: r3 <- [DW_OP_LLVM_arg 0, DW_OP_LLVM_arg 0, DW_OP_shr, DW_OP_stack_value] undef
	.loc	13 271 18                       # crypto_stream/salsa20/xmm6int/u4.h:271:18
	vpsrld	$19, %xmm0, %xmm4
	vpslld	$13, %xmm0, %xmm0
	vpor	%xmm4, %xmm0, %xmm0
	vpxor	%xmm0, %xmm13, %xmm11
.Ltmp343:
	#DEBUG_VALUE: z3 <- $xmm11
	#DEBUG_VALUE: y4 <- $xmm7
	.loc	13 0 18 is_stmt 0               # crypto_stream/salsa20/xmm6int/u4.h:0:18
	vmovdqa	%xmm7, 96(%rsp)                 # 16-byte Spill
.Ltmp344:
	#DEBUG_VALUE: y4 <- [DW_OP_plus_uconst 96, DW_OP_deref] $rsp
	#DEBUG_VALUE: z6 <- [DW_OP_plus_uconst 96, DW_OP_deref] $rsp
	.loc	13 274 18 is_stmt 1             # crypto_stream/salsa20/xmm6int/u4.h:274:18
	vpaddd	%xmm7, %xmm8, %xmm0
	#DEBUG_VALUE: r4 <- [DW_OP_LLVM_arg 0, DW_OP_LLVM_arg 0, DW_OP_shr, DW_OP_stack_value] undef
.Ltmp345:
	#DEBUG_VALUE: y4 <- undef
	#DEBUG_VALUE: z4 <- undef
	.loc	13 279 18                       # crypto_stream/salsa20/xmm6int/u4.h:279:18
	vpsrld	$19, %xmm0, %xmm4
	vpslld	$13, %xmm0, %xmm0
	vpor	%xmm4, %xmm0, %xmm0
	vpxor	%xmm0, %xmm15, %xmm15
.Ltmp346:
	#DEBUG_VALUE: z4 <- $xmm15
	#DEBUG_VALUE: y0 <- $xmm10
	.loc	13 0 18 is_stmt 0               # crypto_stream/salsa20/xmm6int/u4.h:0:18
	vmovdqa	%xmm11, 32(%rsp)                # 16-byte Spill
.Ltmp347:
	#DEBUG_VALUE: z3 <- [DW_OP_plus_uconst 32, DW_OP_deref] $rsp
	.loc	13 282 18 is_stmt 1             # crypto_stream/salsa20/xmm6int/u4.h:282:18
	vpaddd	%xmm10, %xmm11, %xmm0
	#DEBUG_VALUE: r0 <- [DW_OP_LLVM_arg 0, DW_OP_LLVM_arg 0, DW_OP_shr, DW_OP_stack_value] undef
.Ltmp348:
	#DEBUG_VALUE: y0 <- undef
	#DEBUG_VALUE: z0 <- undef
	.loc	13 287 18                       # crypto_stream/salsa20/xmm6int/u4.h:287:18
	vpsrld	$14, %xmm0, %xmm4
	vpslld	$18, %xmm0, %xmm0
	vpor	%xmm4, %xmm0, %xmm0
	vpxor	%xmm0, %xmm2, %xmm2
.Ltmp349:
	#DEBUG_VALUE: z0 <- $xmm2
	#DEBUG_VALUE: y5 <- $xmm8
	.loc	13 0 18 is_stmt 0               # crypto_stream/salsa20/xmm6int/u4.h:0:18
	vmovdqa	%xmm8, 64(%rsp)                 # 16-byte Spill
.Ltmp350:
	#DEBUG_VALUE: y5 <- [DW_OP_plus_uconst 64, DW_OP_deref] $rsp
	#DEBUG_VALUE: z7 <- [DW_OP_plus_uconst 64, DW_OP_deref] $rsp
	.loc	13 290 18 is_stmt 1             # crypto_stream/salsa20/xmm6int/u4.h:290:18
	vpaddd	%xmm8, %xmm15, %xmm0
	#DEBUG_VALUE: r5 <- [DW_OP_LLVM_arg 0, DW_OP_LLVM_arg 0, DW_OP_shr, DW_OP_stack_value] undef
	.loc	13 295 18                       # crypto_stream/salsa20/xmm6int/u4.h:295:18
	vpsrld	$14, %xmm0, %xmm4
	vpslld	$18, %xmm0, %xmm0
	vpor	%xmm4, %xmm0, %xmm0
	vpxor	%xmm0, %xmm1, %xmm0
.Ltmp351:
	#DEBUG_VALUE: z5 <- $xmm0
	#DEBUG_VALUE: y11 <- [DW_OP_plus_uconst 672, DW_OP_deref] $rsp
	.loc	13 0 18 is_stmt 0               # crypto_stream/salsa20/xmm6int/u4.h:0:18
	vmovdqa	672(%rsp), %xmm11               # 16-byte Reload
	.loc	13 298 19 is_stmt 1             # crypto_stream/salsa20/xmm6int/u4.h:298:19
	vpaddd	%xmm6, %xmm11, %xmm1
.Ltmp352:
	#DEBUG_VALUE: r11 <- [DW_OP_LLVM_arg 0, DW_OP_LLVM_arg 0, DW_OP_shr, DW_OP_stack_value] undef
	.loc	13 303 19                       # crypto_stream/salsa20/xmm6int/u4.h:303:19
	vpsrld	$25, %xmm1, %xmm4
	vpslld	$7, %xmm1, %xmm1
	vpor	%xmm4, %xmm1, %xmm1
	vpxor	%xmm1, %xmm5, %xmm5
.Ltmp353:
	#DEBUG_VALUE: z11 <- $xmm5
	#DEBUG_VALUE: y12 <- $xmm12
	.loc	13 306 19                       # crypto_stream/salsa20/xmm6int/u4.h:306:19
	vpaddd	%xmm3, %xmm12, %xmm1
	#DEBUG_VALUE: r12 <- [DW_OP_LLVM_arg 0, DW_OP_LLVM_arg 0, DW_OP_shr, DW_OP_stack_value] undef
.Ltmp354:
	#DEBUG_VALUE: y12 <- undef
	#DEBUG_VALUE: z12 <- undef
	.loc	13 311 19                       # crypto_stream/salsa20/xmm6int/u4.h:311:19
	vpsrld	$25, %xmm1, %xmm4
	vpslld	$7, %xmm1, %xmm1
	vpor	%xmm4, %xmm1, %xmm1
	vpxor	704(%rsp), %xmm1, %xmm1         # 16-byte Folded Reload
.Ltmp355:
	#DEBUG_VALUE: z12 <- $xmm1
	#DEBUG_VALUE: y8 <- $xmm6
	.loc	13 314 18                       # crypto_stream/salsa20/xmm6int/u4.h:314:18
	vpaddd	%xmm6, %xmm5, %xmm4
	#DEBUG_VALUE: r8 <- [DW_OP_LLVM_arg 0, DW_OP_LLVM_arg 0, DW_OP_shr, DW_OP_stack_value] undef
.Ltmp356:
	#DEBUG_VALUE: y8 <- undef
	#DEBUG_VALUE: z8 <- undef
	.loc	13 319 18                       # crypto_stream/salsa20/xmm6int/u4.h:319:18
	vpsrld	$23, %xmm4, %xmm7
	vpslld	$9, %xmm4, %xmm4
	vpor	%xmm7, %xmm4, %xmm4
	vpxor	%xmm4, %xmm14, %xmm14
.Ltmp357:
	#DEBUG_VALUE: z8 <- $xmm14
	#DEBUG_VALUE: y13 <- $xmm3
	.loc	13 322 19                       # crypto_stream/salsa20/xmm6int/u4.h:322:19
	vpaddd	%xmm3, %xmm1, %xmm4
	#DEBUG_VALUE: r13 <- [DW_OP_LLVM_arg 0, DW_OP_LLVM_arg 0, DW_OP_shr, DW_OP_stack_value] undef
	.loc	13 327 19                       # crypto_stream/salsa20/xmm6int/u4.h:327:19
	vpsrld	$23, %xmm4, %xmm7
	vpslld	$9, %xmm4, %xmm4
	vpor	%xmm7, %xmm4, %xmm4
	vpxor	288(%rsp), %xmm4, %xmm4         # 16-byte Folded Reload
.Ltmp358:
	#DEBUG_VALUE: z13 <- $xmm4
	#DEBUG_VALUE: y9 <- $xmm5
	.loc	13 330 18                       # crypto_stream/salsa20/xmm6int/u4.h:330:18
	vpaddd	%xmm5, %xmm14, %xmm7
	#DEBUG_VALUE: r9 <- [DW_OP_LLVM_arg 0, DW_OP_LLVM_arg 0, DW_OP_shr, DW_OP_stack_value] undef
	.loc	13 335 18                       # crypto_stream/salsa20/xmm6int/u4.h:335:18
	vpsrld	$19, %xmm7, %xmm8
	vpslld	$13, %xmm7, %xmm7
	vpor	%xmm7, %xmm8, %xmm7
	vpxor	%xmm7, %xmm11, %xmm11
.Ltmp359:
	#DEBUG_VALUE: z9 <- $xmm11
	#DEBUG_VALUE: y14 <- $xmm1
	.loc	13 338 19                       # crypto_stream/salsa20/xmm6int/u4.h:338:19
	vpaddd	%xmm1, %xmm4, %xmm7
	#DEBUG_VALUE: r14 <- [DW_OP_LLVM_arg 0, DW_OP_LLVM_arg 0, DW_OP_shr, DW_OP_stack_value] undef
	.loc	13 343 19                       # crypto_stream/salsa20/xmm6int/u4.h:343:19
	vpsrld	$19, %xmm7, %xmm8
	vpslld	$13, %xmm7, %xmm7
	vpor	%xmm7, %xmm8, %xmm7
	vpxor	%xmm7, %xmm12, %xmm12
.Ltmp360:
	#DEBUG_VALUE: z14 <- $xmm12
	#DEBUG_VALUE: y10 <- $xmm14
	.loc	13 346 19                       # crypto_stream/salsa20/xmm6int/u4.h:346:19
	vpaddd	%xmm14, %xmm11, %xmm7
	#DEBUG_VALUE: r10 <- [DW_OP_LLVM_arg 0, DW_OP_LLVM_arg 0, DW_OP_shr, DW_OP_stack_value] undef
	.loc	13 351 19                       # crypto_stream/salsa20/xmm6int/u4.h:351:19
	vpsrld	$14, %xmm7, %xmm8
	vpslld	$18, %xmm7, %xmm7
	vpor	%xmm7, %xmm8, %xmm7
	vpxor	%xmm7, %xmm6, %xmm8
.Ltmp361:
	#DEBUG_VALUE: z10 <- $xmm8
	#DEBUG_VALUE: y15 <- $xmm4
	.loc	13 0 19 is_stmt 0               # crypto_stream/salsa20/xmm6int/u4.h:0:19
	vmovdqa	%xmm12, (%rsp)                  # 16-byte Spill
.Ltmp362:
	#DEBUG_VALUE: z14 <- [DW_OP_deref] $rsp
	.loc	13 354 19 is_stmt 1             # crypto_stream/salsa20/xmm6int/u4.h:354:19
	vpaddd	%xmm4, %xmm12, %xmm6
	#DEBUG_VALUE: r15 <- [DW_OP_LLVM_arg 0, DW_OP_LLVM_arg 0, DW_OP_shr, DW_OP_stack_value] undef
	.loc	13 359 19                       # crypto_stream/salsa20/xmm6int/u4.h:359:19
	vpsrld	$14, %xmm6, %xmm7
	vpslld	$18, %xmm6, %xmm6
	vpor	%xmm7, %xmm6, %xmm6
	vpxor	%xmm6, %xmm3, %xmm3
.Ltmp363:
	#DEBUG_VALUE: z15 <- $xmm3
	#DEBUG_VALUE: i <- [DW_OP_plus_uconst 4, DW_OP_stack_value] $eax
	.loc	13 99 23                        # crypto_stream/salsa20/xmm6int/u4.h:99:23
	addl	$2, %eax
.Ltmp364:
	cmpl	$18, %eax
.Ltmp365:
	.loc	13 99 9 is_stmt 0               # crypto_stream/salsa20/xmm6int/u4.h:99:9
	jb	.LBB2_8
.Ltmp366:
# %bb.9:                                #   in Loop: Header=BB2_7 Depth=1
	#DEBUG_VALUE: salsa20_encrypt_bytes:ctx <- $rdi
	#DEBUG_VALUE: salsa20_encrypt_bytes:m <- $rsi
	#DEBUG_VALUE: salsa20_encrypt_bytes:c <- $rdx
	#DEBUG_VALUE: salsa20_encrypt_bytes:bytes <- $rcx
	#DEBUG_VALUE: z0 <- $xmm2
	#DEBUG_VALUE: z5 <- $xmm0
	#DEBUG_VALUE: z10 <- $xmm8
	#DEBUG_VALUE: z15 <- $xmm3
	#DEBUG_VALUE: z1 <- $xmm9
	#DEBUG_VALUE: z6 <- [DW_OP_plus_uconst 96, DW_OP_deref] $rsp
	#DEBUG_VALUE: z11 <- $xmm5
	#DEBUG_VALUE: z12 <- $xmm1
	#DEBUG_VALUE: z2 <- $xmm10
	#DEBUG_VALUE: z7 <- [DW_OP_plus_uconst 64, DW_OP_deref] $rsp
	#DEBUG_VALUE: z13 <- $xmm4
	#DEBUG_VALUE: z3 <- [DW_OP_plus_uconst 32, DW_OP_deref] $rsp
	#DEBUG_VALUE: z4 <- $xmm15
	#DEBUG_VALUE: z14 <- [DW_OP_deref] $rsp
	#DEBUG_VALUE: orig12 <- [DW_OP_plus_uconst 544, DW_OP_deref] $rsp
	#DEBUG_VALUE: orig4 <- [DW_OP_plus_uconst 160, DW_OP_deref] $rsp
	#DEBUG_VALUE: orig5 <- [DW_OP_plus_uconst 256, DW_OP_deref] $rsp
	#DEBUG_VALUE: orig10 <- [DW_OP_plus_uconst 320, DW_OP_deref] $rsp
	#DEBUG_VALUE: orig15 <- [DW_OP_plus_uconst 640, DW_OP_deref] $rsp
	#DEBUG_VALUE: orig3 <- [DW_OP_plus_uconst 128, DW_OP_deref] $rsp
	#DEBUG_VALUE: orig14 <- [DW_OP_plus_uconst 416, DW_OP_deref] $rsp
	#DEBUG_VALUE: orig2 <- [DW_OP_plus_uconst 192, DW_OP_deref] $rsp
	#DEBUG_VALUE: orig13 <- [DW_OP_plus_uconst 448, DW_OP_deref] $rsp
	#DEBUG_VALUE: orig7 <- [DW_OP_plus_uconst 480, DW_OP_deref] $rsp
	#DEBUG_VALUE: orig1 <- [DW_OP_plus_uconst 512, DW_OP_deref] $rsp
	#DEBUG_VALUE: orig11 <- [DW_OP_plus_uconst 576, DW_OP_deref] $rsp
	#DEBUG_VALUE: orig6 <- [DW_OP_plus_uconst 608, DW_OP_deref] $rsp
	#DEBUG_VALUE: orig0 <- [DW_OP_plus_uconst 224, DW_OP_deref] $rsp
	#DEBUG_VALUE: z8 <- $xmm14
	#DEBUG_VALUE: z9 <- $xmm11
	#DEBUG_VALUE: orig9 <- [DW_OP_plus_uconst 352, DW_OP_deref] $rsp
	#DEBUG_VALUE: orig8 <- [DW_OP_plus_uconst 384, DW_OP_deref] $rsp
	#DEBUG_VALUE: y9 <- $xmm5
	#DEBUG_VALUE: y1 <- $xmm13
	#DEBUG_VALUE: y5 <- [DW_OP_plus_uconst 64, DW_OP_deref] $rsp
	#DEBUG_VALUE: y14 <- $xmm1
	#DEBUG_VALUE: y3 <- $xmm9
	#DEBUG_VALUE: y11 <- [DW_OP_plus_uconst 672, DW_OP_deref] $rsp
	#DEBUG_VALUE: y10 <- $xmm14
	#DEBUG_VALUE: y15 <- $xmm4
	.loc	13 525 14 is_stmt 1             # crypto_stream/salsa20/xmm6int/u4.h:525:14
	vpaddd	224(%rsp), %xmm2, %xmm2         # 16-byte Folded Reload
.Ltmp367:
	#DEBUG_VALUE: z0 <- $xmm2
	.loc	13 0 14 is_stmt 0               # crypto_stream/salsa20/xmm6int/u4.h:0:14
	vmovdqa	512(%rsp), %xmm12               # 16-byte Reload
	vmovdqa	%xmm3, 288(%rsp)                # 16-byte Spill
.Ltmp368:
	#DEBUG_VALUE: z15 <- [DW_OP_plus_uconst 288, DW_OP_deref] $rsp
	.loc	13 525 45                       # crypto_stream/salsa20/xmm6int/u4.h:525:45
	vpaddd	%xmm9, %xmm12, %xmm3
.Ltmp369:
	#DEBUG_VALUE: z1 <- $xmm3
	#DEBUG_VALUE: z2 <- undef
	#DEBUG_VALUE: z3 <- undef
	.loc	13 525 138                      # crypto_stream/salsa20/xmm6int/u4.h:525:138
	vpunpckldq	%xmm3, %xmm2, %xmm6     # xmm6 = xmm2[0],xmm3[0],xmm2[1],xmm3[1]
.Ltmp370:
	#DEBUG_VALUE: y0 <- $xmm6
	#DEBUG_VALUE: y1 <- undef
	.loc	13 525 204                      # crypto_stream/salsa20/xmm6int/u4.h:525:204
	vpunpckhdq	%xmm3, %xmm2, %xmm2     # xmm2 = xmm2[2],xmm3[2],xmm2[3],xmm3[3]
.Ltmp371:
	#DEBUG_VALUE: y2 <- $xmm2
	.loc	13 525 76                       # crypto_stream/salsa20/xmm6int/u4.h:525:76
	vpaddd	192(%rsp), %xmm10, %xmm3        # 16-byte Folded Reload
.Ltmp372:
	#DEBUG_VALUE: z2 <- $xmm3
	.loc	13 0 76                         # crypto_stream/salsa20/xmm6int/u4.h:0:76
	vmovdqa	128(%rsp), %xmm7                # 16-byte Reload
	.loc	13 525 107                      # crypto_stream/salsa20/xmm6int/u4.h:525:107
	vpaddd	32(%rsp), %xmm7, %xmm7          # 16-byte Folded Reload
.Ltmp373:
	#DEBUG_VALUE: z3 <- $xmm7
	.loc	13 0 107                        # crypto_stream/salsa20/xmm6int/u4.h:0:107
	vmovdqa	%xmm8, %xmm9
.Ltmp374:
	.loc	13 525 171                      # crypto_stream/salsa20/xmm6int/u4.h:525:171
	vpunpckldq	%xmm7, %xmm3, %xmm8     # xmm8 = xmm3[0],xmm7[0],xmm3[1],xmm7[1]
.Ltmp375:
	#DEBUG_VALUE: y1 <- $xmm8
	.loc	13 525 237                      # crypto_stream/salsa20/xmm6int/u4.h:525:237
	vpunpckhdq	%xmm7, %xmm3, %xmm3     # xmm3 = xmm3[2],xmm7[2],xmm3[3],xmm7[3]
.Ltmp376:
	#DEBUG_VALUE: y3 <- $xmm3
	.loc	13 525 270                      # crypto_stream/salsa20/xmm6int/u4.h:525:270
	vpunpcklqdq	%xmm8, %xmm6, %xmm7     # xmm7 = xmm6[0],xmm8[0]
.Ltmp377:
	#DEBUG_VALUE: z0 <- $xmm7
	.loc	13 525 303                      # crypto_stream/salsa20/xmm6int/u4.h:525:303
	vpunpckhqdq	%xmm8, %xmm6, %xmm6     # xmm6 = xmm6[1],xmm8[1]
.Ltmp378:
	#DEBUG_VALUE: z1 <- $xmm6
	#DEBUG_VALUE: z2 <- undef
	#DEBUG_VALUE: z3 <- undef
	.loc	13 525 402                      # crypto_stream/salsa20/xmm6int/u4.h:525:402
	vpxor	(%rsi), %xmm7, %xmm7
.Ltmp379:
	#DEBUG_VALUE: y0 <- $xmm7
	.loc	13 525 465                      # crypto_stream/salsa20/xmm6int/u4.h:525:465
	vmovdqu	%xmm7, (%rdx)
	.loc	13 525 513                      # crypto_stream/salsa20/xmm6int/u4.h:525:513
	vpxor	64(%rsi), %xmm6, %xmm6
.Ltmp380:
	#DEBUG_VALUE: y1 <- $xmm6
	.loc	13 525 336                      # crypto_stream/salsa20/xmm6int/u4.h:525:336
	vpunpcklqdq	%xmm3, %xmm2, %xmm7     # xmm7 = xmm2[0],xmm3[0]
.Ltmp381:
	#DEBUG_VALUE: z2 <- $xmm7
	.loc	13 525 369                      # crypto_stream/salsa20/xmm6int/u4.h:525:369
	vpunpckhqdq	%xmm3, %xmm2, %xmm2     # xmm2 = xmm2[1],xmm3[1]
.Ltmp382:
	#DEBUG_VALUE: z3 <- $xmm2
	.loc	13 525 577                      # crypto_stream/salsa20/xmm6int/u4.h:525:577
	vmovdqu	%xmm6, 64(%rdx)
	.loc	13 525 626                      # crypto_stream/salsa20/xmm6int/u4.h:525:626
	vpxor	128(%rsi), %xmm7, %xmm3
.Ltmp383:
	#DEBUG_VALUE: y2 <- $xmm3
	.loc	13 525 691                      # crypto_stream/salsa20/xmm6int/u4.h:525:691
	vmovdqu	%xmm3, 128(%rdx)
	.loc	13 525 741                      # crypto_stream/salsa20/xmm6int/u4.h:525:741
	vpxor	192(%rsi), %xmm2, %xmm2
.Ltmp384:
	#DEBUG_VALUE: y3 <- $xmm2
	.loc	13 525 806                      # crypto_stream/salsa20/xmm6int/u4.h:525:806
	vmovdqu	%xmm2, 192(%rdx)
.Ltmp385:
	#DEBUG_VALUE: salsa20_encrypt_bytes:m <- undef
	#DEBUG_VALUE: salsa20_encrypt_bytes:c <- [DW_OP_plus_uconst 16, DW_OP_stack_value] $rdx
	.loc	13 528 14 is_stmt 1             # crypto_stream/salsa20/xmm6int/u4.h:528:14
	vpaddd	160(%rsp), %xmm15, %xmm2        # 16-byte Folded Reload
.Ltmp386:
	#DEBUG_VALUE: z4 <- $xmm2
	.loc	13 528 45 is_stmt 0             # crypto_stream/salsa20/xmm6int/u4.h:528:45
	vpaddd	256(%rsp), %xmm0, %xmm0         # 16-byte Folded Reload
.Ltmp387:
	#DEBUG_VALUE: z5 <- $xmm0
	.loc	13 0 45                         # crypto_stream/salsa20/xmm6int/u4.h:0:45
	vmovdqa	608(%rsp), %xmm13               # 16-byte Reload
	.loc	13 528 76                       # crypto_stream/salsa20/xmm6int/u4.h:528:76
	vpaddd	96(%rsp), %xmm13, %xmm3         # 16-byte Folded Reload
.Ltmp388:
	#DEBUG_VALUE: z6 <- $xmm3
	.loc	13 0 76                         # crypto_stream/salsa20/xmm6int/u4.h:0:76
	vmovdqa	480(%rsp), %xmm10               # 16-byte Reload
	.loc	13 528 107                      # crypto_stream/salsa20/xmm6int/u4.h:528:107
	vpaddd	64(%rsp), %xmm10, %xmm6         # 16-byte Folded Reload
.Ltmp389:
	#DEBUG_VALUE: z7 <- $xmm6
	.loc	13 528 138                      # crypto_stream/salsa20/xmm6int/u4.h:528:138
	vpunpckldq	%xmm0, %xmm2, %xmm7     # xmm7 = xmm2[0],xmm0[0],xmm2[1],xmm0[1]
.Ltmp390:
	#DEBUG_VALUE: y4 <- $xmm7
	#DEBUG_VALUE: y5 <- undef
	.loc	13 528 204                      # crypto_stream/salsa20/xmm6int/u4.h:528:204
	vpunpckhdq	%xmm0, %xmm2, %xmm0     # xmm0 = xmm2[2],xmm0[2],xmm2[3],xmm0[3]
.Ltmp391:
	#DEBUG_VALUE: y6 <- $xmm0
	.loc	13 528 171                      # crypto_stream/salsa20/xmm6int/u4.h:528:171
	vpunpckldq	%xmm6, %xmm3, %xmm2     # xmm2 = xmm3[0],xmm6[0],xmm3[1],xmm6[1]
.Ltmp392:
	#DEBUG_VALUE: y5 <- $xmm2
	.loc	13 528 237                      # crypto_stream/salsa20/xmm6int/u4.h:528:237
	vpunpckhdq	%xmm6, %xmm3, %xmm3     # xmm3 = xmm3[2],xmm6[2],xmm3[3],xmm6[3]
.Ltmp393:
	#DEBUG_VALUE: y7 <- $xmm3
	.loc	13 528 270                      # crypto_stream/salsa20/xmm6int/u4.h:528:270
	vpunpcklqdq	%xmm2, %xmm7, %xmm6     # xmm6 = xmm7[0],xmm2[0]
.Ltmp394:
	#DEBUG_VALUE: z4 <- $xmm6
	.loc	13 528 303                      # crypto_stream/salsa20/xmm6int/u4.h:528:303
	vpunpckhqdq	%xmm2, %xmm7, %xmm2     # xmm2 = xmm7[1],xmm2[1]
.Ltmp395:
	#DEBUG_VALUE: z5 <- $xmm2
	#DEBUG_VALUE: z6 <- undef
	#DEBUG_VALUE: z7 <- undef
	.loc	13 528 402                      # crypto_stream/salsa20/xmm6int/u4.h:528:402
	vpxor	16(%rsi), %xmm6, %xmm6
.Ltmp396:
	#DEBUG_VALUE: y4 <- $xmm6
	.loc	13 528 465                      # crypto_stream/salsa20/xmm6int/u4.h:528:465
	vmovdqu	%xmm6, 16(%rdx)
	.loc	13 528 336                      # crypto_stream/salsa20/xmm6int/u4.h:528:336
	vpunpcklqdq	%xmm3, %xmm0, %xmm6     # xmm6 = xmm0[0],xmm3[0]
.Ltmp397:
	#DEBUG_VALUE: z6 <- $xmm6
	.loc	13 528 513                      # crypto_stream/salsa20/xmm6int/u4.h:528:513
	vpxor	80(%rsi), %xmm2, %xmm2
.Ltmp398:
	#DEBUG_VALUE: y5 <- $xmm2
	.loc	13 528 369                      # crypto_stream/salsa20/xmm6int/u4.h:528:369
	vpunpckhqdq	%xmm3, %xmm0, %xmm0     # xmm0 = xmm0[1],xmm3[1]
.Ltmp399:
	#DEBUG_VALUE: z7 <- $xmm0
	.loc	13 528 577                      # crypto_stream/salsa20/xmm6int/u4.h:528:577
	vmovdqu	%xmm2, 80(%rdx)
	.loc	13 528 626                      # crypto_stream/salsa20/xmm6int/u4.h:528:626
	vpxor	144(%rsi), %xmm6, %xmm2
.Ltmp400:
	#DEBUG_VALUE: y6 <- $xmm2
	.loc	13 528 691                      # crypto_stream/salsa20/xmm6int/u4.h:528:691
	vmovdqu	%xmm2, 144(%rdx)
	.loc	13 528 741                      # crypto_stream/salsa20/xmm6int/u4.h:528:741
	vpxor	208(%rsi), %xmm0, %xmm0
.Ltmp401:
	#DEBUG_VALUE: y7 <- $xmm0
	.loc	13 528 806                      # crypto_stream/salsa20/xmm6int/u4.h:528:806
	vmovdqu	%xmm0, 208(%rdx)
.Ltmp402:
	#DEBUG_VALUE: salsa20_encrypt_bytes:c <- [DW_OP_plus_uconst 32, DW_OP_stack_value] $rdx
	.loc	13 531 14 is_stmt 1             # crypto_stream/salsa20/xmm6int/u4.h:531:14
	vpaddd	384(%rsp), %xmm14, %xmm0        # 16-byte Folded Reload
.Ltmp403:
	#DEBUG_VALUE: z8 <- $xmm0
	.loc	13 531 45 is_stmt 0             # crypto_stream/salsa20/xmm6int/u4.h:531:45
	vpaddd	352(%rsp), %xmm11, %xmm2        # 16-byte Folded Reload
.Ltmp404:
	#DEBUG_VALUE: z9 <- $xmm2
	.loc	13 0 45                         # crypto_stream/salsa20/xmm6int/u4.h:0:45
	vmovdqa	%xmm12, %xmm11
	vmovdqa	320(%rsp), %xmm7                # 16-byte Reload
	.loc	13 531 77                       # crypto_stream/salsa20/xmm6int/u4.h:531:77
	vpaddd	%xmm7, %xmm9, %xmm3
.Ltmp405:
	#DEBUG_VALUE: z10 <- $xmm3
	.loc	13 0 77                         # crypto_stream/salsa20/xmm6int/u4.h:0:77
	vmovdqa	576(%rsp), %xmm9                # 16-byte Reload
	.loc	13 531 111                      # crypto_stream/salsa20/xmm6int/u4.h:531:111
	vpaddd	%xmm5, %xmm9, %xmm5
.Ltmp406:
	#DEBUG_VALUE: z11 <- $xmm5
	.loc	13 531 144                      # crypto_stream/salsa20/xmm6int/u4.h:531:144
	vpunpckldq	%xmm2, %xmm0, %xmm6     # xmm6 = xmm0[0],xmm2[0],xmm0[1],xmm2[1]
.Ltmp407:
	#DEBUG_VALUE: y8 <- $xmm6
	#DEBUG_VALUE: y9 <- undef
	.loc	13 531 213                      # crypto_stream/salsa20/xmm6int/u4.h:531:213
	vpunpckhdq	%xmm2, %xmm0, %xmm0     # xmm0 = xmm0[2],xmm2[2],xmm0[3],xmm2[3]
.Ltmp408:
	#DEBUG_VALUE: y10 <- $xmm0
	.loc	13 531 177                      # crypto_stream/salsa20/xmm6int/u4.h:531:177
	vpunpckldq	%xmm5, %xmm3, %xmm2     # xmm2 = xmm3[0],xmm5[0],xmm3[1],xmm5[1]
.Ltmp409:
	#DEBUG_VALUE: y9 <- $xmm2
	.loc	13 531 247                      # crypto_stream/salsa20/xmm6int/u4.h:531:247
	vpunpckhdq	%xmm5, %xmm3, %xmm3     # xmm3 = xmm3[2],xmm5[2],xmm3[3],xmm5[3]
.Ltmp410:
	#DEBUG_VALUE: y11 <- $xmm3
	.loc	13 531 282                      # crypto_stream/salsa20/xmm6int/u4.h:531:282
	vpunpcklqdq	%xmm2, %xmm6, %xmm5     # xmm5 = xmm6[0],xmm2[0]
.Ltmp411:
	#DEBUG_VALUE: z8 <- $xmm5
	.loc	13 531 315                      # crypto_stream/salsa20/xmm6int/u4.h:531:315
	vpunpckhqdq	%xmm2, %xmm6, %xmm2     # xmm2 = xmm6[1],xmm2[1]
.Ltmp412:
	#DEBUG_VALUE: z9 <- $xmm2
	#DEBUG_VALUE: z10 <- undef
	#DEBUG_VALUE: z11 <- undef
	.loc	13 531 420                      # crypto_stream/salsa20/xmm6int/u4.h:531:420
	vpxor	32(%rsi), %xmm5, %xmm5
.Ltmp413:
	#DEBUG_VALUE: y8 <- $xmm5
	.loc	13 531 483                      # crypto_stream/salsa20/xmm6int/u4.h:531:483
	vmovdqu	%xmm5, 32(%rdx)
	.loc	13 531 349                      # crypto_stream/salsa20/xmm6int/u4.h:531:349
	vpunpcklqdq	%xmm3, %xmm0, %xmm5     # xmm5 = xmm0[0],xmm3[0]
.Ltmp414:
	#DEBUG_VALUE: z10 <- $xmm5
	.loc	13 531 531                      # crypto_stream/salsa20/xmm6int/u4.h:531:531
	vpxor	96(%rsi), %xmm2, %xmm2
.Ltmp415:
	#DEBUG_VALUE: y9 <- $xmm2
	.loc	13 531 385                      # crypto_stream/salsa20/xmm6int/u4.h:531:385
	vpunpckhqdq	%xmm3, %xmm0, %xmm0     # xmm0 = xmm0[1],xmm3[1]
.Ltmp416:
	#DEBUG_VALUE: z11 <- $xmm0
	.loc	13 531 595                      # crypto_stream/salsa20/xmm6int/u4.h:531:595
	vmovdqu	%xmm2, 96(%rdx)
	.loc	13 531 645                      # crypto_stream/salsa20/xmm6int/u4.h:531:645
	vpxor	160(%rsi), %xmm5, %xmm2
.Ltmp417:
	#DEBUG_VALUE: y10 <- $xmm2
	.loc	13 0 645                        # crypto_stream/salsa20/xmm6int/u4.h:0:645
	vmovdqa	%xmm9, %xmm5
.Ltmp418:
	.loc	13 531 711                      # crypto_stream/salsa20/xmm6int/u4.h:531:711
	vmovdqu	%xmm2, 160(%rdx)
	.loc	13 531 763                      # crypto_stream/salsa20/xmm6int/u4.h:531:763
	vpxor	224(%rsi), %xmm0, %xmm0
.Ltmp419:
	#DEBUG_VALUE: y11 <- $xmm0
	.loc	13 531 829                      # crypto_stream/salsa20/xmm6int/u4.h:531:829
	vmovdqu	%xmm0, 224(%rdx)
.Ltmp420:
	#DEBUG_VALUE: salsa20_encrypt_bytes:c <- [DW_OP_plus_uconst 48, DW_OP_stack_value] $rdx
	.loc	13 0 829                        # crypto_stream/salsa20/xmm6int/u4.h:0:829
	vmovdqa	544(%rsp), %xmm9                # 16-byte Reload
	.loc	13 534 15 is_stmt 1             # crypto_stream/salsa20/xmm6int/u4.h:534:15
	vpaddd	%xmm1, %xmm9, %xmm0
.Ltmp421:
	#DEBUG_VALUE: z12 <- $xmm0
	.loc	13 0 15 is_stmt 0               # crypto_stream/salsa20/xmm6int/u4.h:0:15
	vmovdqa	448(%rsp), %xmm8                # 16-byte Reload
	.loc	13 534 49                       # crypto_stream/salsa20/xmm6int/u4.h:534:49
	vpaddd	%xmm4, %xmm8, %xmm1
.Ltmp422:
	#DEBUG_VALUE: z13 <- $xmm1
	.loc	13 0 49                         # crypto_stream/salsa20/xmm6int/u4.h:0:49
	vmovdqa	416(%rsp), %xmm12               # 16-byte Reload
	.loc	13 534 83                       # crypto_stream/salsa20/xmm6int/u4.h:534:83
	vpaddd	(%rsp), %xmm12, %xmm2           # 16-byte Folded Reload
.Ltmp423:
	#DEBUG_VALUE: z14 <- $xmm2
	.loc	13 0 83                         # crypto_stream/salsa20/xmm6int/u4.h:0:83
	vmovdqa	640(%rsp), %xmm6                # 16-byte Reload
	.loc	13 534 117                      # crypto_stream/salsa20/xmm6int/u4.h:534:117
	vpaddd	288(%rsp), %xmm6, %xmm3         # 16-byte Folded Reload
.Ltmp424:
	#DEBUG_VALUE: z15 <- $xmm3
	.loc	13 534 151                      # crypto_stream/salsa20/xmm6int/u4.h:534:151
	vpunpckldq	%xmm1, %xmm0, %xmm4     # xmm4 = xmm0[0],xmm1[0],xmm0[1],xmm1[1]
.Ltmp425:
	#DEBUG_VALUE: y12 <- $xmm4
	#DEBUG_VALUE: y13 <- undef
	.loc	13 534 223                      # crypto_stream/salsa20/xmm6int/u4.h:534:223
	vpunpckhdq	%xmm1, %xmm0, %xmm0     # xmm0 = xmm0[2],xmm1[2],xmm0[3],xmm1[3]
.Ltmp426:
	#DEBUG_VALUE: y14 <- $xmm0
	.loc	13 534 187                      # crypto_stream/salsa20/xmm6int/u4.h:534:187
	vpunpckldq	%xmm3, %xmm2, %xmm1     # xmm1 = xmm2[0],xmm3[0],xmm2[1],xmm3[1]
.Ltmp427:
	#DEBUG_VALUE: y13 <- $xmm1
	.loc	13 534 259                      # crypto_stream/salsa20/xmm6int/u4.h:534:259
	vpunpckhdq	%xmm3, %xmm2, %xmm2     # xmm2 = xmm2[2],xmm3[2],xmm2[3],xmm3[3]
.Ltmp428:
	#DEBUG_VALUE: y15 <- $xmm2
	.loc	13 534 295                      # crypto_stream/salsa20/xmm6int/u4.h:534:295
	vpunpcklqdq	%xmm1, %xmm4, %xmm3     # xmm3 = xmm4[0],xmm1[0]
.Ltmp429:
	#DEBUG_VALUE: z12 <- $xmm3
	.loc	13 534 331                      # crypto_stream/salsa20/xmm6int/u4.h:534:331
	vpunpckhqdq	%xmm1, %xmm4, %xmm1     # xmm1 = xmm4[1],xmm1[1]
.Ltmp430:
	#DEBUG_VALUE: z13 <- $xmm1
	#DEBUG_VALUE: z14 <- undef
	#DEBUG_VALUE: z15 <- undef
	.loc	13 0 331                        # crypto_stream/salsa20/xmm6int/u4.h:0:331
	vmovdqa	%xmm10, %xmm4
.Ltmp431:
	vmovdqa	192(%rsp), %xmm10               # 16-byte Reload
	.loc	13 534 439                      # crypto_stream/salsa20/xmm6int/u4.h:534:439
	vpxor	48(%rsi), %xmm3, %xmm3
.Ltmp432:
	#DEBUG_VALUE: y12 <- $xmm3
	.loc	13 534 503                      # crypto_stream/salsa20/xmm6int/u4.h:534:503
	vmovdqu	%xmm3, 48(%rdx)
	.loc	13 534 367                      # crypto_stream/salsa20/xmm6int/u4.h:534:367
	vpunpcklqdq	%xmm2, %xmm0, %xmm3     # xmm3 = xmm0[0],xmm2[0]
.Ltmp433:
	#DEBUG_VALUE: z14 <- $xmm3
	.loc	13 534 553                      # crypto_stream/salsa20/xmm6int/u4.h:534:553
	vpxor	112(%rsi), %xmm1, %xmm1
.Ltmp434:
	#DEBUG_VALUE: y13 <- $xmm1
	.loc	13 534 403                      # crypto_stream/salsa20/xmm6int/u4.h:534:403
	vpunpckhqdq	%xmm2, %xmm0, %xmm0     # xmm0 = xmm0[1],xmm2[1]
.Ltmp435:
	#DEBUG_VALUE: z15 <- $xmm0
	.loc	13 0 403                        # crypto_stream/salsa20/xmm6int/u4.h:0:403
	vmovdqa	224(%rsp), %xmm2                # 16-byte Reload
.Ltmp436:
	.loc	13 534 618                      # crypto_stream/salsa20/xmm6int/u4.h:534:618
	vmovdqu	%xmm1, 112(%rdx)
	.loc	13 534 669                      # crypto_stream/salsa20/xmm6int/u4.h:534:669
	vpxor	176(%rsi), %xmm3, %xmm1
.Ltmp437:
	#DEBUG_VALUE: y14 <- $xmm1
	.loc	13 0 669                        # crypto_stream/salsa20/xmm6int/u4.h:0:669
	vmovdqa	%xmm9, %xmm3
.Ltmp438:
	vmovdqa	128(%rsp), %xmm15               # 16-byte Reload
	.loc	13 534 735                      # crypto_stream/salsa20/xmm6int/u4.h:534:735
	vmovdqu	%xmm1, 176(%rdx)
	.loc	13 534 787                      # crypto_stream/salsa20/xmm6int/u4.h:534:787
	vpxor	240(%rsi), %xmm0, %xmm0
.Ltmp439:
	#DEBUG_VALUE: y15 <- $xmm0
	.loc	13 534 853                      # crypto_stream/salsa20/xmm6int/u4.h:534:853
	vmovdqu	%xmm0, 240(%rdx)
.Ltmp440:
	#DEBUG_VALUE: salsa20_encrypt_bytes:m <- $rsi
	#DEBUG_VALUE: salsa20_encrypt_bytes:c <- $rdx
	.loc	13 543 15 is_stmt 1             # crypto_stream/salsa20/xmm6int/u4.h:543:15
	addq	$-256, %rcx
.Ltmp441:
	#DEBUG_VALUE: salsa20_encrypt_bytes:bytes <- $rcx
	.loc	13 544 11                       # crypto_stream/salsa20/xmm6int/u4.h:544:11
	addq	$256, %rdx                      # imm = 0x100
.Ltmp442:
	#DEBUG_VALUE: salsa20_encrypt_bytes:c <- $rdx
	.loc	13 545 11                       # crypto_stream/salsa20/xmm6int/u4.h:545:11
	addq	$256, %rsi                      # imm = 0x100
.Ltmp443:
	#DEBUG_VALUE: salsa20_encrypt_bytes:m <- $rsi
	.loc	13 50 18                        # crypto_stream/salsa20/xmm6int/u4.h:50:18
	cmpq	$255, %rcx
	.loc	13 50 5 is_stmt 0               # crypto_stream/salsa20/xmm6int/u4.h:50:5
	ja	.LBB2_7
.Ltmp444:
.LBB2_10:                               # %.loopexit
	#DEBUG_VALUE: salsa20_encrypt_bytes:ctx <- $rdi
	#DEBUG_VALUE: salsa20_encrypt_bytes:m <- $rsi
	#DEBUG_VALUE: salsa20_encrypt_bytes:c <- $rdx
	#DEBUG_VALUE: salsa20_encrypt_bytes:bytes <- $rcx
	#DEBUG_VALUE: salsa20_encrypt_bytes:m <- $rsi
	#DEBUG_VALUE: salsa20_encrypt_bytes:c <- $rdx
	#DEBUG_VALUE: salsa20_encrypt_bytes:bytes <- $rcx
	.file	14 "crypto_stream/salsa20/xmm6int" "u1.h"
	.loc	14 1 14 is_stmt 1               # crypto_stream/salsa20/xmm6int/u1.h:1:14
	cmpq	$64, %rcx
	.loc	14 1 1 is_stmt 0                # crypto_stream/salsa20/xmm6int/u1.h:1:1
	jb	.LBB2_14
.Ltmp445:
	.loc	14 0 1                          # :0:1
.Ltmp446:
	.p2align	4
.LBB2_11:                               # =>This Loop Header: Depth=1
                                        #     Child Loop BB2_12 Depth 2
	#DEBUG_VALUE: salsa20_encrypt_bytes:ctx <- $rdi
	#DEBUG_VALUE: salsa20_encrypt_bytes:m <- $rsi
	#DEBUG_VALUE: salsa20_encrypt_bytes:c <- $rdx
	#DEBUG_VALUE: salsa20_encrypt_bytes:bytes <- $rcx
	#DEBUG_VALUE: salsa20_encrypt_bytes:m <- $rsi
	#DEBUG_VALUE: salsa20_encrypt_bytes:c <- $rdx
	#DEBUG_VALUE: salsa20_encrypt_bytes:bytes <- $rcx
	.loc	14 2 21 is_stmt 1               # crypto_stream/salsa20/xmm6int/u1.h:2:21
	vmovdqu	(%rdi), %xmm0
.Ltmp447:
	#DEBUG_VALUE: diag0 <- $xmm0
	.loc	14 3 21                         # crypto_stream/salsa20/xmm6int/u1.h:3:21
	vmovdqu	16(%rdi), %xmm1
.Ltmp448:
	#DEBUG_VALUE: diag1 <- undef
	.loc	14 4 21                         # crypto_stream/salsa20/xmm6int/u1.h:4:21
	vmovdqu	32(%rdi), %xmm2
.Ltmp449:
	#DEBUG_VALUE: diag2 <- undef
	.loc	14 5 21                         # crypto_stream/salsa20/xmm6int/u1.h:5:21
	vmovdqu	48(%rdi), %xmm3
	movl	$-4, %eax
.Ltmp450:
	#DEBUG_VALUE: i <- 0
	#DEBUG_VALUE: a0 <- undef
	#DEBUG_VALUE: diag3 <- undef
	.loc	14 0 21 is_stmt 0               # crypto_stream/salsa20/xmm6int/u1.h:0:21
	vmovdqa	%xmm1, %xmm4
	vmovdqa	%xmm3, %xmm7
	vmovdqa	%xmm2, %xmm5
	vmovdqa	%xmm0, %xmm6
.Ltmp451:
	.p2align	4
.LBB2_12:                               #   Parent Loop BB2_11 Depth=1
                                        # =>  This Inner Loop Header: Depth=2
	#DEBUG_VALUE: salsa20_encrypt_bytes:ctx <- $rdi
	#DEBUG_VALUE: salsa20_encrypt_bytes:m <- $rsi
	#DEBUG_VALUE: salsa20_encrypt_bytes:c <- $rdx
	#DEBUG_VALUE: salsa20_encrypt_bytes:bytes <- $rcx
	#DEBUG_VALUE: i <- [DW_OP_plus_uconst 4, DW_OP_stack_value] $eax
	#DEBUG_VALUE: diag0 <- $xmm6
	.loc	14 15 14 is_stmt 1              # crypto_stream/salsa20/xmm6int/u1.h:15:14
	vpaddd	%xmm6, %xmm4, %xmm8
.Ltmp452:
	#DEBUG_VALUE: a0 <- [DW_OP_LLVM_arg 0, DW_OP_LLVM_arg 0, DW_OP_shl, DW_OP_stack_value] undef
	#DEBUG_VALUE: b0 <- [DW_OP_LLVM_arg 0, DW_OP_LLVM_arg 0, DW_OP_shr, DW_OP_stack_value] undef
	#DEBUG_VALUE: a1 <- $xmm6
	#DEBUG_VALUE: diag3 <- undef
	.loc	14 22 17                        # crypto_stream/salsa20/xmm6int/u1.h:22:17
	vpsrld	$25, %xmm8, %xmm9
	vpslld	$7, %xmm8, %xmm8
	vpor	%xmm9, %xmm8, %xmm8
	.loc	14 24 14                        # crypto_stream/salsa20/xmm6int/u1.h:24:14
	vpxor	%xmm7, %xmm8, %xmm8
	vpaddd	%xmm6, %xmm8, %xmm9
.Ltmp453:
	#DEBUG_VALUE: a1 <- [DW_OP_LLVM_arg 0, DW_OP_LLVM_arg 0, DW_OP_shl, DW_OP_stack_value] undef
	#DEBUG_VALUE: b1 <- [DW_OP_LLVM_arg 0, DW_OP_LLVM_arg 0, DW_OP_shr, DW_OP_stack_value] undef
	#DEBUG_VALUE: a2 <- undef
	#DEBUG_VALUE: diag2 <- undef
	.loc	14 30 27                        # crypto_stream/salsa20/xmm6int/u1.h:30:27
	vpshufd	$147, %xmm8, %xmm7              # xmm7 = xmm8[3,0,1,2]
.Ltmp454:
	#DEBUG_VALUE: diag3 <- $xmm7
	.loc	14 31 17                        # crypto_stream/salsa20/xmm6int/u1.h:31:17
	vpsrld	$23, %xmm9, %xmm10
	vpslld	$9, %xmm9, %xmm9
	vpor	%xmm10, %xmm9, %xmm9
	.loc	14 33 14                        # crypto_stream/salsa20/xmm6int/u1.h:33:14
	vpxor	%xmm5, %xmm9, %xmm5
	vpaddd	%xmm5, %xmm8, %xmm8
.Ltmp455:
	#DEBUG_VALUE: a2 <- [DW_OP_LLVM_arg 0, DW_OP_LLVM_arg 0, DW_OP_shl, DW_OP_stack_value] undef
	#DEBUG_VALUE: b2 <- [DW_OP_LLVM_arg 0, DW_OP_LLVM_arg 0, DW_OP_shr, DW_OP_stack_value] undef
	#DEBUG_VALUE: a3 <- undef
	#DEBUG_VALUE: diag1 <- undef
	.loc	14 39 27                        # crypto_stream/salsa20/xmm6int/u1.h:39:27
	vpshufd	$78, %xmm5, %xmm9               # xmm9 = xmm5[2,3,0,1]
.Ltmp456:
	#DEBUG_VALUE: diag2 <- $xmm9
	.loc	14 40 17                        # crypto_stream/salsa20/xmm6int/u1.h:40:17
	vpsrld	$19, %xmm8, %xmm10
	vpslld	$13, %xmm8, %xmm8
	vpor	%xmm10, %xmm8, %xmm8
	.loc	14 42 14                        # crypto_stream/salsa20/xmm6int/u1.h:42:14
	vpxor	%xmm4, %xmm8, %xmm4
	vpaddd	%xmm5, %xmm4, %xmm5
.Ltmp457:
	#DEBUG_VALUE: a3 <- [DW_OP_LLVM_arg 0, DW_OP_LLVM_arg 0, DW_OP_shl, DW_OP_stack_value] undef
	#DEBUG_VALUE: b3 <- [DW_OP_LLVM_arg 0, DW_OP_LLVM_arg 0, DW_OP_shr, DW_OP_stack_value] undef
	#DEBUG_VALUE: diag0 <- [DW_OP_LLVM_arg 0, DW_OP_LLVM_arg 0, DW_OP_LLVM_arg 0, DW_OP_shl, DW_OP_xor, DW_OP_stack_value] undef
	#DEBUG_VALUE: a4 <- $xmm7
	.loc	14 48 27                        # crypto_stream/salsa20/xmm6int/u1.h:48:27
	vpshufd	$57, %xmm4, %xmm4               # xmm4 = xmm4[1,2,3,0]
.Ltmp458:
	#DEBUG_VALUE: diag1 <- $xmm4
	.loc	14 49 17                        # crypto_stream/salsa20/xmm6int/u1.h:49:17
	vpsrld	$14, %xmm5, %xmm8
	vpslld	$18, %xmm5, %xmm5
	vpor	%xmm5, %xmm8, %xmm5
	vpxor	%xmm5, %xmm6, %xmm5
.Ltmp459:
	#DEBUG_VALUE: diag0 <- $xmm5
	.loc	14 51 14                        # crypto_stream/salsa20/xmm6int/u1.h:51:14
	vpaddd	%xmm5, %xmm7, %xmm6
.Ltmp460:
	#DEBUG_VALUE: a4 <- $xmm6
	#DEBUG_VALUE: b4 <- $xmm6
	#DEBUG_VALUE: a5 <- $xmm5
	.loc	14 54 14                        # crypto_stream/salsa20/xmm6int/u1.h:54:14
	vpslld	$7, %xmm6, %xmm8
.Ltmp461:
	#DEBUG_VALUE: a4 <- undef
	.loc	14 56 17                        # crypto_stream/salsa20/xmm6int/u1.h:56:17
	vpxor	%xmm4, %xmm8, %xmm4
.Ltmp462:
	.loc	14 55 14                        # crypto_stream/salsa20/xmm6int/u1.h:55:14
	vpsrld	$25, %xmm6, %xmm6
.Ltmp463:
	#DEBUG_VALUE: b4 <- undef
	#DEBUG_VALUE: diag1 <- $xmm4
	.loc	14 58 17                        # crypto_stream/salsa20/xmm6int/u1.h:58:17
	vpxor	%xmm6, %xmm4, %xmm4
.Ltmp464:
	#DEBUG_VALUE: diag1 <- $xmm4
	.loc	14 60 14                        # crypto_stream/salsa20/xmm6int/u1.h:60:14
	vpaddd	%xmm5, %xmm4, %xmm6
.Ltmp465:
	#DEBUG_VALUE: a5 <- $xmm6
	#DEBUG_VALUE: b5 <- $xmm6
	#DEBUG_VALUE: a6 <- $xmm4
	.loc	14 63 14                        # crypto_stream/salsa20/xmm6int/u1.h:63:14
	vpslld	$9, %xmm6, %xmm8
.Ltmp466:
	#DEBUG_VALUE: a5 <- undef
	.loc	14 65 17                        # crypto_stream/salsa20/xmm6int/u1.h:65:17
	vpxor	%xmm9, %xmm8, %xmm8
	.loc	14 64 14                        # crypto_stream/salsa20/xmm6int/u1.h:64:14
	vpsrld	$23, %xmm6, %xmm6
.Ltmp467:
	#DEBUG_VALUE: b5 <- undef
	#DEBUG_VALUE: diag2 <- $xmm8
	.loc	14 67 17                        # crypto_stream/salsa20/xmm6int/u1.h:67:17
	vpxor	%xmm6, %xmm8, %xmm6
	.loc	14 66 27                        # crypto_stream/salsa20/xmm6int/u1.h:66:27
	vpshufd	$147, %xmm4, %xmm8              # xmm8 = xmm4[3,0,1,2]
.Ltmp468:
	#DEBUG_VALUE: diag1 <- $xmm8
	#DEBUG_VALUE: diag2 <- $xmm6
	.loc	14 69 14                        # crypto_stream/salsa20/xmm6int/u1.h:69:14
	vpaddd	%xmm4, %xmm6, %xmm4
.Ltmp469:
	#DEBUG_VALUE: b6 <- [DW_OP_LLVM_arg 0, DW_OP_LLVM_arg 0, DW_OP_shr, DW_OP_stack_value] undef
	#DEBUG_VALUE: a6 <- undef
	#DEBUG_VALUE: a7 <- $xmm6
	.loc	14 75 27                        # crypto_stream/salsa20/xmm6int/u1.h:75:27
	vpshufd	$78, %xmm6, %xmm9               # xmm9 = xmm6[2,3,0,1]
.Ltmp470:
	#DEBUG_VALUE: diag2 <- $xmm9
	.loc	14 76 17                        # crypto_stream/salsa20/xmm6int/u1.h:76:17
	vpsrld	$19, %xmm4, %xmm10
	vpslld	$13, %xmm4, %xmm4
	vpor	%xmm4, %xmm10, %xmm4
	vpxor	%xmm7, %xmm4, %xmm4
.Ltmp471:
	#DEBUG_VALUE: diag3 <- $xmm4
	.loc	14 78 14                        # crypto_stream/salsa20/xmm6int/u1.h:78:14
	vpaddd	%xmm6, %xmm4, %xmm6
.Ltmp472:
	#DEBUG_VALUE: b7 <- [DW_OP_LLVM_arg 0, DW_OP_LLVM_arg 0, DW_OP_shr, DW_OP_stack_value] undef
	#DEBUG_VALUE: a7 <- undef
	#DEBUG_VALUE: diag0 <- undef
	#DEBUG_VALUE: a0 <- $xmm8
	.loc	14 84 27                        # crypto_stream/salsa20/xmm6int/u1.h:84:27
	vpshufd	$57, %xmm4, %xmm4               # xmm4 = xmm4[1,2,3,0]
.Ltmp473:
	#DEBUG_VALUE: diag3 <- $xmm4
	.loc	14 85 17                        # crypto_stream/salsa20/xmm6int/u1.h:85:17
	vpsrld	$14, %xmm6, %xmm7
	vpslld	$18, %xmm6, %xmm6
	vpor	%xmm7, %xmm6, %xmm6
	vpxor	%xmm6, %xmm5, %xmm5
.Ltmp474:
	#DEBUG_VALUE: diag0 <- $xmm5
	.loc	14 87 14                        # crypto_stream/salsa20/xmm6int/u1.h:87:14
	vpaddd	%xmm5, %xmm8, %xmm6
.Ltmp475:
	#DEBUG_VALUE: a0 <- $xmm6
	#DEBUG_VALUE: b0 <- $xmm6
	#DEBUG_VALUE: a1 <- $xmm5
	.loc	14 90 14                        # crypto_stream/salsa20/xmm6int/u1.h:90:14
	vpslld	$7, %xmm6, %xmm7
.Ltmp476:
	#DEBUG_VALUE: a0 <- undef
	.loc	14 92 17                        # crypto_stream/salsa20/xmm6int/u1.h:92:17
	vpxor	%xmm4, %xmm7, %xmm4
.Ltmp477:
	.loc	14 91 14                        # crypto_stream/salsa20/xmm6int/u1.h:91:14
	vpsrld	$25, %xmm6, %xmm6
.Ltmp478:
	#DEBUG_VALUE: b0 <- undef
	#DEBUG_VALUE: diag3 <- $xmm4
	.loc	14 94 17                        # crypto_stream/salsa20/xmm6int/u1.h:94:17
	vpxor	%xmm6, %xmm4, %xmm4
.Ltmp479:
	#DEBUG_VALUE: diag3 <- $xmm4
	.loc	14 96 14                        # crypto_stream/salsa20/xmm6int/u1.h:96:14
	vpaddd	%xmm5, %xmm4, %xmm6
.Ltmp480:
	#DEBUG_VALUE: a1 <- $xmm6
	#DEBUG_VALUE: b1 <- $xmm6
	#DEBUG_VALUE: a2 <- $xmm4
	.loc	14 99 14                        # crypto_stream/salsa20/xmm6int/u1.h:99:14
	vpslld	$9, %xmm6, %xmm7
.Ltmp481:
	#DEBUG_VALUE: a1 <- undef
	.loc	14 101 17                       # crypto_stream/salsa20/xmm6int/u1.h:101:17
	vpxor	%xmm7, %xmm9, %xmm7
	.loc	14 100 14                       # crypto_stream/salsa20/xmm6int/u1.h:100:14
	vpsrld	$23, %xmm6, %xmm6
.Ltmp482:
	#DEBUG_VALUE: b1 <- undef
	#DEBUG_VALUE: diag2 <- $xmm7
	.loc	14 103 17                       # crypto_stream/salsa20/xmm6int/u1.h:103:17
	vpxor	%xmm6, %xmm7, %xmm6
	.loc	14 102 27                       # crypto_stream/salsa20/xmm6int/u1.h:102:27
	vpshufd	$147, %xmm4, %xmm7              # xmm7 = xmm4[3,0,1,2]
.Ltmp483:
	#DEBUG_VALUE: diag3 <- $xmm7
	#DEBUG_VALUE: diag2 <- $xmm6
	.loc	14 105 14                       # crypto_stream/salsa20/xmm6int/u1.h:105:14
	vpaddd	%xmm4, %xmm6, %xmm4
.Ltmp484:
	#DEBUG_VALUE: b2 <- [DW_OP_LLVM_arg 0, DW_OP_LLVM_arg 0, DW_OP_shr, DW_OP_stack_value] undef
	#DEBUG_VALUE: a2 <- undef
	#DEBUG_VALUE: a3 <- $xmm6
	.loc	14 111 27                       # crypto_stream/salsa20/xmm6int/u1.h:111:27
	vpshufd	$78, %xmm6, %xmm9               # xmm9 = xmm6[2,3,0,1]
.Ltmp485:
	#DEBUG_VALUE: diag2 <- $xmm9
	.loc	14 112 17                       # crypto_stream/salsa20/xmm6int/u1.h:112:17
	vpsrld	$19, %xmm4, %xmm10
	vpslld	$13, %xmm4, %xmm4
	vpor	%xmm4, %xmm10, %xmm4
	vpxor	%xmm4, %xmm8, %xmm4
.Ltmp486:
	#DEBUG_VALUE: diag1 <- $xmm4
	.loc	14 114 14                       # crypto_stream/salsa20/xmm6int/u1.h:114:14
	vpaddd	%xmm6, %xmm4, %xmm6
.Ltmp487:
	#DEBUG_VALUE: b3 <- [DW_OP_LLVM_arg 0, DW_OP_LLVM_arg 0, DW_OP_shr, DW_OP_stack_value] undef
	#DEBUG_VALUE: a3 <- undef
	#DEBUG_VALUE: a4 <- $xmm7
	.loc	14 120 27                       # crypto_stream/salsa20/xmm6int/u1.h:120:27
	vpshufd	$57, %xmm4, %xmm4               # xmm4 = xmm4[1,2,3,0]
.Ltmp488:
	#DEBUG_VALUE: diag1 <- $xmm4
	.loc	14 121 17                       # crypto_stream/salsa20/xmm6int/u1.h:121:17
	vpsrld	$14, %xmm6, %xmm8
	vpslld	$18, %xmm6, %xmm6
	vpor	%xmm6, %xmm8, %xmm6
	vpxor	%xmm6, %xmm5, %xmm6
.Ltmp489:
	#DEBUG_VALUE: diag0 <- $xmm6
	.loc	14 123 14                       # crypto_stream/salsa20/xmm6int/u1.h:123:14
	vpaddd	%xmm6, %xmm7, %xmm5
.Ltmp490:
	#DEBUG_VALUE: a4 <- $xmm5
	#DEBUG_VALUE: b4 <- $xmm5
	#DEBUG_VALUE: a5 <- $xmm6
	.loc	14 126 14                       # crypto_stream/salsa20/xmm6int/u1.h:126:14
	vpslld	$7, %xmm5, %xmm8
	.loc	14 128 17                       # crypto_stream/salsa20/xmm6int/u1.h:128:17
	vpxor	%xmm4, %xmm8, %xmm4
.Ltmp491:
	.loc	14 127 14                       # crypto_stream/salsa20/xmm6int/u1.h:127:14
	vpsrld	$25, %xmm5, %xmm5
.Ltmp492:
	#DEBUG_VALUE: diag1 <- $xmm4
	.loc	14 130 17                       # crypto_stream/salsa20/xmm6int/u1.h:130:17
	vpxor	%xmm5, %xmm4, %xmm5
.Ltmp493:
	#DEBUG_VALUE: diag1 <- $xmm5
	.loc	14 132 14                       # crypto_stream/salsa20/xmm6int/u1.h:132:14
	vpaddd	%xmm6, %xmm5, %xmm4
.Ltmp494:
	#DEBUG_VALUE: a5 <- $xmm4
	#DEBUG_VALUE: b5 <- $xmm4
	#DEBUG_VALUE: a6 <- $xmm5
	.loc	14 135 14                       # crypto_stream/salsa20/xmm6int/u1.h:135:14
	vpslld	$9, %xmm4, %xmm8
	.loc	14 137 17                       # crypto_stream/salsa20/xmm6int/u1.h:137:17
	vpxor	%xmm9, %xmm8, %xmm8
	.loc	14 136 14                       # crypto_stream/salsa20/xmm6int/u1.h:136:14
	vpsrld	$23, %xmm4, %xmm4
.Ltmp495:
	#DEBUG_VALUE: diag2 <- $xmm8
	.loc	14 139 17                       # crypto_stream/salsa20/xmm6int/u1.h:139:17
	vpxor	%xmm4, %xmm8, %xmm8
.Ltmp496:
	.loc	14 138 27                       # crypto_stream/salsa20/xmm6int/u1.h:138:27
	vpshufd	$147, %xmm5, %xmm4              # xmm4 = xmm5[3,0,1,2]
.Ltmp497:
	#DEBUG_VALUE: diag1 <- $xmm4
	#DEBUG_VALUE: diag2 <- $xmm8
	.loc	14 141 14                       # crypto_stream/salsa20/xmm6int/u1.h:141:14
	vpaddd	%xmm5, %xmm8, %xmm9
	#DEBUG_VALUE: b6 <- [DW_OP_LLVM_arg 0, DW_OP_LLVM_arg 0, DW_OP_shr, DW_OP_stack_value] undef
.Ltmp498:
	#DEBUG_VALUE: a7 <- $xmm8
	.loc	14 147 27                       # crypto_stream/salsa20/xmm6int/u1.h:147:27
	vpshufd	$78, %xmm8, %xmm5               # xmm5 = xmm8[2,3,0,1]
.Ltmp499:
	#DEBUG_VALUE: diag2 <- $xmm5
	.loc	14 148 17                       # crypto_stream/salsa20/xmm6int/u1.h:148:17
	vpsrld	$19, %xmm9, %xmm10
	vpslld	$13, %xmm9, %xmm9
	vpor	%xmm10, %xmm9, %xmm9
	vpxor	%xmm7, %xmm9, %xmm7
.Ltmp500:
	#DEBUG_VALUE: diag3 <- $xmm7
	.loc	14 150 14                       # crypto_stream/salsa20/xmm6int/u1.h:150:14
	vpaddd	%xmm7, %xmm8, %xmm8
.Ltmp501:
	#DEBUG_VALUE: b7 <- [DW_OP_LLVM_arg 0, DW_OP_LLVM_arg 0, DW_OP_shr, DW_OP_stack_value] undef
	#DEBUG_VALUE: a0 <- $xmm4
	.loc	14 156 27                       # crypto_stream/salsa20/xmm6int/u1.h:156:27
	vpshufd	$57, %xmm7, %xmm7               # xmm7 = xmm7[1,2,3,0]
.Ltmp502:
	#DEBUG_VALUE: diag3 <- $xmm7
	.loc	14 157 17                       # crypto_stream/salsa20/xmm6int/u1.h:157:17
	vpsrld	$14, %xmm8, %xmm9
	vpslld	$18, %xmm8, %xmm8
	vpor	%xmm9, %xmm8, %xmm8
	vpxor	%xmm6, %xmm8, %xmm6
.Ltmp503:
	#DEBUG_VALUE: diag0 <- $xmm6
	#DEBUG_VALUE: i <- [DW_OP_plus_uconst 8, DW_OP_stack_value] $eax
	.loc	14 14 19                        # crypto_stream/salsa20/xmm6int/u1.h:14:19
	addl	$4, %eax
.Ltmp504:
	cmpl	$16, %eax
.Ltmp505:
	.loc	14 14 5 is_stmt 0               # crypto_stream/salsa20/xmm6int/u1.h:14:5
	jb	.LBB2_12
.Ltmp506:
# %bb.13:                               #   in Loop: Header=BB2_11 Depth=1
	#DEBUG_VALUE: salsa20_encrypt_bytes:ctx <- $rdi
	#DEBUG_VALUE: salsa20_encrypt_bytes:m <- $rsi
	#DEBUG_VALUE: salsa20_encrypt_bytes:c <- $rdx
	#DEBUG_VALUE: salsa20_encrypt_bytes:bytes <- $rcx
	#DEBUG_VALUE: diag0 <- $xmm6
	#DEBUG_VALUE: diag1 <- $xmm4
	#DEBUG_VALUE: diag2 <- $xmm5
	#DEBUG_VALUE: a0 <- $xmm4
	#DEBUG_VALUE: diag3 <- $xmm7
	.loc	14 160 13 is_stmt 1             # crypto_stream/salsa20/xmm6int/u1.h:160:13
	vpaddd	%xmm0, %xmm6, %xmm0
.Ltmp507:
	#DEBUG_VALUE: diag0 <- $xmm0
	.loc	14 161 13                       # crypto_stream/salsa20/xmm6int/u1.h:161:13
	vpaddd	%xmm1, %xmm4, %xmm1
.Ltmp508:
	#DEBUG_VALUE: diag1 <- $xmm1
	.loc	14 162 13                       # crypto_stream/salsa20/xmm6int/u1.h:162:13
	vpaddd	%xmm2, %xmm5, %xmm2
.Ltmp509:
	#DEBUG_VALUE: diag2 <- $xmm2
	.loc	14 163 13                       # crypto_stream/salsa20/xmm6int/u1.h:163:13
	vpaddd	%xmm3, %xmm7, %xmm3
.Ltmp510:
	#DEBUG_VALUE: diag3 <- $xmm3
	.loc	14 187 25                       # crypto_stream/salsa20/xmm6int/u1.h:187:25
	vmovd	%xmm0, %eax
.Ltmp511:
	#DEBUG_VALUE: in0 <- $eax
	.loc	14 187 67 is_stmt 0             # crypto_stream/salsa20/xmm6int/u1.h:187:67
	vmovd	%xmm1, %r8d
.Ltmp512:
	#DEBUG_VALUE: in12 <- $r8d
	.loc	14 187 108                      # crypto_stream/salsa20/xmm6int/u1.h:187:108
	vmovd	%xmm2, %r9d
.Ltmp513:
	#DEBUG_VALUE: in8 <- $r9d
	.loc	14 187 149                      # crypto_stream/salsa20/xmm6int/u1.h:187:149
	vmovd	%xmm3, %r10d
.Ltmp514:
	#DEBUG_VALUE: in4 <- $r10d
	#DEBUG_VALUE: diag0 <- undef
	#DEBUG_VALUE: diag1 <- undef
	#DEBUG_VALUE: diag2 <- undef
	#DEBUG_VALUE: diag3 <- undef
	.loc	14 187 503                      # crypto_stream/salsa20/xmm6int/u1.h:187:503
	xorl	(%rsi), %eax
.Ltmp515:
	#DEBUG_VALUE: in0 <- $eax
	.loc	14 187 546                      # crypto_stream/salsa20/xmm6int/u1.h:187:546
	xorl	48(%rsi), %r8d
.Ltmp516:
	#DEBUG_VALUE: in12 <- $r8d
	.loc	14 187 589                      # crypto_stream/salsa20/xmm6int/u1.h:187:589
	xorl	32(%rsi), %r9d
.Ltmp517:
	#DEBUG_VALUE: in8 <- $r9d
	.loc	14 187 631                      # crypto_stream/salsa20/xmm6int/u1.h:187:631
	xorl	16(%rsi), %r10d
.Ltmp518:
	#DEBUG_VALUE: in4 <- $r10d
	.loc	14 187 697                      # crypto_stream/salsa20/xmm6int/u1.h:187:697
	movl	%eax, (%rdx)
	.loc	14 187 733                      # crypto_stream/salsa20/xmm6int/u1.h:187:733
	movl	%r8d, 48(%rdx)
	.loc	14 187 769                      # crypto_stream/salsa20/xmm6int/u1.h:187:769
	movl	%r9d, 32(%rdx)
	.loc	14 187 804                      # crypto_stream/salsa20/xmm6int/u1.h:187:804
	movl	%r10d, 16(%rdx)
.Ltmp519:
	.loc	14 188 25 is_stmt 1             # crypto_stream/salsa20/xmm6int/u1.h:188:25
	vpextrd	$1, %xmm0, %eax
.Ltmp520:
	#DEBUG_VALUE: in5 <- $eax
	.loc	14 188 66 is_stmt 0             # crypto_stream/salsa20/xmm6int/u1.h:188:66
	vpextrd	$1, %xmm1, %r8d
.Ltmp521:
	#DEBUG_VALUE: in1 <- $r8d
	.loc	14 188 108                      # crypto_stream/salsa20/xmm6int/u1.h:188:108
	vpextrd	$1, %xmm2, %r9d
.Ltmp522:
	#DEBUG_VALUE: in13 <- $r9d
	.loc	14 188 149                      # crypto_stream/salsa20/xmm6int/u1.h:188:149
	vpextrd	$1, %xmm3, %r10d
.Ltmp523:
	#DEBUG_VALUE: in9 <- $r10d
	.loc	14 188 503                      # crypto_stream/salsa20/xmm6int/u1.h:188:503
	xorl	20(%rsi), %eax
.Ltmp524:
	#DEBUG_VALUE: in5 <- $eax
	.loc	14 188 545                      # crypto_stream/salsa20/xmm6int/u1.h:188:545
	xorl	4(%rsi), %r8d
.Ltmp525:
	#DEBUG_VALUE: in1 <- $r8d
	.loc	14 188 588                      # crypto_stream/salsa20/xmm6int/u1.h:188:588
	xorl	52(%rsi), %r9d
.Ltmp526:
	#DEBUG_VALUE: in13 <- $r9d
	.loc	14 188 631                      # crypto_stream/salsa20/xmm6int/u1.h:188:631
	xorl	36(%rsi), %r10d
.Ltmp527:
	#DEBUG_VALUE: in9 <- $r10d
	.loc	14 188 697                      # crypto_stream/salsa20/xmm6int/u1.h:188:697
	movl	%eax, 20(%rdx)
	.loc	14 188 732                      # crypto_stream/salsa20/xmm6int/u1.h:188:732
	movl	%r8d, 4(%rdx)
	.loc	14 188 768                      # crypto_stream/salsa20/xmm6int/u1.h:188:768
	movl	%r9d, 52(%rdx)
	.loc	14 188 804                      # crypto_stream/salsa20/xmm6int/u1.h:188:804
	movl	%r10d, 36(%rdx)
.Ltmp528:
	.loc	14 189 26 is_stmt 1             # crypto_stream/salsa20/xmm6int/u1.h:189:26
	vpextrd	$2, %xmm0, %eax
.Ltmp529:
	#DEBUG_VALUE: in10 <- $eax
	.loc	14 189 67 is_stmt 0             # crypto_stream/salsa20/xmm6int/u1.h:189:67
	vpextrd	$2, %xmm1, %r8d
.Ltmp530:
	#DEBUG_VALUE: in6 <- $r8d
	.loc	14 189 108                      # crypto_stream/salsa20/xmm6int/u1.h:189:108
	vpextrd	$2, %xmm2, %r9d
.Ltmp531:
	#DEBUG_VALUE: in2 <- $r9d
	.loc	14 189 150                      # crypto_stream/salsa20/xmm6int/u1.h:189:150
	vpextrd	$2, %xmm3, %r10d
.Ltmp532:
	#DEBUG_VALUE: in14 <- $r10d
	.loc	14 189 505                      # crypto_stream/salsa20/xmm6int/u1.h:189:505
	xorl	40(%rsi), %eax
.Ltmp533:
	#DEBUG_VALUE: in10 <- $eax
	.loc	14 189 548                      # crypto_stream/salsa20/xmm6int/u1.h:189:548
	xorl	24(%rsi), %r8d
.Ltmp534:
	#DEBUG_VALUE: in6 <- $r8d
	.loc	14 189 590                      # crypto_stream/salsa20/xmm6int/u1.h:189:590
	xorl	8(%rsi), %r9d
.Ltmp535:
	#DEBUG_VALUE: in2 <- $r9d
	.loc	14 189 633                      # crypto_stream/salsa20/xmm6int/u1.h:189:633
	xorl	56(%rsi), %r10d
.Ltmp536:
	#DEBUG_VALUE: in14 <- $r10d
	.loc	14 189 701                      # crypto_stream/salsa20/xmm6int/u1.h:189:701
	movl	%eax, 40(%rdx)
	.loc	14 189 737                      # crypto_stream/salsa20/xmm6int/u1.h:189:737
	movl	%r8d, 24(%rdx)
	.loc	14 189 772                      # crypto_stream/salsa20/xmm6int/u1.h:189:772
	movl	%r9d, 8(%rdx)
	.loc	14 189 808                      # crypto_stream/salsa20/xmm6int/u1.h:189:808
	movl	%r10d, 56(%rdx)
.Ltmp537:
	.loc	14 190 26 is_stmt 1             # crypto_stream/salsa20/xmm6int/u1.h:190:26
	vpextrd	$3, %xmm0, %eax
.Ltmp538:
	#DEBUG_VALUE: in15 <- $eax
	.loc	14 190 68 is_stmt 0             # crypto_stream/salsa20/xmm6int/u1.h:190:68
	vpextrd	$3, %xmm1, %r8d
.Ltmp539:
	#DEBUG_VALUE: in11 <- $r8d
	.loc	14 190 109                      # crypto_stream/salsa20/xmm6int/u1.h:190:109
	vpextrd	$3, %xmm2, %r9d
.Ltmp540:
	#DEBUG_VALUE: in7 <- $r9d
	.loc	14 190 150                      # crypto_stream/salsa20/xmm6int/u1.h:190:150
	vpextrd	$3, %xmm3, %r10d
.Ltmp541:
	#DEBUG_VALUE: in3 <- $r10d
	.loc	14 190 505                      # crypto_stream/salsa20/xmm6int/u1.h:190:505
	xorl	60(%rsi), %eax
.Ltmp542:
	#DEBUG_VALUE: in15 <- $eax
	.loc	14 190 549                      # crypto_stream/salsa20/xmm6int/u1.h:190:549
	xorl	44(%rsi), %r8d
.Ltmp543:
	#DEBUG_VALUE: in11 <- $r8d
	.loc	14 190 592                      # crypto_stream/salsa20/xmm6int/u1.h:190:592
	xorl	28(%rsi), %r9d
.Ltmp544:
	#DEBUG_VALUE: in7 <- $r9d
	.loc	14 190 634                      # crypto_stream/salsa20/xmm6int/u1.h:190:634
	xorl	12(%rsi), %r10d
.Ltmp545:
	#DEBUG_VALUE: in3 <- $r10d
	.loc	14 190 701                      # crypto_stream/salsa20/xmm6int/u1.h:190:701
	movl	%eax, 60(%rdx)
	.loc	14 190 738                      # crypto_stream/salsa20/xmm6int/u1.h:190:738
	movl	%r8d, 44(%rdx)
	.loc	14 190 774                      # crypto_stream/salsa20/xmm6int/u1.h:190:774
	movl	%r9d, 28(%rdx)
	.loc	14 190 809                      # crypto_stream/salsa20/xmm6int/u1.h:190:809
	movl	%r10d, 12(%rdx)
.Ltmp546:
	#DEBUG_VALUE: in8 <- undef
	#DEBUG_VALUE: in9 <- undef
	.loc	14 201 10 is_stmt 1             # crypto_stream/salsa20/xmm6int/u1.h:201:10
	addl	$1, 32(%rdi)
	.loc	14 202 11                       # crypto_stream/salsa20/xmm6int/u1.h:202:11
	adcl	$0, 52(%rdi)
	.loc	14 204 7                        # crypto_stream/salsa20/xmm6int/u1.h:204:7
	addq	$64, %rdx
.Ltmp547:
	#DEBUG_VALUE: salsa20_encrypt_bytes:c <- $rdx
	.loc	14 205 7                        # crypto_stream/salsa20/xmm6int/u1.h:205:7
	addq	$64, %rsi
.Ltmp548:
	#DEBUG_VALUE: salsa20_encrypt_bytes:m <- $rsi
	.loc	14 206 11                       # crypto_stream/salsa20/xmm6int/u1.h:206:11
	addq	$-64, %rcx
.Ltmp549:
	#DEBUG_VALUE: salsa20_encrypt_bytes:bytes <- $rcx
	.loc	14 1 14                         # crypto_stream/salsa20/xmm6int/u1.h:1:14
	cmpq	$63, %rcx
	.loc	14 1 1 is_stmt 0                # crypto_stream/salsa20/xmm6int/u1.h:1:1
	ja	.LBB2_11
.Ltmp550:
.LBB2_14:                               # %._crit_edge
	#DEBUG_VALUE: salsa20_encrypt_bytes:ctx <- $rdi
	#DEBUG_VALUE: salsa20_encrypt_bytes:m <- $rsi
	#DEBUG_VALUE: salsa20_encrypt_bytes:c <- $rdx
	#DEBUG_VALUE: salsa20_encrypt_bytes:bytes <- $rcx
	.file	15 "crypto_stream/salsa20/xmm6int" "u0.h"
	.loc	15 1 11                         # crypto_stream/salsa20/xmm6int/u0.h:1:11
	testq	%rcx, %rcx
	je	.LBB2_37
.Ltmp551:
# %bb.15:
	#DEBUG_VALUE: salsa20_encrypt_bytes:ctx <- $rdi
	#DEBUG_VALUE: salsa20_encrypt_bytes:m <- $rsi
	#DEBUG_VALUE: salsa20_encrypt_bytes:c <- $rdx
	#DEBUG_VALUE: salsa20_encrypt_bytes:bytes <- $rcx
	.loc	15 2 21 is_stmt 1               # crypto_stream/salsa20/xmm6int/u0.h:2:21
	vmovdqu	(%rdi), %xmm0
.Ltmp552:
	#DEBUG_VALUE: diag0 <- $xmm0
	.loc	15 3 21                         # crypto_stream/salsa20/xmm6int/u0.h:3:21
	vmovdqu	16(%rdi), %xmm1
.Ltmp553:
	#DEBUG_VALUE: diag1 <- undef
	.loc	15 4 21                         # crypto_stream/salsa20/xmm6int/u0.h:4:21
	vmovdqu	32(%rdi), %xmm2
.Ltmp554:
	#DEBUG_VALUE: diag2 <- undef
	.loc	15 5 21                         # crypto_stream/salsa20/xmm6int/u0.h:5:21
	vmovdqu	48(%rdi), %xmm3
.Ltmp555:
	#DEBUG_VALUE: diag3 <- undef
	.loc	15 0 21 is_stmt 0               # crypto_stream/salsa20/xmm6int/u0.h:0:21
	movl	$-4, %eax
.Ltmp556:
	#DEBUG_VALUE: partialblock <- 0
	#DEBUG_VALUE: i <- 0
	#DEBUG_VALUE: a0 <- undef
	vmovdqa	%xmm1, %xmm4
	vmovdqa	%xmm3, %xmm7
	vmovdqa	%xmm2, %xmm5
	vmovdqa	%xmm0, %xmm6
.Ltmp557:
	.p2align	4
.LBB2_16:                               # =>This Inner Loop Header: Depth=1
	#DEBUG_VALUE: salsa20_encrypt_bytes:ctx <- $rdi
	#DEBUG_VALUE: salsa20_encrypt_bytes:m <- $rsi
	#DEBUG_VALUE: salsa20_encrypt_bytes:c <- $rdx
	#DEBUG_VALUE: salsa20_encrypt_bytes:bytes <- $rcx
	#DEBUG_VALUE: partialblock <- 0
	#DEBUG_VALUE: i <- [DW_OP_plus_uconst 4, DW_OP_stack_value] $eax
	#DEBUG_VALUE: diag0 <- $xmm6
	.loc	15 14 14 is_stmt 1              # crypto_stream/salsa20/xmm6int/u0.h:14:14
	vpaddd	%xmm6, %xmm4, %xmm8
.Ltmp558:
	#DEBUG_VALUE: a0 <- [DW_OP_LLVM_arg 0, DW_OP_LLVM_arg 0, DW_OP_shl, DW_OP_stack_value] undef
	#DEBUG_VALUE: b0 <- [DW_OP_LLVM_arg 0, DW_OP_LLVM_arg 0, DW_OP_shr, DW_OP_stack_value] undef
	#DEBUG_VALUE: a1 <- $xmm6
	#DEBUG_VALUE: diag3 <- undef
	.loc	15 21 17                        # crypto_stream/salsa20/xmm6int/u0.h:21:17
	vpsrld	$25, %xmm8, %xmm9
	vpslld	$7, %xmm8, %xmm8
	vpor	%xmm9, %xmm8, %xmm8
	.loc	15 23 14                        # crypto_stream/salsa20/xmm6int/u0.h:23:14
	vpxor	%xmm7, %xmm8, %xmm8
	vpaddd	%xmm6, %xmm8, %xmm9
.Ltmp559:
	#DEBUG_VALUE: a1 <- [DW_OP_LLVM_arg 0, DW_OP_LLVM_arg 0, DW_OP_shl, DW_OP_stack_value] undef
	#DEBUG_VALUE: b1 <- [DW_OP_LLVM_arg 0, DW_OP_LLVM_arg 0, DW_OP_shr, DW_OP_stack_value] undef
	#DEBUG_VALUE: a2 <- undef
	#DEBUG_VALUE: diag2 <- undef
	.loc	15 29 27                        # crypto_stream/salsa20/xmm6int/u0.h:29:27
	vpshufd	$147, %xmm8, %xmm7              # xmm7 = xmm8[3,0,1,2]
.Ltmp560:
	#DEBUG_VALUE: diag3 <- $xmm7
	.loc	15 30 17                        # crypto_stream/salsa20/xmm6int/u0.h:30:17
	vpsrld	$23, %xmm9, %xmm10
	vpslld	$9, %xmm9, %xmm9
	vpor	%xmm10, %xmm9, %xmm9
	.loc	15 32 14                        # crypto_stream/salsa20/xmm6int/u0.h:32:14
	vpxor	%xmm5, %xmm9, %xmm5
	vpaddd	%xmm5, %xmm8, %xmm8
.Ltmp561:
	#DEBUG_VALUE: a2 <- [DW_OP_LLVM_arg 0, DW_OP_LLVM_arg 0, DW_OP_shl, DW_OP_stack_value] undef
	#DEBUG_VALUE: b2 <- [DW_OP_LLVM_arg 0, DW_OP_LLVM_arg 0, DW_OP_shr, DW_OP_stack_value] undef
	#DEBUG_VALUE: a3 <- undef
	#DEBUG_VALUE: diag1 <- undef
	.loc	15 38 27                        # crypto_stream/salsa20/xmm6int/u0.h:38:27
	vpshufd	$78, %xmm5, %xmm9               # xmm9 = xmm5[2,3,0,1]
.Ltmp562:
	#DEBUG_VALUE: diag2 <- $xmm9
	.loc	15 39 17                        # crypto_stream/salsa20/xmm6int/u0.h:39:17
	vpsrld	$19, %xmm8, %xmm10
	vpslld	$13, %xmm8, %xmm8
	vpor	%xmm10, %xmm8, %xmm8
	.loc	15 41 14                        # crypto_stream/salsa20/xmm6int/u0.h:41:14
	vpxor	%xmm4, %xmm8, %xmm4
	vpaddd	%xmm5, %xmm4, %xmm5
.Ltmp563:
	#DEBUG_VALUE: a3 <- [DW_OP_LLVM_arg 0, DW_OP_LLVM_arg 0, DW_OP_shl, DW_OP_stack_value] undef
	#DEBUG_VALUE: b3 <- [DW_OP_LLVM_arg 0, DW_OP_LLVM_arg 0, DW_OP_shr, DW_OP_stack_value] undef
	#DEBUG_VALUE: diag0 <- [DW_OP_LLVM_arg 0, DW_OP_LLVM_arg 0, DW_OP_LLVM_arg 0, DW_OP_shl, DW_OP_xor, DW_OP_stack_value] undef
	#DEBUG_VALUE: a4 <- $xmm7
	.loc	15 47 27                        # crypto_stream/salsa20/xmm6int/u0.h:47:27
	vpshufd	$57, %xmm4, %xmm4               # xmm4 = xmm4[1,2,3,0]
.Ltmp564:
	#DEBUG_VALUE: diag1 <- $xmm4
	.loc	15 48 17                        # crypto_stream/salsa20/xmm6int/u0.h:48:17
	vpsrld	$14, %xmm5, %xmm8
	vpslld	$18, %xmm5, %xmm5
	vpor	%xmm5, %xmm8, %xmm5
	vpxor	%xmm5, %xmm6, %xmm5
.Ltmp565:
	#DEBUG_VALUE: diag0 <- $xmm5
	.loc	15 50 14                        # crypto_stream/salsa20/xmm6int/u0.h:50:14
	vpaddd	%xmm5, %xmm7, %xmm6
.Ltmp566:
	#DEBUG_VALUE: a4 <- $xmm6
	#DEBUG_VALUE: b4 <- $xmm6
	#DEBUG_VALUE: a5 <- $xmm5
	.loc	15 53 14                        # crypto_stream/salsa20/xmm6int/u0.h:53:14
	vpslld	$7, %xmm6, %xmm8
.Ltmp567:
	#DEBUG_VALUE: a4 <- undef
	.loc	15 55 17                        # crypto_stream/salsa20/xmm6int/u0.h:55:17
	vpxor	%xmm4, %xmm8, %xmm4
.Ltmp568:
	.loc	15 54 14                        # crypto_stream/salsa20/xmm6int/u0.h:54:14
	vpsrld	$25, %xmm6, %xmm6
.Ltmp569:
	#DEBUG_VALUE: b4 <- undef
	#DEBUG_VALUE: diag1 <- $xmm4
	.loc	15 57 17                        # crypto_stream/salsa20/xmm6int/u0.h:57:17
	vpxor	%xmm6, %xmm4, %xmm4
.Ltmp570:
	#DEBUG_VALUE: diag1 <- $xmm4
	.loc	15 59 14                        # crypto_stream/salsa20/xmm6int/u0.h:59:14
	vpaddd	%xmm5, %xmm4, %xmm6
.Ltmp571:
	#DEBUG_VALUE: a5 <- $xmm6
	#DEBUG_VALUE: b5 <- $xmm6
	#DEBUG_VALUE: a6 <- $xmm4
	.loc	15 62 14                        # crypto_stream/salsa20/xmm6int/u0.h:62:14
	vpslld	$9, %xmm6, %xmm8
.Ltmp572:
	#DEBUG_VALUE: a5 <- undef
	.loc	15 64 17                        # crypto_stream/salsa20/xmm6int/u0.h:64:17
	vpxor	%xmm9, %xmm8, %xmm8
	.loc	15 63 14                        # crypto_stream/salsa20/xmm6int/u0.h:63:14
	vpsrld	$23, %xmm6, %xmm6
.Ltmp573:
	#DEBUG_VALUE: b5 <- undef
	#DEBUG_VALUE: diag2 <- $xmm8
	.loc	15 66 17                        # crypto_stream/salsa20/xmm6int/u0.h:66:17
	vpxor	%xmm6, %xmm8, %xmm6
	.loc	15 65 27                        # crypto_stream/salsa20/xmm6int/u0.h:65:27
	vpshufd	$147, %xmm4, %xmm8              # xmm8 = xmm4[3,0,1,2]
.Ltmp574:
	#DEBUG_VALUE: diag1 <- $xmm8
	#DEBUG_VALUE: diag2 <- $xmm6
	.loc	15 68 14                        # crypto_stream/salsa20/xmm6int/u0.h:68:14
	vpaddd	%xmm4, %xmm6, %xmm4
.Ltmp575:
	#DEBUG_VALUE: b6 <- [DW_OP_LLVM_arg 0, DW_OP_LLVM_arg 0, DW_OP_shr, DW_OP_stack_value] undef
	#DEBUG_VALUE: a6 <- undef
	#DEBUG_VALUE: a7 <- $xmm6
	.loc	15 74 27                        # crypto_stream/salsa20/xmm6int/u0.h:74:27
	vpshufd	$78, %xmm6, %xmm9               # xmm9 = xmm6[2,3,0,1]
.Ltmp576:
	#DEBUG_VALUE: diag2 <- $xmm9
	.loc	15 75 17                        # crypto_stream/salsa20/xmm6int/u0.h:75:17
	vpsrld	$19, %xmm4, %xmm10
	vpslld	$13, %xmm4, %xmm4
	vpor	%xmm4, %xmm10, %xmm4
	vpxor	%xmm7, %xmm4, %xmm4
.Ltmp577:
	#DEBUG_VALUE: diag3 <- $xmm4
	.loc	15 77 14                        # crypto_stream/salsa20/xmm6int/u0.h:77:14
	vpaddd	%xmm6, %xmm4, %xmm6
.Ltmp578:
	#DEBUG_VALUE: b7 <- [DW_OP_LLVM_arg 0, DW_OP_LLVM_arg 0, DW_OP_shr, DW_OP_stack_value] undef
	#DEBUG_VALUE: a7 <- undef
	#DEBUG_VALUE: diag0 <- undef
	#DEBUG_VALUE: a0 <- $xmm8
	.loc	15 83 27                        # crypto_stream/salsa20/xmm6int/u0.h:83:27
	vpshufd	$57, %xmm4, %xmm4               # xmm4 = xmm4[1,2,3,0]
.Ltmp579:
	#DEBUG_VALUE: diag3 <- $xmm4
	.loc	15 84 17                        # crypto_stream/salsa20/xmm6int/u0.h:84:17
	vpsrld	$14, %xmm6, %xmm7
	vpslld	$18, %xmm6, %xmm6
	vpor	%xmm7, %xmm6, %xmm6
	vpxor	%xmm6, %xmm5, %xmm5
.Ltmp580:
	#DEBUG_VALUE: diag0 <- $xmm5
	.loc	15 86 14                        # crypto_stream/salsa20/xmm6int/u0.h:86:14
	vpaddd	%xmm5, %xmm8, %xmm6
.Ltmp581:
	#DEBUG_VALUE: a0 <- $xmm6
	#DEBUG_VALUE: b0 <- $xmm6
	#DEBUG_VALUE: a1 <- $xmm5
	.loc	15 89 14                        # crypto_stream/salsa20/xmm6int/u0.h:89:14
	vpslld	$7, %xmm6, %xmm7
.Ltmp582:
	#DEBUG_VALUE: a0 <- undef
	.loc	15 91 17                        # crypto_stream/salsa20/xmm6int/u0.h:91:17
	vpxor	%xmm4, %xmm7, %xmm4
.Ltmp583:
	.loc	15 90 14                        # crypto_stream/salsa20/xmm6int/u0.h:90:14
	vpsrld	$25, %xmm6, %xmm6
.Ltmp584:
	#DEBUG_VALUE: b0 <- undef
	#DEBUG_VALUE: diag3 <- $xmm4
	.loc	15 93 17                        # crypto_stream/salsa20/xmm6int/u0.h:93:17
	vpxor	%xmm6, %xmm4, %xmm4
.Ltmp585:
	#DEBUG_VALUE: diag3 <- $xmm4
	.loc	15 95 14                        # crypto_stream/salsa20/xmm6int/u0.h:95:14
	vpaddd	%xmm5, %xmm4, %xmm6
.Ltmp586:
	#DEBUG_VALUE: a1 <- $xmm6
	#DEBUG_VALUE: b1 <- $xmm6
	#DEBUG_VALUE: a2 <- $xmm4
	.loc	15 98 14                        # crypto_stream/salsa20/xmm6int/u0.h:98:14
	vpslld	$9, %xmm6, %xmm7
.Ltmp587:
	#DEBUG_VALUE: a1 <- undef
	.loc	15 100 17                       # crypto_stream/salsa20/xmm6int/u0.h:100:17
	vpxor	%xmm7, %xmm9, %xmm7
	.loc	15 99 14                        # crypto_stream/salsa20/xmm6int/u0.h:99:14
	vpsrld	$23, %xmm6, %xmm6
.Ltmp588:
	#DEBUG_VALUE: b1 <- undef
	#DEBUG_VALUE: diag2 <- $xmm7
	.loc	15 102 17                       # crypto_stream/salsa20/xmm6int/u0.h:102:17
	vpxor	%xmm6, %xmm7, %xmm6
	.loc	15 101 27                       # crypto_stream/salsa20/xmm6int/u0.h:101:27
	vpshufd	$147, %xmm4, %xmm7              # xmm7 = xmm4[3,0,1,2]
.Ltmp589:
	#DEBUG_VALUE: diag3 <- $xmm7
	#DEBUG_VALUE: diag2 <- $xmm6
	.loc	15 104 14                       # crypto_stream/salsa20/xmm6int/u0.h:104:14
	vpaddd	%xmm4, %xmm6, %xmm4
.Ltmp590:
	#DEBUG_VALUE: b2 <- [DW_OP_LLVM_arg 0, DW_OP_LLVM_arg 0, DW_OP_shr, DW_OP_stack_value] undef
	#DEBUG_VALUE: a2 <- undef
	#DEBUG_VALUE: a3 <- $xmm6
	.loc	15 110 27                       # crypto_stream/salsa20/xmm6int/u0.h:110:27
	vpshufd	$78, %xmm6, %xmm9               # xmm9 = xmm6[2,3,0,1]
.Ltmp591:
	#DEBUG_VALUE: diag2 <- $xmm9
	.loc	15 111 17                       # crypto_stream/salsa20/xmm6int/u0.h:111:17
	vpsrld	$19, %xmm4, %xmm10
	vpslld	$13, %xmm4, %xmm4
	vpor	%xmm4, %xmm10, %xmm4
	vpxor	%xmm4, %xmm8, %xmm4
.Ltmp592:
	#DEBUG_VALUE: diag1 <- $xmm4
	.loc	15 113 14                       # crypto_stream/salsa20/xmm6int/u0.h:113:14
	vpaddd	%xmm6, %xmm4, %xmm6
.Ltmp593:
	#DEBUG_VALUE: b3 <- [DW_OP_LLVM_arg 0, DW_OP_LLVM_arg 0, DW_OP_shr, DW_OP_stack_value] undef
	#DEBUG_VALUE: a3 <- undef
	#DEBUG_VALUE: a4 <- $xmm7
	.loc	15 119 27                       # crypto_stream/salsa20/xmm6int/u0.h:119:27
	vpshufd	$57, %xmm4, %xmm4               # xmm4 = xmm4[1,2,3,0]
.Ltmp594:
	#DEBUG_VALUE: diag1 <- $xmm4
	.loc	15 120 17                       # crypto_stream/salsa20/xmm6int/u0.h:120:17
	vpsrld	$14, %xmm6, %xmm8
	vpslld	$18, %xmm6, %xmm6
	vpor	%xmm6, %xmm8, %xmm6
	vpxor	%xmm6, %xmm5, %xmm6
.Ltmp595:
	#DEBUG_VALUE: diag0 <- $xmm6
	.loc	15 122 14                       # crypto_stream/salsa20/xmm6int/u0.h:122:14
	vpaddd	%xmm6, %xmm7, %xmm5
.Ltmp596:
	#DEBUG_VALUE: a4 <- $xmm5
	#DEBUG_VALUE: b4 <- $xmm5
	#DEBUG_VALUE: a5 <- $xmm6
	.loc	15 125 14                       # crypto_stream/salsa20/xmm6int/u0.h:125:14
	vpslld	$7, %xmm5, %xmm8
	.loc	15 127 17                       # crypto_stream/salsa20/xmm6int/u0.h:127:17
	vpxor	%xmm4, %xmm8, %xmm4
.Ltmp597:
	.loc	15 126 14                       # crypto_stream/salsa20/xmm6int/u0.h:126:14
	vpsrld	$25, %xmm5, %xmm5
.Ltmp598:
	#DEBUG_VALUE: diag1 <- $xmm4
	.loc	15 129 17                       # crypto_stream/salsa20/xmm6int/u0.h:129:17
	vpxor	%xmm5, %xmm4, %xmm5
.Ltmp599:
	#DEBUG_VALUE: diag1 <- $xmm5
	.loc	15 131 14                       # crypto_stream/salsa20/xmm6int/u0.h:131:14
	vpaddd	%xmm6, %xmm5, %xmm4
.Ltmp600:
	#DEBUG_VALUE: a5 <- $xmm4
	#DEBUG_VALUE: b5 <- $xmm4
	#DEBUG_VALUE: a6 <- $xmm5
	.loc	15 134 14                       # crypto_stream/salsa20/xmm6int/u0.h:134:14
	vpslld	$9, %xmm4, %xmm8
	.loc	15 136 17                       # crypto_stream/salsa20/xmm6int/u0.h:136:17
	vpxor	%xmm9, %xmm8, %xmm8
	.loc	15 135 14                       # crypto_stream/salsa20/xmm6int/u0.h:135:14
	vpsrld	$23, %xmm4, %xmm4
.Ltmp601:
	#DEBUG_VALUE: diag2 <- $xmm8
	.loc	15 138 17                       # crypto_stream/salsa20/xmm6int/u0.h:138:17
	vpxor	%xmm4, %xmm8, %xmm8
.Ltmp602:
	.loc	15 137 27                       # crypto_stream/salsa20/xmm6int/u0.h:137:27
	vpshufd	$147, %xmm5, %xmm4              # xmm4 = xmm5[3,0,1,2]
.Ltmp603:
	#DEBUG_VALUE: diag1 <- $xmm4
	#DEBUG_VALUE: diag2 <- $xmm8
	.loc	15 140 14                       # crypto_stream/salsa20/xmm6int/u0.h:140:14
	vpaddd	%xmm5, %xmm8, %xmm9
	#DEBUG_VALUE: b6 <- [DW_OP_LLVM_arg 0, DW_OP_LLVM_arg 0, DW_OP_shr, DW_OP_stack_value] undef
.Ltmp604:
	#DEBUG_VALUE: a7 <- $xmm8
	.loc	15 146 27                       # crypto_stream/salsa20/xmm6int/u0.h:146:27
	vpshufd	$78, %xmm8, %xmm5               # xmm5 = xmm8[2,3,0,1]
.Ltmp605:
	#DEBUG_VALUE: diag2 <- $xmm5
	.loc	15 147 17                       # crypto_stream/salsa20/xmm6int/u0.h:147:17
	vpsrld	$19, %xmm9, %xmm10
	vpslld	$13, %xmm9, %xmm9
	vpor	%xmm10, %xmm9, %xmm9
	vpxor	%xmm7, %xmm9, %xmm7
.Ltmp606:
	#DEBUG_VALUE: diag3 <- $xmm7
	.loc	15 149 14                       # crypto_stream/salsa20/xmm6int/u0.h:149:14
	vpaddd	%xmm7, %xmm8, %xmm8
.Ltmp607:
	#DEBUG_VALUE: b7 <- [DW_OP_LLVM_arg 0, DW_OP_LLVM_arg 0, DW_OP_shr, DW_OP_stack_value] undef
	#DEBUG_VALUE: a0 <- $xmm4
	.loc	15 155 27                       # crypto_stream/salsa20/xmm6int/u0.h:155:27
	vpshufd	$57, %xmm7, %xmm7               # xmm7 = xmm7[1,2,3,0]
.Ltmp608:
	#DEBUG_VALUE: diag3 <- $xmm7
	.loc	15 156 17                       # crypto_stream/salsa20/xmm6int/u0.h:156:17
	vpsrld	$14, %xmm8, %xmm9
	vpslld	$18, %xmm8, %xmm8
	vpor	%xmm9, %xmm8, %xmm8
	vpxor	%xmm6, %xmm8, %xmm6
.Ltmp609:
	#DEBUG_VALUE: diag0 <- $xmm6
	#DEBUG_VALUE: i <- [DW_OP_plus_uconst 8, DW_OP_stack_value] $eax
	.loc	15 13 19                        # crypto_stream/salsa20/xmm6int/u0.h:13:19
	addl	$4, %eax
.Ltmp610:
	cmpl	$16, %eax
.Ltmp611:
	.loc	15 13 5 is_stmt 0               # crypto_stream/salsa20/xmm6int/u0.h:13:5
	jb	.LBB2_16
.Ltmp612:
# %bb.17:                               # %iter.check
	#DEBUG_VALUE: salsa20_encrypt_bytes:ctx <- $rdi
	#DEBUG_VALUE: salsa20_encrypt_bytes:m <- $rsi
	#DEBUG_VALUE: salsa20_encrypt_bytes:c <- $rdx
	#DEBUG_VALUE: salsa20_encrypt_bytes:bytes <- $rcx
	#DEBUG_VALUE: partialblock <- 0
	#DEBUG_VALUE: diag0 <- $xmm6
	#DEBUG_VALUE: diag1 <- $xmm4
	#DEBUG_VALUE: diag2 <- $xmm5
	#DEBUG_VALUE: diag3 <- $xmm7
	#DEBUG_VALUE: a0 <- $xmm4
	.loc	15 159 13 is_stmt 1             # crypto_stream/salsa20/xmm6int/u0.h:159:13
	vpaddd	%xmm0, %xmm6, %xmm0
.Ltmp613:
	#DEBUG_VALUE: diag0 <- $xmm0
	.loc	15 160 13                       # crypto_stream/salsa20/xmm6int/u0.h:160:13
	vpaddd	%xmm1, %xmm4, %xmm1
.Ltmp614:
	#DEBUG_VALUE: diag1 <- $xmm1
	.loc	15 161 13                       # crypto_stream/salsa20/xmm6int/u0.h:161:13
	vpaddd	%xmm2, %xmm5, %xmm2
.Ltmp615:
	#DEBUG_VALUE: diag2 <- $xmm2
	.loc	15 162 13                       # crypto_stream/salsa20/xmm6int/u0.h:162:13
	vpaddd	%xmm3, %xmm7, %xmm3
.Ltmp616:
	#DEBUG_VALUE: in0 <- undef
	#DEBUG_VALUE: in12 <- undef
	#DEBUG_VALUE: in8 <- undef
	#DEBUG_VALUE: in4 <- undef
	#DEBUG_VALUE: diag0 <- undef
	#DEBUG_VALUE: diag1 <- undef
	#DEBUG_VALUE: diag2 <- undef
	#DEBUG_VALUE: diag3 <- undef
	#DEBUG_VALUE: partialblock <- [DW_OP_LLVM_fragment 0 32] undef
	#DEBUG_VALUE: partialblock <- [DW_OP_LLVM_fragment 384 32] undef
	#DEBUG_VALUE: partialblock <- [DW_OP_LLVM_fragment 256 32] undef
	#DEBUG_VALUE: partialblock <- [DW_OP_LLVM_fragment 128 32] undef
	#DEBUG_VALUE: in5 <- undef
	#DEBUG_VALUE: in1 <- undef
	#DEBUG_VALUE: in13 <- undef
	#DEBUG_VALUE: in9 <- undef
	#DEBUG_VALUE: partialblock <- [DW_OP_LLVM_fragment 160 32] undef
	#DEBUG_VALUE: partialblock <- [DW_OP_LLVM_fragment 32 32] undef
	#DEBUG_VALUE: partialblock <- [DW_OP_LLVM_fragment 416 32] undef
	#DEBUG_VALUE: partialblock <- [DW_OP_LLVM_fragment 288 32] undef
	#DEBUG_VALUE: in10 <- undef
	#DEBUG_VALUE: in6 <- undef
	#DEBUG_VALUE: in2 <- undef
	#DEBUG_VALUE: in14 <- undef
	#DEBUG_VALUE: partialblock <- [DW_OP_LLVM_fragment 320 32] undef
	#DEBUG_VALUE: partialblock <- [DW_OP_LLVM_fragment 192 32] undef
	#DEBUG_VALUE: partialblock <- [DW_OP_LLVM_fragment 64 32] undef
	#DEBUG_VALUE: partialblock <- [DW_OP_LLVM_fragment 448 32] undef
	#DEBUG_VALUE: in15 <- undef
	#DEBUG_VALUE: in11 <- undef
	#DEBUG_VALUE: in7 <- undef
	#DEBUG_VALUE: in3 <- undef
	#DEBUG_VALUE: partialblock <- [DW_OP_LLVM_fragment 480 32] undef
	.loc	15 182 632                      # crypto_stream/salsa20/xmm6int/u0.h:182:632
	vpblendd	$12, %xmm3, %xmm2, %xmm4        # xmm4 = xmm2[0,1],xmm3[2,3]
.Ltmp617:
	vpblendd	$2, %xmm3, %xmm2, %xmm5         # xmm5 = xmm2[0],xmm3[1],xmm2[2,3]
	vinserti128	$1, %xmm4, %ymm5, %ymm4
	vpblendd	$12, %ymm0, %ymm4, %ymm4        # ymm4 = ymm4[0,1],ymm0[2,3],ymm4[4,5,6,7]
	vpermq	$196, %ymm1, %ymm5              # ymm5 = ymm1[0,1,0,3]
	vpblendd	$24, %ymm5, %ymm4, %ymm4        # ymm4 = ymm4[0,1,2],ymm5[3,4],ymm4[5,6,7]
	vinserti128	$1, %xmm0, %ymm1, %ymm5
	vpblendd	$136, %ymm5, %ymm4, %ymm4       # ymm4 = ymm4[0,1,2],ymm5[3],ymm4[4,5,6],ymm5[7]
	vmovdqu	%ymm4, 768(%rsp)
.Ltmp618:
	#DEBUG_VALUE: partialblock <- [DW_OP_plus_uconst 736, DW_OP_plus_uconst 60, DW_OP_deref, DW_OP_LLVM_fragment 480 32] $rsp
	#DEBUG_VALUE: partialblock <- [DW_OP_LLVM_fragment 352 32] undef
	#DEBUG_VALUE: partialblock <- [DW_OP_LLVM_fragment 224 32] undef
	.loc	15 182 538 is_stmt 0            # crypto_stream/salsa20/xmm6int/u0.h:182:538
	vpblendd	$12, %xmm1, %xmm0, %xmm4        # xmm4 = xmm0[0,1],xmm1[2,3]
	vpblendd	$2, %xmm1, %xmm0, %xmm0         # xmm0 = xmm0[0],xmm1[1],xmm0[2,3]
	vinserti128	$1, %xmm4, %ymm0, %ymm0
	vpblendd	$12, %ymm2, %ymm0, %ymm0        # ymm0 = ymm0[0,1],ymm2[2,3],ymm0[4,5,6,7]
	vpermq	$196, %ymm3, %ymm1              # ymm1 = ymm3[0,1,0,3]
	vpblendd	$24, %ymm1, %ymm0, %ymm0        # ymm0 = ymm0[0,1,2],ymm1[3,4],ymm0[5,6,7]
	vinserti128	$1, %xmm2, %ymm3, %ymm1
	vpblendd	$136, %ymm1, %ymm0, %ymm0       # ymm0 = ymm0[0,1,2],ymm1[3],ymm0[4,5,6],ymm1[7]
	vmovdqu	%ymm0, 736(%rsp)
.Ltmp619:
	#DEBUG_VALUE: partialblock <- [DW_OP_plus_uconst 736, DW_OP_plus_uconst 28, DW_OP_deref, DW_OP_LLVM_fragment 224 32] $rsp
	#DEBUG_VALUE: partialblock <- [DW_OP_LLVM_fragment 96 32] undef
	#DEBUG_VALUE: i <- 0
	.loc	15 190 5 is_stmt 1              # crypto_stream/salsa20/xmm6int/u0.h:190:5
	cmpq	$4, %rcx
	jb	.LBB2_18
.Ltmp620:
# %bb.19:                               # %vector.memcheck
	#DEBUG_VALUE: salsa20_encrypt_bytes:ctx <- $rdi
	#DEBUG_VALUE: salsa20_encrypt_bytes:m <- $rsi
	#DEBUG_VALUE: salsa20_encrypt_bytes:c <- $rdx
	#DEBUG_VALUE: salsa20_encrypt_bytes:bytes <- $rcx
	#DEBUG_VALUE: partialblock <- [DW_OP_plus_uconst 736, DW_OP_plus_uconst 60, DW_OP_deref, DW_OP_LLVM_fragment 480 32] $rsp
	#DEBUG_VALUE: partialblock <- [DW_OP_plus_uconst 736, DW_OP_plus_uconst 28, DW_OP_deref, DW_OP_LLVM_fragment 224 32] $rsp
	#DEBUG_VALUE: i <- 0
	movq	%rdx, %rax
	subq	%rsi, %rax
	cmpq	$16, %rax
	setb	%al
	leaq	736(%rsp), %rdi
.Ltmp621:
	#DEBUG_VALUE: salsa20_encrypt_bytes:ctx <- [DW_OP_LLVM_entry_value 1] $rdi
	movq	%rdx, %r8
	subq	%rdi, %r8
	cmpq	$16, %r8
	setb	%dil
	orb	%al, %dil
.Ltmp622:
	.loc	15 190 29 is_stmt 0             # crypto_stream/salsa20/xmm6int/u0.h:190:29
	je	.LBB2_21
.Ltmp623:
.LBB2_18:
	#DEBUG_VALUE: salsa20_encrypt_bytes:ctx <- [DW_OP_LLVM_entry_value 1] $rdi
	#DEBUG_VALUE: salsa20_encrypt_bytes:m <- $rsi
	#DEBUG_VALUE: salsa20_encrypt_bytes:c <- $rdx
	#DEBUG_VALUE: salsa20_encrypt_bytes:bytes <- $rcx
	#DEBUG_VALUE: partialblock <- [DW_OP_plus_uconst 736, DW_OP_plus_uconst 60, DW_OP_deref, DW_OP_LLVM_fragment 480 32] $rsp
	#DEBUG_VALUE: partialblock <- [DW_OP_plus_uconst 736, DW_OP_plus_uconst 28, DW_OP_deref, DW_OP_LLVM_fragment 224 32] $rsp
	#DEBUG_VALUE: i <- 0
	.loc	15 0 29                         # crypto_stream/salsa20/xmm6int/u0.h:0:29
	xorl	%eax, %eax
.Ltmp624:
.LBB2_31:                               # %vec.epilog.scalar.ph.preheader
	#DEBUG_VALUE: salsa20_encrypt_bytes:ctx <- [DW_OP_LLVM_entry_value 1] $rdi
	#DEBUG_VALUE: salsa20_encrypt_bytes:m <- $rsi
	#DEBUG_VALUE: salsa20_encrypt_bytes:c <- $rdx
	#DEBUG_VALUE: salsa20_encrypt_bytes:bytes <- $rcx
	#DEBUG_VALUE: partialblock <- [DW_OP_plus_uconst 736, DW_OP_plus_uconst 60, DW_OP_deref, DW_OP_LLVM_fragment 480 32] $rsp
	#DEBUG_VALUE: partialblock <- [DW_OP_plus_uconst 736, DW_OP_plus_uconst 28, DW_OP_deref, DW_OP_LLVM_fragment 224 32] $rsp
	#DEBUG_VALUE: i <- 0
	.loc	15 190 5 is_stmt 1              # crypto_stream/salsa20/xmm6int/u0.h:190:5
	movq	%rcx, %r8
	movq	%rax, %rdi
	andq	$3, %r8
	je	.LBB2_34
.Ltmp625:
# %bb.32:                               # %vec.epilog.scalar.ph.prol.preheader
	#DEBUG_VALUE: salsa20_encrypt_bytes:ctx <- [DW_OP_LLVM_entry_value 1] $rdi
	#DEBUG_VALUE: salsa20_encrypt_bytes:m <- $rsi
	#DEBUG_VALUE: salsa20_encrypt_bytes:c <- $rdx
	#DEBUG_VALUE: salsa20_encrypt_bytes:bytes <- $rcx
	#DEBUG_VALUE: partialblock <- [DW_OP_plus_uconst 736, DW_OP_plus_uconst 60, DW_OP_deref, DW_OP_LLVM_fragment 480 32] $rsp
	#DEBUG_VALUE: partialblock <- [DW_OP_plus_uconst 736, DW_OP_plus_uconst 28, DW_OP_deref, DW_OP_LLVM_fragment 224 32] $rsp
	#DEBUG_VALUE: i <- 0
	.loc	15 0 5 is_stmt 0                # crypto_stream/salsa20/xmm6int/u0.h:0:5
	movq	%rax, %rdi
.Ltmp626:
	.p2align	4
.LBB2_33:                               # %vec.epilog.scalar.ph.prol
                                        # =>This Inner Loop Header: Depth=1
	#DEBUG_VALUE: salsa20_encrypt_bytes:ctx <- [DW_OP_LLVM_entry_value 1] $rdi
	#DEBUG_VALUE: salsa20_encrypt_bytes:m <- $rsi
	#DEBUG_VALUE: salsa20_encrypt_bytes:c <- $rdx
	#DEBUG_VALUE: salsa20_encrypt_bytes:bytes <- $rcx
	#DEBUG_VALUE: partialblock <- [DW_OP_plus_uconst 736, DW_OP_plus_uconst 60, DW_OP_deref, DW_OP_LLVM_fragment 480 32] $rsp
	#DEBUG_VALUE: partialblock <- [DW_OP_plus_uconst 736, DW_OP_plus_uconst 28, DW_OP_deref, DW_OP_LLVM_fragment 224 32] $rsp
	#DEBUG_VALUE: i <- $rdi
	.loc	15 191 23 is_stmt 1             # crypto_stream/salsa20/xmm6int/u0.h:191:23
	movzbl	736(%rsp,%rdi), %r9d
	.loc	15 191 21 is_stmt 0             # crypto_stream/salsa20/xmm6int/u0.h:191:21
	xorb	(%rsi,%rdi), %r9b
	.loc	15 191 14                       # crypto_stream/salsa20/xmm6int/u0.h:191:14
	movb	%r9b, (%rdx,%rdi)
.Ltmp627:
	.loc	15 190 29 is_stmt 1             # crypto_stream/salsa20/xmm6int/u0.h:190:29
	incq	%rdi
.Ltmp628:
	#DEBUG_VALUE: i <- $rdi
	.loc	15 190 5 is_stmt 0              # crypto_stream/salsa20/xmm6int/u0.h:190:5
	decq	%r8
	jne	.LBB2_33
.Ltmp629:
.LBB2_34:                               # %vec.epilog.scalar.ph.prol.loopexit
	#DEBUG_VALUE: salsa20_encrypt_bytes:ctx <- [DW_OP_LLVM_entry_value 1] $rdi
	#DEBUG_VALUE: salsa20_encrypt_bytes:m <- $rsi
	#DEBUG_VALUE: salsa20_encrypt_bytes:c <- $rdx
	#DEBUG_VALUE: salsa20_encrypt_bytes:bytes <- $rcx
	#DEBUG_VALUE: partialblock <- [DW_OP_plus_uconst 736, DW_OP_plus_uconst 60, DW_OP_deref, DW_OP_LLVM_fragment 480 32] $rsp
	#DEBUG_VALUE: partialblock <- [DW_OP_plus_uconst 736, DW_OP_plus_uconst 28, DW_OP_deref, DW_OP_LLVM_fragment 224 32] $rsp
	subq	%rcx, %rax
	cmpq	$-4, %rax
	ja	.LBB2_36
.Ltmp630:
	.loc	15 0 5                          # :0:5
.Ltmp631:
	.p2align	4
.LBB2_35:                               # %vec.epilog.scalar.ph
                                        # =>This Inner Loop Header: Depth=1
	#DEBUG_VALUE: salsa20_encrypt_bytes:ctx <- [DW_OP_LLVM_entry_value 1] $rdi
	#DEBUG_VALUE: salsa20_encrypt_bytes:m <- $rsi
	#DEBUG_VALUE: salsa20_encrypt_bytes:c <- $rdx
	#DEBUG_VALUE: salsa20_encrypt_bytes:bytes <- $rcx
	#DEBUG_VALUE: partialblock <- [DW_OP_plus_uconst 736, DW_OP_plus_uconst 60, DW_OP_deref, DW_OP_LLVM_fragment 480 32] $rsp
	#DEBUG_VALUE: partialblock <- [DW_OP_plus_uconst 736, DW_OP_plus_uconst 28, DW_OP_deref, DW_OP_LLVM_fragment 224 32] $rsp
	#DEBUG_VALUE: i <- $rdi
	.loc	15 191 23 is_stmt 1             # crypto_stream/salsa20/xmm6int/u0.h:191:23
	movzbl	736(%rsp,%rdi), %eax
	.loc	15 191 21 is_stmt 0             # crypto_stream/salsa20/xmm6int/u0.h:191:21
	xorb	(%rsi,%rdi), %al
	.loc	15 191 14                       # crypto_stream/salsa20/xmm6int/u0.h:191:14
	movb	%al, (%rdx,%rdi)
.Ltmp632:
	#DEBUG_VALUE: i <- [DW_OP_plus_uconst 1, DW_OP_stack_value] $rdi
	.loc	15 191 23                       # crypto_stream/salsa20/xmm6int/u0.h:191:23
	movzbl	737(%rsp,%rdi), %eax
	.loc	15 191 21                       # crypto_stream/salsa20/xmm6int/u0.h:191:21
	xorb	1(%rsi,%rdi), %al
	.loc	15 191 14                       # crypto_stream/salsa20/xmm6int/u0.h:191:14
	movb	%al, 1(%rdx,%rdi)
.Ltmp633:
	#DEBUG_VALUE: i <- [DW_OP_plus_uconst 2, DW_OP_stack_value] $rdi
	.loc	15 191 23                       # crypto_stream/salsa20/xmm6int/u0.h:191:23
	movzbl	738(%rsp,%rdi), %eax
	.loc	15 191 21                       # crypto_stream/salsa20/xmm6int/u0.h:191:21
	xorb	2(%rsi,%rdi), %al
	.loc	15 191 14                       # crypto_stream/salsa20/xmm6int/u0.h:191:14
	movb	%al, 2(%rdx,%rdi)
.Ltmp634:
	#DEBUG_VALUE: i <- [DW_OP_plus_uconst 3, DW_OP_stack_value] $rdi
	.loc	15 191 23                       # crypto_stream/salsa20/xmm6int/u0.h:191:23
	movzbl	739(%rsp,%rdi), %eax
	.loc	15 191 21                       # crypto_stream/salsa20/xmm6int/u0.h:191:21
	xorb	3(%rsi,%rdi), %al
	.loc	15 191 14                       # crypto_stream/salsa20/xmm6int/u0.h:191:14
	movb	%al, 3(%rdx,%rdi)
.Ltmp635:
	.loc	15 190 29 is_stmt 1             # crypto_stream/salsa20/xmm6int/u0.h:190:29
	addq	$4, %rdi
.Ltmp636:
	#DEBUG_VALUE: i <- $rdi
	.loc	15 190 19 is_stmt 0             # crypto_stream/salsa20/xmm6int/u0.h:190:19
	cmpq	%rdi, %rcx
.Ltmp637:
	.loc	15 190 5                        # crypto_stream/salsa20/xmm6int/u0.h:190:5
	jne	.LBB2_35
.Ltmp638:
.LBB2_36:                               # %.loopexit1980
	#DEBUG_VALUE: salsa20_encrypt_bytes:ctx <- [DW_OP_LLVM_entry_value 1] $rdi
	#DEBUG_VALUE: salsa20_encrypt_bytes:m <- $rsi
	#DEBUG_VALUE: salsa20_encrypt_bytes:c <- $rdx
	#DEBUG_VALUE: salsa20_encrypt_bytes:bytes <- $rcx
	#DEBUG_VALUE: partialblock <- [DW_OP_plus_uconst 736, DW_OP_plus_uconst 60, DW_OP_deref, DW_OP_LLVM_fragment 480 32] $rsp
	#DEBUG_VALUE: partialblock <- [DW_OP_plus_uconst 736, DW_OP_plus_uconst 28, DW_OP_deref, DW_OP_LLVM_fragment 224 32] $rsp
	.loc	15 0 5                          # crypto_stream/salsa20/xmm6int/u0.h:0:5
	leaq	736(%rsp), %rdi
	.loc	15 194 5 is_stmt 1              # crypto_stream/salsa20/xmm6int/u0.h:194:5
	movl	$64, %esi
.Ltmp639:
	vzeroupper
	callq	sodium_memzero@PLT
.Ltmp640:
.LBB2_37:
	#DEBUG_VALUE: salsa20_encrypt_bytes:ctx <- [DW_OP_LLVM_entry_value 1] $rdi
	.loc	4 78 1                          # crypto_stream/salsa20/xmm6int/salsa20_xmm6int-avx2.c:78:1
	movq	%fs:40, %rax
	cmpq	800(%rsp), %rax
	jne	.LBB2_39
.Ltmp641:
# %bb.38:                               # %SP_return
	#DEBUG_VALUE: salsa20_encrypt_bytes:ctx <- [DW_OP_LLVM_entry_value 1] $rdi
	.loc	4 78 1 epilogue_begin is_stmt 0 # crypto_stream/salsa20/xmm6int/salsa20_xmm6int-avx2.c:78:1
	addq	$808, %rsp                      # imm = 0x328
	.cfi_def_cfa_offset 8
	vzeroupper
	retq
.Ltmp642:
.LBB2_21:                               # %vector.main.loop.iter.check
	.cfi_def_cfa_offset 816
	#DEBUG_VALUE: salsa20_encrypt_bytes:ctx <- [DW_OP_LLVM_entry_value 1] $rdi
	#DEBUG_VALUE: salsa20_encrypt_bytes:m <- $rsi
	#DEBUG_VALUE: salsa20_encrypt_bytes:c <- $rdx
	#DEBUG_VALUE: salsa20_encrypt_bytes:bytes <- $rcx
	#DEBUG_VALUE: partialblock <- [DW_OP_plus_uconst 736, DW_OP_plus_uconst 60, DW_OP_deref, DW_OP_LLVM_fragment 480 32] $rsp
	#DEBUG_VALUE: partialblock <- [DW_OP_plus_uconst 736, DW_OP_plus_uconst 28, DW_OP_deref, DW_OP_LLVM_fragment 224 32] $rsp
	#DEBUG_VALUE: i <- 0
	.loc	15 190 5 is_stmt 1              # crypto_stream/salsa20/xmm6int/u0.h:190:5
	cmpq	$16, %rcx
	jae	.LBB2_23
.Ltmp643:
# %bb.22:
	#DEBUG_VALUE: salsa20_encrypt_bytes:ctx <- [DW_OP_LLVM_entry_value 1] $rdi
	#DEBUG_VALUE: salsa20_encrypt_bytes:m <- $rsi
	#DEBUG_VALUE: salsa20_encrypt_bytes:c <- $rdx
	#DEBUG_VALUE: salsa20_encrypt_bytes:bytes <- $rcx
	#DEBUG_VALUE: partialblock <- [DW_OP_plus_uconst 736, DW_OP_plus_uconst 60, DW_OP_deref, DW_OP_LLVM_fragment 480 32] $rsp
	#DEBUG_VALUE: partialblock <- [DW_OP_plus_uconst 736, DW_OP_plus_uconst 28, DW_OP_deref, DW_OP_LLVM_fragment 224 32] $rsp
	#DEBUG_VALUE: i <- 0
	.loc	15 0 5 is_stmt 0                # crypto_stream/salsa20/xmm6int/u0.h:0:5
	xorl	%eax, %eax
	.loc	15 190 5                        # crypto_stream/salsa20/xmm6int/u0.h:190:5
	jmp	.LBB2_28
.Ltmp644:
.LBB2_23:                               # %vector.ph
	#DEBUG_VALUE: salsa20_encrypt_bytes:ctx <- [DW_OP_LLVM_entry_value 1] $rdi
	#DEBUG_VALUE: salsa20_encrypt_bytes:m <- $rsi
	#DEBUG_VALUE: salsa20_encrypt_bytes:c <- $rdx
	#DEBUG_VALUE: salsa20_encrypt_bytes:bytes <- $rcx
	#DEBUG_VALUE: partialblock <- [DW_OP_plus_uconst 736, DW_OP_plus_uconst 60, DW_OP_deref, DW_OP_LLVM_fragment 480 32] $rsp
	#DEBUG_VALUE: partialblock <- [DW_OP_plus_uconst 736, DW_OP_plus_uconst 28, DW_OP_deref, DW_OP_LLVM_fragment 224 32] $rsp
	#DEBUG_VALUE: i <- 0
	movl	%ecx, %eax
	andl	$48, %eax
.Ltmp645:
	.loc	15 191 23 is_stmt 1             # crypto_stream/salsa20/xmm6int/u0.h:191:23
	movq	736(%rsp), %rdi
	.loc	15 191 21 is_stmt 0             # crypto_stream/salsa20/xmm6int/u0.h:191:21
	xorq	(%rsi), %rdi
	.loc	15 191 23                       # crypto_stream/salsa20/xmm6int/u0.h:191:23
	movq	744(%rsp), %r8
	.loc	15 191 21                       # crypto_stream/salsa20/xmm6int/u0.h:191:21
	xorq	8(%rsi), %r8
	.loc	15 191 14                       # crypto_stream/salsa20/xmm6int/u0.h:191:14
	vmovq	%r8, %xmm0
	vmovq	%rdi, %xmm1
	vpunpcklqdq	%xmm0, %xmm1, %xmm0     # xmm0 = xmm1[0],xmm0[0]
	vmovdqu	%xmm0, (%rdx)
.Ltmp646:
	.loc	15 190 29 is_stmt 1             # crypto_stream/salsa20/xmm6int/u0.h:190:29
	cmpq	$16, %rax
	je	.LBB2_26
.Ltmp647:
# %bb.24:                               # %vector.body.1
	#DEBUG_VALUE: salsa20_encrypt_bytes:ctx <- [DW_OP_LLVM_entry_value 1] $rdi
	#DEBUG_VALUE: salsa20_encrypt_bytes:m <- $rsi
	#DEBUG_VALUE: salsa20_encrypt_bytes:c <- $rdx
	#DEBUG_VALUE: salsa20_encrypt_bytes:bytes <- $rcx
	#DEBUG_VALUE: partialblock <- [DW_OP_plus_uconst 736, DW_OP_plus_uconst 60, DW_OP_deref, DW_OP_LLVM_fragment 480 32] $rsp
	#DEBUG_VALUE: partialblock <- [DW_OP_plus_uconst 736, DW_OP_plus_uconst 28, DW_OP_deref, DW_OP_LLVM_fragment 224 32] $rsp
	#DEBUG_VALUE: i <- 0
	.loc	15 191 23                       # crypto_stream/salsa20/xmm6int/u0.h:191:23
	movq	752(%rsp), %rdi
	.loc	15 191 21 is_stmt 0             # crypto_stream/salsa20/xmm6int/u0.h:191:21
	xorq	16(%rsi), %rdi
	.loc	15 191 23                       # crypto_stream/salsa20/xmm6int/u0.h:191:23
	movq	760(%rsp), %r8
	.loc	15 191 21                       # crypto_stream/salsa20/xmm6int/u0.h:191:21
	xorq	24(%rsi), %r8
	.loc	15 191 14                       # crypto_stream/salsa20/xmm6int/u0.h:191:14
	vmovq	%r8, %xmm0
	vmovq	%rdi, %xmm1
	vpunpcklqdq	%xmm0, %xmm1, %xmm0     # xmm0 = xmm1[0],xmm0[0]
	vmovdqu	%xmm0, 16(%rdx)
.Ltmp648:
	.loc	15 190 29 is_stmt 1             # crypto_stream/salsa20/xmm6int/u0.h:190:29
	cmpl	$32, %eax
	je	.LBB2_26
.Ltmp649:
# %bb.25:                               # %vector.body.2
	#DEBUG_VALUE: salsa20_encrypt_bytes:ctx <- [DW_OP_LLVM_entry_value 1] $rdi
	#DEBUG_VALUE: salsa20_encrypt_bytes:m <- $rsi
	#DEBUG_VALUE: salsa20_encrypt_bytes:c <- $rdx
	#DEBUG_VALUE: salsa20_encrypt_bytes:bytes <- $rcx
	#DEBUG_VALUE: partialblock <- [DW_OP_plus_uconst 736, DW_OP_plus_uconst 60, DW_OP_deref, DW_OP_LLVM_fragment 480 32] $rsp
	#DEBUG_VALUE: partialblock <- [DW_OP_plus_uconst 736, DW_OP_plus_uconst 28, DW_OP_deref, DW_OP_LLVM_fragment 224 32] $rsp
	#DEBUG_VALUE: i <- 0
	.loc	15 191 23                       # crypto_stream/salsa20/xmm6int/u0.h:191:23
	movq	768(%rsp), %rdi
	movq	776(%rsp), %r8
	.loc	15 191 21 is_stmt 0             # crypto_stream/salsa20/xmm6int/u0.h:191:21
	xorq	32(%rsi), %rdi
	xorq	40(%rsi), %r8
	.loc	15 191 14                       # crypto_stream/salsa20/xmm6int/u0.h:191:14
	vmovq	%r8, %xmm0
	vmovq	%rdi, %xmm1
	vpunpcklqdq	%xmm0, %xmm1, %xmm0     # xmm0 = xmm1[0],xmm0[0]
	vmovdqu	%xmm0, 32(%rdx)
.Ltmp650:
.LBB2_26:                               # %middle.block
	#DEBUG_VALUE: salsa20_encrypt_bytes:ctx <- [DW_OP_LLVM_entry_value 1] $rdi
	#DEBUG_VALUE: salsa20_encrypt_bytes:m <- $rsi
	#DEBUG_VALUE: salsa20_encrypt_bytes:c <- $rdx
	#DEBUG_VALUE: salsa20_encrypt_bytes:bytes <- $rcx
	#DEBUG_VALUE: partialblock <- [DW_OP_plus_uconst 736, DW_OP_plus_uconst 60, DW_OP_deref, DW_OP_LLVM_fragment 480 32] $rsp
	#DEBUG_VALUE: partialblock <- [DW_OP_plus_uconst 736, DW_OP_plus_uconst 28, DW_OP_deref, DW_OP_LLVM_fragment 224 32] $rsp
	#DEBUG_VALUE: i <- 0
	.loc	15 190 5 is_stmt 1              # crypto_stream/salsa20/xmm6int/u0.h:190:5
	cmpq	%rax, %rcx
	je	.LBB2_36
.Ltmp651:
# %bb.27:                               # %vec.epilog.iter.check
	#DEBUG_VALUE: salsa20_encrypt_bytes:ctx <- [DW_OP_LLVM_entry_value 1] $rdi
	#DEBUG_VALUE: salsa20_encrypt_bytes:m <- $rsi
	#DEBUG_VALUE: salsa20_encrypt_bytes:c <- $rdx
	#DEBUG_VALUE: salsa20_encrypt_bytes:bytes <- $rcx
	#DEBUG_VALUE: partialblock <- [DW_OP_plus_uconst 736, DW_OP_plus_uconst 60, DW_OP_deref, DW_OP_LLVM_fragment 480 32] $rsp
	#DEBUG_VALUE: partialblock <- [DW_OP_plus_uconst 736, DW_OP_plus_uconst 28, DW_OP_deref, DW_OP_LLVM_fragment 224 32] $rsp
	#DEBUG_VALUE: i <- 0
	testb	$12, %cl
	je	.LBB2_31
.Ltmp652:
.LBB2_28:                               # %vec.epilog.ph
	#DEBUG_VALUE: salsa20_encrypt_bytes:ctx <- [DW_OP_LLVM_entry_value 1] $rdi
	#DEBUG_VALUE: salsa20_encrypt_bytes:m <- $rsi
	#DEBUG_VALUE: salsa20_encrypt_bytes:c <- $rdx
	#DEBUG_VALUE: salsa20_encrypt_bytes:bytes <- $rcx
	#DEBUG_VALUE: partialblock <- [DW_OP_plus_uconst 736, DW_OP_plus_uconst 60, DW_OP_deref, DW_OP_LLVM_fragment 480 32] $rsp
	#DEBUG_VALUE: partialblock <- [DW_OP_plus_uconst 736, DW_OP_plus_uconst 28, DW_OP_deref, DW_OP_LLVM_fragment 224 32] $rsp
	#DEBUG_VALUE: i <- 0
	.loc	15 0 5 is_stmt 0                # crypto_stream/salsa20/xmm6int/u0.h:0:5
	movq	%rax, %rdi
	.loc	15 190 5                        # crypto_stream/salsa20/xmm6int/u0.h:190:5
	movl	%ecx, %eax
	andl	$60, %eax
.Ltmp653:
	.loc	15 0 5                          # :0:5
.Ltmp654:
	.p2align	4
.LBB2_29:                               # %vec.epilog.vector.body
                                        # =>This Inner Loop Header: Depth=1
	#DEBUG_VALUE: salsa20_encrypt_bytes:ctx <- [DW_OP_LLVM_entry_value 1] $rdi
	#DEBUG_VALUE: salsa20_encrypt_bytes:m <- $rsi
	#DEBUG_VALUE: salsa20_encrypt_bytes:c <- $rdx
	#DEBUG_VALUE: salsa20_encrypt_bytes:bytes <- $rcx
	#DEBUG_VALUE: partialblock <- [DW_OP_plus_uconst 736, DW_OP_plus_uconst 60, DW_OP_deref, DW_OP_LLVM_fragment 480 32] $rsp
	#DEBUG_VALUE: partialblock <- [DW_OP_plus_uconst 736, DW_OP_plus_uconst 28, DW_OP_deref, DW_OP_LLVM_fragment 224 32] $rsp
	#DEBUG_VALUE: i <- 0
	.loc	15 191 23 is_stmt 1             # crypto_stream/salsa20/xmm6int/u0.h:191:23
	movl	736(%rsp,%rdi), %r8d
	.loc	15 191 21 is_stmt 0             # crypto_stream/salsa20/xmm6int/u0.h:191:21
	xorl	(%rsi,%rdi), %r8d
	.loc	15 191 14                       # crypto_stream/salsa20/xmm6int/u0.h:191:14
	movl	%r8d, (%rdx,%rdi)
.Ltmp655:
	.loc	15 190 29 is_stmt 1             # crypto_stream/salsa20/xmm6int/u0.h:190:29
	addq	$4, %rdi
	cmpq	%rdi, %rax
	jne	.LBB2_29
.Ltmp656:
# %bb.30:                               # %vec.epilog.middle.block
	#DEBUG_VALUE: salsa20_encrypt_bytes:ctx <- [DW_OP_LLVM_entry_value 1] $rdi
	#DEBUG_VALUE: salsa20_encrypt_bytes:m <- $rsi
	#DEBUG_VALUE: salsa20_encrypt_bytes:c <- $rdx
	#DEBUG_VALUE: salsa20_encrypt_bytes:bytes <- $rcx
	#DEBUG_VALUE: partialblock <- [DW_OP_plus_uconst 736, DW_OP_plus_uconst 60, DW_OP_deref, DW_OP_LLVM_fragment 480 32] $rsp
	#DEBUG_VALUE: partialblock <- [DW_OP_plus_uconst 736, DW_OP_plus_uconst 28, DW_OP_deref, DW_OP_LLVM_fragment 224 32] $rsp
	#DEBUG_VALUE: i <- 0
	.loc	15 190 5 is_stmt 0              # crypto_stream/salsa20/xmm6int/u0.h:190:5
	cmpq	%rax, %rcx
	je	.LBB2_36
	jmp	.LBB2_31
.Ltmp657:
.LBB2_39:                               # %CallStackCheckFailBlk
	#DEBUG_VALUE: salsa20_encrypt_bytes:ctx <- [DW_OP_LLVM_entry_value 1] $rdi
	.loc	4 0 0                           # crypto_stream/salsa20/xmm6int/salsa20_xmm6int-avx2.c:0
	vzeroupper
	callq	__stack_chk_fail@PLT
.Ltmp658:
.Lfunc_end2:
	.size	salsa20_encrypt_bytes, .Lfunc_end2-salsa20_encrypt_bytes
	.cfi_endproc
                                        # -- End function
	.hidden	crypto_stream_salsa20_xmm6int_avx2_implementation # @crypto_stream_salsa20_xmm6int_avx2_implementation
	.type	crypto_stream_salsa20_xmm6int_avx2_implementation,@object
	.data
	.globl	crypto_stream_salsa20_xmm6int_avx2_implementation
	.p2align	3, 0x0
crypto_stream_salsa20_xmm6int_avx2_implementation:
	.quad	stream_avx2
	.quad	stream_avx2_xor_ic
	.size	crypto_stream_salsa20_xmm6int_avx2_implementation, 16

	.section	".note.GNU-stack","",@progbits
	.addrsig
	.addrsig_sym stream_avx2
	.addrsig_sym stream_avx2_xor_ic
	.addrsig_sym __stack_chk_fail