	.file	"scalarmult_curve25519.c"
	.file	0 "/home/leizhenyuu/opt/Anonymous_Repo/libsodium_o2_attr_inline/src/libsodium" "scalarmult_curve25519.c" md5 0x8d7817da3a088f389c6a1351e22d1958
	.file	1 "crypto_scalarmult/curve25519" "scalarmult_curve25519.h"
	.file	2 "crypto_scalarmult/curve25519" "scalarmult_curve25519.c"
	.text
	.globl	crypto_scalarmult_curve25519    # -- Begin function crypto_scalarmult_curve25519
	.p2align	4
	.type	crypto_scalarmult_curve25519,@function
crypto_scalarmult_curve25519:           # @crypto_scalarmult_curve25519
.Lfunc_begin0:
	.loc	2 17 0                          # crypto_scalarmult/curve25519/scalarmult_curve25519.c:17:0
	.cfi_startproc
# %bb.0:
	#DEBUG_VALUE: crypto_scalarmult_curve25519:q <- $rdi
	#DEBUG_VALUE: crypto_scalarmult_curve25519:n <- $rsi
	#DEBUG_VALUE: crypto_scalarmult_curve25519:p <- $rdx
	pushq	%rbx
	.cfi_def_cfa_offset 16
	subq	$16, %rsp
	.cfi_def_cfa_offset 32
	.cfi_offset %rbx, -16
	movq	%rdi, %rbx
.Ltmp0:
	#DEBUG_VALUE: crypto_scalarmult_curve25519:d <- [DW_OP_plus_uconst 15, DW_OP_deref] $rsp
	.loc	2 19 28 prologue_end            # crypto_scalarmult/curve25519/scalarmult_curve25519.c:19:28
	movb	$0, 15(%rsp)
.Ltmp1:
	.loc	2 21 9                          # crypto_scalarmult/curve25519/scalarmult_curve25519.c:21:9
	movq	implementation(%rip), %rax
	callq	*(%rax)
.Ltmp2:
	#DEBUG_VALUE: crypto_scalarmult_curve25519:p <- [DW_OP_LLVM_entry_value 1] $rdx
	#DEBUG_VALUE: crypto_scalarmult_curve25519:n <- [DW_OP_LLVM_entry_value 1] $rsi
	#DEBUG_VALUE: crypto_scalarmult_curve25519:q <- $rbx
	movl	%eax, %ecx
	movl	$-1, %eax
	.loc	2 21 39 is_stmt 0               # crypto_scalarmult/curve25519/scalarmult_curve25519.c:21:39
	testl	%ecx, %ecx
	jne	.LBB0_4
.Ltmp3:
# %bb.1:                                # %.preheader.preheader
	#DEBUG_VALUE: crypto_scalarmult_curve25519:q <- $rbx
	#DEBUG_VALUE: crypto_scalarmult_curve25519:n <- [DW_OP_LLVM_entry_value 1] $rsi
	#DEBUG_VALUE: crypto_scalarmult_curve25519:p <- [DW_OP_LLVM_entry_value 1] $rdx
	#DEBUG_VALUE: crypto_scalarmult_curve25519:d <- [DW_OP_plus_uconst 15, DW_OP_deref] $rsp
	.loc	2 0 39                          # crypto_scalarmult/curve25519/scalarmult_curve25519.c:0:39
	xorl	%eax, %eax
.Ltmp4:
	.p2align	4
.LBB0_2:                                # %.preheader
                                        # =>This Inner Loop Header: Depth=1
	#DEBUG_VALUE: crypto_scalarmult_curve25519:q <- $rbx
	#DEBUG_VALUE: crypto_scalarmult_curve25519:n <- [DW_OP_LLVM_entry_value 1] $rsi
	#DEBUG_VALUE: crypto_scalarmult_curve25519:p <- [DW_OP_LLVM_entry_value 1] $rdx
	#DEBUG_VALUE: crypto_scalarmult_curve25519:d <- [DW_OP_plus_uconst 15, DW_OP_deref] $rsp
	#DEBUG_VALUE: crypto_scalarmult_curve25519:i <- $rax
	.loc	2 25 14 is_stmt 1               # crypto_scalarmult/curve25519/scalarmult_curve25519.c:25:14
	movzbl	(%rbx,%rax), %ecx
	.loc	2 25 11 is_stmt 0               # crypto_scalarmult/curve25519/scalarmult_curve25519.c:25:11
	orb	%cl, 15(%rsp)
.Ltmp5:
	#DEBUG_VALUE: crypto_scalarmult_curve25519:i <- [DW_OP_constu 1, DW_OP_or, DW_OP_stack_value] $rax
	#DEBUG_VALUE: crypto_scalarmult_curve25519:d <- undef
	.loc	2 25 14                         # crypto_scalarmult/curve25519/scalarmult_curve25519.c:25:14
	movzbl	1(%rbx,%rax), %ecx
	.loc	2 25 11                         # crypto_scalarmult/curve25519/scalarmult_curve25519.c:25:11
	orb	%cl, 15(%rsp)
.Ltmp6:
	#DEBUG_VALUE: crypto_scalarmult_curve25519:i <- [DW_OP_constu 2, DW_OP_or, DW_OP_stack_value] $rax
	.loc	2 25 14                         # crypto_scalarmult/curve25519/scalarmult_curve25519.c:25:14
	movzbl	2(%rbx,%rax), %ecx
	.loc	2 25 11                         # crypto_scalarmult/curve25519/scalarmult_curve25519.c:25:11
	orb	%cl, 15(%rsp)
.Ltmp7:
	#DEBUG_VALUE: crypto_scalarmult_curve25519:i <- [DW_OP_constu 3, DW_OP_or, DW_OP_stack_value] $rax
	.loc	2 25 14                         # crypto_scalarmult/curve25519/scalarmult_curve25519.c:25:14
	movzbl	3(%rbx,%rax), %ecx
	.loc	2 25 11                         # crypto_scalarmult/curve25519/scalarmult_curve25519.c:25:11
	orb	%cl, 15(%rsp)
.Ltmp8:
	#DEBUG_VALUE: crypto_scalarmult_curve25519:d <- [DW_OP_plus_uconst 15, DW_OP_deref] $rsp
	.loc	2 24 27 is_stmt 1               # crypto_scalarmult/curve25519/scalarmult_curve25519.c:24:27
	addq	$4, %rax
.Ltmp9:
	#DEBUG_VALUE: crypto_scalarmult_curve25519:i <- $rax
	.loc	2 24 19 is_stmt 0               # crypto_scalarmult/curve25519/scalarmult_curve25519.c:24:19
	cmpq	$32, %rax
.Ltmp10:
	.loc	2 24 5                          # crypto_scalarmult/curve25519/scalarmult_curve25519.c:24:5
	jne	.LBB0_2
.Ltmp11:
# %bb.3:
	#DEBUG_VALUE: crypto_scalarmult_curve25519:q <- $rbx
	#DEBUG_VALUE: crypto_scalarmult_curve25519:n <- [DW_OP_LLVM_entry_value 1] $rsi
	#DEBUG_VALUE: crypto_scalarmult_curve25519:p <- [DW_OP_LLVM_entry_value 1] $rdx
	#DEBUG_VALUE: crypto_scalarmult_curve25519:d <- [DW_OP_plus_uconst 15, DW_OP_deref] $rsp
	#DEBUG_VALUE: crypto_scalarmult_curve25519:i <- $rax
	.loc	2 27 20 is_stmt 1               # crypto_scalarmult/curve25519/scalarmult_curve25519.c:27:20
	movzbl	15(%rsp), %eax
.Ltmp12:
	.loc	2 27 16 is_stmt 0               # crypto_scalarmult/curve25519/scalarmult_curve25519.c:27:16
	shll	$23, %eax
	addl	$-8388608, %eax                 # imm = 0xFF800000
	sarl	$31, %eax
.Ltmp13:
.LBB0_4:
	#DEBUG_VALUE: crypto_scalarmult_curve25519:q <- $rbx
	#DEBUG_VALUE: crypto_scalarmult_curve25519:n <- [DW_OP_LLVM_entry_value 1] $rsi
	#DEBUG_VALUE: crypto_scalarmult_curve25519:p <- [DW_OP_LLVM_entry_value 1] $rdx
	#DEBUG_VALUE: crypto_scalarmult_curve25519:d <- [DW_OP_plus_uconst 15, DW_OP_deref] $rsp
	.loc	2 28 1 epilogue_begin is_stmt 1 # crypto_scalarmult/curve25519/scalarmult_curve25519.c:28:1
	addq	$16, %rsp
	.cfi_def_cfa_offset 16
	popq	%rbx
.Ltmp14:
	#DEBUG_VALUE: crypto_scalarmult_curve25519:q <- [DW_OP_LLVM_entry_value 1] $rdi
	.cfi_def_cfa_offset 8
	retq
.Ltmp15:
.Lfunc_end0:
	.size	crypto_scalarmult_curve25519, .Lfunc_end0-crypto_scalarmult_curve25519
	.cfi_endproc
                                        # -- End function
	.globl	crypto_scalarmult_curve25519_base # -- Begin function crypto_scalarmult_curve25519_base
	.p2align	4
	.type	crypto_scalarmult_curve25519_base,@function
crypto_scalarmult_curve25519_base:      # @crypto_scalarmult_curve25519_base
.Lfunc_begin1:
	.cfi_startproc
# %bb.0:
	#DEBUG_VALUE: crypto_scalarmult_curve25519_base:q <- $rdi
	#DEBUG_VALUE: crypto_scalarmult_curve25519_base:n <- $rsi
	.loc	2 33 12 prologue_end            # crypto_scalarmult/curve25519/scalarmult_curve25519.c:33:12
	movq	crypto_scalarmult_curve25519_ref10_implementation@GOTPCREL(%rip), %rax
	movq	8(%rax), %rax
.Ltmp16:
	jmpq	*%rax                           # TAILCALL
.Ltmp17:
.Lfunc_end1:
	.size	crypto_scalarmult_curve25519_base, .Lfunc_end1-crypto_scalarmult_curve25519_base
	.cfi_endproc
                                        # -- End function
	.globl	crypto_scalarmult_curve25519_bytes # -- Begin function crypto_scalarmult_curve25519_bytes
	.p2align	4
	.type	crypto_scalarmult_curve25519_bytes,@function
crypto_scalarmult_curve25519_bytes:     # @crypto_scalarmult_curve25519_bytes
.Lfunc_begin2:
	.cfi_startproc
# %bb.0:
	.loc	2 40 5 prologue_end             # crypto_scalarmult/curve25519/scalarmult_curve25519.c:40:5
	movl	$32, %eax
	retq
.Ltmp18:
.Lfunc_end2:
	.size	crypto_scalarmult_curve25519_bytes, .Lfunc_end2-crypto_scalarmult_curve25519_bytes
	.cfi_endproc
                                        # -- End function
	.globl	crypto_scalarmult_curve25519_scalarbytes # -- Begin function crypto_scalarmult_curve25519_scalarbytes
	.p2align	4
	.type	crypto_scalarmult_curve25519_scalarbytes,@function
crypto_scalarmult_curve25519_scalarbytes: # @crypto_scalarmult_curve25519_scalarbytes
.Lfunc_begin3:
	.cfi_startproc
# %bb.0:
	.loc	2 46 5 prologue_end             # crypto_scalarmult/curve25519/scalarmult_curve25519.c:46:5
	movl	$32, %eax
	retq
.Ltmp19:
.Lfunc_end3:
	.size	crypto_scalarmult_curve25519_scalarbytes, .Lfunc_end3-crypto_scalarmult_curve25519_scalarbytes
	.cfi_endproc
                                        # -- End function
	.hidden	_crypto_scalarmult_curve25519_pick_best_implementation # -- Begin function _crypto_scalarmult_curve25519_pick_best_implementation
	.globl	_crypto_scalarmult_curve25519_pick_best_implementation
	.p2align	4
	.type	_crypto_scalarmult_curve25519_pick_best_implementation,@function
_crypto_scalarmult_curve25519_pick_best_implementation: # @_crypto_scalarmult_curve25519_pick_best_implementation
.Lfunc_begin4:
	.loc	2 51 0                          # crypto_scalarmult/curve25519/scalarmult_curve25519.c:51:0
	.cfi_startproc
# %bb.0:
	pushq	%rax
	.cfi_def_cfa_offset 16
.Ltmp20:
	.loc	2 52 20 prologue_end            # crypto_scalarmult/curve25519/scalarmult_curve25519.c:52:20
	movq	crypto_scalarmult_curve25519_ref10_implementation@GOTPCREL(%rip), %rax
	movq	%rax, implementation(%rip)
.Ltmp21:
	.loc	2 55 9                          # crypto_scalarmult/curve25519/scalarmult_curve25519.c:55:9
	callq	sodium_runtime_has_avx@PLT
.Ltmp22:
	testl	%eax, %eax
	je	.LBB4_2
# %bb.1:
.Ltmp23:
	.loc	2 56 24                         # crypto_scalarmult/curve25519/scalarmult_curve25519.c:56:24
	movq	crypto_scalarmult_curve25519_sandy2x_implementation@GOTPCREL(%rip), %rax
	movq	%rax, implementation(%rip)
.Ltmp24:
.LBB4_2:
	.loc	2 59 5                          # crypto_scalarmult/curve25519/scalarmult_curve25519.c:59:5
	xorl	%eax, %eax
	.loc	2 59 5 epilogue_begin is_stmt 0 # crypto_scalarmult/curve25519/scalarmult_curve25519.c:59:5
	popq	%rcx
	.cfi_def_cfa_offset 8
	retq
.Ltmp25:
.Lfunc_end4:
	.size	_crypto_scalarmult_curve25519_pick_best_implementation, .Lfunc_end4-_crypto_scalarmult_curve25519_pick_best_implementation
	.cfi_endproc
	.file	3 "./include/sodium" "runtime.h"
                                        # -- End function
	.type	implementation,@object          # @implementation
	.data
	.p2align	3, 0x0
implementation:
	.quad	crypto_scalarmult_curve25519_ref10_implementation
	.size	implementation, 8

	.file	4 "/home/leizhenyuu/opt/Anonymous_Repo" "llvm-project/build/lib/clang/21/include/__stddef_size_t.h"
	.section	".note.GNU-stack","",@progbits
	.addrsig
	.addrsig_sym crypto_scalarmult_curve25519_ref10_implementation
	.addrsig_sym crypto_scalarmult_curve25519_sandy2x_implementation