	.file	"scalarmult_ed25519_ref10.c"
	.file	0 "/home/leizhenyuu/opt/Anonymous_Repo/libsodium_o2_attr_inline/src/libsodium" "scalarmult_ed25519_ref10.c" md5 0xbe96f1a210d4f74b13c370265f83e465
	.text
	.globl	crypto_scalarmult_ed25519       # -- Begin function crypto_scalarmult_ed25519
	.p2align	4
	.type	crypto_scalarmult_ed25519,@function
crypto_scalarmult_ed25519:              # @crypto_scalarmult_ed25519
.Lfunc_begin0:
	.cfi_startproc
# %bb.0:
	#DEBUG_VALUE: crypto_scalarmult_ed25519:q <- $rdi
	#DEBUG_VALUE: crypto_scalarmult_ed25519:n <- $rsi
	#DEBUG_VALUE: crypto_scalarmult_ed25519:p <- $rdx
	.file	1 "crypto_scalarmult/ed25519/ref10" "scalarmult_ed25519_ref10.c"
	.loc	1 63 12 prologue_end            # crypto_scalarmult/ed25519/ref10/scalarmult_ed25519_ref10.c:63:12
	movl	$1, %ecx
.Ltmp0:
	jmp	_crypto_scalarmult_ed25519      # TAILCALL
.Ltmp1:
.Lfunc_end0:
	.size	crypto_scalarmult_ed25519, .Lfunc_end0-crypto_scalarmult_ed25519
	.cfi_endproc
                                        # -- End function
	.p2align	4                               # -- Begin function _crypto_scalarmult_ed25519
	.type	_crypto_scalarmult_ed25519,@function
_crypto_scalarmult_ed25519:             # @_crypto_scalarmult_ed25519
.Lfunc_begin1:
	.loc	1 33 0                          # crypto_scalarmult/ed25519/ref10/scalarmult_ed25519_ref10.c:33:0
	.cfi_startproc
# %bb.0:
	#DEBUG_VALUE: _crypto_scalarmult_ed25519:q <- $rdi
	#DEBUG_VALUE: _crypto_scalarmult_ed25519:n <- $rsi
	#DEBUG_VALUE: _crypto_scalarmult_ed25519:p <- $rdx
	#DEBUG_VALUE: _crypto_scalarmult_ed25519:clamp <- $ecx
	pushq	%rbp
	.cfi_def_cfa_offset 16
	pushq	%r15
	.cfi_def_cfa_offset 24
	pushq	%r14
	.cfi_def_cfa_offset 32
	pushq	%r12
	.cfi_def_cfa_offset 40
	pushq	%rbx
	.cfi_def_cfa_offset 48
	subq	$320, %rsp                      # imm = 0x140
	.cfi_def_cfa_offset 368
	.cfi_offset %rbx, -48
	.cfi_offset %r12, -40
	.cfi_offset %r14, -32
	.cfi_offset %r15, -24
	.cfi_offset %rbp, -16
	movl	%ecx, %ebp
	movq	%rdx, %r12
	movq	%rsi, %r14
	movq	%rdi, %r15
.Ltmp2:
	#DEBUG_VALUE: _crypto_scalarmult_ed25519:t <- undef
	.loc	1 39 9 prologue_end             # crypto_scalarmult/ed25519/ref10/scalarmult_ed25519_ref10.c:39:9
	movq	%rdx, %rdi
.Ltmp3:
	#DEBUG_VALUE: _crypto_scalarmult_ed25519:q <- $r15
	callq	ge25519_is_canonical@PLT
.Ltmp4:
	#DEBUG_VALUE: _crypto_scalarmult_ed25519:clamp <- $ebp
	#DEBUG_VALUE: _crypto_scalarmult_ed25519:p <- $r12
	#DEBUG_VALUE: _crypto_scalarmult_ed25519:n <- $r14
	.loc	1 0 9 is_stmt 0                 # crypto_scalarmult/ed25519/ref10/scalarmult_ed25519_ref10.c:0:9
	movl	$-1, %ebx
	.loc	1 39 33                         # crypto_scalarmult/ed25519/ref10/scalarmult_ed25519_ref10.c:39:33
	testl	%eax, %eax
	.loc	1 39 38                         # crypto_scalarmult/ed25519/ref10/scalarmult_ed25519_ref10.c:39:38
	je	.LBB1_8
.Ltmp5:
# %bb.1:
	#DEBUG_VALUE: _crypto_scalarmult_ed25519:q <- $r15
	#DEBUG_VALUE: _crypto_scalarmult_ed25519:n <- $r14
	#DEBUG_VALUE: _crypto_scalarmult_ed25519:p <- $r12
	#DEBUG_VALUE: _crypto_scalarmult_ed25519:clamp <- $ebp
	.loc	1 39 41                         # crypto_scalarmult/ed25519/ref10/scalarmult_ed25519_ref10.c:39:41
	movq	%r12, %rdi
	callq	ge25519_has_small_order@PLT
.Ltmp6:
	.loc	1 39 68                         # crypto_scalarmult/ed25519/ref10/scalarmult_ed25519_ref10.c:39:68
	testl	%eax, %eax
	.loc	1 39 73                         # crypto_scalarmult/ed25519/ref10/scalarmult_ed25519_ref10.c:39:73
	jne	.LBB1_8
.Ltmp7:
# %bb.2:
	#DEBUG_VALUE: _crypto_scalarmult_ed25519:q <- $r15
	#DEBUG_VALUE: _crypto_scalarmult_ed25519:n <- $r14
	#DEBUG_VALUE: _crypto_scalarmult_ed25519:p <- $r12
	#DEBUG_VALUE: _crypto_scalarmult_ed25519:clamp <- $ebp
	.loc	1 0 73                          # crypto_scalarmult/ed25519/ref10/scalarmult_ed25519_ref10.c:0:73
	movq	%rsp, %rdi
	.loc	1 40 9 is_stmt 1                # crypto_scalarmult/ed25519/ref10/scalarmult_ed25519_ref10.c:40:9
	movq	%r12, %rsi
	callq	ge25519_frombytes@PLT
.Ltmp8:
	.loc	1 40 34 is_stmt 0               # crypto_scalarmult/ed25519/ref10/scalarmult_ed25519_ref10.c:40:34
	testl	%eax, %eax
	.loc	1 40 39                         # crypto_scalarmult/ed25519/ref10/scalarmult_ed25519_ref10.c:40:39
	je	.LBB1_3
.Ltmp9:
.LBB1_8:
	#DEBUG_VALUE: _crypto_scalarmult_ed25519:q <- $r15
	#DEBUG_VALUE: _crypto_scalarmult_ed25519:n <- $r14
	#DEBUG_VALUE: _crypto_scalarmult_ed25519:p <- [DW_OP_LLVM_entry_value 1] $rdx
	#DEBUG_VALUE: _crypto_scalarmult_ed25519:clamp <- $ebp
	.loc	1 57 1 is_stmt 1                # crypto_scalarmult/ed25519/ref10/scalarmult_ed25519_ref10.c:57:1
	movl	%ebx, %eax
	.loc	1 57 1 epilogue_begin is_stmt 0 # crypto_scalarmult/ed25519/ref10/scalarmult_ed25519_ref10.c:57:1
	addq	$320, %rsp                      # imm = 0x140
	.cfi_def_cfa_offset 48
	popq	%rbx
	.cfi_def_cfa_offset 40
	popq	%r12
	.cfi_def_cfa_offset 32
	popq	%r14
.Ltmp10:
	#DEBUG_VALUE: _crypto_scalarmult_ed25519:n <- [DW_OP_LLVM_entry_value 1] $rsi
	.cfi_def_cfa_offset 24
	popq	%r15
.Ltmp11:
	#DEBUG_VALUE: _crypto_scalarmult_ed25519:q <- [DW_OP_LLVM_entry_value 1] $rdi
	.cfi_def_cfa_offset 16
	popq	%rbp
.Ltmp12:
	#DEBUG_VALUE: _crypto_scalarmult_ed25519:clamp <- [DW_OP_LLVM_entry_value 1] $ecx
	.cfi_def_cfa_offset 8
	retq
.Ltmp13:
.LBB1_3:
	.cfi_def_cfa_offset 368
	#DEBUG_VALUE: _crypto_scalarmult_ed25519:q <- $r15
	#DEBUG_VALUE: _crypto_scalarmult_ed25519:n <- $r14
	#DEBUG_VALUE: _crypto_scalarmult_ed25519:p <- $r12
	#DEBUG_VALUE: _crypto_scalarmult_ed25519:clamp <- $ebp
	.loc	1 0 1                           # crypto_scalarmult/ed25519/ref10/scalarmult_ed25519_ref10.c:0:1
	movq	%rsp, %rdi
.Ltmp14:
	.loc	1 40 42 is_stmt 1               # crypto_scalarmult/ed25519/ref10/scalarmult_ed25519_ref10.c:40:42
	callq	ge25519_is_on_main_subgroup@PLT
.Ltmp15:
	.loc	1 40 74 is_stmt 0               # crypto_scalarmult/ed25519/ref10/scalarmult_ed25519_ref10.c:40:74
	testl	%eax, %eax
	.loc	1 40 39                         # crypto_scalarmult/ed25519/ref10/scalarmult_ed25519_ref10.c:40:39
	je	.LBB1_8
.Ltmp16:
# %bb.4:                                # %.preheader.preheader
	#DEBUG_VALUE: _crypto_scalarmult_ed25519:q <- $r15
	#DEBUG_VALUE: _crypto_scalarmult_ed25519:n <- $r14
	#DEBUG_VALUE: _crypto_scalarmult_ed25519:p <- $r12
	#DEBUG_VALUE: _crypto_scalarmult_ed25519:clamp <- $ebp
	#DEBUG_VALUE: _crypto_scalarmult_ed25519:i <- 0
	.loc	1 44 16 is_stmt 1               # crypto_scalarmult/ed25519/ref10/scalarmult_ed25519_ref10.c:44:16
	movzbl	(%r14), %eax
	.loc	1 44 14 is_stmt 0               # crypto_scalarmult/ed25519/ref10/scalarmult_ed25519_ref10.c:44:14
	movb	%al, (%r15)
.Ltmp17:
	#DEBUG_VALUE: _crypto_scalarmult_ed25519:i <- 1
	.loc	1 44 16                         # crypto_scalarmult/ed25519/ref10/scalarmult_ed25519_ref10.c:44:16
	movzbl	1(%r14), %eax
	.loc	1 44 14                         # crypto_scalarmult/ed25519/ref10/scalarmult_ed25519_ref10.c:44:14
	movb	%al, 1(%r15)
.Ltmp18:
	#DEBUG_VALUE: _crypto_scalarmult_ed25519:i <- 2
	.loc	1 44 16                         # crypto_scalarmult/ed25519/ref10/scalarmult_ed25519_ref10.c:44:16
	movzbl	2(%r14), %eax
	.loc	1 44 14                         # crypto_scalarmult/ed25519/ref10/scalarmult_ed25519_ref10.c:44:14
	movb	%al, 2(%r15)
.Ltmp19:
	#DEBUG_VALUE: _crypto_scalarmult_ed25519:i <- 3
	.loc	1 44 16                         # crypto_scalarmult/ed25519/ref10/scalarmult_ed25519_ref10.c:44:16
	movzbl	3(%r14), %eax
	.loc	1 44 14                         # crypto_scalarmult/ed25519/ref10/scalarmult_ed25519_ref10.c:44:14
	movb	%al, 3(%r15)
.Ltmp20:
	#DEBUG_VALUE: _crypto_scalarmult_ed25519:i <- 4
	.loc	1 44 16                         # crypto_scalarmult/ed25519/ref10/scalarmult_ed25519_ref10.c:44:16
	movzbl	4(%r14), %eax
	.loc	1 44 14                         # crypto_scalarmult/ed25519/ref10/scalarmult_ed25519_ref10.c:44:14
	movb	%al, 4(%r15)
.Ltmp21:
	#DEBUG_VALUE: _crypto_scalarmult_ed25519:i <- 5
	.loc	1 44 16                         # crypto_scalarmult/ed25519/ref10/scalarmult_ed25519_ref10.c:44:16
	movzbl	5(%r14), %eax
	.loc	1 44 14                         # crypto_scalarmult/ed25519/ref10/scalarmult_ed25519_ref10.c:44:14
	movb	%al, 5(%r15)
.Ltmp22:
	#DEBUG_VALUE: _crypto_scalarmult_ed25519:i <- 6
	.loc	1 44 16                         # crypto_scalarmult/ed25519/ref10/scalarmult_ed25519_ref10.c:44:16
	movzbl	6(%r14), %eax
	.loc	1 44 14                         # crypto_scalarmult/ed25519/ref10/scalarmult_ed25519_ref10.c:44:14
	movb	%al, 6(%r15)
.Ltmp23:
	#DEBUG_VALUE: _crypto_scalarmult_ed25519:i <- 7
	.loc	1 44 16                         # crypto_scalarmult/ed25519/ref10/scalarmult_ed25519_ref10.c:44:16
	movzbl	7(%r14), %eax
	.loc	1 44 14                         # crypto_scalarmult/ed25519/ref10/scalarmult_ed25519_ref10.c:44:14
	movb	%al, 7(%r15)
.Ltmp24:
	#DEBUG_VALUE: _crypto_scalarmult_ed25519:i <- 8
	.loc	1 44 16                         # crypto_scalarmult/ed25519/ref10/scalarmult_ed25519_ref10.c:44:16
	movzbl	8(%r14), %eax
	.loc	1 44 14                         # crypto_scalarmult/ed25519/ref10/scalarmult_ed25519_ref10.c:44:14
	movb	%al, 8(%r15)
.Ltmp25:
	#DEBUG_VALUE: _crypto_scalarmult_ed25519:i <- 9
	.loc	1 44 16                         # crypto_scalarmult/ed25519/ref10/scalarmult_ed25519_ref10.c:44:16
	movzbl	9(%r14), %eax
	.loc	1 44 14                         # crypto_scalarmult/ed25519/ref10/scalarmult_ed25519_ref10.c:44:14
	movb	%al, 9(%r15)
.Ltmp26:
	#DEBUG_VALUE: _crypto_scalarmult_ed25519:i <- 10
	.loc	1 44 16                         # crypto_scalarmult/ed25519/ref10/scalarmult_ed25519_ref10.c:44:16
	movzbl	10(%r14), %eax
	.loc	1 44 14                         # crypto_scalarmult/ed25519/ref10/scalarmult_ed25519_ref10.c:44:14
	movb	%al, 10(%r15)
.Ltmp27:
	#DEBUG_VALUE: _crypto_scalarmult_ed25519:i <- 11
	.loc	1 44 16                         # crypto_scalarmult/ed25519/ref10/scalarmult_ed25519_ref10.c:44:16
	movzbl	11(%r14), %eax
	.loc	1 44 14                         # crypto_scalarmult/ed25519/ref10/scalarmult_ed25519_ref10.c:44:14
	movb	%al, 11(%r15)
.Ltmp28:
	#DEBUG_VALUE: _crypto_scalarmult_ed25519:i <- 12
	.loc	1 44 16                         # crypto_scalarmult/ed25519/ref10/scalarmult_ed25519_ref10.c:44:16
	movzbl	12(%r14), %eax
	.loc	1 44 14                         # crypto_scalarmult/ed25519/ref10/scalarmult_ed25519_ref10.c:44:14
	movb	%al, 12(%r15)
.Ltmp29:
	#DEBUG_VALUE: _crypto_scalarmult_ed25519:i <- 13
	.loc	1 44 16                         # crypto_scalarmult/ed25519/ref10/scalarmult_ed25519_ref10.c:44:16
	movzbl	13(%r14), %eax
	.loc	1 44 14                         # crypto_scalarmult/ed25519/ref10/scalarmult_ed25519_ref10.c:44:14
	movb	%al, 13(%r15)
.Ltmp30:
	#DEBUG_VALUE: _crypto_scalarmult_ed25519:i <- 14
	.loc	1 44 16                         # crypto_scalarmult/ed25519/ref10/scalarmult_ed25519_ref10.c:44:16
	movzbl	14(%r14), %eax
	.loc	1 44 14                         # crypto_scalarmult/ed25519/ref10/scalarmult_ed25519_ref10.c:44:14
	movb	%al, 14(%r15)
.Ltmp31:
	#DEBUG_VALUE: _crypto_scalarmult_ed25519:i <- 15
	.loc	1 44 16                         # crypto_scalarmult/ed25519/ref10/scalarmult_ed25519_ref10.c:44:16
	movzbl	15(%r14), %eax
	.loc	1 44 14                         # crypto_scalarmult/ed25519/ref10/scalarmult_ed25519_ref10.c:44:14
	movb	%al, 15(%r15)
.Ltmp32:
	#DEBUG_VALUE: _crypto_scalarmult_ed25519:i <- 16
	.loc	1 44 16                         # crypto_scalarmult/ed25519/ref10/scalarmult_ed25519_ref10.c:44:16
	movzbl	16(%r14), %eax
	.loc	1 44 14                         # crypto_scalarmult/ed25519/ref10/scalarmult_ed25519_ref10.c:44:14
	movb	%al, 16(%r15)
.Ltmp33:
	#DEBUG_VALUE: _crypto_scalarmult_ed25519:i <- 17
	.loc	1 44 16                         # crypto_scalarmult/ed25519/ref10/scalarmult_ed25519_ref10.c:44:16
	movzbl	17(%r14), %eax
	.loc	1 44 14                         # crypto_scalarmult/ed25519/ref10/scalarmult_ed25519_ref10.c:44:14
	movb	%al, 17(%r15)
.Ltmp34:
	#DEBUG_VALUE: _crypto_scalarmult_ed25519:i <- 18
	.loc	1 44 16                         # crypto_scalarmult/ed25519/ref10/scalarmult_ed25519_ref10.c:44:16
	movzbl	18(%r14), %eax
	.loc	1 44 14                         # crypto_scalarmult/ed25519/ref10/scalarmult_ed25519_ref10.c:44:14
	movb	%al, 18(%r15)
.Ltmp35:
	#DEBUG_VALUE: _crypto_scalarmult_ed25519:i <- 19
	.loc	1 44 16                         # crypto_scalarmult/ed25519/ref10/scalarmult_ed25519_ref10.c:44:16
	movzbl	19(%r14), %eax
	.loc	1 44 14                         # crypto_scalarmult/ed25519/ref10/scalarmult_ed25519_ref10.c:44:14
	movb	%al, 19(%r15)
.Ltmp36:
	#DEBUG_VALUE: _crypto_scalarmult_ed25519:i <- 20
	.loc	1 44 16                         # crypto_scalarmult/ed25519/ref10/scalarmult_ed25519_ref10.c:44:16
	movzbl	20(%r14), %eax
	.loc	1 44 14                         # crypto_scalarmult/ed25519/ref10/scalarmult_ed25519_ref10.c:44:14
	movb	%al, 20(%r15)
.Ltmp37:
	#DEBUG_VALUE: _crypto_scalarmult_ed25519:i <- 21
	.loc	1 44 16                         # crypto_scalarmult/ed25519/ref10/scalarmult_ed25519_ref10.c:44:16
	movzbl	21(%r14), %eax
	.loc	1 44 14                         # crypto_scalarmult/ed25519/ref10/scalarmult_ed25519_ref10.c:44:14
	movb	%al, 21(%r15)
.Ltmp38:
	#DEBUG_VALUE: _crypto_scalarmult_ed25519:i <- 22
	.loc	1 44 16                         # crypto_scalarmult/ed25519/ref10/scalarmult_ed25519_ref10.c:44:16
	movzbl	22(%r14), %eax
	.loc	1 44 14                         # crypto_scalarmult/ed25519/ref10/scalarmult_ed25519_ref10.c:44:14
	movb	%al, 22(%r15)
.Ltmp39:
	#DEBUG_VALUE: _crypto_scalarmult_ed25519:i <- 23
	.loc	1 44 16                         # crypto_scalarmult/ed25519/ref10/scalarmult_ed25519_ref10.c:44:16
	movzbl	23(%r14), %eax
	.loc	1 44 14                         # crypto_scalarmult/ed25519/ref10/scalarmult_ed25519_ref10.c:44:14
	movb	%al, 23(%r15)
.Ltmp40:
	#DEBUG_VALUE: _crypto_scalarmult_ed25519:i <- 24
	.loc	1 44 16                         # crypto_scalarmult/ed25519/ref10/scalarmult_ed25519_ref10.c:44:16
	movzbl	24(%r14), %eax
	.loc	1 44 14                         # crypto_scalarmult/ed25519/ref10/scalarmult_ed25519_ref10.c:44:14
	movb	%al, 24(%r15)
.Ltmp41:
	#DEBUG_VALUE: _crypto_scalarmult_ed25519:i <- 25
	.loc	1 44 16                         # crypto_scalarmult/ed25519/ref10/scalarmult_ed25519_ref10.c:44:16
	movzbl	25(%r14), %eax
	.loc	1 44 14                         # crypto_scalarmult/ed25519/ref10/scalarmult_ed25519_ref10.c:44:14
	movb	%al, 25(%r15)
.Ltmp42:
	#DEBUG_VALUE: _crypto_scalarmult_ed25519:i <- 26
	.loc	1 44 16                         # crypto_scalarmult/ed25519/ref10/scalarmult_ed25519_ref10.c:44:16
	movzbl	26(%r14), %eax
	.loc	1 44 14                         # crypto_scalarmult/ed25519/ref10/scalarmult_ed25519_ref10.c:44:14
	movb	%al, 26(%r15)
.Ltmp43:
	#DEBUG_VALUE: _crypto_scalarmult_ed25519:i <- 27
	.loc	1 44 16                         # crypto_scalarmult/ed25519/ref10/scalarmult_ed25519_ref10.c:44:16
	movzbl	27(%r14), %eax
	.loc	1 44 14                         # crypto_scalarmult/ed25519/ref10/scalarmult_ed25519_ref10.c:44:14
	movb	%al, 27(%r15)
.Ltmp44:
	#DEBUG_VALUE: _crypto_scalarmult_ed25519:i <- 28
	.loc	1 44 16                         # crypto_scalarmult/ed25519/ref10/scalarmult_ed25519_ref10.c:44:16
	movzbl	28(%r14), %eax
	.loc	1 44 14                         # crypto_scalarmult/ed25519/ref10/scalarmult_ed25519_ref10.c:44:14
	movb	%al, 28(%r15)
.Ltmp45:
	#DEBUG_VALUE: _crypto_scalarmult_ed25519:i <- 29
	.loc	1 44 16                         # crypto_scalarmult/ed25519/ref10/scalarmult_ed25519_ref10.c:44:16
	movzbl	29(%r14), %eax
	.loc	1 44 14                         # crypto_scalarmult/ed25519/ref10/scalarmult_ed25519_ref10.c:44:14
	movb	%al, 29(%r15)
.Ltmp46:
	#DEBUG_VALUE: _crypto_scalarmult_ed25519:i <- 30
	.loc	1 44 16                         # crypto_scalarmult/ed25519/ref10/scalarmult_ed25519_ref10.c:44:16
	movzbl	30(%r14), %eax
	.loc	1 44 14                         # crypto_scalarmult/ed25519/ref10/scalarmult_ed25519_ref10.c:44:14
	movb	%al, 30(%r15)
.Ltmp47:
	#DEBUG_VALUE: _crypto_scalarmult_ed25519:i <- 31
	.loc	1 44 16                         # crypto_scalarmult/ed25519/ref10/scalarmult_ed25519_ref10.c:44:16
	movzbl	31(%r14), %eax
.Ltmp48:
	#DEBUG_VALUE: _crypto_scalarmult_ed25519:i <- 32
	.loc	1 46 15 is_stmt 1               # crypto_scalarmult/ed25519/ref10/scalarmult_ed25519_ref10.c:46:15
	testl	%ebp, %ebp
	je	.LBB1_6
.Ltmp49:
# %bb.5:
	#DEBUG_VALUE: _crypto_scalarmult_ed25519:q <- $r15
	#DEBUG_VALUE: _crypto_scalarmult_ed25519:n <- $r14
	#DEBUG_VALUE: _crypto_scalarmult_ed25519:p <- $r12
	#DEBUG_VALUE: _crypto_scalarmult_ed25519:clamp <- $ebp
	#DEBUG_VALUE: _crypto_scalarmult_ed25519:i <- 32
	#DEBUG_VALUE: _crypto_scalarmult_ed25519_clamp:k <- $r15
	.loc	1 26 10                         # crypto_scalarmult/ed25519/ref10/scalarmult_ed25519_ref10.c:26:10 @[ crypto_scalarmult/ed25519/ref10/scalarmult_ed25519_ref10.c:47:9 ]
	andb	$-8, (%r15)
	.loc	1 27 11                         # crypto_scalarmult/ed25519/ref10/scalarmult_ed25519_ref10.c:27:11 @[ crypto_scalarmult/ed25519/ref10/scalarmult_ed25519_ref10.c:47:9 ]
	orb	$64, %al
.Ltmp50:
.LBB1_6:
	#DEBUG_VALUE: _crypto_scalarmult_ed25519:q <- $r15
	#DEBUG_VALUE: _crypto_scalarmult_ed25519:n <- $r14
	#DEBUG_VALUE: _crypto_scalarmult_ed25519:p <- $r12
	#DEBUG_VALUE: _crypto_scalarmult_ed25519:clamp <- $ebp
	#DEBUG_VALUE: _crypto_scalarmult_ed25519:i <- 32
	.loc	1 49 11                         # crypto_scalarmult/ed25519/ref10/scalarmult_ed25519_ref10.c:49:11
	andb	$127, %al
	movb	%al, 31(%r15)
	leaq	160(%rsp), %r12
.Ltmp51:
	#DEBUG_VALUE: _crypto_scalarmult_ed25519:p <- [DW_OP_LLVM_entry_value 1] $rdx
	.loc	1 0 11 is_stmt 0                # crypto_scalarmult/ed25519/ref10/scalarmult_ed25519_ref10.c:0:11
	movq	%rsp, %rdx
	.loc	1 51 5 is_stmt 1                # crypto_scalarmult/ed25519/ref10/scalarmult_ed25519_ref10.c:51:5
	movq	%r12, %rdi
	movq	%r15, %rsi
	callq	ge25519_scalarmult@PLT
.Ltmp52:
	.loc	1 52 5                          # crypto_scalarmult/ed25519/ref10/scalarmult_ed25519_ref10.c:52:5
	movq	%r15, %rdi
	movq	%r12, %rsi
	callq	ge25519_p3_tobytes@PLT
.Ltmp53:
	#DEBUG_VALUE: _crypto_scalarmult_ed25519_is_inf:s <- $r15
	.loc	1 14 9                          # crypto_scalarmult/ed25519/ref10/scalarmult_ed25519_ref10.c:14:9 @[ crypto_scalarmult/ed25519/ref10/scalarmult_ed25519_ref10.c:53:9 ]
	movzbl	(%r15), %eax
	.loc	1 14 14 is_stmt 0               # crypto_scalarmult/ed25519/ref10/scalarmult_ed25519_ref10.c:14:14 @[ crypto_scalarmult/ed25519/ref10/scalarmult_ed25519_ref10.c:53:9 ]
	xorl	$1, %eax
.Ltmp54:
	#DEBUG_VALUE: _crypto_scalarmult_ed25519_is_inf:c <- undef
	#DEBUG_VALUE: _crypto_scalarmult_ed25519_is_inf:i <- 16
	.loc	1 16 14 is_stmt 1               # crypto_scalarmult/ed25519/ref10/scalarmult_ed25519_ref10.c:16:14 @[ crypto_scalarmult/ed25519/ref10/scalarmult_ed25519_ref10.c:53:9 ]
	movdqu	1(%r15), %xmm0
.Ltmp55:
	#DEBUG_VALUE: _crypto_scalarmult_ed25519_is_inf:i <- 24
	movq	17(%r15), %xmm1                 # xmm1 = mem[0],zero
.Ltmp56:
	#DEBUG_VALUE: _crypto_scalarmult_ed25519_is_inf:i <- 28
	movss	25(%r15), %xmm2                 # xmm2 = mem[0],zero,zero,zero
.Ltmp57:
	#DEBUG_VALUE: _crypto_scalarmult_ed25519_is_inf:i <- 29
	#DEBUG_VALUE: _crypto_scalarmult_ed25519_is_inf:i <- 30
	#DEBUG_VALUE: _crypto_scalarmult_ed25519_is_inf:i <- 31
	.loc	1 18 10                         # crypto_scalarmult/ed25519/ref10/scalarmult_ed25519_ref10.c:18:10 @[ crypto_scalarmult/ed25519/ref10/scalarmult_ed25519_ref10.c:53:9 ]
	movzbl	31(%r15), %ecx
	.loc	1 18 7 is_stmt 0                # crypto_scalarmult/ed25519/ref10/scalarmult_ed25519_ref10.c:18:7 @[ crypto_scalarmult/ed25519/ref10/scalarmult_ed25519_ref10.c:53:9 ]
	por	%xmm0, %xmm1
	pshufd	$238, %xmm0, %xmm3              # xmm3 = xmm0[2,3,2,3]
	movsd	%xmm1, %xmm0                    # xmm0 = xmm1[0],xmm0[1]
	orpd	%xmm2, %xmm1
	movss	%xmm1, %xmm0                    # xmm0 = xmm1[0],xmm0[1,2,3]
	orps	%xmm3, %xmm0
	pshufd	$85, %xmm0, %xmm1               # xmm1 = xmm0[1,1,1,1]
	por	%xmm0, %xmm1
	movdqa	%xmm1, %xmm0
	psrld	$16, %xmm0
	por	%xmm1, %xmm0
	movdqa	%xmm0, %xmm1
	psrlw	$8, %xmm1
	por	%xmm0, %xmm1
	movd	%xmm1, %edx
.Ltmp58:
	.loc	1 16 11 is_stmt 1               # crypto_scalarmult/ed25519/ref10/scalarmult_ed25519_ref10.c:16:11 @[ crypto_scalarmult/ed25519/ref10/scalarmult_ed25519_ref10.c:53:9 ]
	orb	29(%r15), %dl
.Ltmp59:
	.loc	1 18 16                         # crypto_scalarmult/ed25519/ref10/scalarmult_ed25519_ref10.c:18:16 @[ crypto_scalarmult/ed25519/ref10/scalarmult_ed25519_ref10.c:53:9 ]
	andb	$127, %cl
	.loc	1 18 7 is_stmt 0                # crypto_scalarmult/ed25519/ref10/scalarmult_ed25519_ref10.c:18:7 @[ crypto_scalarmult/ed25519/ref10/scalarmult_ed25519_ref10.c:53:9 ]
	orb	30(%r15), %cl
.Ltmp60:
	.loc	1 16 11 is_stmt 1               # crypto_scalarmult/ed25519/ref10/scalarmult_ed25519_ref10.c:16:11 @[ crypto_scalarmult/ed25519/ref10/scalarmult_ed25519_ref10.c:53:9 ]
	orb	%dl, %cl
	movzbl	%cl, %ecx
	orl	%eax, %ecx
.Ltmp61:
	#DEBUG_VALUE: _crypto_scalarmult_ed25519_is_inf:c <- $ecx
	.loc	1 20 33                         # crypto_scalarmult/ed25519/ref10/scalarmult_ed25519_ref10.c:20:33 @[ crypto_scalarmult/ed25519/ref10/scalarmult_ed25519_ref10.c:53:9 ]
	decl	%ecx
.Ltmp62:
	.loc	1 53 46                         # crypto_scalarmult/ed25519/ref10/scalarmult_ed25519_ref10.c:53:46
	testl	$256, %ecx                      # imm = 0x100
	.loc	1 53 51 is_stmt 0               # crypto_scalarmult/ed25519/ref10/scalarmult_ed25519_ref10.c:53:51
	jne	.LBB1_8
.Ltmp63:
# %bb.7:
	#DEBUG_VALUE: _crypto_scalarmult_ed25519:q <- $r15
	#DEBUG_VALUE: _crypto_scalarmult_ed25519:n <- $r14
	#DEBUG_VALUE: _crypto_scalarmult_ed25519:p <- [DW_OP_LLVM_entry_value 1] $rdx
	#DEBUG_VALUE: _crypto_scalarmult_ed25519:clamp <- $ebp
	#DEBUG_VALUE: _crypto_scalarmult_ed25519:i <- 32
	.loc	1 53 54                         # crypto_scalarmult/ed25519/ref10/scalarmult_ed25519_ref10.c:53:54
	movl	$32, %esi
	movq	%r14, %rdi
	callq	sodium_is_zero@PLT
.Ltmp64:
	.loc	1 53 51                         # crypto_scalarmult/ed25519/ref10/scalarmult_ed25519_ref10.c:53:51
	xorl	%ebx, %ebx
	negl	%eax
	sbbl	%ebx, %ebx
	jmp	.LBB1_8
.Ltmp65:
.Lfunc_end1:
	.size	_crypto_scalarmult_ed25519, .Lfunc_end1-_crypto_scalarmult_ed25519
	.cfi_endproc
	.file	2 "./include/sodium/private" "ed25519_ref10.h"
	.file	3 "/usr/include/x86_64-linux-gnu/bits" "types.h"
	.file	4 "/usr/include/x86_64-linux-gnu/bits" "stdint-uintn.h"
	.file	5 "./include/sodium" "utils.h"
	.file	6 "/home/leizhenyuu/opt/Anonymous_Repo" "llvm-project/build/lib/clang/21/include/__stddef_size_t.h"
                                        # -- End function
	.globl	crypto_scalarmult_ed25519_noclamp # -- Begin function crypto_scalarmult_ed25519_noclamp
	.p2align	4
	.type	crypto_scalarmult_ed25519_noclamp,@function
crypto_scalarmult_ed25519_noclamp:      # @crypto_scalarmult_ed25519_noclamp
.Lfunc_begin2:
	.cfi_startproc
# %bb.0:
	#DEBUG_VALUE: crypto_scalarmult_ed25519_noclamp:q <- $rdi
	#DEBUG_VALUE: crypto_scalarmult_ed25519_noclamp:n <- $rsi
	#DEBUG_VALUE: crypto_scalarmult_ed25519_noclamp:p <- $rdx
	.loc	1 70 12 prologue_end is_stmt 1  # crypto_scalarmult/ed25519/ref10/scalarmult_ed25519_ref10.c:70:12
	xorl	%ecx, %ecx
.Ltmp66:
	jmp	_crypto_scalarmult_ed25519      # TAILCALL
.Ltmp67:
.Lfunc_end2:
	.size	crypto_scalarmult_ed25519_noclamp, .Lfunc_end2-crypto_scalarmult_ed25519_noclamp
	.cfi_endproc
                                        # -- End function
	.globl	crypto_scalarmult_ed25519_base  # -- Begin function crypto_scalarmult_ed25519_base
	.p2align	4
	.type	crypto_scalarmult_ed25519_base,@function
crypto_scalarmult_ed25519_base:         # @crypto_scalarmult_ed25519_base
.Lfunc_begin3:
	.cfi_startproc
# %bb.0:
	#DEBUG_VALUE: crypto_scalarmult_ed25519_base:q <- $rdi
	#DEBUG_VALUE: crypto_scalarmult_ed25519_base:n <- $rsi
	.loc	1 101 12 prologue_end           # crypto_scalarmult/ed25519/ref10/scalarmult_ed25519_ref10.c:101:12
	movl	$1, %edx
.Ltmp68:
	jmp	_crypto_scalarmult_ed25519_base # TAILCALL
.Ltmp69:
.Lfunc_end3:
	.size	crypto_scalarmult_ed25519_base, .Lfunc_end3-crypto_scalarmult_ed25519_base
	.cfi_endproc
                                        # -- End function
	.p2align	4                               # -- Begin function _crypto_scalarmult_ed25519_base
	.type	_crypto_scalarmult_ed25519_base,@function
_crypto_scalarmult_ed25519_base:        # @_crypto_scalarmult_ed25519_base
.Lfunc_begin4:
	.loc	1 76 0                          # crypto_scalarmult/ed25519/ref10/scalarmult_ed25519_ref10.c:76:0
	.cfi_startproc
# %bb.0:
	#DEBUG_VALUE: _crypto_scalarmult_ed25519_base:q <- $rdi
	#DEBUG_VALUE: _crypto_scalarmult_ed25519_base:n <- $rsi
	#DEBUG_VALUE: _crypto_scalarmult_ed25519_base:clamp <- $edx
	pushq	%r15
	.cfi_def_cfa_offset 16
	pushq	%r14
	.cfi_def_cfa_offset 24
	pushq	%rbx
	.cfi_def_cfa_offset 32
	subq	$160, %rsp
	.cfi_def_cfa_offset 192
	.cfi_offset %rbx, -32
	.cfi_offset %r14, -24
	.cfi_offset %r15, -16
	movq	%rsi, %rbx
	movq	%rdi, %r14
.Ltmp70:
	#DEBUG_VALUE: _crypto_scalarmult_ed25519_base:t <- $r14
	#DEBUG_VALUE: _crypto_scalarmult_ed25519_base:i <- 0
	.loc	1 82 16 prologue_end            # crypto_scalarmult/ed25519/ref10/scalarmult_ed25519_ref10.c:82:16
	movzbl	(%rsi), %eax
	.loc	1 82 14 is_stmt 0               # crypto_scalarmult/ed25519/ref10/scalarmult_ed25519_ref10.c:82:14
	movb	%al, (%rdi)
.Ltmp71:
	#DEBUG_VALUE: _crypto_scalarmult_ed25519_base:i <- 1
	.loc	1 82 16                         # crypto_scalarmult/ed25519/ref10/scalarmult_ed25519_ref10.c:82:16
	movzbl	1(%rsi), %eax
	.loc	1 82 14                         # crypto_scalarmult/ed25519/ref10/scalarmult_ed25519_ref10.c:82:14
	movb	%al, 1(%rdi)
.Ltmp72:
	#DEBUG_VALUE: _crypto_scalarmult_ed25519_base:i <- 2
	.loc	1 82 16                         # crypto_scalarmult/ed25519/ref10/scalarmult_ed25519_ref10.c:82:16
	movzbl	2(%rsi), %eax
	.loc	1 82 14                         # crypto_scalarmult/ed25519/ref10/scalarmult_ed25519_ref10.c:82:14
	movb	%al, 2(%rdi)
.Ltmp73:
	#DEBUG_VALUE: _crypto_scalarmult_ed25519_base:i <- 3
	.loc	1 82 16                         # crypto_scalarmult/ed25519/ref10/scalarmult_ed25519_ref10.c:82:16
	movzbl	3(%rsi), %eax
	.loc	1 82 14                         # crypto_scalarmult/ed25519/ref10/scalarmult_ed25519_ref10.c:82:14
	movb	%al, 3(%rdi)
.Ltmp74:
	#DEBUG_VALUE: _crypto_scalarmult_ed25519_base:i <- 4
	.loc	1 82 16                         # crypto_scalarmult/ed25519/ref10/scalarmult_ed25519_ref10.c:82:16
	movzbl	4(%rsi), %eax
	.loc	1 82 14                         # crypto_scalarmult/ed25519/ref10/scalarmult_ed25519_ref10.c:82:14
	movb	%al, 4(%rdi)
.Ltmp75:
	#DEBUG_VALUE: _crypto_scalarmult_ed25519_base:i <- 5
	.loc	1 82 16                         # crypto_scalarmult/ed25519/ref10/scalarmult_ed25519_ref10.c:82:16
	movzbl	5(%rsi), %eax
	.loc	1 82 14                         # crypto_scalarmult/ed25519/ref10/scalarmult_ed25519_ref10.c:82:14
	movb	%al, 5(%rdi)
.Ltmp76:
	#DEBUG_VALUE: _crypto_scalarmult_ed25519_base:i <- 6
	.loc	1 82 16                         # crypto_scalarmult/ed25519/ref10/scalarmult_ed25519_ref10.c:82:16
	movzbl	6(%rsi), %eax
	.loc	1 82 14                         # crypto_scalarmult/ed25519/ref10/scalarmult_ed25519_ref10.c:82:14
	movb	%al, 6(%rdi)
.Ltmp77:
	#DEBUG_VALUE: _crypto_scalarmult_ed25519_base:i <- 7
	.loc	1 82 16                         # crypto_scalarmult/ed25519/ref10/scalarmult_ed25519_ref10.c:82:16
	movzbl	7(%rsi), %eax
	.loc	1 82 14                         # crypto_scalarmult/ed25519/ref10/scalarmult_ed25519_ref10.c:82:14
	movb	%al, 7(%rdi)
.Ltmp78:
	#DEBUG_VALUE: _crypto_scalarmult_ed25519_base:i <- 8
	.loc	1 82 16                         # crypto_scalarmult/ed25519/ref10/scalarmult_ed25519_ref10.c:82:16
	movzbl	8(%rsi), %eax
	.loc	1 82 14                         # crypto_scalarmult/ed25519/ref10/scalarmult_ed25519_ref10.c:82:14
	movb	%al, 8(%rdi)
.Ltmp79:
	#DEBUG_VALUE: _crypto_scalarmult_ed25519_base:i <- 9
	.loc	1 82 16                         # crypto_scalarmult/ed25519/ref10/scalarmult_ed25519_ref10.c:82:16
	movzbl	9(%rsi), %eax
	.loc	1 82 14                         # crypto_scalarmult/ed25519/ref10/scalarmult_ed25519_ref10.c:82:14
	movb	%al, 9(%rdi)
.Ltmp80:
	#DEBUG_VALUE: _crypto_scalarmult_ed25519_base:i <- 10
	.loc	1 82 16                         # crypto_scalarmult/ed25519/ref10/scalarmult_ed25519_ref10.c:82:16
	movzbl	10(%rsi), %eax
	.loc	1 82 14                         # crypto_scalarmult/ed25519/ref10/scalarmult_ed25519_ref10.c:82:14
	movb	%al, 10(%rdi)
.Ltmp81:
	#DEBUG_VALUE: _crypto_scalarmult_ed25519_base:i <- 11
	.loc	1 82 16                         # crypto_scalarmult/ed25519/ref10/scalarmult_ed25519_ref10.c:82:16
	movzbl	11(%rsi), %eax
	.loc	1 82 14                         # crypto_scalarmult/ed25519/ref10/scalarmult_ed25519_ref10.c:82:14
	movb	%al, 11(%rdi)
.Ltmp82:
	#DEBUG_VALUE: _crypto_scalarmult_ed25519_base:i <- 12
	.loc	1 82 16                         # crypto_scalarmult/ed25519/ref10/scalarmult_ed25519_ref10.c:82:16
	movzbl	12(%rsi), %eax
	.loc	1 82 14                         # crypto_scalarmult/ed25519/ref10/scalarmult_ed25519_ref10.c:82:14
	movb	%al, 12(%rdi)
.Ltmp83:
	#DEBUG_VALUE: _crypto_scalarmult_ed25519_base:i <- 13
	.loc	1 82 16                         # crypto_scalarmult/ed25519/ref10/scalarmult_ed25519_ref10.c:82:16
	movzbl	13(%rsi), %eax
	.loc	1 82 14                         # crypto_scalarmult/ed25519/ref10/scalarmult_ed25519_ref10.c:82:14
	movb	%al, 13(%rdi)
.Ltmp84:
	#DEBUG_VALUE: _crypto_scalarmult_ed25519_base:i <- 14
	.loc	1 82 16                         # crypto_scalarmult/ed25519/ref10/scalarmult_ed25519_ref10.c:82:16
	movzbl	14(%rsi), %eax
	.loc	1 82 14                         # crypto_scalarmult/ed25519/ref10/scalarmult_ed25519_ref10.c:82:14
	movb	%al, 14(%rdi)
.Ltmp85:
	#DEBUG_VALUE: _crypto_scalarmult_ed25519_base:i <- 15
	.loc	1 82 16                         # crypto_scalarmult/ed25519/ref10/scalarmult_ed25519_ref10.c:82:16
	movzbl	15(%rsi), %eax
	.loc	1 82 14                         # crypto_scalarmult/ed25519/ref10/scalarmult_ed25519_ref10.c:82:14
	movb	%al, 15(%rdi)
.Ltmp86:
	#DEBUG_VALUE: _crypto_scalarmult_ed25519_base:i <- 16
	.loc	1 82 16                         # crypto_scalarmult/ed25519/ref10/scalarmult_ed25519_ref10.c:82:16
	movzbl	16(%rsi), %eax
	.loc	1 82 14                         # crypto_scalarmult/ed25519/ref10/scalarmult_ed25519_ref10.c:82:14
	movb	%al, 16(%rdi)
.Ltmp87:
	#DEBUG_VALUE: _crypto_scalarmult_ed25519_base:i <- 17
	.loc	1 82 16                         # crypto_scalarmult/ed25519/ref10/scalarmult_ed25519_ref10.c:82:16
	movzbl	17(%rsi), %eax
	.loc	1 82 14                         # crypto_scalarmult/ed25519/ref10/scalarmult_ed25519_ref10.c:82:14
	movb	%al, 17(%rdi)
.Ltmp88:
	#DEBUG_VALUE: _crypto_scalarmult_ed25519_base:i <- 18
	.loc	1 82 16                         # crypto_scalarmult/ed25519/ref10/scalarmult_ed25519_ref10.c:82:16
	movzbl	18(%rsi), %eax
	.loc	1 82 14                         # crypto_scalarmult/ed25519/ref10/scalarmult_ed25519_ref10.c:82:14
	movb	%al, 18(%rdi)
.Ltmp89:
	#DEBUG_VALUE: _crypto_scalarmult_ed25519_base:i <- 19
	.loc	1 82 16                         # crypto_scalarmult/ed25519/ref10/scalarmult_ed25519_ref10.c:82:16
	movzbl	19(%rsi), %eax
	.loc	1 82 14                         # crypto_scalarmult/ed25519/ref10/scalarmult_ed25519_ref10.c:82:14
	movb	%al, 19(%rdi)
.Ltmp90:
	#DEBUG_VALUE: _crypto_scalarmult_ed25519_base:i <- 20
	.loc	1 82 16                         # crypto_scalarmult/ed25519/ref10/scalarmult_ed25519_ref10.c:82:16
	movzbl	20(%rsi), %eax
	.loc	1 82 14                         # crypto_scalarmult/ed25519/ref10/scalarmult_ed25519_ref10.c:82:14
	movb	%al, 20(%rdi)
.Ltmp91:
	#DEBUG_VALUE: _crypto_scalarmult_ed25519_base:i <- 21
	.loc	1 82 16                         # crypto_scalarmult/ed25519/ref10/scalarmult_ed25519_ref10.c:82:16
	movzbl	21(%rsi), %eax
	.loc	1 82 14                         # crypto_scalarmult/ed25519/ref10/scalarmult_ed25519_ref10.c:82:14
	movb	%al, 21(%rdi)
.Ltmp92:
	#DEBUG_VALUE: _crypto_scalarmult_ed25519_base:i <- 22
	.loc	1 82 16                         # crypto_scalarmult/ed25519/ref10/scalarmult_ed25519_ref10.c:82:16
	movzbl	22(%rsi), %eax
	.loc	1 82 14                         # crypto_scalarmult/ed25519/ref10/scalarmult_ed25519_ref10.c:82:14
	movb	%al, 22(%rdi)
.Ltmp93:
	#DEBUG_VALUE: _crypto_scalarmult_ed25519_base:i <- 23
	.loc	1 82 16                         # crypto_scalarmult/ed25519/ref10/scalarmult_ed25519_ref10.c:82:16
	movzbl	23(%rsi), %eax
	.loc	1 82 14                         # crypto_scalarmult/ed25519/ref10/scalarmult_ed25519_ref10.c:82:14
	movb	%al, 23(%rdi)
.Ltmp94:
	#DEBUG_VALUE: _crypto_scalarmult_ed25519_base:i <- 24
	.loc	1 82 16                         # crypto_scalarmult/ed25519/ref10/scalarmult_ed25519_ref10.c:82:16
	movzbl	24(%rsi), %eax
	.loc	1 82 14                         # crypto_scalarmult/ed25519/ref10/scalarmult_ed25519_ref10.c:82:14
	movb	%al, 24(%rdi)
.Ltmp95:
	#DEBUG_VALUE: _crypto_scalarmult_ed25519_base:i <- 25
	.loc	1 82 16                         # crypto_scalarmult/ed25519/ref10/scalarmult_ed25519_ref10.c:82:16
	movzbl	25(%rsi), %eax
	.loc	1 82 14                         # crypto_scalarmult/ed25519/ref10/scalarmult_ed25519_ref10.c:82:14
	movb	%al, 25(%rdi)
.Ltmp96:
	#DEBUG_VALUE: _crypto_scalarmult_ed25519_base:i <- 26
	.loc	1 82 16                         # crypto_scalarmult/ed25519/ref10/scalarmult_ed25519_ref10.c:82:16
	movzbl	26(%rsi), %eax
	.loc	1 82 14                         # crypto_scalarmult/ed25519/ref10/scalarmult_ed25519_ref10.c:82:14
	movb	%al, 26(%rdi)
.Ltmp97:
	#DEBUG_VALUE: _crypto_scalarmult_ed25519_base:i <- 27
	.loc	1 82 16                         # crypto_scalarmult/ed25519/ref10/scalarmult_ed25519_ref10.c:82:16
	movzbl	27(%rsi), %eax
	.loc	1 82 14                         # crypto_scalarmult/ed25519/ref10/scalarmult_ed25519_ref10.c:82:14
	movb	%al, 27(%rdi)
.Ltmp98:
	#DEBUG_VALUE: _crypto_scalarmult_ed25519_base:i <- 28
	.loc	1 82 16                         # crypto_scalarmult/ed25519/ref10/scalarmult_ed25519_ref10.c:82:16
	movzbl	28(%rsi), %eax
	.loc	1 82 14                         # crypto_scalarmult/ed25519/ref10/scalarmult_ed25519_ref10.c:82:14
	movb	%al, 28(%rdi)
.Ltmp99:
	#DEBUG_VALUE: _crypto_scalarmult_ed25519_base:i <- 29
	.loc	1 82 16                         # crypto_scalarmult/ed25519/ref10/scalarmult_ed25519_ref10.c:82:16
	movzbl	29(%rsi), %eax
	.loc	1 82 14                         # crypto_scalarmult/ed25519/ref10/scalarmult_ed25519_ref10.c:82:14
	movb	%al, 29(%rdi)
.Ltmp100:
	#DEBUG_VALUE: _crypto_scalarmult_ed25519_base:i <- 30
	.loc	1 82 16                         # crypto_scalarmult/ed25519/ref10/scalarmult_ed25519_ref10.c:82:16
	movzbl	30(%rsi), %eax
	.loc	1 82 14                         # crypto_scalarmult/ed25519/ref10/scalarmult_ed25519_ref10.c:82:14
	movb	%al, 30(%rdi)
.Ltmp101:
	#DEBUG_VALUE: _crypto_scalarmult_ed25519_base:i <- 31
	.loc	1 82 16                         # crypto_scalarmult/ed25519/ref10/scalarmult_ed25519_ref10.c:82:16
	movzbl	31(%rsi), %eax
.Ltmp102:
	#DEBUG_VALUE: _crypto_scalarmult_ed25519_base:i <- 32
	.loc	1 84 15 is_stmt 1               # crypto_scalarmult/ed25519/ref10/scalarmult_ed25519_ref10.c:84:15
	testl	%edx, %edx
	je	.LBB4_2
.Ltmp103:
# %bb.1:
	#DEBUG_VALUE: _crypto_scalarmult_ed25519_base:q <- $r14
	#DEBUG_VALUE: _crypto_scalarmult_ed25519_base:n <- $rbx
	#DEBUG_VALUE: _crypto_scalarmult_ed25519_base:clamp <- $edx
	#DEBUG_VALUE: _crypto_scalarmult_ed25519_base:t <- $r14
	#DEBUG_VALUE: _crypto_scalarmult_ed25519_base:i <- 32
	#DEBUG_VALUE: _crypto_scalarmult_ed25519_clamp:k <- $r14
	.loc	1 26 10                         # crypto_scalarmult/ed25519/ref10/scalarmult_ed25519_ref10.c:26:10 @[ crypto_scalarmult/ed25519/ref10/scalarmult_ed25519_ref10.c:85:9 ]
	andb	$-8, (%r14)
	.loc	1 27 11                         # crypto_scalarmult/ed25519/ref10/scalarmult_ed25519_ref10.c:27:11 @[ crypto_scalarmult/ed25519/ref10/scalarmult_ed25519_ref10.c:85:9 ]
	orb	$64, %al
.Ltmp104:
.LBB4_2:
	#DEBUG_VALUE: _crypto_scalarmult_ed25519_base:q <- $r14
	#DEBUG_VALUE: _crypto_scalarmult_ed25519_base:n <- $rbx
	#DEBUG_VALUE: _crypto_scalarmult_ed25519_base:clamp <- $edx
	#DEBUG_VALUE: _crypto_scalarmult_ed25519_base:t <- $r14
	#DEBUG_VALUE: _crypto_scalarmult_ed25519_base:i <- 32
	.loc	1 87 11                         # crypto_scalarmult/ed25519/ref10/scalarmult_ed25519_ref10.c:87:11
	andb	$127, %al
	movb	%al, 31(%r14)
	movq	%rsp, %r15
	.loc	1 89 5                          # crypto_scalarmult/ed25519/ref10/scalarmult_ed25519_ref10.c:89:5
	movq	%r15, %rdi
	movq	%r14, %rsi
	callq	ge25519_scalarmult_base@PLT
.Ltmp105:
	#DEBUG_VALUE: _crypto_scalarmult_ed25519_base:clamp <- [DW_OP_LLVM_entry_value 1] $edx
	.loc	1 90 5                          # crypto_scalarmult/ed25519/ref10/scalarmult_ed25519_ref10.c:90:5
	movq	%r14, %rdi
	movq	%r15, %rsi
	callq	ge25519_p3_tobytes@PLT
.Ltmp106:
	#DEBUG_VALUE: _crypto_scalarmult_ed25519_is_inf:s <- $r14
	.loc	1 14 9                          # crypto_scalarmult/ed25519/ref10/scalarmult_ed25519_ref10.c:14:9 @[ crypto_scalarmult/ed25519/ref10/scalarmult_ed25519_ref10.c:91:9 ]
	movzbl	(%r14), %eax
	.loc	1 14 14 is_stmt 0               # crypto_scalarmult/ed25519/ref10/scalarmult_ed25519_ref10.c:14:14 @[ crypto_scalarmult/ed25519/ref10/scalarmult_ed25519_ref10.c:91:9 ]
	xorl	$1, %eax
.Ltmp107:
	#DEBUG_VALUE: _crypto_scalarmult_ed25519_is_inf:c <- undef
	#DEBUG_VALUE: _crypto_scalarmult_ed25519_is_inf:i <- 16
	.loc	1 16 14 is_stmt 1               # crypto_scalarmult/ed25519/ref10/scalarmult_ed25519_ref10.c:16:14 @[ crypto_scalarmult/ed25519/ref10/scalarmult_ed25519_ref10.c:91:9 ]
	movdqu	1(%r14), %xmm0
.Ltmp108:
	#DEBUG_VALUE: _crypto_scalarmult_ed25519_is_inf:i <- 24
	movq	17(%r14), %xmm1                 # xmm1 = mem[0],zero
.Ltmp109:
	#DEBUG_VALUE: _crypto_scalarmult_ed25519_is_inf:i <- 28
	movss	25(%r14), %xmm2                 # xmm2 = mem[0],zero,zero,zero
.Ltmp110:
	#DEBUG_VALUE: _crypto_scalarmult_ed25519_is_inf:i <- 29
	#DEBUG_VALUE: _crypto_scalarmult_ed25519_is_inf:i <- 30
	#DEBUG_VALUE: _crypto_scalarmult_ed25519_is_inf:i <- 31
	.loc	1 18 10                         # crypto_scalarmult/ed25519/ref10/scalarmult_ed25519_ref10.c:18:10 @[ crypto_scalarmult/ed25519/ref10/scalarmult_ed25519_ref10.c:91:9 ]
	movzbl	31(%r14), %ecx
	.loc	1 18 16 is_stmt 0               # crypto_scalarmult/ed25519/ref10/scalarmult_ed25519_ref10.c:18:16 @[ crypto_scalarmult/ed25519/ref10/scalarmult_ed25519_ref10.c:91:9 ]
	andb	$127, %cl
	.loc	1 18 7                          # crypto_scalarmult/ed25519/ref10/scalarmult_ed25519_ref10.c:18:7 @[ crypto_scalarmult/ed25519/ref10/scalarmult_ed25519_ref10.c:91:9 ]
	por	%xmm0, %xmm1
	pshufd	$238, %xmm0, %xmm3              # xmm3 = xmm0[2,3,2,3]
	movsd	%xmm1, %xmm0                    # xmm0 = xmm1[0],xmm0[1]
	orpd	%xmm2, %xmm1
	movss	%xmm1, %xmm0                    # xmm0 = xmm1[0],xmm0[1,2,3]
	orps	%xmm3, %xmm0
	pshufd	$85, %xmm0, %xmm1               # xmm1 = xmm0[1,1,1,1]
	por	%xmm0, %xmm1
	movdqa	%xmm1, %xmm0
	psrld	$16, %xmm0
	por	%xmm1, %xmm0
	movdqa	%xmm0, %xmm1
	psrlw	$8, %xmm1
	por	%xmm0, %xmm1
	movd	%xmm1, %edx
.Ltmp111:
	.loc	1 16 11 is_stmt 1               # crypto_scalarmult/ed25519/ref10/scalarmult_ed25519_ref10.c:16:11 @[ crypto_scalarmult/ed25519/ref10/scalarmult_ed25519_ref10.c:91:9 ]
	orb	29(%r14), %dl
.Ltmp112:
	.loc	1 18 7                          # crypto_scalarmult/ed25519/ref10/scalarmult_ed25519_ref10.c:18:7 @[ crypto_scalarmult/ed25519/ref10/scalarmult_ed25519_ref10.c:91:9 ]
	orb	30(%r14), %cl
.Ltmp113:
	.loc	1 16 11                         # crypto_scalarmult/ed25519/ref10/scalarmult_ed25519_ref10.c:16:11 @[ crypto_scalarmult/ed25519/ref10/scalarmult_ed25519_ref10.c:91:9 ]
	orb	%dl, %cl
	movzbl	%cl, %ecx
	orl	%eax, %ecx
.Ltmp114:
	#DEBUG_VALUE: _crypto_scalarmult_ed25519_is_inf:c <- $ecx
	.loc	1 20 33                         # crypto_scalarmult/ed25519/ref10/scalarmult_ed25519_ref10.c:20:33 @[ crypto_scalarmult/ed25519/ref10/scalarmult_ed25519_ref10.c:91:9 ]
	decl	%ecx
.Ltmp115:
	.loc	1 0 33 is_stmt 0                # crypto_scalarmult/ed25519/ref10/scalarmult_ed25519_ref10.c:0:33
	movl	$-1, %eax
.Ltmp116:
	.loc	1 91 46 is_stmt 1               # crypto_scalarmult/ed25519/ref10/scalarmult_ed25519_ref10.c:91:46
	testl	$256, %ecx                      # imm = 0x100
	.loc	1 91 51 is_stmt 0               # crypto_scalarmult/ed25519/ref10/scalarmult_ed25519_ref10.c:91:51
	jne	.LBB4_4
.Ltmp117:
# %bb.3:
	#DEBUG_VALUE: _crypto_scalarmult_ed25519_base:q <- $r14
	#DEBUG_VALUE: _crypto_scalarmult_ed25519_base:n <- $rbx
	#DEBUG_VALUE: _crypto_scalarmult_ed25519_base:clamp <- [DW_OP_LLVM_entry_value 1] $edx
	#DEBUG_VALUE: _crypto_scalarmult_ed25519_base:t <- $r14
	#DEBUG_VALUE: _crypto_scalarmult_ed25519_base:i <- 32
	.loc	1 91 54                         # crypto_scalarmult/ed25519/ref10/scalarmult_ed25519_ref10.c:91:54
	movl	$32, %esi
	movq	%rbx, %rdi
	callq	sodium_is_zero@PLT
.Ltmp118:
	movl	%eax, %ecx
	.loc	1 91 51                         # crypto_scalarmult/ed25519/ref10/scalarmult_ed25519_ref10.c:91:51
	xorl	%eax, %eax
	negl	%ecx
	sbbl	%eax, %eax
.Ltmp119:
.LBB4_4:
	#DEBUG_VALUE: _crypto_scalarmult_ed25519_base:q <- $r14
	#DEBUG_VALUE: _crypto_scalarmult_ed25519_base:n <- $rbx
	#DEBUG_VALUE: _crypto_scalarmult_ed25519_base:clamp <- [DW_OP_LLVM_entry_value 1] $edx
	#DEBUG_VALUE: _crypto_scalarmult_ed25519_base:t <- $r14
	#DEBUG_VALUE: _crypto_scalarmult_ed25519_base:i <- 32
	.loc	1 95 1 epilogue_begin is_stmt 1 # crypto_scalarmult/ed25519/ref10/scalarmult_ed25519_ref10.c:95:1
	addq	$160, %rsp
	.cfi_def_cfa_offset 32
	popq	%rbx
.Ltmp120:
	#DEBUG_VALUE: _crypto_scalarmult_ed25519_base:n <- [DW_OP_LLVM_entry_value 1] $rsi
	.cfi_def_cfa_offset 24
	popq	%r14
.Ltmp121:
	#DEBUG_VALUE: _crypto_scalarmult_ed25519_base:q <- [DW_OP_LLVM_entry_value 1] $rdi
	.cfi_def_cfa_offset 16
	popq	%r15
	.cfi_def_cfa_offset 8
	retq
.Ltmp122:
.Lfunc_end4:
	.size	_crypto_scalarmult_ed25519_base, .Lfunc_end4-_crypto_scalarmult_ed25519_base
	.cfi_endproc
                                        # -- End function
	.globl	crypto_scalarmult_ed25519_base_noclamp # -- Begin function crypto_scalarmult_ed25519_base_noclamp
	.p2align	4
	.type	crypto_scalarmult_ed25519_base_noclamp,@function
crypto_scalarmult_ed25519_base_noclamp: # @crypto_scalarmult_ed25519_base_noclamp
.Lfunc_begin5:
	.cfi_startproc
# %bb.0:
	#DEBUG_VALUE: crypto_scalarmult_ed25519_base_noclamp:q <- $rdi
	#DEBUG_VALUE: crypto_scalarmult_ed25519_base_noclamp:n <- $rsi
	.loc	1 108 12 prologue_end           # crypto_scalarmult/ed25519/ref10/scalarmult_ed25519_ref10.c:108:12
	xorl	%edx, %edx
.Ltmp123:
	jmp	_crypto_scalarmult_ed25519_base # TAILCALL
.Ltmp124:
.Lfunc_end5:
	.size	crypto_scalarmult_ed25519_base_noclamp, .Lfunc_end5-crypto_scalarmult_ed25519_base_noclamp
	.cfi_endproc
                                        # -- End function
	.globl	crypto_scalarmult_ed25519_bytes # -- Begin function crypto_scalarmult_ed25519_bytes
	.p2align	4
	.type	crypto_scalarmult_ed25519_bytes,@function
crypto_scalarmult_ed25519_bytes:        # @crypto_scalarmult_ed25519_bytes
.Lfunc_begin6:
	.cfi_startproc
# %bb.0:
	.loc	1 114 5 prologue_end            # crypto_scalarmult/ed25519/ref10/scalarmult_ed25519_ref10.c:114:5
	movl	$32, %eax
	retq
.Ltmp125:
.Lfunc_end6:
	.size	crypto_scalarmult_ed25519_bytes, .Lfunc_end6-crypto_scalarmult_ed25519_bytes
	.cfi_endproc
                                        # -- End function
	.globl	crypto_scalarmult_ed25519_scalarbytes # -- Begin function crypto_scalarmult_ed25519_scalarbytes
	.p2align	4
	.type	crypto_scalarmult_ed25519_scalarbytes,@function
crypto_scalarmult_ed25519_scalarbytes:  # @crypto_scalarmult_ed25519_scalarbytes
.Lfunc_begin7:
	.cfi_startproc
# %bb.0:
	.loc	1 120 5 prologue_end            # crypto_scalarmult/ed25519/ref10/scalarmult_ed25519_ref10.c:120:5
	movl	$32, %eax
	retq
.Ltmp126:
.Lfunc_end7:
	.size	crypto_scalarmult_ed25519_scalarbytes, .Lfunc_end7-crypto_scalarmult_ed25519_scalarbytes
	.cfi_endproc
                                        # -- End function
	.section	".note.GNU-stack","",@progbits
	.addrsig