	.file	"scalarmult_ristretto255_ref10.c"
	.text
	.globl	crypto_scalarmult_ristretto255  # -- Begin function crypto_scalarmult_ristretto255
	.p2align	4
	.type	crypto_scalarmult_ristretto255,@function
crypto_scalarmult_ristretto255:         # @crypto_scalarmult_ristretto255
.Lfunc_begin0:
	.file	0 "/home/leizhenyuu/opt/Anonymous_Repo/libsodium_o2_attr_inline/src/libsodium" "scalarmult_ristretto255_ref10.c" md5 0xe19a881c183e03b436d52275bcaefd9f
	.file	1 "crypto_scalarmult/ristretto255/ref10" "scalarmult_ristretto255_ref10.c"
	.loc	1 12 0                          # crypto_scalarmult/ristretto255/ref10/scalarmult_ristretto255_ref10.c:12:0
	.cfi_startproc
# %bb.0:
	#DEBUG_VALUE: crypto_scalarmult_ristretto255:q <- $rdi
	#DEBUG_VALUE: crypto_scalarmult_ristretto255:n <- $rsi
	#DEBUG_VALUE: crypto_scalarmult_ristretto255:p <- $rdx
	pushq	%r14
	.cfi_def_cfa_offset 16
	pushq	%rbx
	.cfi_def_cfa_offset 24
	subq	$328, %rsp                      # imm = 0x148
	.cfi_def_cfa_offset 352
	.cfi_offset %rbx, -24
	.cfi_offset %r14, -16
	movq	%rsi, %r14
	movq	%rdi, %rbx
.Ltmp0:
	#DEBUG_VALUE: crypto_scalarmult_ristretto255:t <- undef
	leaq	8(%rsp), %rdi
.Ltmp1:
	#DEBUG_VALUE: crypto_scalarmult_ristretto255:q <- $rbx
	.loc	1 18 9 prologue_end             # crypto_scalarmult/ristretto255/ref10/scalarmult_ristretto255_ref10.c:18:9
	movq	%rdx, %rsi
.Ltmp2:
	#DEBUG_VALUE: crypto_scalarmult_ristretto255:n <- $r14
	callq	ristretto255_frombytes@PLT
.Ltmp3:
	#DEBUG_VALUE: crypto_scalarmult_ristretto255:p <- [DW_OP_LLVM_entry_value 1] $rdx
	movl	%eax, %ecx
	movl	$-1, %eax
	.loc	1 18 39 is_stmt 0               # crypto_scalarmult/ristretto255/ref10/scalarmult_ristretto255_ref10.c:18:39
	testl	%ecx, %ecx
	jne	.LBB0_2
.Ltmp4:
# %bb.1:                                # %.preheader.preheader
	#DEBUG_VALUE: crypto_scalarmult_ristretto255:q <- $rbx
	#DEBUG_VALUE: crypto_scalarmult_ristretto255:n <- $r14
	#DEBUG_VALUE: crypto_scalarmult_ristretto255:p <- [DW_OP_LLVM_entry_value 1] $rdx
	#DEBUG_VALUE: crypto_scalarmult_ristretto255:i <- 0
	.loc	1 22 16 is_stmt 1               # crypto_scalarmult/ristretto255/ref10/scalarmult_ristretto255_ref10.c:22:16
	movzbl	(%r14), %eax
	.loc	1 22 14 is_stmt 0               # crypto_scalarmult/ristretto255/ref10/scalarmult_ristretto255_ref10.c:22:14
	movb	%al, (%rbx)
.Ltmp5:
	#DEBUG_VALUE: crypto_scalarmult_ristretto255:i <- 1
	.loc	1 22 16                         # crypto_scalarmult/ristretto255/ref10/scalarmult_ristretto255_ref10.c:22:16
	movzbl	1(%r14), %eax
	.loc	1 22 14                         # crypto_scalarmult/ristretto255/ref10/scalarmult_ristretto255_ref10.c:22:14
	movb	%al, 1(%rbx)
.Ltmp6:
	#DEBUG_VALUE: crypto_scalarmult_ristretto255:i <- 2
	.loc	1 22 16                         # crypto_scalarmult/ristretto255/ref10/scalarmult_ristretto255_ref10.c:22:16
	movzbl	2(%r14), %eax
	.loc	1 22 14                         # crypto_scalarmult/ristretto255/ref10/scalarmult_ristretto255_ref10.c:22:14
	movb	%al, 2(%rbx)
.Ltmp7:
	#DEBUG_VALUE: crypto_scalarmult_ristretto255:i <- 3
	.loc	1 22 16                         # crypto_scalarmult/ristretto255/ref10/scalarmult_ristretto255_ref10.c:22:16
	movzbl	3(%r14), %eax
	.loc	1 22 14                         # crypto_scalarmult/ristretto255/ref10/scalarmult_ristretto255_ref10.c:22:14
	movb	%al, 3(%rbx)
.Ltmp8:
	#DEBUG_VALUE: crypto_scalarmult_ristretto255:i <- 4
	.loc	1 22 16                         # crypto_scalarmult/ristretto255/ref10/scalarmult_ristretto255_ref10.c:22:16
	movzbl	4(%r14), %eax
	.loc	1 22 14                         # crypto_scalarmult/ristretto255/ref10/scalarmult_ristretto255_ref10.c:22:14
	movb	%al, 4(%rbx)
.Ltmp9:
	#DEBUG_VALUE: crypto_scalarmult_ristretto255:i <- 5
	.loc	1 22 16                         # crypto_scalarmult/ristretto255/ref10/scalarmult_ristretto255_ref10.c:22:16
	movzbl	5(%r14), %eax
	.loc	1 22 14                         # crypto_scalarmult/ristretto255/ref10/scalarmult_ristretto255_ref10.c:22:14
	movb	%al, 5(%rbx)
.Ltmp10:
	#DEBUG_VALUE: crypto_scalarmult_ristretto255:i <- 6
	.loc	1 22 16                         # crypto_scalarmult/ristretto255/ref10/scalarmult_ristretto255_ref10.c:22:16
	movzbl	6(%r14), %eax
	.loc	1 22 14                         # crypto_scalarmult/ristretto255/ref10/scalarmult_ristretto255_ref10.c:22:14
	movb	%al, 6(%rbx)
.Ltmp11:
	#DEBUG_VALUE: crypto_scalarmult_ristretto255:i <- 7
	.loc	1 22 16                         # crypto_scalarmult/ristretto255/ref10/scalarmult_ristretto255_ref10.c:22:16
	movzbl	7(%r14), %eax
	.loc	1 22 14                         # crypto_scalarmult/ristretto255/ref10/scalarmult_ristretto255_ref10.c:22:14
	movb	%al, 7(%rbx)
.Ltmp12:
	#DEBUG_VALUE: crypto_scalarmult_ristretto255:i <- 8
	.loc	1 22 16                         # crypto_scalarmult/ristretto255/ref10/scalarmult_ristretto255_ref10.c:22:16
	movzbl	8(%r14), %eax
	.loc	1 22 14                         # crypto_scalarmult/ristretto255/ref10/scalarmult_ristretto255_ref10.c:22:14
	movb	%al, 8(%rbx)
.Ltmp13:
	#DEBUG_VALUE: crypto_scalarmult_ristretto255:i <- 9
	.loc	1 22 16                         # crypto_scalarmult/ristretto255/ref10/scalarmult_ristretto255_ref10.c:22:16
	movzbl	9(%r14), %eax
	.loc	1 22 14                         # crypto_scalarmult/ristretto255/ref10/scalarmult_ristretto255_ref10.c:22:14
	movb	%al, 9(%rbx)
.Ltmp14:
	#DEBUG_VALUE: crypto_scalarmult_ristretto255:i <- 10
	.loc	1 22 16                         # crypto_scalarmult/ristretto255/ref10/scalarmult_ristretto255_ref10.c:22:16
	movzbl	10(%r14), %eax
	.loc	1 22 14                         # crypto_scalarmult/ristretto255/ref10/scalarmult_ristretto255_ref10.c:22:14
	movb	%al, 10(%rbx)
.Ltmp15:
	#DEBUG_VALUE: crypto_scalarmult_ristretto255:i <- 11
	.loc	1 22 16                         # crypto_scalarmult/ristretto255/ref10/scalarmult_ristretto255_ref10.c:22:16
	movzbl	11(%r14), %eax
	.loc	1 22 14                         # crypto_scalarmult/ristretto255/ref10/scalarmult_ristretto255_ref10.c:22:14
	movb	%al, 11(%rbx)
.Ltmp16:
	#DEBUG_VALUE: crypto_scalarmult_ristretto255:i <- 12
	.loc	1 22 16                         # crypto_scalarmult/ristretto255/ref10/scalarmult_ristretto255_ref10.c:22:16
	movzbl	12(%r14), %eax
	.loc	1 22 14                         # crypto_scalarmult/ristretto255/ref10/scalarmult_ristretto255_ref10.c:22:14
	movb	%al, 12(%rbx)
.Ltmp17:
	#DEBUG_VALUE: crypto_scalarmult_ristretto255:i <- 13
	.loc	1 22 16                         # crypto_scalarmult/ristretto255/ref10/scalarmult_ristretto255_ref10.c:22:16
	movzbl	13(%r14), %eax
	.loc	1 22 14                         # crypto_scalarmult/ristretto255/ref10/scalarmult_ristretto255_ref10.c:22:14
	movb	%al, 13(%rbx)
.Ltmp18:
	#DEBUG_VALUE: crypto_scalarmult_ristretto255:i <- 14
	.loc	1 22 16                         # crypto_scalarmult/ristretto255/ref10/scalarmult_ristretto255_ref10.c:22:16
	movzbl	14(%r14), %eax
	.loc	1 22 14                         # crypto_scalarmult/ristretto255/ref10/scalarmult_ristretto255_ref10.c:22:14
	movb	%al, 14(%rbx)
.Ltmp19:
	#DEBUG_VALUE: crypto_scalarmult_ristretto255:i <- 15
	.loc	1 22 16                         # crypto_scalarmult/ristretto255/ref10/scalarmult_ristretto255_ref10.c:22:16
	movzbl	15(%r14), %eax
	.loc	1 22 14                         # crypto_scalarmult/ristretto255/ref10/scalarmult_ristretto255_ref10.c:22:14
	movb	%al, 15(%rbx)
.Ltmp20:
	#DEBUG_VALUE: crypto_scalarmult_ristretto255:i <- 16
	.loc	1 22 16                         # crypto_scalarmult/ristretto255/ref10/scalarmult_ristretto255_ref10.c:22:16
	movzbl	16(%r14), %eax
	.loc	1 22 14                         # crypto_scalarmult/ristretto255/ref10/scalarmult_ristretto255_ref10.c:22:14
	movb	%al, 16(%rbx)
.Ltmp21:
	#DEBUG_VALUE: crypto_scalarmult_ristretto255:i <- 17
	.loc	1 22 16                         # crypto_scalarmult/ristretto255/ref10/scalarmult_ristretto255_ref10.c:22:16
	movzbl	17(%r14), %eax
	.loc	1 22 14                         # crypto_scalarmult/ristretto255/ref10/scalarmult_ristretto255_ref10.c:22:14
	movb	%al, 17(%rbx)
.Ltmp22:
	#DEBUG_VALUE: crypto_scalarmult_ristretto255:i <- 18
	.loc	1 22 16                         # crypto_scalarmult/ristretto255/ref10/scalarmult_ristretto255_ref10.c:22:16
	movzbl	18(%r14), %eax
	.loc	1 22 14                         # crypto_scalarmult/ristretto255/ref10/scalarmult_ristretto255_ref10.c:22:14
	movb	%al, 18(%rbx)
.Ltmp23:
	#DEBUG_VALUE: crypto_scalarmult_ristretto255:i <- 19
	.loc	1 22 16                         # crypto_scalarmult/ristretto255/ref10/scalarmult_ristretto255_ref10.c:22:16
	movzbl	19(%r14), %eax
	.loc	1 22 14                         # crypto_scalarmult/ristretto255/ref10/scalarmult_ristretto255_ref10.c:22:14
	movb	%al, 19(%rbx)
.Ltmp24:
	#DEBUG_VALUE: crypto_scalarmult_ristretto255:i <- 20
	.loc	1 22 16                         # crypto_scalarmult/ristretto255/ref10/scalarmult_ristretto255_ref10.c:22:16
	movzbl	20(%r14), %eax
	.loc	1 22 14                         # crypto_scalarmult/ristretto255/ref10/scalarmult_ristretto255_ref10.c:22:14
	movb	%al, 20(%rbx)
.Ltmp25:
	#DEBUG_VALUE: crypto_scalarmult_ristretto255:i <- 21
	.loc	1 22 16                         # crypto_scalarmult/ristretto255/ref10/scalarmult_ristretto255_ref10.c:22:16
	movzbl	21(%r14), %eax
	.loc	1 22 14                         # crypto_scalarmult/ristretto255/ref10/scalarmult_ristretto255_ref10.c:22:14
	movb	%al, 21(%rbx)
.Ltmp26:
	#DEBUG_VALUE: crypto_scalarmult_ristretto255:i <- 22
	.loc	1 22 16                         # crypto_scalarmult/ristretto255/ref10/scalarmult_ristretto255_ref10.c:22:16
	movzbl	22(%r14), %eax
	.loc	1 22 14                         # crypto_scalarmult/ristretto255/ref10/scalarmult_ristretto255_ref10.c:22:14
	movb	%al, 22(%rbx)
.Ltmp27:
	#DEBUG_VALUE: crypto_scalarmult_ristretto255:i <- 23
	.loc	1 22 16                         # crypto_scalarmult/ristretto255/ref10/scalarmult_ristretto255_ref10.c:22:16
	movzbl	23(%r14), %eax
	.loc	1 22 14                         # crypto_scalarmult/ristretto255/ref10/scalarmult_ristretto255_ref10.c:22:14
	movb	%al, 23(%rbx)
.Ltmp28:
	#DEBUG_VALUE: crypto_scalarmult_ristretto255:i <- 24
	.loc	1 22 16                         # crypto_scalarmult/ristretto255/ref10/scalarmult_ristretto255_ref10.c:22:16
	movzbl	24(%r14), %eax
	.loc	1 22 14                         # crypto_scalarmult/ristretto255/ref10/scalarmult_ristretto255_ref10.c:22:14
	movb	%al, 24(%rbx)
.Ltmp29:
	#DEBUG_VALUE: crypto_scalarmult_ristretto255:i <- 25
	.loc	1 22 16                         # crypto_scalarmult/ristretto255/ref10/scalarmult_ristretto255_ref10.c:22:16
	movzbl	25(%r14), %eax
	.loc	1 22 14                         # crypto_scalarmult/ristretto255/ref10/scalarmult_ristretto255_ref10.c:22:14
	movb	%al, 25(%rbx)
.Ltmp30:
	#DEBUG_VALUE: crypto_scalarmult_ristretto255:i <- 26
	.loc	1 22 16                         # crypto_scalarmult/ristretto255/ref10/scalarmult_ristretto255_ref10.c:22:16
	movzbl	26(%r14), %eax
	.loc	1 22 14                         # crypto_scalarmult/ristretto255/ref10/scalarmult_ristretto255_ref10.c:22:14
	movb	%al, 26(%rbx)
.Ltmp31:
	#DEBUG_VALUE: crypto_scalarmult_ristretto255:i <- 27
	.loc	1 22 16                         # crypto_scalarmult/ristretto255/ref10/scalarmult_ristretto255_ref10.c:22:16
	movzbl	27(%r14), %eax
	.loc	1 22 14                         # crypto_scalarmult/ristretto255/ref10/scalarmult_ristretto255_ref10.c:22:14
	movb	%al, 27(%rbx)
.Ltmp32:
	#DEBUG_VALUE: crypto_scalarmult_ristretto255:i <- 28
	.loc	1 22 16                         # crypto_scalarmult/ristretto255/ref10/scalarmult_ristretto255_ref10.c:22:16
	movzbl	28(%r14), %eax
	.loc	1 22 14                         # crypto_scalarmult/ristretto255/ref10/scalarmult_ristretto255_ref10.c:22:14
	movb	%al, 28(%rbx)
.Ltmp33:
	#DEBUG_VALUE: crypto_scalarmult_ristretto255:i <- 29
	.loc	1 22 16                         # crypto_scalarmult/ristretto255/ref10/scalarmult_ristretto255_ref10.c:22:16
	movzbl	29(%r14), %eax
	.loc	1 22 14                         # crypto_scalarmult/ristretto255/ref10/scalarmult_ristretto255_ref10.c:22:14
	movb	%al, 29(%rbx)
.Ltmp34:
	#DEBUG_VALUE: crypto_scalarmult_ristretto255:i <- 30
	.loc	1 22 16                         # crypto_scalarmult/ristretto255/ref10/scalarmult_ristretto255_ref10.c:22:16
	movzbl	30(%r14), %eax
	.loc	1 22 14                         # crypto_scalarmult/ristretto255/ref10/scalarmult_ristretto255_ref10.c:22:14
	movb	%al, 30(%rbx)
.Ltmp35:
	#DEBUG_VALUE: crypto_scalarmult_ristretto255:i <- 31
	.loc	1 22 16                         # crypto_scalarmult/ristretto255/ref10/scalarmult_ristretto255_ref10.c:22:16
	movzbl	31(%r14), %eax
.Ltmp36:
	#DEBUG_VALUE: crypto_scalarmult_ristretto255:i <- 32
	.loc	1 24 11 is_stmt 1               # crypto_scalarmult/ristretto255/ref10/scalarmult_ristretto255_ref10.c:24:11
	andb	$127, %al
	movb	%al, 31(%rbx)
	leaq	168(%rsp), %r14
.Ltmp37:
	#DEBUG_VALUE: crypto_scalarmult_ristretto255:n <- [DW_OP_LLVM_entry_value 1] $rsi
	.loc	1 0 11 is_stmt 0                # crypto_scalarmult/ristretto255/ref10/scalarmult_ristretto255_ref10.c:0:11
	leaq	8(%rsp), %rdx
	.loc	1 25 5 is_stmt 1                # crypto_scalarmult/ristretto255/ref10/scalarmult_ristretto255_ref10.c:25:5
	movq	%r14, %rdi
	movq	%rbx, %rsi
	callq	ge25519_scalarmult@PLT
.Ltmp38:
	.loc	1 26 5                          # crypto_scalarmult/ristretto255/ref10/scalarmult_ristretto255_ref10.c:26:5
	movq	%rbx, %rdi
	movq	%r14, %rsi
	callq	ristretto255_p3_tobytes@PLT
.Ltmp39:
	.loc	1 27 9                          # crypto_scalarmult/ristretto255/ref10/scalarmult_ristretto255_ref10.c:27:9
	movl	$32, %esi
	movq	%rbx, %rdi
	callq	sodium_is_zero@PLT
.Ltmp40:
	movl	%eax, %ecx
.Ltmp41:
	.loc	1 0 0 is_stmt 0                 # crypto_scalarmult/ristretto255/ref10/scalarmult_ristretto255_ref10.c:0
	xorl	%eax, %eax
	negl	%ecx
	sbbl	%eax, %eax
.Ltmp42:
.LBB0_2:
	#DEBUG_VALUE: crypto_scalarmult_ristretto255:q <- $rbx
	#DEBUG_VALUE: crypto_scalarmult_ristretto255:n <- [DW_OP_LLVM_entry_value 1] $rsi
	#DEBUG_VALUE: crypto_scalarmult_ristretto255:p <- [DW_OP_LLVM_entry_value 1] $rdx
	.loc	1 31 1 epilogue_begin is_stmt 1 # crypto_scalarmult/ristretto255/ref10/scalarmult_ristretto255_ref10.c:31:1
	addq	$328, %rsp                      # imm = 0x148
	.cfi_def_cfa_offset 24
	popq	%rbx
.Ltmp43:
	#DEBUG_VALUE: crypto_scalarmult_ristretto255:q <- [DW_OP_LLVM_entry_value 1] $rdi
	.cfi_def_cfa_offset 16
	popq	%r14
	.cfi_def_cfa_offset 8
	retq
.Ltmp44:
.Lfunc_end0:
	.size	crypto_scalarmult_ristretto255, .Lfunc_end0-crypto_scalarmult_ristretto255
	.cfi_endproc
	.file	2 "./include/sodium/private" "ed25519_ref10.h"
	.file	3 "/usr/include/x86_64-linux-gnu/bits" "types.h"
	.file	4 "/usr/include/x86_64-linux-gnu/bits" "stdint-uintn.h"
	.file	5 "./include/sodium" "utils.h"
	.file	6 "/home/leizhenyuu/opt/Anonymous_Repo" "llvm-project/build/lib/clang/21/include/__stddef_size_t.h"
                                        # -- End function
	.globl	crypto_scalarmult_ristretto255_base # -- Begin function crypto_scalarmult_ristretto255_base
	.p2align	4
	.type	crypto_scalarmult_ristretto255_base,@function
crypto_scalarmult_ristretto255_base:    # @crypto_scalarmult_ristretto255_base
.Lfunc_begin1:
	.loc	1 36 0                          # crypto_scalarmult/ristretto255/ref10/scalarmult_ristretto255_ref10.c:36:0
	.cfi_startproc
# %bb.0:
	#DEBUG_VALUE: crypto_scalarmult_ristretto255_base:q <- $rdi
	#DEBUG_VALUE: crypto_scalarmult_ristretto255_base:n <- $rsi
	pushq	%r14
	.cfi_def_cfa_offset 16
	pushq	%rbx
	.cfi_def_cfa_offset 24
	subq	$168, %rsp
	.cfi_def_cfa_offset 192
	.cfi_offset %rbx, -24
	.cfi_offset %r14, -16
	movq	%rdi, %rbx
.Ltmp45:
	#DEBUG_VALUE: crypto_scalarmult_ristretto255_base:t <- $rbx
	#DEBUG_VALUE: crypto_scalarmult_ristretto255_base:i <- 0
	.loc	1 42 16 prologue_end            # crypto_scalarmult/ristretto255/ref10/scalarmult_ristretto255_ref10.c:42:16
	movzbl	(%rsi), %eax
	.loc	1 42 14 is_stmt 0               # crypto_scalarmult/ristretto255/ref10/scalarmult_ristretto255_ref10.c:42:14
	movb	%al, (%rdi)
.Ltmp46:
	#DEBUG_VALUE: crypto_scalarmult_ristretto255_base:i <- 1
	.loc	1 42 16                         # crypto_scalarmult/ristretto255/ref10/scalarmult_ristretto255_ref10.c:42:16
	movzbl	1(%rsi), %eax
	.loc	1 42 14                         # crypto_scalarmult/ristretto255/ref10/scalarmult_ristretto255_ref10.c:42:14
	movb	%al, 1(%rdi)
.Ltmp47:
	#DEBUG_VALUE: crypto_scalarmult_ristretto255_base:i <- 2
	.loc	1 42 16                         # crypto_scalarmult/ristretto255/ref10/scalarmult_ristretto255_ref10.c:42:16
	movzbl	2(%rsi), %eax
	.loc	1 42 14                         # crypto_scalarmult/ristretto255/ref10/scalarmult_ristretto255_ref10.c:42:14
	movb	%al, 2(%rdi)
.Ltmp48:
	#DEBUG_VALUE: crypto_scalarmult_ristretto255_base:i <- 3
	.loc	1 42 16                         # crypto_scalarmult/ristretto255/ref10/scalarmult_ristretto255_ref10.c:42:16
	movzbl	3(%rsi), %eax
	.loc	1 42 14                         # crypto_scalarmult/ristretto255/ref10/scalarmult_ristretto255_ref10.c:42:14
	movb	%al, 3(%rdi)
.Ltmp49:
	#DEBUG_VALUE: crypto_scalarmult_ristretto255_base:i <- 4
	.loc	1 42 16                         # crypto_scalarmult/ristretto255/ref10/scalarmult_ristretto255_ref10.c:42:16
	movzbl	4(%rsi), %eax
	.loc	1 42 14                         # crypto_scalarmult/ristretto255/ref10/scalarmult_ristretto255_ref10.c:42:14
	movb	%al, 4(%rdi)
.Ltmp50:
	#DEBUG_VALUE: crypto_scalarmult_ristretto255_base:i <- 5
	.loc	1 42 16                         # crypto_scalarmult/ristretto255/ref10/scalarmult_ristretto255_ref10.c:42:16
	movzbl	5(%rsi), %eax
	.loc	1 42 14                         # crypto_scalarmult/ristretto255/ref10/scalarmult_ristretto255_ref10.c:42:14
	movb	%al, 5(%rdi)
.Ltmp51:
	#DEBUG_VALUE: crypto_scalarmult_ristretto255_base:i <- 6
	.loc	1 42 16                         # crypto_scalarmult/ristretto255/ref10/scalarmult_ristretto255_ref10.c:42:16
	movzbl	6(%rsi), %eax
	.loc	1 42 14                         # crypto_scalarmult/ristretto255/ref10/scalarmult_ristretto255_ref10.c:42:14
	movb	%al, 6(%rdi)
.Ltmp52:
	#DEBUG_VALUE: crypto_scalarmult_ristretto255_base:i <- 7
	.loc	1 42 16                         # crypto_scalarmult/ristretto255/ref10/scalarmult_ristretto255_ref10.c:42:16
	movzbl	7(%rsi), %eax
	.loc	1 42 14                         # crypto_scalarmult/ristretto255/ref10/scalarmult_ristretto255_ref10.c:42:14
	movb	%al, 7(%rdi)
.Ltmp53:
	#DEBUG_VALUE: crypto_scalarmult_ristretto255_base:i <- 8
	.loc	1 42 16                         # crypto_scalarmult/ristretto255/ref10/scalarmult_ristretto255_ref10.c:42:16
	movzbl	8(%rsi), %eax
	.loc	1 42 14                         # crypto_scalarmult/ristretto255/ref10/scalarmult_ristretto255_ref10.c:42:14
	movb	%al, 8(%rdi)
.Ltmp54:
	#DEBUG_VALUE: crypto_scalarmult_ristretto255_base:i <- 9
	.loc	1 42 16                         # crypto_scalarmult/ristretto255/ref10/scalarmult_ristretto255_ref10.c:42:16
	movzbl	9(%rsi), %eax
	.loc	1 42 14                         # crypto_scalarmult/ristretto255/ref10/scalarmult_ristretto255_ref10.c:42:14
	movb	%al, 9(%rdi)
.Ltmp55:
	#DEBUG_VALUE: crypto_scalarmult_ristretto255_base:i <- 10
	.loc	1 42 16                         # crypto_scalarmult/ristretto255/ref10/scalarmult_ristretto255_ref10.c:42:16
	movzbl	10(%rsi), %eax
	.loc	1 42 14                         # crypto_scalarmult/ristretto255/ref10/scalarmult_ristretto255_ref10.c:42:14
	movb	%al, 10(%rdi)
.Ltmp56:
	#DEBUG_VALUE: crypto_scalarmult_ristretto255_base:i <- 11
	.loc	1 42 16                         # crypto_scalarmult/ristretto255/ref10/scalarmult_ristretto255_ref10.c:42:16
	movzbl	11(%rsi), %eax
	.loc	1 42 14                         # crypto_scalarmult/ristretto255/ref10/scalarmult_ristretto255_ref10.c:42:14
	movb	%al, 11(%rdi)
.Ltmp57:
	#DEBUG_VALUE: crypto_scalarmult_ristretto255_base:i <- 12
	.loc	1 42 16                         # crypto_scalarmult/ristretto255/ref10/scalarmult_ristretto255_ref10.c:42:16
	movzbl	12(%rsi), %eax
	.loc	1 42 14                         # crypto_scalarmult/ristretto255/ref10/scalarmult_ristretto255_ref10.c:42:14
	movb	%al, 12(%rdi)
.Ltmp58:
	#DEBUG_VALUE: crypto_scalarmult_ristretto255_base:i <- 13
	.loc	1 42 16                         # crypto_scalarmult/ristretto255/ref10/scalarmult_ristretto255_ref10.c:42:16
	movzbl	13(%rsi), %eax
	.loc	1 42 14                         # crypto_scalarmult/ristretto255/ref10/scalarmult_ristretto255_ref10.c:42:14
	movb	%al, 13(%rdi)
.Ltmp59:
	#DEBUG_VALUE: crypto_scalarmult_ristretto255_base:i <- 14
	.loc	1 42 16                         # crypto_scalarmult/ristretto255/ref10/scalarmult_ristretto255_ref10.c:42:16
	movzbl	14(%rsi), %eax
	.loc	1 42 14                         # crypto_scalarmult/ristretto255/ref10/scalarmult_ristretto255_ref10.c:42:14
	movb	%al, 14(%rdi)
.Ltmp60:
	#DEBUG_VALUE: crypto_scalarmult_ristretto255_base:i <- 15
	.loc	1 42 16                         # crypto_scalarmult/ristretto255/ref10/scalarmult_ristretto255_ref10.c:42:16
	movzbl	15(%rsi), %eax
	.loc	1 42 14                         # crypto_scalarmult/ristretto255/ref10/scalarmult_ristretto255_ref10.c:42:14
	movb	%al, 15(%rdi)
.Ltmp61:
	#DEBUG_VALUE: crypto_scalarmult_ristretto255_base:i <- 16
	.loc	1 42 16                         # crypto_scalarmult/ristretto255/ref10/scalarmult_ristretto255_ref10.c:42:16
	movzbl	16(%rsi), %eax
	.loc	1 42 14                         # crypto_scalarmult/ristretto255/ref10/scalarmult_ristretto255_ref10.c:42:14
	movb	%al, 16(%rdi)
.Ltmp62:
	#DEBUG_VALUE: crypto_scalarmult_ristretto255_base:i <- 17
	.loc	1 42 16                         # crypto_scalarmult/ristretto255/ref10/scalarmult_ristretto255_ref10.c:42:16
	movzbl	17(%rsi), %eax
	.loc	1 42 14                         # crypto_scalarmult/ristretto255/ref10/scalarmult_ristretto255_ref10.c:42:14
	movb	%al, 17(%rdi)
.Ltmp63:
	#DEBUG_VALUE: crypto_scalarmult_ristretto255_base:i <- 18
	.loc	1 42 16                         # crypto_scalarmult/ristretto255/ref10/scalarmult_ristretto255_ref10.c:42:16
	movzbl	18(%rsi), %eax
	.loc	1 42 14                         # crypto_scalarmult/ristretto255/ref10/scalarmult_ristretto255_ref10.c:42:14
	movb	%al, 18(%rdi)
.Ltmp64:
	#DEBUG_VALUE: crypto_scalarmult_ristretto255_base:i <- 19
	.loc	1 42 16                         # crypto_scalarmult/ristretto255/ref10/scalarmult_ristretto255_ref10.c:42:16
	movzbl	19(%rsi), %eax
	.loc	1 42 14                         # crypto_scalarmult/ristretto255/ref10/scalarmult_ristretto255_ref10.c:42:14
	movb	%al, 19(%rdi)
.Ltmp65:
	#DEBUG_VALUE: crypto_scalarmult_ristretto255_base:i <- 20
	.loc	1 42 16                         # crypto_scalarmult/ristretto255/ref10/scalarmult_ristretto255_ref10.c:42:16
	movzbl	20(%rsi), %eax
	.loc	1 42 14                         # crypto_scalarmult/ristretto255/ref10/scalarmult_ristretto255_ref10.c:42:14
	movb	%al, 20(%rdi)
.Ltmp66:
	#DEBUG_VALUE: crypto_scalarmult_ristretto255_base:i <- 21
	.loc	1 42 16                         # crypto_scalarmult/ristretto255/ref10/scalarmult_ristretto255_ref10.c:42:16
	movzbl	21(%rsi), %eax
	.loc	1 42 14                         # crypto_scalarmult/ristretto255/ref10/scalarmult_ristretto255_ref10.c:42:14
	movb	%al, 21(%rdi)
.Ltmp67:
	#DEBUG_VALUE: crypto_scalarmult_ristretto255_base:i <- 22
	.loc	1 42 16                         # crypto_scalarmult/ristretto255/ref10/scalarmult_ristretto255_ref10.c:42:16
	movzbl	22(%rsi), %eax
	.loc	1 42 14                         # crypto_scalarmult/ristretto255/ref10/scalarmult_ristretto255_ref10.c:42:14
	movb	%al, 22(%rdi)
.Ltmp68:
	#DEBUG_VALUE: crypto_scalarmult_ristretto255_base:i <- 23
	.loc	1 42 16                         # crypto_scalarmult/ristretto255/ref10/scalarmult_ristretto255_ref10.c:42:16
	movzbl	23(%rsi), %eax
	.loc	1 42 14                         # crypto_scalarmult/ristretto255/ref10/scalarmult_ristretto255_ref10.c:42:14
	movb	%al, 23(%rdi)
.Ltmp69:
	#DEBUG_VALUE: crypto_scalarmult_ristretto255_base:i <- 24
	.loc	1 42 16                         # crypto_scalarmult/ristretto255/ref10/scalarmult_ristretto255_ref10.c:42:16
	movzbl	24(%rsi), %eax
	.loc	1 42 14                         # crypto_scalarmult/ristretto255/ref10/scalarmult_ristretto255_ref10.c:42:14
	movb	%al, 24(%rdi)
.Ltmp70:
	#DEBUG_VALUE: crypto_scalarmult_ristretto255_base:i <- 25
	.loc	1 42 16                         # crypto_scalarmult/ristretto255/ref10/scalarmult_ristretto255_ref10.c:42:16
	movzbl	25(%rsi), %eax
	.loc	1 42 14                         # crypto_scalarmult/ristretto255/ref10/scalarmult_ristretto255_ref10.c:42:14
	movb	%al, 25(%rdi)
.Ltmp71:
	#DEBUG_VALUE: crypto_scalarmult_ristretto255_base:i <- 26
	.loc	1 42 16                         # crypto_scalarmult/ristretto255/ref10/scalarmult_ristretto255_ref10.c:42:16
	movzbl	26(%rsi), %eax
	.loc	1 42 14                         # crypto_scalarmult/ristretto255/ref10/scalarmult_ristretto255_ref10.c:42:14
	movb	%al, 26(%rdi)
.Ltmp72:
	#DEBUG_VALUE: crypto_scalarmult_ristretto255_base:i <- 27
	.loc	1 42 16                         # crypto_scalarmult/ristretto255/ref10/scalarmult_ristretto255_ref10.c:42:16
	movzbl	27(%rsi), %eax
	.loc	1 42 14                         # crypto_scalarmult/ristretto255/ref10/scalarmult_ristretto255_ref10.c:42:14
	movb	%al, 27(%rdi)
.Ltmp73:
	#DEBUG_VALUE: crypto_scalarmult_ristretto255_base:i <- 28
	.loc	1 42 16                         # crypto_scalarmult/ristretto255/ref10/scalarmult_ristretto255_ref10.c:42:16
	movzbl	28(%rsi), %eax
	.loc	1 42 14                         # crypto_scalarmult/ristretto255/ref10/scalarmult_ristretto255_ref10.c:42:14
	movb	%al, 28(%rdi)
.Ltmp74:
	#DEBUG_VALUE: crypto_scalarmult_ristretto255_base:i <- 29
	.loc	1 42 16                         # crypto_scalarmult/ristretto255/ref10/scalarmult_ristretto255_ref10.c:42:16
	movzbl	29(%rsi), %eax
	.loc	1 42 14                         # crypto_scalarmult/ristretto255/ref10/scalarmult_ristretto255_ref10.c:42:14
	movb	%al, 29(%rdi)
.Ltmp75:
	#DEBUG_VALUE: crypto_scalarmult_ristretto255_base:i <- 30
	.loc	1 42 16                         # crypto_scalarmult/ristretto255/ref10/scalarmult_ristretto255_ref10.c:42:16
	movzbl	30(%rsi), %eax
	.loc	1 42 14                         # crypto_scalarmult/ristretto255/ref10/scalarmult_ristretto255_ref10.c:42:14
	movb	%al, 30(%rdi)
.Ltmp76:
	#DEBUG_VALUE: crypto_scalarmult_ristretto255_base:i <- 31
	.loc	1 42 16                         # crypto_scalarmult/ristretto255/ref10/scalarmult_ristretto255_ref10.c:42:16
	movzbl	31(%rsi), %eax
.Ltmp77:
	#DEBUG_VALUE: crypto_scalarmult_ristretto255_base:i <- 32
	.loc	1 44 11 is_stmt 1               # crypto_scalarmult/ristretto255/ref10/scalarmult_ristretto255_ref10.c:44:11
	andb	$127, %al
	movb	%al, 31(%rdi)
	leaq	8(%rsp), %r14
	.loc	1 45 5                          # crypto_scalarmult/ristretto255/ref10/scalarmult_ristretto255_ref10.c:45:5
	movq	%r14, %rdi
.Ltmp78:
	#DEBUG_VALUE: crypto_scalarmult_ristretto255_base:q <- $rbx
	movq	%rbx, %rsi
.Ltmp79:
	#DEBUG_VALUE: crypto_scalarmult_ristretto255_base:n <- [DW_OP_LLVM_entry_value 1] $rsi
	callq	ge25519_scalarmult_base@PLT
.Ltmp80:
	.loc	1 46 5                          # crypto_scalarmult/ristretto255/ref10/scalarmult_ristretto255_ref10.c:46:5
	movq	%rbx, %rdi
	movq	%r14, %rsi
	callq	ristretto255_p3_tobytes@PLT
.Ltmp81:
	.loc	1 47 9                          # crypto_scalarmult/ristretto255/ref10/scalarmult_ristretto255_ref10.c:47:9
	movl	$32, %esi
	movq	%rbx, %rdi
	callq	sodium_is_zero@PLT
.Ltmp82:
	.loc	1 0 0 is_stmt 0                 # crypto_scalarmult/ristretto255/ref10/scalarmult_ristretto255_ref10.c:0
	xorl	%ecx, %ecx
	negl	%eax
	sbbl	%ecx, %ecx
	.loc	1 51 1 is_stmt 1                # crypto_scalarmult/ristretto255/ref10/scalarmult_ristretto255_ref10.c:51:1
	movl	%ecx, %eax
	.loc	1 51 1 epilogue_begin is_stmt 0 # crypto_scalarmult/ristretto255/ref10/scalarmult_ristretto255_ref10.c:51:1
	addq	$168, %rsp
	.cfi_def_cfa_offset 24
	popq	%rbx
.Ltmp83:
	#DEBUG_VALUE: crypto_scalarmult_ristretto255_base:q <- [DW_OP_LLVM_entry_value 1] $rdi
	.cfi_def_cfa_offset 16
	popq	%r14
	.cfi_def_cfa_offset 8
	retq
.Ltmp84:
.Lfunc_end1:
	.size	crypto_scalarmult_ristretto255_base, .Lfunc_end1-crypto_scalarmult_ristretto255_base
	.cfi_endproc
                                        # -- End function
	.globl	crypto_scalarmult_ristretto255_bytes # -- Begin function crypto_scalarmult_ristretto255_bytes
	.p2align	4
	.type	crypto_scalarmult_ristretto255_bytes,@function
crypto_scalarmult_ristretto255_bytes:   # @crypto_scalarmult_ristretto255_bytes
.Lfunc_begin2:
	.cfi_startproc
# %bb.0:
	.loc	1 56 5 prologue_end is_stmt 1   # crypto_scalarmult/ristretto255/ref10/scalarmult_ristretto255_ref10.c:56:5
	movl	$32, %eax
	retq
.Ltmp85:
.Lfunc_end2:
	.size	crypto_scalarmult_ristretto255_bytes, .Lfunc_end2-crypto_scalarmult_ristretto255_bytes
	.cfi_endproc
                                        # -- End function
	.globl	crypto_scalarmult_ristretto255_scalarbytes # -- Begin function crypto_scalarmult_ristretto255_scalarbytes
	.p2align	4
	.type	crypto_scalarmult_ristretto255_scalarbytes,@function
crypto_scalarmult_ristretto255_scalarbytes: # @crypto_scalarmult_ristretto255_scalarbytes
.Lfunc_begin3:
	.cfi_startproc
# %bb.0:
	.loc	1 62 5 prologue_end             # crypto_scalarmult/ristretto255/ref10/scalarmult_ristretto255_ref10.c:62:5
	movl	$32, %eax
	retq
.Ltmp86:
.Lfunc_end3:
	.size	crypto_scalarmult_ristretto255_scalarbytes, .Lfunc_end3-crypto_scalarmult_ristretto255_scalarbytes
	.cfi_endproc
                                        # -- End function
	.section	".note.GNU-stack","",@progbits
	.addrsig