	.file	"scrypt_platform.c"
	.file	0 "/home/leizhenyuu/opt/Anonymous_Repo/libsodium_o2_attr_inline/src/libsodium" "scrypt_platform.c" md5 0xc8cdd5dbc2e15ca644a22c1c946fd754
	.file	1 "/usr/include/x86_64-linux-gnu/bits" "types.h"
	.file	2 "/usr/include/x86_64-linux-gnu/bits" "stdint-uintn.h"
	.text
	.hidden	escrypt_alloc_region            # -- Begin function escrypt_alloc_region
	.globl	escrypt_alloc_region
	.p2align	4
	.type	escrypt_alloc_region,@function
escrypt_alloc_region:                   # @escrypt_alloc_region
.Lfunc_begin0:
	.file	3 "crypto_pwhash/scryptsalsa208sha256" "scrypt_platform.c"
	.loc	3 46 0                          # crypto_pwhash/scryptsalsa208sha256/scrypt_platform.c:46:0
	.cfi_startproc
# %bb.0:
	#DEBUG_VALUE: escrypt_alloc_region:region <- $rdi
	#DEBUG_VALUE: escrypt_alloc_region:size <- $rsi
	pushq	%r15
	.cfi_def_cfa_offset 16
	pushq	%r14
	.cfi_def_cfa_offset 24
	pushq	%rbx
	.cfi_def_cfa_offset 32
	.cfi_offset %rbx, -32
	.cfi_offset %r14, -24
	.cfi_offset %r15, -16
	movq	%rsi, %rbx
	movq	%rdi, %r14
	xorl	%r15d, %r15d
.Ltmp0:
	.loc	3 49 29 prologue_end            # crypto_pwhash/scryptsalsa208sha256/scrypt_platform.c:49:29
	xorl	%edi, %edi
.Ltmp1:
	#DEBUG_VALUE: escrypt_alloc_region:region <- $r14
	movl	$3, %edx
	movl	$32802, %ecx                    # imm = 0x8022
	movl	$-1, %r8d
	xorl	%r9d, %r9d
	callq	mmap@PLT
.Ltmp2:
	#DEBUG_VALUE: escrypt_alloc_region:size <- $rbx
	#DEBUG_VALUE: escrypt_alloc_region:base <- $rax
	.loc	3 51 42                         # crypto_pwhash/scryptsalsa208sha256/scrypt_platform.c:51:42
	cmpq	$-1, %rax
	cmoveq	%r15, %rax
.Ltmp3:
	#DEBUG_VALUE: escrypt_alloc_region:base <- $rax
	#DEBUG_VALUE: escrypt_alloc_region:aligned <- $rax
	.loc	3 69 18                         # crypto_pwhash/scryptsalsa208sha256/scrypt_platform.c:69:18
	movq	%rax, (%r14)
	.loc	3 70 21                         # crypto_pwhash/scryptsalsa208sha256/scrypt_platform.c:70:21
	movq	%rax, 8(%r14)
	.loc	3 71 20                         # crypto_pwhash/scryptsalsa208sha256/scrypt_platform.c:71:20
	testq	%rax, %rax
	cmoveq	%rax, %rbx
.Ltmp4:
	#DEBUG_VALUE: escrypt_alloc_region:size <- [DW_OP_LLVM_entry_value 1] $rsi
	.loc	3 71 18 is_stmt 0               # crypto_pwhash/scryptsalsa208sha256/scrypt_platform.c:71:18
	movq	%rbx, 16(%r14)
	.loc	3 73 5 epilogue_begin is_stmt 1 # crypto_pwhash/scryptsalsa208sha256/scrypt_platform.c:73:5
	popq	%rbx
	.cfi_def_cfa_offset 24
	popq	%r14
.Ltmp5:
	#DEBUG_VALUE: escrypt_alloc_region:region <- [DW_OP_LLVM_entry_value 1] $rdi
	.cfi_def_cfa_offset 16
	popq	%r15
	.cfi_def_cfa_offset 8
	retq
.Ltmp6:
.Lfunc_end0:
	.size	escrypt_alloc_region, .Lfunc_end0-escrypt_alloc_region
	.cfi_endproc
	.file	4 "/usr/include/x86_64-linux-gnu/sys" "mman.h"
	.file	5 "/home/leizhenyuu/opt/Anonymous_Repo" "llvm-project/build/lib/clang/21/include/__stddef_size_t.h"
                                        # -- End function
	.hidden	escrypt_free_region             # -- Begin function escrypt_free_region
	.globl	escrypt_free_region
	.p2align	4
	.type	escrypt_free_region,@function
escrypt_free_region:                    # @escrypt_free_region
.Lfunc_begin1:
	.loc	3 85 0                          # crypto_pwhash/scryptsalsa208sha256/scrypt_platform.c:85:0
	.cfi_startproc
# %bb.0:
	#DEBUG_VALUE: escrypt_free_region:region <- $rdi
	pushq	%rbx
	.cfi_def_cfa_offset 16
	.cfi_offset %rbx, -16
	movq	%rdi, %rbx
.Ltmp7:
	.loc	3 86 17 prologue_end            # crypto_pwhash/scryptsalsa208sha256/scrypt_platform.c:86:17
	movq	(%rdi), %rdi
.Ltmp8:
	#DEBUG_VALUE: escrypt_free_region:region <- $rbx
	.loc	3 86 9 is_stmt 0                # crypto_pwhash/scryptsalsa208sha256/scrypt_platform.c:86:9
	testq	%rdi, %rdi
	je	.LBB1_2
.Ltmp9:
# %bb.1:
	#DEBUG_VALUE: escrypt_free_region:region <- $rbx
	.loc	3 88 42 is_stmt 1               # crypto_pwhash/scryptsalsa208sha256/scrypt_platform.c:88:42
	movq	16(%rbx), %rsi
	.loc	3 88 13 is_stmt 0               # crypto_pwhash/scryptsalsa208sha256/scrypt_platform.c:88:13
	callq	munmap@PLT
.Ltmp10:
	movl	%eax, %ecx
	movl	$-1, %eax
	testl	%ecx, %ecx
	je	.LBB1_2
.Ltmp11:
# %bb.3:
	#DEBUG_VALUE: escrypt_free_region:region <- $rbx
	.loc	3 98 1 epilogue_begin is_stmt 1 # crypto_pwhash/scryptsalsa208sha256/scrypt_platform.c:98:1
	popq	%rbx
.Ltmp12:
	#DEBUG_VALUE: escrypt_free_region:region <- [DW_OP_LLVM_entry_value 1] $rdi
	.cfi_def_cfa_offset 8
	retq
.Ltmp13:
.LBB1_2:
	.cfi_def_cfa_offset 16
	#DEBUG_VALUE: escrypt_free_region:region <- $rbx
	#DEBUG_VALUE: init_region:region <- $rbx
	.loc	3 79 18                         # crypto_pwhash/scryptsalsa208sha256/scrypt_platform.c:79:18 @[ crypto_pwhash/scryptsalsa208sha256/scrypt_platform.c:95:5 ]
	xorps	%xmm0, %xmm0
	movups	%xmm0, (%rbx)
	movq	$0, 16(%rbx)
	xorl	%eax, %eax
.Ltmp14:
	.loc	3 98 1 epilogue_begin           # crypto_pwhash/scryptsalsa208sha256/scrypt_platform.c:98:1
	popq	%rbx
.Ltmp15:
	#DEBUG_VALUE: escrypt_free_region:region <- [DW_OP_LLVM_entry_value 1] $rdi
	.cfi_def_cfa_offset 8
	retq
.Ltmp16:
.Lfunc_end1:
	.size	escrypt_free_region, .Lfunc_end1-escrypt_free_region
	.cfi_endproc
	.file	6 "crypto_pwhash/scryptsalsa208sha256" "crypto_scrypt.h"
                                        # -- End function
	.hidden	escrypt_init_local              # -- Begin function escrypt_init_local
	.globl	escrypt_init_local
	.p2align	4
	.type	escrypt_init_local,@function
escrypt_init_local:                     # @escrypt_init_local
.Lfunc_begin2:
	.cfi_startproc
# %bb.0:
	#DEBUG_VALUE: escrypt_init_local:local <- $rdi
	#DEBUG_VALUE: init_region:region <- $rdi
	.loc	3 79 18 prologue_end            # crypto_pwhash/scryptsalsa208sha256/scrypt_platform.c:79:18 @[ crypto_pwhash/scryptsalsa208sha256/scrypt_platform.c:103:5 ]
	xorps	%xmm0, %xmm0
	movups	%xmm0, (%rdi)
	movq	$0, 16(%rdi)
.Ltmp17:
	.loc	3 105 5                         # crypto_pwhash/scryptsalsa208sha256/scrypt_platform.c:105:5
	xorl	%eax, %eax
	retq
.Ltmp18:
.Lfunc_end2:
	.size	escrypt_init_local, .Lfunc_end2-escrypt_init_local
	.cfi_endproc
                                        # -- End function
	.hidden	escrypt_free_local              # -- Begin function escrypt_free_local
	.globl	escrypt_free_local
	.p2align	4
	.type	escrypt_free_local,@function
escrypt_free_local:                     # @escrypt_free_local
.Lfunc_begin3:
	.loc	3 110 0                         # crypto_pwhash/scryptsalsa208sha256/scrypt_platform.c:110:0
	.cfi_startproc
# %bb.0:
	#DEBUG_VALUE: escrypt_free_local:local <- $rdi
	#DEBUG_VALUE: escrypt_free_region:region <- $rdi
	pushq	%rbx
	.cfi_def_cfa_offset 16
	.cfi_offset %rbx, -16
	movq	%rdi, %rbx
.Ltmp19:
	.loc	3 86 17 prologue_end            # crypto_pwhash/scryptsalsa208sha256/scrypt_platform.c:86:17 @[ crypto_pwhash/scryptsalsa208sha256/scrypt_platform.c:111:12 ]
	movq	(%rdi), %rdi
.Ltmp20:
	#DEBUG_VALUE: escrypt_free_region:region <- $rbx
	#DEBUG_VALUE: escrypt_free_local:local <- $rbx
	.loc	3 86 9 is_stmt 0                # crypto_pwhash/scryptsalsa208sha256/scrypt_platform.c:86:9 @[ crypto_pwhash/scryptsalsa208sha256/scrypt_platform.c:111:12 ]
	testq	%rdi, %rdi
	je	.LBB3_2
.Ltmp21:
# %bb.1:
	#DEBUG_VALUE: escrypt_free_local:local <- $rbx
	#DEBUG_VALUE: escrypt_free_region:region <- $rbx
	.loc	3 88 42 is_stmt 1               # crypto_pwhash/scryptsalsa208sha256/scrypt_platform.c:88:42 @[ crypto_pwhash/scryptsalsa208sha256/scrypt_platform.c:111:12 ]
	movq	16(%rbx), %rsi
	.loc	3 88 13 is_stmt 0               # crypto_pwhash/scryptsalsa208sha256/scrypt_platform.c:88:13 @[ crypto_pwhash/scryptsalsa208sha256/scrypt_platform.c:111:12 ]
	callq	munmap@PLT
.Ltmp22:
	movl	%eax, %ecx
	movl	$-1, %eax
	testl	%ecx, %ecx
	je	.LBB3_2
.Ltmp23:
# %bb.3:                                # %escrypt_free_region.exit
	#DEBUG_VALUE: escrypt_free_local:local <- $rbx
	.loc	3 111 5 epilogue_begin is_stmt 1 # crypto_pwhash/scryptsalsa208sha256/scrypt_platform.c:111:5
	popq	%rbx
.Ltmp24:
	#DEBUG_VALUE: escrypt_free_local:local <- [DW_OP_LLVM_entry_value 1] $rdi
	.cfi_def_cfa_offset 8
	retq
.Ltmp25:
.LBB3_2:
	.cfi_def_cfa_offset 16
	#DEBUG_VALUE: escrypt_free_local:local <- $rbx
	#DEBUG_VALUE: escrypt_free_region:region <- $rbx
	#DEBUG_VALUE: init_region:region <- $rbx
	.loc	3 79 18                         # crypto_pwhash/scryptsalsa208sha256/scrypt_platform.c:79:18 @[ crypto_pwhash/scryptsalsa208sha256/scrypt_platform.c:95:5 @[ crypto_pwhash/scryptsalsa208sha256/scrypt_platform.c:111:12 ] ]
	xorps	%xmm0, %xmm0
	movups	%xmm0, (%rbx)
	movq	$0, 16(%rbx)
	xorl	%eax, %eax
.Ltmp26:
	.loc	3 111 5 epilogue_begin          # crypto_pwhash/scryptsalsa208sha256/scrypt_platform.c:111:5
	popq	%rbx
.Ltmp27:
	#DEBUG_VALUE: escrypt_free_local:local <- [DW_OP_LLVM_entry_value 1] $rdi
	.cfi_def_cfa_offset 8
	retq
.Ltmp28:
.Lfunc_end3:
	.size	escrypt_free_local, .Lfunc_end3-escrypt_free_local
	.cfi_endproc
                                        # -- End function
	.section	".note.GNU-stack","",@progbits
	.addrsig