	.file	"secretbox_xchacha20poly1305.c"
	.file	0 "/home/leizhenyuu/opt/Anonymous_Repo/libsodium_o2_attr_inline/src/libsodium" "secretbox_xchacha20poly1305.c" md5 0xf3015c000ed6b5b718a948ae8c228587
	.file	1 "/usr/include" "stdint.h"
	.text
	.globl	crypto_secretbox_xchacha20poly1305_detached # -- Begin function crypto_secretbox_xchacha20poly1305_detached
	.p2align	4
	.type	crypto_secretbox_xchacha20poly1305_detached,@function
crypto_secretbox_xchacha20poly1305_detached: # @crypto_secretbox_xchacha20poly1305_detached
.Lfunc_begin0:
	.file	2 "crypto_secretbox/xchacha20poly1305" "secretbox_xchacha20poly1305.c"
	.loc	2 25 0                          # crypto_secretbox/xchacha20poly1305/secretbox_xchacha20poly1305.c:25:0
	.cfi_startproc
# %bb.0:
	#DEBUG_VALUE: crypto_secretbox_xchacha20poly1305_detached:c <- $rdi
	#DEBUG_VALUE: crypto_secretbox_xchacha20poly1305_detached:mac <- $rsi
	#DEBUG_VALUE: crypto_secretbox_xchacha20poly1305_detached:m <- $rdx
	#DEBUG_VALUE: crypto_secretbox_xchacha20poly1305_detached:mlen <- $rcx
	#DEBUG_VALUE: crypto_secretbox_xchacha20poly1305_detached:n <- $r8
	#DEBUG_VALUE: crypto_secretbox_xchacha20poly1305_detached:k <- $r9
	pushq	%rbp
	.cfi_def_cfa_offset 16
	pushq	%r15
	.cfi_def_cfa_offset 24
	pushq	%r14
	.cfi_def_cfa_offset 32
	pushq	%r13
	.cfi_def_cfa_offset 40
	pushq	%r12
	.cfi_def_cfa_offset 48
	pushq	%rbx
	.cfi_def_cfa_offset 56
	subq	$392, %rsp                      # imm = 0x188
	.cfi_def_cfa_offset 448
	.cfi_offset %rbx, -56
	.cfi_offset %r12, -48
	.cfi_offset %r13, -40
	.cfi_offset %r14, -32
	.cfi_offset %r15, -24
	.cfi_offset %rbp, -16
	movq	%r8, %rbx
	movq	%rcx, %r14
	movq	%rdx, %r13
	movq	%rsi, 24(%rsp)                  # 8-byte Spill
.Ltmp0:
	#DEBUG_VALUE: crypto_secretbox_xchacha20poly1305_detached:mac <- [DW_OP_plus_uconst 24] [$rsp+0]
	movq	%rdi, %r15
	movq	%fs:40, %rax
	movq	%rax, 384(%rsp)
	leaq	32(%rsp), %rdi
.Ltmp1:
	#DEBUG_VALUE: crypto_secretbox_xchacha20poly1305_detached:c <- $r15
	.loc	2 32 5 prologue_end             # crypto_secretbox/xchacha20poly1305/secretbox_xchacha20poly1305.c:32:5
	movq	%r8, %rsi
	movq	%r9, %rdx
.Ltmp2:
	#DEBUG_VALUE: crypto_secretbox_xchacha20poly1305_detached:m <- $r13
	xorl	%ecx, %ecx
.Ltmp3:
	#DEBUG_VALUE: crypto_secretbox_xchacha20poly1305_detached:mlen <- $r14
	callq	crypto_core_hchacha20@PLT
.Ltmp4:
	#DEBUG_VALUE: crypto_secretbox_xchacha20poly1305_detached:k <- [DW_OP_LLVM_entry_value 1] $r9
	#DEBUG_VALUE: crypto_secretbox_xchacha20poly1305_detached:n <- $rbx
	.loc	2 34 24                         # crypto_secretbox/xchacha20poly1305/secretbox_xchacha20poly1305.c:34:24
	movq	%r15, %rax
	subq	%r13, %rax
	seta	%cl
	cmpq	%r14, %rax
	setb	%al
	.loc	2 34 40 is_stmt 0               # crypto_secretbox/xchacha20poly1305/secretbox_xchacha20poly1305.c:34:40
	testb	%al, %cl
	jne	.LBB0_2
.Ltmp5:
# %bb.1:
	#DEBUG_VALUE: crypto_secretbox_xchacha20poly1305_detached:c <- $r15
	#DEBUG_VALUE: crypto_secretbox_xchacha20poly1305_detached:mac <- [DW_OP_plus_uconst 24] [$rsp+0]
	#DEBUG_VALUE: crypto_secretbox_xchacha20poly1305_detached:m <- $r13
	#DEBUG_VALUE: crypto_secretbox_xchacha20poly1305_detached:mlen <- $r14
	#DEBUG_VALUE: crypto_secretbox_xchacha20poly1305_detached:n <- $rbx
	#DEBUG_VALUE: crypto_secretbox_xchacha20poly1305_detached:k <- [DW_OP_LLVM_entry_value 1] $r9
	.loc	2 36 24 is_stmt 1               # crypto_secretbox/xchacha20poly1305/secretbox_xchacha20poly1305.c:36:24
	movq	%r13, %rax
	subq	%r15, %rax
	setbe	%cl
	cmpq	%r14, %rax
	setae	%al
	.loc	2 36 40 is_stmt 0               # crypto_secretbox/xchacha20poly1305/secretbox_xchacha20poly1305.c:36:40
	orb	%cl, %al
	jne	.LBB0_4
.Ltmp6:
.LBB0_2:                                # %.thread
	#DEBUG_VALUE: crypto_secretbox_xchacha20poly1305_detached:c <- $r15
	#DEBUG_VALUE: crypto_secretbox_xchacha20poly1305_detached:mac <- [DW_OP_plus_uconst 24] [$rsp+0]
	#DEBUG_VALUE: crypto_secretbox_xchacha20poly1305_detached:m <- $r13
	#DEBUG_VALUE: crypto_secretbox_xchacha20poly1305_detached:mlen <- $r14
	#DEBUG_VALUE: crypto_secretbox_xchacha20poly1305_detached:n <- $rbx
	#DEBUG_VALUE: crypto_secretbox_xchacha20poly1305_detached:k <- [DW_OP_LLVM_entry_value 1] $r9
	#DEBUG_VALUE: memmove:__dest <- $r15
	#DEBUG_VALUE: memmove:__src <- $r13
	#DEBUG_VALUE: memmove:__len <- $r14
	.file	3 "/usr/include/x86_64-linux-gnu/bits" "string_fortified.h"
	.loc	3 36 10 is_stmt 1               # /usr/include/x86_64-linux-gnu/bits/string_fortified.h:36:10 @[ crypto_secretbox/xchacha20poly1305/secretbox_xchacha20poly1305.c:38:9 ]
	movq	%r15, %rdi
	movq	%r13, %rsi
	movq	%r14, %rdx
	callq	memmove@PLT
.Ltmp7:
	#DEBUG_VALUE: memset:__dest <- [DW_OP_plus_uconst 64, DW_OP_stack_value] $rsp
	#DEBUG_VALUE: memset:__ch <- 0
	#DEBUG_VALUE: memset:__len <- 32
	.loc	3 59 10                         # /usr/include/x86_64-linux-gnu/bits/string_fortified.h:59:10 @[ crypto_secretbox/xchacha20poly1305/secretbox_xchacha20poly1305.c:41:5 ]
	xorps	%xmm0, %xmm0
	movaps	%xmm0, 64(%rsp)
	movaps	%xmm0, 80(%rsp)
.Ltmp8:
	#DEBUG_VALUE: crypto_secretbox_xchacha20poly1305_detached:mlen0 <- $r14
	.loc	2 44 15                         # crypto_secretbox/xchacha20poly1305/secretbox_xchacha20poly1305.c:44:15
	cmpq	$33, %r14
	setae	15(%rsp)                        # 1-byte Folded Spill
	cmpq	$32, %r14
	movl	$32, %ebp
	cmovbq	%r14, %rbp
.Ltmp9:
	#DEBUG_VALUE: crypto_secretbox_xchacha20poly1305_detached:mlen0 <- $rbp
	#DEBUG_VALUE: crypto_secretbox_xchacha20poly1305_detached:i <- 0
	#DEBUG_VALUE: crypto_secretbox_xchacha20poly1305_detached:m <- undef
	.loc	2 0 15 is_stmt 0                # crypto_secretbox/xchacha20poly1305/secretbox_xchacha20poly1305.c:0:15
	movq	%r15, %r13
.Ltmp10:
.LBB0_3:                                # %.lr.ph.preheader
	#DEBUG_VALUE: crypto_secretbox_xchacha20poly1305_detached:c <- $r15
	#DEBUG_VALUE: crypto_secretbox_xchacha20poly1305_detached:mac <- [DW_OP_plus_uconst 24] [$rsp+0]
	#DEBUG_VALUE: crypto_secretbox_xchacha20poly1305_detached:mlen <- $r14
	#DEBUG_VALUE: crypto_secretbox_xchacha20poly1305_detached:n <- $rbx
	#DEBUG_VALUE: crypto_secretbox_xchacha20poly1305_detached:k <- [DW_OP_LLVM_entry_value 1] $r9
	#DEBUG_VALUE: crypto_secretbox_xchacha20poly1305_detached:mlen0 <- $rbp
	#DEBUG_VALUE: crypto_secretbox_xchacha20poly1305_detached:i <- 0
	.loc	2 47 5 is_stmt 1                # crypto_secretbox/xchacha20poly1305/secretbox_xchacha20poly1305.c:47:5
	leaq	96(%rsp), %rdi
.Ltmp11:
	.loc	2 48 25                         # crypto_secretbox/xchacha20poly1305/secretbox_xchacha20poly1305.c:48:25
	movq	%r13, %rsi
	movq	%rbp, %rdx
	callq	memcpy@PLT
.Ltmp12:
	.loc	2 0 25 is_stmt 0                # crypto_secretbox/xchacha20poly1305/secretbox_xchacha20poly1305.c:0:25
	xorl	%r12d, %r12d
.Ltmp13:
	#DEBUG_VALUE: crypto_secretbox_xchacha20poly1305_detached:i <- undef
.LBB0_6:                                # %._crit_edge
	#DEBUG_VALUE: crypto_secretbox_xchacha20poly1305_detached:c <- $r15
	#DEBUG_VALUE: crypto_secretbox_xchacha20poly1305_detached:mac <- [DW_OP_plus_uconst 24] [$rsp+0]
	#DEBUG_VALUE: crypto_secretbox_xchacha20poly1305_detached:mlen <- $r14
	#DEBUG_VALUE: crypto_secretbox_xchacha20poly1305_detached:n <- $rbx
	#DEBUG_VALUE: crypto_secretbox_xchacha20poly1305_detached:k <- [DW_OP_LLVM_entry_value 1] $r9
	#DEBUG_VALUE: crypto_secretbox_xchacha20poly1305_detached:mlen0 <- $rbp
	.loc	2 51 38 is_stmt 1               # crypto_secretbox/xchacha20poly1305/secretbox_xchacha20poly1305.c:51:38
	leaq	32(%rbp), %rdx
	.loc	2 52 34                         # crypto_secretbox/xchacha20poly1305/secretbox_xchacha20poly1305.c:52:34
	addq	$16, %rbx
.Ltmp14:
	#DEBUG_VALUE: crypto_secretbox_xchacha20poly1305_detached:n <- [DW_OP_LLVM_entry_value 1] $r8
	.loc	2 0 34 is_stmt 0                # crypto_secretbox/xchacha20poly1305/secretbox_xchacha20poly1305.c:0:34
	movq	%rbx, %rcx
	leaq	64(%rsp), %rbx
	leaq	32(%rsp), %r8
	.loc	2 50 5 is_stmt 1                # crypto_secretbox/xchacha20poly1305/secretbox_xchacha20poly1305.c:50:5
	movq	%rbx, %rdi
	movq	%rbx, %rsi
	movq	%rcx, 16(%rsp)                  # 8-byte Spill
	callq	crypto_stream_chacha20_xor@PLT
.Ltmp15:
	.loc	2 0 5 is_stmt 0                 # crypto_secretbox/xchacha20poly1305/secretbox_xchacha20poly1305.c:0:5
	leaq	128(%rsp), %rdi
	.loc	2 55 5 is_stmt 1                # crypto_secretbox/xchacha20poly1305/secretbox_xchacha20poly1305.c:55:5
	movq	%rbx, %rsi
	callq	crypto_onetimeauth_poly1305_init@PLT
.Ltmp16:
	#DEBUG_VALUE: crypto_secretbox_xchacha20poly1305_detached:i <- 0
	.loc	2 57 5                          # crypto_secretbox/xchacha20poly1305/secretbox_xchacha20poly1305.c:57:5
	testb	%r12b, %r12b
	jne	.LBB0_8
.Ltmp17:
# %bb.7:                                # %.lr.ph55.preheader
	#DEBUG_VALUE: crypto_secretbox_xchacha20poly1305_detached:c <- $r15
	#DEBUG_VALUE: crypto_secretbox_xchacha20poly1305_detached:mac <- [DW_OP_plus_uconst 24] [$rsp+0]
	#DEBUG_VALUE: crypto_secretbox_xchacha20poly1305_detached:mlen <- $r14
	#DEBUG_VALUE: crypto_secretbox_xchacha20poly1305_detached:n <- [DW_OP_LLVM_entry_value 1] $r8
	#DEBUG_VALUE: crypto_secretbox_xchacha20poly1305_detached:k <- [DW_OP_LLVM_entry_value 1] $r9
	#DEBUG_VALUE: crypto_secretbox_xchacha20poly1305_detached:mlen0 <- $rbp
	#DEBUG_VALUE: crypto_secretbox_xchacha20poly1305_detached:i <- 0
	leaq	96(%rsp), %rsi
.Ltmp18:
	.loc	2 58 14                         # crypto_secretbox/xchacha20poly1305/secretbox_xchacha20poly1305.c:58:14
	movq	%r15, %rdi
	movq	%rbp, %rdx
	callq	memcpy@PLT
.Ltmp19:
	#DEBUG_VALUE: crypto_secretbox_xchacha20poly1305_detached:i <- undef
.LBB0_8:                                # %._crit_edge56
	#DEBUG_VALUE: crypto_secretbox_xchacha20poly1305_detached:c <- $r15
	#DEBUG_VALUE: crypto_secretbox_xchacha20poly1305_detached:mac <- [DW_OP_plus_uconst 24] [$rsp+0]
	#DEBUG_VALUE: crypto_secretbox_xchacha20poly1305_detached:mlen <- $r14
	#DEBUG_VALUE: crypto_secretbox_xchacha20poly1305_detached:n <- [DW_OP_LLVM_entry_value 1] $r8
	#DEBUG_VALUE: crypto_secretbox_xchacha20poly1305_detached:k <- [DW_OP_LLVM_entry_value 1] $r9
	#DEBUG_VALUE: crypto_secretbox_xchacha20poly1305_detached:mlen0 <- $rbp
	.loc	2 0 14 is_stmt 0                # crypto_secretbox/xchacha20poly1305/secretbox_xchacha20poly1305.c:0:14
	leaq	64(%rsp), %rdi
	.loc	2 60 5 is_stmt 1                # crypto_secretbox/xchacha20poly1305/secretbox_xchacha20poly1305.c:60:5
	movl	$64, %esi
	callq	sodium_memzero@PLT
.Ltmp20:
	.loc	2 61 14                         # crypto_secretbox/xchacha20poly1305/secretbox_xchacha20poly1305.c:61:14
	cmpb	$0, 15(%rsp)                    # 1-byte Folded Reload
	je	.LBB0_10
.Ltmp21:
# %bb.9:
	#DEBUG_VALUE: crypto_secretbox_xchacha20poly1305_detached:c <- $r15
	#DEBUG_VALUE: crypto_secretbox_xchacha20poly1305_detached:mac <- [DW_OP_plus_uconst 24] [$rsp+0]
	#DEBUG_VALUE: crypto_secretbox_xchacha20poly1305_detached:mlen <- $r14
	#DEBUG_VALUE: crypto_secretbox_xchacha20poly1305_detached:n <- [DW_OP_LLVM_entry_value 1] $r8
	#DEBUG_VALUE: crypto_secretbox_xchacha20poly1305_detached:k <- [DW_OP_LLVM_entry_value 1] $r9
	#DEBUG_VALUE: crypto_secretbox_xchacha20poly1305_detached:mlen0 <- $rbp
	.loc	2 62 41                         # crypto_secretbox/xchacha20poly1305/secretbox_xchacha20poly1305.c:62:41
	leaq	(%r15,%rbp), %rdi
	.loc	2 62 52 is_stmt 0               # crypto_secretbox/xchacha20poly1305/secretbox_xchacha20poly1305.c:62:52
	addq	%rbp, %r13
	.loc	2 62 66                         # crypto_secretbox/xchacha20poly1305/secretbox_xchacha20poly1305.c:62:66
	movq	%r14, %rdx
	subq	%rbp, %rdx
	leaq	32(%rsp), %r9
	.loc	2 62 9                          # crypto_secretbox/xchacha20poly1305/secretbox_xchacha20poly1305.c:62:9
	movl	$1, %r8d
	movq	%r13, %rsi
	movq	16(%rsp), %rcx                  # 8-byte Reload
	callq	crypto_stream_chacha20_xor_ic@PLT
.Ltmp22:
.LBB0_10:
	#DEBUG_VALUE: crypto_secretbox_xchacha20poly1305_detached:c <- $r15
	#DEBUG_VALUE: crypto_secretbox_xchacha20poly1305_detached:mac <- [DW_OP_plus_uconst 24] [$rsp+0]
	#DEBUG_VALUE: crypto_secretbox_xchacha20poly1305_detached:mlen <- $r14
	#DEBUG_VALUE: crypto_secretbox_xchacha20poly1305_detached:n <- [DW_OP_LLVM_entry_value 1] $r8
	#DEBUG_VALUE: crypto_secretbox_xchacha20poly1305_detached:k <- [DW_OP_LLVM_entry_value 1] $r9
	#DEBUG_VALUE: crypto_secretbox_xchacha20poly1305_detached:mlen0 <- $rbp
	.loc	2 0 9                           # crypto_secretbox/xchacha20poly1305/secretbox_xchacha20poly1305.c:0:9
	leaq	32(%rsp), %rdi
	.loc	2 65 5 is_stmt 1                # crypto_secretbox/xchacha20poly1305/secretbox_xchacha20poly1305.c:65:5
	movl	$32, %esi
	callq	sodium_memzero@PLT
.Ltmp23:
	.loc	2 0 5 is_stmt 0                 # crypto_secretbox/xchacha20poly1305/secretbox_xchacha20poly1305.c:0:5
	leaq	128(%rsp), %rbx
	.loc	2 67 5 is_stmt 1                # crypto_secretbox/xchacha20poly1305/secretbox_xchacha20poly1305.c:67:5
	movq	%rbx, %rdi
	movq	%r15, %rsi
	movq	%r14, %rdx
	callq	crypto_onetimeauth_poly1305_update@PLT
.Ltmp24:
	.loc	2 68 5                          # crypto_secretbox/xchacha20poly1305/secretbox_xchacha20poly1305.c:68:5
	movq	%rbx, %rdi
	movq	24(%rsp), %rsi                  # 8-byte Reload
	callq	crypto_onetimeauth_poly1305_final@PLT
.Ltmp25:
	.loc	2 69 5                          # crypto_secretbox/xchacha20poly1305/secretbox_xchacha20poly1305.c:69:5
	movl	$256, %esi                      # imm = 0x100
	movq	%rbx, %rdi
	callq	sodium_memzero@PLT
.Ltmp26:
	.loc	2 71 5                          # crypto_secretbox/xchacha20poly1305/secretbox_xchacha20poly1305.c:71:5
	movq	%fs:40, %rax
	cmpq	384(%rsp), %rax
	jne	.LBB0_12
.Ltmp27:
# %bb.11:                               # %SP_return
	#DEBUG_VALUE: crypto_secretbox_xchacha20poly1305_detached:c <- $r15
	#DEBUG_VALUE: crypto_secretbox_xchacha20poly1305_detached:mac <- [DW_OP_plus_uconst 24] [$rsp+0]
	#DEBUG_VALUE: crypto_secretbox_xchacha20poly1305_detached:mlen <- $r14
	#DEBUG_VALUE: crypto_secretbox_xchacha20poly1305_detached:n <- [DW_OP_LLVM_entry_value 1] $r8
	#DEBUG_VALUE: crypto_secretbox_xchacha20poly1305_detached:k <- [DW_OP_LLVM_entry_value 1] $r9
	#DEBUG_VALUE: crypto_secretbox_xchacha20poly1305_detached:mlen0 <- $rbp
	xorl	%eax, %eax
	.loc	2 71 5 epilogue_begin is_stmt 0 # crypto_secretbox/xchacha20poly1305/secretbox_xchacha20poly1305.c:71:5
	addq	$392, %rsp                      # imm = 0x188
	.cfi_def_cfa_offset 56
	popq	%rbx
	.cfi_def_cfa_offset 48
	popq	%r12
	.cfi_def_cfa_offset 40
	popq	%r13
	.cfi_def_cfa_offset 32
	popq	%r14
.Ltmp28:
	#DEBUG_VALUE: crypto_secretbox_xchacha20poly1305_detached:mlen <- [DW_OP_LLVM_entry_value 1] $rcx
	.cfi_def_cfa_offset 24
	popq	%r15
.Ltmp29:
	#DEBUG_VALUE: crypto_secretbox_xchacha20poly1305_detached:c <- [DW_OP_LLVM_entry_value 1] $rdi
	.cfi_def_cfa_offset 16
	popq	%rbp
.Ltmp30:
	.cfi_def_cfa_offset 8
	retq
.Ltmp31:
.LBB0_4:
	.cfi_def_cfa_offset 448
	#DEBUG_VALUE: crypto_secretbox_xchacha20poly1305_detached:c <- $r15
	#DEBUG_VALUE: crypto_secretbox_xchacha20poly1305_detached:mac <- [DW_OP_plus_uconst 24] [$rsp+0]
	#DEBUG_VALUE: crypto_secretbox_xchacha20poly1305_detached:m <- $r13
	#DEBUG_VALUE: crypto_secretbox_xchacha20poly1305_detached:mlen <- $r14
	#DEBUG_VALUE: crypto_secretbox_xchacha20poly1305_detached:n <- $rbx
	#DEBUG_VALUE: crypto_secretbox_xchacha20poly1305_detached:k <- [DW_OP_LLVM_entry_value 1] $r9
	#DEBUG_VALUE: memset:__dest <- [DW_OP_plus_uconst 64, DW_OP_stack_value] $rsp
	#DEBUG_VALUE: memset:__ch <- 0
	#DEBUG_VALUE: memset:__len <- 32
	.loc	3 59 10 is_stmt 1               # /usr/include/x86_64-linux-gnu/bits/string_fortified.h:59:10 @[ crypto_secretbox/xchacha20poly1305/secretbox_xchacha20poly1305.c:41:5 ]
	xorps	%xmm0, %xmm0
	movaps	%xmm0, 80(%rsp)
	movaps	%xmm0, 64(%rsp)
.Ltmp32:
	#DEBUG_VALUE: crypto_secretbox_xchacha20poly1305_detached:mlen0 <- $r14
	.loc	2 44 15                         # crypto_secretbox/xchacha20poly1305/secretbox_xchacha20poly1305.c:44:15
	cmpq	$33, %r14
	setae	15(%rsp)                        # 1-byte Folded Spill
	cmpq	$32, %r14
	movl	$32, %ebp
	cmovbq	%r14, %rbp
.Ltmp33:
	#DEBUG_VALUE: crypto_secretbox_xchacha20poly1305_detached:mlen0 <- $rbp
	#DEBUG_VALUE: crypto_secretbox_xchacha20poly1305_detached:i <- 0
	.loc	2 47 20                         # crypto_secretbox/xchacha20poly1305/secretbox_xchacha20poly1305.c:47:20
	testq	%r14, %r14
.Ltmp34:
	#DEBUG_VALUE: crypto_secretbox_xchacha20poly1305_detached:m <- undef
	.loc	2 47 5 is_stmt 0                # crypto_secretbox/xchacha20poly1305/secretbox_xchacha20poly1305.c:47:5
	jne	.LBB0_3
.Ltmp35:
# %bb.5:
	#DEBUG_VALUE: crypto_secretbox_xchacha20poly1305_detached:c <- $r15
	#DEBUG_VALUE: crypto_secretbox_xchacha20poly1305_detached:mac <- [DW_OP_plus_uconst 24] [$rsp+0]
	#DEBUG_VALUE: crypto_secretbox_xchacha20poly1305_detached:mlen <- $r14
	#DEBUG_VALUE: crypto_secretbox_xchacha20poly1305_detached:n <- $rbx
	#DEBUG_VALUE: crypto_secretbox_xchacha20poly1305_detached:k <- [DW_OP_LLVM_entry_value 1] $r9
	#DEBUG_VALUE: memset:__dest <- [DW_OP_plus_uconst 64, DW_OP_stack_value] $rsp
	#DEBUG_VALUE: memset:__ch <- 0
	#DEBUG_VALUE: memset:__len <- 32
	#DEBUG_VALUE: crypto_secretbox_xchacha20poly1305_detached:mlen0 <- $rbp
	#DEBUG_VALUE: crypto_secretbox_xchacha20poly1305_detached:i <- 0
	.loc	2 0 5                           # crypto_secretbox/xchacha20poly1305/secretbox_xchacha20poly1305.c:0:5
	movb	$1, %r12b
	jmp	.LBB0_6
.Ltmp36:
.LBB0_12:                               # %CallStackCheckFailBlk
	#DEBUG_VALUE: crypto_secretbox_xchacha20poly1305_detached:c <- $r15
	#DEBUG_VALUE: crypto_secretbox_xchacha20poly1305_detached:mac <- [DW_OP_plus_uconst 24] [$rsp+0]
	#DEBUG_VALUE: crypto_secretbox_xchacha20poly1305_detached:mlen <- $r14
	#DEBUG_VALUE: crypto_secretbox_xchacha20poly1305_detached:n <- [DW_OP_LLVM_entry_value 1] $r8
	#DEBUG_VALUE: crypto_secretbox_xchacha20poly1305_detached:k <- [DW_OP_LLVM_entry_value 1] $r9
	#DEBUG_VALUE: crypto_secretbox_xchacha20poly1305_detached:mlen0 <- $rbp
	callq	__stack_chk_fail@PLT
.Ltmp37:
.Lfunc_end0:
	.size	crypto_secretbox_xchacha20poly1305_detached, .Lfunc_end0-crypto_secretbox_xchacha20poly1305_detached
	.cfi_endproc
	.file	4 "/home/leizhenyuu/opt/Anonymous_Repo" "llvm-project/build/lib/clang/21/include/__stddef_size_t.h"
	.file	5 "./include/sodium" "crypto_core_hchacha20.h"
	.file	6 "./include/sodium" "crypto_stream_chacha20.h"
	.file	7 "./include/sodium" "crypto_onetimeauth_poly1305.h"
	.file	8 "./include/sodium" "utils.h"
	.file	9 "/usr/include/x86_64-linux-gnu/bits" "types.h"
	.file	10 "/usr/include/x86_64-linux-gnu/bits" "stdint-uintn.h"
                                        # -- End function
	.globl	crypto_secretbox_xchacha20poly1305_easy # -- Begin function crypto_secretbox_xchacha20poly1305_easy
	.p2align	4
	.type	crypto_secretbox_xchacha20poly1305_easy,@function
crypto_secretbox_xchacha20poly1305_easy: # @crypto_secretbox_xchacha20poly1305_easy
.Lfunc_begin1:
	.loc	2 80 0 is_stmt 1                # crypto_secretbox/xchacha20poly1305/secretbox_xchacha20poly1305.c:80:0
	.cfi_startproc
# %bb.0:
	#DEBUG_VALUE: crypto_secretbox_xchacha20poly1305_easy:c <- $rdi
	#DEBUG_VALUE: crypto_secretbox_xchacha20poly1305_easy:m <- $rsi
	#DEBUG_VALUE: crypto_secretbox_xchacha20poly1305_easy:mlen <- $rdx
	#DEBUG_VALUE: crypto_secretbox_xchacha20poly1305_easy:n <- $rcx
	#DEBUG_VALUE: crypto_secretbox_xchacha20poly1305_easy:k <- $r8
	pushq	%rax
	.cfi_def_cfa_offset 16
	movq	%r8, %r9
	movq	%rcx, %r8
.Ltmp38:
	#DEBUG_VALUE: crypto_secretbox_xchacha20poly1305_easy:k <- $r9
	movq	%rdx, %rcx
.Ltmp39:
	#DEBUG_VALUE: crypto_secretbox_xchacha20poly1305_easy:n <- $r8
	.loc	2 81 14 prologue_end            # crypto_secretbox/xchacha20poly1305/secretbox_xchacha20poly1305.c:81:14
	cmpq	$-16, %rdx
	jae	.LBB1_2
.Ltmp40:
# %bb.1:
	#DEBUG_VALUE: crypto_secretbox_xchacha20poly1305_easy:c <- $rdi
	#DEBUG_VALUE: crypto_secretbox_xchacha20poly1305_easy:m <- $rsi
	#DEBUG_VALUE: crypto_secretbox_xchacha20poly1305_easy:mlen <- $rdx
	#DEBUG_VALUE: crypto_secretbox_xchacha20poly1305_easy:n <- $r8
	#DEBUG_VALUE: crypto_secretbox_xchacha20poly1305_easy:k <- $r9
	.loc	2 0 14 is_stmt 0                # crypto_secretbox/xchacha20poly1305/secretbox_xchacha20poly1305.c:0:14
	movq	%rsi, %rdx
.Ltmp41:
	#DEBUG_VALUE: crypto_secretbox_xchacha20poly1305_easy:mlen <- $rcx
	movq	%rdi, %rsi
.Ltmp42:
	#DEBUG_VALUE: crypto_secretbox_xchacha20poly1305_easy:m <- $rdx
	.loc	2 85 12 is_stmt 1               # crypto_secretbox/xchacha20poly1305/secretbox_xchacha20poly1305.c:85:12
	addq	$16, %rdi
.Ltmp43:
	#DEBUG_VALUE: crypto_secretbox_xchacha20poly1305_easy:c <- $rsi
	.loc	2 84 12                         # crypto_secretbox/xchacha20poly1305/secretbox_xchacha20poly1305.c:84:12
	callq	crypto_secretbox_xchacha20poly1305_detached
.Ltmp44:
	#DEBUG_VALUE: crypto_secretbox_xchacha20poly1305_easy:k <- [DW_OP_LLVM_entry_value 1] $r8
	#DEBUG_VALUE: crypto_secretbox_xchacha20poly1305_easy:n <- [DW_OP_LLVM_entry_value 1] $rcx
	#DEBUG_VALUE: crypto_secretbox_xchacha20poly1305_easy:mlen <- [DW_OP_LLVM_entry_value 1] $rdx
	#DEBUG_VALUE: crypto_secretbox_xchacha20poly1305_easy:m <- [DW_OP_LLVM_entry_value 1] $rsi
	#DEBUG_VALUE: crypto_secretbox_xchacha20poly1305_easy:c <- [DW_OP_LLVM_entry_value 1] $rdi
	.loc	2 84 5 is_stmt 0                # crypto_secretbox/xchacha20poly1305/secretbox_xchacha20poly1305.c:84:5
	xorl	%eax, %eax
	.loc	2 84 5 epilogue_begin           # crypto_secretbox/xchacha20poly1305/secretbox_xchacha20poly1305.c:84:5
	popq	%rcx
	.cfi_def_cfa_offset 8
	retq
.Ltmp45:
.LBB1_2:
	.cfi_def_cfa_offset 16
	#DEBUG_VALUE: crypto_secretbox_xchacha20poly1305_easy:c <- $rdi
	#DEBUG_VALUE: crypto_secretbox_xchacha20poly1305_easy:m <- $rsi
	#DEBUG_VALUE: crypto_secretbox_xchacha20poly1305_easy:mlen <- $rdx
	#DEBUG_VALUE: crypto_secretbox_xchacha20poly1305_easy:n <- $r8
	#DEBUG_VALUE: crypto_secretbox_xchacha20poly1305_easy:k <- $r9
	.loc	2 82 9 is_stmt 1                # crypto_secretbox/xchacha20poly1305/secretbox_xchacha20poly1305.c:82:9
	callq	sodium_misuse@PLT
.Ltmp46:
	#DEBUG_VALUE: crypto_secretbox_xchacha20poly1305_easy:k <- [DW_OP_LLVM_entry_value 1] $r8
	#DEBUG_VALUE: crypto_secretbox_xchacha20poly1305_easy:n <- [DW_OP_LLVM_entry_value 1] $rcx
	#DEBUG_VALUE: crypto_secretbox_xchacha20poly1305_easy:mlen <- [DW_OP_LLVM_entry_value 1] $rdx
	#DEBUG_VALUE: crypto_secretbox_xchacha20poly1305_easy:m <- [DW_OP_LLVM_entry_value 1] $rsi
	#DEBUG_VALUE: crypto_secretbox_xchacha20poly1305_easy:c <- [DW_OP_LLVM_entry_value 1] $rdi
.Lfunc_end1:
	.size	crypto_secretbox_xchacha20poly1305_easy, .Lfunc_end1-crypto_secretbox_xchacha20poly1305_easy
	.cfi_endproc
	.file	11 "./include/sodium" "core.h"
                                        # -- End function
	.globl	crypto_secretbox_xchacha20poly1305_open_detached # -- Begin function crypto_secretbox_xchacha20poly1305_open_detached
	.p2align	4
	.type	crypto_secretbox_xchacha20poly1305_open_detached,@function
crypto_secretbox_xchacha20poly1305_open_detached: # @crypto_secretbox_xchacha20poly1305_open_detached
.Lfunc_begin2:
	.loc	2 95 0                          # crypto_secretbox/xchacha20poly1305/secretbox_xchacha20poly1305.c:95:0
	.cfi_startproc
# %bb.0:
	#DEBUG_VALUE: crypto_secretbox_xchacha20poly1305_open_detached:m <- $rdi
	#DEBUG_VALUE: crypto_secretbox_xchacha20poly1305_open_detached:c <- $rsi
	#DEBUG_VALUE: crypto_secretbox_xchacha20poly1305_open_detached:mac <- $rdx
	#DEBUG_VALUE: crypto_secretbox_xchacha20poly1305_open_detached:clen <- $rcx
	#DEBUG_VALUE: crypto_secretbox_xchacha20poly1305_open_detached:n <- $r8
	#DEBUG_VALUE: crypto_secretbox_xchacha20poly1305_open_detached:k <- $r9
	pushq	%rbp
	.cfi_def_cfa_offset 16
	pushq	%r15
	.cfi_def_cfa_offset 24
	pushq	%r14
	.cfi_def_cfa_offset 32
	pushq	%r13
	.cfi_def_cfa_offset 40
	pushq	%r12
	.cfi_def_cfa_offset 48
	pushq	%rbx
	.cfi_def_cfa_offset 56
	subq	$120, %rsp
	.cfi_def_cfa_offset 176
	.cfi_offset %rbx, -56
	.cfi_offset %r12, -48
	.cfi_offset %r13, -40
	.cfi_offset %r14, -32
	.cfi_offset %r15, -24
	.cfi_offset %rbp, -16
	movq	%r8, %r14
	movq	%rcx, %r15
	movq	%rdx, %rbp
	movq	%rsi, %rbx
	movq	%rdi, 8(%rsp)                   # 8-byte Spill
.Ltmp47:
	#DEBUG_VALUE: crypto_secretbox_xchacha20poly1305_open_detached:m <- [DW_OP_plus_uconst 8] [$rsp+0]
	movq	%fs:40, %rax
	movq	%rax, 112(%rsp)
	xorl	%r13d, %r13d
	leaq	16(%rsp), %rdi
.Ltmp48:
	.loc	2 101 5 prologue_end            # crypto_secretbox/xchacha20poly1305/secretbox_xchacha20poly1305.c:101:5
	movq	%r8, %rsi
.Ltmp49:
	#DEBUG_VALUE: crypto_secretbox_xchacha20poly1305_open_detached:c <- $rbx
	movq	%r9, %rdx
.Ltmp50:
	#DEBUG_VALUE: crypto_secretbox_xchacha20poly1305_open_detached:mac <- $rbp
	xorl	%ecx, %ecx
.Ltmp51:
	#DEBUG_VALUE: crypto_secretbox_xchacha20poly1305_open_detached:clen <- $r15
	callq	crypto_core_hchacha20@PLT
.Ltmp52:
	#DEBUG_VALUE: crypto_secretbox_xchacha20poly1305_open_detached:k <- [DW_OP_LLVM_entry_value 1] $r9
	#DEBUG_VALUE: crypto_secretbox_xchacha20poly1305_open_detached:n <- $r14
	.loc	2 103 30                        # crypto_secretbox/xchacha20poly1305/secretbox_xchacha20poly1305.c:103:30
	addq	$16, %r14
.Ltmp53:
	#DEBUG_VALUE: crypto_secretbox_xchacha20poly1305_open_detached:n <- [DW_OP_LLVM_entry_value 1] $r8
	.loc	2 0 30 is_stmt 0                # crypto_secretbox/xchacha20poly1305/secretbox_xchacha20poly1305.c:0:30
	leaq	48(%rsp), %r12
	.loc	2 102 5 is_stmt 1               # crypto_secretbox/xchacha20poly1305/secretbox_xchacha20poly1305.c:102:5
	movl	$32, %esi
	movq	%r12, %rdi
	movq	%r14, %rdx
	leaq	16(%rsp), %rcx
	callq	crypto_stream_chacha20@PLT
.Ltmp54:
	.loc	2 104 9                         # crypto_secretbox/xchacha20poly1305/secretbox_xchacha20poly1305.c:104:9
	movq	%rbp, %rdi
	movq	%rbx, %rsi
	movq	%r15, %rdx
	movq	%r12, %rcx
	callq	crypto_onetimeauth_poly1305_verify@PLT
.Ltmp55:
	.loc	2 0 9 is_stmt 0                 # crypto_secretbox/xchacha20poly1305/secretbox_xchacha20poly1305.c:0:9
	movl	$-1, %ebp
.Ltmp56:
	#DEBUG_VALUE: crypto_secretbox_xchacha20poly1305_open_detached:mac <- [DW_OP_LLVM_entry_value 1] $rdx
	.loc	2 104 66                        # crypto_secretbox/xchacha20poly1305/secretbox_xchacha20poly1305.c:104:66
	testl	%eax, %eax
	je	.LBB2_1
.Ltmp57:
.LBB2_9:                                # %.sink.split
	#DEBUG_VALUE: crypto_secretbox_xchacha20poly1305_open_detached:m <- [DW_OP_plus_uconst 8] [$rsp+0]
	#DEBUG_VALUE: crypto_secretbox_xchacha20poly1305_open_detached:mac <- [DW_OP_LLVM_entry_value 1] $rdx
	#DEBUG_VALUE: crypto_secretbox_xchacha20poly1305_open_detached:clen <- [DW_OP_LLVM_entry_value 1] $rcx
	#DEBUG_VALUE: crypto_secretbox_xchacha20poly1305_open_detached:n <- [DW_OP_LLVM_entry_value 1] $r8
	#DEBUG_VALUE: crypto_secretbox_xchacha20poly1305_open_detached:k <- [DW_OP_LLVM_entry_value 1] $r9
	.loc	2 0 66                          # crypto_secretbox/xchacha20poly1305/secretbox_xchacha20poly1305.c:0:66
	leaq	16(%rsp), %rdi
	movl	$32, %esi
	callq	sodium_memzero@PLT
.Ltmp58:
	movl	%ebp, %r13d
.Ltmp59:
.LBB2_10:
	#DEBUG_VALUE: crypto_secretbox_xchacha20poly1305_open_detached:m <- [DW_OP_plus_uconst 8] [$rsp+0]
	#DEBUG_VALUE: crypto_secretbox_xchacha20poly1305_open_detached:mac <- [DW_OP_LLVM_entry_value 1] $rdx
	#DEBUG_VALUE: crypto_secretbox_xchacha20poly1305_open_detached:clen <- [DW_OP_LLVM_entry_value 1] $rcx
	#DEBUG_VALUE: crypto_secretbox_xchacha20poly1305_open_detached:n <- [DW_OP_LLVM_entry_value 1] $r8
	#DEBUG_VALUE: crypto_secretbox_xchacha20poly1305_open_detached:k <- [DW_OP_LLVM_entry_value 1] $r9
	.loc	2 138 1 is_stmt 1               # crypto_secretbox/xchacha20poly1305/secretbox_xchacha20poly1305.c:138:1
	movq	%fs:40, %rax
	cmpq	112(%rsp), %rax
	jne	.LBB2_12
.Ltmp60:
# %bb.11:                               # %SP_return
	#DEBUG_VALUE: crypto_secretbox_xchacha20poly1305_open_detached:m <- [DW_OP_plus_uconst 8] [$rsp+0]
	#DEBUG_VALUE: crypto_secretbox_xchacha20poly1305_open_detached:mac <- [DW_OP_LLVM_entry_value 1] $rdx
	#DEBUG_VALUE: crypto_secretbox_xchacha20poly1305_open_detached:clen <- [DW_OP_LLVM_entry_value 1] $rcx
	#DEBUG_VALUE: crypto_secretbox_xchacha20poly1305_open_detached:n <- [DW_OP_LLVM_entry_value 1] $r8
	#DEBUG_VALUE: crypto_secretbox_xchacha20poly1305_open_detached:k <- [DW_OP_LLVM_entry_value 1] $r9
	movl	%r13d, %eax
	.loc	2 138 1 epilogue_begin is_stmt 0 # crypto_secretbox/xchacha20poly1305/secretbox_xchacha20poly1305.c:138:1
	addq	$120, %rsp
	.cfi_def_cfa_offset 56
	popq	%rbx
	.cfi_def_cfa_offset 48
	popq	%r12
	.cfi_def_cfa_offset 40
	popq	%r13
	.cfi_def_cfa_offset 32
	popq	%r14
	.cfi_def_cfa_offset 24
	popq	%r15
	.cfi_def_cfa_offset 16
	popq	%rbp
	.cfi_def_cfa_offset 8
	retq
.Ltmp61:
.LBB2_1:
	.cfi_def_cfa_offset 176
	#DEBUG_VALUE: crypto_secretbox_xchacha20poly1305_open_detached:m <- [DW_OP_plus_uconst 8] [$rsp+0]
	#DEBUG_VALUE: crypto_secretbox_xchacha20poly1305_open_detached:c <- $rbx
	#DEBUG_VALUE: crypto_secretbox_xchacha20poly1305_open_detached:mac <- [DW_OP_LLVM_entry_value 1] $rdx
	#DEBUG_VALUE: crypto_secretbox_xchacha20poly1305_open_detached:clen <- $r15
	#DEBUG_VALUE: crypto_secretbox_xchacha20poly1305_open_detached:n <- [DW_OP_LLVM_entry_value 1] $r8
	#DEBUG_VALUE: crypto_secretbox_xchacha20poly1305_open_detached:k <- [DW_OP_LLVM_entry_value 1] $r9
	.loc	2 0 1                           # crypto_secretbox/xchacha20poly1305/secretbox_xchacha20poly1305.c:0:1
	movq	8(%rsp), %r12                   # 8-byte Reload
.Ltmp62:
	.loc	2 108 11 is_stmt 1              # crypto_secretbox/xchacha20poly1305/secretbox_xchacha20poly1305.c:108:11
	testq	%r12, %r12
	je	.LBB2_10
.Ltmp63:
# %bb.2:
	#DEBUG_VALUE: crypto_secretbox_xchacha20poly1305_open_detached:m <- [DW_OP_plus_uconst 8] [$rsp+0]
	#DEBUG_VALUE: crypto_secretbox_xchacha20poly1305_open_detached:c <- $rbx
	#DEBUG_VALUE: crypto_secretbox_xchacha20poly1305_open_detached:mac <- [DW_OP_LLVM_entry_value 1] $rdx
	#DEBUG_VALUE: crypto_secretbox_xchacha20poly1305_open_detached:clen <- $r15
	#DEBUG_VALUE: crypto_secretbox_xchacha20poly1305_open_detached:n <- [DW_OP_LLVM_entry_value 1] $r8
	#DEBUG_VALUE: crypto_secretbox_xchacha20poly1305_open_detached:k <- [DW_OP_LLVM_entry_value 1] $r9
	.loc	2 0 11 is_stmt 0                # crypto_secretbox/xchacha20poly1305/secretbox_xchacha20poly1305.c:0:11
	movq	%r14, %rbp
	movq	%r15, %r14
.Ltmp64:
	#DEBUG_VALUE: crypto_secretbox_xchacha20poly1305_open_detached:clen <- $r14
	movq	%rbx, %r15
.Ltmp65:
	.loc	2 111 24 is_stmt 1              # crypto_secretbox/xchacha20poly1305/secretbox_xchacha20poly1305.c:111:24
	movq	%rbx, %rax
	subq	%r12, %rax
	seta	%cl
	cmpq	%r14, %rax
	setb	%al
	.loc	2 111 40 is_stmt 0              # crypto_secretbox/xchacha20poly1305/secretbox_xchacha20poly1305.c:111:40
	testb	%al, %cl
	jne	.LBB2_4
.Ltmp66:
# %bb.3:
	#DEBUG_VALUE: crypto_secretbox_xchacha20poly1305_open_detached:m <- [DW_OP_plus_uconst 8] [$rsp+0]
	#DEBUG_VALUE: crypto_secretbox_xchacha20poly1305_open_detached:c <- $r15
	#DEBUG_VALUE: crypto_secretbox_xchacha20poly1305_open_detached:mac <- [DW_OP_LLVM_entry_value 1] $rdx
	#DEBUG_VALUE: crypto_secretbox_xchacha20poly1305_open_detached:clen <- $r14
	#DEBUG_VALUE: crypto_secretbox_xchacha20poly1305_open_detached:n <- [DW_OP_LLVM_entry_value 1] $r8
	#DEBUG_VALUE: crypto_secretbox_xchacha20poly1305_open_detached:k <- [DW_OP_LLVM_entry_value 1] $r9
	.loc	2 113 24 is_stmt 1              # crypto_secretbox/xchacha20poly1305/secretbox_xchacha20poly1305.c:113:24
	movq	%r12, %rax
	subq	%r15, %rax
	setbe	%cl
	cmpq	%r14, %rax
	setae	%al
	.loc	2 113 40 is_stmt 0              # crypto_secretbox/xchacha20poly1305/secretbox_xchacha20poly1305.c:113:40
	orb	%cl, %al
	jne	.LBB2_7
.Ltmp67:
.LBB2_4:                                # %.thread
	#DEBUG_VALUE: crypto_secretbox_xchacha20poly1305_open_detached:m <- [DW_OP_plus_uconst 8] [$rsp+0]
	#DEBUG_VALUE: crypto_secretbox_xchacha20poly1305_open_detached:c <- $r15
	#DEBUG_VALUE: crypto_secretbox_xchacha20poly1305_open_detached:mac <- [DW_OP_LLVM_entry_value 1] $rdx
	#DEBUG_VALUE: crypto_secretbox_xchacha20poly1305_open_detached:clen <- $r14
	#DEBUG_VALUE: crypto_secretbox_xchacha20poly1305_open_detached:n <- [DW_OP_LLVM_entry_value 1] $r8
	#DEBUG_VALUE: crypto_secretbox_xchacha20poly1305_open_detached:k <- [DW_OP_LLVM_entry_value 1] $r9
	#DEBUG_VALUE: memmove:__dest <- [DW_OP_plus_uconst 8, DW_OP_deref] $rsp
	#DEBUG_VALUE: memmove:__src <- $r15
	#DEBUG_VALUE: memmove:__len <- $r14
	.loc	3 36 10 is_stmt 1               # /usr/include/x86_64-linux-gnu/bits/string_fortified.h:36:10 @[ crypto_secretbox/xchacha20poly1305/secretbox_xchacha20poly1305.c:115:9 ]
	movq	%r12, %rdi
	movq	%r15, %rsi
	movq	%r14, %rdx
	callq	memmove@PLT
.Ltmp68:
	#DEBUG_VALUE: crypto_secretbox_xchacha20poly1305_open_detached:mlen0 <- $r14
	.loc	2 119 15                        # crypto_secretbox/xchacha20poly1305/secretbox_xchacha20poly1305.c:119:15
	cmpq	$32, %r14
	movl	$32, %r13d
	cmovbq	%r14, %r13
.Ltmp69:
	#DEBUG_VALUE: crypto_secretbox_xchacha20poly1305_open_detached:mlen0 <- $r13
	#DEBUG_VALUE: crypto_secretbox_xchacha20poly1305_open_detached:i <- 0
	#DEBUG_VALUE: crypto_secretbox_xchacha20poly1305_open_detached:c <- undef
	.loc	2 0 15 is_stmt 0                # crypto_secretbox/xchacha20poly1305/secretbox_xchacha20poly1305.c:0:15
	movq	%r12, %r15
.Ltmp70:
	#DEBUG_VALUE: memmove:__src <- $rbx
.LBB2_5:                                # %._crit_edge
	#DEBUG_VALUE: crypto_secretbox_xchacha20poly1305_open_detached:m <- [DW_OP_plus_uconst 8] [$rsp+0]
	#DEBUG_VALUE: crypto_secretbox_xchacha20poly1305_open_detached:mac <- [DW_OP_LLVM_entry_value 1] $rdx
	#DEBUG_VALUE: crypto_secretbox_xchacha20poly1305_open_detached:clen <- $r14
	#DEBUG_VALUE: crypto_secretbox_xchacha20poly1305_open_detached:n <- [DW_OP_LLVM_entry_value 1] $r8
	#DEBUG_VALUE: crypto_secretbox_xchacha20poly1305_open_detached:k <- [DW_OP_LLVM_entry_value 1] $r9
	#DEBUG_VALUE: crypto_secretbox_xchacha20poly1305_open_detached:i <- 0
	.loc	2 122 5 is_stmt 1               # crypto_secretbox/xchacha20poly1305/secretbox_xchacha20poly1305.c:122:5
	leaq	80(%rsp), %rbx
.Ltmp71:
	.loc	2 123 25                        # crypto_secretbox/xchacha20poly1305/secretbox_xchacha20poly1305.c:123:25
	movq	%rbx, %rdi
	movq	%r15, %rsi
	movq	%r13, %rdx
	callq	memcpy@PLT
.Ltmp72:
	#DEBUG_VALUE: crypto_secretbox_xchacha20poly1305_open_detached:i <- undef
	.loc	2 126 35                        # crypto_secretbox/xchacha20poly1305/secretbox_xchacha20poly1305.c:126:35
	leaq	32(%r13), %rdx
	leaq	48(%rsp), %rdi
	leaq	16(%rsp), %r8
	.loc	2 125 5                         # crypto_secretbox/xchacha20poly1305/secretbox_xchacha20poly1305.c:125:5
	movq	%rdi, %rsi
	movq	%rbp, %rcx
	callq	crypto_stream_chacha20_xor@PLT
.Ltmp73:
	#DEBUG_VALUE: crypto_secretbox_xchacha20poly1305_open_detached:i <- 0
	.loc	2 129 14                        # crypto_secretbox/xchacha20poly1305/secretbox_xchacha20poly1305.c:129:14
	movq	%r12, %rdi
	movq	%rbx, %rsi
	movq	%r13, %rdx
	callq	memcpy@PLT
.Ltmp74:
	.loc	2 0 14 is_stmt 0                # crypto_secretbox/xchacha20poly1305/secretbox_xchacha20poly1305.c:0:14
	movq	%rbp, %rcx
	xorl	%ebp, %ebp
.Ltmp75:
	.loc	2 119 15 is_stmt 1              # crypto_secretbox/xchacha20poly1305/secretbox_xchacha20poly1305.c:119:15
	cmpq	$33, %r14
.Ltmp76:
	#DEBUG_VALUE: crypto_secretbox_xchacha20poly1305_open_detached:i <- undef
	.loc	2 0 15 is_stmt 0                # crypto_secretbox/xchacha20poly1305/secretbox_xchacha20poly1305.c:0:15
	jb	.LBB2_9
.Ltmp77:
# %bb.6:
	#DEBUG_VALUE: crypto_secretbox_xchacha20poly1305_open_detached:m <- [DW_OP_plus_uconst 8] [$rsp+0]
	#DEBUG_VALUE: crypto_secretbox_xchacha20poly1305_open_detached:mac <- [DW_OP_LLVM_entry_value 1] $rdx
	#DEBUG_VALUE: crypto_secretbox_xchacha20poly1305_open_detached:clen <- $r14
	#DEBUG_VALUE: crypto_secretbox_xchacha20poly1305_open_detached:n <- [DW_OP_LLVM_entry_value 1] $r8
	#DEBUG_VALUE: crypto_secretbox_xchacha20poly1305_open_detached:k <- [DW_OP_LLVM_entry_value 1] $r9
	.loc	2 132 41 is_stmt 1              # crypto_secretbox/xchacha20poly1305/secretbox_xchacha20poly1305.c:132:41
	addq	%r13, %r12
	.loc	2 132 52 is_stmt 0              # crypto_secretbox/xchacha20poly1305/secretbox_xchacha20poly1305.c:132:52
	addq	%r13, %r15
	.loc	2 132 66                        # crypto_secretbox/xchacha20poly1305/secretbox_xchacha20poly1305.c:132:66
	subq	%r13, %r14
.Ltmp78:
	#DEBUG_VALUE: crypto_secretbox_xchacha20poly1305_open_detached:clen <- [DW_OP_LLVM_entry_value 1] $rcx
	.loc	2 0 66                          # crypto_secretbox/xchacha20poly1305/secretbox_xchacha20poly1305.c:0:66
	leaq	16(%rsp), %r9
	.loc	2 132 9                         # crypto_secretbox/xchacha20poly1305/secretbox_xchacha20poly1305.c:132:9
	movl	$1, %r8d
	movq	%r12, %rdi
	movq	%r15, %rsi
	movq	%r14, %rdx
	callq	crypto_stream_chacha20_xor_ic@PLT
.Ltmp79:
	.loc	2 0 9                           # crypto_secretbox/xchacha20poly1305/secretbox_xchacha20poly1305.c:0:9
	jmp	.LBB2_9
.Ltmp80:
.LBB2_7:
	#DEBUG_VALUE: crypto_secretbox_xchacha20poly1305_open_detached:m <- [DW_OP_plus_uconst 8] [$rsp+0]
	#DEBUG_VALUE: crypto_secretbox_xchacha20poly1305_open_detached:c <- $r15
	#DEBUG_VALUE: crypto_secretbox_xchacha20poly1305_open_detached:mac <- [DW_OP_LLVM_entry_value 1] $rdx
	#DEBUG_VALUE: crypto_secretbox_xchacha20poly1305_open_detached:clen <- $r14
	#DEBUG_VALUE: crypto_secretbox_xchacha20poly1305_open_detached:n <- [DW_OP_LLVM_entry_value 1] $r8
	#DEBUG_VALUE: crypto_secretbox_xchacha20poly1305_open_detached:k <- [DW_OP_LLVM_entry_value 1] $r9
	#DEBUG_VALUE: crypto_secretbox_xchacha20poly1305_open_detached:mlen0 <- $r14
	.loc	2 119 15 is_stmt 1              # crypto_secretbox/xchacha20poly1305/secretbox_xchacha20poly1305.c:119:15
	cmpq	$32, %r14
	movl	$32, %r13d
	cmovbq	%r14, %r13
.Ltmp81:
	#DEBUG_VALUE: crypto_secretbox_xchacha20poly1305_open_detached:mlen0 <- undef
	#DEBUG_VALUE: crypto_secretbox_xchacha20poly1305_open_detached:i <- 0
	.loc	2 122 20                        # crypto_secretbox/xchacha20poly1305/secretbox_xchacha20poly1305.c:122:20
	testq	%r14, %r14
.Ltmp82:
	#DEBUG_VALUE: crypto_secretbox_xchacha20poly1305_open_detached:c <- undef
	.loc	2 122 5 is_stmt 0               # crypto_secretbox/xchacha20poly1305/secretbox_xchacha20poly1305.c:122:5
	jne	.LBB2_5
.Ltmp83:
# %bb.8:                                # %._crit_edge.thread
	#DEBUG_VALUE: crypto_secretbox_xchacha20poly1305_open_detached:m <- [DW_OP_plus_uconst 8] [$rsp+0]
	#DEBUG_VALUE: crypto_secretbox_xchacha20poly1305_open_detached:mac <- [DW_OP_LLVM_entry_value 1] $rdx
	#DEBUG_VALUE: crypto_secretbox_xchacha20poly1305_open_detached:clen <- $r14
	#DEBUG_VALUE: crypto_secretbox_xchacha20poly1305_open_detached:n <- [DW_OP_LLVM_entry_value 1] $r8
	#DEBUG_VALUE: crypto_secretbox_xchacha20poly1305_open_detached:k <- [DW_OP_LLVM_entry_value 1] $r9
	#DEBUG_VALUE: crypto_secretbox_xchacha20poly1305_open_detached:i <- 0
	.loc	2 0 5                           # crypto_secretbox/xchacha20poly1305/secretbox_xchacha20poly1305.c:0:5
	leaq	48(%rsp), %rdi
	leaq	16(%rsp), %r8
	.loc	2 125 5 is_stmt 1               # crypto_secretbox/xchacha20poly1305/secretbox_xchacha20poly1305.c:125:5
	movl	$32, %edx
	movq	%rdi, %rsi
	movq	%rbp, %rcx
	callq	crypto_stream_chacha20_xor@PLT
.Ltmp84:
	.loc	2 0 5 is_stmt 0                 # crypto_secretbox/xchacha20poly1305/secretbox_xchacha20poly1305.c:0:5
	xorl	%ebp, %ebp
	#DEBUG_VALUE: crypto_secretbox_xchacha20poly1305_open_detached:i <- 0
	jmp	.LBB2_9
.Ltmp85:
.LBB2_12:                               # %CallStackCheckFailBlk
	#DEBUG_VALUE: crypto_secretbox_xchacha20poly1305_open_detached:m <- [DW_OP_plus_uconst 8] [$rsp+0]
	#DEBUG_VALUE: crypto_secretbox_xchacha20poly1305_open_detached:mac <- [DW_OP_LLVM_entry_value 1] $rdx
	#DEBUG_VALUE: crypto_secretbox_xchacha20poly1305_open_detached:clen <- [DW_OP_LLVM_entry_value 1] $rcx
	#DEBUG_VALUE: crypto_secretbox_xchacha20poly1305_open_detached:n <- [DW_OP_LLVM_entry_value 1] $r8
	#DEBUG_VALUE: crypto_secretbox_xchacha20poly1305_open_detached:k <- [DW_OP_LLVM_entry_value 1] $r9
	callq	__stack_chk_fail@PLT
.Ltmp86:
.Lfunc_end2:
	.size	crypto_secretbox_xchacha20poly1305_open_detached, .Lfunc_end2-crypto_secretbox_xchacha20poly1305_open_detached
	.cfi_endproc
                                        # -- End function
	.globl	crypto_secretbox_xchacha20poly1305_open_easy # -- Begin function crypto_secretbox_xchacha20poly1305_open_easy
	.p2align	4
	.type	crypto_secretbox_xchacha20poly1305_open_easy,@function
crypto_secretbox_xchacha20poly1305_open_easy: # @crypto_secretbox_xchacha20poly1305_open_easy
.Lfunc_begin3:
	.loc	2 146 0 is_stmt 1               # crypto_secretbox/xchacha20poly1305/secretbox_xchacha20poly1305.c:146:0
	.cfi_startproc
# %bb.0:
	#DEBUG_VALUE: crypto_secretbox_xchacha20poly1305_open_easy:m <- $rdi
	#DEBUG_VALUE: crypto_secretbox_xchacha20poly1305_open_easy:c <- $rsi
	#DEBUG_VALUE: crypto_secretbox_xchacha20poly1305_open_easy:clen <- $rdx
	#DEBUG_VALUE: crypto_secretbox_xchacha20poly1305_open_easy:n <- $rcx
	#DEBUG_VALUE: crypto_secretbox_xchacha20poly1305_open_easy:k <- $r8
	movq	%r8, %r9
	movq	%rcx, %r8
.Ltmp87:
	#DEBUG_VALUE: crypto_secretbox_xchacha20poly1305_open_easy:k <- $r9
	movq	%rdx, %rcx
.Ltmp88:
	#DEBUG_VALUE: crypto_secretbox_xchacha20poly1305_open_easy:n <- $r8
	.loc	2 147 14 prologue_end           # crypto_secretbox/xchacha20poly1305/secretbox_xchacha20poly1305.c:147:14
	cmpq	$16, %rdx
	jae	.LBB3_2
.Ltmp89:
# %bb.1:
	#DEBUG_VALUE: crypto_secretbox_xchacha20poly1305_open_easy:m <- $rdi
	#DEBUG_VALUE: crypto_secretbox_xchacha20poly1305_open_easy:c <- $rsi
	#DEBUG_VALUE: crypto_secretbox_xchacha20poly1305_open_easy:clen <- $rdx
	#DEBUG_VALUE: crypto_secretbox_xchacha20poly1305_open_easy:n <- $r8
	#DEBUG_VALUE: crypto_secretbox_xchacha20poly1305_open_easy:k <- $r9
	.loc	2 153 1                         # crypto_secretbox/xchacha20poly1305/secretbox_xchacha20poly1305.c:153:1
	movl	$-1, %eax
	retq
.Ltmp90:
.LBB3_2:
	#DEBUG_VALUE: crypto_secretbox_xchacha20poly1305_open_easy:m <- $rdi
	#DEBUG_VALUE: crypto_secretbox_xchacha20poly1305_open_easy:c <- $rsi
	#DEBUG_VALUE: crypto_secretbox_xchacha20poly1305_open_easy:clen <- $rdx
	#DEBUG_VALUE: crypto_secretbox_xchacha20poly1305_open_easy:n <- $r8
	#DEBUG_VALUE: crypto_secretbox_xchacha20poly1305_open_easy:k <- $r9
	.loc	2 0 1 is_stmt 0                 # crypto_secretbox/xchacha20poly1305/secretbox_xchacha20poly1305.c:0:1
	movq	%rsi, %rdx
.Ltmp91:
	#DEBUG_VALUE: crypto_secretbox_xchacha20poly1305_open_easy:clen <- $rcx
	.loc	2 151 15 is_stmt 1              # crypto_secretbox/xchacha20poly1305/secretbox_xchacha20poly1305.c:151:15
	addq	$16, %rsi
.Ltmp92:
	#DEBUG_VALUE: crypto_secretbox_xchacha20poly1305_open_easy:c <- $rdx
	.loc	2 152 15                        # crypto_secretbox/xchacha20poly1305/secretbox_xchacha20poly1305.c:152:15
	addq	$-16, %rcx
.Ltmp93:
	#DEBUG_VALUE: crypto_secretbox_xchacha20poly1305_open_easy:clen <- [DW_OP_LLVM_entry_value 1] $rdx
	.loc	2 150 12                        # crypto_secretbox/xchacha20poly1305/secretbox_xchacha20poly1305.c:150:12
	jmp	crypto_secretbox_xchacha20poly1305_open_detached # TAILCALL
.Ltmp94:
.Lfunc_end3:
	.size	crypto_secretbox_xchacha20poly1305_open_easy, .Lfunc_end3-crypto_secretbox_xchacha20poly1305_open_easy
	.cfi_endproc
                                        # -- End function
	.globl	crypto_secretbox_xchacha20poly1305_keybytes # -- Begin function crypto_secretbox_xchacha20poly1305_keybytes
	.p2align	4
	.type	crypto_secretbox_xchacha20poly1305_keybytes,@function
crypto_secretbox_xchacha20poly1305_keybytes: # @crypto_secretbox_xchacha20poly1305_keybytes
.Lfunc_begin4:
	.cfi_startproc
# %bb.0:
	.loc	2 158 5 prologue_end            # crypto_secretbox/xchacha20poly1305/secretbox_xchacha20poly1305.c:158:5
	movl	$32, %eax
	retq
.Ltmp95:
.Lfunc_end4:
	.size	crypto_secretbox_xchacha20poly1305_keybytes, .Lfunc_end4-crypto_secretbox_xchacha20poly1305_keybytes
	.cfi_endproc
                                        # -- End function
	.globl	crypto_secretbox_xchacha20poly1305_noncebytes # -- Begin function crypto_secretbox_xchacha20poly1305_noncebytes
	.p2align	4
	.type	crypto_secretbox_xchacha20poly1305_noncebytes,@function
crypto_secretbox_xchacha20poly1305_noncebytes: # @crypto_secretbox_xchacha20poly1305_noncebytes
.Lfunc_begin5:
	.cfi_startproc
# %bb.0:
	.loc	2 164 5 prologue_end            # crypto_secretbox/xchacha20poly1305/secretbox_xchacha20poly1305.c:164:5
	movl	$24, %eax
	retq
.Ltmp96:
.Lfunc_end5:
	.size	crypto_secretbox_xchacha20poly1305_noncebytes, .Lfunc_end5-crypto_secretbox_xchacha20poly1305_noncebytes
	.cfi_endproc
                                        # -- End function
	.globl	crypto_secretbox_xchacha20poly1305_macbytes # -- Begin function crypto_secretbox_xchacha20poly1305_macbytes
	.p2align	4
	.type	crypto_secretbox_xchacha20poly1305_macbytes,@function
crypto_secretbox_xchacha20poly1305_macbytes: # @crypto_secretbox_xchacha20poly1305_macbytes
.Lfunc_begin6:
	.cfi_startproc
# %bb.0:
	.loc	2 170 5 prologue_end            # crypto_secretbox/xchacha20poly1305/secretbox_xchacha20poly1305.c:170:5
	movl	$16, %eax
	retq
.Ltmp97:
.Lfunc_end6:
	.size	crypto_secretbox_xchacha20poly1305_macbytes, .Lfunc_end6-crypto_secretbox_xchacha20poly1305_macbytes
	.cfi_endproc
                                        # -- End function
	.globl	crypto_secretbox_xchacha20poly1305_messagebytes_max # -- Begin function crypto_secretbox_xchacha20poly1305_messagebytes_max
	.p2align	4
	.type	crypto_secretbox_xchacha20poly1305_messagebytes_max,@function
crypto_secretbox_xchacha20poly1305_messagebytes_max: # @crypto_secretbox_xchacha20poly1305_messagebytes_max
.Lfunc_begin7:
	.cfi_startproc
# %bb.0:
	.loc	2 176 5 prologue_end            # crypto_secretbox/xchacha20poly1305/secretbox_xchacha20poly1305.c:176:5
	movq	$-17, %rax
	retq
.Ltmp98:
.Lfunc_end7:
	.size	crypto_secretbox_xchacha20poly1305_messagebytes_max, .Lfunc_end7-crypto_secretbox_xchacha20poly1305_messagebytes_max
	.cfi_endproc
                                        # -- End function
	.section	".note.GNU-stack","",@progbits
	.addrsig
	.addrsig_sym __stack_chk_fail