	.file	"secretbox_xsalsa20poly1305.c"
	.text
	.globl	crypto_secretbox_xsalsa20poly1305 # -- Begin function crypto_secretbox_xsalsa20poly1305
	.p2align	4
	.type	crypto_secretbox_xsalsa20poly1305,@function
crypto_secretbox_xsalsa20poly1305:      # @crypto_secretbox_xsalsa20poly1305
.Lfunc_begin0:
	.file	0 "/home/leizhenyuu/opt/Anonymous_Repo/libsodium_o2_attr_inline/src/libsodium" "secretbox_xsalsa20poly1305.c" md5 0x5987340aeeedbbf380dfe3a24d0792df
	.file	1 "crypto_secretbox/xsalsa20poly1305" "secretbox_xsalsa20poly1305.c"
	.loc	1 11 0                          # crypto_secretbox/xsalsa20poly1305/secretbox_xsalsa20poly1305.c:11:0
	.cfi_startproc
# %bb.0:
	#DEBUG_VALUE: crypto_secretbox_xsalsa20poly1305:c <- $rdi
	#DEBUG_VALUE: crypto_secretbox_xsalsa20poly1305:m <- $rsi
	#DEBUG_VALUE: crypto_secretbox_xsalsa20poly1305:mlen <- $rdx
	#DEBUG_VALUE: crypto_secretbox_xsalsa20poly1305:n <- $rcx
	#DEBUG_VALUE: crypto_secretbox_xsalsa20poly1305:k <- $r8
	movl	$-1, %eax
.Ltmp0:
	.loc	1 14 14 prologue_end            # crypto_secretbox/xsalsa20poly1305/secretbox_xsalsa20poly1305.c:14:14
	cmpq	$32, %rdx
	jb	.LBB0_2
.Ltmp1:
# %bb.1:                                # %.loopexit.loopexit
	#DEBUG_VALUE: crypto_secretbox_xsalsa20poly1305:c <- $rdi
	#DEBUG_VALUE: crypto_secretbox_xsalsa20poly1305:m <- $rsi
	#DEBUG_VALUE: crypto_secretbox_xsalsa20poly1305:mlen <- $rdx
	#DEBUG_VALUE: crypto_secretbox_xsalsa20poly1305:n <- $rcx
	#DEBUG_VALUE: crypto_secretbox_xsalsa20poly1305:k <- $r8
	pushq	%r14
	.cfi_def_cfa_offset 16
	pushq	%rbx
	.cfi_def_cfa_offset 24
	pushq	%rax
	.cfi_def_cfa_offset 32
	.cfi_offset %rbx, -24
	.cfi_offset %r14, -16
	movq	%rdi, %rbx
	movq	%rdx, %r14
	.loc	1 17 5                          # crypto_secretbox/xsalsa20poly1305/secretbox_xsalsa20poly1305.c:17:5
	callq	crypto_stream_xsalsa20_xor@PLT
.Ltmp2:
	#DEBUG_VALUE: crypto_secretbox_xsalsa20poly1305:k <- [DW_OP_LLVM_entry_value 1] $r8
	#DEBUG_VALUE: crypto_secretbox_xsalsa20poly1305:n <- [DW_OP_LLVM_entry_value 1] $rcx
	#DEBUG_VALUE: crypto_secretbox_xsalsa20poly1305:mlen <- $r14
	#DEBUG_VALUE: crypto_secretbox_xsalsa20poly1305:m <- [DW_OP_LLVM_entry_value 1] $rsi
	#DEBUG_VALUE: crypto_secretbox_xsalsa20poly1305:c <- $rbx
	.loc	1 18 35                         # crypto_secretbox/xsalsa20poly1305/secretbox_xsalsa20poly1305.c:18:35
	leaq	16(%rbx), %rdi
	.loc	1 18 43 is_stmt 0               # crypto_secretbox/xsalsa20poly1305/secretbox_xsalsa20poly1305.c:18:43
	leaq	32(%rbx), %rsi
	.loc	1 18 54                         # crypto_secretbox/xsalsa20poly1305/secretbox_xsalsa20poly1305.c:18:54
	addq	$-32, %r14
.Ltmp3:
	#DEBUG_VALUE: crypto_secretbox_xsalsa20poly1305:mlen <- [DW_OP_LLVM_entry_value 1] $rdx
	.loc	1 18 5                          # crypto_secretbox/xsalsa20poly1305/secretbox_xsalsa20poly1305.c:18:5
	movq	%r14, %rdx
	movq	%rbx, %rcx
	callq	crypto_onetimeauth_poly1305@PLT
.Ltmp4:
	#DEBUG_VALUE: crypto_secretbox_xsalsa20poly1305:i <- 0
	.loc	1 20 14 is_stmt 1               # crypto_secretbox/xsalsa20poly1305/secretbox_xsalsa20poly1305.c:20:14
	xorps	%xmm0, %xmm0
	movups	%xmm0, (%rbx)
	xorl	%eax, %eax
.Ltmp5:
	#DEBUG_VALUE: crypto_secretbox_xsalsa20poly1305:i <- undef
	.loc	1 0 14 is_stmt 0                # crypto_secretbox/xsalsa20poly1305/secretbox_xsalsa20poly1305.c:0:14
	addq	$8, %rsp
	.cfi_def_cfa_offset 24
	popq	%rbx
.Ltmp6:
	#DEBUG_VALUE: crypto_secretbox_xsalsa20poly1305:c <- [DW_OP_LLVM_entry_value 1] $rdi
	.cfi_def_cfa_offset 16
	popq	%r14
.Ltmp7:
	.cfi_def_cfa_offset 8
	.cfi_restore %rbx
	.cfi_restore %r14
.LBB0_2:                                # %.loopexit
	#DEBUG_VALUE: crypto_secretbox_xsalsa20poly1305:c <- [DW_OP_LLVM_entry_value 1] $rdi
	#DEBUG_VALUE: crypto_secretbox_xsalsa20poly1305:m <- [DW_OP_LLVM_entry_value 1] $rsi
	#DEBUG_VALUE: crypto_secretbox_xsalsa20poly1305:mlen <- [DW_OP_LLVM_entry_value 1] $rdx
	#DEBUG_VALUE: crypto_secretbox_xsalsa20poly1305:n <- [DW_OP_LLVM_entry_value 1] $rcx
	#DEBUG_VALUE: crypto_secretbox_xsalsa20poly1305:k <- [DW_OP_LLVM_entry_value 1] $r8
	.loc	1 23 1 is_stmt 1                # crypto_secretbox/xsalsa20poly1305/secretbox_xsalsa20poly1305.c:23:1
	retq
.Ltmp8:
.Lfunc_end0:
	.size	crypto_secretbox_xsalsa20poly1305, .Lfunc_end0-crypto_secretbox_xsalsa20poly1305
	.cfi_endproc
	.file	2 "./include/sodium" "crypto_stream_xsalsa20.h"
	.file	3 "./include/sodium" "crypto_onetimeauth_poly1305.h"
                                        # -- End function
	.globl	crypto_secretbox_xsalsa20poly1305_open # -- Begin function crypto_secretbox_xsalsa20poly1305_open
	.p2align	4
	.type	crypto_secretbox_xsalsa20poly1305_open,@function
crypto_secretbox_xsalsa20poly1305_open: # @crypto_secretbox_xsalsa20poly1305_open
.Lfunc_begin1:
	.loc	1 30 0                          # crypto_secretbox/xsalsa20poly1305/secretbox_xsalsa20poly1305.c:30:0
	.cfi_startproc
# %bb.0:
	#DEBUG_VALUE: crypto_secretbox_xsalsa20poly1305_open:m <- $rdi
	#DEBUG_VALUE: crypto_secretbox_xsalsa20poly1305_open:c <- $rsi
	#DEBUG_VALUE: crypto_secretbox_xsalsa20poly1305_open:clen <- $rdx
	#DEBUG_VALUE: crypto_secretbox_xsalsa20poly1305_open:n <- $rcx
	#DEBUG_VALUE: crypto_secretbox_xsalsa20poly1305_open:k <- $r8
	pushq	%rbp
	.cfi_def_cfa_offset 16
	pushq	%r15
	.cfi_def_cfa_offset 24
	pushq	%r14
	.cfi_def_cfa_offset 32
	pushq	%r13
	.cfi_def_cfa_offset 40
	pushq	%r12
	.cfi_def_cfa_offset 48
	pushq	%rbx
	.cfi_def_cfa_offset 56
	subq	$56, %rsp
	.cfi_def_cfa_offset 112
	.cfi_offset %rbx, -56
	.cfi_offset %r12, -48
	.cfi_offset %r13, -40
	.cfi_offset %r14, -32
	.cfi_offset %r15, -24
	.cfi_offset %rbp, -16
	movq	%fs:40, %rax
	movq	%rax, 48(%rsp)
	movl	$-1, %ebp
.Ltmp9:
	.loc	1 34 14 prologue_end            # crypto_secretbox/xsalsa20poly1305/secretbox_xsalsa20poly1305.c:34:14
	cmpq	$32, %rdx
	jb	.LBB1_3
.Ltmp10:
# %bb.1:
	#DEBUG_VALUE: crypto_secretbox_xsalsa20poly1305_open:m <- $rdi
	#DEBUG_VALUE: crypto_secretbox_xsalsa20poly1305_open:c <- $rsi
	#DEBUG_VALUE: crypto_secretbox_xsalsa20poly1305_open:clen <- $rdx
	#DEBUG_VALUE: crypto_secretbox_xsalsa20poly1305_open:n <- $rcx
	#DEBUG_VALUE: crypto_secretbox_xsalsa20poly1305_open:k <- $r8
	.loc	1 0 14 is_stmt 0                # crypto_secretbox/xsalsa20poly1305/secretbox_xsalsa20poly1305.c:0:14
	movq	%rdx, %r14
	movq	%rsi, %r15
	movq	%rdi, %rbx
	leaq	16(%rsp), %r12
	.loc	1 37 5 is_stmt 1                # crypto_secretbox/xsalsa20poly1305/secretbox_xsalsa20poly1305.c:37:5
	movl	$32, %esi
.Ltmp11:
	#DEBUG_VALUE: crypto_secretbox_xsalsa20poly1305_open:c <- $r15
	movq	%r12, %rdi
.Ltmp12:
	#DEBUG_VALUE: crypto_secretbox_xsalsa20poly1305_open:m <- $rbx
	.loc	1 0 5 is_stmt 0                 # crypto_secretbox/xsalsa20poly1305/secretbox_xsalsa20poly1305.c:0:5
	movq	%rcx, %r13
	.loc	1 37 5                          # crypto_secretbox/xsalsa20poly1305/secretbox_xsalsa20poly1305.c:37:5
	movq	%rcx, %rdx
.Ltmp13:
	#DEBUG_VALUE: crypto_secretbox_xsalsa20poly1305_open:clen <- $r14
	.loc	1 0 5                           # crypto_secretbox/xsalsa20poly1305/secretbox_xsalsa20poly1305.c:0:5
	movq	%r8, 8(%rsp)                    # 8-byte Spill
.Ltmp14:
	#DEBUG_VALUE: crypto_secretbox_xsalsa20poly1305_open:k <- [DW_OP_plus_uconst 8] [$rsp+0]
	.loc	1 37 5                          # crypto_secretbox/xsalsa20poly1305/secretbox_xsalsa20poly1305.c:37:5
	movq	%r8, %rcx
.Ltmp15:
	#DEBUG_VALUE: crypto_secretbox_xsalsa20poly1305_open:n <- $r13
	callq	crypto_stream_xsalsa20@PLT
.Ltmp16:
	.loc	1 38 46 is_stmt 1               # crypto_secretbox/xsalsa20poly1305/secretbox_xsalsa20poly1305.c:38:46
	leaq	16(%r15), %rdi
	.loc	1 38 54 is_stmt 0               # crypto_secretbox/xsalsa20poly1305/secretbox_xsalsa20poly1305.c:38:54
	leaq	32(%r15), %rsi
	.loc	1 39 49 is_stmt 1               # crypto_secretbox/xsalsa20poly1305/secretbox_xsalsa20poly1305.c:39:49
	leaq	-32(%r14), %rdx
	.loc	1 38 9                          # crypto_secretbox/xsalsa20poly1305/secretbox_xsalsa20poly1305.c:38:9
	movq	%r12, %rcx
	callq	crypto_onetimeauth_poly1305_verify@PLT
.Ltmp17:
	.loc	1 39 63                         # crypto_secretbox/xsalsa20poly1305/secretbox_xsalsa20poly1305.c:39:63
	testl	%eax, %eax
	jne	.LBB1_3
.Ltmp18:
# %bb.2:                                # %.loopexit.loopexit
	#DEBUG_VALUE: crypto_secretbox_xsalsa20poly1305_open:m <- $rbx
	#DEBUG_VALUE: crypto_secretbox_xsalsa20poly1305_open:c <- $r15
	#DEBUG_VALUE: crypto_secretbox_xsalsa20poly1305_open:clen <- $r14
	#DEBUG_VALUE: crypto_secretbox_xsalsa20poly1305_open:n <- $r13
	#DEBUG_VALUE: crypto_secretbox_xsalsa20poly1305_open:k <- [DW_OP_plus_uconst 8] [$rsp+0]
	.loc	1 42 5                          # crypto_secretbox/xsalsa20poly1305/secretbox_xsalsa20poly1305.c:42:5
	movq	%rbx, %rdi
	movq	%r15, %rsi
	movq	%r14, %rdx
	movq	%r13, %rcx
	movq	8(%rsp), %r8                    # 8-byte Reload
	callq	crypto_stream_xsalsa20_xor@PLT
.Ltmp19:
	#DEBUG_VALUE: crypto_secretbox_xsalsa20poly1305_open:i <- 0
	.loc	1 44 14                         # crypto_secretbox/xsalsa20poly1305/secretbox_xsalsa20poly1305.c:44:14
	xorps	%xmm0, %xmm0
	movups	%xmm0, (%rbx)
	movups	%xmm0, 16(%rbx)
	xorl	%ebp, %ebp
.Ltmp20:
	#DEBUG_VALUE: crypto_secretbox_xsalsa20poly1305_open:i <- undef
.LBB1_3:                                # %.loopexit
	#DEBUG_VALUE: crypto_secretbox_xsalsa20poly1305_open:m <- [DW_OP_LLVM_entry_value 1] $rdi
	#DEBUG_VALUE: crypto_secretbox_xsalsa20poly1305_open:c <- [DW_OP_LLVM_entry_value 1] $rsi
	#DEBUG_VALUE: crypto_secretbox_xsalsa20poly1305_open:clen <- [DW_OP_LLVM_entry_value 1] $rdx
	#DEBUG_VALUE: crypto_secretbox_xsalsa20poly1305_open:n <- [DW_OP_LLVM_entry_value 1] $rcx
	#DEBUG_VALUE: crypto_secretbox_xsalsa20poly1305_open:k <- [DW_OP_LLVM_entry_value 1] $r8
	.loc	1 47 1                          # crypto_secretbox/xsalsa20poly1305/secretbox_xsalsa20poly1305.c:47:1
	movq	%fs:40, %rax
	cmpq	48(%rsp), %rax
	jne	.LBB1_5
.Ltmp21:
# %bb.4:                                # %SP_return
	#DEBUG_VALUE: crypto_secretbox_xsalsa20poly1305_open:m <- [DW_OP_LLVM_entry_value 1] $rdi
	#DEBUG_VALUE: crypto_secretbox_xsalsa20poly1305_open:c <- [DW_OP_LLVM_entry_value 1] $rsi
	#DEBUG_VALUE: crypto_secretbox_xsalsa20poly1305_open:clen <- [DW_OP_LLVM_entry_value 1] $rdx
	#DEBUG_VALUE: crypto_secretbox_xsalsa20poly1305_open:n <- [DW_OP_LLVM_entry_value 1] $rcx
	#DEBUG_VALUE: crypto_secretbox_xsalsa20poly1305_open:k <- [DW_OP_LLVM_entry_value 1] $r8
	movl	%ebp, %eax
	.loc	1 47 1 epilogue_begin is_stmt 0 # crypto_secretbox/xsalsa20poly1305/secretbox_xsalsa20poly1305.c:47:1
	addq	$56, %rsp
	.cfi_def_cfa_offset 56
	popq	%rbx
	.cfi_def_cfa_offset 48
	popq	%r12
	.cfi_def_cfa_offset 40
	popq	%r13
	.cfi_def_cfa_offset 32
	popq	%r14
	.cfi_def_cfa_offset 24
	popq	%r15
	.cfi_def_cfa_offset 16
	popq	%rbp
	.cfi_def_cfa_offset 8
	retq
.Ltmp22:
.LBB1_5:                                # %CallStackCheckFailBlk
	.cfi_def_cfa_offset 112
	#DEBUG_VALUE: crypto_secretbox_xsalsa20poly1305_open:m <- [DW_OP_LLVM_entry_value 1] $rdi
	#DEBUG_VALUE: crypto_secretbox_xsalsa20poly1305_open:c <- [DW_OP_LLVM_entry_value 1] $rsi
	#DEBUG_VALUE: crypto_secretbox_xsalsa20poly1305_open:clen <- [DW_OP_LLVM_entry_value 1] $rdx
	#DEBUG_VALUE: crypto_secretbox_xsalsa20poly1305_open:n <- [DW_OP_LLVM_entry_value 1] $rcx
	#DEBUG_VALUE: crypto_secretbox_xsalsa20poly1305_open:k <- [DW_OP_LLVM_entry_value 1] $r8
	.loc	1 0 0                           # crypto_secretbox/xsalsa20poly1305/secretbox_xsalsa20poly1305.c:0
	callq	__stack_chk_fail@PLT
.Ltmp23:
.Lfunc_end1:
	.size	crypto_secretbox_xsalsa20poly1305_open, .Lfunc_end1-crypto_secretbox_xsalsa20poly1305_open
	.cfi_endproc
                                        # -- End function
	.globl	crypto_secretbox_xsalsa20poly1305_keybytes # -- Begin function crypto_secretbox_xsalsa20poly1305_keybytes
	.p2align	4
	.type	crypto_secretbox_xsalsa20poly1305_keybytes,@function
crypto_secretbox_xsalsa20poly1305_keybytes: # @crypto_secretbox_xsalsa20poly1305_keybytes
.Lfunc_begin2:
	.cfi_startproc
# %bb.0:
	.loc	1 52 5 prologue_end is_stmt 1   # crypto_secretbox/xsalsa20poly1305/secretbox_xsalsa20poly1305.c:52:5
	movl	$32, %eax
	retq
.Ltmp24:
.Lfunc_end2:
	.size	crypto_secretbox_xsalsa20poly1305_keybytes, .Lfunc_end2-crypto_secretbox_xsalsa20poly1305_keybytes
	.cfi_endproc
                                        # -- End function
	.globl	crypto_secretbox_xsalsa20poly1305_noncebytes # -- Begin function crypto_secretbox_xsalsa20poly1305_noncebytes
	.p2align	4
	.type	crypto_secretbox_xsalsa20poly1305_noncebytes,@function
crypto_secretbox_xsalsa20poly1305_noncebytes: # @crypto_secretbox_xsalsa20poly1305_noncebytes
.Lfunc_begin3:
	.cfi_startproc
# %bb.0:
	.loc	1 58 5 prologue_end             # crypto_secretbox/xsalsa20poly1305/secretbox_xsalsa20poly1305.c:58:5
	movl	$24, %eax
	retq
.Ltmp25:
.Lfunc_end3:
	.size	crypto_secretbox_xsalsa20poly1305_noncebytes, .Lfunc_end3-crypto_secretbox_xsalsa20poly1305_noncebytes
	.cfi_endproc
                                        # -- End function
	.globl	crypto_secretbox_xsalsa20poly1305_zerobytes # -- Begin function crypto_secretbox_xsalsa20poly1305_zerobytes
	.p2align	4
	.type	crypto_secretbox_xsalsa20poly1305_zerobytes,@function
crypto_secretbox_xsalsa20poly1305_zerobytes: # @crypto_secretbox_xsalsa20poly1305_zerobytes
.Lfunc_begin4:
	.cfi_startproc
# %bb.0:
	.loc	1 64 5 prologue_end             # crypto_secretbox/xsalsa20poly1305/secretbox_xsalsa20poly1305.c:64:5
	movl	$32, %eax
	retq
.Ltmp26:
.Lfunc_end4:
	.size	crypto_secretbox_xsalsa20poly1305_zerobytes, .Lfunc_end4-crypto_secretbox_xsalsa20poly1305_zerobytes
	.cfi_endproc
                                        # -- End function
	.globl	crypto_secretbox_xsalsa20poly1305_boxzerobytes # -- Begin function crypto_secretbox_xsalsa20poly1305_boxzerobytes
	.p2align	4
	.type	crypto_secretbox_xsalsa20poly1305_boxzerobytes,@function
crypto_secretbox_xsalsa20poly1305_boxzerobytes: # @crypto_secretbox_xsalsa20poly1305_boxzerobytes
.Lfunc_begin5:
	.cfi_startproc
# %bb.0:
	.loc	1 70 5 prologue_end             # crypto_secretbox/xsalsa20poly1305/secretbox_xsalsa20poly1305.c:70:5
	movl	$16, %eax
	retq
.Ltmp27:
.Lfunc_end5:
	.size	crypto_secretbox_xsalsa20poly1305_boxzerobytes, .Lfunc_end5-crypto_secretbox_xsalsa20poly1305_boxzerobytes
	.cfi_endproc
                                        # -- End function
	.globl	crypto_secretbox_xsalsa20poly1305_macbytes # -- Begin function crypto_secretbox_xsalsa20poly1305_macbytes
	.p2align	4
	.type	crypto_secretbox_xsalsa20poly1305_macbytes,@function
crypto_secretbox_xsalsa20poly1305_macbytes: # @crypto_secretbox_xsalsa20poly1305_macbytes
.Lfunc_begin6:
	.cfi_startproc
# %bb.0:
	.loc	1 76 5 prologue_end             # crypto_secretbox/xsalsa20poly1305/secretbox_xsalsa20poly1305.c:76:5
	movl	$16, %eax
	retq
.Ltmp28:
.Lfunc_end6:
	.size	crypto_secretbox_xsalsa20poly1305_macbytes, .Lfunc_end6-crypto_secretbox_xsalsa20poly1305_macbytes
	.cfi_endproc
                                        # -- End function
	.globl	crypto_secretbox_xsalsa20poly1305_messagebytes_max # -- Begin function crypto_secretbox_xsalsa20poly1305_messagebytes_max
	.p2align	4
	.type	crypto_secretbox_xsalsa20poly1305_messagebytes_max,@function
crypto_secretbox_xsalsa20poly1305_messagebytes_max: # @crypto_secretbox_xsalsa20poly1305_messagebytes_max
.Lfunc_begin7:
	.cfi_startproc
# %bb.0:
	.loc	1 82 5 prologue_end             # crypto_secretbox/xsalsa20poly1305/secretbox_xsalsa20poly1305.c:82:5
	movq	$-17, %rax
	retq
.Ltmp29:
.Lfunc_end7:
	.size	crypto_secretbox_xsalsa20poly1305_messagebytes_max, .Lfunc_end7-crypto_secretbox_xsalsa20poly1305_messagebytes_max
	.cfi_endproc
                                        # -- End function
	.globl	crypto_secretbox_xsalsa20poly1305_keygen # -- Begin function crypto_secretbox_xsalsa20poly1305_keygen
	.p2align	4
	.type	crypto_secretbox_xsalsa20poly1305_keygen,@function
crypto_secretbox_xsalsa20poly1305_keygen: # @crypto_secretbox_xsalsa20poly1305_keygen
.Lfunc_begin8:
	.cfi_startproc
# %bb.0:
	#DEBUG_VALUE: crypto_secretbox_xsalsa20poly1305_keygen:k <- $rdi
	.loc	1 88 5 prologue_end             # crypto_secretbox/xsalsa20poly1305/secretbox_xsalsa20poly1305.c:88:5
	movl	$32, %esi
.Ltmp30:
	jmp	randombytes_buf@PLT             # TAILCALL
.Ltmp31:
.Lfunc_end8:
	.size	crypto_secretbox_xsalsa20poly1305_keygen, .Lfunc_end8-crypto_secretbox_xsalsa20poly1305_keygen
	.cfi_endproc
	.file	4 "./include/sodium" "randombytes.h"
	.file	5 "/home/leizhenyuu/opt/Anonymous_Repo" "llvm-project/build/lib/clang/21/include/__stddef_size_t.h"
                                        # -- End function
	.section	".note.GNU-stack","",@progbits
	.addrsig
	.addrsig_sym __stack_chk_fail