	.file	"secretstream_xchacha20poly1305.c"
	.file	0 "/home/leizhenyuu/opt/Anonymous_Repo/libsodium_o2_attr_inline/src/libsodium" "secretstream_xchacha20poly1305.c" md5 0xbc7424ab4e352837435debe1bfaa87ad
	.file	1 "crypto_secretstream/xchacha20poly1305" "secretstream_xchacha20poly1305.c"
	.file	2 "/usr/include/x86_64-linux-gnu/bits" "types.h"
	.file	3 "/usr/include/x86_64-linux-gnu/bits" "stdint-uintn.h"
	.text
	.globl	crypto_secretstream_xchacha20poly1305_keygen # -- Begin function crypto_secretstream_xchacha20poly1305_keygen
	.p2align	4
	.type	crypto_secretstream_xchacha20poly1305_keygen,@function
crypto_secretstream_xchacha20poly1305_keygen: # @crypto_secretstream_xchacha20poly1305_keygen
.Lfunc_begin0:
	.cfi_startproc
# %bb.0:
	#DEBUG_VALUE: crypto_secretstream_xchacha20poly1305_keygen:k <- $rdi
	.loc	1 39 5 prologue_end             # crypto_secretstream/xchacha20poly1305/secretstream_xchacha20poly1305.c:39:5
	movl	$32, %esi
.Ltmp0:
	jmp	randombytes_buf@PLT             # TAILCALL
.Ltmp1:
.Lfunc_end0:
	.size	crypto_secretstream_xchacha20poly1305_keygen, .Lfunc_end0-crypto_secretstream_xchacha20poly1305_keygen
	.cfi_endproc
	.file	4 "./include/sodium" "randombytes.h"
	.file	5 "/home/leizhenyuu/opt/Anonymous_Repo" "llvm-project/build/lib/clang/21/include/__stddef_size_t.h"
                                        # -- End function
	.globl	crypto_secretstream_xchacha20poly1305_init_push # -- Begin function crypto_secretstream_xchacha20poly1305_init_push
	.p2align	4
	.type	crypto_secretstream_xchacha20poly1305_init_push,@function
crypto_secretstream_xchacha20poly1305_init_push: # @crypto_secretstream_xchacha20poly1305_init_push
.Lfunc_begin1:
	.loc	1 47 0                          # crypto_secretstream/xchacha20poly1305/secretstream_xchacha20poly1305.c:47:0
	.cfi_startproc
# %bb.0:
	#DEBUG_VALUE: crypto_secretstream_xchacha20poly1305_init_push:state <- $rdi
	#DEBUG_VALUE: crypto_secretstream_xchacha20poly1305_init_push:out <- $rsi
	#DEBUG_VALUE: crypto_secretstream_xchacha20poly1305_init_push:k <- $rdx
	pushq	%r15
	.cfi_def_cfa_offset 16
	pushq	%r14
	.cfi_def_cfa_offset 24
	pushq	%rbx
	.cfi_def_cfa_offset 32
	.cfi_offset %rbx, -32
	.cfi_offset %r14, -24
	.cfi_offset %r15, -16
	movq	%rdx, %rbx
	movq	%rsi, %r14
	movq	%rdi, %r15
.Ltmp2:
	.loc	1 57 5 prologue_end             # crypto_secretstream/xchacha20poly1305/secretstream_xchacha20poly1305.c:57:5
	movl	$24, %esi
.Ltmp3:
	#DEBUG_VALUE: crypto_secretstream_xchacha20poly1305_init_push:out <- $r14
	movq	%r14, %rdi
.Ltmp4:
	#DEBUG_VALUE: crypto_secretstream_xchacha20poly1305_init_push:state <- $r15
	callq	randombytes_buf@PLT
.Ltmp5:
	#DEBUG_VALUE: crypto_secretstream_xchacha20poly1305_init_push:k <- $rbx
	.loc	1 58 5                          # crypto_secretstream/xchacha20poly1305/secretstream_xchacha20poly1305.c:58:5
	movq	%r15, %rdi
	movq	%r14, %rsi
	movq	%rbx, %rdx
	xorl	%ecx, %ecx
	callq	crypto_core_hchacha20@PLT
.Ltmp6:
	#DEBUG_VALUE: _crypto_secretstream_xchacha20poly1305_counter_reset:state <- $r15
	#DEBUG_VALUE: memset:__ch <- 0
	#DEBUG_VALUE: memset:__len <- 4
	#DEBUG_VALUE: memset:__dest <- [DW_OP_plus_uconst 32, DW_OP_stack_value] $r15
	.file	6 "/usr/include/x86_64-linux-gnu/bits" "string_fortified.h"
	.loc	6 59 10                         # /usr/include/x86_64-linux-gnu/bits/string_fortified.h:59:10 @[ crypto_secretstream/xchacha20poly1305/secretstream_xchacha20poly1305.c:30:5 @[ crypto_secretstream/xchacha20poly1305/secretstream_xchacha20poly1305.c:59:5 ] ]
	movl	$0, 32(%r15)
.Ltmp7:
	.loc	1 32 25                         # crypto_secretstream/xchacha20poly1305/secretstream_xchacha20poly1305.c:32:25 @[ crypto_secretstream/xchacha20poly1305/secretstream_xchacha20poly1305.c:59:5 ]
	movb	$1, 32(%r15)
.Ltmp8:
	#DEBUG_VALUE: memcpy:__len <- 8
	#DEBUG_VALUE: memcpy:__dest <- [DW_OP_plus_uconst 36, DW_OP_stack_value] $r15
	#DEBUG_VALUE: memcpy:__src <- [DW_OP_plus_uconst 16, DW_OP_stack_value] $r14
	.loc	6 29 10                         # /usr/include/x86_64-linux-gnu/bits/string_fortified.h:29:10 @[ crypto_secretstream/xchacha20poly1305/secretstream_xchacha20poly1305.c:60:5 ]
	movq	16(%r14), %rax
	movq	%rax, 36(%r15)
.Ltmp9:
	#DEBUG_VALUE: memset:__ch <- 0
	#DEBUG_VALUE: memset:__len <- 8
	#DEBUG_VALUE: memset:__dest <- [DW_OP_plus_uconst 44, DW_OP_stack_value] $r15
	.loc	6 59 10                         # /usr/include/x86_64-linux-gnu/bits/string_fortified.h:59:10 @[ crypto_secretstream/xchacha20poly1305/secretstream_xchacha20poly1305.c:62:5 ]
	movq	$0, 44(%r15)
.Ltmp10:
	.loc	1 64 5                          # crypto_secretstream/xchacha20poly1305/secretstream_xchacha20poly1305.c:64:5
	xorl	%eax, %eax
	.loc	1 64 5 epilogue_begin is_stmt 0 # crypto_secretstream/xchacha20poly1305/secretstream_xchacha20poly1305.c:64:5
	popq	%rbx
.Ltmp11:
	#DEBUG_VALUE: crypto_secretstream_xchacha20poly1305_init_push:k <- [DW_OP_LLVM_entry_value 1] $rdx
	.cfi_def_cfa_offset 24
	popq	%r14
.Ltmp12:
	#DEBUG_VALUE: crypto_secretstream_xchacha20poly1305_init_push:out <- [DW_OP_LLVM_entry_value 1] $rsi
	.cfi_def_cfa_offset 16
	popq	%r15
.Ltmp13:
	#DEBUG_VALUE: crypto_secretstream_xchacha20poly1305_init_push:state <- [DW_OP_LLVM_entry_value 1] $rdi
	.cfi_def_cfa_offset 8
	retq
.Ltmp14:
.Lfunc_end1:
	.size	crypto_secretstream_xchacha20poly1305_init_push, .Lfunc_end1-crypto_secretstream_xchacha20poly1305_init_push
	.cfi_endproc
	.file	7 "./include/sodium" "crypto_secretstream_xchacha20poly1305.h"
	.file	8 "./include/sodium" "crypto_core_hchacha20.h"
                                        # -- End function
	.globl	crypto_secretstream_xchacha20poly1305_init_pull # -- Begin function crypto_secretstream_xchacha20poly1305_init_pull
	.p2align	4
	.type	crypto_secretstream_xchacha20poly1305_init_pull,@function
crypto_secretstream_xchacha20poly1305_init_pull: # @crypto_secretstream_xchacha20poly1305_init_pull
.Lfunc_begin2:
	.loc	1 72 0 is_stmt 1                # crypto_secretstream/xchacha20poly1305/secretstream_xchacha20poly1305.c:72:0
	.cfi_startproc
# %bb.0:
	#DEBUG_VALUE: crypto_secretstream_xchacha20poly1305_init_pull:state <- $rdi
	#DEBUG_VALUE: crypto_secretstream_xchacha20poly1305_init_pull:in <- $rsi
	#DEBUG_VALUE: crypto_secretstream_xchacha20poly1305_init_pull:k <- $rdx
	pushq	%r14
	.cfi_def_cfa_offset 16
	pushq	%rbx
	.cfi_def_cfa_offset 24
	pushq	%rax
	.cfi_def_cfa_offset 32
	.cfi_offset %rbx, -24
	.cfi_offset %r14, -16
	movq	%rsi, %rbx
	movq	%rdi, %r14
.Ltmp15:
	.loc	1 73 5 prologue_end             # crypto_secretstream/xchacha20poly1305/secretstream_xchacha20poly1305.c:73:5
	xorl	%ecx, %ecx
	callq	crypto_core_hchacha20@PLT
.Ltmp16:
	#DEBUG_VALUE: crypto_secretstream_xchacha20poly1305_init_pull:k <- [DW_OP_LLVM_entry_value 1] $rdx
	#DEBUG_VALUE: crypto_secretstream_xchacha20poly1305_init_pull:in <- $rbx
	#DEBUG_VALUE: crypto_secretstream_xchacha20poly1305_init_pull:state <- $r14
	#DEBUG_VALUE: _crypto_secretstream_xchacha20poly1305_counter_reset:state <- $r14
	#DEBUG_VALUE: memset:__ch <- 0
	#DEBUG_VALUE: memset:__len <- 4
	#DEBUG_VALUE: memset:__dest <- [DW_OP_plus_uconst 32, DW_OP_stack_value] $r14
	.loc	6 59 10                         # /usr/include/x86_64-linux-gnu/bits/string_fortified.h:59:10 @[ crypto_secretstream/xchacha20poly1305/secretstream_xchacha20poly1305.c:30:5 @[ crypto_secretstream/xchacha20poly1305/secretstream_xchacha20poly1305.c:74:5 ] ]
	movl	$0, 32(%r14)
.Ltmp17:
	.loc	1 32 25                         # crypto_secretstream/xchacha20poly1305/secretstream_xchacha20poly1305.c:32:25 @[ crypto_secretstream/xchacha20poly1305/secretstream_xchacha20poly1305.c:74:5 ]
	movb	$1, 32(%r14)
.Ltmp18:
	#DEBUG_VALUE: memcpy:__len <- 8
	#DEBUG_VALUE: memcpy:__dest <- [DW_OP_plus_uconst 36, DW_OP_stack_value] $r14
	#DEBUG_VALUE: memcpy:__src <- [DW_OP_plus_uconst 16, DW_OP_stack_value] $rbx
	.loc	6 29 10                         # /usr/include/x86_64-linux-gnu/bits/string_fortified.h:29:10 @[ crypto_secretstream/xchacha20poly1305/secretstream_xchacha20poly1305.c:75:5 ]
	movq	16(%rbx), %rax
	movq	%rax, 36(%r14)
.Ltmp19:
	#DEBUG_VALUE: memset:__ch <- 0
	#DEBUG_VALUE: memset:__len <- 8
	#DEBUG_VALUE: memset:__dest <- [DW_OP_plus_uconst 44, DW_OP_stack_value] $r14
	.loc	6 59 10                         # /usr/include/x86_64-linux-gnu/bits/string_fortified.h:59:10 @[ crypto_secretstream/xchacha20poly1305/secretstream_xchacha20poly1305.c:77:5 ]
	movq	$0, 44(%r14)
.Ltmp20:
	.loc	1 79 5                          # crypto_secretstream/xchacha20poly1305/secretstream_xchacha20poly1305.c:79:5
	xorl	%eax, %eax
	.loc	1 79 5 epilogue_begin is_stmt 0 # crypto_secretstream/xchacha20poly1305/secretstream_xchacha20poly1305.c:79:5
	addq	$8, %rsp
	.cfi_def_cfa_offset 24
	popq	%rbx
.Ltmp21:
	#DEBUG_VALUE: crypto_secretstream_xchacha20poly1305_init_pull:in <- [DW_OP_LLVM_entry_value 1] $rsi
	.cfi_def_cfa_offset 16
	popq	%r14
.Ltmp22:
	#DEBUG_VALUE: crypto_secretstream_xchacha20poly1305_init_pull:state <- [DW_OP_LLVM_entry_value 1] $rdi
	.cfi_def_cfa_offset 8
	retq
.Ltmp23:
.Lfunc_end2:
	.size	crypto_secretstream_xchacha20poly1305_init_pull, .Lfunc_end2-crypto_secretstream_xchacha20poly1305_init_pull
	.cfi_endproc
                                        # -- End function
	.globl	crypto_secretstream_xchacha20poly1305_rekey # -- Begin function crypto_secretstream_xchacha20poly1305_rekey
	.p2align	4
	.type	crypto_secretstream_xchacha20poly1305_rekey,@function
crypto_secretstream_xchacha20poly1305_rekey: # @crypto_secretstream_xchacha20poly1305_rekey
.Lfunc_begin3:
	.loc	1 85 0 is_stmt 1                # crypto_secretstream/xchacha20poly1305/secretstream_xchacha20poly1305.c:85:0
	.cfi_startproc
# %bb.0:                                # %.preheader22
	#DEBUG_VALUE: crypto_secretstream_xchacha20poly1305_rekey:state <- $rdi
	pushq	%rbx
	.cfi_def_cfa_offset 16
	subq	$48, %rsp
	.cfi_def_cfa_offset 64
	.cfi_offset %rbx, -16
	movq	%rdi, %rbx
	movq	%fs:40, %rax
	movq	%rax, 40(%rsp)
.Ltmp24:
	#DEBUG_VALUE: crypto_secretstream_xchacha20poly1305_rekey:i <- 0
	.loc	1 91 31 prologue_end            # crypto_secretstream/xchacha20poly1305/secretstream_xchacha20poly1305.c:91:31
	movups	(%rdi), %xmm0
	movups	16(%rdi), %xmm1
	movaps	%xmm1, 16(%rsp)
	movaps	%xmm0, (%rsp)
.Ltmp25:
	#DEBUG_VALUE: crypto_secretstream_xchacha20poly1305_rekey:i <- 0
	.loc	1 94 37                         # crypto_secretstream/xchacha20poly1305/secretstream_xchacha20poly1305.c:94:37
	movq	36(%rdi), %rax
	movq	%rax, 32(%rsp)
.Ltmp26:
	#DEBUG_VALUE: crypto_secretstream_xchacha20poly1305_rekey:i <- undef
	.loc	1 99 44                         # crypto_secretstream/xchacha20poly1305/secretstream_xchacha20poly1305.c:99:44
	leaq	32(%rdi), %rcx
	movq	%rsp, %rdi
.Ltmp27:
	#DEBUG_VALUE: crypto_secretstream_xchacha20poly1305_rekey:state <- $rbx
	.loc	1 97 5                          # crypto_secretstream/xchacha20poly1305/secretstream_xchacha20poly1305.c:97:5
	movl	$40, %edx
	movq	%rdi, %rsi
	movq	%rbx, %r8
	callq	crypto_stream_chacha20_ietf_xor@PLT
.Ltmp28:
	#DEBUG_VALUE: crypto_secretstream_xchacha20poly1305_rekey:i <- 0
	.loc	1 101 21                        # crypto_secretstream/xchacha20poly1305/secretstream_xchacha20poly1305.c:101:21
	movaps	(%rsp), %xmm0
	movaps	16(%rsp), %xmm1
	movups	%xmm0, (%rbx)
	movups	%xmm1, 16(%rbx)
.Ltmp29:
	.loc	1 104 34                        # crypto_secretstream/xchacha20poly1305/secretstream_xchacha20poly1305.c:104:34
	movq	32(%rsp), %rax
	movq	%rax, 36(%rbx)
.Ltmp30:
	#DEBUG_VALUE: crypto_secretstream_xchacha20poly1305_rekey:i <- undef
	#DEBUG_VALUE: _crypto_secretstream_xchacha20poly1305_counter_reset:state <- $rbx
	#DEBUG_VALUE: memset:__dest <- undef
	#DEBUG_VALUE: memset:__ch <- 0
	#DEBUG_VALUE: memset:__len <- 4
	.loc	6 59 10                         # /usr/include/x86_64-linux-gnu/bits/string_fortified.h:59:10 @[ crypto_secretstream/xchacha20poly1305/secretstream_xchacha20poly1305.c:30:5 @[ crypto_secretstream/xchacha20poly1305/secretstream_xchacha20poly1305.c:107:5 ] ]
	movl	$0, 32(%rbx)
.Ltmp31:
	.loc	1 32 25                         # crypto_secretstream/xchacha20poly1305/secretstream_xchacha20poly1305.c:32:25 @[ crypto_secretstream/xchacha20poly1305/secretstream_xchacha20poly1305.c:107:5 ]
	movb	$1, 32(%rbx)
.Ltmp32:
	.loc	1 108 1                         # crypto_secretstream/xchacha20poly1305/secretstream_xchacha20poly1305.c:108:1
	movq	%fs:40, %rax
	cmpq	40(%rsp), %rax
	jne	.LBB3_2
.Ltmp33:
# %bb.1:                                # %SP_return
	#DEBUG_VALUE: crypto_secretstream_xchacha20poly1305_rekey:state <- $rbx
	.loc	1 108 1 epilogue_begin is_stmt 0 # crypto_secretstream/xchacha20poly1305/secretstream_xchacha20poly1305.c:108:1
	addq	$48, %rsp
	.cfi_def_cfa_offset 16
	popq	%rbx
.Ltmp34:
	#DEBUG_VALUE: crypto_secretstream_xchacha20poly1305_rekey:state <- [DW_OP_LLVM_entry_value 1] $rdi
	.cfi_def_cfa_offset 8
	retq
.Ltmp35:
.LBB3_2:                                # %CallStackCheckFailBlk
	.cfi_def_cfa_offset 64
	#DEBUG_VALUE: crypto_secretstream_xchacha20poly1305_rekey:state <- $rbx
	#DEBUG_VALUE: _crypto_secretstream_xchacha20poly1305_counter_reset:state <- $rbx
	#DEBUG_VALUE: memset:__ch <- 0
	#DEBUG_VALUE: memset:__len <- 4
	.loc	1 0 0                           # crypto_secretstream/xchacha20poly1305/secretstream_xchacha20poly1305.c:0
	callq	__stack_chk_fail@PLT
.Ltmp36:
.Lfunc_end3:
	.size	crypto_secretstream_xchacha20poly1305_rekey, .Lfunc_end3-crypto_secretstream_xchacha20poly1305_rekey
	.cfi_endproc
	.file	9 "./include/sodium" "crypto_stream_chacha20.h"
                                        # -- End function
	.globl	crypto_secretstream_xchacha20poly1305_push # -- Begin function crypto_secretstream_xchacha20poly1305_push
	.p2align	4
	.type	crypto_secretstream_xchacha20poly1305_push,@function
crypto_secretstream_xchacha20poly1305_push: # @crypto_secretstream_xchacha20poly1305_push
.Lfunc_begin4:
	.loc	1 116 0 is_stmt 1               # crypto_secretstream/xchacha20poly1305/secretstream_xchacha20poly1305.c:116:0
	.cfi_startproc
# %bb.0:
	#DEBUG_VALUE: crypto_secretstream_xchacha20poly1305_push:state <- $rdi
	#DEBUG_VALUE: crypto_secretstream_xchacha20poly1305_push:out <- $rsi
	#DEBUG_VALUE: crypto_secretstream_xchacha20poly1305_push:outlen_p <- $rdx
	#DEBUG_VALUE: crypto_secretstream_xchacha20poly1305_push:m <- $rcx
	#DEBUG_VALUE: crypto_secretstream_xchacha20poly1305_push:mlen <- $r8
	#DEBUG_VALUE: crypto_secretstream_xchacha20poly1305_push:ad <- $r9
	pushq	%rbp
	.cfi_def_cfa_offset 16
	pushq	%r15
	.cfi_def_cfa_offset 24
	pushq	%r14
	.cfi_def_cfa_offset 32
	pushq	%r13
	.cfi_def_cfa_offset 40
	pushq	%r12
	.cfi_def_cfa_offset 48
	pushq	%rbx
	.cfi_def_cfa_offset 56
	subq	$424, %rsp                      # imm = 0x1A8
	.cfi_def_cfa_offset 480
	.cfi_offset %rbx, -56
	.cfi_offset %r12, -48
	.cfi_offset %r13, -40
	.cfi_offset %r14, -32
	.cfi_offset %r15, -24
	.cfi_offset %rbp, -16
.Ltmp37:
	#DEBUG_VALUE: crypto_secretstream_xchacha20poly1305_push:adlen <- [DW_OP_plus_uconst 480] [$rsp+0]
	#DEBUG_VALUE: crypto_secretstream_xchacha20poly1305_push:tag <- [DW_OP_plus_uconst 488] [$rsp+0]
	movq	%r9, 16(%rsp)                   # 8-byte Spill
.Ltmp38:
	#DEBUG_VALUE: crypto_secretstream_xchacha20poly1305_push:ad <- [DW_OP_plus_uconst 16] [$rsp+0]
	movq	%r8, %rbx
	movq	%rcx, 24(%rsp)                  # 8-byte Spill
.Ltmp39:
	#DEBUG_VALUE: crypto_secretstream_xchacha20poly1305_push:m <- [DW_OP_plus_uconst 24] [$rsp+0]
	movq	%rsi, %r13
	movq	%rdi, %r15
	movq	%fs:40, %rax
	movq	%rax, 416(%rsp)
.Ltmp40:
	.loc	1 123 18 prologue_end           # crypto_secretstream/xchacha20poly1305/secretstream_xchacha20poly1305.c:123:18
	testq	%rdx, %rdx
	je	.LBB4_2
.Ltmp41:
# %bb.1:
	#DEBUG_VALUE: crypto_secretstream_xchacha20poly1305_push:state <- $r15
	#DEBUG_VALUE: crypto_secretstream_xchacha20poly1305_push:out <- $r13
	#DEBUG_VALUE: crypto_secretstream_xchacha20poly1305_push:outlen_p <- $rdx
	#DEBUG_VALUE: crypto_secretstream_xchacha20poly1305_push:m <- [DW_OP_plus_uconst 24] [$rsp+0]
	#DEBUG_VALUE: crypto_secretstream_xchacha20poly1305_push:mlen <- $rbx
	#DEBUG_VALUE: crypto_secretstream_xchacha20poly1305_push:ad <- [DW_OP_plus_uconst 16] [$rsp+0]
	#DEBUG_VALUE: crypto_secretstream_xchacha20poly1305_push:adlen <- [DW_OP_plus_uconst 480] [$rsp+0]
	#DEBUG_VALUE: crypto_secretstream_xchacha20poly1305_push:tag <- [DW_OP_plus_uconst 488] [$rsp+0]
	.loc	1 124 19                        # crypto_secretstream/xchacha20poly1305/secretstream_xchacha20poly1305.c:124:19
	movq	$0, (%rdx)
.Ltmp42:
.LBB4_2:
	#DEBUG_VALUE: crypto_secretstream_xchacha20poly1305_push:state <- $r15
	#DEBUG_VALUE: crypto_secretstream_xchacha20poly1305_push:out <- $r13
	#DEBUG_VALUE: crypto_secretstream_xchacha20poly1305_push:outlen_p <- $rdx
	#DEBUG_VALUE: crypto_secretstream_xchacha20poly1305_push:m <- [DW_OP_plus_uconst 24] [$rsp+0]
	#DEBUG_VALUE: crypto_secretstream_xchacha20poly1305_push:mlen <- $rbx
	#DEBUG_VALUE: crypto_secretstream_xchacha20poly1305_push:ad <- [DW_OP_plus_uconst 16] [$rsp+0]
	#DEBUG_VALUE: crypto_secretstream_xchacha20poly1305_push:adlen <- [DW_OP_plus_uconst 480] [$rsp+0]
	#DEBUG_VALUE: crypto_secretstream_xchacha20poly1305_push:tag <- [DW_OP_plus_uconst 488] [$rsp+0]
	.loc	1 0 19 is_stmt 0                # crypto_secretstream/xchacha20poly1305/secretstream_xchacha20poly1305.c:0:19
	movq	%rdx, 32(%rsp)                  # 8-byte Spill
.Ltmp43:
	#DEBUG_VALUE: crypto_secretstream_xchacha20poly1305_push:outlen_p <- [DW_OP_plus_uconst 32] [$rsp+0]
	movabsq	$274877906817, %rax             # imm = 0x3FFFFFFF81
.Ltmp44:
	.loc	1 128 14 is_stmt 1              # crypto_secretstream/xchacha20poly1305/secretstream_xchacha20poly1305.c:128:14
	cmpq	%rax, %rbx
	jae	.LBB4_10
.Ltmp45:
# %bb.3:
	#DEBUG_VALUE: crypto_secretstream_xchacha20poly1305_push:state <- $r15
	#DEBUG_VALUE: crypto_secretstream_xchacha20poly1305_push:out <- $r13
	#DEBUG_VALUE: crypto_secretstream_xchacha20poly1305_push:outlen_p <- [DW_OP_plus_uconst 32] [$rsp+0]
	#DEBUG_VALUE: crypto_secretstream_xchacha20poly1305_push:m <- [DW_OP_plus_uconst 24] [$rsp+0]
	#DEBUG_VALUE: crypto_secretstream_xchacha20poly1305_push:mlen <- $rbx
	#DEBUG_VALUE: crypto_secretstream_xchacha20poly1305_push:ad <- [DW_OP_plus_uconst 16] [$rsp+0]
	#DEBUG_VALUE: crypto_secretstream_xchacha20poly1305_push:adlen <- [DW_OP_plus_uconst 480] [$rsp+0]
	#DEBUG_VALUE: crypto_secretstream_xchacha20poly1305_push:tag <- [DW_OP_plus_uconst 488] [$rsp+0]
	.loc	1 0 14 is_stmt 0                # crypto_secretstream/xchacha20poly1305/secretstream_xchacha20poly1305.c:0:14
	movq	480(%rsp), %r12
	.loc	1 131 61 is_stmt 1              # crypto_secretstream/xchacha20poly1305/secretstream_xchacha20poly1305.c:131:61
	leaq	32(%r15), %rdx
	movq	%rdx, 8(%rsp)                   # 8-byte Spill
	leaq	48(%rsp), %r14
	.loc	1 131 5 is_stmt 0               # crypto_secretstream/xchacha20poly1305/secretstream_xchacha20poly1305.c:131:5
	movl	$64, %esi
	movq	%r14, %rdi
	movq	%r15, %rcx
	callq	crypto_stream_chacha20_ietf@PLT
.Ltmp46:
	.loc	1 0 5                           # crypto_secretstream/xchacha20poly1305/secretstream_xchacha20poly1305.c:0:5
	leaq	112(%rsp), %rbp
	.loc	1 132 5 is_stmt 1               # crypto_secretstream/xchacha20poly1305/secretstream_xchacha20poly1305.c:132:5
	movq	%rbp, %rdi
	movq	%r14, %rsi
	callq	crypto_onetimeauth_poly1305_init@PLT
.Ltmp47:
	.loc	1 133 5                         # crypto_secretstream/xchacha20poly1305/secretstream_xchacha20poly1305.c:133:5
	movl	$64, %esi
	movq	%r14, %rdi
	callq	sodium_memzero@PLT
.Ltmp48:
	.loc	1 135 5                         # crypto_secretstream/xchacha20poly1305/secretstream_xchacha20poly1305.c:135:5
	movq	%rbp, %rdi
	movq	16(%rsp), %rsi                  # 8-byte Reload
	movq	%r12, %rdx
	callq	crypto_onetimeauth_poly1305_update@PLT
.Ltmp49:
	.loc	1 137 46                        # crypto_secretstream/xchacha20poly1305/secretstream_xchacha20poly1305.c:137:46
	movl	%r12d, %edx
	negl	%edx
	.loc	1 137 55 is_stmt 0              # crypto_secretstream/xchacha20poly1305/secretstream_xchacha20poly1305.c:137:55
	andl	$15, %edx
	.loc	1 136 5 is_stmt 1               # crypto_secretstream/xchacha20poly1305/secretstream_xchacha20poly1305.c:136:5
	leaq	_pad0(%rip), %rsi
	movq	%rbp, %rdi
	callq	crypto_onetimeauth_poly1305_update@PLT
.Ltmp50:
	#DEBUG_VALUE: memset:__dest <- [DW_OP_plus_uconst 48, DW_OP_stack_value] $rsp
	#DEBUG_VALUE: memset:__ch <- 0
	#DEBUG_VALUE: memset:__len <- 64
	.loc	6 59 10                         # /usr/include/x86_64-linux-gnu/bits/string_fortified.h:59:10 @[ crypto_secretstream/xchacha20poly1305/secretstream_xchacha20poly1305.c:138:5 ]
	xorps	%xmm0, %xmm0
	movaps	%xmm0, 48(%rsp)
	movaps	%xmm0, 64(%rsp)
	movaps	%xmm0, 80(%rsp)
	movaps	%xmm0, 96(%rsp)
.Ltmp51:
	.loc	1 139 14                        # crypto_secretstream/xchacha20poly1305/secretstream_xchacha20poly1305.c:139:14
	movzbl	488(%rsp), %eax
	movb	%al, 48(%rsp)
	.loc	1 141 5                         # crypto_secretstream/xchacha20poly1305/secretstream_xchacha20poly1305.c:141:5
	movl	$64, %edx
	movq	%r14, %rdi
	movq	%r14, %rsi
	movq	8(%rsp), %r12                   # 8-byte Reload
	movq	%r12, %rcx
	movl	$1, %r8d
	movq	%r15, %r9
	callq	crypto_stream_chacha20_ietf_xor_ic@PLT
.Ltmp52:
	.loc	1 143 5                         # crypto_secretstream/xchacha20poly1305/secretstream_xchacha20poly1305.c:143:5
	movl	$64, %edx
	movq	%rbp, %rdi
	movq	%r14, %rsi
	callq	crypto_onetimeauth_poly1305_update@PLT
.Ltmp53:
	.loc	1 144 14                        # crypto_secretstream/xchacha20poly1305/secretstream_xchacha20poly1305.c:144:14
	movzbl	48(%rsp), %eax
	.loc	1 144 12 is_stmt 0              # crypto_secretstream/xchacha20poly1305/secretstream_xchacha20poly1305.c:144:12
	movb	%al, (%r13)
	.loc	1 146 13 is_stmt 1              # crypto_secretstream/xchacha20poly1305/secretstream_xchacha20poly1305.c:146:13
	leaq	1(%r13), %r14
.Ltmp54:
	#DEBUG_VALUE: crypto_secretstream_xchacha20poly1305_push:c <- $r14
	.loc	1 147 5                         # crypto_secretstream/xchacha20poly1305/secretstream_xchacha20poly1305.c:147:5
	movq	%r14, %rdi
	movq	24(%rsp), %rsi                  # 8-byte Reload
	movq	%rbx, %rdx
	movq	%r12, %rcx
	movl	$2, %r8d
	movq	%r15, %r9
	callq	crypto_stream_chacha20_ietf_xor_ic@PLT
.Ltmp55:
	.loc	1 148 5                         # crypto_secretstream/xchacha20poly1305/secretstream_xchacha20poly1305.c:148:5
	movq	%rbp, %rdi
	movq	%r14, %rsi
	movq	%rbx, %rdx
	callq	crypto_onetimeauth_poly1305_update@PLT
.Ltmp56:
	.loc	1 150 65                        # crypto_secretstream/xchacha20poly1305/secretstream_xchacha20poly1305.c:150:65
	movl	%ebx, %edx
	andl	$15, %edx
	.loc	1 149 5                         # crypto_secretstream/xchacha20poly1305/secretstream_xchacha20poly1305.c:149:5
	movq	%rbp, %rdi
	leaq	_pad0(%rip), %rsi
	callq	crypto_onetimeauth_poly1305_update@PLT
.Ltmp57:
	#DEBUG_VALUE: store64_le:dst <- [DW_OP_plus_uconst 40, DW_OP_stack_value] $rsp
	#DEBUG_VALUE: store64_le:w <- undef
	#DEBUG_VALUE: memcpy:__dest <- [DW_OP_plus_uconst 40, DW_OP_stack_value] $rsp
	#DEBUG_VALUE: memcpy:__src <- undef
	#DEBUG_VALUE: memcpy:__len <- 8
	.loc	6 29 10                         # /usr/include/x86_64-linux-gnu/bits/string_fortified.h:29:10 @[ ./include/sodium/private/common.h:87:5 @[ crypto_secretstream/xchacha20poly1305/secretstream_xchacha20poly1305.c:152:5 ] ]
	movq	480(%rsp), %rax
	movq	%rax, 40(%rsp)
	leaq	40(%rsp), %r14
.Ltmp58:
	.loc	1 153 5                         # crypto_secretstream/xchacha20poly1305/secretstream_xchacha20poly1305.c:153:5
	movl	$8, %edx
	movq	%rbp, %rdi
	movq	%r14, %rsi
	callq	crypto_onetimeauth_poly1305_update@PLT
.Ltmp59:
	.loc	1 154 40                        # crypto_secretstream/xchacha20poly1305/secretstream_xchacha20poly1305.c:154:40
	leaq	64(%rbx), %rax
.Ltmp60:
	#DEBUG_VALUE: store64_le:dst <- [DW_OP_plus_uconst 40, DW_OP_stack_value] $rsp
	#DEBUG_VALUE: store64_le:w <- undef
	#DEBUG_VALUE: memcpy:__dest <- [DW_OP_plus_uconst 40, DW_OP_stack_value] $rsp
	#DEBUG_VALUE: memcpy:__src <- undef
	#DEBUG_VALUE: memcpy:__len <- 8
	.loc	6 29 10                         # /usr/include/x86_64-linux-gnu/bits/string_fortified.h:29:10 @[ ./include/sodium/private/common.h:87:5 @[ crypto_secretstream/xchacha20poly1305/secretstream_xchacha20poly1305.c:154:5 ] ]
	movq	%rax, 40(%rsp)
.Ltmp61:
	.loc	1 155 5                         # crypto_secretstream/xchacha20poly1305/secretstream_xchacha20poly1305.c:155:5
	movl	$8, %edx
	movq	%rbp, %rdi
	movq	%r14, %rsi
	callq	crypto_onetimeauth_poly1305_update@PLT
.Ltmp62:
	.loc	1 157 13                        # crypto_secretstream/xchacha20poly1305/secretstream_xchacha20poly1305.c:157:13
	leaq	(%rbx,%r13), %rsi
	incq	%rsi
.Ltmp63:
	#DEBUG_VALUE: crypto_secretstream_xchacha20poly1305_push:mac <- $rsi
	.loc	1 158 5                         # crypto_secretstream/xchacha20poly1305/secretstream_xchacha20poly1305.c:158:5
	movq	%rbp, %rdi
	callq	crypto_onetimeauth_poly1305_final@PLT
.Ltmp64:
	.loc	1 159 5                         # crypto_secretstream/xchacha20poly1305/secretstream_xchacha20poly1305.c:159:5
	movl	$256, %esi                      # imm = 0x100
	movq	%rbp, %rdi
	callq	sodium_memzero@PLT
.Ltmp65:
	#DEBUG_VALUE: xor_buf:in <- undef
	#DEBUG_VALUE: xor_buf:n <- 8
	#DEBUG_VALUE: xor_buf:i <- 0
	#DEBUG_VALUE: xor_buf:out <- [DW_OP_plus_uconst 36, DW_OP_stack_value] $r15
	.file	10 "./include/sodium/private" "common.h"
	.loc	10 210 19                       # ./include/sodium/private/common.h:210:19 @[ crypto_secretstream/xchacha20poly1305/secretstream_xchacha20poly1305.c:163:5 ]
	movzbl	1(%r13,%rbx), %eax
	.loc	10 210 16 is_stmt 0             # ./include/sodium/private/common.h:210:16 @[ crypto_secretstream/xchacha20poly1305/secretstream_xchacha20poly1305.c:163:5 ]
	xorb	%al, 36(%r15)
.Ltmp66:
	#DEBUG_VALUE: xor_buf:i <- 1
	.loc	10 210 19                       # ./include/sodium/private/common.h:210:19 @[ crypto_secretstream/xchacha20poly1305/secretstream_xchacha20poly1305.c:163:5 ]
	movzbl	2(%r13,%rbx), %eax
	.loc	10 210 16                       # ./include/sodium/private/common.h:210:16 @[ crypto_secretstream/xchacha20poly1305/secretstream_xchacha20poly1305.c:163:5 ]
	xorb	%al, 37(%r15)
.Ltmp67:
	#DEBUG_VALUE: xor_buf:i <- 2
	.loc	10 210 19                       # ./include/sodium/private/common.h:210:19 @[ crypto_secretstream/xchacha20poly1305/secretstream_xchacha20poly1305.c:163:5 ]
	movzbl	3(%r13,%rbx), %eax
	.loc	10 210 16                       # ./include/sodium/private/common.h:210:16 @[ crypto_secretstream/xchacha20poly1305/secretstream_xchacha20poly1305.c:163:5 ]
	xorb	%al, 38(%r15)
.Ltmp68:
	#DEBUG_VALUE: xor_buf:i <- 3
	.loc	10 210 19                       # ./include/sodium/private/common.h:210:19 @[ crypto_secretstream/xchacha20poly1305/secretstream_xchacha20poly1305.c:163:5 ]
	movzbl	4(%r13,%rbx), %eax
	.loc	10 210 16                       # ./include/sodium/private/common.h:210:16 @[ crypto_secretstream/xchacha20poly1305/secretstream_xchacha20poly1305.c:163:5 ]
	xorb	%al, 39(%r15)
.Ltmp69:
	#DEBUG_VALUE: xor_buf:i <- 4
	.loc	10 210 19                       # ./include/sodium/private/common.h:210:19 @[ crypto_secretstream/xchacha20poly1305/secretstream_xchacha20poly1305.c:163:5 ]
	movzbl	5(%r13,%rbx), %eax
	.loc	10 210 16                       # ./include/sodium/private/common.h:210:16 @[ crypto_secretstream/xchacha20poly1305/secretstream_xchacha20poly1305.c:163:5 ]
	xorb	%al, 40(%r15)
.Ltmp70:
	#DEBUG_VALUE: xor_buf:i <- 5
	.loc	10 210 19                       # ./include/sodium/private/common.h:210:19 @[ crypto_secretstream/xchacha20poly1305/secretstream_xchacha20poly1305.c:163:5 ]
	movzbl	6(%r13,%rbx), %eax
	.loc	10 210 16                       # ./include/sodium/private/common.h:210:16 @[ crypto_secretstream/xchacha20poly1305/secretstream_xchacha20poly1305.c:163:5 ]
	xorb	%al, 41(%r15)
.Ltmp71:
	#DEBUG_VALUE: xor_buf:i <- 6
	.loc	10 210 19                       # ./include/sodium/private/common.h:210:19 @[ crypto_secretstream/xchacha20poly1305/secretstream_xchacha20poly1305.c:163:5 ]
	movzbl	7(%r13,%rbx), %eax
	.loc	10 210 16                       # ./include/sodium/private/common.h:210:16 @[ crypto_secretstream/xchacha20poly1305/secretstream_xchacha20poly1305.c:163:5 ]
	xorb	%al, 42(%r15)
.Ltmp72:
	#DEBUG_VALUE: xor_buf:i <- 7
	.loc	10 210 19                       # ./include/sodium/private/common.h:210:19 @[ crypto_secretstream/xchacha20poly1305/secretstream_xchacha20poly1305.c:163:5 ]
	movzbl	8(%r13,%rbx), %eax
	.loc	10 210 16                       # ./include/sodium/private/common.h:210:16 @[ crypto_secretstream/xchacha20poly1305/secretstream_xchacha20poly1305.c:163:5 ]
	xorb	%al, 43(%r15)
.Ltmp73:
	#DEBUG_VALUE: xor_buf:i <- 8
	.loc	1 165 5 is_stmt 1               # crypto_secretstream/xchacha20poly1305/secretstream_xchacha20poly1305.c:165:5
	movl	$4, %esi
	movq	%r12, %rdi
	callq	sodium_increment@PLT
.Ltmp74:
	.loc	1 167 22                        # crypto_secretstream/xchacha20poly1305/secretstream_xchacha20poly1305.c:167:22
	testb	$2, 488(%rsp)
	.loc	1 167 27 is_stmt 0              # crypto_secretstream/xchacha20poly1305/secretstream_xchacha20poly1305.c:167:27
	jne	.LBB4_5
.Ltmp75:
# %bb.4:
	#DEBUG_VALUE: crypto_secretstream_xchacha20poly1305_push:state <- $r15
	#DEBUG_VALUE: crypto_secretstream_xchacha20poly1305_push:out <- $r13
	#DEBUG_VALUE: crypto_secretstream_xchacha20poly1305_push:outlen_p <- [DW_OP_plus_uconst 32] [$rsp+0]
	#DEBUG_VALUE: crypto_secretstream_xchacha20poly1305_push:m <- [DW_OP_plus_uconst 24] [$rsp+0]
	#DEBUG_VALUE: crypto_secretstream_xchacha20poly1305_push:mlen <- $rbx
	#DEBUG_VALUE: crypto_secretstream_xchacha20poly1305_push:ad <- [DW_OP_plus_uconst 16] [$rsp+0]
	#DEBUG_VALUE: crypto_secretstream_xchacha20poly1305_push:adlen <- [DW_OP_plus_uconst 480] [$rsp+0]
	#DEBUG_VALUE: crypto_secretstream_xchacha20poly1305_push:tag <- [DW_OP_plus_uconst 488] [$rsp+0]
	.loc	1 168 9 is_stmt 1               # crypto_secretstream/xchacha20poly1305/secretstream_xchacha20poly1305.c:168:9
	movl	$4, %esi
	movq	%r12, %rdi
	callq	sodium_is_zero@PLT
.Ltmp76:
	testl	%eax, %eax
	.loc	1 167 27                        # crypto_secretstream/xchacha20poly1305/secretstream_xchacha20poly1305.c:167:27
	je	.LBB4_6
.Ltmp77:
.LBB4_5:
	#DEBUG_VALUE: crypto_secretstream_xchacha20poly1305_push:state <- $r15
	#DEBUG_VALUE: crypto_secretstream_xchacha20poly1305_push:out <- $r13
	#DEBUG_VALUE: crypto_secretstream_xchacha20poly1305_push:outlen_p <- [DW_OP_plus_uconst 32] [$rsp+0]
	#DEBUG_VALUE: crypto_secretstream_xchacha20poly1305_push:m <- [DW_OP_plus_uconst 24] [$rsp+0]
	#DEBUG_VALUE: crypto_secretstream_xchacha20poly1305_push:mlen <- $rbx
	#DEBUG_VALUE: crypto_secretstream_xchacha20poly1305_push:ad <- [DW_OP_plus_uconst 16] [$rsp+0]
	#DEBUG_VALUE: crypto_secretstream_xchacha20poly1305_push:adlen <- [DW_OP_plus_uconst 480] [$rsp+0]
	#DEBUG_VALUE: crypto_secretstream_xchacha20poly1305_push:tag <- [DW_OP_plus_uconst 488] [$rsp+0]
	#DEBUG_VALUE: crypto_secretstream_xchacha20poly1305_rekey:new_key_and_inonce <- [DW_OP_plus_uconst 368, DW_OP_deref] $rsp
	#DEBUG_VALUE: crypto_secretstream_xchacha20poly1305_rekey:state <- $r15
	#DEBUG_VALUE: crypto_secretstream_xchacha20poly1305_rekey:i <- 0
	.loc	1 91 31                         # crypto_secretstream/xchacha20poly1305/secretstream_xchacha20poly1305.c:91:31 @[ crypto_secretstream/xchacha20poly1305/secretstream_xchacha20poly1305.c:170:9 ]
	movups	(%r15), %xmm0
	movups	16(%r15), %xmm1
	movaps	%xmm1, 384(%rsp)
	movaps	%xmm0, 368(%rsp)
.Ltmp78:
	.loc	1 94 37                         # crypto_secretstream/xchacha20poly1305/secretstream_xchacha20poly1305.c:94:37 @[ crypto_secretstream/xchacha20poly1305/secretstream_xchacha20poly1305.c:170:9 ]
	movq	36(%r15), %rax
	movq	%rax, 400(%rsp)
.Ltmp79:
	#DEBUG_VALUE: crypto_secretstream_xchacha20poly1305_rekey:i <- undef
	.loc	1 0 37 is_stmt 0                # crypto_secretstream/xchacha20poly1305/secretstream_xchacha20poly1305.c:0:37
	leaq	368(%rsp), %rdi
.Ltmp80:
	.loc	1 97 5 is_stmt 1                # crypto_secretstream/xchacha20poly1305/secretstream_xchacha20poly1305.c:97:5 @[ crypto_secretstream/xchacha20poly1305/secretstream_xchacha20poly1305.c:170:9 ]
	movl	$40, %edx
	movq	%rdi, %rsi
	movq	%r12, %rcx
	movq	%r15, %r8
	callq	crypto_stream_chacha20_ietf_xor@PLT
.Ltmp81:
	#DEBUG_VALUE: crypto_secretstream_xchacha20poly1305_rekey:i <- 0
	.loc	1 101 21                        # crypto_secretstream/xchacha20poly1305/secretstream_xchacha20poly1305.c:101:21 @[ crypto_secretstream/xchacha20poly1305/secretstream_xchacha20poly1305.c:170:9 ]
	movaps	368(%rsp), %xmm0
	movaps	384(%rsp), %xmm1
	movups	%xmm0, (%r15)
	movups	%xmm1, 16(%r15)
.Ltmp82:
	.loc	1 104 34                        # crypto_secretstream/xchacha20poly1305/secretstream_xchacha20poly1305.c:104:34 @[ crypto_secretstream/xchacha20poly1305/secretstream_xchacha20poly1305.c:170:9 ]
	movq	400(%rsp), %rax
	movq	%rax, 36(%r15)
.Ltmp83:
	#DEBUG_VALUE: crypto_secretstream_xchacha20poly1305_rekey:i <- undef
	#DEBUG_VALUE: _crypto_secretstream_xchacha20poly1305_counter_reset:state <- $r15
	#DEBUG_VALUE: memset:__dest <- [DW_OP_plus_uconst 8, DW_OP_deref] $rsp
	#DEBUG_VALUE: memset:__ch <- 0
	#DEBUG_VALUE: memset:__len <- 4
	.loc	6 59 10                         # /usr/include/x86_64-linux-gnu/bits/string_fortified.h:59:10 @[ crypto_secretstream/xchacha20poly1305/secretstream_xchacha20poly1305.c:30:5 @[ crypto_secretstream/xchacha20poly1305/secretstream_xchacha20poly1305.c:107:5 @[ crypto_secretstream/xchacha20poly1305/secretstream_xchacha20poly1305.c:170:9 ] ] ]
	movl	$0, 32(%r15)
.Ltmp84:
	.loc	1 32 25                         # crypto_secretstream/xchacha20poly1305/secretstream_xchacha20poly1305.c:32:25 @[ crypto_secretstream/xchacha20poly1305/secretstream_xchacha20poly1305.c:107:5 @[ crypto_secretstream/xchacha20poly1305/secretstream_xchacha20poly1305.c:170:9 ] ]
	movb	$1, 32(%r15)
.Ltmp85:
.LBB4_6:
	#DEBUG_VALUE: crypto_secretstream_xchacha20poly1305_push:state <- $r15
	#DEBUG_VALUE: crypto_secretstream_xchacha20poly1305_push:out <- $r13
	#DEBUG_VALUE: crypto_secretstream_xchacha20poly1305_push:outlen_p <- [DW_OP_plus_uconst 32] [$rsp+0]
	#DEBUG_VALUE: crypto_secretstream_xchacha20poly1305_push:m <- [DW_OP_plus_uconst 24] [$rsp+0]
	#DEBUG_VALUE: crypto_secretstream_xchacha20poly1305_push:mlen <- $rbx
	#DEBUG_VALUE: crypto_secretstream_xchacha20poly1305_push:ad <- [DW_OP_plus_uconst 16] [$rsp+0]
	#DEBUG_VALUE: crypto_secretstream_xchacha20poly1305_push:adlen <- [DW_OP_plus_uconst 480] [$rsp+0]
	#DEBUG_VALUE: crypto_secretstream_xchacha20poly1305_push:tag <- [DW_OP_plus_uconst 488] [$rsp+0]
	.loc	1 0 25 is_stmt 0                # crypto_secretstream/xchacha20poly1305/secretstream_xchacha20poly1305.c:0:25
	movq	32(%rsp), %rax                  # 8-byte Reload
.Ltmp86:
	.loc	1 123 18 is_stmt 1              # crypto_secretstream/xchacha20poly1305/secretstream_xchacha20poly1305.c:123:18
	testq	%rax, %rax
.Ltmp87:
	.loc	1 172 18                        # crypto_secretstream/xchacha20poly1305/secretstream_xchacha20poly1305.c:172:18
	je	.LBB4_8
.Ltmp88:
# %bb.7:
	#DEBUG_VALUE: crypto_secretstream_xchacha20poly1305_push:state <- $r15
	#DEBUG_VALUE: crypto_secretstream_xchacha20poly1305_push:out <- $r13
	#DEBUG_VALUE: crypto_secretstream_xchacha20poly1305_push:outlen_p <- [DW_OP_plus_uconst 32] [$rsp+0]
	#DEBUG_VALUE: crypto_secretstream_xchacha20poly1305_push:m <- [DW_OP_plus_uconst 24] [$rsp+0]
	#DEBUG_VALUE: crypto_secretstream_xchacha20poly1305_push:mlen <- $rbx
	#DEBUG_VALUE: crypto_secretstream_xchacha20poly1305_push:ad <- [DW_OP_plus_uconst 16] [$rsp+0]
	#DEBUG_VALUE: crypto_secretstream_xchacha20poly1305_push:adlen <- [DW_OP_plus_uconst 480] [$rsp+0]
	#DEBUG_VALUE: crypto_secretstream_xchacha20poly1305_push:tag <- [DW_OP_plus_uconst 488] [$rsp+0]
	.loc	1 173 32                        # crypto_secretstream/xchacha20poly1305/secretstream_xchacha20poly1305.c:173:32
	addq	$17, %rbx
.Ltmp89:
	#DEBUG_VALUE: crypto_secretstream_xchacha20poly1305_push:mlen <- [DW_OP_LLVM_entry_value 1] $r8
	.loc	1 173 19 is_stmt 0              # crypto_secretstream/xchacha20poly1305/secretstream_xchacha20poly1305.c:173:19
	movq	%rbx, (%rax)
.Ltmp90:
.LBB4_8:
	#DEBUG_VALUE: crypto_secretstream_xchacha20poly1305_push:state <- $r15
	#DEBUG_VALUE: crypto_secretstream_xchacha20poly1305_push:out <- $r13
	#DEBUG_VALUE: crypto_secretstream_xchacha20poly1305_push:outlen_p <- [DW_OP_plus_uconst 32] [$rsp+0]
	#DEBUG_VALUE: crypto_secretstream_xchacha20poly1305_push:m <- [DW_OP_plus_uconst 24] [$rsp+0]
	#DEBUG_VALUE: crypto_secretstream_xchacha20poly1305_push:mlen <- [DW_OP_LLVM_entry_value 1] $r8
	#DEBUG_VALUE: crypto_secretstream_xchacha20poly1305_push:ad <- [DW_OP_plus_uconst 16] [$rsp+0]
	#DEBUG_VALUE: crypto_secretstream_xchacha20poly1305_push:adlen <- [DW_OP_plus_uconst 480] [$rsp+0]
	#DEBUG_VALUE: crypto_secretstream_xchacha20poly1305_push:tag <- [DW_OP_plus_uconst 488] [$rsp+0]
	.loc	1 175 5 is_stmt 1               # crypto_secretstream/xchacha20poly1305/secretstream_xchacha20poly1305.c:175:5
	movq	%fs:40, %rax
	cmpq	416(%rsp), %rax
	jne	.LBB4_9
.Ltmp91:
# %bb.11:                               # %SP_return
	#DEBUG_VALUE: crypto_secretstream_xchacha20poly1305_push:state <- $r15
	#DEBUG_VALUE: crypto_secretstream_xchacha20poly1305_push:out <- $r13
	#DEBUG_VALUE: crypto_secretstream_xchacha20poly1305_push:outlen_p <- [DW_OP_plus_uconst 32] [$rsp+0]
	#DEBUG_VALUE: crypto_secretstream_xchacha20poly1305_push:m <- [DW_OP_plus_uconst 24] [$rsp+0]
	#DEBUG_VALUE: crypto_secretstream_xchacha20poly1305_push:mlen <- [DW_OP_LLVM_entry_value 1] $r8
	#DEBUG_VALUE: crypto_secretstream_xchacha20poly1305_push:ad <- [DW_OP_plus_uconst 16] [$rsp+0]
	#DEBUG_VALUE: crypto_secretstream_xchacha20poly1305_push:adlen <- [DW_OP_plus_uconst 480] [$rsp+0]
	#DEBUG_VALUE: crypto_secretstream_xchacha20poly1305_push:tag <- [DW_OP_plus_uconst 488] [$rsp+0]
	xorl	%eax, %eax
	.loc	1 175 5 epilogue_begin is_stmt 0 # crypto_secretstream/xchacha20poly1305/secretstream_xchacha20poly1305.c:175:5
	addq	$424, %rsp                      # imm = 0x1A8
	.cfi_def_cfa_offset 56
	popq	%rbx
	.cfi_def_cfa_offset 48
	popq	%r12
	.cfi_def_cfa_offset 40
	popq	%r13
.Ltmp92:
	#DEBUG_VALUE: crypto_secretstream_xchacha20poly1305_push:out <- [DW_OP_LLVM_entry_value 1] $rsi
	.cfi_def_cfa_offset 32
	popq	%r14
	.cfi_def_cfa_offset 24
	popq	%r15
.Ltmp93:
	#DEBUG_VALUE: crypto_secretstream_xchacha20poly1305_push:state <- [DW_OP_LLVM_entry_value 1] $rdi
	.cfi_def_cfa_offset 16
	popq	%rbp
	.cfi_def_cfa_offset 8
	retq
.Ltmp94:
.LBB4_10:
	.cfi_def_cfa_offset 480
	#DEBUG_VALUE: crypto_secretstream_xchacha20poly1305_push:state <- $r15
	#DEBUG_VALUE: crypto_secretstream_xchacha20poly1305_push:out <- $r13
	#DEBUG_VALUE: crypto_secretstream_xchacha20poly1305_push:outlen_p <- [DW_OP_plus_uconst 32] [$rsp+0]
	#DEBUG_VALUE: crypto_secretstream_xchacha20poly1305_push:m <- [DW_OP_plus_uconst 24] [$rsp+0]
	#DEBUG_VALUE: crypto_secretstream_xchacha20poly1305_push:mlen <- $rbx
	#DEBUG_VALUE: crypto_secretstream_xchacha20poly1305_push:ad <- [DW_OP_plus_uconst 16] [$rsp+0]
	#DEBUG_VALUE: crypto_secretstream_xchacha20poly1305_push:adlen <- [DW_OP_plus_uconst 480] [$rsp+0]
	#DEBUG_VALUE: crypto_secretstream_xchacha20poly1305_push:tag <- [DW_OP_plus_uconst 488] [$rsp+0]
	.loc	1 129 9 is_stmt 1               # crypto_secretstream/xchacha20poly1305/secretstream_xchacha20poly1305.c:129:9
	callq	sodium_misuse@PLT
.Ltmp95:
.LBB4_9:                                # %CallStackCheckFailBlk
	#DEBUG_VALUE: crypto_secretstream_xchacha20poly1305_push:state <- $r15
	#DEBUG_VALUE: crypto_secretstream_xchacha20poly1305_push:out <- $r13
	#DEBUG_VALUE: crypto_secretstream_xchacha20poly1305_push:outlen_p <- [DW_OP_plus_uconst 32] [$rsp+0]
	#DEBUG_VALUE: crypto_secretstream_xchacha20poly1305_push:m <- [DW_OP_plus_uconst 24] [$rsp+0]
	#DEBUG_VALUE: crypto_secretstream_xchacha20poly1305_push:mlen <- [DW_OP_LLVM_entry_value 1] $r8
	#DEBUG_VALUE: crypto_secretstream_xchacha20poly1305_push:ad <- [DW_OP_plus_uconst 16] [$rsp+0]
	#DEBUG_VALUE: crypto_secretstream_xchacha20poly1305_push:adlen <- [DW_OP_plus_uconst 480] [$rsp+0]
	#DEBUG_VALUE: crypto_secretstream_xchacha20poly1305_push:tag <- [DW_OP_plus_uconst 488] [$rsp+0]
	.loc	1 0 0 is_stmt 0                 # crypto_secretstream/xchacha20poly1305/secretstream_xchacha20poly1305.c:0
	callq	__stack_chk_fail@PLT
.Ltmp96:
.Lfunc_end4:
	.size	crypto_secretstream_xchacha20poly1305_push, .Lfunc_end4-crypto_secretstream_xchacha20poly1305_push
	.cfi_endproc
	.file	11 "./include/sodium" "crypto_onetimeauth_poly1305.h"
	.file	12 "./include/sodium" "utils.h"
	.file	13 "./include/sodium" "core.h"
                                        # -- End function
	.globl	crypto_secretstream_xchacha20poly1305_pull # -- Begin function crypto_secretstream_xchacha20poly1305_pull
	.p2align	4
	.type	crypto_secretstream_xchacha20poly1305_pull,@function
crypto_secretstream_xchacha20poly1305_pull: # @crypto_secretstream_xchacha20poly1305_pull
.Lfunc_begin5:
	.loc	1 184 0 is_stmt 1               # crypto_secretstream/xchacha20poly1305/secretstream_xchacha20poly1305.c:184:0
	.cfi_startproc
# %bb.0:
	#DEBUG_VALUE: crypto_secretstream_xchacha20poly1305_pull:state <- $rdi
	#DEBUG_VALUE: crypto_secretstream_xchacha20poly1305_pull:m <- $rsi
	#DEBUG_VALUE: crypto_secretstream_xchacha20poly1305_pull:mlen_p <- $rdx
	#DEBUG_VALUE: crypto_secretstream_xchacha20poly1305_pull:tag_p <- $rcx
	#DEBUG_VALUE: crypto_secretstream_xchacha20poly1305_pull:in <- $r8
	#DEBUG_VALUE: crypto_secretstream_xchacha20poly1305_pull:inlen <- $r9
	pushq	%rbp
	.cfi_def_cfa_offset 16
	pushq	%r15
	.cfi_def_cfa_offset 24
	pushq	%r14
	.cfi_def_cfa_offset 32
	pushq	%r13
	.cfi_def_cfa_offset 40
	pushq	%r12
	.cfi_def_cfa_offset 48
	pushq	%rbx
	.cfi_def_cfa_offset 56
	subq	$472, %rsp                      # imm = 0x1D8
	.cfi_def_cfa_offset 528
	.cfi_offset %rbx, -56
	.cfi_offset %r12, -48
	.cfi_offset %r13, -40
	.cfi_offset %r14, -32
	.cfi_offset %r15, -24
	.cfi_offset %rbp, -16
.Ltmp97:
	#DEBUG_VALUE: crypto_secretstream_xchacha20poly1305_pull:ad <- [DW_OP_plus_uconst 528] [$rsp+0]
	#DEBUG_VALUE: crypto_secretstream_xchacha20poly1305_pull:adlen <- [DW_OP_plus_uconst 536] [$rsp+0]
	movq	%r9, %r13
	movq	%fs:40, %rax
	movq	%rax, 464(%rsp)
.Ltmp98:
	.loc	1 194 16 prologue_end           # crypto_secretstream/xchacha20poly1305/secretstream_xchacha20poly1305.c:194:16
	testq	%rdx, %rdx
	je	.LBB5_2
.Ltmp99:
# %bb.1:
	#DEBUG_VALUE: crypto_secretstream_xchacha20poly1305_pull:state <- $rdi
	#DEBUG_VALUE: crypto_secretstream_xchacha20poly1305_pull:m <- $rsi
	#DEBUG_VALUE: crypto_secretstream_xchacha20poly1305_pull:mlen_p <- $rdx
	#DEBUG_VALUE: crypto_secretstream_xchacha20poly1305_pull:tag_p <- $rcx
	#DEBUG_VALUE: crypto_secretstream_xchacha20poly1305_pull:in <- $r8
	#DEBUG_VALUE: crypto_secretstream_xchacha20poly1305_pull:inlen <- $r13
	#DEBUG_VALUE: crypto_secretstream_xchacha20poly1305_pull:ad <- [DW_OP_plus_uconst 528] [$rsp+0]
	#DEBUG_VALUE: crypto_secretstream_xchacha20poly1305_pull:adlen <- [DW_OP_plus_uconst 536] [$rsp+0]
	.loc	1 195 17                        # crypto_secretstream/xchacha20poly1305/secretstream_xchacha20poly1305.c:195:17
	movq	$0, (%rdx)
.Ltmp100:
.LBB5_2:
	#DEBUG_VALUE: crypto_secretstream_xchacha20poly1305_pull:state <- $rdi
	#DEBUG_VALUE: crypto_secretstream_xchacha20poly1305_pull:m <- $rsi
	#DEBUG_VALUE: crypto_secretstream_xchacha20poly1305_pull:mlen_p <- $rdx
	#DEBUG_VALUE: crypto_secretstream_xchacha20poly1305_pull:tag_p <- $rcx
	#DEBUG_VALUE: crypto_secretstream_xchacha20poly1305_pull:in <- $r8
	#DEBUG_VALUE: crypto_secretstream_xchacha20poly1305_pull:inlen <- $r13
	#DEBUG_VALUE: crypto_secretstream_xchacha20poly1305_pull:ad <- [DW_OP_plus_uconst 528] [$rsp+0]
	#DEBUG_VALUE: crypto_secretstream_xchacha20poly1305_pull:adlen <- [DW_OP_plus_uconst 536] [$rsp+0]
	.loc	1 197 15                        # crypto_secretstream/xchacha20poly1305/secretstream_xchacha20poly1305.c:197:15
	testq	%rcx, %rcx
	je	.LBB5_4
.Ltmp101:
# %bb.3:
	#DEBUG_VALUE: crypto_secretstream_xchacha20poly1305_pull:state <- $rdi
	#DEBUG_VALUE: crypto_secretstream_xchacha20poly1305_pull:m <- $rsi
	#DEBUG_VALUE: crypto_secretstream_xchacha20poly1305_pull:mlen_p <- $rdx
	#DEBUG_VALUE: crypto_secretstream_xchacha20poly1305_pull:tag_p <- $rcx
	#DEBUG_VALUE: crypto_secretstream_xchacha20poly1305_pull:in <- $r8
	#DEBUG_VALUE: crypto_secretstream_xchacha20poly1305_pull:inlen <- $r13
	#DEBUG_VALUE: crypto_secretstream_xchacha20poly1305_pull:ad <- [DW_OP_plus_uconst 528] [$rsp+0]
	#DEBUG_VALUE: crypto_secretstream_xchacha20poly1305_pull:adlen <- [DW_OP_plus_uconst 536] [$rsp+0]
	.loc	1 198 16                        # crypto_secretstream/xchacha20poly1305/secretstream_xchacha20poly1305.c:198:16
	movb	$-1, (%rcx)
.Ltmp102:
.LBB5_4:
	#DEBUG_VALUE: crypto_secretstream_xchacha20poly1305_pull:state <- $rdi
	#DEBUG_VALUE: crypto_secretstream_xchacha20poly1305_pull:m <- $rsi
	#DEBUG_VALUE: crypto_secretstream_xchacha20poly1305_pull:mlen_p <- $rdx
	#DEBUG_VALUE: crypto_secretstream_xchacha20poly1305_pull:tag_p <- $rcx
	#DEBUG_VALUE: crypto_secretstream_xchacha20poly1305_pull:in <- $r8
	#DEBUG_VALUE: crypto_secretstream_xchacha20poly1305_pull:inlen <- $r13
	#DEBUG_VALUE: crypto_secretstream_xchacha20poly1305_pull:ad <- [DW_OP_plus_uconst 528] [$rsp+0]
	#DEBUG_VALUE: crypto_secretstream_xchacha20poly1305_pull:adlen <- [DW_OP_plus_uconst 536] [$rsp+0]
	.loc	1 0 16 is_stmt 0                # crypto_secretstream/xchacha20poly1305/secretstream_xchacha20poly1305.c:0:16
	movl	$-1, %eax
.Ltmp103:
	.loc	1 200 15 is_stmt 1              # crypto_secretstream/xchacha20poly1305/secretstream_xchacha20poly1305.c:200:15
	cmpq	$17, %r13
	jb	.LBB5_15
.Ltmp104:
# %bb.5:
	#DEBUG_VALUE: crypto_secretstream_xchacha20poly1305_pull:state <- $rdi
	#DEBUG_VALUE: crypto_secretstream_xchacha20poly1305_pull:m <- $rsi
	#DEBUG_VALUE: crypto_secretstream_xchacha20poly1305_pull:mlen_p <- $rdx
	#DEBUG_VALUE: crypto_secretstream_xchacha20poly1305_pull:tag_p <- $rcx
	#DEBUG_VALUE: crypto_secretstream_xchacha20poly1305_pull:in <- $r8
	#DEBUG_VALUE: crypto_secretstream_xchacha20poly1305_pull:inlen <- $r13
	#DEBUG_VALUE: crypto_secretstream_xchacha20poly1305_pull:ad <- [DW_OP_plus_uconst 528] [$rsp+0]
	#DEBUG_VALUE: crypto_secretstream_xchacha20poly1305_pull:adlen <- [DW_OP_plus_uconst 536] [$rsp+0]
	.loc	1 0 15 is_stmt 0                # crypto_secretstream/xchacha20poly1305/secretstream_xchacha20poly1305.c:0:15
	movq	%r8, 48(%rsp)                   # 8-byte Spill
.Ltmp105:
	#DEBUG_VALUE: crypto_secretstream_xchacha20poly1305_pull:in <- [DW_OP_plus_uconst 48] [$rsp+0]
	movq	%rsi, 40(%rsp)                  # 8-byte Spill
.Ltmp106:
	#DEBUG_VALUE: crypto_secretstream_xchacha20poly1305_pull:m <- [DW_OP_plus_uconst 40] [$rsp+0]
	movq	%rdx, 24(%rsp)                  # 8-byte Spill
.Ltmp107:
	#DEBUG_VALUE: crypto_secretstream_xchacha20poly1305_pull:mlen_p <- [DW_OP_plus_uconst 24] [$rsp+0]
	movq	%rcx, 32(%rsp)                  # 8-byte Spill
.Ltmp108:
	#DEBUG_VALUE: crypto_secretstream_xchacha20poly1305_pull:tag_p <- [DW_OP_plus_uconst 32] [$rsp+0]
	.loc	1 203 18 is_stmt 1              # crypto_secretstream/xchacha20poly1305/secretstream_xchacha20poly1305.c:203:18
	leaq	-17(%r13), %rcx
.Ltmp109:
	#DEBUG_VALUE: crypto_secretstream_xchacha20poly1305_pull:mlen <- $rcx
	.loc	1 0 18 is_stmt 0                # crypto_secretstream/xchacha20poly1305/secretstream_xchacha20poly1305.c:0:18
	movabsq	$274877906817, %rax             # imm = 0x3FFFFFFF81
	movq	%rcx, 56(%rsp)                  # 8-byte Spill
.Ltmp110:
	#DEBUG_VALUE: crypto_secretstream_xchacha20poly1305_pull:mlen <- [DW_OP_plus_uconst 56, DW_OP_deref] $rsp
	.loc	1 204 14 is_stmt 1              # crypto_secretstream/xchacha20poly1305/secretstream_xchacha20poly1305.c:204:14
	cmpq	%rax, %rcx
	jae	.LBB5_17
.Ltmp111:
# %bb.6:
	#DEBUG_VALUE: crypto_secretstream_xchacha20poly1305_pull:state <- $rdi
	#DEBUG_VALUE: crypto_secretstream_xchacha20poly1305_pull:m <- [DW_OP_plus_uconst 40] [$rsp+0]
	#DEBUG_VALUE: crypto_secretstream_xchacha20poly1305_pull:mlen_p <- [DW_OP_plus_uconst 24] [$rsp+0]
	#DEBUG_VALUE: crypto_secretstream_xchacha20poly1305_pull:tag_p <- [DW_OP_plus_uconst 32] [$rsp+0]
	#DEBUG_VALUE: crypto_secretstream_xchacha20poly1305_pull:in <- [DW_OP_plus_uconst 48] [$rsp+0]
	#DEBUG_VALUE: crypto_secretstream_xchacha20poly1305_pull:inlen <- $r13
	#DEBUG_VALUE: crypto_secretstream_xchacha20poly1305_pull:ad <- [DW_OP_plus_uconst 528] [$rsp+0]
	#DEBUG_VALUE: crypto_secretstream_xchacha20poly1305_pull:adlen <- [DW_OP_plus_uconst 536] [$rsp+0]
	#DEBUG_VALUE: crypto_secretstream_xchacha20poly1305_pull:mlen <- [DW_OP_plus_uconst 56, DW_OP_deref] $rsp
	.loc	1 0 14 is_stmt 0                # crypto_secretstream/xchacha20poly1305/secretstream_xchacha20poly1305.c:0:14
	movq	536(%rsp), %r12
	.loc	1 207 61 is_stmt 1              # crypto_secretstream/xchacha20poly1305/secretstream_xchacha20poly1305.c:207:61
	leaq	32(%rdi), %rbp
	leaq	96(%rsp), %rbx
	.loc	1 207 5 is_stmt 0               # crypto_secretstream/xchacha20poly1305/secretstream_xchacha20poly1305.c:207:5
	movl	$64, %esi
	movq	%rdi, %r14
.Ltmp112:
	#DEBUG_VALUE: crypto_secretstream_xchacha20poly1305_pull:state <- $r14
	movq	%rbx, %rdi
	movq	%rbp, %rdx
	movq	%r14, %rcx
	callq	crypto_stream_chacha20_ietf@PLT
.Ltmp113:
	.loc	1 0 5                           # crypto_secretstream/xchacha20poly1305/secretstream_xchacha20poly1305.c:0:5
	leaq	160(%rsp), %r15
	.loc	1 208 5 is_stmt 1               # crypto_secretstream/xchacha20poly1305/secretstream_xchacha20poly1305.c:208:5
	movq	%r15, %rdi
	movq	%rbx, %rsi
	callq	crypto_onetimeauth_poly1305_init@PLT
.Ltmp114:
	.loc	1 209 5                         # crypto_secretstream/xchacha20poly1305/secretstream_xchacha20poly1305.c:209:5
	movl	$64, %esi
	movq	%rbx, %rdi
	callq	sodium_memzero@PLT
.Ltmp115:
	.loc	1 211 5                         # crypto_secretstream/xchacha20poly1305/secretstream_xchacha20poly1305.c:211:5
	movq	%r15, %rdi
	movq	528(%rsp), %rsi
	movq	%r12, %rdx
	callq	crypto_onetimeauth_poly1305_update@PLT
.Ltmp116:
	.loc	1 213 46                        # crypto_secretstream/xchacha20poly1305/secretstream_xchacha20poly1305.c:213:46
	movl	%r12d, %edx
	negl	%edx
	.loc	1 213 55 is_stmt 0              # crypto_secretstream/xchacha20poly1305/secretstream_xchacha20poly1305.c:213:55
	andl	$15, %edx
	.loc	1 212 5 is_stmt 1               # crypto_secretstream/xchacha20poly1305/secretstream_xchacha20poly1305.c:212:5
	leaq	_pad0(%rip), %rsi
	movq	%r15, %rdi
	callq	crypto_onetimeauth_poly1305_update@PLT
.Ltmp117:
	#DEBUG_VALUE: memset:__dest <- [DW_OP_plus_uconst 96, DW_OP_stack_value] $rsp
	#DEBUG_VALUE: memset:__ch <- 0
	#DEBUG_VALUE: memset:__len <- 64
	.loc	6 59 10                         # /usr/include/x86_64-linux-gnu/bits/string_fortified.h:59:10 @[ crypto_secretstream/xchacha20poly1305/secretstream_xchacha20poly1305.c:215:5 ]
	xorps	%xmm0, %xmm0
	movaps	%xmm0, 96(%rsp)
	movaps	%xmm0, 112(%rsp)
	movaps	%xmm0, 128(%rsp)
	movaps	%xmm0, 144(%rsp)
	movq	48(%rsp), %rbx                  # 8-byte Reload
.Ltmp118:
	.loc	1 216 16                        # crypto_secretstream/xchacha20poly1305/secretstream_xchacha20poly1305.c:216:16
	movzbl	(%rbx), %eax
	.loc	1 216 14 is_stmt 0              # crypto_secretstream/xchacha20poly1305/secretstream_xchacha20poly1305.c:216:14
	movb	%al, 96(%rsp)
	.loc	1 217 5 is_stmt 1               # crypto_secretstream/xchacha20poly1305/secretstream_xchacha20poly1305.c:217:5
	movl	$64, %edx
	leaq	96(%rsp), %rdi
	movq	%rdi, %rsi
	movq	%rdi, %r12
	movq	%rbp, 16(%rsp)                  # 8-byte Spill
	movq	%rbp, %rcx
	movl	$1, %r8d
	movq	%r14, 8(%rsp)                   # 8-byte Spill
.Ltmp119:
	#DEBUG_VALUE: crypto_secretstream_xchacha20poly1305_pull:state <- [DW_OP_plus_uconst 8] [$rsp+0]
	movq	%r14, %r9
	callq	crypto_stream_chacha20_ietf_xor_ic@PLT
.Ltmp120:
	.loc	1 219 11                        # crypto_secretstream/xchacha20poly1305/secretstream_xchacha20poly1305.c:219:11
	movzbl	96(%rsp), %eax
.Ltmp121:
	#DEBUG_VALUE: crypto_secretstream_xchacha20poly1305_pull:tag <- $al
	.loc	1 0 11 is_stmt 0                # crypto_secretstream/xchacha20poly1305/secretstream_xchacha20poly1305.c:0:11
	movb	%al, 7(%rsp)                    # 1-byte Spill
.Ltmp122:
	#DEBUG_VALUE: crypto_secretstream_xchacha20poly1305_pull:tag <- [DW_OP_plus_uconst 7, DW_OP_deref] $rsp
	.loc	1 220 16 is_stmt 1              # crypto_secretstream/xchacha20poly1305/secretstream_xchacha20poly1305.c:220:16
	movzbl	(%rbx), %eax
	.loc	1 220 14 is_stmt 0              # crypto_secretstream/xchacha20poly1305/secretstream_xchacha20poly1305.c:220:14
	movb	%al, 96(%rsp)
	.loc	1 221 5 is_stmt 1               # crypto_secretstream/xchacha20poly1305/secretstream_xchacha20poly1305.c:221:5
	movl	$64, %edx
	movq	%r15, %rdi
	movq	%r12, %rsi
	callq	crypto_onetimeauth_poly1305_update@PLT
.Ltmp123:
	.loc	1 223 12                        # crypto_secretstream/xchacha20poly1305/secretstream_xchacha20poly1305.c:223:12
	leaq	1(%rbx), %rsi
.Ltmp124:
	#DEBUG_VALUE: crypto_secretstream_xchacha20poly1305_pull:c <- $rsi
	.loc	1 224 5                         # crypto_secretstream/xchacha20poly1305/secretstream_xchacha20poly1305.c:224:5
	movq	%r15, %rdi
	movq	%rsi, %r12
	movq	56(%rsp), %rbp                  # 8-byte Reload
	movq	%rbp, %rdx
	callq	crypto_onetimeauth_poly1305_update@PLT
.Ltmp125:
	#DEBUG_VALUE: crypto_secretstream_xchacha20poly1305_pull:c <- $r12
	.loc	1 226 57                        # crypto_secretstream/xchacha20poly1305/secretstream_xchacha20poly1305.c:226:57
	leal	-1(%r13), %edx
	.loc	1 226 65 is_stmt 0              # crypto_secretstream/xchacha20poly1305/secretstream_xchacha20poly1305.c:226:65
	andl	$15, %edx
	.loc	1 225 5 is_stmt 1               # crypto_secretstream/xchacha20poly1305/secretstream_xchacha20poly1305.c:225:5
	movq	%r15, %rdi
	leaq	_pad0(%rip), %rsi
	callq	crypto_onetimeauth_poly1305_update@PLT
.Ltmp126:
	#DEBUG_VALUE: store64_le:dst <- [DW_OP_plus_uconst 88, DW_OP_stack_value] $rsp
	#DEBUG_VALUE: store64_le:w <- undef
	#DEBUG_VALUE: memcpy:__dest <- [DW_OP_plus_uconst 88, DW_OP_stack_value] $rsp
	#DEBUG_VALUE: memcpy:__src <- undef
	#DEBUG_VALUE: memcpy:__len <- 8
	.loc	6 29 10                         # /usr/include/x86_64-linux-gnu/bits/string_fortified.h:29:10 @[ ./include/sodium/private/common.h:87:5 @[ crypto_secretstream/xchacha20poly1305/secretstream_xchacha20poly1305.c:228:5 ] ]
	movq	536(%rsp), %rax
	movq	%rax, 88(%rsp)
	leaq	88(%rsp), %r14
.Ltmp127:
	.loc	1 229 5                         # crypto_secretstream/xchacha20poly1305/secretstream_xchacha20poly1305.c:229:5
	movl	$8, %edx
	movq	%r15, %rdi
	movq	%r14, %rsi
	callq	crypto_onetimeauth_poly1305_update@PLT
.Ltmp128:
	.loc	1 230 40                        # crypto_secretstream/xchacha20poly1305/secretstream_xchacha20poly1305.c:230:40
	addq	$47, %r13
.Ltmp129:
	#DEBUG_VALUE: crypto_secretstream_xchacha20poly1305_pull:inlen <- [DW_OP_LLVM_entry_value 1] $r9
	#DEBUG_VALUE: store64_le:dst <- [DW_OP_plus_uconst 88, DW_OP_stack_value] $rsp
	#DEBUG_VALUE: store64_le:w <- undef
	#DEBUG_VALUE: memcpy:__dest <- [DW_OP_plus_uconst 88, DW_OP_stack_value] $rsp
	#DEBUG_VALUE: memcpy:__src <- undef
	#DEBUG_VALUE: memcpy:__len <- 8
	.loc	6 29 10                         # /usr/include/x86_64-linux-gnu/bits/string_fortified.h:29:10 @[ ./include/sodium/private/common.h:87:5 @[ crypto_secretstream/xchacha20poly1305/secretstream_xchacha20poly1305.c:230:5 ] ]
	movq	%r13, 88(%rsp)
.Ltmp130:
	.loc	1 231 5                         # crypto_secretstream/xchacha20poly1305/secretstream_xchacha20poly1305.c:231:5
	movl	$8, %edx
	movq	%r15, %rdi
	movq	%r14, %rsi
	callq	crypto_onetimeauth_poly1305_update@PLT
.Ltmp131:
	.loc	1 0 5 is_stmt 0                 # crypto_secretstream/xchacha20poly1305/secretstream_xchacha20poly1305.c:0:5
	leaq	64(%rsp), %r13
	.loc	1 233 5 is_stmt 1               # crypto_secretstream/xchacha20poly1305/secretstream_xchacha20poly1305.c:233:5
	movq	%r15, %rdi
	movq	%r13, %rsi
	callq	crypto_onetimeauth_poly1305_final@PLT
.Ltmp132:
	.loc	1 234 5                         # crypto_secretstream/xchacha20poly1305/secretstream_xchacha20poly1305.c:234:5
	movl	$256, %esi                      # imm = 0x100
	movq	%r15, %rdi
	callq	sodium_memzero@PLT
.Ltmp133:
	.loc	1 236 20                        # crypto_secretstream/xchacha20poly1305/secretstream_xchacha20poly1305.c:236:20
	leaq	(%rbx,%rbp), %rsi
	incq	%rsi
.Ltmp134:
	#DEBUG_VALUE: crypto_secretstream_xchacha20poly1305_pull:stored_mac <- $rsi
	.loc	1 237 9                         # crypto_secretstream/xchacha20poly1305/secretstream_xchacha20poly1305.c:237:9
	movl	$16, %edx
	movq	%r13, %rdi
	callq	sodium_memcmp@PLT
.Ltmp135:
	.loc	1 237 52 is_stmt 0              # crypto_secretstream/xchacha20poly1305/secretstream_xchacha20poly1305.c:237:52
	testl	%eax, %eax
	je	.LBB5_8
.Ltmp136:
# %bb.7:
	#DEBUG_VALUE: crypto_secretstream_xchacha20poly1305_pull:state <- [DW_OP_plus_uconst 8] [$rsp+0]
	#DEBUG_VALUE: crypto_secretstream_xchacha20poly1305_pull:m <- [DW_OP_plus_uconst 40] [$rsp+0]
	#DEBUG_VALUE: crypto_secretstream_xchacha20poly1305_pull:mlen_p <- [DW_OP_plus_uconst 24] [$rsp+0]
	#DEBUG_VALUE: crypto_secretstream_xchacha20poly1305_pull:tag_p <- [DW_OP_plus_uconst 32] [$rsp+0]
	#DEBUG_VALUE: crypto_secretstream_xchacha20poly1305_pull:in <- [DW_OP_plus_uconst 48] [$rsp+0]
	#DEBUG_VALUE: crypto_secretstream_xchacha20poly1305_pull:inlen <- [DW_OP_LLVM_entry_value 1] $r9
	#DEBUG_VALUE: crypto_secretstream_xchacha20poly1305_pull:ad <- [DW_OP_plus_uconst 528] [$rsp+0]
	#DEBUG_VALUE: crypto_secretstream_xchacha20poly1305_pull:adlen <- [DW_OP_plus_uconst 536] [$rsp+0]
	#DEBUG_VALUE: crypto_secretstream_xchacha20poly1305_pull:mlen <- [DW_OP_plus_uconst 56, DW_OP_deref] $rsp
	#DEBUG_VALUE: crypto_secretstream_xchacha20poly1305_pull:tag <- [DW_OP_plus_uconst 7, DW_OP_deref] $rsp
	#DEBUG_VALUE: crypto_secretstream_xchacha20poly1305_pull:c <- $r12
	.loc	1 0 52                          # crypto_secretstream/xchacha20poly1305/secretstream_xchacha20poly1305.c:0:52
	leaq	64(%rsp), %rdi
.Ltmp137:
	.loc	1 238 9 is_stmt 1               # crypto_secretstream/xchacha20poly1305/secretstream_xchacha20poly1305.c:238:9
	movl	$16, %esi
	callq	sodium_memzero@PLT
.Ltmp138:
	.loc	1 0 9 is_stmt 0                 # crypto_secretstream/xchacha20poly1305/secretstream_xchacha20poly1305.c:0:9
	movl	$-1, %eax
	.loc	1 239 9 is_stmt 1               # crypto_secretstream/xchacha20poly1305/secretstream_xchacha20poly1305.c:239:9
	jmp	.LBB5_15
.Ltmp139:
.LBB5_8:
	#DEBUG_VALUE: crypto_secretstream_xchacha20poly1305_pull:state <- [DW_OP_plus_uconst 8] [$rsp+0]
	#DEBUG_VALUE: crypto_secretstream_xchacha20poly1305_pull:m <- [DW_OP_plus_uconst 40] [$rsp+0]
	#DEBUG_VALUE: crypto_secretstream_xchacha20poly1305_pull:mlen_p <- [DW_OP_plus_uconst 24] [$rsp+0]
	#DEBUG_VALUE: crypto_secretstream_xchacha20poly1305_pull:tag_p <- [DW_OP_plus_uconst 32] [$rsp+0]
	#DEBUG_VALUE: crypto_secretstream_xchacha20poly1305_pull:in <- [DW_OP_plus_uconst 48] [$rsp+0]
	#DEBUG_VALUE: crypto_secretstream_xchacha20poly1305_pull:inlen <- [DW_OP_LLVM_entry_value 1] $r9
	#DEBUG_VALUE: crypto_secretstream_xchacha20poly1305_pull:ad <- [DW_OP_plus_uconst 528] [$rsp+0]
	#DEBUG_VALUE: crypto_secretstream_xchacha20poly1305_pull:adlen <- [DW_OP_plus_uconst 536] [$rsp+0]
	#DEBUG_VALUE: crypto_secretstream_xchacha20poly1305_pull:mlen <- [DW_OP_plus_uconst 56, DW_OP_deref] $rsp
	#DEBUG_VALUE: crypto_secretstream_xchacha20poly1305_pull:tag <- [DW_OP_plus_uconst 7, DW_OP_deref] $rsp
	#DEBUG_VALUE: crypto_secretstream_xchacha20poly1305_pull:c <- $r12
	#DEBUG_VALUE: xor_buf:out <- [DW_OP_plus_uconst 8, DW_OP_deref, DW_OP_plus_uconst 36, DW_OP_stack_value] $rsp
	.loc	1 0 9 is_stmt 0                 # crypto_secretstream/xchacha20poly1305/secretstream_xchacha20poly1305.c:0:9
	movq	40(%rsp), %rdi                  # 8-byte Reload
	.loc	1 242 5 is_stmt 1               # crypto_secretstream/xchacha20poly1305/secretstream_xchacha20poly1305.c:242:5
	movq	%r12, %rsi
	movq	%rbp, %rdx
	movq	16(%rsp), %r14                  # 8-byte Reload
	movq	%r14, %rcx
	movl	$2, %r8d
	movq	8(%rsp), %r15                   # 8-byte Reload
	movq	%r15, %r9
	callq	crypto_stream_chacha20_ietf_xor_ic@PLT
.Ltmp140:
	#DEBUG_VALUE: xor_buf:in <- [DW_OP_plus_uconst 64, DW_OP_stack_value] $rsp
	#DEBUG_VALUE: xor_buf:n <- 8
	#DEBUG_VALUE: xor_buf:i <- 7
	.loc	10 210 19                       # ./include/sodium/private/common.h:210:19 @[ crypto_secretstream/xchacha20poly1305/secretstream_xchacha20poly1305.c:243:5 ]
	movq	64(%rsp), %rax
	movq	%r15, %rbx
	.loc	10 210 16 is_stmt 0             # ./include/sodium/private/common.h:210:16 @[ crypto_secretstream/xchacha20poly1305/secretstream_xchacha20poly1305.c:243:5 ]
	xorq	%rax, 36(%r15)
.Ltmp141:
	#DEBUG_VALUE: xor_buf:i <- 8
	.loc	1 245 5 is_stmt 1               # crypto_secretstream/xchacha20poly1305/secretstream_xchacha20poly1305.c:245:5
	movl	$4, %esi
	movq	%r14, %rdi
	callq	sodium_increment@PLT
.Ltmp142:
	.loc	1 0 5 is_stmt 0                 # crypto_secretstream/xchacha20poly1305/secretstream_xchacha20poly1305.c:0:5
	movzbl	7(%rsp), %r15d                  # 1-byte Folded Reload
.Ltmp143:
	.loc	1 247 22 is_stmt 1              # crypto_secretstream/xchacha20poly1305/secretstream_xchacha20poly1305.c:247:22
	testb	$2, %r15b
	.loc	1 247 27 is_stmt 0              # crypto_secretstream/xchacha20poly1305/secretstream_xchacha20poly1305.c:247:27
	jne	.LBB5_10
.Ltmp144:
# %bb.9:
	#DEBUG_VALUE: crypto_secretstream_xchacha20poly1305_pull:state <- [DW_OP_plus_uconst 8] [$rsp+0]
	#DEBUG_VALUE: crypto_secretstream_xchacha20poly1305_pull:m <- [DW_OP_plus_uconst 40] [$rsp+0]
	#DEBUG_VALUE: crypto_secretstream_xchacha20poly1305_pull:mlen_p <- [DW_OP_plus_uconst 24] [$rsp+0]
	#DEBUG_VALUE: crypto_secretstream_xchacha20poly1305_pull:tag_p <- [DW_OP_plus_uconst 32] [$rsp+0]
	#DEBUG_VALUE: crypto_secretstream_xchacha20poly1305_pull:in <- [DW_OP_plus_uconst 48] [$rsp+0]
	#DEBUG_VALUE: crypto_secretstream_xchacha20poly1305_pull:inlen <- [DW_OP_LLVM_entry_value 1] $r9
	#DEBUG_VALUE: crypto_secretstream_xchacha20poly1305_pull:ad <- [DW_OP_plus_uconst 528] [$rsp+0]
	#DEBUG_VALUE: crypto_secretstream_xchacha20poly1305_pull:adlen <- [DW_OP_plus_uconst 536] [$rsp+0]
	#DEBUG_VALUE: crypto_secretstream_xchacha20poly1305_pull:mlen <- [DW_OP_plus_uconst 56, DW_OP_deref] $rsp
	#DEBUG_VALUE: crypto_secretstream_xchacha20poly1305_pull:tag <- [DW_OP_plus_uconst 7, DW_OP_deref] $rsp
	#DEBUG_VALUE: crypto_secretstream_xchacha20poly1305_pull:c <- $r12
	.loc	1 248 9 is_stmt 1               # crypto_secretstream/xchacha20poly1305/secretstream_xchacha20poly1305.c:248:9
	movl	$4, %esi
	movq	%r14, %rdi
	callq	sodium_is_zero@PLT
.Ltmp145:
	testl	%eax, %eax
	.loc	1 247 27                        # crypto_secretstream/xchacha20poly1305/secretstream_xchacha20poly1305.c:247:27
	je	.LBB5_11
.Ltmp146:
.LBB5_10:
	#DEBUG_VALUE: crypto_secretstream_xchacha20poly1305_pull:state <- [DW_OP_plus_uconst 8] [$rsp+0]
	#DEBUG_VALUE: crypto_secretstream_xchacha20poly1305_pull:m <- [DW_OP_plus_uconst 40] [$rsp+0]
	#DEBUG_VALUE: crypto_secretstream_xchacha20poly1305_pull:mlen_p <- [DW_OP_plus_uconst 24] [$rsp+0]
	#DEBUG_VALUE: crypto_secretstream_xchacha20poly1305_pull:tag_p <- [DW_OP_plus_uconst 32] [$rsp+0]
	#DEBUG_VALUE: crypto_secretstream_xchacha20poly1305_pull:in <- [DW_OP_plus_uconst 48] [$rsp+0]
	#DEBUG_VALUE: crypto_secretstream_xchacha20poly1305_pull:inlen <- [DW_OP_LLVM_entry_value 1] $r9
	#DEBUG_VALUE: crypto_secretstream_xchacha20poly1305_pull:ad <- [DW_OP_plus_uconst 528] [$rsp+0]
	#DEBUG_VALUE: crypto_secretstream_xchacha20poly1305_pull:adlen <- [DW_OP_plus_uconst 536] [$rsp+0]
	#DEBUG_VALUE: crypto_secretstream_xchacha20poly1305_pull:mlen <- [DW_OP_plus_uconst 56, DW_OP_deref] $rsp
	#DEBUG_VALUE: crypto_secretstream_xchacha20poly1305_pull:tag <- [DW_OP_plus_uconst 7, DW_OP_deref] $rsp
	#DEBUG_VALUE: crypto_secretstream_xchacha20poly1305_pull:c <- $r12
	#DEBUG_VALUE: crypto_secretstream_xchacha20poly1305_rekey:new_key_and_inonce <- [DW_OP_plus_uconst 416, DW_OP_deref] $rsp
	#DEBUG_VALUE: crypto_secretstream_xchacha20poly1305_rekey:state <- [DW_OP_plus_uconst 8, DW_OP_deref] $rsp
	#DEBUG_VALUE: crypto_secretstream_xchacha20poly1305_rekey:i <- 0
	.loc	1 91 31                         # crypto_secretstream/xchacha20poly1305/secretstream_xchacha20poly1305.c:91:31 @[ crypto_secretstream/xchacha20poly1305/secretstream_xchacha20poly1305.c:250:9 ]
	movups	(%rbx), %xmm0
	movups	16(%rbx), %xmm1
	movaps	%xmm1, 432(%rsp)
	movaps	%xmm0, 416(%rsp)
.Ltmp147:
	.loc	1 94 37                         # crypto_secretstream/xchacha20poly1305/secretstream_xchacha20poly1305.c:94:37 @[ crypto_secretstream/xchacha20poly1305/secretstream_xchacha20poly1305.c:250:9 ]
	movq	36(%rbx), %rax
	movq	%rax, 448(%rsp)
.Ltmp148:
	#DEBUG_VALUE: crypto_secretstream_xchacha20poly1305_rekey:i <- undef
	.loc	1 0 37 is_stmt 0                # crypto_secretstream/xchacha20poly1305/secretstream_xchacha20poly1305.c:0:37
	leaq	416(%rsp), %rdi
.Ltmp149:
	.loc	1 97 5 is_stmt 1                # crypto_secretstream/xchacha20poly1305/secretstream_xchacha20poly1305.c:97:5 @[ crypto_secretstream/xchacha20poly1305/secretstream_xchacha20poly1305.c:250:9 ]
	movl	$40, %edx
	movq	%rdi, %rsi
	movq	%r14, %rcx
	movq	%rbx, %r8
	callq	crypto_stream_chacha20_ietf_xor@PLT
.Ltmp150:
	#DEBUG_VALUE: crypto_secretstream_xchacha20poly1305_rekey:i <- 0
	.loc	1 101 21                        # crypto_secretstream/xchacha20poly1305/secretstream_xchacha20poly1305.c:101:21 @[ crypto_secretstream/xchacha20poly1305/secretstream_xchacha20poly1305.c:250:9 ]
	movaps	416(%rsp), %xmm0
	movaps	432(%rsp), %xmm1
	movups	%xmm0, (%rbx)
	movups	%xmm1, 16(%rbx)
.Ltmp151:
	.loc	1 104 34                        # crypto_secretstream/xchacha20poly1305/secretstream_xchacha20poly1305.c:104:34 @[ crypto_secretstream/xchacha20poly1305/secretstream_xchacha20poly1305.c:250:9 ]
	movq	448(%rsp), %rax
	movq	%rax, 36(%rbx)
.Ltmp152:
	#DEBUG_VALUE: crypto_secretstream_xchacha20poly1305_rekey:i <- undef
	#DEBUG_VALUE: _crypto_secretstream_xchacha20poly1305_counter_reset:state <- [DW_OP_plus_uconst 8, DW_OP_deref] $rsp
	#DEBUG_VALUE: memset:__dest <- [DW_OP_plus_uconst 16, DW_OP_deref] $rsp
	#DEBUG_VALUE: memset:__ch <- 0
	#DEBUG_VALUE: memset:__len <- 4
	.loc	6 59 10                         # /usr/include/x86_64-linux-gnu/bits/string_fortified.h:59:10 @[ crypto_secretstream/xchacha20poly1305/secretstream_xchacha20poly1305.c:30:5 @[ crypto_secretstream/xchacha20poly1305/secretstream_xchacha20poly1305.c:107:5 @[ crypto_secretstream/xchacha20poly1305/secretstream_xchacha20poly1305.c:250:9 ] ] ]
	movl	$0, 32(%rbx)
.Ltmp153:
	.loc	1 32 25                         # crypto_secretstream/xchacha20poly1305/secretstream_xchacha20poly1305.c:32:25 @[ crypto_secretstream/xchacha20poly1305/secretstream_xchacha20poly1305.c:107:5 @[ crypto_secretstream/xchacha20poly1305/secretstream_xchacha20poly1305.c:250:9 ] ]
	movb	$1, 32(%rbx)
.Ltmp154:
.LBB5_11:
	#DEBUG_VALUE: crypto_secretstream_xchacha20poly1305_pull:state <- [DW_OP_plus_uconst 8] [$rsp+0]
	#DEBUG_VALUE: crypto_secretstream_xchacha20poly1305_pull:m <- [DW_OP_plus_uconst 40] [$rsp+0]
	#DEBUG_VALUE: crypto_secretstream_xchacha20poly1305_pull:mlen_p <- [DW_OP_plus_uconst 24] [$rsp+0]
	#DEBUG_VALUE: crypto_secretstream_xchacha20poly1305_pull:tag_p <- [DW_OP_plus_uconst 32] [$rsp+0]
	#DEBUG_VALUE: crypto_secretstream_xchacha20poly1305_pull:in <- [DW_OP_plus_uconst 48] [$rsp+0]
	#DEBUG_VALUE: crypto_secretstream_xchacha20poly1305_pull:inlen <- [DW_OP_LLVM_entry_value 1] $r9
	#DEBUG_VALUE: crypto_secretstream_xchacha20poly1305_pull:ad <- [DW_OP_plus_uconst 528] [$rsp+0]
	#DEBUG_VALUE: crypto_secretstream_xchacha20poly1305_pull:adlen <- [DW_OP_plus_uconst 536] [$rsp+0]
	#DEBUG_VALUE: crypto_secretstream_xchacha20poly1305_pull:mlen <- [DW_OP_plus_uconst 56, DW_OP_deref] $rsp
	#DEBUG_VALUE: crypto_secretstream_xchacha20poly1305_pull:tag <- [DW_OP_plus_uconst 7, DW_OP_deref] $rsp
	#DEBUG_VALUE: crypto_secretstream_xchacha20poly1305_pull:c <- $r12
	.loc	1 0 25 is_stmt 0                # crypto_secretstream/xchacha20poly1305/secretstream_xchacha20poly1305.c:0:25
	movq	24(%rsp), %rax                  # 8-byte Reload
.Ltmp155:
	.loc	1 194 16 is_stmt 1              # crypto_secretstream/xchacha20poly1305/secretstream_xchacha20poly1305.c:194:16
	testq	%rax, %rax
.Ltmp156:
	.loc	1 252 16                        # crypto_secretstream/xchacha20poly1305/secretstream_xchacha20poly1305.c:252:16
	je	.LBB5_13
.Ltmp157:
# %bb.12:
	#DEBUG_VALUE: crypto_secretstream_xchacha20poly1305_pull:state <- [DW_OP_plus_uconst 8] [$rsp+0]
	#DEBUG_VALUE: crypto_secretstream_xchacha20poly1305_pull:m <- [DW_OP_plus_uconst 40] [$rsp+0]
	#DEBUG_VALUE: crypto_secretstream_xchacha20poly1305_pull:mlen_p <- [DW_OP_plus_uconst 24] [$rsp+0]
	#DEBUG_VALUE: crypto_secretstream_xchacha20poly1305_pull:tag_p <- [DW_OP_plus_uconst 32] [$rsp+0]
	#DEBUG_VALUE: crypto_secretstream_xchacha20poly1305_pull:in <- [DW_OP_plus_uconst 48] [$rsp+0]
	#DEBUG_VALUE: crypto_secretstream_xchacha20poly1305_pull:inlen <- [DW_OP_LLVM_entry_value 1] $r9
	#DEBUG_VALUE: crypto_secretstream_xchacha20poly1305_pull:ad <- [DW_OP_plus_uconst 528] [$rsp+0]
	#DEBUG_VALUE: crypto_secretstream_xchacha20poly1305_pull:adlen <- [DW_OP_plus_uconst 536] [$rsp+0]
	#DEBUG_VALUE: crypto_secretstream_xchacha20poly1305_pull:mlen <- [DW_OP_plus_uconst 56, DW_OP_deref] $rsp
	#DEBUG_VALUE: crypto_secretstream_xchacha20poly1305_pull:tag <- [DW_OP_plus_uconst 7, DW_OP_deref] $rsp
	#DEBUG_VALUE: crypto_secretstream_xchacha20poly1305_pull:c <- $r12
	.loc	1 253 17                        # crypto_secretstream/xchacha20poly1305/secretstream_xchacha20poly1305.c:253:17
	movq	%rbp, (%rax)
.Ltmp158:
.LBB5_13:
	#DEBUG_VALUE: crypto_secretstream_xchacha20poly1305_pull:state <- [DW_OP_plus_uconst 8] [$rsp+0]
	#DEBUG_VALUE: crypto_secretstream_xchacha20poly1305_pull:m <- [DW_OP_plus_uconst 40] [$rsp+0]
	#DEBUG_VALUE: crypto_secretstream_xchacha20poly1305_pull:mlen_p <- [DW_OP_plus_uconst 24] [$rsp+0]
	#DEBUG_VALUE: crypto_secretstream_xchacha20poly1305_pull:tag_p <- [DW_OP_plus_uconst 32] [$rsp+0]
	#DEBUG_VALUE: crypto_secretstream_xchacha20poly1305_pull:in <- [DW_OP_plus_uconst 48] [$rsp+0]
	#DEBUG_VALUE: crypto_secretstream_xchacha20poly1305_pull:inlen <- [DW_OP_LLVM_entry_value 1] $r9
	#DEBUG_VALUE: crypto_secretstream_xchacha20poly1305_pull:ad <- [DW_OP_plus_uconst 528] [$rsp+0]
	#DEBUG_VALUE: crypto_secretstream_xchacha20poly1305_pull:adlen <- [DW_OP_plus_uconst 536] [$rsp+0]
	#DEBUG_VALUE: crypto_secretstream_xchacha20poly1305_pull:mlen <- [DW_OP_plus_uconst 56, DW_OP_deref] $rsp
	#DEBUG_VALUE: crypto_secretstream_xchacha20poly1305_pull:tag <- [DW_OP_plus_uconst 7, DW_OP_deref] $rsp
	#DEBUG_VALUE: crypto_secretstream_xchacha20poly1305_pull:c <- $r12
	.loc	1 0 17 is_stmt 0                # crypto_secretstream/xchacha20poly1305/secretstream_xchacha20poly1305.c:0:17
	xorl	%eax, %eax
	movq	32(%rsp), %rcx                  # 8-byte Reload
.Ltmp159:
	.loc	1 197 15 is_stmt 1              # crypto_secretstream/xchacha20poly1305/secretstream_xchacha20poly1305.c:197:15
	testq	%rcx, %rcx
.Ltmp160:
	.loc	1 255 15                        # crypto_secretstream/xchacha20poly1305/secretstream_xchacha20poly1305.c:255:15
	je	.LBB5_15
.Ltmp161:
# %bb.14:
	#DEBUG_VALUE: crypto_secretstream_xchacha20poly1305_pull:state <- [DW_OP_plus_uconst 8] [$rsp+0]
	#DEBUG_VALUE: crypto_secretstream_xchacha20poly1305_pull:m <- [DW_OP_plus_uconst 40] [$rsp+0]
	#DEBUG_VALUE: crypto_secretstream_xchacha20poly1305_pull:mlen_p <- [DW_OP_plus_uconst 24] [$rsp+0]
	#DEBUG_VALUE: crypto_secretstream_xchacha20poly1305_pull:tag_p <- [DW_OP_plus_uconst 32] [$rsp+0]
	#DEBUG_VALUE: crypto_secretstream_xchacha20poly1305_pull:in <- [DW_OP_plus_uconst 48] [$rsp+0]
	#DEBUG_VALUE: crypto_secretstream_xchacha20poly1305_pull:inlen <- [DW_OP_LLVM_entry_value 1] $r9
	#DEBUG_VALUE: crypto_secretstream_xchacha20poly1305_pull:ad <- [DW_OP_plus_uconst 528] [$rsp+0]
	#DEBUG_VALUE: crypto_secretstream_xchacha20poly1305_pull:adlen <- [DW_OP_plus_uconst 536] [$rsp+0]
	#DEBUG_VALUE: crypto_secretstream_xchacha20poly1305_pull:mlen <- [DW_OP_plus_uconst 56, DW_OP_deref] $rsp
	#DEBUG_VALUE: crypto_secretstream_xchacha20poly1305_pull:tag <- [DW_OP_plus_uconst 7, DW_OP_deref] $rsp
	#DEBUG_VALUE: crypto_secretstream_xchacha20poly1305_pull:c <- $r12
	.loc	1 256 16                        # crypto_secretstream/xchacha20poly1305/secretstream_xchacha20poly1305.c:256:16
	movb	%r15b, (%rcx)
.Ltmp162:
.LBB5_15:
	#DEBUG_VALUE: crypto_secretstream_xchacha20poly1305_pull:state <- [DW_OP_LLVM_entry_value 1] $rdi
	#DEBUG_VALUE: crypto_secretstream_xchacha20poly1305_pull:m <- [DW_OP_LLVM_entry_value 1] $rsi
	#DEBUG_VALUE: crypto_secretstream_xchacha20poly1305_pull:mlen_p <- [DW_OP_LLVM_entry_value 1] $rdx
	#DEBUG_VALUE: crypto_secretstream_xchacha20poly1305_pull:tag_p <- [DW_OP_LLVM_entry_value 1] $rcx
	#DEBUG_VALUE: crypto_secretstream_xchacha20poly1305_pull:in <- [DW_OP_LLVM_entry_value 1] $r8
	#DEBUG_VALUE: crypto_secretstream_xchacha20poly1305_pull:inlen <- [DW_OP_LLVM_entry_value 1] $r9
	#DEBUG_VALUE: crypto_secretstream_xchacha20poly1305_pull:ad <- [DW_OP_plus_uconst 528] [$rsp+0]
	#DEBUG_VALUE: crypto_secretstream_xchacha20poly1305_pull:adlen <- [DW_OP_plus_uconst 536] [$rsp+0]
	.loc	1 259 1                         # crypto_secretstream/xchacha20poly1305/secretstream_xchacha20poly1305.c:259:1
	movq	%fs:40, %rcx
	cmpq	464(%rsp), %rcx
	jne	.LBB5_16
.Ltmp163:
# %bb.18:                               # %SP_return
	#DEBUG_VALUE: crypto_secretstream_xchacha20poly1305_pull:state <- [DW_OP_LLVM_entry_value 1] $rdi
	#DEBUG_VALUE: crypto_secretstream_xchacha20poly1305_pull:m <- [DW_OP_LLVM_entry_value 1] $rsi
	#DEBUG_VALUE: crypto_secretstream_xchacha20poly1305_pull:mlen_p <- [DW_OP_LLVM_entry_value 1] $rdx
	#DEBUG_VALUE: crypto_secretstream_xchacha20poly1305_pull:tag_p <- [DW_OP_LLVM_entry_value 1] $rcx
	#DEBUG_VALUE: crypto_secretstream_xchacha20poly1305_pull:in <- [DW_OP_LLVM_entry_value 1] $r8
	#DEBUG_VALUE: crypto_secretstream_xchacha20poly1305_pull:inlen <- [DW_OP_LLVM_entry_value 1] $r9
	#DEBUG_VALUE: crypto_secretstream_xchacha20poly1305_pull:ad <- [DW_OP_plus_uconst 528] [$rsp+0]
	#DEBUG_VALUE: crypto_secretstream_xchacha20poly1305_pull:adlen <- [DW_OP_plus_uconst 536] [$rsp+0]
	.loc	1 259 1 epilogue_begin is_stmt 0 # crypto_secretstream/xchacha20poly1305/secretstream_xchacha20poly1305.c:259:1
	addq	$472, %rsp                      # imm = 0x1D8
	.cfi_def_cfa_offset 56
	popq	%rbx
	.cfi_def_cfa_offset 48
	popq	%r12
	.cfi_def_cfa_offset 40
	popq	%r13
	.cfi_def_cfa_offset 32
	popq	%r14
	.cfi_def_cfa_offset 24
	popq	%r15
	.cfi_def_cfa_offset 16
	popq	%rbp
	.cfi_def_cfa_offset 8
	retq
.Ltmp164:
.LBB5_16:                               # %CallStackCheckFailBlk
	.cfi_def_cfa_offset 528
	#DEBUG_VALUE: crypto_secretstream_xchacha20poly1305_pull:state <- [DW_OP_LLVM_entry_value 1] $rdi
	#DEBUG_VALUE: crypto_secretstream_xchacha20poly1305_pull:m <- [DW_OP_LLVM_entry_value 1] $rsi
	#DEBUG_VALUE: crypto_secretstream_xchacha20poly1305_pull:mlen_p <- [DW_OP_LLVM_entry_value 1] $rdx
	#DEBUG_VALUE: crypto_secretstream_xchacha20poly1305_pull:tag_p <- [DW_OP_LLVM_entry_value 1] $rcx
	#DEBUG_VALUE: crypto_secretstream_xchacha20poly1305_pull:in <- [DW_OP_LLVM_entry_value 1] $r8
	#DEBUG_VALUE: crypto_secretstream_xchacha20poly1305_pull:inlen <- [DW_OP_LLVM_entry_value 1] $r9
	#DEBUG_VALUE: crypto_secretstream_xchacha20poly1305_pull:ad <- [DW_OP_plus_uconst 528] [$rsp+0]
	#DEBUG_VALUE: crypto_secretstream_xchacha20poly1305_pull:adlen <- [DW_OP_plus_uconst 536] [$rsp+0]
	.loc	1 0 0                           # crypto_secretstream/xchacha20poly1305/secretstream_xchacha20poly1305.c:0
	callq	__stack_chk_fail@PLT
.Ltmp165:
.LBB5_17:
	#DEBUG_VALUE: crypto_secretstream_xchacha20poly1305_pull:state <- $rdi
	#DEBUG_VALUE: crypto_secretstream_xchacha20poly1305_pull:m <- [DW_OP_plus_uconst 40] [$rsp+0]
	#DEBUG_VALUE: crypto_secretstream_xchacha20poly1305_pull:mlen_p <- [DW_OP_plus_uconst 24] [$rsp+0]
	#DEBUG_VALUE: crypto_secretstream_xchacha20poly1305_pull:tag_p <- [DW_OP_plus_uconst 32] [$rsp+0]
	#DEBUG_VALUE: crypto_secretstream_xchacha20poly1305_pull:in <- [DW_OP_plus_uconst 48] [$rsp+0]
	#DEBUG_VALUE: crypto_secretstream_xchacha20poly1305_pull:inlen <- $r13
	#DEBUG_VALUE: crypto_secretstream_xchacha20poly1305_pull:ad <- [DW_OP_plus_uconst 528] [$rsp+0]
	#DEBUG_VALUE: crypto_secretstream_xchacha20poly1305_pull:adlen <- [DW_OP_plus_uconst 536] [$rsp+0]
	#DEBUG_VALUE: crypto_secretstream_xchacha20poly1305_pull:mlen <- [DW_OP_plus_uconst 56, DW_OP_deref] $rsp
	.loc	1 205 9 is_stmt 1               # crypto_secretstream/xchacha20poly1305/secretstream_xchacha20poly1305.c:205:9
	callq	sodium_misuse@PLT
.Ltmp166:
	#DEBUG_VALUE: crypto_secretstream_xchacha20poly1305_pull:state <- [DW_OP_LLVM_entry_value 1] $rdi
.Lfunc_end5:
	.size	crypto_secretstream_xchacha20poly1305_pull, .Lfunc_end5-crypto_secretstream_xchacha20poly1305_pull
	.cfi_endproc
                                        # -- End function
	.globl	crypto_secretstream_xchacha20poly1305_statebytes # -- Begin function crypto_secretstream_xchacha20poly1305_statebytes
	.p2align	4
	.type	crypto_secretstream_xchacha20poly1305_statebytes,@function
crypto_secretstream_xchacha20poly1305_statebytes: # @crypto_secretstream_xchacha20poly1305_statebytes
.Lfunc_begin6:
	.cfi_startproc
# %bb.0:
	.loc	1 264 5 prologue_end            # crypto_secretstream/xchacha20poly1305/secretstream_xchacha20poly1305.c:264:5
	movl	$52, %eax
	retq
.Ltmp167:
.Lfunc_end6:
	.size	crypto_secretstream_xchacha20poly1305_statebytes, .Lfunc_end6-crypto_secretstream_xchacha20poly1305_statebytes
	.cfi_endproc
                                        # -- End function
	.globl	crypto_secretstream_xchacha20poly1305_abytes # -- Begin function crypto_secretstream_xchacha20poly1305_abytes
	.p2align	4
	.type	crypto_secretstream_xchacha20poly1305_abytes,@function
crypto_secretstream_xchacha20poly1305_abytes: # @crypto_secretstream_xchacha20poly1305_abytes
.Lfunc_begin7:
	.cfi_startproc
# %bb.0:
	.loc	1 270 5 prologue_end            # crypto_secretstream/xchacha20poly1305/secretstream_xchacha20poly1305.c:270:5
	movl	$17, %eax
	retq
.Ltmp168:
.Lfunc_end7:
	.size	crypto_secretstream_xchacha20poly1305_abytes, .Lfunc_end7-crypto_secretstream_xchacha20poly1305_abytes
	.cfi_endproc
                                        # -- End function
	.globl	crypto_secretstream_xchacha20poly1305_headerbytes # -- Begin function crypto_secretstream_xchacha20poly1305_headerbytes
	.p2align	4
	.type	crypto_secretstream_xchacha20poly1305_headerbytes,@function
crypto_secretstream_xchacha20poly1305_headerbytes: # @crypto_secretstream_xchacha20poly1305_headerbytes
.Lfunc_begin8:
	.cfi_startproc
# %bb.0:
	.loc	1 276 5 prologue_end            # crypto_secretstream/xchacha20poly1305/secretstream_xchacha20poly1305.c:276:5
	movl	$24, %eax
	retq
.Ltmp169:
.Lfunc_end8:
	.size	crypto_secretstream_xchacha20poly1305_headerbytes, .Lfunc_end8-crypto_secretstream_xchacha20poly1305_headerbytes
	.cfi_endproc
                                        # -- End function
	.globl	crypto_secretstream_xchacha20poly1305_keybytes # -- Begin function crypto_secretstream_xchacha20poly1305_keybytes
	.p2align	4
	.type	crypto_secretstream_xchacha20poly1305_keybytes,@function
crypto_secretstream_xchacha20poly1305_keybytes: # @crypto_secretstream_xchacha20poly1305_keybytes
.Lfunc_begin9:
	.cfi_startproc
# %bb.0:
	.loc	1 282 5 prologue_end            # crypto_secretstream/xchacha20poly1305/secretstream_xchacha20poly1305.c:282:5
	movl	$32, %eax
	retq
.Ltmp170:
.Lfunc_end9:
	.size	crypto_secretstream_xchacha20poly1305_keybytes, .Lfunc_end9-crypto_secretstream_xchacha20poly1305_keybytes
	.cfi_endproc
                                        # -- End function
	.globl	crypto_secretstream_xchacha20poly1305_messagebytes_max # -- Begin function crypto_secretstream_xchacha20poly1305_messagebytes_max
	.p2align	4
	.type	crypto_secretstream_xchacha20poly1305_messagebytes_max,@function
crypto_secretstream_xchacha20poly1305_messagebytes_max: # @crypto_secretstream_xchacha20poly1305_messagebytes_max
.Lfunc_begin10:
	.loc	1 287 0                         # crypto_secretstream/xchacha20poly1305/secretstream_xchacha20poly1305.c:287:0
	.cfi_startproc
# %bb.0:
	movabsq	$274877906816, %rax             # imm = 0x3FFFFFFF80
.Ltmp171:
	.loc	1 288 5 prologue_end            # crypto_secretstream/xchacha20poly1305/secretstream_xchacha20poly1305.c:288:5
	retq
.Ltmp172:
.Lfunc_end10:
	.size	crypto_secretstream_xchacha20poly1305_messagebytes_max, .Lfunc_end10-crypto_secretstream_xchacha20poly1305_messagebytes_max
	.cfi_endproc
                                        # -- End function
	.globl	crypto_secretstream_xchacha20poly1305_tag_message # -- Begin function crypto_secretstream_xchacha20poly1305_tag_message
	.p2align	4
	.type	crypto_secretstream_xchacha20poly1305_tag_message,@function
crypto_secretstream_xchacha20poly1305_tag_message: # @crypto_secretstream_xchacha20poly1305_tag_message
.Lfunc_begin11:
	.cfi_startproc
# %bb.0:
	.loc	1 294 5 prologue_end            # crypto_secretstream/xchacha20poly1305/secretstream_xchacha20poly1305.c:294:5
	xorl	%eax, %eax
	retq
.Ltmp173:
.Lfunc_end11:
	.size	crypto_secretstream_xchacha20poly1305_tag_message, .Lfunc_end11-crypto_secretstream_xchacha20poly1305_tag_message
	.cfi_endproc
                                        # -- End function
	.globl	crypto_secretstream_xchacha20poly1305_tag_push # -- Begin function crypto_secretstream_xchacha20poly1305_tag_push
	.p2align	4
	.type	crypto_secretstream_xchacha20poly1305_tag_push,@function
crypto_secretstream_xchacha20poly1305_tag_push: # @crypto_secretstream_xchacha20poly1305_tag_push
.Lfunc_begin12:
	.cfi_startproc
# %bb.0:
	.loc	1 300 5 prologue_end            # crypto_secretstream/xchacha20poly1305/secretstream_xchacha20poly1305.c:300:5
	movb	$1, %al
	retq
.Ltmp174:
.Lfunc_end12:
	.size	crypto_secretstream_xchacha20poly1305_tag_push, .Lfunc_end12-crypto_secretstream_xchacha20poly1305_tag_push
	.cfi_endproc
                                        # -- End function
	.globl	crypto_secretstream_xchacha20poly1305_tag_rekey # -- Begin function crypto_secretstream_xchacha20poly1305_tag_rekey
	.p2align	4
	.type	crypto_secretstream_xchacha20poly1305_tag_rekey,@function
crypto_secretstream_xchacha20poly1305_tag_rekey: # @crypto_secretstream_xchacha20poly1305_tag_rekey
.Lfunc_begin13:
	.cfi_startproc
# %bb.0:
	.loc	1 306 5 prologue_end            # crypto_secretstream/xchacha20poly1305/secretstream_xchacha20poly1305.c:306:5
	movb	$2, %al
	retq
.Ltmp175:
.Lfunc_end13:
	.size	crypto_secretstream_xchacha20poly1305_tag_rekey, .Lfunc_end13-crypto_secretstream_xchacha20poly1305_tag_rekey
	.cfi_endproc
                                        # -- End function
	.globl	crypto_secretstream_xchacha20poly1305_tag_final # -- Begin function crypto_secretstream_xchacha20poly1305_tag_final
	.p2align	4
	.type	crypto_secretstream_xchacha20poly1305_tag_final,@function
crypto_secretstream_xchacha20poly1305_tag_final: # @crypto_secretstream_xchacha20poly1305_tag_final
.Lfunc_begin14:
	.cfi_startproc
# %bb.0:
	.loc	1 312 5 prologue_end            # crypto_secretstream/xchacha20poly1305/secretstream_xchacha20poly1305.c:312:5
	movb	$3, %al
	retq
.Ltmp176:
.Lfunc_end14:
	.size	crypto_secretstream_xchacha20poly1305_tag_final, .Lfunc_end14-crypto_secretstream_xchacha20poly1305_tag_final
	.cfi_endproc
                                        # -- End function
	.type	_pad0,@object                   # @_pad0
	.section	.rodata,"a",@progbits
	.p2align	4, 0x0
_pad0:
	.zero	16
	.size	_pad0, 16

	.section	".note.GNU-stack","",@progbits
	.addrsig
	.addrsig_sym __stack_chk_fail
	.addrsig_sym _pad0