	.file	"shorthash_siphash24_ref.c"
	.file	0 "/home/leizhenyuu/opt/Anonymous_Repo/libsodium_o2_attr_inline/src/libsodium" "shorthash_siphash24_ref.c" md5 0x6a67bc258040bd8e92a6f27a9b961e58
	.file	1 "/usr/include/x86_64-linux-gnu/bits" "types.h"
	.file	2 "/usr/include/x86_64-linux-gnu/bits" "stdint-uintn.h"
	.text
	.globl	crypto_shorthash_siphash24      # -- Begin function crypto_shorthash_siphash24
	.p2align	4
	.type	crypto_shorthash_siphash24,@function
crypto_shorthash_siphash24:             # @crypto_shorthash_siphash24
.Lfunc_begin0:
	.file	3 "crypto_shorthash/siphash24/ref" "shorthash_siphash24_ref.c"
	.loc	3 8 0                           # crypto_shorthash/siphash24/ref/shorthash_siphash24_ref.c:8:0
	.cfi_startproc
# %bb.0:
	#DEBUG_VALUE: crypto_shorthash_siphash24:out <- $rdi
	#DEBUG_VALUE: crypto_shorthash_siphash24:in <- $rsi
	#DEBUG_VALUE: crypto_shorthash_siphash24:inlen <- $rdx
	#DEBUG_VALUE: crypto_shorthash_siphash24:k <- $rcx
	#DEBUG_VALUE: load64_le:src <- $rcx
	#DEBUG_VALUE: memcpy:__src <- $rcx
	#DEBUG_VALUE: memcpy:__len <- 8
	pushq	%r15
	.cfi_def_cfa_offset 16
	pushq	%r14
	.cfi_def_cfa_offset 24
	pushq	%rbx
	.cfi_def_cfa_offset 32
	.cfi_offset %rbx, -32
	.cfi_offset %r14, -24
	.cfi_offset %r15, -16
.Ltmp0:
	#DEBUG_VALUE: crypto_shorthash_siphash24:v0 <- 8317987319222330741
	#DEBUG_VALUE: crypto_shorthash_siphash24:v1 <- 7237128888997146477
	#DEBUG_VALUE: crypto_shorthash_siphash24:v2 <- 7816392313619706465
	#DEBUG_VALUE: crypto_shorthash_siphash24:v3 <- 8387220255154660723
	.file	4 "/usr/include/x86_64-linux-gnu/bits" "string_fortified.h"
	.loc	4 29 10 prologue_end            # /usr/include/x86_64-linux-gnu/bits/string_fortified.h:29:10 @[ ./include/sodium/private/common.h:67:5 @[ crypto_shorthash/siphash24/ref/shorthash_siphash24_ref.c:15:19 ] ]
	movq	(%rcx), %r11
.Ltmp1:
	#DEBUG_VALUE: crypto_shorthash_siphash24:k0 <- $r11
	#DEBUG_VALUE: memcpy:__len <- 8
	#DEBUG_VALUE: load64_le:src <- [DW_OP_plus_uconst 8, DW_OP_stack_value] $rcx
	#DEBUG_VALUE: memcpy:__src <- [DW_OP_plus_uconst 8, DW_OP_stack_value] $rcx
	.loc	4 29 10 is_stmt 0               # /usr/include/x86_64-linux-gnu/bits/string_fortified.h:29:10 @[ ./include/sodium/private/common.h:67:5 @[ crypto_shorthash/siphash24/ref/shorthash_siphash24_ref.c:16:19 ] ]
	movq	8(%rcx), %r9
.Ltmp2:
	#DEBUG_VALUE: crypto_shorthash_siphash24:k1 <- $r9
	.loc	3 18 46 is_stmt 1               # crypto_shorthash/siphash24/ref/shorthash_siphash24_ref.c:18:46
	movl	%edx, %r10d
	andl	$7, %r10d
.Ltmp3:
	#DEBUG_VALUE: crypto_shorthash_siphash24:left <- $r10d
	#DEBUG_VALUE: crypto_shorthash_siphash24:end <- undef
	#DEBUG_VALUE: crypto_shorthash_siphash24:b <- undef
	.loc	3 0 46 is_stmt 0                # crypto_shorthash/siphash24/ref/shorthash_siphash24_ref.c:0:46
	movabsq	$8387220255154660723, %r8       # imm = 0x7465646279746573
	.loc	3 22 8 is_stmt 1                # crypto_shorthash/siphash24/ref/shorthash_siphash24_ref.c:22:8
	xorq	%r9, %r8
.Ltmp4:
	#DEBUG_VALUE: crypto_shorthash_siphash24:v3 <- $r8
	.loc	3 0 8 is_stmt 0                 # crypto_shorthash/siphash24/ref/shorthash_siphash24_ref.c:0:8
	movabsq	$7816392313619706465, %rax      # imm = 0x6C7967656E657261
	.loc	3 23 8 is_stmt 1                # crypto_shorthash/siphash24/ref/shorthash_siphash24_ref.c:23:8
	xorq	%r11, %rax
.Ltmp5:
	#DEBUG_VALUE: crypto_shorthash_siphash24:v2 <- $rax
	.loc	3 0 8 is_stmt 0                 # crypto_shorthash/siphash24/ref/shorthash_siphash24_ref.c:0:8
	movabsq	$7237128888997146477, %rcx      # imm = 0x646F72616E646F6D
.Ltmp6:
	#DEBUG_VALUE: crypto_shorthash_siphash24:k <- [DW_OP_LLVM_entry_value 1] $rcx
	.loc	3 24 8 is_stmt 1                # crypto_shorthash/siphash24/ref/shorthash_siphash24_ref.c:24:8
	xorq	%r9, %rcx
.Ltmp7:
	#DEBUG_VALUE: crypto_shorthash_siphash24:v1 <- $rcx
	.loc	3 0 8 is_stmt 0                 # crypto_shorthash/siphash24/ref/shorthash_siphash24_ref.c:0:8
	movabsq	$8317987319222330741, %r9       # imm = 0x736F6D6570736575
.Ltmp8:
	.loc	3 25 8 is_stmt 1                # crypto_shorthash/siphash24/ref/shorthash_siphash24_ref.c:25:8
	xorq	%r11, %r9
.Ltmp9:
	#DEBUG_VALUE: crypto_shorthash_siphash24:v0 <- $r9
	.loc	3 26 15                         # crypto_shorthash/siphash24/ref/shorthash_siphash24_ref.c:26:15
	cmpq	$8, %rdx
.Ltmp10:
	.loc	3 26 5 is_stmt 0                # crypto_shorthash/siphash24/ref/shorthash_siphash24_ref.c:26:5
	jb	.LBB0_4
.Ltmp11:
# %bb.1:                                # %.lr.ph.preheader
	#DEBUG_VALUE: crypto_shorthash_siphash24:out <- $rdi
	#DEBUG_VALUE: crypto_shorthash_siphash24:in <- $rsi
	#DEBUG_VALUE: crypto_shorthash_siphash24:inlen <- $rdx
	#DEBUG_VALUE: crypto_shorthash_siphash24:k <- [DW_OP_LLVM_entry_value 1] $rcx
	#DEBUG_VALUE: crypto_shorthash_siphash24:v0 <- $r9
	#DEBUG_VALUE: crypto_shorthash_siphash24:v1 <- $rcx
	#DEBUG_VALUE: crypto_shorthash_siphash24:v2 <- $rax
	#DEBUG_VALUE: crypto_shorthash_siphash24:v3 <- $r8
	#DEBUG_VALUE: crypto_shorthash_siphash24:k0 <- $r11
	#DEBUG_VALUE: crypto_shorthash_siphash24:left <- $r10d
	.loc	3 0 0                           # crypto_shorthash/siphash24/ref/shorthash_siphash24_ref.c:0
	leaq	(%rsi,%rdx), %r11
.Ltmp12:
	subq	%r10, %r11
.Ltmp13:
	#DEBUG_VALUE: crypto_shorthash_siphash24:end <- $r11
	.loc	3 26 5                          # crypto_shorthash/siphash24/ref/shorthash_siphash24_ref.c:26:5
	movq	%rdx, %rbx
	andq	$-8, %rbx
	xorl	%r14d, %r14d
.Ltmp14:
	.loc	3 0 5                           # :0:5
.Ltmp15:
	.p2align	4
.LBB0_2:                                # %.lr.ph
                                        # =>This Inner Loop Header: Depth=1
	#DEBUG_VALUE: crypto_shorthash_siphash24:out <- $rdi
	#DEBUG_VALUE: crypto_shorthash_siphash24:inlen <- $rdx
	#DEBUG_VALUE: crypto_shorthash_siphash24:k <- [DW_OP_LLVM_entry_value 1] $rcx
	#DEBUG_VALUE: crypto_shorthash_siphash24:v0 <- $r9
	#DEBUG_VALUE: crypto_shorthash_siphash24:v1 <- $rcx
	#DEBUG_VALUE: crypto_shorthash_siphash24:v2 <- $rax
	#DEBUG_VALUE: crypto_shorthash_siphash24:v3 <- $r8
	#DEBUG_VALUE: crypto_shorthash_siphash24:left <- $r10d
	#DEBUG_VALUE: crypto_shorthash_siphash24:end <- $r11
	#DEBUG_VALUE: crypto_shorthash_siphash24:in <- [DW_OP_LLVM_arg 0, DW_OP_consts 8, DW_OP_div, DW_OP_consts 8, DW_OP_mul, DW_OP_LLVM_arg 0, DW_OP_plus, DW_OP_stack_value] undef
	#DEBUG_VALUE: crypto_shorthash_siphash24:v0 <- $r9
	#DEBUG_VALUE: crypto_shorthash_siphash24:v1 <- $rcx
	#DEBUG_VALUE: crypto_shorthash_siphash24:v2 <- $rax
	#DEBUG_VALUE: crypto_shorthash_siphash24:v3 <- $r8
	#DEBUG_VALUE: load64_le:w <- undef
	#DEBUG_VALUE: load64_le:src <- [DW_OP_LLVM_arg 0, DW_OP_consts 8, DW_OP_div, DW_OP_consts 8, DW_OP_mul, DW_OP_LLVM_arg 1, DW_OP_plus, DW_OP_stack_value] $r14, $rsi
	#DEBUG_VALUE: memcpy:__dest <- undef
	#DEBUG_VALUE: memcpy:__src <- [DW_OP_LLVM_arg 0, DW_OP_consts 8, DW_OP_div, DW_OP_consts 8, DW_OP_mul, DW_OP_LLVM_arg 1, DW_OP_plus, DW_OP_stack_value] $r14, $rsi
	#DEBUG_VALUE: memcpy:__len <- 8
	#DEBUG_VALUE: crypto_shorthash_siphash24:m <- undef
	#DEBUG_VALUE: crypto_shorthash_siphash24:v3 <- undef
	.loc	3 29 17 is_stmt 1               # crypto_shorthash/siphash24/ref/shorthash_siphash24_ref.c:29:17
	addq	%rcx, %r9
.Ltmp16:
	#DEBUG_VALUE: crypto_shorthash_siphash24:v0 <- $r9
	#DEBUG_VALUE: rotl64:x <- $rcx
	#DEBUG_VALUE: rotl64:b <- 13
	.file	5 "./include/sodium/private" "common.h"
	.loc	5 44 21                         # ./include/sodium/private/common.h:44:21 @[ crypto_shorthash/siphash24/ref/shorthash_siphash24_ref.c:29:29 ]
	rolq	$13, %rcx
.Ltmp17:
	#DEBUG_VALUE: crypto_shorthash_siphash24:v1 <- $rcx
	.loc	4 29 10                         # /usr/include/x86_64-linux-gnu/bits/string_fortified.h:29:10 @[ ./include/sodium/private/common.h:67:5 @[ crypto_shorthash/siphash24/ref/shorthash_siphash24_ref.c:27:13 ] ]
	movq	(%rsi,%r14), %r15
.Ltmp18:
	#DEBUG_VALUE: crypto_shorthash_siphash24:m <- $r15
	.loc	3 29 52 is_stmt 0               # crypto_shorthash/siphash24/ref/shorthash_siphash24_ref.c:29:52
	xorq	%r9, %rcx
.Ltmp19:
	#DEBUG_VALUE: crypto_shorthash_siphash24:v1 <- $rcx
	#DEBUG_VALUE: rotl64:x <- $r9
	#DEBUG_VALUE: rotl64:b <- 32
	.loc	5 44 21 is_stmt 1               # ./include/sodium/private/common.h:44:21 @[ crypto_shorthash/siphash24/ref/shorthash_siphash24_ref.c:29:64 ]
	rolq	$32, %r9
.Ltmp20:
	#DEBUG_VALUE: crypto_shorthash_siphash24:v0 <- $r9
	.loc	3 28 12                         # crypto_shorthash/siphash24/ref/shorthash_siphash24_ref.c:28:12
	xorq	%r15, %r8
.Ltmp21:
	#DEBUG_VALUE: crypto_shorthash_siphash24:v3 <- $r8
	.loc	3 29 87                         # crypto_shorthash/siphash24/ref/shorthash_siphash24_ref.c:29:87
	addq	%r8, %rax
.Ltmp22:
	#DEBUG_VALUE: crypto_shorthash_siphash24:v2 <- $rax
	#DEBUG_VALUE: rotl64:x <- $r8
	#DEBUG_VALUE: rotl64:b <- 16
	.loc	5 44 21                         # ./include/sodium/private/common.h:44:21 @[ crypto_shorthash/siphash24/ref/shorthash_siphash24_ref.c:29:99 ]
	rolq	$16, %r8
.Ltmp23:
	#DEBUG_VALUE: crypto_shorthash_siphash24:v3 <- $r8
	.loc	3 29 122                        # crypto_shorthash/siphash24/ref/shorthash_siphash24_ref.c:29:122
	xorq	%rax, %r8
.Ltmp24:
	#DEBUG_VALUE: crypto_shorthash_siphash24:v3 <- $r8
	.loc	3 29 132 is_stmt 0              # crypto_shorthash/siphash24/ref/shorthash_siphash24_ref.c:29:132
	addq	%r8, %r9
.Ltmp25:
	#DEBUG_VALUE: crypto_shorthash_siphash24:v0 <- $r9
	#DEBUG_VALUE: rotl64:x <- $r8
	#DEBUG_VALUE: rotl64:b <- 21
	.loc	5 44 21 is_stmt 1               # ./include/sodium/private/common.h:44:21 @[ crypto_shorthash/siphash24/ref/shorthash_siphash24_ref.c:29:144 ]
	rolq	$21, %r8
.Ltmp26:
	#DEBUG_VALUE: crypto_shorthash_siphash24:v3 <- $r8
	#DEBUG_VALUE: crypto_shorthash_siphash24:v3 <- undef
	.loc	3 29 177                        # crypto_shorthash/siphash24/ref/shorthash_siphash24_ref.c:29:177
	addq	%rcx, %rax
.Ltmp27:
	#DEBUG_VALUE: crypto_shorthash_siphash24:v2 <- $rax
	#DEBUG_VALUE: rotl64:x <- $rcx
	#DEBUG_VALUE: rotl64:b <- 17
	.loc	5 44 21                         # ./include/sodium/private/common.h:44:21 @[ crypto_shorthash/siphash24/ref/shorthash_siphash24_ref.c:29:189 ]
	rolq	$17, %rcx
.Ltmp28:
	#DEBUG_VALUE: crypto_shorthash_siphash24:v1 <- $rcx
	.loc	3 29 212                        # crypto_shorthash/siphash24/ref/shorthash_siphash24_ref.c:29:212
	xorq	%rax, %rcx
.Ltmp29:
	#DEBUG_VALUE: crypto_shorthash_siphash24:v1 <- $rcx
	#DEBUG_VALUE: rotl64:x <- $rax
	#DEBUG_VALUE: rotl64:b <- 32
	.loc	5 44 21                         # ./include/sodium/private/common.h:44:21 @[ crypto_shorthash/siphash24/ref/shorthash_siphash24_ref.c:29:224 ]
	rolq	$32, %rax
.Ltmp30:
	#DEBUG_VALUE: crypto_shorthash_siphash24:v2 <- $rax
	.loc	3 29 167                        # crypto_shorthash/siphash24/ref/shorthash_siphash24_ref.c:29:167
	xorq	%r9, %r8
.Ltmp31:
	#DEBUG_VALUE: crypto_shorthash_siphash24:v3 <- $r8
	.loc	3 30 17                         # crypto_shorthash/siphash24/ref/shorthash_siphash24_ref.c:30:17
	addq	%rcx, %r9
.Ltmp32:
	#DEBUG_VALUE: crypto_shorthash_siphash24:v0 <- $r9
	#DEBUG_VALUE: rotl64:x <- $rcx
	#DEBUG_VALUE: rotl64:b <- 13
	.loc	5 44 21                         # ./include/sodium/private/common.h:44:21 @[ crypto_shorthash/siphash24/ref/shorthash_siphash24_ref.c:30:29 ]
	rolq	$13, %rcx
.Ltmp33:
	#DEBUG_VALUE: crypto_shorthash_siphash24:v1 <- $rcx
	.loc	3 30 52                         # crypto_shorthash/siphash24/ref/shorthash_siphash24_ref.c:30:52
	xorq	%r9, %rcx
.Ltmp34:
	#DEBUG_VALUE: crypto_shorthash_siphash24:v1 <- $rcx
	#DEBUG_VALUE: rotl64:x <- $r9
	#DEBUG_VALUE: rotl64:b <- 32
	.loc	5 44 21                         # ./include/sodium/private/common.h:44:21 @[ crypto_shorthash/siphash24/ref/shorthash_siphash24_ref.c:30:64 ]
	rolq	$32, %r9
.Ltmp35:
	#DEBUG_VALUE: crypto_shorthash_siphash24:v0 <- $r9
	.loc	3 30 87                         # crypto_shorthash/siphash24/ref/shorthash_siphash24_ref.c:30:87
	addq	%r8, %rax
.Ltmp36:
	#DEBUG_VALUE: crypto_shorthash_siphash24:v2 <- $rax
	#DEBUG_VALUE: rotl64:x <- $r8
	#DEBUG_VALUE: rotl64:b <- 16
	.loc	5 44 21                         # ./include/sodium/private/common.h:44:21 @[ crypto_shorthash/siphash24/ref/shorthash_siphash24_ref.c:30:99 ]
	rolq	$16, %r8
.Ltmp37:
	#DEBUG_VALUE: crypto_shorthash_siphash24:v3 <- $r8
	.loc	3 30 122                        # crypto_shorthash/siphash24/ref/shorthash_siphash24_ref.c:30:122
	xorq	%rax, %r8
.Ltmp38:
	#DEBUG_VALUE: crypto_shorthash_siphash24:v3 <- $r8
	.loc	3 30 132 is_stmt 0              # crypto_shorthash/siphash24/ref/shorthash_siphash24_ref.c:30:132
	addq	%r8, %r9
.Ltmp39:
	#DEBUG_VALUE: crypto_shorthash_siphash24:v0 <- $r9
	#DEBUG_VALUE: rotl64:x <- $r8
	#DEBUG_VALUE: rotl64:b <- 21
	.loc	5 44 21 is_stmt 1               # ./include/sodium/private/common.h:44:21 @[ crypto_shorthash/siphash24/ref/shorthash_siphash24_ref.c:30:144 ]
	rolq	$21, %r8
.Ltmp40:
	#DEBUG_VALUE: crypto_shorthash_siphash24:v3 <- $r8
	#DEBUG_VALUE: crypto_shorthash_siphash24:v3 <- undef
	.loc	3 30 177                        # crypto_shorthash/siphash24/ref/shorthash_siphash24_ref.c:30:177
	addq	%rcx, %rax
.Ltmp41:
	#DEBUG_VALUE: crypto_shorthash_siphash24:v2 <- $rax
	#DEBUG_VALUE: rotl64:x <- $rcx
	#DEBUG_VALUE: rotl64:b <- 17
	.loc	5 44 21                         # ./include/sodium/private/common.h:44:21 @[ crypto_shorthash/siphash24/ref/shorthash_siphash24_ref.c:30:189 ]
	rolq	$17, %rcx
.Ltmp42:
	#DEBUG_VALUE: crypto_shorthash_siphash24:v1 <- $rcx
	.loc	3 30 212                        # crypto_shorthash/siphash24/ref/shorthash_siphash24_ref.c:30:212
	xorq	%rax, %rcx
.Ltmp43:
	#DEBUG_VALUE: crypto_shorthash_siphash24:v1 <- $rcx
	#DEBUG_VALUE: rotl64:x <- $rax
	#DEBUG_VALUE: rotl64:b <- 32
	.loc	5 44 21                         # ./include/sodium/private/common.h:44:21 @[ crypto_shorthash/siphash24/ref/shorthash_siphash24_ref.c:30:224 ]
	rolq	$32, %rax
.Ltmp44:
	#DEBUG_VALUE: crypto_shorthash_siphash24:v2 <- $rax
	.loc	3 30 167                        # crypto_shorthash/siphash24/ref/shorthash_siphash24_ref.c:30:167
	xorq	%r9, %r8
.Ltmp45:
	#DEBUG_VALUE: crypto_shorthash_siphash24:v3 <- $r8
	.loc	3 31 12                         # crypto_shorthash/siphash24/ref/shorthash_siphash24_ref.c:31:12
	xorq	%r15, %r9
.Ltmp46:
	#DEBUG_VALUE: crypto_shorthash_siphash24:in <- [DW_OP_LLVM_arg 0, DW_OP_consts 8, DW_OP_div, DW_OP_consts 8, DW_OP_mul, DW_OP_consts 8, DW_OP_LLVM_arg 0, DW_OP_plus, DW_OP_plus, DW_OP_stack_value] undef
	#DEBUG_VALUE: crypto_shorthash_siphash24:v0 <- $r9
	.loc	3 26 15                         # crypto_shorthash/siphash24/ref/shorthash_siphash24_ref.c:26:15
	addq	$8, %r14
.Ltmp47:
	cmpq	%r14, %rbx
.Ltmp48:
	.loc	3 26 5 is_stmt 0                # crypto_shorthash/siphash24/ref/shorthash_siphash24_ref.c:26:5
	jne	.LBB0_2
.Ltmp49:
# %bb.3:
	#DEBUG_VALUE: crypto_shorthash_siphash24:out <- $rdi
	#DEBUG_VALUE: crypto_shorthash_siphash24:inlen <- $rdx
	#DEBUG_VALUE: crypto_shorthash_siphash24:k <- [DW_OP_LLVM_entry_value 1] $rcx
	#DEBUG_VALUE: crypto_shorthash_siphash24:v0 <- $r9
	#DEBUG_VALUE: crypto_shorthash_siphash24:v1 <- $rcx
	#DEBUG_VALUE: crypto_shorthash_siphash24:v2 <- $rax
	#DEBUG_VALUE: crypto_shorthash_siphash24:v3 <- $r8
	#DEBUG_VALUE: crypto_shorthash_siphash24:left <- $r10d
	#DEBUG_VALUE: crypto_shorthash_siphash24:end <- $r11
	#DEBUG_VALUE: memcpy:__len <- 8
	#DEBUG_VALUE: crypto_shorthash_siphash24:m <- $r15
	#DEBUG_VALUE: rotl64:b <- 13
	#DEBUG_VALUE: rotl64:b <- 32
	#DEBUG_VALUE: rotl64:b <- 16
	#DEBUG_VALUE: rotl64:b <- 21
	#DEBUG_VALUE: rotl64:b <- 17
	#DEBUG_VALUE: rotl64:b <- 32
	#DEBUG_VALUE: rotl64:b <- 13
	#DEBUG_VALUE: rotl64:b <- 32
	#DEBUG_VALUE: rotl64:b <- 16
	#DEBUG_VALUE: rotl64:b <- 21
	#DEBUG_VALUE: rotl64:b <- 17
	#DEBUG_VALUE: rotl64:b <- 32
	.loc	3 0 5                           # crypto_shorthash/siphash24/ref/shorthash_siphash24_ref.c:0:5
	movq	%r11, %rsi
.Ltmp50:
.LBB0_4:                                # %._crit_edge
	#DEBUG_VALUE: crypto_shorthash_siphash24:out <- $rdi
	#DEBUG_VALUE: crypto_shorthash_siphash24:inlen <- $rdx
	#DEBUG_VALUE: crypto_shorthash_siphash24:k <- [DW_OP_LLVM_entry_value 1] $rcx
	#DEBUG_VALUE: crypto_shorthash_siphash24:v0 <- $r9
	#DEBUG_VALUE: crypto_shorthash_siphash24:v1 <- $rcx
	#DEBUG_VALUE: crypto_shorthash_siphash24:v2 <- $rax
	#DEBUG_VALUE: crypto_shorthash_siphash24:v3 <- $r8
	#DEBUG_VALUE: crypto_shorthash_siphash24:left <- $r10d
	shlq	$56, %rdx
.Ltmp51:
	#DEBUG_VALUE: crypto_shorthash_siphash24:b <- $rdx
	#DEBUG_VALUE: crypto_shorthash_siphash24:inlen <- [DW_OP_LLVM_entry_value 1] $rdx
	.loc	3 33 5 is_stmt 1                # crypto_shorthash/siphash24/ref/shorthash_siphash24_ref.c:33:5
	movl	%r10d, %r10d
.Ltmp52:
	.loc	3 0 5 is_stmt 0                 # crypto_shorthash/siphash24/ref/shorthash_siphash24_ref.c:0:5
	leaq	.LJTI0_0(%rip), %r11
	.loc	3 33 5                          # crypto_shorthash/siphash24/ref/shorthash_siphash24_ref.c:33:5
	movslq	(%r11,%r10,4), %r10
	addq	%r11, %r10
	jmpq	*%r10
.Ltmp53:
.LBB0_5:
	#DEBUG_VALUE: crypto_shorthash_siphash24:out <- $rdi
	#DEBUG_VALUE: crypto_shorthash_siphash24:inlen <- [DW_OP_LLVM_entry_value 1] $rdx
	#DEBUG_VALUE: crypto_shorthash_siphash24:k <- [DW_OP_LLVM_entry_value 1] $rcx
	#DEBUG_VALUE: crypto_shorthash_siphash24:v0 <- $r9
	#DEBUG_VALUE: crypto_shorthash_siphash24:v1 <- $rcx
	#DEBUG_VALUE: crypto_shorthash_siphash24:v2 <- $rax
	#DEBUG_VALUE: crypto_shorthash_siphash24:v3 <- $r8
	#DEBUG_VALUE: crypto_shorthash_siphash24:b <- $rdx
	.loc	3 35 26 is_stmt 1               # crypto_shorthash/siphash24/ref/shorthash_siphash24_ref.c:35:26
	movzbl	6(%rsi), %r10d
	.loc	3 35 33 is_stmt 0               # crypto_shorthash/siphash24/ref/shorthash_siphash24_ref.c:35:33
	shlq	$48, %r10
	.loc	3 35 11                         # crypto_shorthash/siphash24/ref/shorthash_siphash24_ref.c:35:11
	orq	%r10, %rdx
.Ltmp54:
	#DEBUG_VALUE: crypto_shorthash_siphash24:b <- $rdx
.LBB0_6:
	#DEBUG_VALUE: crypto_shorthash_siphash24:out <- $rdi
	#DEBUG_VALUE: crypto_shorthash_siphash24:inlen <- [DW_OP_LLVM_entry_value 1] $rdx
	#DEBUG_VALUE: crypto_shorthash_siphash24:k <- [DW_OP_LLVM_entry_value 1] $rcx
	#DEBUG_VALUE: crypto_shorthash_siphash24:v0 <- $r9
	#DEBUG_VALUE: crypto_shorthash_siphash24:v1 <- $rcx
	#DEBUG_VALUE: crypto_shorthash_siphash24:v2 <- $rax
	#DEBUG_VALUE: crypto_shorthash_siphash24:v3 <- $r8
	#DEBUG_VALUE: crypto_shorthash_siphash24:b <- $rdx
	#DEBUG_VALUE: crypto_shorthash_siphash24:b <- $rdx
	.loc	3 38 26 is_stmt 1               # crypto_shorthash/siphash24/ref/shorthash_siphash24_ref.c:38:26
	movzbl	5(%rsi), %r10d
	.loc	3 38 33 is_stmt 0               # crypto_shorthash/siphash24/ref/shorthash_siphash24_ref.c:38:33
	shlq	$40, %r10
	.loc	3 38 11                         # crypto_shorthash/siphash24/ref/shorthash_siphash24_ref.c:38:11
	orq	%r10, %rdx
.Ltmp55:
	#DEBUG_VALUE: crypto_shorthash_siphash24:b <- $rdx
.LBB0_7:
	#DEBUG_VALUE: crypto_shorthash_siphash24:out <- $rdi
	#DEBUG_VALUE: crypto_shorthash_siphash24:inlen <- [DW_OP_LLVM_entry_value 1] $rdx
	#DEBUG_VALUE: crypto_shorthash_siphash24:k <- [DW_OP_LLVM_entry_value 1] $rcx
	#DEBUG_VALUE: crypto_shorthash_siphash24:v0 <- $r9
	#DEBUG_VALUE: crypto_shorthash_siphash24:v1 <- $rcx
	#DEBUG_VALUE: crypto_shorthash_siphash24:v2 <- $rax
	#DEBUG_VALUE: crypto_shorthash_siphash24:v3 <- $r8
	#DEBUG_VALUE: crypto_shorthash_siphash24:b <- $rdx
	#DEBUG_VALUE: crypto_shorthash_siphash24:b <- $rdx
	.loc	3 41 26 is_stmt 1               # crypto_shorthash/siphash24/ref/shorthash_siphash24_ref.c:41:26
	movzbl	4(%rsi), %r10d
	.loc	3 41 33 is_stmt 0               # crypto_shorthash/siphash24/ref/shorthash_siphash24_ref.c:41:33
	shlq	$32, %r10
	.loc	3 41 11                         # crypto_shorthash/siphash24/ref/shorthash_siphash24_ref.c:41:11
	orq	%r10, %rdx
.Ltmp56:
	#DEBUG_VALUE: crypto_shorthash_siphash24:b <- $rdx
.LBB0_8:
	#DEBUG_VALUE: crypto_shorthash_siphash24:out <- $rdi
	#DEBUG_VALUE: crypto_shorthash_siphash24:inlen <- [DW_OP_LLVM_entry_value 1] $rdx
	#DEBUG_VALUE: crypto_shorthash_siphash24:k <- [DW_OP_LLVM_entry_value 1] $rcx
	#DEBUG_VALUE: crypto_shorthash_siphash24:v0 <- $r9
	#DEBUG_VALUE: crypto_shorthash_siphash24:v1 <- $rcx
	#DEBUG_VALUE: crypto_shorthash_siphash24:v2 <- $rax
	#DEBUG_VALUE: crypto_shorthash_siphash24:v3 <- $r8
	#DEBUG_VALUE: crypto_shorthash_siphash24:b <- $rdx
	#DEBUG_VALUE: crypto_shorthash_siphash24:b <- $rdx
	.loc	3 44 33 is_stmt 1               # crypto_shorthash/siphash24/ref/shorthash_siphash24_ref.c:44:33
	movzbl	3(%rsi), %r10d
	shll	$24, %r10d
	.loc	3 44 11 is_stmt 0               # crypto_shorthash/siphash24/ref/shorthash_siphash24_ref.c:44:11
	orq	%r10, %rdx
.Ltmp57:
	#DEBUG_VALUE: crypto_shorthash_siphash24:b <- $rdx
.LBB0_9:
	#DEBUG_VALUE: crypto_shorthash_siphash24:out <- $rdi
	#DEBUG_VALUE: crypto_shorthash_siphash24:inlen <- [DW_OP_LLVM_entry_value 1] $rdx
	#DEBUG_VALUE: crypto_shorthash_siphash24:k <- [DW_OP_LLVM_entry_value 1] $rcx
	#DEBUG_VALUE: crypto_shorthash_siphash24:v0 <- $r9
	#DEBUG_VALUE: crypto_shorthash_siphash24:v1 <- $rcx
	#DEBUG_VALUE: crypto_shorthash_siphash24:v2 <- $rax
	#DEBUG_VALUE: crypto_shorthash_siphash24:v3 <- $r8
	#DEBUG_VALUE: crypto_shorthash_siphash24:b <- $rdx
	#DEBUG_VALUE: crypto_shorthash_siphash24:b <- $rdx
	.loc	3 47 26 is_stmt 1               # crypto_shorthash/siphash24/ref/shorthash_siphash24_ref.c:47:26
	movzbl	2(%rsi), %r10d
	.loc	3 47 33 is_stmt 0               # crypto_shorthash/siphash24/ref/shorthash_siphash24_ref.c:47:33
	shll	$16, %r10d
	.loc	3 47 11                         # crypto_shorthash/siphash24/ref/shorthash_siphash24_ref.c:47:11
	orq	%r10, %rdx
.Ltmp58:
	#DEBUG_VALUE: crypto_shorthash_siphash24:b <- $rdx
.LBB0_10:
	#DEBUG_VALUE: crypto_shorthash_siphash24:out <- $rdi
	#DEBUG_VALUE: crypto_shorthash_siphash24:inlen <- [DW_OP_LLVM_entry_value 1] $rdx
	#DEBUG_VALUE: crypto_shorthash_siphash24:k <- [DW_OP_LLVM_entry_value 1] $rcx
	#DEBUG_VALUE: crypto_shorthash_siphash24:v0 <- $r9
	#DEBUG_VALUE: crypto_shorthash_siphash24:v1 <- $rcx
	#DEBUG_VALUE: crypto_shorthash_siphash24:v2 <- $rax
	#DEBUG_VALUE: crypto_shorthash_siphash24:v3 <- $r8
	#DEBUG_VALUE: crypto_shorthash_siphash24:b <- $rdx
	#DEBUG_VALUE: crypto_shorthash_siphash24:b <- $rdx
	.loc	3 50 26 is_stmt 1               # crypto_shorthash/siphash24/ref/shorthash_siphash24_ref.c:50:26
	movzbl	1(%rsi), %r10d
	.loc	3 50 33 is_stmt 0               # crypto_shorthash/siphash24/ref/shorthash_siphash24_ref.c:50:33
	shll	$8, %r10d
	.loc	3 50 11                         # crypto_shorthash/siphash24/ref/shorthash_siphash24_ref.c:50:11
	orq	%r10, %rdx
.Ltmp59:
	#DEBUG_VALUE: crypto_shorthash_siphash24:b <- $rdx
.LBB0_11:
	#DEBUG_VALUE: crypto_shorthash_siphash24:out <- $rdi
	#DEBUG_VALUE: crypto_shorthash_siphash24:inlen <- [DW_OP_LLVM_entry_value 1] $rdx
	#DEBUG_VALUE: crypto_shorthash_siphash24:k <- [DW_OP_LLVM_entry_value 1] $rcx
	#DEBUG_VALUE: crypto_shorthash_siphash24:v0 <- $r9
	#DEBUG_VALUE: crypto_shorthash_siphash24:v1 <- $rcx
	#DEBUG_VALUE: crypto_shorthash_siphash24:v2 <- $rax
	#DEBUG_VALUE: crypto_shorthash_siphash24:v3 <- $r8
	#DEBUG_VALUE: crypto_shorthash_siphash24:b <- $rdx
	#DEBUG_VALUE: crypto_shorthash_siphash24:b <- $rdx
	.loc	3 53 26 is_stmt 1               # crypto_shorthash/siphash24/ref/shorthash_siphash24_ref.c:53:26
	movzbl	(%rsi), %esi
	.loc	3 53 11 is_stmt 0               # crypto_shorthash/siphash24/ref/shorthash_siphash24_ref.c:53:11
	orq	%rsi, %rdx
.Ltmp60:
	#DEBUG_VALUE: crypto_shorthash_siphash24:b <- $rdx
.LBB0_12:
	#DEBUG_VALUE: crypto_shorthash_siphash24:out <- $rdi
	#DEBUG_VALUE: crypto_shorthash_siphash24:inlen <- [DW_OP_LLVM_entry_value 1] $rdx
	#DEBUG_VALUE: crypto_shorthash_siphash24:k <- [DW_OP_LLVM_entry_value 1] $rcx
	#DEBUG_VALUE: crypto_shorthash_siphash24:v0 <- $r9
	#DEBUG_VALUE: crypto_shorthash_siphash24:v1 <- $rcx
	#DEBUG_VALUE: crypto_shorthash_siphash24:v2 <- $rax
	#DEBUG_VALUE: crypto_shorthash_siphash24:v3 <- $r8
	#DEBUG_VALUE: crypto_shorthash_siphash24:b <- $rdx
	#DEBUG_VALUE: crypto_shorthash_siphash24:b <- $rdx
	#DEBUG_VALUE: crypto_shorthash_siphash24:v3 <- undef
	.loc	3 59 13 is_stmt 1               # crypto_shorthash/siphash24/ref/shorthash_siphash24_ref.c:59:13
	addq	%rcx, %r9
.Ltmp61:
	#DEBUG_VALUE: crypto_shorthash_siphash24:v0 <- $r9
	#DEBUG_VALUE: rotl64:x <- $rcx
	#DEBUG_VALUE: rotl64:b <- 13
	.loc	5 44 21                         # ./include/sodium/private/common.h:44:21 @[ crypto_shorthash/siphash24/ref/shorthash_siphash24_ref.c:59:25 ]
	rolq	$13, %rcx
.Ltmp62:
	#DEBUG_VALUE: crypto_shorthash_siphash24:v1 <- $rcx
	.loc	3 59 48                         # crypto_shorthash/siphash24/ref/shorthash_siphash24_ref.c:59:48
	xorq	%r9, %rcx
.Ltmp63:
	#DEBUG_VALUE: crypto_shorthash_siphash24:v1 <- $rcx
	#DEBUG_VALUE: rotl64:x <- $r9
	#DEBUG_VALUE: rotl64:b <- 32
	.loc	5 44 21                         # ./include/sodium/private/common.h:44:21 @[ crypto_shorthash/siphash24/ref/shorthash_siphash24_ref.c:59:60 ]
	rolq	$32, %r9
.Ltmp64:
	#DEBUG_VALUE: crypto_shorthash_siphash24:v0 <- $r9
	.loc	3 58 8                          # crypto_shorthash/siphash24/ref/shorthash_siphash24_ref.c:58:8
	xorq	%rdx, %r8
.Ltmp65:
	#DEBUG_VALUE: crypto_shorthash_siphash24:v3 <- $r8
	.loc	3 59 83                         # crypto_shorthash/siphash24/ref/shorthash_siphash24_ref.c:59:83
	addq	%r8, %rax
.Ltmp66:
	#DEBUG_VALUE: crypto_shorthash_siphash24:v2 <- $rax
	#DEBUG_VALUE: rotl64:x <- $r8
	#DEBUG_VALUE: rotl64:b <- 16
	.loc	5 44 21                         # ./include/sodium/private/common.h:44:21 @[ crypto_shorthash/siphash24/ref/shorthash_siphash24_ref.c:59:95 ]
	rolq	$16, %r8
.Ltmp67:
	#DEBUG_VALUE: crypto_shorthash_siphash24:v3 <- $r8
	.loc	3 59 118                        # crypto_shorthash/siphash24/ref/shorthash_siphash24_ref.c:59:118
	xorq	%rax, %r8
.Ltmp68:
	#DEBUG_VALUE: crypto_shorthash_siphash24:v3 <- $r8
	.loc	3 59 128 is_stmt 0              # crypto_shorthash/siphash24/ref/shorthash_siphash24_ref.c:59:128
	addq	%r8, %r9
.Ltmp69:
	#DEBUG_VALUE: crypto_shorthash_siphash24:v0 <- $r9
	#DEBUG_VALUE: rotl64:x <- $r8
	#DEBUG_VALUE: rotl64:b <- 21
	.loc	5 44 21 is_stmt 1               # ./include/sodium/private/common.h:44:21 @[ crypto_shorthash/siphash24/ref/shorthash_siphash24_ref.c:59:140 ]
	rolq	$21, %r8
.Ltmp70:
	#DEBUG_VALUE: crypto_shorthash_siphash24:v3 <- $r8
	#DEBUG_VALUE: crypto_shorthash_siphash24:v3 <- undef
	.loc	3 59 173                        # crypto_shorthash/siphash24/ref/shorthash_siphash24_ref.c:59:173
	addq	%rcx, %rax
.Ltmp71:
	#DEBUG_VALUE: crypto_shorthash_siphash24:v2 <- $rax
	#DEBUG_VALUE: rotl64:x <- $rcx
	#DEBUG_VALUE: rotl64:b <- 17
	.loc	5 44 21                         # ./include/sodium/private/common.h:44:21 @[ crypto_shorthash/siphash24/ref/shorthash_siphash24_ref.c:59:185 ]
	rolq	$17, %rcx
.Ltmp72:
	#DEBUG_VALUE: crypto_shorthash_siphash24:v1 <- $rcx
	.loc	3 59 208                        # crypto_shorthash/siphash24/ref/shorthash_siphash24_ref.c:59:208
	xorq	%rax, %rcx
.Ltmp73:
	#DEBUG_VALUE: crypto_shorthash_siphash24:v1 <- $rcx
	#DEBUG_VALUE: rotl64:x <- $rax
	#DEBUG_VALUE: rotl64:b <- 32
	.loc	5 44 21                         # ./include/sodium/private/common.h:44:21 @[ crypto_shorthash/siphash24/ref/shorthash_siphash24_ref.c:59:220 ]
	rolq	$32, %rax
.Ltmp74:
	#DEBUG_VALUE: crypto_shorthash_siphash24:v2 <- $rax
	.loc	3 59 163                        # crypto_shorthash/siphash24/ref/shorthash_siphash24_ref.c:59:163
	xorq	%r9, %r8
.Ltmp75:
	#DEBUG_VALUE: crypto_shorthash_siphash24:v3 <- $r8
	.loc	3 60 13                         # crypto_shorthash/siphash24/ref/shorthash_siphash24_ref.c:60:13
	addq	%rcx, %r9
.Ltmp76:
	#DEBUG_VALUE: crypto_shorthash_siphash24:v0 <- $r9
	#DEBUG_VALUE: rotl64:x <- $rcx
	#DEBUG_VALUE: rotl64:b <- 13
	.loc	5 44 21                         # ./include/sodium/private/common.h:44:21 @[ crypto_shorthash/siphash24/ref/shorthash_siphash24_ref.c:60:25 ]
	rolq	$13, %rcx
.Ltmp77:
	#DEBUG_VALUE: crypto_shorthash_siphash24:v1 <- $rcx
	.loc	3 60 48                         # crypto_shorthash/siphash24/ref/shorthash_siphash24_ref.c:60:48
	xorq	%r9, %rcx
.Ltmp78:
	#DEBUG_VALUE: crypto_shorthash_siphash24:v1 <- $rcx
	#DEBUG_VALUE: rotl64:x <- $r9
	#DEBUG_VALUE: rotl64:b <- 32
	.loc	5 44 21                         # ./include/sodium/private/common.h:44:21 @[ crypto_shorthash/siphash24/ref/shorthash_siphash24_ref.c:60:60 ]
	rolq	$32, %r9
.Ltmp79:
	#DEBUG_VALUE: crypto_shorthash_siphash24:v0 <- $r9
	.loc	3 60 83                         # crypto_shorthash/siphash24/ref/shorthash_siphash24_ref.c:60:83
	addq	%r8, %rax
.Ltmp80:
	#DEBUG_VALUE: crypto_shorthash_siphash24:v2 <- $rax
	#DEBUG_VALUE: rotl64:x <- $r8
	#DEBUG_VALUE: rotl64:b <- 16
	.loc	5 44 21                         # ./include/sodium/private/common.h:44:21 @[ crypto_shorthash/siphash24/ref/shorthash_siphash24_ref.c:60:95 ]
	rolq	$16, %r8
.Ltmp81:
	#DEBUG_VALUE: crypto_shorthash_siphash24:v3 <- $r8
	.loc	3 60 118                        # crypto_shorthash/siphash24/ref/shorthash_siphash24_ref.c:60:118
	xorq	%rax, %r8
.Ltmp82:
	#DEBUG_VALUE: crypto_shorthash_siphash24:v3 <- $r8
	.loc	3 60 128 is_stmt 0              # crypto_shorthash/siphash24/ref/shorthash_siphash24_ref.c:60:128
	addq	%r8, %r9
.Ltmp83:
	#DEBUG_VALUE: crypto_shorthash_siphash24:v0 <- $r9
	#DEBUG_VALUE: rotl64:x <- $r8
	#DEBUG_VALUE: rotl64:b <- 21
	.loc	5 44 21 is_stmt 1               # ./include/sodium/private/common.h:44:21 @[ crypto_shorthash/siphash24/ref/shorthash_siphash24_ref.c:60:140 ]
	rolq	$21, %r8
.Ltmp84:
	#DEBUG_VALUE: crypto_shorthash_siphash24:v3 <- $r8
	#DEBUG_VALUE: crypto_shorthash_siphash24:v3 <- undef
	.loc	3 60 173                        # crypto_shorthash/siphash24/ref/shorthash_siphash24_ref.c:60:173
	addq	%rcx, %rax
.Ltmp85:
	#DEBUG_VALUE: crypto_shorthash_siphash24:v2 <- $rax
	#DEBUG_VALUE: rotl64:x <- $rcx
	#DEBUG_VALUE: rotl64:b <- 17
	.loc	5 44 21                         # ./include/sodium/private/common.h:44:21 @[ crypto_shorthash/siphash24/ref/shorthash_siphash24_ref.c:60:185 ]
	rolq	$17, %rcx
.Ltmp86:
	#DEBUG_VALUE: crypto_shorthash_siphash24:v1 <- $rcx
	.loc	3 60 163                        # crypto_shorthash/siphash24/ref/shorthash_siphash24_ref.c:60:163
	xorq	%r9, %r8
.Ltmp87:
	#DEBUG_VALUE: crypto_shorthash_siphash24:v3 <- $r8
	.loc	3 60 208 is_stmt 0              # crypto_shorthash/siphash24/ref/shorthash_siphash24_ref.c:60:208
	xorq	%rax, %rcx
.Ltmp88:
	#DEBUG_VALUE: crypto_shorthash_siphash24:v1 <- $rcx
	#DEBUG_VALUE: rotl64:x <- $rax
	#DEBUG_VALUE: rotl64:b <- 32
	.loc	5 44 21 is_stmt 1               # ./include/sodium/private/common.h:44:21 @[ crypto_shorthash/siphash24/ref/shorthash_siphash24_ref.c:60:220 ]
	rolq	$32, %rax
.Ltmp89:
	#DEBUG_VALUE: crypto_shorthash_siphash24:v2 <- $rax
	.loc	3 61 8                          # crypto_shorthash/siphash24/ref/shorthash_siphash24_ref.c:61:8
	xorq	%rdx, %r9
.Ltmp90:
	#DEBUG_VALUE: crypto_shorthash_siphash24:v0 <- $r9
	#DEBUG_VALUE: crypto_shorthash_siphash24:v2 <- undef
	.loc	3 63 13                         # crypto_shorthash/siphash24/ref/shorthash_siphash24_ref.c:63:13
	addq	%rcx, %r9
.Ltmp91:
	#DEBUG_VALUE: crypto_shorthash_siphash24:v0 <- $r9
	#DEBUG_VALUE: rotl64:x <- $rcx
	#DEBUG_VALUE: rotl64:b <- 13
	.loc	5 44 21                         # ./include/sodium/private/common.h:44:21 @[ crypto_shorthash/siphash24/ref/shorthash_siphash24_ref.c:63:25 ]
	rolq	$13, %rcx
.Ltmp92:
	#DEBUG_VALUE: crypto_shorthash_siphash24:v1 <- $rcx
	.loc	3 63 48                         # crypto_shorthash/siphash24/ref/shorthash_siphash24_ref.c:63:48
	xorq	%r9, %rcx
.Ltmp93:
	#DEBUG_VALUE: crypto_shorthash_siphash24:v1 <- $rcx
	#DEBUG_VALUE: rotl64:x <- $r9
	#DEBUG_VALUE: rotl64:b <- 32
	.loc	5 44 21                         # ./include/sodium/private/common.h:44:21 @[ crypto_shorthash/siphash24/ref/shorthash_siphash24_ref.c:63:60 ]
	rolq	$32, %r9
.Ltmp94:
	#DEBUG_VALUE: crypto_shorthash_siphash24:v0 <- $r9
	.loc	3 62 8                          # crypto_shorthash/siphash24/ref/shorthash_siphash24_ref.c:62:8
	xorq	$255, %rax
.Ltmp95:
	#DEBUG_VALUE: crypto_shorthash_siphash24:v2 <- $rax
	.loc	3 63 83                         # crypto_shorthash/siphash24/ref/shorthash_siphash24_ref.c:63:83
	addq	%r8, %rax
.Ltmp96:
	#DEBUG_VALUE: crypto_shorthash_siphash24:v2 <- $rax
	#DEBUG_VALUE: rotl64:x <- $r8
	#DEBUG_VALUE: rotl64:b <- 16
	.loc	5 44 21                         # ./include/sodium/private/common.h:44:21 @[ crypto_shorthash/siphash24/ref/shorthash_siphash24_ref.c:63:95 ]
	rolq	$16, %r8
.Ltmp97:
	#DEBUG_VALUE: crypto_shorthash_siphash24:v3 <- $r8
	.loc	3 63 118                        # crypto_shorthash/siphash24/ref/shorthash_siphash24_ref.c:63:118
	xorq	%rax, %r8
.Ltmp98:
	#DEBUG_VALUE: crypto_shorthash_siphash24:v3 <- $r8
	.loc	3 63 128 is_stmt 0              # crypto_shorthash/siphash24/ref/shorthash_siphash24_ref.c:63:128
	addq	%r8, %r9
.Ltmp99:
	#DEBUG_VALUE: crypto_shorthash_siphash24:v0 <- $r9
	#DEBUG_VALUE: rotl64:x <- $r8
	#DEBUG_VALUE: rotl64:b <- 21
	.loc	5 44 21 is_stmt 1               # ./include/sodium/private/common.h:44:21 @[ crypto_shorthash/siphash24/ref/shorthash_siphash24_ref.c:63:140 ]
	rolq	$21, %r8
.Ltmp100:
	#DEBUG_VALUE: crypto_shorthash_siphash24:v3 <- $r8
	#DEBUG_VALUE: crypto_shorthash_siphash24:v3 <- undef
	.loc	3 63 173                        # crypto_shorthash/siphash24/ref/shorthash_siphash24_ref.c:63:173
	addq	%rcx, %rax
.Ltmp101:
	#DEBUG_VALUE: crypto_shorthash_siphash24:v2 <- $rax
	#DEBUG_VALUE: rotl64:x <- $rcx
	#DEBUG_VALUE: rotl64:b <- 17
	.loc	5 44 21                         # ./include/sodium/private/common.h:44:21 @[ crypto_shorthash/siphash24/ref/shorthash_siphash24_ref.c:63:185 ]
	rolq	$17, %rcx
.Ltmp102:
	#DEBUG_VALUE: crypto_shorthash_siphash24:v1 <- $rcx
	.loc	3 63 208                        # crypto_shorthash/siphash24/ref/shorthash_siphash24_ref.c:63:208
	xorq	%rax, %rcx
.Ltmp103:
	#DEBUG_VALUE: crypto_shorthash_siphash24:v1 <- $rcx
	#DEBUG_VALUE: rotl64:x <- $rax
	#DEBUG_VALUE: rotl64:b <- 32
	.loc	5 44 21                         # ./include/sodium/private/common.h:44:21 @[ crypto_shorthash/siphash24/ref/shorthash_siphash24_ref.c:63:220 ]
	rolq	$32, %rax
.Ltmp104:
	#DEBUG_VALUE: crypto_shorthash_siphash24:v2 <- $rax
	.loc	3 63 163                        # crypto_shorthash/siphash24/ref/shorthash_siphash24_ref.c:63:163
	xorq	%r9, %r8
.Ltmp105:
	#DEBUG_VALUE: crypto_shorthash_siphash24:v3 <- $r8
	.loc	3 64 13                         # crypto_shorthash/siphash24/ref/shorthash_siphash24_ref.c:64:13
	addq	%rcx, %r9
.Ltmp106:
	#DEBUG_VALUE: crypto_shorthash_siphash24:v0 <- $r9
	#DEBUG_VALUE: rotl64:x <- $rcx
	#DEBUG_VALUE: rotl64:b <- 13
	.loc	5 44 21                         # ./include/sodium/private/common.h:44:21 @[ crypto_shorthash/siphash24/ref/shorthash_siphash24_ref.c:64:25 ]
	rolq	$13, %rcx
.Ltmp107:
	#DEBUG_VALUE: crypto_shorthash_siphash24:v1 <- $rcx
	.loc	3 64 48                         # crypto_shorthash/siphash24/ref/shorthash_siphash24_ref.c:64:48
	xorq	%r9, %rcx
.Ltmp108:
	#DEBUG_VALUE: crypto_shorthash_siphash24:v1 <- $rcx
	#DEBUG_VALUE: rotl64:x <- $r9
	#DEBUG_VALUE: rotl64:b <- 32
	.loc	5 44 21                         # ./include/sodium/private/common.h:44:21 @[ crypto_shorthash/siphash24/ref/shorthash_siphash24_ref.c:64:60 ]
	rolq	$32, %r9
.Ltmp109:
	#DEBUG_VALUE: crypto_shorthash_siphash24:v0 <- $r9
	.loc	3 64 83                         # crypto_shorthash/siphash24/ref/shorthash_siphash24_ref.c:64:83
	addq	%r8, %rax
.Ltmp110:
	#DEBUG_VALUE: crypto_shorthash_siphash24:v2 <- $rax
	#DEBUG_VALUE: rotl64:x <- $r8
	#DEBUG_VALUE: rotl64:b <- 16
	.loc	5 44 21                         # ./include/sodium/private/common.h:44:21 @[ crypto_shorthash/siphash24/ref/shorthash_siphash24_ref.c:64:95 ]
	rolq	$16, %r8
.Ltmp111:
	#DEBUG_VALUE: crypto_shorthash_siphash24:v3 <- $r8
	.loc	3 64 118                        # crypto_shorthash/siphash24/ref/shorthash_siphash24_ref.c:64:118
	xorq	%rax, %r8
.Ltmp112:
	#DEBUG_VALUE: crypto_shorthash_siphash24:v3 <- $r8
	.loc	3 64 128 is_stmt 0              # crypto_shorthash/siphash24/ref/shorthash_siphash24_ref.c:64:128
	addq	%r8, %r9
.Ltmp113:
	#DEBUG_VALUE: crypto_shorthash_siphash24:v0 <- $r9
	#DEBUG_VALUE: rotl64:x <- $r8
	#DEBUG_VALUE: rotl64:b <- 21
	.loc	5 44 21 is_stmt 1               # ./include/sodium/private/common.h:44:21 @[ crypto_shorthash/siphash24/ref/shorthash_siphash24_ref.c:64:140 ]
	rolq	$21, %r8
.Ltmp114:
	#DEBUG_VALUE: crypto_shorthash_siphash24:v3 <- $r8
	#DEBUG_VALUE: crypto_shorthash_siphash24:v3 <- undef
	.loc	3 64 173                        # crypto_shorthash/siphash24/ref/shorthash_siphash24_ref.c:64:173
	addq	%rcx, %rax
.Ltmp115:
	#DEBUG_VALUE: crypto_shorthash_siphash24:v2 <- $rax
	#DEBUG_VALUE: rotl64:x <- $rcx
	#DEBUG_VALUE: rotl64:b <- 17
	.loc	5 44 21                         # ./include/sodium/private/common.h:44:21 @[ crypto_shorthash/siphash24/ref/shorthash_siphash24_ref.c:64:185 ]
	rolq	$17, %rcx
.Ltmp116:
	#DEBUG_VALUE: crypto_shorthash_siphash24:v1 <- $rcx
	.loc	3 64 208                        # crypto_shorthash/siphash24/ref/shorthash_siphash24_ref.c:64:208
	xorq	%rax, %rcx
.Ltmp117:
	#DEBUG_VALUE: crypto_shorthash_siphash24:v1 <- $rcx
	#DEBUG_VALUE: rotl64:x <- $rax
	#DEBUG_VALUE: rotl64:b <- 32
	.loc	5 44 21                         # ./include/sodium/private/common.h:44:21 @[ crypto_shorthash/siphash24/ref/shorthash_siphash24_ref.c:64:220 ]
	rolq	$32, %rax
.Ltmp118:
	#DEBUG_VALUE: crypto_shorthash_siphash24:v2 <- $rax
	.loc	3 64 163                        # crypto_shorthash/siphash24/ref/shorthash_siphash24_ref.c:64:163
	xorq	%r9, %r8
.Ltmp119:
	#DEBUG_VALUE: crypto_shorthash_siphash24:v3 <- $r8
	.loc	3 65 13                         # crypto_shorthash/siphash24/ref/shorthash_siphash24_ref.c:65:13
	addq	%rcx, %r9
.Ltmp120:
	#DEBUG_VALUE: crypto_shorthash_siphash24:v0 <- $r9
	#DEBUG_VALUE: rotl64:x <- $rcx
	#DEBUG_VALUE: rotl64:b <- 13
	.loc	5 44 21                         # ./include/sodium/private/common.h:44:21 @[ crypto_shorthash/siphash24/ref/shorthash_siphash24_ref.c:65:25 ]
	rolq	$13, %rcx
.Ltmp121:
	#DEBUG_VALUE: crypto_shorthash_siphash24:v1 <- $rcx
	.loc	3 65 48                         # crypto_shorthash/siphash24/ref/shorthash_siphash24_ref.c:65:48
	xorq	%r9, %rcx
.Ltmp122:
	#DEBUG_VALUE: crypto_shorthash_siphash24:v1 <- $rcx
	#DEBUG_VALUE: rotl64:x <- $r9
	#DEBUG_VALUE: rotl64:b <- 32
	.loc	5 44 21                         # ./include/sodium/private/common.h:44:21 @[ crypto_shorthash/siphash24/ref/shorthash_siphash24_ref.c:65:60 ]
	rolq	$32, %r9
.Ltmp123:
	#DEBUG_VALUE: crypto_shorthash_siphash24:v0 <- $r9
	.loc	3 65 83                         # crypto_shorthash/siphash24/ref/shorthash_siphash24_ref.c:65:83
	addq	%r8, %rax
.Ltmp124:
	#DEBUG_VALUE: crypto_shorthash_siphash24:v2 <- $rax
	#DEBUG_VALUE: rotl64:x <- $r8
	#DEBUG_VALUE: rotl64:b <- 16
	.loc	5 44 21                         # ./include/sodium/private/common.h:44:21 @[ crypto_shorthash/siphash24/ref/shorthash_siphash24_ref.c:65:95 ]
	rolq	$16, %r8
.Ltmp125:
	#DEBUG_VALUE: crypto_shorthash_siphash24:v3 <- $r8
	.loc	3 65 118                        # crypto_shorthash/siphash24/ref/shorthash_siphash24_ref.c:65:118
	xorq	%rax, %r8
.Ltmp126:
	#DEBUG_VALUE: crypto_shorthash_siphash24:v3 <- $r8
	.loc	3 65 128 is_stmt 0              # crypto_shorthash/siphash24/ref/shorthash_siphash24_ref.c:65:128
	addq	%r8, %r9
.Ltmp127:
	#DEBUG_VALUE: crypto_shorthash_siphash24:v0 <- $r9
	#DEBUG_VALUE: rotl64:x <- $r8
	#DEBUG_VALUE: rotl64:b <- 21
	.loc	5 44 21 is_stmt 1               # ./include/sodium/private/common.h:44:21 @[ crypto_shorthash/siphash24/ref/shorthash_siphash24_ref.c:65:140 ]
	rolq	$21, %r8
.Ltmp128:
	#DEBUG_VALUE: crypto_shorthash_siphash24:v3 <- $r8
	#DEBUG_VALUE: crypto_shorthash_siphash24:v3 <- undef
	.loc	3 65 173                        # crypto_shorthash/siphash24/ref/shorthash_siphash24_ref.c:65:173
	addq	%rcx, %rax
.Ltmp129:
	#DEBUG_VALUE: crypto_shorthash_siphash24:v2 <- $rax
	#DEBUG_VALUE: rotl64:x <- $rcx
	#DEBUG_VALUE: rotl64:b <- 17
	.loc	5 44 21                         # ./include/sodium/private/common.h:44:21 @[ crypto_shorthash/siphash24/ref/shorthash_siphash24_ref.c:65:185 ]
	rolq	$17, %rcx
.Ltmp130:
	#DEBUG_VALUE: crypto_shorthash_siphash24:v1 <- $rcx
	.loc	3 65 208                        # crypto_shorthash/siphash24/ref/shorthash_siphash24_ref.c:65:208
	xorq	%rax, %rcx
.Ltmp131:
	#DEBUG_VALUE: crypto_shorthash_siphash24:v1 <- $rcx
	#DEBUG_VALUE: rotl64:x <- $rax
	#DEBUG_VALUE: rotl64:b <- 32
	.loc	5 44 21                         # ./include/sodium/private/common.h:44:21 @[ crypto_shorthash/siphash24/ref/shorthash_siphash24_ref.c:65:220 ]
	rolq	$32, %rax
.Ltmp132:
	#DEBUG_VALUE: crypto_shorthash_siphash24:v2 <- $rax
	.loc	3 65 163                        # crypto_shorthash/siphash24/ref/shorthash_siphash24_ref.c:65:163
	xorq	%r9, %r8
.Ltmp133:
	#DEBUG_VALUE: crypto_shorthash_siphash24:v3 <- $r8
	.loc	3 66 13                         # crypto_shorthash/siphash24/ref/shorthash_siphash24_ref.c:66:13
	addq	%rcx, %r9
.Ltmp134:
	#DEBUG_VALUE: crypto_shorthash_siphash24:v0 <- $r9
	#DEBUG_VALUE: rotl64:x <- $rcx
	#DEBUG_VALUE: rotl64:b <- 13
	.loc	5 44 21                         # ./include/sodium/private/common.h:44:21 @[ crypto_shorthash/siphash24/ref/shorthash_siphash24_ref.c:66:25 ]
	rolq	$13, %rcx
.Ltmp135:
	#DEBUG_VALUE: crypto_shorthash_siphash24:v1 <- $rcx
	#DEBUG_VALUE: crypto_shorthash_siphash24:v1 <- undef
	#DEBUG_VALUE: rotl64:b <- 32
	#DEBUG_VALUE: crypto_shorthash_siphash24:v0 <- undef
	.loc	3 66 83                         # crypto_shorthash/siphash24/ref/shorthash_siphash24_ref.c:66:83
	addq	%r8, %rax
.Ltmp136:
	#DEBUG_VALUE: crypto_shorthash_siphash24:v2 <- $rax
	#DEBUG_VALUE: rotl64:x <- $r8
	#DEBUG_VALUE: rotl64:b <- 16
	.loc	5 44 21                         # ./include/sodium/private/common.h:44:21 @[ crypto_shorthash/siphash24/ref/shorthash_siphash24_ref.c:66:95 ]
	rolq	$16, %r8
.Ltmp137:
	#DEBUG_VALUE: crypto_shorthash_siphash24:v3 <- $r8
	.loc	3 66 118                        # crypto_shorthash/siphash24/ref/shorthash_siphash24_ref.c:66:118
	xorq	%rax, %r8
.Ltmp138:
	#DEBUG_VALUE: crypto_shorthash_siphash24:v3 <- $r8
	#DEBUG_VALUE: rotl64:x <- $r8
	#DEBUG_VALUE: rotl64:b <- 21
	.loc	5 44 21                         # ./include/sodium/private/common.h:44:21 @[ crypto_shorthash/siphash24/ref/shorthash_siphash24_ref.c:66:140 ]
	rolq	$21, %r8
.Ltmp139:
	#DEBUG_VALUE: crypto_shorthash_siphash24:v3 <- undef
	.loc	3 66 48                         # crypto_shorthash/siphash24/ref/shorthash_siphash24_ref.c:66:48
	xorq	%r9, %rcx
.Ltmp140:
	#DEBUG_VALUE: crypto_shorthash_siphash24:v1 <- $rcx
	.loc	3 66 173 is_stmt 0              # crypto_shorthash/siphash24/ref/shorthash_siphash24_ref.c:66:173
	addq	%rcx, %rax
.Ltmp141:
	#DEBUG_VALUE: crypto_shorthash_siphash24:v2 <- $rax
	#DEBUG_VALUE: rotl64:x <- $rcx
	#DEBUG_VALUE: rotl64:b <- 17
	.loc	5 44 21 is_stmt 1               # ./include/sodium/private/common.h:44:21 @[ crypto_shorthash/siphash24/ref/shorthash_siphash24_ref.c:66:185 ]
	rolq	$17, %rcx
.Ltmp142:
	#DEBUG_VALUE: crypto_shorthash_siphash24:v1 <- [DW_OP_LLVM_arg 0, DW_OP_LLVM_arg 1, DW_OP_xor, DW_OP_stack_value] $rcx, $rax
	#DEBUG_VALUE: rotl64:x <- $rax
	#DEBUG_VALUE: rotl64:b <- 32
	.loc	3 67 17                         # crypto_shorthash/siphash24/ref/shorthash_siphash24_ref.c:67:17
	xorq	%r8, %rcx
.Ltmp143:
	.loc	5 44 21                         # ./include/sodium/private/common.h:44:21 @[ crypto_shorthash/siphash24/ref/shorthash_siphash24_ref.c:66:220 ]
	movq	%rax, %rdx
.Ltmp144:
	rolq	$32, %rdx
.Ltmp145:
	#DEBUG_VALUE: crypto_shorthash_siphash24:v2 <- $rdx
	.loc	3 67 22                         # crypto_shorthash/siphash24/ref/shorthash_siphash24_ref.c:67:22
	xorq	%rax, %rdx
.Ltmp146:
	xorq	%rcx, %rdx
.Ltmp147:
	#DEBUG_VALUE: crypto_shorthash_siphash24:b <- $rdx
	#DEBUG_VALUE: store64_le:dst <- $rdi
	#DEBUG_VALUE: store64_le:w <- undef
	#DEBUG_VALUE: memcpy:__dest <- $rdi
	#DEBUG_VALUE: memcpy:__src <- undef
	#DEBUG_VALUE: memcpy:__len <- 8
	.loc	4 29 10                         # /usr/include/x86_64-linux-gnu/bits/string_fortified.h:29:10 @[ ./include/sodium/private/common.h:87:5 @[ crypto_shorthash/siphash24/ref/shorthash_siphash24_ref.c:68:5 ] ]
	movq	%rdx, (%rdi)
.Ltmp148:
	.loc	3 70 5                          # crypto_shorthash/siphash24/ref/shorthash_siphash24_ref.c:70:5
	xorl	%eax, %eax
.Ltmp149:
	.loc	3 70 5 epilogue_begin is_stmt 0 # crypto_shorthash/siphash24/ref/shorthash_siphash24_ref.c:70:5
	popq	%rbx
	.cfi_def_cfa_offset 24
	popq	%r14
	.cfi_def_cfa_offset 16
	popq	%r15
	.cfi_def_cfa_offset 8
	retq
.Ltmp150:
.Lfunc_end0:
	.size	crypto_shorthash_siphash24, .Lfunc_end0-crypto_shorthash_siphash24
	.cfi_endproc
	.section	.rodata,"a",@progbits
	.p2align	2, 0x0
.LJTI0_0:
	.long	.LBB0_12-.LJTI0_0
	.long	.LBB0_11-.LJTI0_0
	.long	.LBB0_10-.LJTI0_0
	.long	.LBB0_9-.LJTI0_0
	.long	.LBB0_8-.LJTI0_0
	.long	.LBB0_7-.LJTI0_0
	.long	.LBB0_6-.LJTI0_0
	.long	.LBB0_5-.LJTI0_0
	.file	6 "/home/leizhenyuu/opt/Anonymous_Repo" "llvm-project/build/lib/clang/21/include/__stddef_size_t.h"
                                        # -- End function
	.section	".note.GNU-stack","",@progbits
	.addrsig