	.file	"shorthash_siphashx24_ref.c"
	.file	0 "/home/leizhenyuu/opt/Anonymous_Repo/libsodium_o2_attr_inline/src/libsodium" "shorthash_siphashx24_ref.c" md5 0x540c3d53c267a2da18b32829de15a37c
	.file	1 "/usr/include/x86_64-linux-gnu/bits" "types.h"
	.file	2 "/usr/include/x86_64-linux-gnu/bits" "stdint-uintn.h"
	.text
	.globl	crypto_shorthash_siphashx24     # -- Begin function crypto_shorthash_siphashx24
	.p2align	4
	.type	crypto_shorthash_siphashx24,@function
crypto_shorthash_siphashx24:            # @crypto_shorthash_siphashx24
.Lfunc_begin0:
	.file	3 "crypto_shorthash/siphash24/ref" "shorthash_siphashx24_ref.c"
	.loc	3 8 0                           # crypto_shorthash/siphash24/ref/shorthash_siphashx24_ref.c:8:0
	.cfi_startproc
# %bb.0:
	#DEBUG_VALUE: crypto_shorthash_siphashx24:out <- $rdi
	#DEBUG_VALUE: crypto_shorthash_siphashx24:in <- $rsi
	#DEBUG_VALUE: crypto_shorthash_siphashx24:inlen <- $rdx
	#DEBUG_VALUE: crypto_shorthash_siphashx24:k <- $rcx
	#DEBUG_VALUE: load64_le:src <- $rcx
	#DEBUG_VALUE: memcpy:__src <- $rcx
	#DEBUG_VALUE: memcpy:__len <- 8
	pushq	%r15
	.cfi_def_cfa_offset 16
	pushq	%r14
	.cfi_def_cfa_offset 24
	pushq	%rbx
	.cfi_def_cfa_offset 32
	.cfi_offset %rbx, -32
	.cfi_offset %r14, -24
	.cfi_offset %r15, -16
.Ltmp0:
	#DEBUG_VALUE: crypto_shorthash_siphashx24:v0 <- 8317987319222330741
	#DEBUG_VALUE: crypto_shorthash_siphashx24:v1 <- 7237128888997146499
	#DEBUG_VALUE: crypto_shorthash_siphashx24:v2 <- 7816392313619706465
	#DEBUG_VALUE: crypto_shorthash_siphashx24:v3 <- 8387220255154660723
	.file	4 "/usr/include/x86_64-linux-gnu/bits" "string_fortified.h"
	.loc	4 29 10 prologue_end            # /usr/include/x86_64-linux-gnu/bits/string_fortified.h:29:10 @[ ./include/sodium/private/common.h:67:5 @[ crypto_shorthash/siphash24/ref/shorthash_siphashx24_ref.c:14:19 ] ]
	movq	(%rcx), %r11
.Ltmp1:
	#DEBUG_VALUE: crypto_shorthash_siphashx24:k0 <- $r11
	#DEBUG_VALUE: memcpy:__len <- 8
	#DEBUG_VALUE: load64_le:src <- [DW_OP_plus_uconst 8, DW_OP_stack_value] $rcx
	#DEBUG_VALUE: memcpy:__src <- [DW_OP_plus_uconst 8, DW_OP_stack_value] $rcx
	.loc	4 29 10 is_stmt 0               # /usr/include/x86_64-linux-gnu/bits/string_fortified.h:29:10 @[ ./include/sodium/private/common.h:67:5 @[ crypto_shorthash/siphash24/ref/shorthash_siphashx24_ref.c:15:19 ] ]
	movq	8(%rcx), %r9
.Ltmp2:
	#DEBUG_VALUE: crypto_shorthash_siphashx24:k1 <- $r9
	.loc	3 17 46 is_stmt 1               # crypto_shorthash/siphash24/ref/shorthash_siphashx24_ref.c:17:46
	movl	%edx, %r10d
	andl	$7, %r10d
.Ltmp3:
	#DEBUG_VALUE: crypto_shorthash_siphashx24:left <- $r10d
	#DEBUG_VALUE: crypto_shorthash_siphashx24:end <- undef
	#DEBUG_VALUE: crypto_shorthash_siphashx24:b <- undef
	.loc	3 0 46 is_stmt 0                # crypto_shorthash/siphash24/ref/shorthash_siphashx24_ref.c:0:46
	movabsq	$8387220255154660723, %rcx      # imm = 0x7465646279746573
.Ltmp4:
	#DEBUG_VALUE: crypto_shorthash_siphashx24:k <- [DW_OP_LLVM_entry_value 1] $rcx
	.loc	3 21 8 is_stmt 1                # crypto_shorthash/siphash24/ref/shorthash_siphashx24_ref.c:21:8
	xorq	%r9, %rcx
.Ltmp5:
	#DEBUG_VALUE: crypto_shorthash_siphashx24:v3 <- $rcx
	.loc	3 0 8 is_stmt 0                 # crypto_shorthash/siphash24/ref/shorthash_siphashx24_ref.c:0:8
	movabsq	$7816392313619706465, %rax      # imm = 0x6C7967656E657261
	.loc	3 22 8 is_stmt 1                # crypto_shorthash/siphash24/ref/shorthash_siphashx24_ref.c:22:8
	xorq	%r11, %rax
.Ltmp6:
	#DEBUG_VALUE: crypto_shorthash_siphashx24:v2 <- $rax
	.loc	3 0 8 is_stmt 0                 # crypto_shorthash/siphash24/ref/shorthash_siphashx24_ref.c:0:8
	movabsq	$7237128888997146499, %r8       # imm = 0x646F72616E646F83
	.loc	3 23 8 is_stmt 1                # crypto_shorthash/siphash24/ref/shorthash_siphashx24_ref.c:23:8
	xorq	%r9, %r8
.Ltmp7:
	#DEBUG_VALUE: crypto_shorthash_siphashx24:v1 <- $r8
	.loc	3 0 8 is_stmt 0                 # crypto_shorthash/siphash24/ref/shorthash_siphashx24_ref.c:0:8
	movabsq	$8317987319222330741, %r9       # imm = 0x736F6D6570736575
.Ltmp8:
	.loc	3 24 8 is_stmt 1                # crypto_shorthash/siphash24/ref/shorthash_siphashx24_ref.c:24:8
	xorq	%r11, %r9
.Ltmp9:
	#DEBUG_VALUE: crypto_shorthash_siphashx24:v0 <- $r9
	.loc	3 25 15                         # crypto_shorthash/siphash24/ref/shorthash_siphashx24_ref.c:25:15
	cmpq	$8, %rdx
.Ltmp10:
	.loc	3 25 5 is_stmt 0                # crypto_shorthash/siphash24/ref/shorthash_siphashx24_ref.c:25:5
	jb	.LBB0_4
.Ltmp11:
# %bb.1:                                # %.lr.ph.preheader
	#DEBUG_VALUE: crypto_shorthash_siphashx24:out <- $rdi
	#DEBUG_VALUE: crypto_shorthash_siphashx24:in <- $rsi
	#DEBUG_VALUE: crypto_shorthash_siphashx24:inlen <- $rdx
	#DEBUG_VALUE: crypto_shorthash_siphashx24:k <- [DW_OP_LLVM_entry_value 1] $rcx
	#DEBUG_VALUE: crypto_shorthash_siphashx24:v0 <- $r9
	#DEBUG_VALUE: crypto_shorthash_siphashx24:v1 <- $r8
	#DEBUG_VALUE: crypto_shorthash_siphashx24:v2 <- $rax
	#DEBUG_VALUE: crypto_shorthash_siphashx24:v3 <- $rcx
	#DEBUG_VALUE: crypto_shorthash_siphashx24:k0 <- $r11
	#DEBUG_VALUE: crypto_shorthash_siphashx24:left <- $r10d
	.loc	3 0 0                           # crypto_shorthash/siphash24/ref/shorthash_siphashx24_ref.c:0
	leaq	(%rsi,%rdx), %r11
.Ltmp12:
	subq	%r10, %r11
.Ltmp13:
	#DEBUG_VALUE: crypto_shorthash_siphashx24:end <- $r11
	.loc	3 25 5                          # crypto_shorthash/siphash24/ref/shorthash_siphashx24_ref.c:25:5
	movq	%rdx, %rbx
	andq	$-8, %rbx
	xorl	%r14d, %r14d
.Ltmp14:
	.loc	3 0 5                           # :0:5
.Ltmp15:
	.p2align	4
.LBB0_2:                                # %.lr.ph
                                        # =>This Inner Loop Header: Depth=1
	#DEBUG_VALUE: crypto_shorthash_siphashx24:out <- $rdi
	#DEBUG_VALUE: crypto_shorthash_siphashx24:inlen <- $rdx
	#DEBUG_VALUE: crypto_shorthash_siphashx24:k <- [DW_OP_LLVM_entry_value 1] $rcx
	#DEBUG_VALUE: crypto_shorthash_siphashx24:v0 <- $r9
	#DEBUG_VALUE: crypto_shorthash_siphashx24:v1 <- $r8
	#DEBUG_VALUE: crypto_shorthash_siphashx24:v2 <- $rax
	#DEBUG_VALUE: crypto_shorthash_siphashx24:v3 <- $rcx
	#DEBUG_VALUE: crypto_shorthash_siphashx24:left <- $r10d
	#DEBUG_VALUE: crypto_shorthash_siphashx24:end <- $r11
	#DEBUG_VALUE: crypto_shorthash_siphashx24:in <- [DW_OP_LLVM_arg 0, DW_OP_consts 8, DW_OP_div, DW_OP_consts 8, DW_OP_mul, DW_OP_LLVM_arg 0, DW_OP_plus, DW_OP_stack_value] undef
	#DEBUG_VALUE: crypto_shorthash_siphashx24:v0 <- $r9
	#DEBUG_VALUE: crypto_shorthash_siphashx24:v1 <- $r8
	#DEBUG_VALUE: crypto_shorthash_siphashx24:v2 <- $rax
	#DEBUG_VALUE: crypto_shorthash_siphashx24:v3 <- $rcx
	#DEBUG_VALUE: load64_le:w <- undef
	#DEBUG_VALUE: load64_le:src <- [DW_OP_LLVM_arg 0, DW_OP_consts 8, DW_OP_div, DW_OP_consts 8, DW_OP_mul, DW_OP_LLVM_arg 1, DW_OP_plus, DW_OP_stack_value] $r14, $rsi
	#DEBUG_VALUE: memcpy:__dest <- undef
	#DEBUG_VALUE: memcpy:__src <- [DW_OP_LLVM_arg 0, DW_OP_consts 8, DW_OP_div, DW_OP_consts 8, DW_OP_mul, DW_OP_LLVM_arg 1, DW_OP_plus, DW_OP_stack_value] $r14, $rsi
	#DEBUG_VALUE: memcpy:__len <- 8
	#DEBUG_VALUE: crypto_shorthash_siphashx24:m <- undef
	#DEBUG_VALUE: crypto_shorthash_siphashx24:v3 <- undef
	.loc	3 28 17 is_stmt 1               # crypto_shorthash/siphash24/ref/shorthash_siphashx24_ref.c:28:17
	addq	%r8, %r9
.Ltmp16:
	#DEBUG_VALUE: crypto_shorthash_siphashx24:v0 <- $r9
	#DEBUG_VALUE: rotl64:x <- $r8
	#DEBUG_VALUE: rotl64:b <- 13
	.file	5 "./include/sodium/private" "common.h"
	.loc	5 44 21                         # ./include/sodium/private/common.h:44:21 @[ crypto_shorthash/siphash24/ref/shorthash_siphashx24_ref.c:28:29 ]
	rolq	$13, %r8
.Ltmp17:
	#DEBUG_VALUE: crypto_shorthash_siphashx24:v1 <- $r8
	.loc	4 29 10                         # /usr/include/x86_64-linux-gnu/bits/string_fortified.h:29:10 @[ ./include/sodium/private/common.h:67:5 @[ crypto_shorthash/siphash24/ref/shorthash_siphashx24_ref.c:26:13 ] ]
	movq	(%rsi,%r14), %r15
.Ltmp18:
	#DEBUG_VALUE: crypto_shorthash_siphashx24:m <- $r15
	.loc	3 28 52                         # crypto_shorthash/siphash24/ref/shorthash_siphashx24_ref.c:28:52
	xorq	%r9, %r8
.Ltmp19:
	#DEBUG_VALUE: crypto_shorthash_siphashx24:v1 <- $r8
	#DEBUG_VALUE: rotl64:x <- $r9
	#DEBUG_VALUE: rotl64:b <- 32
	.loc	5 44 21                         # ./include/sodium/private/common.h:44:21 @[ crypto_shorthash/siphash24/ref/shorthash_siphashx24_ref.c:28:64 ]
	rolq	$32, %r9
.Ltmp20:
	#DEBUG_VALUE: crypto_shorthash_siphashx24:v0 <- $r9
	.loc	3 27 12                         # crypto_shorthash/siphash24/ref/shorthash_siphashx24_ref.c:27:12
	xorq	%r15, %rcx
.Ltmp21:
	#DEBUG_VALUE: crypto_shorthash_siphashx24:v3 <- $rcx
	.loc	3 28 87                         # crypto_shorthash/siphash24/ref/shorthash_siphashx24_ref.c:28:87
	addq	%rcx, %rax
.Ltmp22:
	#DEBUG_VALUE: crypto_shorthash_siphashx24:v2 <- $rax
	#DEBUG_VALUE: rotl64:x <- $rcx
	#DEBUG_VALUE: rotl64:b <- 16
	.loc	5 44 21                         # ./include/sodium/private/common.h:44:21 @[ crypto_shorthash/siphash24/ref/shorthash_siphashx24_ref.c:28:99 ]
	rolq	$16, %rcx
.Ltmp23:
	#DEBUG_VALUE: crypto_shorthash_siphashx24:v3 <- $rcx
	.loc	3 28 122                        # crypto_shorthash/siphash24/ref/shorthash_siphashx24_ref.c:28:122
	xorq	%rax, %rcx
.Ltmp24:
	#DEBUG_VALUE: crypto_shorthash_siphashx24:v3 <- $rcx
	.loc	3 28 132 is_stmt 0              # crypto_shorthash/siphash24/ref/shorthash_siphashx24_ref.c:28:132
	addq	%rcx, %r9
.Ltmp25:
	#DEBUG_VALUE: crypto_shorthash_siphashx24:v0 <- $r9
	#DEBUG_VALUE: rotl64:x <- $rcx
	#DEBUG_VALUE: rotl64:b <- 21
	.loc	5 44 21 is_stmt 1               # ./include/sodium/private/common.h:44:21 @[ crypto_shorthash/siphash24/ref/shorthash_siphashx24_ref.c:28:144 ]
	rolq	$21, %rcx
.Ltmp26:
	#DEBUG_VALUE: crypto_shorthash_siphashx24:v3 <- $rcx
	#DEBUG_VALUE: crypto_shorthash_siphashx24:v3 <- undef
	.loc	3 28 177                        # crypto_shorthash/siphash24/ref/shorthash_siphashx24_ref.c:28:177
	addq	%r8, %rax
.Ltmp27:
	#DEBUG_VALUE: crypto_shorthash_siphashx24:v2 <- $rax
	#DEBUG_VALUE: rotl64:x <- $r8
	#DEBUG_VALUE: rotl64:b <- 17
	.loc	5 44 21                         # ./include/sodium/private/common.h:44:21 @[ crypto_shorthash/siphash24/ref/shorthash_siphashx24_ref.c:28:189 ]
	rolq	$17, %r8
.Ltmp28:
	#DEBUG_VALUE: crypto_shorthash_siphashx24:v1 <- $r8
	.loc	3 28 212                        # crypto_shorthash/siphash24/ref/shorthash_siphashx24_ref.c:28:212
	xorq	%rax, %r8
.Ltmp29:
	#DEBUG_VALUE: crypto_shorthash_siphashx24:v1 <- $r8
	#DEBUG_VALUE: rotl64:x <- $rax
	#DEBUG_VALUE: rotl64:b <- 32
	.loc	5 44 21                         # ./include/sodium/private/common.h:44:21 @[ crypto_shorthash/siphash24/ref/shorthash_siphashx24_ref.c:28:224 ]
	rolq	$32, %rax
.Ltmp30:
	#DEBUG_VALUE: crypto_shorthash_siphashx24:v2 <- $rax
	.loc	3 28 167                        # crypto_shorthash/siphash24/ref/shorthash_siphashx24_ref.c:28:167
	xorq	%r9, %rcx
.Ltmp31:
	#DEBUG_VALUE: crypto_shorthash_siphashx24:v3 <- $rcx
	.loc	3 29 17                         # crypto_shorthash/siphash24/ref/shorthash_siphashx24_ref.c:29:17
	addq	%r8, %r9
.Ltmp32:
	#DEBUG_VALUE: crypto_shorthash_siphashx24:v0 <- $r9
	#DEBUG_VALUE: rotl64:x <- $r8
	#DEBUG_VALUE: rotl64:b <- 13
	.loc	5 44 21                         # ./include/sodium/private/common.h:44:21 @[ crypto_shorthash/siphash24/ref/shorthash_siphashx24_ref.c:29:29 ]
	rolq	$13, %r8
.Ltmp33:
	#DEBUG_VALUE: crypto_shorthash_siphashx24:v1 <- $r8
	.loc	3 29 52                         # crypto_shorthash/siphash24/ref/shorthash_siphashx24_ref.c:29:52
	xorq	%r9, %r8
.Ltmp34:
	#DEBUG_VALUE: crypto_shorthash_siphashx24:v1 <- $r8
	#DEBUG_VALUE: rotl64:x <- $r9
	#DEBUG_VALUE: rotl64:b <- 32
	.loc	5 44 21                         # ./include/sodium/private/common.h:44:21 @[ crypto_shorthash/siphash24/ref/shorthash_siphashx24_ref.c:29:64 ]
	rolq	$32, %r9
.Ltmp35:
	#DEBUG_VALUE: crypto_shorthash_siphashx24:v0 <- $r9
	.loc	3 29 87                         # crypto_shorthash/siphash24/ref/shorthash_siphashx24_ref.c:29:87
	addq	%rcx, %rax
.Ltmp36:
	#DEBUG_VALUE: crypto_shorthash_siphashx24:v2 <- $rax
	#DEBUG_VALUE: rotl64:x <- $rcx
	#DEBUG_VALUE: rotl64:b <- 16
	.loc	5 44 21                         # ./include/sodium/private/common.h:44:21 @[ crypto_shorthash/siphash24/ref/shorthash_siphashx24_ref.c:29:99 ]
	rolq	$16, %rcx
.Ltmp37:
	#DEBUG_VALUE: crypto_shorthash_siphashx24:v3 <- $rcx
	.loc	3 29 122                        # crypto_shorthash/siphash24/ref/shorthash_siphashx24_ref.c:29:122
	xorq	%rax, %rcx
.Ltmp38:
	#DEBUG_VALUE: crypto_shorthash_siphashx24:v3 <- $rcx
	.loc	3 29 132 is_stmt 0              # crypto_shorthash/siphash24/ref/shorthash_siphashx24_ref.c:29:132
	addq	%rcx, %r9
.Ltmp39:
	#DEBUG_VALUE: crypto_shorthash_siphashx24:v0 <- $r9
	#DEBUG_VALUE: rotl64:x <- $rcx
	#DEBUG_VALUE: rotl64:b <- 21
	.loc	5 44 21 is_stmt 1               # ./include/sodium/private/common.h:44:21 @[ crypto_shorthash/siphash24/ref/shorthash_siphashx24_ref.c:29:144 ]
	rolq	$21, %rcx
.Ltmp40:
	#DEBUG_VALUE: crypto_shorthash_siphashx24:v3 <- $rcx
	#DEBUG_VALUE: crypto_shorthash_siphashx24:v3 <- undef
	.loc	3 29 177                        # crypto_shorthash/siphash24/ref/shorthash_siphashx24_ref.c:29:177
	addq	%r8, %rax
.Ltmp41:
	#DEBUG_VALUE: crypto_shorthash_siphashx24:v2 <- $rax
	#DEBUG_VALUE: rotl64:x <- $r8
	#DEBUG_VALUE: rotl64:b <- 17
	.loc	5 44 21                         # ./include/sodium/private/common.h:44:21 @[ crypto_shorthash/siphash24/ref/shorthash_siphashx24_ref.c:29:189 ]
	rolq	$17, %r8
.Ltmp42:
	#DEBUG_VALUE: crypto_shorthash_siphashx24:v1 <- $r8
	.loc	3 29 212                        # crypto_shorthash/siphash24/ref/shorthash_siphashx24_ref.c:29:212
	xorq	%rax, %r8
.Ltmp43:
	#DEBUG_VALUE: crypto_shorthash_siphashx24:v1 <- $r8
	#DEBUG_VALUE: rotl64:x <- $rax
	#DEBUG_VALUE: rotl64:b <- 32
	.loc	5 44 21                         # ./include/sodium/private/common.h:44:21 @[ crypto_shorthash/siphash24/ref/shorthash_siphashx24_ref.c:29:224 ]
	rolq	$32, %rax
.Ltmp44:
	#DEBUG_VALUE: crypto_shorthash_siphashx24:v2 <- $rax
	.loc	3 29 167                        # crypto_shorthash/siphash24/ref/shorthash_siphashx24_ref.c:29:167
	xorq	%r9, %rcx
.Ltmp45:
	#DEBUG_VALUE: crypto_shorthash_siphashx24:v3 <- $rcx
	.loc	3 30 12                         # crypto_shorthash/siphash24/ref/shorthash_siphashx24_ref.c:30:12
	xorq	%r15, %r9
.Ltmp46:
	#DEBUG_VALUE: crypto_shorthash_siphashx24:in <- [DW_OP_LLVM_arg 0, DW_OP_consts 8, DW_OP_div, DW_OP_consts 8, DW_OP_mul, DW_OP_consts 8, DW_OP_LLVM_arg 0, DW_OP_plus, DW_OP_plus, DW_OP_stack_value] undef
	#DEBUG_VALUE: crypto_shorthash_siphashx24:v0 <- $r9
	.loc	3 25 15                         # crypto_shorthash/siphash24/ref/shorthash_siphashx24_ref.c:25:15
	addq	$8, %r14
.Ltmp47:
	cmpq	%r14, %rbx
.Ltmp48:
	.loc	3 25 5 is_stmt 0                # crypto_shorthash/siphash24/ref/shorthash_siphashx24_ref.c:25:5
	jne	.LBB0_2
.Ltmp49:
# %bb.3:
	#DEBUG_VALUE: crypto_shorthash_siphashx24:out <- $rdi
	#DEBUG_VALUE: crypto_shorthash_siphashx24:inlen <- $rdx
	#DEBUG_VALUE: crypto_shorthash_siphashx24:k <- [DW_OP_LLVM_entry_value 1] $rcx
	#DEBUG_VALUE: crypto_shorthash_siphashx24:v0 <- $r9
	#DEBUG_VALUE: crypto_shorthash_siphashx24:v1 <- $r8
	#DEBUG_VALUE: crypto_shorthash_siphashx24:v2 <- $rax
	#DEBUG_VALUE: crypto_shorthash_siphashx24:v3 <- $rcx
	#DEBUG_VALUE: crypto_shorthash_siphashx24:left <- $r10d
	#DEBUG_VALUE: crypto_shorthash_siphashx24:end <- $r11
	#DEBUG_VALUE: memcpy:__len <- 8
	#DEBUG_VALUE: crypto_shorthash_siphashx24:m <- $r15
	#DEBUG_VALUE: rotl64:b <- 13
	#DEBUG_VALUE: rotl64:b <- 32
	#DEBUG_VALUE: rotl64:b <- 16
	#DEBUG_VALUE: rotl64:b <- 21
	#DEBUG_VALUE: rotl64:b <- 17
	#DEBUG_VALUE: rotl64:b <- 32
	#DEBUG_VALUE: rotl64:b <- 13
	#DEBUG_VALUE: rotl64:b <- 32
	#DEBUG_VALUE: rotl64:b <- 16
	#DEBUG_VALUE: rotl64:b <- 21
	#DEBUG_VALUE: rotl64:b <- 17
	#DEBUG_VALUE: rotl64:b <- 32
	.loc	3 0 5                           # crypto_shorthash/siphash24/ref/shorthash_siphashx24_ref.c:0:5
	movq	%r11, %rsi
.Ltmp50:
.LBB0_4:                                # %._crit_edge
	#DEBUG_VALUE: crypto_shorthash_siphashx24:out <- $rdi
	#DEBUG_VALUE: crypto_shorthash_siphashx24:inlen <- $rdx
	#DEBUG_VALUE: crypto_shorthash_siphashx24:k <- [DW_OP_LLVM_entry_value 1] $rcx
	#DEBUG_VALUE: crypto_shorthash_siphashx24:v0 <- $r9
	#DEBUG_VALUE: crypto_shorthash_siphashx24:v1 <- $r8
	#DEBUG_VALUE: crypto_shorthash_siphashx24:v2 <- $rax
	#DEBUG_VALUE: crypto_shorthash_siphashx24:v3 <- $rcx
	#DEBUG_VALUE: crypto_shorthash_siphashx24:left <- $r10d
	shlq	$56, %rdx
.Ltmp51:
	#DEBUG_VALUE: crypto_shorthash_siphashx24:b <- $rdx
	#DEBUG_VALUE: crypto_shorthash_siphashx24:inlen <- [DW_OP_LLVM_entry_value 1] $rdx
	.loc	3 32 5 is_stmt 1                # crypto_shorthash/siphash24/ref/shorthash_siphashx24_ref.c:32:5
	movl	%r10d, %r10d
.Ltmp52:
	.loc	3 0 5 is_stmt 0                 # crypto_shorthash/siphash24/ref/shorthash_siphashx24_ref.c:0:5
	leaq	.LJTI0_0(%rip), %r11
	.loc	3 32 5                          # crypto_shorthash/siphash24/ref/shorthash_siphashx24_ref.c:32:5
	movslq	(%r11,%r10,4), %r10
	addq	%r11, %r10
	jmpq	*%r10
.Ltmp53:
.LBB0_5:
	#DEBUG_VALUE: crypto_shorthash_siphashx24:out <- $rdi
	#DEBUG_VALUE: crypto_shorthash_siphashx24:inlen <- [DW_OP_LLVM_entry_value 1] $rdx
	#DEBUG_VALUE: crypto_shorthash_siphashx24:k <- [DW_OP_LLVM_entry_value 1] $rcx
	#DEBUG_VALUE: crypto_shorthash_siphashx24:v0 <- $r9
	#DEBUG_VALUE: crypto_shorthash_siphashx24:v1 <- $r8
	#DEBUG_VALUE: crypto_shorthash_siphashx24:v2 <- $rax
	#DEBUG_VALUE: crypto_shorthash_siphashx24:v3 <- $rcx
	#DEBUG_VALUE: crypto_shorthash_siphashx24:b <- $rdx
	.loc	3 34 26 is_stmt 1               # crypto_shorthash/siphash24/ref/shorthash_siphashx24_ref.c:34:26
	movzbl	6(%rsi), %r10d
	.loc	3 34 33 is_stmt 0               # crypto_shorthash/siphash24/ref/shorthash_siphashx24_ref.c:34:33
	shlq	$48, %r10
	.loc	3 34 11                         # crypto_shorthash/siphash24/ref/shorthash_siphashx24_ref.c:34:11
	orq	%r10, %rdx
.Ltmp54:
	#DEBUG_VALUE: crypto_shorthash_siphashx24:b <- $rdx
.LBB0_6:
	#DEBUG_VALUE: crypto_shorthash_siphashx24:out <- $rdi
	#DEBUG_VALUE: crypto_shorthash_siphashx24:inlen <- [DW_OP_LLVM_entry_value 1] $rdx
	#DEBUG_VALUE: crypto_shorthash_siphashx24:k <- [DW_OP_LLVM_entry_value 1] $rcx
	#DEBUG_VALUE: crypto_shorthash_siphashx24:v0 <- $r9
	#DEBUG_VALUE: crypto_shorthash_siphashx24:v1 <- $r8
	#DEBUG_VALUE: crypto_shorthash_siphashx24:v2 <- $rax
	#DEBUG_VALUE: crypto_shorthash_siphashx24:v3 <- $rcx
	#DEBUG_VALUE: crypto_shorthash_siphashx24:b <- $rdx
	#DEBUG_VALUE: crypto_shorthash_siphashx24:b <- $rdx
	.loc	3 37 26 is_stmt 1               # crypto_shorthash/siphash24/ref/shorthash_siphashx24_ref.c:37:26
	movzbl	5(%rsi), %r10d
	.loc	3 37 33 is_stmt 0               # crypto_shorthash/siphash24/ref/shorthash_siphashx24_ref.c:37:33
	shlq	$40, %r10
	.loc	3 37 11                         # crypto_shorthash/siphash24/ref/shorthash_siphashx24_ref.c:37:11
	orq	%r10, %rdx
.Ltmp55:
	#DEBUG_VALUE: crypto_shorthash_siphashx24:b <- $rdx
.LBB0_7:
	#DEBUG_VALUE: crypto_shorthash_siphashx24:out <- $rdi
	#DEBUG_VALUE: crypto_shorthash_siphashx24:inlen <- [DW_OP_LLVM_entry_value 1] $rdx
	#DEBUG_VALUE: crypto_shorthash_siphashx24:k <- [DW_OP_LLVM_entry_value 1] $rcx
	#DEBUG_VALUE: crypto_shorthash_siphashx24:v0 <- $r9
	#DEBUG_VALUE: crypto_shorthash_siphashx24:v1 <- $r8
	#DEBUG_VALUE: crypto_shorthash_siphashx24:v2 <- $rax
	#DEBUG_VALUE: crypto_shorthash_siphashx24:v3 <- $rcx
	#DEBUG_VALUE: crypto_shorthash_siphashx24:b <- $rdx
	#DEBUG_VALUE: crypto_shorthash_siphashx24:b <- $rdx
	.loc	3 40 26 is_stmt 1               # crypto_shorthash/siphash24/ref/shorthash_siphashx24_ref.c:40:26
	movzbl	4(%rsi), %r10d
	.loc	3 40 33 is_stmt 0               # crypto_shorthash/siphash24/ref/shorthash_siphashx24_ref.c:40:33
	shlq	$32, %r10
	.loc	3 40 11                         # crypto_shorthash/siphash24/ref/shorthash_siphashx24_ref.c:40:11
	orq	%r10, %rdx
.Ltmp56:
	#DEBUG_VALUE: crypto_shorthash_siphashx24:b <- $rdx
.LBB0_8:
	#DEBUG_VALUE: crypto_shorthash_siphashx24:out <- $rdi
	#DEBUG_VALUE: crypto_shorthash_siphashx24:inlen <- [DW_OP_LLVM_entry_value 1] $rdx
	#DEBUG_VALUE: crypto_shorthash_siphashx24:k <- [DW_OP_LLVM_entry_value 1] $rcx
	#DEBUG_VALUE: crypto_shorthash_siphashx24:v0 <- $r9
	#DEBUG_VALUE: crypto_shorthash_siphashx24:v1 <- $r8
	#DEBUG_VALUE: crypto_shorthash_siphashx24:v2 <- $rax
	#DEBUG_VALUE: crypto_shorthash_siphashx24:v3 <- $rcx
	#DEBUG_VALUE: crypto_shorthash_siphashx24:b <- $rdx
	#DEBUG_VALUE: crypto_shorthash_siphashx24:b <- $rdx
	.loc	3 43 33 is_stmt 1               # crypto_shorthash/siphash24/ref/shorthash_siphashx24_ref.c:43:33
	movzbl	3(%rsi), %r10d
	shll	$24, %r10d
	.loc	3 43 11 is_stmt 0               # crypto_shorthash/siphash24/ref/shorthash_siphashx24_ref.c:43:11
	orq	%r10, %rdx
.Ltmp57:
	#DEBUG_VALUE: crypto_shorthash_siphashx24:b <- $rdx
.LBB0_9:
	#DEBUG_VALUE: crypto_shorthash_siphashx24:out <- $rdi
	#DEBUG_VALUE: crypto_shorthash_siphashx24:inlen <- [DW_OP_LLVM_entry_value 1] $rdx
	#DEBUG_VALUE: crypto_shorthash_siphashx24:k <- [DW_OP_LLVM_entry_value 1] $rcx
	#DEBUG_VALUE: crypto_shorthash_siphashx24:v0 <- $r9
	#DEBUG_VALUE: crypto_shorthash_siphashx24:v1 <- $r8
	#DEBUG_VALUE: crypto_shorthash_siphashx24:v2 <- $rax
	#DEBUG_VALUE: crypto_shorthash_siphashx24:v3 <- $rcx
	#DEBUG_VALUE: crypto_shorthash_siphashx24:b <- $rdx
	#DEBUG_VALUE: crypto_shorthash_siphashx24:b <- $rdx
	.loc	3 46 26 is_stmt 1               # crypto_shorthash/siphash24/ref/shorthash_siphashx24_ref.c:46:26
	movzbl	2(%rsi), %r10d
	.loc	3 46 33 is_stmt 0               # crypto_shorthash/siphash24/ref/shorthash_siphashx24_ref.c:46:33
	shll	$16, %r10d
	.loc	3 46 11                         # crypto_shorthash/siphash24/ref/shorthash_siphashx24_ref.c:46:11
	orq	%r10, %rdx
.Ltmp58:
	#DEBUG_VALUE: crypto_shorthash_siphashx24:b <- $rdx
.LBB0_10:
	#DEBUG_VALUE: crypto_shorthash_siphashx24:out <- $rdi
	#DEBUG_VALUE: crypto_shorthash_siphashx24:inlen <- [DW_OP_LLVM_entry_value 1] $rdx
	#DEBUG_VALUE: crypto_shorthash_siphashx24:k <- [DW_OP_LLVM_entry_value 1] $rcx
	#DEBUG_VALUE: crypto_shorthash_siphashx24:v0 <- $r9
	#DEBUG_VALUE: crypto_shorthash_siphashx24:v1 <- $r8
	#DEBUG_VALUE: crypto_shorthash_siphashx24:v2 <- $rax
	#DEBUG_VALUE: crypto_shorthash_siphashx24:v3 <- $rcx
	#DEBUG_VALUE: crypto_shorthash_siphashx24:b <- $rdx
	#DEBUG_VALUE: crypto_shorthash_siphashx24:b <- $rdx
	.loc	3 49 26 is_stmt 1               # crypto_shorthash/siphash24/ref/shorthash_siphashx24_ref.c:49:26
	movzbl	1(%rsi), %r10d
	.loc	3 49 33 is_stmt 0               # crypto_shorthash/siphash24/ref/shorthash_siphashx24_ref.c:49:33
	shll	$8, %r10d
	.loc	3 49 11                         # crypto_shorthash/siphash24/ref/shorthash_siphashx24_ref.c:49:11
	orq	%r10, %rdx
.Ltmp59:
	#DEBUG_VALUE: crypto_shorthash_siphashx24:b <- $rdx
.LBB0_11:
	#DEBUG_VALUE: crypto_shorthash_siphashx24:out <- $rdi
	#DEBUG_VALUE: crypto_shorthash_siphashx24:inlen <- [DW_OP_LLVM_entry_value 1] $rdx
	#DEBUG_VALUE: crypto_shorthash_siphashx24:k <- [DW_OP_LLVM_entry_value 1] $rcx
	#DEBUG_VALUE: crypto_shorthash_siphashx24:v0 <- $r9
	#DEBUG_VALUE: crypto_shorthash_siphashx24:v1 <- $r8
	#DEBUG_VALUE: crypto_shorthash_siphashx24:v2 <- $rax
	#DEBUG_VALUE: crypto_shorthash_siphashx24:v3 <- $rcx
	#DEBUG_VALUE: crypto_shorthash_siphashx24:b <- $rdx
	#DEBUG_VALUE: crypto_shorthash_siphashx24:b <- $rdx
	.loc	3 52 26 is_stmt 1               # crypto_shorthash/siphash24/ref/shorthash_siphashx24_ref.c:52:26
	movzbl	(%rsi), %esi
	.loc	3 52 11 is_stmt 0               # crypto_shorthash/siphash24/ref/shorthash_siphashx24_ref.c:52:11
	orq	%rsi, %rdx
.Ltmp60:
	#DEBUG_VALUE: crypto_shorthash_siphashx24:b <- $rdx
.LBB0_12:
	#DEBUG_VALUE: crypto_shorthash_siphashx24:out <- $rdi
	#DEBUG_VALUE: crypto_shorthash_siphashx24:inlen <- [DW_OP_LLVM_entry_value 1] $rdx
	#DEBUG_VALUE: crypto_shorthash_siphashx24:k <- [DW_OP_LLVM_entry_value 1] $rcx
	#DEBUG_VALUE: crypto_shorthash_siphashx24:v0 <- $r9
	#DEBUG_VALUE: crypto_shorthash_siphashx24:v1 <- $r8
	#DEBUG_VALUE: crypto_shorthash_siphashx24:v2 <- $rax
	#DEBUG_VALUE: crypto_shorthash_siphashx24:v3 <- $rcx
	#DEBUG_VALUE: crypto_shorthash_siphashx24:b <- $rdx
	#DEBUG_VALUE: crypto_shorthash_siphashx24:b <- $rdx
	#DEBUG_VALUE: crypto_shorthash_siphashx24:v3 <- undef
	.loc	3 58 13 is_stmt 1               # crypto_shorthash/siphash24/ref/shorthash_siphashx24_ref.c:58:13
	addq	%r8, %r9
.Ltmp61:
	#DEBUG_VALUE: crypto_shorthash_siphashx24:v0 <- $r9
	#DEBUG_VALUE: rotl64:x <- $r8
	#DEBUG_VALUE: rotl64:b <- 13
	.loc	5 44 21                         # ./include/sodium/private/common.h:44:21 @[ crypto_shorthash/siphash24/ref/shorthash_siphashx24_ref.c:58:25 ]
	rolq	$13, %r8
.Ltmp62:
	#DEBUG_VALUE: crypto_shorthash_siphashx24:v1 <- $r8
	.loc	3 58 48                         # crypto_shorthash/siphash24/ref/shorthash_siphashx24_ref.c:58:48
	xorq	%r9, %r8
.Ltmp63:
	#DEBUG_VALUE: crypto_shorthash_siphashx24:v1 <- $r8
	#DEBUG_VALUE: rotl64:x <- $r9
	#DEBUG_VALUE: rotl64:b <- 32
	.loc	5 44 21                         # ./include/sodium/private/common.h:44:21 @[ crypto_shorthash/siphash24/ref/shorthash_siphashx24_ref.c:58:60 ]
	rolq	$32, %r9
.Ltmp64:
	#DEBUG_VALUE: crypto_shorthash_siphashx24:v0 <- $r9
	.loc	3 57 8                          # crypto_shorthash/siphash24/ref/shorthash_siphashx24_ref.c:57:8
	xorq	%rdx, %rcx
.Ltmp65:
	#DEBUG_VALUE: crypto_shorthash_siphashx24:v3 <- $rcx
	.loc	3 58 83                         # crypto_shorthash/siphash24/ref/shorthash_siphashx24_ref.c:58:83
	addq	%rcx, %rax
.Ltmp66:
	#DEBUG_VALUE: crypto_shorthash_siphashx24:v2 <- $rax
	#DEBUG_VALUE: rotl64:x <- $rcx
	#DEBUG_VALUE: rotl64:b <- 16
	.loc	5 44 21                         # ./include/sodium/private/common.h:44:21 @[ crypto_shorthash/siphash24/ref/shorthash_siphashx24_ref.c:58:95 ]
	rolq	$16, %rcx
.Ltmp67:
	#DEBUG_VALUE: crypto_shorthash_siphashx24:v3 <- $rcx
	.loc	3 58 118                        # crypto_shorthash/siphash24/ref/shorthash_siphashx24_ref.c:58:118
	xorq	%rax, %rcx
.Ltmp68:
	#DEBUG_VALUE: crypto_shorthash_siphashx24:v3 <- $rcx
	.loc	3 58 128 is_stmt 0              # crypto_shorthash/siphash24/ref/shorthash_siphashx24_ref.c:58:128
	addq	%rcx, %r9
.Ltmp69:
	#DEBUG_VALUE: crypto_shorthash_siphashx24:v0 <- $r9
	#DEBUG_VALUE: rotl64:x <- $rcx
	#DEBUG_VALUE: rotl64:b <- 21
	.loc	5 44 21 is_stmt 1               # ./include/sodium/private/common.h:44:21 @[ crypto_shorthash/siphash24/ref/shorthash_siphashx24_ref.c:58:140 ]
	rolq	$21, %rcx
.Ltmp70:
	#DEBUG_VALUE: crypto_shorthash_siphashx24:v3 <- $rcx
	#DEBUG_VALUE: crypto_shorthash_siphashx24:v3 <- undef
	.loc	3 58 173                        # crypto_shorthash/siphash24/ref/shorthash_siphashx24_ref.c:58:173
	addq	%r8, %rax
.Ltmp71:
	#DEBUG_VALUE: crypto_shorthash_siphashx24:v2 <- $rax
	#DEBUG_VALUE: rotl64:x <- $r8
	#DEBUG_VALUE: rotl64:b <- 17
	.loc	5 44 21                         # ./include/sodium/private/common.h:44:21 @[ crypto_shorthash/siphash24/ref/shorthash_siphashx24_ref.c:58:185 ]
	rolq	$17, %r8
.Ltmp72:
	#DEBUG_VALUE: crypto_shorthash_siphashx24:v1 <- $r8
	.loc	3 58 208                        # crypto_shorthash/siphash24/ref/shorthash_siphashx24_ref.c:58:208
	xorq	%rax, %r8
.Ltmp73:
	#DEBUG_VALUE: crypto_shorthash_siphashx24:v1 <- $r8
	#DEBUG_VALUE: rotl64:x <- $rax
	#DEBUG_VALUE: rotl64:b <- 32
	.loc	5 44 21                         # ./include/sodium/private/common.h:44:21 @[ crypto_shorthash/siphash24/ref/shorthash_siphashx24_ref.c:58:220 ]
	rolq	$32, %rax
.Ltmp74:
	#DEBUG_VALUE: crypto_shorthash_siphashx24:v2 <- $rax
	.loc	3 58 163                        # crypto_shorthash/siphash24/ref/shorthash_siphashx24_ref.c:58:163
	xorq	%r9, %rcx
.Ltmp75:
	#DEBUG_VALUE: crypto_shorthash_siphashx24:v3 <- $rcx
	.loc	3 59 13                         # crypto_shorthash/siphash24/ref/shorthash_siphashx24_ref.c:59:13
	addq	%r8, %r9
.Ltmp76:
	#DEBUG_VALUE: crypto_shorthash_siphashx24:v0 <- $r9
	#DEBUG_VALUE: rotl64:x <- $r8
	#DEBUG_VALUE: rotl64:b <- 13
	.loc	5 44 21                         # ./include/sodium/private/common.h:44:21 @[ crypto_shorthash/siphash24/ref/shorthash_siphashx24_ref.c:59:25 ]
	rolq	$13, %r8
.Ltmp77:
	#DEBUG_VALUE: crypto_shorthash_siphashx24:v1 <- $r8
	.loc	3 59 48                         # crypto_shorthash/siphash24/ref/shorthash_siphashx24_ref.c:59:48
	xorq	%r9, %r8
.Ltmp78:
	#DEBUG_VALUE: crypto_shorthash_siphashx24:v1 <- $r8
	#DEBUG_VALUE: rotl64:x <- $r9
	#DEBUG_VALUE: rotl64:b <- 32
	.loc	5 44 21                         # ./include/sodium/private/common.h:44:21 @[ crypto_shorthash/siphash24/ref/shorthash_siphashx24_ref.c:59:60 ]
	rolq	$32, %r9
.Ltmp79:
	#DEBUG_VALUE: crypto_shorthash_siphashx24:v0 <- $r9
	.loc	3 59 83                         # crypto_shorthash/siphash24/ref/shorthash_siphashx24_ref.c:59:83
	addq	%rcx, %rax
.Ltmp80:
	#DEBUG_VALUE: crypto_shorthash_siphashx24:v2 <- $rax
	#DEBUG_VALUE: rotl64:x <- $rcx
	#DEBUG_VALUE: rotl64:b <- 16
	.loc	5 44 21                         # ./include/sodium/private/common.h:44:21 @[ crypto_shorthash/siphash24/ref/shorthash_siphashx24_ref.c:59:95 ]
	rolq	$16, %rcx
.Ltmp81:
	#DEBUG_VALUE: crypto_shorthash_siphashx24:v3 <- $rcx
	.loc	3 59 118                        # crypto_shorthash/siphash24/ref/shorthash_siphashx24_ref.c:59:118
	xorq	%rax, %rcx
.Ltmp82:
	#DEBUG_VALUE: crypto_shorthash_siphashx24:v3 <- $rcx
	.loc	3 59 128 is_stmt 0              # crypto_shorthash/siphash24/ref/shorthash_siphashx24_ref.c:59:128
	addq	%rcx, %r9
.Ltmp83:
	#DEBUG_VALUE: crypto_shorthash_siphashx24:v0 <- $r9
	#DEBUG_VALUE: rotl64:x <- $rcx
	#DEBUG_VALUE: rotl64:b <- 21
	.loc	5 44 21 is_stmt 1               # ./include/sodium/private/common.h:44:21 @[ crypto_shorthash/siphash24/ref/shorthash_siphashx24_ref.c:59:140 ]
	rolq	$21, %rcx
.Ltmp84:
	#DEBUG_VALUE: crypto_shorthash_siphashx24:v3 <- $rcx
	#DEBUG_VALUE: crypto_shorthash_siphashx24:v3 <- undef
	.loc	3 59 173                        # crypto_shorthash/siphash24/ref/shorthash_siphashx24_ref.c:59:173
	addq	%r8, %rax
.Ltmp85:
	#DEBUG_VALUE: crypto_shorthash_siphashx24:v2 <- $rax
	#DEBUG_VALUE: rotl64:x <- $r8
	#DEBUG_VALUE: rotl64:b <- 17
	.loc	5 44 21                         # ./include/sodium/private/common.h:44:21 @[ crypto_shorthash/siphash24/ref/shorthash_siphashx24_ref.c:59:185 ]
	rolq	$17, %r8
.Ltmp86:
	#DEBUG_VALUE: crypto_shorthash_siphashx24:v1 <- $r8
	.loc	3 59 163                        # crypto_shorthash/siphash24/ref/shorthash_siphashx24_ref.c:59:163
	xorq	%r9, %rcx
.Ltmp87:
	#DEBUG_VALUE: crypto_shorthash_siphashx24:v3 <- $rcx
	.loc	3 59 208 is_stmt 0              # crypto_shorthash/siphash24/ref/shorthash_siphashx24_ref.c:59:208
	xorq	%rax, %r8
.Ltmp88:
	#DEBUG_VALUE: crypto_shorthash_siphashx24:v1 <- $r8
	#DEBUG_VALUE: rotl64:x <- $rax
	#DEBUG_VALUE: rotl64:b <- 32
	.loc	5 44 21 is_stmt 1               # ./include/sodium/private/common.h:44:21 @[ crypto_shorthash/siphash24/ref/shorthash_siphashx24_ref.c:59:220 ]
	rolq	$32, %rax
.Ltmp89:
	#DEBUG_VALUE: crypto_shorthash_siphashx24:v2 <- $rax
	.loc	3 60 8                          # crypto_shorthash/siphash24/ref/shorthash_siphashx24_ref.c:60:8
	xorq	%rdx, %r9
.Ltmp90:
	#DEBUG_VALUE: crypto_shorthash_siphashx24:v0 <- $r9
	#DEBUG_VALUE: crypto_shorthash_siphashx24:v2 <- undef
	.loc	3 62 13                         # crypto_shorthash/siphash24/ref/shorthash_siphashx24_ref.c:62:13
	addq	%r8, %r9
.Ltmp91:
	#DEBUG_VALUE: crypto_shorthash_siphashx24:v0 <- $r9
	#DEBUG_VALUE: rotl64:x <- $r8
	#DEBUG_VALUE: rotl64:b <- 13
	.loc	5 44 21                         # ./include/sodium/private/common.h:44:21 @[ crypto_shorthash/siphash24/ref/shorthash_siphashx24_ref.c:62:25 ]
	rolq	$13, %r8
.Ltmp92:
	#DEBUG_VALUE: crypto_shorthash_siphashx24:v1 <- $r8
	.loc	3 62 48                         # crypto_shorthash/siphash24/ref/shorthash_siphashx24_ref.c:62:48
	xorq	%r9, %r8
.Ltmp93:
	#DEBUG_VALUE: crypto_shorthash_siphashx24:v1 <- $r8
	#DEBUG_VALUE: rotl64:x <- $r9
	#DEBUG_VALUE: rotl64:b <- 32
	.loc	5 44 21                         # ./include/sodium/private/common.h:44:21 @[ crypto_shorthash/siphash24/ref/shorthash_siphashx24_ref.c:62:60 ]
	rolq	$32, %r9
.Ltmp94:
	#DEBUG_VALUE: crypto_shorthash_siphashx24:v0 <- $r9
	.loc	3 61 8                          # crypto_shorthash/siphash24/ref/shorthash_siphashx24_ref.c:61:8
	xorq	$238, %rax
.Ltmp95:
	#DEBUG_VALUE: crypto_shorthash_siphashx24:v2 <- $rax
	.loc	3 62 83                         # crypto_shorthash/siphash24/ref/shorthash_siphashx24_ref.c:62:83
	addq	%rcx, %rax
.Ltmp96:
	#DEBUG_VALUE: crypto_shorthash_siphashx24:v2 <- $rax
	#DEBUG_VALUE: rotl64:x <- $rcx
	#DEBUG_VALUE: rotl64:b <- 16
	.loc	5 44 21                         # ./include/sodium/private/common.h:44:21 @[ crypto_shorthash/siphash24/ref/shorthash_siphashx24_ref.c:62:95 ]
	rolq	$16, %rcx
.Ltmp97:
	#DEBUG_VALUE: crypto_shorthash_siphashx24:v3 <- $rcx
	.loc	3 62 118                        # crypto_shorthash/siphash24/ref/shorthash_siphashx24_ref.c:62:118
	xorq	%rax, %rcx
.Ltmp98:
	#DEBUG_VALUE: crypto_shorthash_siphashx24:v3 <- $rcx
	.loc	3 62 128 is_stmt 0              # crypto_shorthash/siphash24/ref/shorthash_siphashx24_ref.c:62:128
	addq	%rcx, %r9
.Ltmp99:
	#DEBUG_VALUE: crypto_shorthash_siphashx24:v0 <- $r9
	#DEBUG_VALUE: rotl64:x <- $rcx
	#DEBUG_VALUE: rotl64:b <- 21
	.loc	5 44 21 is_stmt 1               # ./include/sodium/private/common.h:44:21 @[ crypto_shorthash/siphash24/ref/shorthash_siphashx24_ref.c:62:140 ]
	rolq	$21, %rcx
.Ltmp100:
	#DEBUG_VALUE: crypto_shorthash_siphashx24:v3 <- $rcx
	#DEBUG_VALUE: crypto_shorthash_siphashx24:v3 <- undef
	.loc	3 62 173                        # crypto_shorthash/siphash24/ref/shorthash_siphashx24_ref.c:62:173
	addq	%r8, %rax
.Ltmp101:
	#DEBUG_VALUE: crypto_shorthash_siphashx24:v2 <- $rax
	#DEBUG_VALUE: rotl64:x <- $r8
	#DEBUG_VALUE: rotl64:b <- 17
	.loc	5 44 21                         # ./include/sodium/private/common.h:44:21 @[ crypto_shorthash/siphash24/ref/shorthash_siphashx24_ref.c:62:185 ]
	rolq	$17, %r8
.Ltmp102:
	#DEBUG_VALUE: crypto_shorthash_siphashx24:v1 <- $r8
	.loc	3 62 208                        # crypto_shorthash/siphash24/ref/shorthash_siphashx24_ref.c:62:208
	xorq	%rax, %r8
.Ltmp103:
	#DEBUG_VALUE: crypto_shorthash_siphashx24:v1 <- $r8
	#DEBUG_VALUE: rotl64:x <- $rax
	#DEBUG_VALUE: rotl64:b <- 32
	.loc	5 44 21                         # ./include/sodium/private/common.h:44:21 @[ crypto_shorthash/siphash24/ref/shorthash_siphashx24_ref.c:62:220 ]
	rolq	$32, %rax
.Ltmp104:
	#DEBUG_VALUE: crypto_shorthash_siphashx24:v2 <- $rax
	.loc	3 62 163                        # crypto_shorthash/siphash24/ref/shorthash_siphashx24_ref.c:62:163
	xorq	%r9, %rcx
.Ltmp105:
	#DEBUG_VALUE: crypto_shorthash_siphashx24:v3 <- $rcx
	.loc	3 63 13                         # crypto_shorthash/siphash24/ref/shorthash_siphashx24_ref.c:63:13
	addq	%r8, %r9
.Ltmp106:
	#DEBUG_VALUE: crypto_shorthash_siphashx24:v0 <- $r9
	#DEBUG_VALUE: rotl64:x <- $r8
	#DEBUG_VALUE: rotl64:b <- 13
	.loc	5 44 21                         # ./include/sodium/private/common.h:44:21 @[ crypto_shorthash/siphash24/ref/shorthash_siphashx24_ref.c:63:25 ]
	rolq	$13, %r8
.Ltmp107:
	#DEBUG_VALUE: crypto_shorthash_siphashx24:v1 <- $r8
	.loc	3 63 48                         # crypto_shorthash/siphash24/ref/shorthash_siphashx24_ref.c:63:48
	xorq	%r9, %r8
.Ltmp108:
	#DEBUG_VALUE: crypto_shorthash_siphashx24:v1 <- $r8
	#DEBUG_VALUE: rotl64:x <- $r9
	#DEBUG_VALUE: rotl64:b <- 32
	.loc	5 44 21                         # ./include/sodium/private/common.h:44:21 @[ crypto_shorthash/siphash24/ref/shorthash_siphashx24_ref.c:63:60 ]
	rolq	$32, %r9
.Ltmp109:
	#DEBUG_VALUE: crypto_shorthash_siphashx24:v0 <- $r9
	.loc	3 63 83                         # crypto_shorthash/siphash24/ref/shorthash_siphashx24_ref.c:63:83
	addq	%rcx, %rax
.Ltmp110:
	#DEBUG_VALUE: crypto_shorthash_siphashx24:v2 <- $rax
	#DEBUG_VALUE: rotl64:x <- $rcx
	#DEBUG_VALUE: rotl64:b <- 16
	.loc	5 44 21                         # ./include/sodium/private/common.h:44:21 @[ crypto_shorthash/siphash24/ref/shorthash_siphashx24_ref.c:63:95 ]
	rolq	$16, %rcx
.Ltmp111:
	#DEBUG_VALUE: crypto_shorthash_siphashx24:v3 <- $rcx
	.loc	3 63 118                        # crypto_shorthash/siphash24/ref/shorthash_siphashx24_ref.c:63:118
	xorq	%rax, %rcx
.Ltmp112:
	#DEBUG_VALUE: crypto_shorthash_siphashx24:v3 <- $rcx
	.loc	3 63 128 is_stmt 0              # crypto_shorthash/siphash24/ref/shorthash_siphashx24_ref.c:63:128
	addq	%rcx, %r9
.Ltmp113:
	#DEBUG_VALUE: crypto_shorthash_siphashx24:v0 <- $r9
	#DEBUG_VALUE: rotl64:x <- $rcx
	#DEBUG_VALUE: rotl64:b <- 21
	.loc	5 44 21 is_stmt 1               # ./include/sodium/private/common.h:44:21 @[ crypto_shorthash/siphash24/ref/shorthash_siphashx24_ref.c:63:140 ]
	rolq	$21, %rcx
.Ltmp114:
	#DEBUG_VALUE: crypto_shorthash_siphashx24:v3 <- $rcx
	#DEBUG_VALUE: crypto_shorthash_siphashx24:v3 <- undef
	.loc	3 63 173                        # crypto_shorthash/siphash24/ref/shorthash_siphashx24_ref.c:63:173
	addq	%r8, %rax
.Ltmp115:
	#DEBUG_VALUE: crypto_shorthash_siphashx24:v2 <- $rax
	#DEBUG_VALUE: rotl64:x <- $r8
	#DEBUG_VALUE: rotl64:b <- 17
	.loc	5 44 21                         # ./include/sodium/private/common.h:44:21 @[ crypto_shorthash/siphash24/ref/shorthash_siphashx24_ref.c:63:185 ]
	rolq	$17, %r8
.Ltmp116:
	#DEBUG_VALUE: crypto_shorthash_siphashx24:v1 <- $r8
	.loc	3 63 208                        # crypto_shorthash/siphash24/ref/shorthash_siphashx24_ref.c:63:208
	xorq	%rax, %r8
.Ltmp117:
	#DEBUG_VALUE: crypto_shorthash_siphashx24:v1 <- $r8
	#DEBUG_VALUE: rotl64:x <- $rax
	#DEBUG_VALUE: rotl64:b <- 32
	.loc	5 44 21                         # ./include/sodium/private/common.h:44:21 @[ crypto_shorthash/siphash24/ref/shorthash_siphashx24_ref.c:63:220 ]
	rolq	$32, %rax
.Ltmp118:
	#DEBUG_VALUE: crypto_shorthash_siphashx24:v2 <- $rax
	.loc	3 63 163                        # crypto_shorthash/siphash24/ref/shorthash_siphashx24_ref.c:63:163
	xorq	%r9, %rcx
.Ltmp119:
	#DEBUG_VALUE: crypto_shorthash_siphashx24:v3 <- $rcx
	.loc	3 64 13                         # crypto_shorthash/siphash24/ref/shorthash_siphashx24_ref.c:64:13
	addq	%r8, %r9
.Ltmp120:
	#DEBUG_VALUE: crypto_shorthash_siphashx24:v0 <- $r9
	#DEBUG_VALUE: rotl64:x <- $r8
	#DEBUG_VALUE: rotl64:b <- 13
	.loc	5 44 21                         # ./include/sodium/private/common.h:44:21 @[ crypto_shorthash/siphash24/ref/shorthash_siphashx24_ref.c:64:25 ]
	rolq	$13, %r8
.Ltmp121:
	#DEBUG_VALUE: crypto_shorthash_siphashx24:v1 <- $r8
	.loc	3 64 48                         # crypto_shorthash/siphash24/ref/shorthash_siphashx24_ref.c:64:48
	xorq	%r9, %r8
.Ltmp122:
	#DEBUG_VALUE: crypto_shorthash_siphashx24:v1 <- $r8
	#DEBUG_VALUE: rotl64:x <- $r9
	#DEBUG_VALUE: rotl64:b <- 32
	.loc	5 44 21                         # ./include/sodium/private/common.h:44:21 @[ crypto_shorthash/siphash24/ref/shorthash_siphashx24_ref.c:64:60 ]
	rolq	$32, %r9
.Ltmp123:
	#DEBUG_VALUE: crypto_shorthash_siphashx24:v0 <- $r9
	.loc	3 64 83                         # crypto_shorthash/siphash24/ref/shorthash_siphashx24_ref.c:64:83
	addq	%rcx, %rax
.Ltmp124:
	#DEBUG_VALUE: crypto_shorthash_siphashx24:v2 <- $rax
	#DEBUG_VALUE: rotl64:x <- $rcx
	#DEBUG_VALUE: rotl64:b <- 16
	.loc	5 44 21                         # ./include/sodium/private/common.h:44:21 @[ crypto_shorthash/siphash24/ref/shorthash_siphashx24_ref.c:64:95 ]
	rolq	$16, %rcx
.Ltmp125:
	#DEBUG_VALUE: crypto_shorthash_siphashx24:v3 <- $rcx
	.loc	3 64 118                        # crypto_shorthash/siphash24/ref/shorthash_siphashx24_ref.c:64:118
	xorq	%rax, %rcx
.Ltmp126:
	#DEBUG_VALUE: crypto_shorthash_siphashx24:v3 <- $rcx
	.loc	3 64 128 is_stmt 0              # crypto_shorthash/siphash24/ref/shorthash_siphashx24_ref.c:64:128
	addq	%rcx, %r9
.Ltmp127:
	#DEBUG_VALUE: crypto_shorthash_siphashx24:v0 <- $r9
	#DEBUG_VALUE: rotl64:x <- $rcx
	#DEBUG_VALUE: rotl64:b <- 21
	.loc	5 44 21 is_stmt 1               # ./include/sodium/private/common.h:44:21 @[ crypto_shorthash/siphash24/ref/shorthash_siphashx24_ref.c:64:140 ]
	rolq	$21, %rcx
.Ltmp128:
	#DEBUG_VALUE: crypto_shorthash_siphashx24:v3 <- $rcx
	#DEBUG_VALUE: crypto_shorthash_siphashx24:v3 <- undef
	.loc	3 64 173                        # crypto_shorthash/siphash24/ref/shorthash_siphashx24_ref.c:64:173
	addq	%r8, %rax
.Ltmp129:
	#DEBUG_VALUE: crypto_shorthash_siphashx24:v2 <- $rax
	#DEBUG_VALUE: rotl64:x <- $r8
	#DEBUG_VALUE: rotl64:b <- 17
	.loc	5 44 21                         # ./include/sodium/private/common.h:44:21 @[ crypto_shorthash/siphash24/ref/shorthash_siphashx24_ref.c:64:185 ]
	rolq	$17, %r8
.Ltmp130:
	#DEBUG_VALUE: crypto_shorthash_siphashx24:v1 <- $r8
	.loc	3 64 208                        # crypto_shorthash/siphash24/ref/shorthash_siphashx24_ref.c:64:208
	xorq	%rax, %r8
.Ltmp131:
	#DEBUG_VALUE: crypto_shorthash_siphashx24:v1 <- $r8
	#DEBUG_VALUE: rotl64:x <- $rax
	#DEBUG_VALUE: rotl64:b <- 32
	.loc	5 44 21                         # ./include/sodium/private/common.h:44:21 @[ crypto_shorthash/siphash24/ref/shorthash_siphashx24_ref.c:64:220 ]
	rolq	$32, %rax
.Ltmp132:
	#DEBUG_VALUE: crypto_shorthash_siphashx24:v2 <- $rax
	.loc	3 64 163                        # crypto_shorthash/siphash24/ref/shorthash_siphashx24_ref.c:64:163
	xorq	%r9, %rcx
.Ltmp133:
	#DEBUG_VALUE: crypto_shorthash_siphashx24:v3 <- $rcx
	.loc	3 65 13                         # crypto_shorthash/siphash24/ref/shorthash_siphashx24_ref.c:65:13
	addq	%r8, %r9
.Ltmp134:
	#DEBUG_VALUE: crypto_shorthash_siphashx24:v0 <- $r9
	#DEBUG_VALUE: rotl64:x <- $r8
	#DEBUG_VALUE: rotl64:b <- 13
	.loc	5 44 21                         # ./include/sodium/private/common.h:44:21 @[ crypto_shorthash/siphash24/ref/shorthash_siphashx24_ref.c:65:25 ]
	rolq	$13, %r8
.Ltmp135:
	#DEBUG_VALUE: crypto_shorthash_siphashx24:v1 <- $r8
	.loc	3 65 48                         # crypto_shorthash/siphash24/ref/shorthash_siphashx24_ref.c:65:48
	xorq	%r9, %r8
.Ltmp136:
	#DEBUG_VALUE: crypto_shorthash_siphashx24:v1 <- $r8
	#DEBUG_VALUE: rotl64:x <- $r9
	#DEBUG_VALUE: rotl64:b <- 32
	.loc	5 44 21                         # ./include/sodium/private/common.h:44:21 @[ crypto_shorthash/siphash24/ref/shorthash_siphashx24_ref.c:65:60 ]
	rolq	$32, %r9
.Ltmp137:
	#DEBUG_VALUE: crypto_shorthash_siphashx24:v0 <- $r9
	.loc	3 65 83                         # crypto_shorthash/siphash24/ref/shorthash_siphashx24_ref.c:65:83
	addq	%rcx, %rax
.Ltmp138:
	#DEBUG_VALUE: crypto_shorthash_siphashx24:v2 <- $rax
	#DEBUG_VALUE: rotl64:x <- $rcx
	#DEBUG_VALUE: rotl64:b <- 16
	.loc	5 44 21                         # ./include/sodium/private/common.h:44:21 @[ crypto_shorthash/siphash24/ref/shorthash_siphashx24_ref.c:65:95 ]
	rolq	$16, %rcx
.Ltmp139:
	#DEBUG_VALUE: crypto_shorthash_siphashx24:v3 <- $rcx
	.loc	3 65 118                        # crypto_shorthash/siphash24/ref/shorthash_siphashx24_ref.c:65:118
	xorq	%rax, %rcx
.Ltmp140:
	#DEBUG_VALUE: crypto_shorthash_siphashx24:v3 <- $rcx
	.loc	3 65 128 is_stmt 0              # crypto_shorthash/siphash24/ref/shorthash_siphashx24_ref.c:65:128
	addq	%rcx, %r9
.Ltmp141:
	#DEBUG_VALUE: crypto_shorthash_siphashx24:v0 <- $r9
	#DEBUG_VALUE: rotl64:x <- $rcx
	#DEBUG_VALUE: rotl64:b <- 21
	.loc	5 44 21 is_stmt 1               # ./include/sodium/private/common.h:44:21 @[ crypto_shorthash/siphash24/ref/shorthash_siphashx24_ref.c:65:140 ]
	rolq	$21, %rcx
.Ltmp142:
	#DEBUG_VALUE: crypto_shorthash_siphashx24:v3 <- $rcx
	.loc	3 65 163                        # crypto_shorthash/siphash24/ref/shorthash_siphashx24_ref.c:65:163
	xorq	%r9, %rcx
.Ltmp143:
	#DEBUG_VALUE: crypto_shorthash_siphashx24:v3 <- $rcx
	.loc	3 65 173 is_stmt 0              # crypto_shorthash/siphash24/ref/shorthash_siphashx24_ref.c:65:173
	addq	%r8, %rax
.Ltmp144:
	#DEBUG_VALUE: crypto_shorthash_siphashx24:v2 <- $rax
	#DEBUG_VALUE: rotl64:x <- $r8
	#DEBUG_VALUE: rotl64:b <- 17
	.loc	5 44 21 is_stmt 1               # ./include/sodium/private/common.h:44:21 @[ crypto_shorthash/siphash24/ref/shorthash_siphashx24_ref.c:65:185 ]
	rolq	$17, %r8
.Ltmp145:
	#DEBUG_VALUE: crypto_shorthash_siphashx24:v1 <- $r8
	.loc	3 65 208                        # crypto_shorthash/siphash24/ref/shorthash_siphashx24_ref.c:65:208
	xorq	%rax, %r8
.Ltmp146:
	#DEBUG_VALUE: crypto_shorthash_siphashx24:v1 <- $r8
	#DEBUG_VALUE: rotl64:x <- $rax
	#DEBUG_VALUE: rotl64:b <- 32
	.loc	5 44 21                         # ./include/sodium/private/common.h:44:21 @[ crypto_shorthash/siphash24/ref/shorthash_siphashx24_ref.c:65:220 ]
	rolq	$32, %rax
.Ltmp147:
	#DEBUG_VALUE: crypto_shorthash_siphashx24:v2 <- $rax
	.loc	3 66 12                         # crypto_shorthash/siphash24/ref/shorthash_siphashx24_ref.c:66:12
	movq	%r8, %rdx
.Ltmp148:
	xorq	%r9, %rdx
.Ltmp149:
	#DEBUG_VALUE: crypto_shorthash_siphashx24:b <- undef
	#DEBUG_VALUE: store64_le:dst <- $rdi
	#DEBUG_VALUE: store64_le:w <- undef
	#DEBUG_VALUE: memcpy:__dest <- $rdi
	#DEBUG_VALUE: memcpy:__src <- undef
	#DEBUG_VALUE: memcpy:__len <- 8
	.loc	3 68 8                          # crypto_shorthash/siphash24/ref/shorthash_siphashx24_ref.c:68:8
	xorq	$221, %r8
.Ltmp150:
	#DEBUG_VALUE: crypto_shorthash_siphashx24:v1 <- $r8
	.loc	3 69 13                         # crypto_shorthash/siphash24/ref/shorthash_siphashx24_ref.c:69:13
	addq	%r8, %r9
.Ltmp151:
	#DEBUG_VALUE: crypto_shorthash_siphashx24:v0 <- $r9
	#DEBUG_VALUE: rotl64:x <- $r8
	#DEBUG_VALUE: rotl64:b <- 13
	.loc	5 44 21                         # ./include/sodium/private/common.h:44:21 @[ crypto_shorthash/siphash24/ref/shorthash_siphashx24_ref.c:69:25 ]
	rolq	$13, %r8
.Ltmp152:
	#DEBUG_VALUE: crypto_shorthash_siphashx24:v1 <- $r8
	.loc	3 66 17                         # crypto_shorthash/siphash24/ref/shorthash_siphashx24_ref.c:66:17
	xorq	%rax, %rdx
.Ltmp153:
	.loc	3 69 48                         # crypto_shorthash/siphash24/ref/shorthash_siphashx24_ref.c:69:48
	xorq	%r9, %r8
.Ltmp154:
	#DEBUG_VALUE: crypto_shorthash_siphashx24:v1 <- $r8
	#DEBUG_VALUE: rotl64:x <- $r9
	#DEBUG_VALUE: rotl64:b <- 32
	.loc	5 44 21                         # ./include/sodium/private/common.h:44:21 @[ crypto_shorthash/siphash24/ref/shorthash_siphashx24_ref.c:69:60 ]
	rolq	$32, %r9
.Ltmp155:
	#DEBUG_VALUE: crypto_shorthash_siphashx24:v0 <- $r9
	.loc	3 66 22                         # crypto_shorthash/siphash24/ref/shorthash_siphashx24_ref.c:66:22
	xorq	%rcx, %rdx
.Ltmp156:
	#DEBUG_VALUE: crypto_shorthash_siphashx24:b <- $rdx
	.loc	3 69 83                         # crypto_shorthash/siphash24/ref/shorthash_siphashx24_ref.c:69:83
	addq	%rcx, %rax
.Ltmp157:
	#DEBUG_VALUE: crypto_shorthash_siphashx24:v2 <- $rax
	#DEBUG_VALUE: rotl64:x <- $rcx
	#DEBUG_VALUE: rotl64:b <- 16
	.loc	5 44 21                         # ./include/sodium/private/common.h:44:21 @[ crypto_shorthash/siphash24/ref/shorthash_siphashx24_ref.c:69:95 ]
	rolq	$16, %rcx
.Ltmp158:
	#DEBUG_VALUE: crypto_shorthash_siphashx24:v3 <- $rcx
	.loc	3 69 118                        # crypto_shorthash/siphash24/ref/shorthash_siphashx24_ref.c:69:118
	xorq	%rax, %rcx
.Ltmp159:
	#DEBUG_VALUE: crypto_shorthash_siphashx24:v3 <- $rcx
	.loc	3 69 128 is_stmt 0              # crypto_shorthash/siphash24/ref/shorthash_siphashx24_ref.c:69:128
	addq	%rcx, %r9
.Ltmp160:
	#DEBUG_VALUE: crypto_shorthash_siphashx24:v0 <- $r9
	#DEBUG_VALUE: rotl64:x <- $rcx
	#DEBUG_VALUE: rotl64:b <- 21
	.loc	5 44 21 is_stmt 1               # ./include/sodium/private/common.h:44:21 @[ crypto_shorthash/siphash24/ref/shorthash_siphashx24_ref.c:69:140 ]
	rolq	$21, %rcx
.Ltmp161:
	#DEBUG_VALUE: crypto_shorthash_siphashx24:v3 <- $rcx
	#DEBUG_VALUE: crypto_shorthash_siphashx24:v3 <- undef
	.loc	3 69 173                        # crypto_shorthash/siphash24/ref/shorthash_siphashx24_ref.c:69:173
	addq	%r8, %rax
.Ltmp162:
	#DEBUG_VALUE: crypto_shorthash_siphashx24:v2 <- $rax
	#DEBUG_VALUE: rotl64:x <- $r8
	#DEBUG_VALUE: rotl64:b <- 17
	.loc	5 44 21                         # ./include/sodium/private/common.h:44:21 @[ crypto_shorthash/siphash24/ref/shorthash_siphashx24_ref.c:69:185 ]
	rolq	$17, %r8
.Ltmp163:
	#DEBUG_VALUE: crypto_shorthash_siphashx24:v1 <- $r8
	.loc	3 69 208                        # crypto_shorthash/siphash24/ref/shorthash_siphashx24_ref.c:69:208
	xorq	%rax, %r8
.Ltmp164:
	#DEBUG_VALUE: crypto_shorthash_siphashx24:v1 <- $r8
	#DEBUG_VALUE: rotl64:x <- $rax
	#DEBUG_VALUE: rotl64:b <- 32
	.loc	5 44 21                         # ./include/sodium/private/common.h:44:21 @[ crypto_shorthash/siphash24/ref/shorthash_siphashx24_ref.c:69:220 ]
	rolq	$32, %rax
.Ltmp165:
	#DEBUG_VALUE: crypto_shorthash_siphashx24:v2 <- $rax
	.loc	3 69 163                        # crypto_shorthash/siphash24/ref/shorthash_siphashx24_ref.c:69:163
	xorq	%r9, %rcx
.Ltmp166:
	#DEBUG_VALUE: crypto_shorthash_siphashx24:v3 <- $rcx
	.loc	3 70 13                         # crypto_shorthash/siphash24/ref/shorthash_siphashx24_ref.c:70:13
	addq	%r8, %r9
.Ltmp167:
	#DEBUG_VALUE: crypto_shorthash_siphashx24:v0 <- $r9
	#DEBUG_VALUE: rotl64:x <- $r8
	#DEBUG_VALUE: rotl64:b <- 13
	.loc	5 44 21                         # ./include/sodium/private/common.h:44:21 @[ crypto_shorthash/siphash24/ref/shorthash_siphashx24_ref.c:70:25 ]
	rolq	$13, %r8
.Ltmp168:
	#DEBUG_VALUE: crypto_shorthash_siphashx24:v1 <- $r8
	.loc	3 70 48                         # crypto_shorthash/siphash24/ref/shorthash_siphashx24_ref.c:70:48
	xorq	%r9, %r8
.Ltmp169:
	#DEBUG_VALUE: crypto_shorthash_siphashx24:v1 <- $r8
	#DEBUG_VALUE: rotl64:x <- $r9
	#DEBUG_VALUE: rotl64:b <- 32
	.loc	5 44 21                         # ./include/sodium/private/common.h:44:21 @[ crypto_shorthash/siphash24/ref/shorthash_siphashx24_ref.c:70:60 ]
	rolq	$32, %r9
.Ltmp170:
	#DEBUG_VALUE: crypto_shorthash_siphashx24:v0 <- $r9
	.loc	3 70 83                         # crypto_shorthash/siphash24/ref/shorthash_siphashx24_ref.c:70:83
	addq	%rcx, %rax
.Ltmp171:
	#DEBUG_VALUE: crypto_shorthash_siphashx24:v2 <- $rax
	#DEBUG_VALUE: rotl64:x <- $rcx
	#DEBUG_VALUE: rotl64:b <- 16
	.loc	5 44 21                         # ./include/sodium/private/common.h:44:21 @[ crypto_shorthash/siphash24/ref/shorthash_siphashx24_ref.c:70:95 ]
	rolq	$16, %rcx
.Ltmp172:
	#DEBUG_VALUE: crypto_shorthash_siphashx24:v3 <- $rcx
	.loc	3 70 118                        # crypto_shorthash/siphash24/ref/shorthash_siphashx24_ref.c:70:118
	xorq	%rax, %rcx
.Ltmp173:
	#DEBUG_VALUE: crypto_shorthash_siphashx24:v3 <- $rcx
	.loc	3 70 128 is_stmt 0              # crypto_shorthash/siphash24/ref/shorthash_siphashx24_ref.c:70:128
	addq	%rcx, %r9
.Ltmp174:
	#DEBUG_VALUE: crypto_shorthash_siphashx24:v0 <- $r9
	#DEBUG_VALUE: rotl64:x <- $rcx
	#DEBUG_VALUE: rotl64:b <- 21
	.loc	5 44 21 is_stmt 1               # ./include/sodium/private/common.h:44:21 @[ crypto_shorthash/siphash24/ref/shorthash_siphashx24_ref.c:70:140 ]
	rolq	$21, %rcx
.Ltmp175:
	#DEBUG_VALUE: crypto_shorthash_siphashx24:v3 <- $rcx
	#DEBUG_VALUE: crypto_shorthash_siphashx24:v3 <- undef
	.loc	3 70 173                        # crypto_shorthash/siphash24/ref/shorthash_siphashx24_ref.c:70:173
	addq	%r8, %rax
.Ltmp176:
	#DEBUG_VALUE: crypto_shorthash_siphashx24:v2 <- $rax
	#DEBUG_VALUE: rotl64:x <- $r8
	#DEBUG_VALUE: rotl64:b <- 17
	.loc	5 44 21                         # ./include/sodium/private/common.h:44:21 @[ crypto_shorthash/siphash24/ref/shorthash_siphashx24_ref.c:70:185 ]
	rolq	$17, %r8
.Ltmp177:
	#DEBUG_VALUE: crypto_shorthash_siphashx24:v1 <- $r8
	.loc	3 70 208                        # crypto_shorthash/siphash24/ref/shorthash_siphashx24_ref.c:70:208
	xorq	%rax, %r8
.Ltmp178:
	#DEBUG_VALUE: crypto_shorthash_siphashx24:v1 <- $r8
	#DEBUG_VALUE: rotl64:x <- $rax
	#DEBUG_VALUE: rotl64:b <- 32
	.loc	5 44 21                         # ./include/sodium/private/common.h:44:21 @[ crypto_shorthash/siphash24/ref/shorthash_siphashx24_ref.c:70:220 ]
	rolq	$32, %rax
.Ltmp179:
	#DEBUG_VALUE: crypto_shorthash_siphashx24:v2 <- $rax
	.loc	3 70 163                        # crypto_shorthash/siphash24/ref/shorthash_siphashx24_ref.c:70:163
	xorq	%r9, %rcx
.Ltmp180:
	#DEBUG_VALUE: crypto_shorthash_siphashx24:v3 <- $rcx
	.loc	3 71 13                         # crypto_shorthash/siphash24/ref/shorthash_siphashx24_ref.c:71:13
	addq	%r8, %r9
.Ltmp181:
	#DEBUG_VALUE: crypto_shorthash_siphashx24:v0 <- $r9
	#DEBUG_VALUE: rotl64:x <- $r8
	#DEBUG_VALUE: rotl64:b <- 13
	.loc	5 44 21                         # ./include/sodium/private/common.h:44:21 @[ crypto_shorthash/siphash24/ref/shorthash_siphashx24_ref.c:71:25 ]
	rolq	$13, %r8
.Ltmp182:
	#DEBUG_VALUE: crypto_shorthash_siphashx24:v1 <- $r8
	.loc	3 71 48                         # crypto_shorthash/siphash24/ref/shorthash_siphashx24_ref.c:71:48
	xorq	%r9, %r8
.Ltmp183:
	#DEBUG_VALUE: crypto_shorthash_siphashx24:v1 <- $r8
	#DEBUG_VALUE: rotl64:x <- $r9
	#DEBUG_VALUE: rotl64:b <- 32
	.loc	5 44 21                         # ./include/sodium/private/common.h:44:21 @[ crypto_shorthash/siphash24/ref/shorthash_siphashx24_ref.c:71:60 ]
	rolq	$32, %r9
.Ltmp184:
	#DEBUG_VALUE: crypto_shorthash_siphashx24:v0 <- $r9
	.loc	3 71 83                         # crypto_shorthash/siphash24/ref/shorthash_siphashx24_ref.c:71:83
	addq	%rcx, %rax
.Ltmp185:
	#DEBUG_VALUE: crypto_shorthash_siphashx24:v2 <- $rax
	#DEBUG_VALUE: rotl64:x <- $rcx
	#DEBUG_VALUE: rotl64:b <- 16
	.loc	5 44 21                         # ./include/sodium/private/common.h:44:21 @[ crypto_shorthash/siphash24/ref/shorthash_siphashx24_ref.c:71:95 ]
	rolq	$16, %rcx
.Ltmp186:
	#DEBUG_VALUE: crypto_shorthash_siphashx24:v3 <- $rcx
	.loc	3 71 118                        # crypto_shorthash/siphash24/ref/shorthash_siphashx24_ref.c:71:118
	xorq	%rax, %rcx
.Ltmp187:
	#DEBUG_VALUE: crypto_shorthash_siphashx24:v3 <- $rcx
	.loc	3 71 128 is_stmt 0              # crypto_shorthash/siphash24/ref/shorthash_siphashx24_ref.c:71:128
	addq	%rcx, %r9
.Ltmp188:
	#DEBUG_VALUE: crypto_shorthash_siphashx24:v0 <- $r9
	#DEBUG_VALUE: rotl64:x <- $rcx
	#DEBUG_VALUE: rotl64:b <- 21
	.loc	5 44 21 is_stmt 1               # ./include/sodium/private/common.h:44:21 @[ crypto_shorthash/siphash24/ref/shorthash_siphashx24_ref.c:71:140 ]
	rolq	$21, %rcx
.Ltmp189:
	#DEBUG_VALUE: crypto_shorthash_siphashx24:v3 <- $rcx
	#DEBUG_VALUE: crypto_shorthash_siphashx24:v3 <- undef
	.loc	3 71 173                        # crypto_shorthash/siphash24/ref/shorthash_siphashx24_ref.c:71:173
	addq	%r8, %rax
.Ltmp190:
	#DEBUG_VALUE: crypto_shorthash_siphashx24:v2 <- $rax
	#DEBUG_VALUE: rotl64:x <- $r8
	#DEBUG_VALUE: rotl64:b <- 17
	.loc	5 44 21                         # ./include/sodium/private/common.h:44:21 @[ crypto_shorthash/siphash24/ref/shorthash_siphashx24_ref.c:71:185 ]
	rolq	$17, %r8
.Ltmp191:
	#DEBUG_VALUE: crypto_shorthash_siphashx24:v1 <- $r8
	.loc	3 71 208                        # crypto_shorthash/siphash24/ref/shorthash_siphashx24_ref.c:71:208
	xorq	%rax, %r8
.Ltmp192:
	#DEBUG_VALUE: crypto_shorthash_siphashx24:v1 <- $r8
	#DEBUG_VALUE: rotl64:x <- $rax
	#DEBUG_VALUE: rotl64:b <- 32
	.loc	5 44 21                         # ./include/sodium/private/common.h:44:21 @[ crypto_shorthash/siphash24/ref/shorthash_siphashx24_ref.c:71:220 ]
	rolq	$32, %rax
.Ltmp193:
	#DEBUG_VALUE: crypto_shorthash_siphashx24:v2 <- $rax
	.loc	3 71 163                        # crypto_shorthash/siphash24/ref/shorthash_siphashx24_ref.c:71:163
	xorq	%r9, %rcx
.Ltmp194:
	#DEBUG_VALUE: crypto_shorthash_siphashx24:v3 <- $rcx
	.loc	3 72 13                         # crypto_shorthash/siphash24/ref/shorthash_siphashx24_ref.c:72:13
	addq	%r8, %r9
.Ltmp195:
	#DEBUG_VALUE: crypto_shorthash_siphashx24:v0 <- $r9
	#DEBUG_VALUE: rotl64:x <- $r8
	#DEBUG_VALUE: rotl64:b <- 13
	.loc	5 44 21                         # ./include/sodium/private/common.h:44:21 @[ crypto_shorthash/siphash24/ref/shorthash_siphashx24_ref.c:72:25 ]
	rolq	$13, %r8
.Ltmp196:
	#DEBUG_VALUE: crypto_shorthash_siphashx24:v1 <- $r8
	#DEBUG_VALUE: crypto_shorthash_siphashx24:v1 <- undef
	#DEBUG_VALUE: rotl64:b <- 32
	#DEBUG_VALUE: crypto_shorthash_siphashx24:v0 <- undef
	.loc	3 72 83                         # crypto_shorthash/siphash24/ref/shorthash_siphashx24_ref.c:72:83
	addq	%rcx, %rax
.Ltmp197:
	#DEBUG_VALUE: crypto_shorthash_siphashx24:v2 <- $rax
	#DEBUG_VALUE: rotl64:x <- $rcx
	#DEBUG_VALUE: rotl64:b <- 16
	.loc	5 44 21                         # ./include/sodium/private/common.h:44:21 @[ crypto_shorthash/siphash24/ref/shorthash_siphashx24_ref.c:72:95 ]
	rolq	$16, %rcx
.Ltmp198:
	#DEBUG_VALUE: crypto_shorthash_siphashx24:v3 <- $rcx
	.loc	4 29 10                         # /usr/include/x86_64-linux-gnu/bits/string_fortified.h:29:10 @[ ./include/sodium/private/common.h:87:5 @[ crypto_shorthash/siphash24/ref/shorthash_siphashx24_ref.c:67:5 ] ]
	movq	%rdx, (%rdi)
.Ltmp199:
	.loc	3 72 118                        # crypto_shorthash/siphash24/ref/shorthash_siphashx24_ref.c:72:118
	xorq	%rax, %rcx
.Ltmp200:
	#DEBUG_VALUE: crypto_shorthash_siphashx24:v3 <- $rcx
	#DEBUG_VALUE: rotl64:x <- $rcx
	#DEBUG_VALUE: rotl64:b <- 21
	.loc	5 44 21                         # ./include/sodium/private/common.h:44:21 @[ crypto_shorthash/siphash24/ref/shorthash_siphashx24_ref.c:72:140 ]
	rolq	$21, %rcx
.Ltmp201:
	#DEBUG_VALUE: crypto_shorthash_siphashx24:v3 <- undef
	.loc	3 72 48                         # crypto_shorthash/siphash24/ref/shorthash_siphashx24_ref.c:72:48
	xorq	%r9, %r8
.Ltmp202:
	#DEBUG_VALUE: crypto_shorthash_siphashx24:v1 <- $r8
	.loc	3 72 173 is_stmt 0              # crypto_shorthash/siphash24/ref/shorthash_siphashx24_ref.c:72:173
	addq	%r8, %rax
.Ltmp203:
	#DEBUG_VALUE: crypto_shorthash_siphashx24:v2 <- $rax
	#DEBUG_VALUE: rotl64:x <- $r8
	#DEBUG_VALUE: rotl64:b <- 17
	.loc	5 44 21 is_stmt 1               # ./include/sodium/private/common.h:44:21 @[ crypto_shorthash/siphash24/ref/shorthash_siphashx24_ref.c:72:185 ]
	rolq	$17, %r8
.Ltmp204:
	#DEBUG_VALUE: crypto_shorthash_siphashx24:v1 <- [DW_OP_LLVM_arg 0, DW_OP_LLVM_arg 1, DW_OP_xor, DW_OP_stack_value] $r8, $rax
	#DEBUG_VALUE: rotl64:x <- $rax
	#DEBUG_VALUE: rotl64:b <- 32
	.loc	3 73 17                         # crypto_shorthash/siphash24/ref/shorthash_siphashx24_ref.c:73:17
	xorq	%rcx, %r8
.Ltmp205:
	.loc	5 44 21                         # ./include/sodium/private/common.h:44:21 @[ crypto_shorthash/siphash24/ref/shorthash_siphashx24_ref.c:72:220 ]
	movq	%rax, %rcx
	rolq	$32, %rcx
.Ltmp206:
	#DEBUG_VALUE: crypto_shorthash_siphashx24:v2 <- $rcx
	.loc	3 73 22                         # crypto_shorthash/siphash24/ref/shorthash_siphashx24_ref.c:73:22
	xorq	%r8, %rcx
.Ltmp207:
	xorq	%rax, %rcx
.Ltmp208:
	#DEBUG_VALUE: crypto_shorthash_siphashx24:b <- $rcx
	#DEBUG_VALUE: store64_le:w <- undef
	#DEBUG_VALUE: memcpy:__src <- undef
	#DEBUG_VALUE: memcpy:__len <- 8
	#DEBUG_VALUE: store64_le:dst <- [DW_OP_plus_uconst 8, DW_OP_stack_value] $rdi
	#DEBUG_VALUE: memcpy:__dest <- [DW_OP_plus_uconst 8, DW_OP_stack_value] $rdi
	.loc	4 29 10                         # /usr/include/x86_64-linux-gnu/bits/string_fortified.h:29:10 @[ ./include/sodium/private/common.h:87:5 @[ crypto_shorthash/siphash24/ref/shorthash_siphashx24_ref.c:74:5 ] ]
	movq	%rcx, 8(%rdi)
.Ltmp209:
	.loc	3 76 5                          # crypto_shorthash/siphash24/ref/shorthash_siphashx24_ref.c:76:5
	xorl	%eax, %eax
.Ltmp210:
	.loc	3 76 5 epilogue_begin is_stmt 0 # crypto_shorthash/siphash24/ref/shorthash_siphashx24_ref.c:76:5
	popq	%rbx
	.cfi_def_cfa_offset 24
	popq	%r14
	.cfi_def_cfa_offset 16
	popq	%r15
	.cfi_def_cfa_offset 8
	retq
.Ltmp211:
.Lfunc_end0:
	.size	crypto_shorthash_siphashx24, .Lfunc_end0-crypto_shorthash_siphashx24
	.cfi_endproc
	.section	.rodata,"a",@progbits
	.p2align	2, 0x0
.LJTI0_0:
	.long	.LBB0_12-.LJTI0_0
	.long	.LBB0_11-.LJTI0_0
	.long	.LBB0_10-.LJTI0_0
	.long	.LBB0_9-.LJTI0_0
	.long	.LBB0_8-.LJTI0_0
	.long	.LBB0_7-.LJTI0_0
	.long	.LBB0_6-.LJTI0_0
	.long	.LBB0_5-.LJTI0_0
	.file	6 "/home/leizhenyuu/opt/Anonymous_Repo" "llvm-project/build/lib/clang/21/include/__stddef_size_t.h"
                                        # -- End function
	.section	".note.GNU-stack","",@progbits
	.addrsig