	.file	"sign_ed25519.c"
	.text
	.globl	crypto_sign_ed25519ph_statebytes # -- Begin function crypto_sign_ed25519ph_statebytes
	.p2align	4
	.type	crypto_sign_ed25519ph_statebytes,@function
crypto_sign_ed25519ph_statebytes:       # @crypto_sign_ed25519ph_statebytes
.Lfunc_begin0:
	.file	0 "/home/leizhenyuu/opt/Anonymous_Repo/libsodium_o2_attr_inline/src/libsodium" "sign_ed25519.c" md5 0x2aab76ec8864b5d23c479f1de079010e
	.cfi_startproc
# %bb.0:
	.file	1 "crypto_sign/ed25519" "sign_ed25519.c"
	.loc	1 11 5 prologue_end             # crypto_sign/ed25519/sign_ed25519.c:11:5
	movl	$208, %eax
	retq
.Ltmp0:
.Lfunc_end0:
	.size	crypto_sign_ed25519ph_statebytes, .Lfunc_end0-crypto_sign_ed25519ph_statebytes
	.cfi_endproc
                                        # -- End function
	.globl	crypto_sign_ed25519_bytes       # -- Begin function crypto_sign_ed25519_bytes
	.p2align	4
	.type	crypto_sign_ed25519_bytes,@function
crypto_sign_ed25519_bytes:              # @crypto_sign_ed25519_bytes
.Lfunc_begin1:
	.cfi_startproc
# %bb.0:
	.loc	1 17 5 prologue_end             # crypto_sign/ed25519/sign_ed25519.c:17:5
	movl	$64, %eax
	retq
.Ltmp1:
.Lfunc_end1:
	.size	crypto_sign_ed25519_bytes, .Lfunc_end1-crypto_sign_ed25519_bytes
	.cfi_endproc
                                        # -- End function
	.globl	crypto_sign_ed25519_seedbytes   # -- Begin function crypto_sign_ed25519_seedbytes
	.p2align	4
	.type	crypto_sign_ed25519_seedbytes,@function
crypto_sign_ed25519_seedbytes:          # @crypto_sign_ed25519_seedbytes
.Lfunc_begin2:
	.cfi_startproc
# %bb.0:
	.loc	1 23 5 prologue_end             # crypto_sign/ed25519/sign_ed25519.c:23:5
	movl	$32, %eax
	retq
.Ltmp2:
.Lfunc_end2:
	.size	crypto_sign_ed25519_seedbytes, .Lfunc_end2-crypto_sign_ed25519_seedbytes
	.cfi_endproc
                                        # -- End function
	.globl	crypto_sign_ed25519_publickeybytes # -- Begin function crypto_sign_ed25519_publickeybytes
	.p2align	4
	.type	crypto_sign_ed25519_publickeybytes,@function
crypto_sign_ed25519_publickeybytes:     # @crypto_sign_ed25519_publickeybytes
.Lfunc_begin3:
	.cfi_startproc
# %bb.0:
	.loc	1 29 5 prologue_end             # crypto_sign/ed25519/sign_ed25519.c:29:5
	movl	$32, %eax
	retq
.Ltmp3:
.Lfunc_end3:
	.size	crypto_sign_ed25519_publickeybytes, .Lfunc_end3-crypto_sign_ed25519_publickeybytes
	.cfi_endproc
                                        # -- End function
	.globl	crypto_sign_ed25519_secretkeybytes # -- Begin function crypto_sign_ed25519_secretkeybytes
	.p2align	4
	.type	crypto_sign_ed25519_secretkeybytes,@function
crypto_sign_ed25519_secretkeybytes:     # @crypto_sign_ed25519_secretkeybytes
.Lfunc_begin4:
	.cfi_startproc
# %bb.0:
	.loc	1 35 5 prologue_end             # crypto_sign/ed25519/sign_ed25519.c:35:5
	movl	$64, %eax
	retq
.Ltmp4:
.Lfunc_end4:
	.size	crypto_sign_ed25519_secretkeybytes, .Lfunc_end4-crypto_sign_ed25519_secretkeybytes
	.cfi_endproc
                                        # -- End function
	.globl	crypto_sign_ed25519_messagebytes_max # -- Begin function crypto_sign_ed25519_messagebytes_max
	.p2align	4
	.type	crypto_sign_ed25519_messagebytes_max,@function
crypto_sign_ed25519_messagebytes_max:   # @crypto_sign_ed25519_messagebytes_max
.Lfunc_begin5:
	.cfi_startproc
# %bb.0:
	.loc	1 41 5 prologue_end             # crypto_sign/ed25519/sign_ed25519.c:41:5
	movq	$-65, %rax
	retq
.Ltmp5:
.Lfunc_end5:
	.size	crypto_sign_ed25519_messagebytes_max, .Lfunc_end5-crypto_sign_ed25519_messagebytes_max
	.cfi_endproc
                                        # -- End function
	.globl	crypto_sign_ed25519_sk_to_seed  # -- Begin function crypto_sign_ed25519_sk_to_seed
	.p2align	4
	.type	crypto_sign_ed25519_sk_to_seed,@function
crypto_sign_ed25519_sk_to_seed:         # @crypto_sign_ed25519_sk_to_seed
.Lfunc_begin6:
	.cfi_startproc
# %bb.0:
	#DEBUG_VALUE: crypto_sign_ed25519_sk_to_seed:seed <- $rdi
	#DEBUG_VALUE: crypto_sign_ed25519_sk_to_seed:sk <- $rsi
	#DEBUG_VALUE: memmove:__dest <- $rdi
	#DEBUG_VALUE: memmove:__src <- $rsi
	#DEBUG_VALUE: memmove:__len <- 32
	.file	2 "/usr/include/x86_64-linux-gnu/bits" "string_fortified.h"
	.loc	2 36 10 prologue_end            # /usr/include/x86_64-linux-gnu/bits/string_fortified.h:36:10 @[ crypto_sign/ed25519/sign_ed25519.c:47:5 ]
	movups	(%rsi), %xmm0
	movups	16(%rsi), %xmm1
	movups	%xmm1, 16(%rdi)
	movups	%xmm0, (%rdi)
.Ltmp6:
	.loc	1 49 5                          # crypto_sign/ed25519/sign_ed25519.c:49:5
	xorl	%eax, %eax
	retq
.Ltmp7:
.Lfunc_end6:
	.size	crypto_sign_ed25519_sk_to_seed, .Lfunc_end6-crypto_sign_ed25519_sk_to_seed
	.cfi_endproc
	.file	3 "/home/leizhenyuu/opt/Anonymous_Repo" "llvm-project/build/lib/clang/21/include/__stddef_size_t.h"
                                        # -- End function
	.globl	crypto_sign_ed25519_sk_to_pk    # -- Begin function crypto_sign_ed25519_sk_to_pk
	.p2align	4
	.type	crypto_sign_ed25519_sk_to_pk,@function
crypto_sign_ed25519_sk_to_pk:           # @crypto_sign_ed25519_sk_to_pk
.Lfunc_begin7:
	.cfi_startproc
# %bb.0:
	#DEBUG_VALUE: crypto_sign_ed25519_sk_to_pk:pk <- $rdi
	#DEBUG_VALUE: crypto_sign_ed25519_sk_to_pk:sk <- $rsi
	#DEBUG_VALUE: memmove:__len <- 32
	#DEBUG_VALUE: memmove:__dest <- $rdi
	#DEBUG_VALUE: memmove:__src <- [DW_OP_plus_uconst 32, DW_OP_stack_value] $rsi
	.loc	2 36 10 prologue_end            # /usr/include/x86_64-linux-gnu/bits/string_fortified.h:36:10 @[ crypto_sign/ed25519/sign_ed25519.c:55:5 ]
	movups	32(%rsi), %xmm0
	movups	48(%rsi), %xmm1
	movups	%xmm1, 16(%rdi)
	movups	%xmm0, (%rdi)
.Ltmp8:
	.loc	1 57 5                          # crypto_sign/ed25519/sign_ed25519.c:57:5
	xorl	%eax, %eax
	retq
.Ltmp9:
.Lfunc_end7:
	.size	crypto_sign_ed25519_sk_to_pk, .Lfunc_end7-crypto_sign_ed25519_sk_to_pk
	.cfi_endproc
                                        # -- End function
	.globl	crypto_sign_ed25519ph_init      # -- Begin function crypto_sign_ed25519ph_init
	.p2align	4
	.type	crypto_sign_ed25519ph_init,@function
crypto_sign_ed25519ph_init:             # @crypto_sign_ed25519ph_init
.Lfunc_begin8:
	.loc	1 62 0                          # crypto_sign/ed25519/sign_ed25519.c:62:0
	.cfi_startproc
# %bb.0:
	#DEBUG_VALUE: crypto_sign_ed25519ph_init:state <- $rdi
	pushq	%rax
	.cfi_def_cfa_offset 16
.Ltmp10:
	.loc	1 63 5 prologue_end             # crypto_sign/ed25519/sign_ed25519.c:63:5
	callq	crypto_hash_sha512_init@PLT
.Ltmp11:
	#DEBUG_VALUE: crypto_sign_ed25519ph_init:state <- [DW_OP_LLVM_entry_value 1] $rdi
	.loc	1 64 5                          # crypto_sign/ed25519/sign_ed25519.c:64:5
	xorl	%eax, %eax
	.loc	1 64 5 epilogue_begin is_stmt 0 # crypto_sign/ed25519/sign_ed25519.c:64:5
	popq	%rcx
	.cfi_def_cfa_offset 8
	retq
.Ltmp12:
.Lfunc_end8:
	.size	crypto_sign_ed25519ph_init, .Lfunc_end8-crypto_sign_ed25519ph_init
	.cfi_endproc
	.file	4 "./include/sodium" "crypto_hash_sha512.h"
	.file	5 "/usr/include/x86_64-linux-gnu/bits" "types.h"
	.file	6 "/usr/include/x86_64-linux-gnu/bits" "stdint-uintn.h"
                                        # -- End function
	.globl	crypto_sign_ed25519ph_update    # -- Begin function crypto_sign_ed25519ph_update
	.p2align	4
	.type	crypto_sign_ed25519ph_update,@function
crypto_sign_ed25519ph_update:           # @crypto_sign_ed25519ph_update
.Lfunc_begin9:
	.cfi_startproc
# %bb.0:
	#DEBUG_VALUE: crypto_sign_ed25519ph_update:state <- $rdi
	#DEBUG_VALUE: crypto_sign_ed25519ph_update:m <- $rsi
	#DEBUG_VALUE: crypto_sign_ed25519ph_update:mlen <- $rdx
	.loc	1 71 12 prologue_end is_stmt 1  # crypto_sign/ed25519/sign_ed25519.c:71:12
	jmp	crypto_hash_sha512_update@PLT   # TAILCALL
.Ltmp13:
.Lfunc_end9:
	.size	crypto_sign_ed25519ph_update, .Lfunc_end9-crypto_sign_ed25519ph_update
	.cfi_endproc
                                        # -- End function
	.globl	crypto_sign_ed25519ph_final_create # -- Begin function crypto_sign_ed25519ph_final_create
	.p2align	4
	.type	crypto_sign_ed25519ph_final_create,@function
crypto_sign_ed25519ph_final_create:     # @crypto_sign_ed25519ph_final_create
.Lfunc_begin10:
	.loc	1 79 0                          # crypto_sign/ed25519/sign_ed25519.c:79:0
	.cfi_startproc
# %bb.0:
	#DEBUG_VALUE: crypto_sign_ed25519ph_final_create:state <- $rdi
	#DEBUG_VALUE: crypto_sign_ed25519ph_final_create:sig <- $rsi
	#DEBUG_VALUE: crypto_sign_ed25519ph_final_create:siglen_p <- $rdx
	#DEBUG_VALUE: crypto_sign_ed25519ph_final_create:sk <- $rcx
	pushq	%r15
	.cfi_def_cfa_offset 16
	pushq	%r14
	.cfi_def_cfa_offset 24
	pushq	%r12
	.cfi_def_cfa_offset 32
	pushq	%rbx
	.cfi_def_cfa_offset 40
	subq	$72, %rsp
	.cfi_def_cfa_offset 112
	.cfi_offset %rbx, -40
	.cfi_offset %r12, -32
	.cfi_offset %r14, -24
	.cfi_offset %r15, -16
	movq	%rcx, %rbx
	movq	%rdx, %r14
	movq	%rsi, %r15
	movq	%fs:40, %rax
	movq	%rax, 64(%rsp)
	movq	%rsp, %r12
.Ltmp14:
	.loc	1 82 5 prologue_end             # crypto_sign/ed25519/sign_ed25519.c:82:5
	movq	%r12, %rsi
.Ltmp15:
	#DEBUG_VALUE: crypto_sign_ed25519ph_final_create:sig <- $r15
	callq	crypto_hash_sha512_final@PLT
.Ltmp16:
	#DEBUG_VALUE: crypto_sign_ed25519ph_final_create:sk <- $rbx
	#DEBUG_VALUE: crypto_sign_ed25519ph_final_create:siglen_p <- $r14
	#DEBUG_VALUE: crypto_sign_ed25519ph_final_create:state <- [DW_OP_LLVM_entry_value 1] $rdi
	.loc	1 84 12                         # crypto_sign/ed25519/sign_ed25519.c:84:12
	movl	$64, %ecx
	movq	%r15, %rdi
	movq	%r14, %rsi
	movq	%r12, %rdx
	movq	%rbx, %r8
	movl	$1, %r9d
	callq	_crypto_sign_ed25519_detached@PLT
.Ltmp17:
	.loc	1 84 5 is_stmt 0                # crypto_sign/ed25519/sign_ed25519.c:84:5
	movq	%fs:40, %rcx
	cmpq	64(%rsp), %rcx
	jne	.LBB10_2
.Ltmp18:
# %bb.1:                                # %SP_return
	#DEBUG_VALUE: crypto_sign_ed25519ph_final_create:state <- [DW_OP_LLVM_entry_value 1] $rdi
	#DEBUG_VALUE: crypto_sign_ed25519ph_final_create:sig <- $r15
	#DEBUG_VALUE: crypto_sign_ed25519ph_final_create:siglen_p <- $r14
	#DEBUG_VALUE: crypto_sign_ed25519ph_final_create:sk <- $rbx
	.loc	1 84 5 epilogue_begin           # crypto_sign/ed25519/sign_ed25519.c:84:5
	addq	$72, %rsp
	.cfi_def_cfa_offset 40
	popq	%rbx
.Ltmp19:
	#DEBUG_VALUE: crypto_sign_ed25519ph_final_create:sk <- [DW_OP_LLVM_entry_value 1] $rcx
	.cfi_def_cfa_offset 32
	popq	%r12
	.cfi_def_cfa_offset 24
	popq	%r14
.Ltmp20:
	#DEBUG_VALUE: crypto_sign_ed25519ph_final_create:siglen_p <- [DW_OP_LLVM_entry_value 1] $rdx
	.cfi_def_cfa_offset 16
	popq	%r15
.Ltmp21:
	#DEBUG_VALUE: crypto_sign_ed25519ph_final_create:sig <- [DW_OP_LLVM_entry_value 1] $rsi
	.cfi_def_cfa_offset 8
	retq
.Ltmp22:
.LBB10_2:                               # %CallStackCheckFailBlk
	.cfi_def_cfa_offset 112
	#DEBUG_VALUE: crypto_sign_ed25519ph_final_create:state <- [DW_OP_LLVM_entry_value 1] $rdi
	#DEBUG_VALUE: crypto_sign_ed25519ph_final_create:sig <- $r15
	#DEBUG_VALUE: crypto_sign_ed25519ph_final_create:siglen_p <- $r14
	#DEBUG_VALUE: crypto_sign_ed25519ph_final_create:sk <- $rbx
	.loc	1 0 0                           # crypto_sign/ed25519/sign_ed25519.c:0
	callq	__stack_chk_fail@PLT
.Ltmp23:
.Lfunc_end10:
	.size	crypto_sign_ed25519ph_final_create, .Lfunc_end10-crypto_sign_ed25519ph_final_create
	.cfi_endproc
	.file	7 "crypto_sign/ed25519/ref10" "sign_ed25519_ref10.h"
                                        # -- End function
	.globl	crypto_sign_ed25519ph_final_verify # -- Begin function crypto_sign_ed25519ph_final_verify
	.p2align	4
	.type	crypto_sign_ed25519ph_final_verify,@function
crypto_sign_ed25519ph_final_verify:     # @crypto_sign_ed25519ph_final_verify
.Lfunc_begin11:
	.loc	1 91 0 is_stmt 1                # crypto_sign/ed25519/sign_ed25519.c:91:0
	.cfi_startproc
# %bb.0:
	#DEBUG_VALUE: crypto_sign_ed25519ph_final_verify:state <- $rdi
	#DEBUG_VALUE: crypto_sign_ed25519ph_final_verify:sig <- $rsi
	#DEBUG_VALUE: crypto_sign_ed25519ph_final_verify:pk <- $rdx
	pushq	%r15
	.cfi_def_cfa_offset 16
	pushq	%r14
	.cfi_def_cfa_offset 24
	pushq	%rbx
	.cfi_def_cfa_offset 32
	subq	$80, %rsp
	.cfi_def_cfa_offset 112
	.cfi_offset %rbx, -32
	.cfi_offset %r14, -24
	.cfi_offset %r15, -16
	movq	%rdx, %rbx
	movq	%rsi, %r14
	movq	%fs:40, %rax
	movq	%rax, 72(%rsp)
	movq	%rsp, %r15
.Ltmp24:
	.loc	1 94 5 prologue_end             # crypto_sign/ed25519/sign_ed25519.c:94:5
	movq	%r15, %rsi
.Ltmp25:
	#DEBUG_VALUE: crypto_sign_ed25519ph_final_verify:sig <- $r14
	callq	crypto_hash_sha512_final@PLT
.Ltmp26:
	#DEBUG_VALUE: crypto_sign_ed25519ph_final_verify:pk <- $rbx
	#DEBUG_VALUE: crypto_sign_ed25519ph_final_verify:state <- [DW_OP_LLVM_entry_value 1] $rdi
	.loc	1 96 12                         # crypto_sign/ed25519/sign_ed25519.c:96:12
	movl	$64, %edx
	movq	%r14, %rdi
	movq	%r15, %rsi
	movq	%rbx, %rcx
	movl	$1, %r8d
	callq	_crypto_sign_ed25519_verify_detached@PLT
.Ltmp27:
	.loc	1 96 5 is_stmt 0                # crypto_sign/ed25519/sign_ed25519.c:96:5
	movq	%fs:40, %rcx
	cmpq	72(%rsp), %rcx
	jne	.LBB11_2
.Ltmp28:
# %bb.1:                                # %SP_return
	#DEBUG_VALUE: crypto_sign_ed25519ph_final_verify:state <- [DW_OP_LLVM_entry_value 1] $rdi
	#DEBUG_VALUE: crypto_sign_ed25519ph_final_verify:sig <- $r14
	#DEBUG_VALUE: crypto_sign_ed25519ph_final_verify:pk <- $rbx
	.loc	1 96 5 epilogue_begin           # crypto_sign/ed25519/sign_ed25519.c:96:5
	addq	$80, %rsp
	.cfi_def_cfa_offset 32
	popq	%rbx
.Ltmp29:
	#DEBUG_VALUE: crypto_sign_ed25519ph_final_verify:pk <- [DW_OP_LLVM_entry_value 1] $rdx
	.cfi_def_cfa_offset 24
	popq	%r14
.Ltmp30:
	#DEBUG_VALUE: crypto_sign_ed25519ph_final_verify:sig <- [DW_OP_LLVM_entry_value 1] $rsi
	.cfi_def_cfa_offset 16
	popq	%r15
	.cfi_def_cfa_offset 8
	retq
.Ltmp31:
.LBB11_2:                               # %CallStackCheckFailBlk
	.cfi_def_cfa_offset 112
	#DEBUG_VALUE: crypto_sign_ed25519ph_final_verify:state <- [DW_OP_LLVM_entry_value 1] $rdi
	#DEBUG_VALUE: crypto_sign_ed25519ph_final_verify:sig <- $r14
	#DEBUG_VALUE: crypto_sign_ed25519ph_final_verify:pk <- $rbx
	.loc	1 0 0                           # crypto_sign/ed25519/sign_ed25519.c:0
	callq	__stack_chk_fail@PLT
.Ltmp32:
.Lfunc_end11:
	.size	crypto_sign_ed25519ph_final_verify, .Lfunc_end11-crypto_sign_ed25519ph_final_verify
	.cfi_endproc
                                        # -- End function
	.file	8 "./include/sodium" "crypto_sign_ed25519.h"
	.section	".note.GNU-stack","",@progbits
	.addrsig
	.addrsig_sym __stack_chk_fail