	.file	"sign.c"
	.file	0 "/home/leizhenyuu/opt/Anonymous_Repo/libsodium_o2_attr_inline/src/libsodium" "sign.c" md5 0x50b9c7511351af8f9ba0c5b5bc2f2f43
	.file	1 "crypto_sign/ed25519/ref10" "sign.c"
	.text
	.hidden	_crypto_sign_ed25519_ref10_hinit # -- Begin function _crypto_sign_ed25519_ref10_hinit
	.globl	_crypto_sign_ed25519_ref10_hinit
	.p2align	4
	.type	_crypto_sign_ed25519_ref10_hinit,@function
_crypto_sign_ed25519_ref10_hinit:       # @_crypto_sign_ed25519_ref10_hinit
.Lfunc_begin0:
	.loc	1 13 0                          # crypto_sign/ed25519/ref10/sign.c:13:0
	.cfi_startproc
# %bb.0:
	#DEBUG_VALUE: _crypto_sign_ed25519_ref10_hinit:hs <- $rdi
	#DEBUG_VALUE: _crypto_sign_ed25519_ref10_hinit:prehashed <- $esi
	pushq	%rbp
	.cfi_def_cfa_offset 16
	pushq	%rbx
	.cfi_def_cfa_offset 24
	pushq	%rax
	.cfi_def_cfa_offset 32
	.cfi_offset %rbx, -24
	.cfi_offset %rbp, -16
	movl	%esi, %ebp
	movq	%rdi, %rbx
.Ltmp0:
	.loc	1 21 5 prologue_end             # crypto_sign/ed25519/ref10/sign.c:21:5
	callq	crypto_hash_sha512_init@PLT
.Ltmp1:
	#DEBUG_VALUE: _crypto_sign_ed25519_ref10_hinit:prehashed <- $ebp
	#DEBUG_VALUE: _crypto_sign_ed25519_ref10_hinit:hs <- $rbx
	.loc	1 22 9                          # crypto_sign/ed25519/ref10/sign.c:22:9
	testl	%ebp, %ebp
	je	.LBB0_1
.Ltmp2:
# %bb.2:
	#DEBUG_VALUE: _crypto_sign_ed25519_ref10_hinit:hs <- $rbx
	#DEBUG_VALUE: _crypto_sign_ed25519_ref10_hinit:prehashed <- $ebp
	.loc	1 23 9                          # crypto_sign/ed25519/ref10/sign.c:23:9
	leaq	_crypto_sign_ed25519_ref10_hinit.DOM2PREFIX(%rip), %rsi
	movl	$34, %edx
	movq	%rbx, %rdi
	.loc	1 23 9 epilogue_begin is_stmt 0 # crypto_sign/ed25519/ref10/sign.c:23:9
	addq	$8, %rsp
	.cfi_def_cfa_offset 24
	popq	%rbx
.Ltmp3:
	#DEBUG_VALUE: _crypto_sign_ed25519_ref10_hinit:hs <- $rdi
	.cfi_def_cfa_offset 16
	popq	%rbp
.Ltmp4:
	#DEBUG_VALUE: _crypto_sign_ed25519_ref10_hinit:prehashed <- [DW_OP_LLVM_entry_value 1] $esi
	.cfi_def_cfa_offset 8
	jmp	crypto_hash_sha512_update@PLT   # TAILCALL
.Ltmp5:
.LBB0_1:
	.cfi_def_cfa_offset 32
	#DEBUG_VALUE: _crypto_sign_ed25519_ref10_hinit:hs <- $rbx
	#DEBUG_VALUE: _crypto_sign_ed25519_ref10_hinit:prehashed <- $ebp
	.loc	1 25 1 epilogue_begin is_stmt 1 # crypto_sign/ed25519/ref10/sign.c:25:1
	addq	$8, %rsp
	.cfi_def_cfa_offset 24
	popq	%rbx
.Ltmp6:
	#DEBUG_VALUE: _crypto_sign_ed25519_ref10_hinit:hs <- [DW_OP_LLVM_entry_value 1] $rdi
	.cfi_def_cfa_offset 16
	popq	%rbp
.Ltmp7:
	#DEBUG_VALUE: _crypto_sign_ed25519_ref10_hinit:prehashed <- [DW_OP_LLVM_entry_value 1] $esi
	.cfi_def_cfa_offset 8
	retq
.Ltmp8:
.Lfunc_end0:
	.size	_crypto_sign_ed25519_ref10_hinit, .Lfunc_end0-_crypto_sign_ed25519_ref10_hinit
	.cfi_endproc
	.file	2 "./include/sodium" "crypto_hash_sha512.h"
	.file	3 "/usr/include/x86_64-linux-gnu/bits" "types.h"
	.file	4 "/usr/include/x86_64-linux-gnu/bits" "stdint-uintn.h"
                                        # -- End function
	.hidden	_crypto_sign_ed25519_detached   # -- Begin function _crypto_sign_ed25519_detached
	.globl	_crypto_sign_ed25519_detached
	.p2align	4
	.type	_crypto_sign_ed25519_detached,@function
_crypto_sign_ed25519_detached:          # @_crypto_sign_ed25519_detached
.Lfunc_begin1:
	.loc	1 53 0                          # crypto_sign/ed25519/ref10/sign.c:53:0
	.cfi_startproc
# %bb.0:
	#DEBUG_VALUE: _crypto_sign_ed25519_detached:sig <- $rdi
	#DEBUG_VALUE: _crypto_sign_ed25519_detached:siglen_p <- $rsi
	#DEBUG_VALUE: _crypto_sign_ed25519_detached:m <- $rdx
	#DEBUG_VALUE: _crypto_sign_ed25519_detached:mlen <- $rcx
	#DEBUG_VALUE: _crypto_sign_ed25519_detached:sk <- $r8
	#DEBUG_VALUE: _crypto_sign_ed25519_detached:prehashed <- $r9d
	pushq	%rbp
	.cfi_def_cfa_offset 16
	pushq	%r15
	.cfi_def_cfa_offset 24
	pushq	%r14
	.cfi_def_cfa_offset 32
	pushq	%r13
	.cfi_def_cfa_offset 40
	pushq	%r12
	.cfi_def_cfa_offset 48
	pushq	%rbx
	.cfi_def_cfa_offset 56
	subq	$600, %rsp                      # imm = 0x258
	.cfi_def_cfa_offset 656
	.cfi_offset %rbx, -56
	.cfi_offset %r12, -48
	.cfi_offset %r13, -40
	.cfi_offset %r14, -32
	.cfi_offset %r15, -24
	.cfi_offset %rbp, -16
	movl	%r9d, %ebp
	movq	%r8, %rbx
	movq	%rcx, %r14
	movq	%rdx, %r15
	movq	%rsi, 24(%rsp)                  # 8-byte Spill
.Ltmp9:
	#DEBUG_VALUE: _crypto_sign_ed25519_detached:siglen_p <- [DW_OP_plus_uconst 24] [$rsp+0]
	movq	%rdi, %r12
	movq	%fs:40, %rax
	movq	%rax, 592(%rsp)
.Ltmp10:
	#DEBUG_VALUE: _crypto_sign_ed25519_ref10_hinit:hs <- [DW_OP_plus_uconst 384, DW_OP_stack_value] $rsp
	#DEBUG_VALUE: _crypto_sign_ed25519_ref10_hinit:prehashed <- $ebp
	leaq	384(%rsp), %rdi
.Ltmp11:
	#DEBUG_VALUE: _crypto_sign_ed25519_detached:sig <- $r12
	.loc	1 21 5 prologue_end             # crypto_sign/ed25519/ref10/sign.c:21:5 @[ crypto_sign/ed25519/ref10/sign.c:60:5 ]
	callq	crypto_hash_sha512_init@PLT
.Ltmp12:
	#DEBUG_VALUE: _crypto_sign_ed25519_detached:prehashed <- $ebp
	#DEBUG_VALUE: _crypto_sign_ed25519_detached:sk <- $rbx
	#DEBUG_VALUE: _crypto_sign_ed25519_detached:mlen <- $r14
	#DEBUG_VALUE: _crypto_sign_ed25519_detached:m <- $r15
	.loc	1 22 9                          # crypto_sign/ed25519/ref10/sign.c:22:9 @[ crypto_sign/ed25519/ref10/sign.c:60:5 ]
	testl	%ebp, %ebp
	je	.LBB1_2
.Ltmp13:
# %bb.1:
	#DEBUG_VALUE: _crypto_sign_ed25519_detached:sig <- $r12
	#DEBUG_VALUE: _crypto_sign_ed25519_detached:siglen_p <- [DW_OP_plus_uconst 24] [$rsp+0]
	#DEBUG_VALUE: _crypto_sign_ed25519_detached:m <- $r15
	#DEBUG_VALUE: _crypto_sign_ed25519_detached:mlen <- $r14
	#DEBUG_VALUE: _crypto_sign_ed25519_detached:sk <- $rbx
	#DEBUG_VALUE: _crypto_sign_ed25519_detached:prehashed <- $ebp
	#DEBUG_VALUE: _crypto_sign_ed25519_ref10_hinit:hs <- [DW_OP_plus_uconst 384, DW_OP_stack_value] $rsp
	#DEBUG_VALUE: _crypto_sign_ed25519_ref10_hinit:prehashed <- $ebp
	.loc	1 23 9                          # crypto_sign/ed25519/ref10/sign.c:23:9 @[ crypto_sign/ed25519/ref10/sign.c:60:5 ]
	leaq	_crypto_sign_ed25519_ref10_hinit.DOM2PREFIX(%rip), %rsi
	leaq	384(%rsp), %rdi
	movl	$34, %edx
	callq	crypto_hash_sha512_update@PLT
.Ltmp14:
.LBB1_2:                                # %_crypto_sign_ed25519_ref10_hinit.exit
	#DEBUG_VALUE: _crypto_sign_ed25519_detached:sig <- $r12
	#DEBUG_VALUE: _crypto_sign_ed25519_detached:siglen_p <- [DW_OP_plus_uconst 24] [$rsp+0]
	#DEBUG_VALUE: _crypto_sign_ed25519_detached:m <- $r15
	#DEBUG_VALUE: _crypto_sign_ed25519_detached:mlen <- $r14
	#DEBUG_VALUE: _crypto_sign_ed25519_detached:sk <- $rbx
	#DEBUG_VALUE: _crypto_sign_ed25519_detached:prehashed <- $ebp
	#DEBUG_VALUE: _crypto_sign_ed25519_ref10_hinit:hs <- [DW_OP_plus_uconst 384, DW_OP_stack_value] $rsp
	#DEBUG_VALUE: _crypto_sign_ed25519_ref10_hinit:prehashed <- $ebp
	#DEBUG_VALUE: memmove:__src <- [DW_OP_plus_uconst 32, DW_OP_stack_value] $rbx
	.loc	1 0 9 is_stmt 0                 # crypto_sign/ed25519/ref10/sign.c:0:9
	leaq	320(%rsp), %rdi
	.loc	1 62 5 is_stmt 1                # crypto_sign/ed25519/ref10/sign.c:62:5
	movl	$32, %edx
	movq	%rbx, %rsi
	callq	crypto_hash_sha512@PLT
.Ltmp15:
	.loc	1 66 39                         # crypto_sign/ed25519/ref10/sign.c:66:39
	leaq	352(%rsp), %rsi
	leaq	384(%rsp), %r13
	.loc	1 66 5 is_stmt 0                # crypto_sign/ed25519/ref10/sign.c:66:5
	movl	$32, %edx
	movq	%r13, %rdi
	callq	crypto_hash_sha512_update@PLT
.Ltmp16:
	.loc	1 69 5 is_stmt 1                # crypto_sign/ed25519/ref10/sign.c:69:5
	movq	%r13, %rdi
	movq	%r15, 16(%rsp)                  # 8-byte Spill
.Ltmp17:
	#DEBUG_VALUE: _crypto_sign_ed25519_detached:m <- [DW_OP_plus_uconst 16] [$rsp+0]
	movq	%r15, %rsi
	movq	%r14, %r15
	movq	%r14, %rdx
	callq	crypto_hash_sha512_update@PLT
.Ltmp18:
	.loc	1 0 5 is_stmt 0                 # crypto_sign/ed25519/ref10/sign.c:0:5
	leaq	256(%rsp), %r14
.Ltmp19:
	#DEBUG_VALUE: _crypto_sign_ed25519_detached:mlen <- $r15
	.loc	1 70 5 is_stmt 1                # crypto_sign/ed25519/ref10/sign.c:70:5
	movq	%r13, %rdi
	movq	%r14, %rsi
	callq	crypto_hash_sha512_final@PLT
.Ltmp20:
	.loc	1 72 17                         # crypto_sign/ed25519/ref10/sign.c:72:17
	leaq	32(%r12), %rax
	#DEBUG_VALUE: memmove:__dest <- $rax
.Ltmp21:
	#DEBUG_VALUE: memmove:__len <- 32
	.loc	1 0 17 is_stmt 0                # crypto_sign/ed25519/ref10/sign.c:0:17
	movq	%rax, 8(%rsp)                   # 8-byte Spill
.Ltmp22:
	#DEBUG_VALUE: memmove:__dest <- [DW_OP_plus_uconst 8, DW_OP_deref] $rsp
	.file	5 "/usr/include/x86_64-linux-gnu/bits" "string_fortified.h"
	.loc	5 36 10 is_stmt 1               # /usr/include/x86_64-linux-gnu/bits/string_fortified.h:36:10 @[ crypto_sign/ed25519/ref10/sign.c:72:5 ]
	movups	32(%rbx), %xmm0
	movups	48(%rbx), %xmm1
	movups	%xmm0, 32(%r12)
	movups	%xmm1, 48(%r12)
.Ltmp23:
	.loc	1 74 5                          # crypto_sign/ed25519/ref10/sign.c:74:5
	movq	%r14, %rdi
	callq	sc25519_reduce@PLT
.Ltmp24:
	.loc	1 0 5 is_stmt 0                 # crypto_sign/ed25519/ref10/sign.c:0:5
	leaq	32(%rsp), %rbx
.Ltmp25:
	#DEBUG_VALUE: _crypto_sign_ed25519_detached:sk <- [DW_OP_LLVM_entry_value 1] $r8
	.loc	1 75 5 is_stmt 1                # crypto_sign/ed25519/ref10/sign.c:75:5
	movq	%rbx, %rdi
	movq	%r14, %rsi
	callq	ge25519_scalarmult_base@PLT
.Ltmp26:
	.loc	1 76 5                          # crypto_sign/ed25519/ref10/sign.c:76:5
	movq	%r12, %rdi
	movq	%rbx, %rsi
	callq	ge25519_p3_tobytes@PLT
.Ltmp27:
	#DEBUG_VALUE: _crypto_sign_ed25519_ref10_hinit:hs <- [DW_OP_plus_uconst 384, DW_OP_stack_value] $rsp
	#DEBUG_VALUE: _crypto_sign_ed25519_ref10_hinit:prehashed <- $ebp
	.loc	1 21 5                          # crypto_sign/ed25519/ref10/sign.c:21:5 @[ crypto_sign/ed25519/ref10/sign.c:78:5 ]
	movq	%r13, %rdi
	callq	crypto_hash_sha512_init@PLT
.Ltmp28:
	.loc	1 22 9                          # crypto_sign/ed25519/ref10/sign.c:22:9 @[ crypto_sign/ed25519/ref10/sign.c:60:5 ]
	testl	%ebp, %ebp
.Ltmp29:
	.loc	1 22 9 is_stmt 0                # crypto_sign/ed25519/ref10/sign.c:22:9 @[ crypto_sign/ed25519/ref10/sign.c:78:5 ]
	je	.LBB1_4
.Ltmp30:
# %bb.3:
	#DEBUG_VALUE: _crypto_sign_ed25519_detached:sig <- $r12
	#DEBUG_VALUE: _crypto_sign_ed25519_detached:siglen_p <- [DW_OP_plus_uconst 24] [$rsp+0]
	#DEBUG_VALUE: _crypto_sign_ed25519_detached:m <- [DW_OP_plus_uconst 16] [$rsp+0]
	#DEBUG_VALUE: _crypto_sign_ed25519_detached:mlen <- $r15
	#DEBUG_VALUE: _crypto_sign_ed25519_detached:sk <- [DW_OP_LLVM_entry_value 1] $r8
	#DEBUG_VALUE: _crypto_sign_ed25519_detached:prehashed <- $ebp
	#DEBUG_VALUE: _crypto_sign_ed25519_ref10_hinit:hs <- [DW_OP_plus_uconst 384, DW_OP_stack_value] $rsp
	#DEBUG_VALUE: _crypto_sign_ed25519_ref10_hinit:prehashed <- $ebp
	.loc	1 23 9 is_stmt 1                # crypto_sign/ed25519/ref10/sign.c:23:9 @[ crypto_sign/ed25519/ref10/sign.c:78:5 ]
	leaq	_crypto_sign_ed25519_ref10_hinit.DOM2PREFIX(%rip), %rsi
	leaq	384(%rsp), %rdi
	movl	$34, %edx
	callq	crypto_hash_sha512_update@PLT
.Ltmp31:
.LBB1_4:                                # %_crypto_sign_ed25519_ref10_hinit.exit14
	#DEBUG_VALUE: _crypto_sign_ed25519_detached:sig <- $r12
	#DEBUG_VALUE: _crypto_sign_ed25519_detached:siglen_p <- [DW_OP_plus_uconst 24] [$rsp+0]
	#DEBUG_VALUE: _crypto_sign_ed25519_detached:m <- [DW_OP_plus_uconst 16] [$rsp+0]
	#DEBUG_VALUE: _crypto_sign_ed25519_detached:mlen <- $r15
	#DEBUG_VALUE: _crypto_sign_ed25519_detached:sk <- [DW_OP_LLVM_entry_value 1] $r8
	#DEBUG_VALUE: _crypto_sign_ed25519_detached:prehashed <- $ebp
	.loc	1 0 9 is_stmt 0                 # crypto_sign/ed25519/ref10/sign.c:0:9
	leaq	384(%rsp), %rbx
	.loc	1 79 5 is_stmt 1                # crypto_sign/ed25519/ref10/sign.c:79:5
	movl	$64, %edx
	movq	%rbx, %rdi
	movq	%r12, %rsi
	callq	crypto_hash_sha512_update@PLT
.Ltmp32:
	.loc	1 80 5                          # crypto_sign/ed25519/ref10/sign.c:80:5
	movq	%rbx, %rdi
	movq	16(%rsp), %rsi                  # 8-byte Reload
	movq	%r15, %rdx
	callq	crypto_hash_sha512_update@PLT
.Ltmp33:
	.loc	1 0 5 is_stmt 0                 # crypto_sign/ed25519/ref10/sign.c:0:5
	leaq	192(%rsp), %r14
	.loc	1 81 5 is_stmt 1                # crypto_sign/ed25519/ref10/sign.c:81:5
	movq	%rbx, %rdi
	movq	%r14, %rsi
	callq	crypto_hash_sha512_final@PLT
.Ltmp34:
	.loc	1 83 5                          # crypto_sign/ed25519/ref10/sign.c:83:5
	movq	%r14, %rdi
	callq	sc25519_reduce@PLT
.Ltmp35:
	#DEBUG_VALUE: _crypto_sign_ed25519_clamp:k <- [DW_OP_plus_uconst 320, DW_OP_stack_value] $rsp
	.loc	1 30 10                         # crypto_sign/ed25519/ref10/sign.c:30:10 @[ crypto_sign/ed25519/ref10/sign.c:84:5 ]
	andb	$-8, 320(%rsp)
	.loc	1 31 11                         # crypto_sign/ed25519/ref10/sign.c:31:11 @[ crypto_sign/ed25519/ref10/sign.c:84:5 ]
	movzbl	351(%rsp), %eax
	andb	$63, %al
	.loc	1 32 11                         # crypto_sign/ed25519/ref10/sign.c:32:11 @[ crypto_sign/ed25519/ref10/sign.c:84:5 ]
	orb	$64, %al
	movb	%al, 351(%rsp)
	leaq	320(%rsp), %rbx
	leaq	256(%rsp), %r15
.Ltmp36:
	#DEBUG_VALUE: _crypto_sign_ed25519_detached:mlen <- [DW_OP_LLVM_entry_value 1] $rcx
	.loc	1 0 11 is_stmt 0                # crypto_sign/ed25519/ref10/sign.c:0:11
	movq	8(%rsp), %rdi                   # 8-byte Reload
.Ltmp37:
	.loc	1 85 5 is_stmt 1                # crypto_sign/ed25519/ref10/sign.c:85:5
	movq	%r14, %rsi
	movq	%rbx, %rdx
	movq	%r15, %rcx
	callq	sc25519_muladd@PLT
.Ltmp38:
	.loc	1 87 5                          # crypto_sign/ed25519/ref10/sign.c:87:5
	movl	$64, %esi
	movq	%rbx, %rdi
	callq	sodium_memzero@PLT
.Ltmp39:
	.loc	1 88 5                          # crypto_sign/ed25519/ref10/sign.c:88:5
	movl	$64, %esi
	movq	%r15, %rdi
	callq	sodium_memzero@PLT
.Ltmp40:
	.loc	1 0 5 is_stmt 0                 # crypto_sign/ed25519/ref10/sign.c:0:5
	movq	24(%rsp), %rax                  # 8-byte Reload
.Ltmp41:
	.loc	1 90 18 is_stmt 1               # crypto_sign/ed25519/ref10/sign.c:90:18
	testq	%rax, %rax
	je	.LBB1_6
.Ltmp42:
# %bb.5:
	#DEBUG_VALUE: _crypto_sign_ed25519_detached:sig <- $r12
	#DEBUG_VALUE: _crypto_sign_ed25519_detached:siglen_p <- [DW_OP_plus_uconst 24] [$rsp+0]
	#DEBUG_VALUE: _crypto_sign_ed25519_detached:m <- [DW_OP_plus_uconst 16] [$rsp+0]
	#DEBUG_VALUE: _crypto_sign_ed25519_detached:mlen <- [DW_OP_LLVM_entry_value 1] $rcx
	#DEBUG_VALUE: _crypto_sign_ed25519_detached:sk <- [DW_OP_LLVM_entry_value 1] $r8
	#DEBUG_VALUE: _crypto_sign_ed25519_detached:prehashed <- $ebp
	.loc	1 91 19                         # crypto_sign/ed25519/ref10/sign.c:91:19
	movq	$64, (%rax)
.Ltmp43:
.LBB1_6:
	#DEBUG_VALUE: _crypto_sign_ed25519_detached:sig <- $r12
	#DEBUG_VALUE: _crypto_sign_ed25519_detached:siglen_p <- [DW_OP_plus_uconst 24] [$rsp+0]
	#DEBUG_VALUE: _crypto_sign_ed25519_detached:m <- [DW_OP_plus_uconst 16] [$rsp+0]
	#DEBUG_VALUE: _crypto_sign_ed25519_detached:mlen <- [DW_OP_LLVM_entry_value 1] $rcx
	#DEBUG_VALUE: _crypto_sign_ed25519_detached:sk <- [DW_OP_LLVM_entry_value 1] $r8
	#DEBUG_VALUE: _crypto_sign_ed25519_detached:prehashed <- $ebp
	.loc	1 93 5                          # crypto_sign/ed25519/ref10/sign.c:93:5
	movq	%fs:40, %rax
	cmpq	592(%rsp), %rax
	jne	.LBB1_8
.Ltmp44:
# %bb.7:                                # %SP_return
	#DEBUG_VALUE: _crypto_sign_ed25519_detached:sig <- $r12
	#DEBUG_VALUE: _crypto_sign_ed25519_detached:siglen_p <- [DW_OP_plus_uconst 24] [$rsp+0]
	#DEBUG_VALUE: _crypto_sign_ed25519_detached:m <- [DW_OP_plus_uconst 16] [$rsp+0]
	#DEBUG_VALUE: _crypto_sign_ed25519_detached:mlen <- [DW_OP_LLVM_entry_value 1] $rcx
	#DEBUG_VALUE: _crypto_sign_ed25519_detached:sk <- [DW_OP_LLVM_entry_value 1] $r8
	#DEBUG_VALUE: _crypto_sign_ed25519_detached:prehashed <- $ebp
	xorl	%eax, %eax
	.loc	1 93 5 epilogue_begin is_stmt 0 # crypto_sign/ed25519/ref10/sign.c:93:5
	addq	$600, %rsp                      # imm = 0x258
	.cfi_def_cfa_offset 56
	popq	%rbx
	.cfi_def_cfa_offset 48
	popq	%r12
.Ltmp45:
	#DEBUG_VALUE: _crypto_sign_ed25519_detached:sig <- [DW_OP_LLVM_entry_value 1] $rdi
	.cfi_def_cfa_offset 40
	popq	%r13
	.cfi_def_cfa_offset 32
	popq	%r14
	.cfi_def_cfa_offset 24
	popq	%r15
	.cfi_def_cfa_offset 16
	popq	%rbp
.Ltmp46:
	#DEBUG_VALUE: _crypto_sign_ed25519_detached:prehashed <- [DW_OP_LLVM_entry_value 1] $r9d
	.cfi_def_cfa_offset 8
	retq
.Ltmp47:
.LBB1_8:                                # %CallStackCheckFailBlk
	.cfi_def_cfa_offset 656
	#DEBUG_VALUE: _crypto_sign_ed25519_detached:sig <- $r12
	#DEBUG_VALUE: _crypto_sign_ed25519_detached:siglen_p <- [DW_OP_plus_uconst 24] [$rsp+0]
	#DEBUG_VALUE: _crypto_sign_ed25519_detached:m <- [DW_OP_plus_uconst 16] [$rsp+0]
	#DEBUG_VALUE: _crypto_sign_ed25519_detached:mlen <- [DW_OP_LLVM_entry_value 1] $rcx
	#DEBUG_VALUE: _crypto_sign_ed25519_detached:sk <- [DW_OP_LLVM_entry_value 1] $r8
	#DEBUG_VALUE: _crypto_sign_ed25519_detached:prehashed <- $ebp
	.loc	1 0 0                           # crypto_sign/ed25519/ref10/sign.c:0
	callq	__stack_chk_fail@PLT
.Ltmp48:
.Lfunc_end1:
	.size	_crypto_sign_ed25519_detached, .Lfunc_end1-_crypto_sign_ed25519_detached
	.cfi_endproc
	.file	6 "/home/leizhenyuu/opt/Anonymous_Repo" "llvm-project/build/lib/clang/21/include/__stddef_size_t.h"
	.file	7 "./include/sodium/private" "ed25519_ref10.h"
	.file	8 "./include/sodium" "utils.h"
                                        # -- End function
	.globl	crypto_sign_ed25519_detached    # -- Begin function crypto_sign_ed25519_detached
	.p2align	4
	.type	crypto_sign_ed25519_detached,@function
crypto_sign_ed25519_detached:           # @crypto_sign_ed25519_detached
.Lfunc_begin2:
	.loc	1 100 0 is_stmt 1               # crypto_sign/ed25519/ref10/sign.c:100:0
	.cfi_startproc
# %bb.0:
	#DEBUG_VALUE: crypto_sign_ed25519_detached:sig <- $rdi
	#DEBUG_VALUE: crypto_sign_ed25519_detached:siglen_p <- $rsi
	#DEBUG_VALUE: crypto_sign_ed25519_detached:m <- $rdx
	#DEBUG_VALUE: crypto_sign_ed25519_detached:mlen <- $rcx
	#DEBUG_VALUE: crypto_sign_ed25519_detached:sk <- $r8
	pushq	%rax
	.cfi_def_cfa_offset 16
.Ltmp49:
	.loc	1 101 12 prologue_end           # crypto_sign/ed25519/ref10/sign.c:101:12
	xorl	%r9d, %r9d
	callq	_crypto_sign_ed25519_detached
.Ltmp50:
	#DEBUG_VALUE: crypto_sign_ed25519_detached:sk <- [DW_OP_LLVM_entry_value 1] $r8
	#DEBUG_VALUE: crypto_sign_ed25519_detached:mlen <- [DW_OP_LLVM_entry_value 1] $rcx
	#DEBUG_VALUE: crypto_sign_ed25519_detached:m <- [DW_OP_LLVM_entry_value 1] $rdx
	#DEBUG_VALUE: crypto_sign_ed25519_detached:siglen_p <- [DW_OP_LLVM_entry_value 1] $rsi
	#DEBUG_VALUE: crypto_sign_ed25519_detached:sig <- [DW_OP_LLVM_entry_value 1] $rdi
	.loc	1 101 5 is_stmt 0               # crypto_sign/ed25519/ref10/sign.c:101:5
	xorl	%eax, %eax
	.loc	1 101 5 epilogue_begin          # crypto_sign/ed25519/ref10/sign.c:101:5
	popq	%rcx
	.cfi_def_cfa_offset 8
	retq
.Ltmp51:
.Lfunc_end2:
	.size	crypto_sign_ed25519_detached, .Lfunc_end2-crypto_sign_ed25519_detached
	.cfi_endproc
                                        # -- End function
	.globl	crypto_sign_ed25519             # -- Begin function crypto_sign_ed25519
	.p2align	4
	.type	crypto_sign_ed25519,@function
crypto_sign_ed25519:                    # @crypto_sign_ed25519
.Lfunc_begin3:
	.loc	1 108 0 is_stmt 1               # crypto_sign/ed25519/ref10/sign.c:108:0
	.cfi_startproc
# %bb.0:
	#DEBUG_VALUE: crypto_sign_ed25519:sm <- $rdi
	#DEBUG_VALUE: crypto_sign_ed25519:smlen_p <- $rsi
	#DEBUG_VALUE: crypto_sign_ed25519:m <- $rdx
	#DEBUG_VALUE: crypto_sign_ed25519:mlen <- $rcx
	#DEBUG_VALUE: crypto_sign_ed25519:sk <- $r8
	pushq	%rbp
	.cfi_def_cfa_offset 16
	pushq	%r15
	.cfi_def_cfa_offset 24
	pushq	%r14
	.cfi_def_cfa_offset 32
	pushq	%r13
	.cfi_def_cfa_offset 40
	pushq	%r12
	.cfi_def_cfa_offset 48
	pushq	%rbx
	.cfi_def_cfa_offset 56
	pushq	%rax
	.cfi_def_cfa_offset 64
	.cfi_offset %rbx, -56
	.cfi_offset %r12, -48
	.cfi_offset %r13, -40
	.cfi_offset %r14, -32
	.cfi_offset %r15, -24
	.cfi_offset %rbp, -16
	movq	%r8, %r12
	movq	%rcx, %rbx
	movq	%rsi, %r14
	movq	%rdi, %r15
.Ltmp52:
	.loc	1 111 16 prologue_end           # crypto_sign/ed25519/ref10/sign.c:111:16
	leaq	64(%rdi), %r13
.Ltmp53:
	#DEBUG_VALUE: memmove:__dest <- $r13
	#DEBUG_VALUE: memmove:__src <- $rdx
	#DEBUG_VALUE: memmove:__len <- $rbx
	.loc	5 36 10                         # /usr/include/x86_64-linux-gnu/bits/string_fortified.h:36:10 @[ crypto_sign/ed25519/ref10/sign.c:111:5 ]
	movq	%r13, %rdi
.Ltmp54:
	#DEBUG_VALUE: crypto_sign_ed25519:sm <- $r15
	movq	%rdx, %rsi
.Ltmp55:
	#DEBUG_VALUE: crypto_sign_ed25519:smlen_p <- $r14
	movq	%rcx, %rdx
.Ltmp56:
	#DEBUG_VALUE: memmove:__src <- $rsi
	#DEBUG_VALUE: crypto_sign_ed25519:m <- $rsi
	callq	memmove@PLT
.Ltmp57:
	#DEBUG_VALUE: crypto_sign_ed25519:sk <- $r12
	#DEBUG_VALUE: crypto_sign_ed25519:mlen <- $rbx
	#DEBUG_VALUE: crypto_sign_ed25519:m <- [DW_OP_LLVM_entry_value 1] $rdx
	#DEBUG_VALUE: crypto_sign_ed25519_detached:sig <- $r15
	#DEBUG_VALUE: crypto_sign_ed25519_detached:siglen_p <- $rsp
	#DEBUG_VALUE: crypto_sign_ed25519_detached:m <- $r13
	#DEBUG_VALUE: crypto_sign_ed25519_detached:mlen <- $rbx
	#DEBUG_VALUE: crypto_sign_ed25519_detached:sk <- $r12
	.loc	5 0 10 is_stmt 0                # /usr/include/x86_64-linux-gnu/bits/string_fortified.h:0:10
	movq	%rsp, %rsi
	xorl	%ebp, %ebp
.Ltmp58:
	.loc	1 101 12 is_stmt 1              # crypto_sign/ed25519/ref10/sign.c:101:12 @[ crypto_sign/ed25519/ref10/sign.c:113:9 ]
	movq	%r15, %rdi
	movq	%r13, %rdx
	movq	%rbx, %rcx
	movq	%r12, %r8
	xorl	%r9d, %r9d
	callq	_crypto_sign_ed25519_detached
.Ltmp59:
	.loc	1 0 12 is_stmt 0                # crypto_sign/ed25519/ref10/sign.c:0:12
	cmpq	$64, (%rsp)
.Ltmp60:
	.loc	1 114 51 is_stmt 1              # crypto_sign/ed25519/ref10/sign.c:114:51
	jne	.LBB3_1
.Ltmp61:
# %bb.4:
	#DEBUG_VALUE: crypto_sign_ed25519:sm <- $r15
	#DEBUG_VALUE: crypto_sign_ed25519:smlen_p <- $r14
	#DEBUG_VALUE: crypto_sign_ed25519:m <- [DW_OP_LLVM_entry_value 1] $rdx
	#DEBUG_VALUE: crypto_sign_ed25519:mlen <- $rbx
	#DEBUG_VALUE: crypto_sign_ed25519:sk <- $r12
	.loc	1 0 0 is_stmt 0                 # crypto_sign/ed25519/ref10/sign.c:0
	testq	%r14, %r14
.Ltmp62:
	.loc	1 124 17 is_stmt 1              # crypto_sign/ed25519/ref10/sign.c:124:17
	je	.LBB3_6
.Ltmp63:
# %bb.5:
	#DEBUG_VALUE: crypto_sign_ed25519:sm <- $r15
	#DEBUG_VALUE: crypto_sign_ed25519:smlen_p <- $r14
	#DEBUG_VALUE: crypto_sign_ed25519:m <- [DW_OP_LLVM_entry_value 1] $rdx
	#DEBUG_VALUE: crypto_sign_ed25519:mlen <- $rbx
	#DEBUG_VALUE: crypto_sign_ed25519:sk <- $r12
	.loc	1 125 25                        # crypto_sign/ed25519/ref10/sign.c:125:25
	addq	$64, %rbx
.Ltmp64:
	#DEBUG_VALUE: crypto_sign_ed25519:mlen <- [DW_OP_LLVM_entry_value 1] $rcx
	.loc	1 125 18 is_stmt 0              # crypto_sign/ed25519/ref10/sign.c:125:18
	movq	%rbx, (%r14)
	jmp	.LBB3_6
.Ltmp65:
.LBB3_1:
	#DEBUG_VALUE: crypto_sign_ed25519:sm <- $r15
	#DEBUG_VALUE: crypto_sign_ed25519:smlen_p <- $r14
	#DEBUG_VALUE: crypto_sign_ed25519:m <- [DW_OP_LLVM_entry_value 1] $rdx
	#DEBUG_VALUE: crypto_sign_ed25519:mlen <- $rbx
	#DEBUG_VALUE: crypto_sign_ed25519:sk <- $r12
	.loc	1 0 0                           # crypto_sign/ed25519/ref10/sign.c:0
	testq	%r14, %r14
.Ltmp66:
	.loc	1 116 21 is_stmt 1              # crypto_sign/ed25519/ref10/sign.c:116:21
	je	.LBB3_3
.Ltmp67:
# %bb.2:
	#DEBUG_VALUE: crypto_sign_ed25519:sm <- $r15
	#DEBUG_VALUE: crypto_sign_ed25519:smlen_p <- $r14
	#DEBUG_VALUE: crypto_sign_ed25519:m <- [DW_OP_LLVM_entry_value 1] $rdx
	#DEBUG_VALUE: crypto_sign_ed25519:mlen <- $rbx
	#DEBUG_VALUE: crypto_sign_ed25519:sk <- $r12
	.loc	1 117 22                        # crypto_sign/ed25519/ref10/sign.c:117:22
	movq	$0, (%r14)
.Ltmp68:
.LBB3_3:
	#DEBUG_VALUE: crypto_sign_ed25519:sm <- $r15
	#DEBUG_VALUE: crypto_sign_ed25519:smlen_p <- $r14
	#DEBUG_VALUE: crypto_sign_ed25519:m <- [DW_OP_LLVM_entry_value 1] $rdx
	#DEBUG_VALUE: crypto_sign_ed25519:mlen <- $rbx
	#DEBUG_VALUE: crypto_sign_ed25519:sk <- $r12
	.loc	1 119 28                        # crypto_sign/ed25519/ref10/sign.c:119:28
	addq	$64, %rbx
.Ltmp69:
	#DEBUG_VALUE: crypto_sign_ed25519:mlen <- [DW_OP_LLVM_entry_value 1] $rcx
	#DEBUG_VALUE: memset:__len <- $rbx
	#DEBUG_VALUE: memset:__dest <- $r15
	#DEBUG_VALUE: memset:__ch <- 0
	.loc	5 59 10                         # /usr/include/x86_64-linux-gnu/bits/string_fortified.h:59:10 @[ crypto_sign/ed25519/ref10/sign.c:119:9 ]
	movq	%r15, %rdi
	xorl	%esi, %esi
	movq	%rbx, %rdx
	callq	memset@PLT
.Ltmp70:
	.loc	5 0 10 is_stmt 0                # /usr/include/x86_64-linux-gnu/bits/string_fortified.h:0:10
	movl	$-1, %ebp
.Ltmp71:
.LBB3_6:
	#DEBUG_VALUE: crypto_sign_ed25519:sm <- $r15
	#DEBUG_VALUE: crypto_sign_ed25519:smlen_p <- $r14
	#DEBUG_VALUE: crypto_sign_ed25519:m <- [DW_OP_LLVM_entry_value 1] $rdx
	#DEBUG_VALUE: crypto_sign_ed25519:mlen <- [DW_OP_LLVM_entry_value 1] $rcx
	#DEBUG_VALUE: crypto_sign_ed25519:sk <- $r12
	.loc	1 128 1 is_stmt 1               # crypto_sign/ed25519/ref10/sign.c:128:1
	movl	%ebp, %eax
	.loc	1 128 1 epilogue_begin is_stmt 0 # crypto_sign/ed25519/ref10/sign.c:128:1
	addq	$8, %rsp
	.cfi_def_cfa_offset 56
	popq	%rbx
	.cfi_def_cfa_offset 48
	popq	%r12
.Ltmp72:
	#DEBUG_VALUE: crypto_sign_ed25519:sk <- [DW_OP_LLVM_entry_value 1] $r8
	.cfi_def_cfa_offset 40
	popq	%r13
	.cfi_def_cfa_offset 32
	popq	%r14
.Ltmp73:
	#DEBUG_VALUE: crypto_sign_ed25519:smlen_p <- [DW_OP_LLVM_entry_value 1] $rsi
	.cfi_def_cfa_offset 24
	popq	%r15
.Ltmp74:
	#DEBUG_VALUE: crypto_sign_ed25519:sm <- [DW_OP_LLVM_entry_value 1] $rdi
	.cfi_def_cfa_offset 16
	popq	%rbp
	.cfi_def_cfa_offset 8
	retq
.Ltmp75:
.Lfunc_end3:
	.size	crypto_sign_ed25519, .Lfunc_end3-crypto_sign_ed25519
	.cfi_endproc
                                        # -- End function
	.type	_crypto_sign_ed25519_ref10_hinit.DOM2PREFIX,@object # @_crypto_sign_ed25519_ref10_hinit.DOM2PREFIX
	.section	.rodata,"a",@progbits
	.p2align	4, 0x0
_crypto_sign_ed25519_ref10_hinit.DOM2PREFIX:
	.asciz	"SigEd25519 no Ed25519 collisions\001"
	.size	_crypto_sign_ed25519_ref10_hinit.DOM2PREFIX, 34

	.section	".note.GNU-stack","",@progbits
	.addrsig
	.addrsig_sym __stack_chk_fail
	.addrsig_sym _crypto_sign_ed25519_ref10_hinit.DOM2PREFIX