	.file	"stream_xsalsa20.c"
	.text
	.globl	crypto_stream_xsalsa20          # -- Begin function crypto_stream_xsalsa20
	.p2align	4
	.type	crypto_stream_xsalsa20,@function
crypto_stream_xsalsa20:                 # @crypto_stream_xsalsa20
.Lfunc_begin0:
	.file	0 "/home/leizhenyuu/opt/Anonymous_Repo/libsodium_o2_attr_inline/src/libsodium" "stream_xsalsa20.c" md5 0x98b3fc2b9fe5c6d16e2c8c0ff8ae385d
	.file	1 "crypto_stream/xsalsa20" "stream_xsalsa20.c"
	.loc	1 10 0                          # crypto_stream/xsalsa20/stream_xsalsa20.c:10:0
	.cfi_startproc
# %bb.0:
	#DEBUG_VALUE: crypto_stream_xsalsa20:c <- $rdi
	#DEBUG_VALUE: crypto_stream_xsalsa20:clen <- $rsi
	#DEBUG_VALUE: crypto_stream_xsalsa20:n <- $rdx
	#DEBUG_VALUE: crypto_stream_xsalsa20:k <- $rcx
	pushq	%r15
	.cfi_def_cfa_offset 16
	pushq	%r14
	.cfi_def_cfa_offset 24
	pushq	%r12
	.cfi_def_cfa_offset 32
	pushq	%rbx
	.cfi_def_cfa_offset 40
	subq	$40, %rsp
	.cfi_def_cfa_offset 80
	.cfi_offset %rbx, -40
	.cfi_offset %r12, -32
	.cfi_offset %r14, -24
	.cfi_offset %r15, -16
	movq	%rdx, %rbx
	movq	%rsi, %r14
	movq	%rdi, %r15
	movq	%fs:40, %rax
	movq	%rax, 32(%rsp)
	movq	%rsp, %r12
.Ltmp0:
	.loc	1 14 5 prologue_end             # crypto_stream/xsalsa20/stream_xsalsa20.c:14:5
	movq	%r12, %rdi
.Ltmp1:
	#DEBUG_VALUE: crypto_stream_xsalsa20:c <- $r15
	movq	%rdx, %rsi
.Ltmp2:
	#DEBUG_VALUE: crypto_stream_xsalsa20:clen <- $r14
	movq	%rcx, %rdx
.Ltmp3:
	#DEBUG_VALUE: crypto_stream_xsalsa20:n <- $rbx
	xorl	%ecx, %ecx
.Ltmp4:
	#DEBUG_VALUE: crypto_stream_xsalsa20:k <- $rdx
	callq	crypto_core_hsalsa20@PLT
.Ltmp5:
	#DEBUG_VALUE: crypto_stream_xsalsa20:k <- [DW_OP_LLVM_entry_value 1] $rcx
	.loc	1 15 44                         # crypto_stream/xsalsa20/stream_xsalsa20.c:15:44
	addq	$16, %rbx
.Ltmp6:
	#DEBUG_VALUE: crypto_stream_xsalsa20:n <- [DW_OP_LLVM_entry_value 1] $rdx
	.loc	1 15 11 is_stmt 0               # crypto_stream/xsalsa20/stream_xsalsa20.c:15:11
	movq	%r15, %rdi
	movq	%r14, %rsi
	movq	%rbx, %rdx
	movq	%r12, %rcx
	callq	crypto_stream_salsa20@PLT
.Ltmp7:
	movl	%eax, %ebx
.Ltmp8:
	#DEBUG_VALUE: crypto_stream_xsalsa20:ret <- $ebx
	.loc	1 16 5 is_stmt 1                # crypto_stream/xsalsa20/stream_xsalsa20.c:16:5
	movl	$32, %esi
	movq	%r12, %rdi
	callq	sodium_memzero@PLT
.Ltmp9:
	.loc	1 18 5                          # crypto_stream/xsalsa20/stream_xsalsa20.c:18:5
	movq	%fs:40, %rax
	cmpq	32(%rsp), %rax
	jne	.LBB0_2
.Ltmp10:
# %bb.1:                                # %SP_return
	#DEBUG_VALUE: crypto_stream_xsalsa20:c <- $r15
	#DEBUG_VALUE: crypto_stream_xsalsa20:clen <- $r14
	#DEBUG_VALUE: crypto_stream_xsalsa20:n <- [DW_OP_LLVM_entry_value 1] $rdx
	#DEBUG_VALUE: crypto_stream_xsalsa20:k <- [DW_OP_LLVM_entry_value 1] $rcx
	#DEBUG_VALUE: crypto_stream_xsalsa20:ret <- $ebx
	movl	%ebx, %eax
	.loc	1 18 5 epilogue_begin is_stmt 0 # crypto_stream/xsalsa20/stream_xsalsa20.c:18:5
	addq	$40, %rsp
	.cfi_def_cfa_offset 40
	popq	%rbx
.Ltmp11:
	#DEBUG_VALUE: crypto_stream_xsalsa20:ret <- $eax
	.cfi_def_cfa_offset 32
	popq	%r12
	.cfi_def_cfa_offset 24
	popq	%r14
.Ltmp12:
	#DEBUG_VALUE: crypto_stream_xsalsa20:clen <- [DW_OP_LLVM_entry_value 1] $rsi
	.cfi_def_cfa_offset 16
	popq	%r15
.Ltmp13:
	#DEBUG_VALUE: crypto_stream_xsalsa20:c <- [DW_OP_LLVM_entry_value 1] $rdi
	.cfi_def_cfa_offset 8
	retq
.Ltmp14:
.LBB0_2:                                # %CallStackCheckFailBlk
	.cfi_def_cfa_offset 80
	#DEBUG_VALUE: crypto_stream_xsalsa20:c <- $r15
	#DEBUG_VALUE: crypto_stream_xsalsa20:clen <- $r14
	#DEBUG_VALUE: crypto_stream_xsalsa20:n <- [DW_OP_LLVM_entry_value 1] $rdx
	#DEBUG_VALUE: crypto_stream_xsalsa20:k <- [DW_OP_LLVM_entry_value 1] $rcx
	#DEBUG_VALUE: crypto_stream_xsalsa20:ret <- $ebx
	.loc	1 0 0                           # crypto_stream/xsalsa20/stream_xsalsa20.c:0
	callq	__stack_chk_fail@PLT
.Ltmp15:
.Lfunc_end0:
	.size	crypto_stream_xsalsa20, .Lfunc_end0-crypto_stream_xsalsa20
	.cfi_endproc
	.file	2 "./include/sodium" "crypto_core_hsalsa20.h"
	.file	3 "./include/sodium" "crypto_stream_salsa20.h"
	.file	4 "./include/sodium" "utils.h"
	.file	5 "/home/leizhenyuu/opt/Anonymous_Repo" "llvm-project/build/lib/clang/21/include/__stddef_size_t.h"
                                        # -- End function
	.globl	crypto_stream_xsalsa20_xor_ic   # -- Begin function crypto_stream_xsalsa20_xor_ic
	.p2align	4
	.type	crypto_stream_xsalsa20_xor_ic,@function
crypto_stream_xsalsa20_xor_ic:          # @crypto_stream_xsalsa20_xor_ic
.Lfunc_begin1:
	.loc	1 25 0 is_stmt 1                # crypto_stream/xsalsa20/stream_xsalsa20.c:25:0
	.cfi_startproc
# %bb.0:
	#DEBUG_VALUE: crypto_stream_xsalsa20_xor_ic:c <- $rdi
	#DEBUG_VALUE: crypto_stream_xsalsa20_xor_ic:m <- $rsi
	#DEBUG_VALUE: crypto_stream_xsalsa20_xor_ic:mlen <- $rdx
	#DEBUG_VALUE: crypto_stream_xsalsa20_xor_ic:n <- $rcx
	#DEBUG_VALUE: crypto_stream_xsalsa20_xor_ic:ic <- $r8
	#DEBUG_VALUE: crypto_stream_xsalsa20_xor_ic:k <- $r9
	pushq	%rbp
	.cfi_def_cfa_offset 16
	pushq	%r15
	.cfi_def_cfa_offset 24
	pushq	%r14
	.cfi_def_cfa_offset 32
	pushq	%r13
	.cfi_def_cfa_offset 40
	pushq	%r12
	.cfi_def_cfa_offset 48
	pushq	%rbx
	.cfi_def_cfa_offset 56
	subq	$40, %rsp
	.cfi_def_cfa_offset 96
	.cfi_offset %rbx, -56
	.cfi_offset %r12, -48
	.cfi_offset %r13, -40
	.cfi_offset %r14, -32
	.cfi_offset %r15, -24
	.cfi_offset %rbp, -16
	movq	%r8, %rbx
	movq	%rcx, %r14
	movq	%rdx, %r15
	movq	%rsi, %r12
	movq	%rdi, %r13
	movq	%fs:40, %rax
	movq	%rax, 32(%rsp)
	movq	%rsp, %rbp
.Ltmp16:
	.loc	1 29 5 prologue_end             # crypto_stream/xsalsa20/stream_xsalsa20.c:29:5
	movq	%rbp, %rdi
.Ltmp17:
	#DEBUG_VALUE: crypto_stream_xsalsa20_xor_ic:c <- $r13
	movq	%rcx, %rsi
.Ltmp18:
	#DEBUG_VALUE: crypto_stream_xsalsa20_xor_ic:m <- $r12
	movq	%r9, %rdx
.Ltmp19:
	#DEBUG_VALUE: crypto_stream_xsalsa20_xor_ic:mlen <- $r15
	xorl	%ecx, %ecx
.Ltmp20:
	#DEBUG_VALUE: crypto_stream_xsalsa20_xor_ic:n <- $r14
	callq	crypto_core_hsalsa20@PLT
.Ltmp21:
	#DEBUG_VALUE: crypto_stream_xsalsa20_xor_ic:k <- [DW_OP_LLVM_entry_value 1] $r9
	#DEBUG_VALUE: crypto_stream_xsalsa20_xor_ic:ic <- $rbx
	.loc	1 30 54                         # crypto_stream/xsalsa20/stream_xsalsa20.c:30:54
	addq	$16, %r14
.Ltmp22:
	#DEBUG_VALUE: crypto_stream_xsalsa20_xor_ic:n <- [DW_OP_LLVM_entry_value 1] $rcx
	.loc	1 30 11 is_stmt 0               # crypto_stream/xsalsa20/stream_xsalsa20.c:30:11
	movq	%r13, %rdi
	movq	%r12, %rsi
	movq	%r15, %rdx
	movq	%r14, %rcx
	movq	%rbx, %r8
	movq	%rbp, %r9
	callq	crypto_stream_salsa20_xor_ic@PLT
.Ltmp23:
	movl	%eax, %ebx
.Ltmp24:
	#DEBUG_VALUE: crypto_stream_xsalsa20_xor_ic:ic <- [DW_OP_LLVM_entry_value 1] $r8
	#DEBUG_VALUE: crypto_stream_xsalsa20_xor_ic:ret <- $ebx
	.loc	1 31 5 is_stmt 1                # crypto_stream/xsalsa20/stream_xsalsa20.c:31:5
	movl	$32, %esi
	movq	%rbp, %rdi
	callq	sodium_memzero@PLT
.Ltmp25:
	.loc	1 33 5                          # crypto_stream/xsalsa20/stream_xsalsa20.c:33:5
	movq	%fs:40, %rax
	cmpq	32(%rsp), %rax
	jne	.LBB1_2
.Ltmp26:
# %bb.1:                                # %SP_return
	#DEBUG_VALUE: crypto_stream_xsalsa20_xor_ic:c <- $r13
	#DEBUG_VALUE: crypto_stream_xsalsa20_xor_ic:m <- $r12
	#DEBUG_VALUE: crypto_stream_xsalsa20_xor_ic:mlen <- $r15
	#DEBUG_VALUE: crypto_stream_xsalsa20_xor_ic:n <- [DW_OP_LLVM_entry_value 1] $rcx
	#DEBUG_VALUE: crypto_stream_xsalsa20_xor_ic:ic <- [DW_OP_LLVM_entry_value 1] $r8
	#DEBUG_VALUE: crypto_stream_xsalsa20_xor_ic:k <- [DW_OP_LLVM_entry_value 1] $r9
	#DEBUG_VALUE: crypto_stream_xsalsa20_xor_ic:ret <- $ebx
	movl	%ebx, %eax
	.loc	1 33 5 epilogue_begin is_stmt 0 # crypto_stream/xsalsa20/stream_xsalsa20.c:33:5
	addq	$40, %rsp
	.cfi_def_cfa_offset 56
	popq	%rbx
.Ltmp27:
	#DEBUG_VALUE: crypto_stream_xsalsa20_xor_ic:ret <- $eax
	.cfi_def_cfa_offset 48
	popq	%r12
.Ltmp28:
	#DEBUG_VALUE: crypto_stream_xsalsa20_xor_ic:m <- [DW_OP_LLVM_entry_value 1] $rsi
	.cfi_def_cfa_offset 40
	popq	%r13
.Ltmp29:
	#DEBUG_VALUE: crypto_stream_xsalsa20_xor_ic:c <- [DW_OP_LLVM_entry_value 1] $rdi
	.cfi_def_cfa_offset 32
	popq	%r14
	.cfi_def_cfa_offset 24
	popq	%r15
.Ltmp30:
	#DEBUG_VALUE: crypto_stream_xsalsa20_xor_ic:mlen <- [DW_OP_LLVM_entry_value 1] $rdx
	.cfi_def_cfa_offset 16
	popq	%rbp
	.cfi_def_cfa_offset 8
	retq
.Ltmp31:
.LBB1_2:                                # %CallStackCheckFailBlk
	.cfi_def_cfa_offset 96
	#DEBUG_VALUE: crypto_stream_xsalsa20_xor_ic:c <- $r13
	#DEBUG_VALUE: crypto_stream_xsalsa20_xor_ic:m <- $r12
	#DEBUG_VALUE: crypto_stream_xsalsa20_xor_ic:mlen <- $r15
	#DEBUG_VALUE: crypto_stream_xsalsa20_xor_ic:n <- [DW_OP_LLVM_entry_value 1] $rcx
	#DEBUG_VALUE: crypto_stream_xsalsa20_xor_ic:ic <- [DW_OP_LLVM_entry_value 1] $r8
	#DEBUG_VALUE: crypto_stream_xsalsa20_xor_ic:k <- [DW_OP_LLVM_entry_value 1] $r9
	#DEBUG_VALUE: crypto_stream_xsalsa20_xor_ic:ret <- $ebx
	.loc	1 0 0                           # crypto_stream/xsalsa20/stream_xsalsa20.c:0
	callq	__stack_chk_fail@PLT
.Ltmp32:
.Lfunc_end1:
	.size	crypto_stream_xsalsa20_xor_ic, .Lfunc_end1-crypto_stream_xsalsa20_xor_ic
	.cfi_endproc
	.file	6 "/usr/include/x86_64-linux-gnu/bits" "types.h"
	.file	7 "/usr/include/x86_64-linux-gnu/bits" "stdint-uintn.h"
                                        # -- End function
	.globl	crypto_stream_xsalsa20_xor      # -- Begin function crypto_stream_xsalsa20_xor
	.p2align	4
	.type	crypto_stream_xsalsa20_xor,@function
crypto_stream_xsalsa20_xor:             # @crypto_stream_xsalsa20_xor
.Lfunc_begin2:
	.loc	1 40 0 is_stmt 1                # crypto_stream/xsalsa20/stream_xsalsa20.c:40:0
	.cfi_startproc
# %bb.0:
	#DEBUG_VALUE: crypto_stream_xsalsa20_xor:c <- $rdi
	#DEBUG_VALUE: crypto_stream_xsalsa20_xor:m <- $rsi
	#DEBUG_VALUE: crypto_stream_xsalsa20_xor:mlen <- $rdx
	#DEBUG_VALUE: crypto_stream_xsalsa20_xor:n <- $rcx
	#DEBUG_VALUE: crypto_stream_xsalsa20_xor:k <- $r8
	pushq	%r15
	.cfi_def_cfa_offset 16
	pushq	%r14
	.cfi_def_cfa_offset 24
	pushq	%r13
	.cfi_def_cfa_offset 32
	pushq	%r12
	.cfi_def_cfa_offset 40
	pushq	%rbx
	.cfi_def_cfa_offset 48
	subq	$48, %rsp
	.cfi_def_cfa_offset 96
	.cfi_offset %rbx, -48
	.cfi_offset %r12, -40
	.cfi_offset %r13, -32
	.cfi_offset %r14, -24
	.cfi_offset %r15, -16
	movq	%rcx, %rbx
	movq	%rdx, %r14
	movq	%rsi, %r15
	movq	%rdi, %r12
	movq	%fs:40, %rax
	movq	%rax, 40(%rsp)
.Ltmp33:
	#DEBUG_VALUE: crypto_stream_xsalsa20_xor_ic:c <- $r12
	#DEBUG_VALUE: crypto_stream_xsalsa20_xor_ic:m <- $r15
	#DEBUG_VALUE: crypto_stream_xsalsa20_xor_ic:mlen <- $r14
	#DEBUG_VALUE: crypto_stream_xsalsa20_xor_ic:n <- $rbx
	#DEBUG_VALUE: crypto_stream_xsalsa20_xor_ic:ic <- 0
	#DEBUG_VALUE: crypto_stream_xsalsa20_xor_ic:k <- $r8
	movq	%rsp, %r13
.Ltmp34:
	.loc	1 29 5 prologue_end             # crypto_stream/xsalsa20/stream_xsalsa20.c:29:5 @[ crypto_stream/xsalsa20/stream_xsalsa20.c:41:12 ]
	movq	%r13, %rdi
.Ltmp35:
	#DEBUG_VALUE: crypto_stream_xsalsa20_xor:c <- $r12
	movq	%rcx, %rsi
.Ltmp36:
	#DEBUG_VALUE: crypto_stream_xsalsa20_xor:m <- $r15
	movq	%r8, %rdx
.Ltmp37:
	#DEBUG_VALUE: crypto_stream_xsalsa20_xor:mlen <- $r14
	xorl	%ecx, %ecx
.Ltmp38:
	#DEBUG_VALUE: crypto_stream_xsalsa20_xor:n <- $rbx
	callq	crypto_core_hsalsa20@PLT
.Ltmp39:
	#DEBUG_VALUE: crypto_stream_xsalsa20_xor:k <- [DW_OP_LLVM_entry_value 1] $r8
	.loc	1 30 54                         # crypto_stream/xsalsa20/stream_xsalsa20.c:30:54 @[ crypto_stream/xsalsa20/stream_xsalsa20.c:41:12 ]
	addq	$16, %rbx
.Ltmp40:
	#DEBUG_VALUE: crypto_stream_xsalsa20_xor:n <- [DW_OP_LLVM_entry_value 1] $rcx
	.loc	1 30 11 is_stmt 0               # crypto_stream/xsalsa20/stream_xsalsa20.c:30:11 @[ crypto_stream/xsalsa20/stream_xsalsa20.c:41:12 ]
	movq	%r12, %rdi
	movq	%r15, %rsi
	movq	%r14, %rdx
	movq	%rbx, %rcx
	xorl	%r8d, %r8d
	movq	%r13, %r9
	callq	crypto_stream_salsa20_xor_ic@PLT
.Ltmp41:
	movl	%eax, %ebx
.Ltmp42:
	#DEBUG_VALUE: crypto_stream_xsalsa20_xor_ic:ret <- $ebx
	.loc	1 31 5 is_stmt 1                # crypto_stream/xsalsa20/stream_xsalsa20.c:31:5 @[ crypto_stream/xsalsa20/stream_xsalsa20.c:41:12 ]
	movl	$32, %esi
	movq	%r13, %rdi
	callq	sodium_memzero@PLT
.Ltmp43:
	.loc	1 41 5                          # crypto_stream/xsalsa20/stream_xsalsa20.c:41:5
	movq	%fs:40, %rax
	cmpq	40(%rsp), %rax
	jne	.LBB2_2
.Ltmp44:
# %bb.1:                                # %SP_return
	#DEBUG_VALUE: crypto_stream_xsalsa20_xor:c <- $r12
	#DEBUG_VALUE: crypto_stream_xsalsa20_xor:m <- $r15
	#DEBUG_VALUE: crypto_stream_xsalsa20_xor:mlen <- $r14
	#DEBUG_VALUE: crypto_stream_xsalsa20_xor:n <- [DW_OP_LLVM_entry_value 1] $rcx
	#DEBUG_VALUE: crypto_stream_xsalsa20_xor:k <- [DW_OP_LLVM_entry_value 1] $r8
	movl	%ebx, %eax
	.loc	1 41 5 epilogue_begin is_stmt 0 # crypto_stream/xsalsa20/stream_xsalsa20.c:41:5
	addq	$48, %rsp
	.cfi_def_cfa_offset 48
	popq	%rbx
	.cfi_def_cfa_offset 40
	popq	%r12
.Ltmp45:
	#DEBUG_VALUE: crypto_stream_xsalsa20_xor:c <- [DW_OP_LLVM_entry_value 1] $rdi
	.cfi_def_cfa_offset 32
	popq	%r13
	.cfi_def_cfa_offset 24
	popq	%r14
.Ltmp46:
	#DEBUG_VALUE: crypto_stream_xsalsa20_xor:mlen <- [DW_OP_LLVM_entry_value 1] $rdx
	.cfi_def_cfa_offset 16
	popq	%r15
.Ltmp47:
	#DEBUG_VALUE: crypto_stream_xsalsa20_xor:m <- [DW_OP_LLVM_entry_value 1] $rsi
	.cfi_def_cfa_offset 8
	retq
.Ltmp48:
.LBB2_2:                                # %CallStackCheckFailBlk
	.cfi_def_cfa_offset 96
	#DEBUG_VALUE: crypto_stream_xsalsa20_xor:c <- $r12
	#DEBUG_VALUE: crypto_stream_xsalsa20_xor:m <- $r15
	#DEBUG_VALUE: crypto_stream_xsalsa20_xor:mlen <- $r14
	#DEBUG_VALUE: crypto_stream_xsalsa20_xor:n <- [DW_OP_LLVM_entry_value 1] $rcx
	#DEBUG_VALUE: crypto_stream_xsalsa20_xor:k <- [DW_OP_LLVM_entry_value 1] $r8
	#DEBUG_VALUE: crypto_stream_xsalsa20_xor_ic:c <- $r12
	#DEBUG_VALUE: crypto_stream_xsalsa20_xor_ic:m <- $r15
	#DEBUG_VALUE: crypto_stream_xsalsa20_xor_ic:mlen <- $r14
	#DEBUG_VALUE: crypto_stream_xsalsa20_xor_ic:ic <- 0
	#DEBUG_VALUE: crypto_stream_xsalsa20_xor_ic:ret <- $ebx
	.loc	1 0 0                           # crypto_stream/xsalsa20/stream_xsalsa20.c:0
	callq	__stack_chk_fail@PLT
.Ltmp49:
.Lfunc_end2:
	.size	crypto_stream_xsalsa20_xor, .Lfunc_end2-crypto_stream_xsalsa20_xor
	.cfi_endproc
                                        # -- End function
	.globl	crypto_stream_xsalsa20_keybytes # -- Begin function crypto_stream_xsalsa20_keybytes
	.p2align	4
	.type	crypto_stream_xsalsa20_keybytes,@function
crypto_stream_xsalsa20_keybytes:        # @crypto_stream_xsalsa20_keybytes
.Lfunc_begin3:
	.cfi_startproc
# %bb.0:
	.loc	1 47 5 prologue_end is_stmt 1   # crypto_stream/xsalsa20/stream_xsalsa20.c:47:5
	movl	$32, %eax
	retq
.Ltmp50:
.Lfunc_end3:
	.size	crypto_stream_xsalsa20_keybytes, .Lfunc_end3-crypto_stream_xsalsa20_keybytes
	.cfi_endproc
                                        # -- End function
	.globl	crypto_stream_xsalsa20_noncebytes # -- Begin function crypto_stream_xsalsa20_noncebytes
	.p2align	4
	.type	crypto_stream_xsalsa20_noncebytes,@function
crypto_stream_xsalsa20_noncebytes:      # @crypto_stream_xsalsa20_noncebytes
.Lfunc_begin4:
	.cfi_startproc
# %bb.0:
	.loc	1 53 5 prologue_end             # crypto_stream/xsalsa20/stream_xsalsa20.c:53:5
	movl	$24, %eax
	retq
.Ltmp51:
.Lfunc_end4:
	.size	crypto_stream_xsalsa20_noncebytes, .Lfunc_end4-crypto_stream_xsalsa20_noncebytes
	.cfi_endproc
                                        # -- End function
	.globl	crypto_stream_xsalsa20_messagebytes_max # -- Begin function crypto_stream_xsalsa20_messagebytes_max
	.p2align	4
	.type	crypto_stream_xsalsa20_messagebytes_max,@function
crypto_stream_xsalsa20_messagebytes_max: # @crypto_stream_xsalsa20_messagebytes_max
.Lfunc_begin5:
	.cfi_startproc
# %bb.0:
	.loc	1 59 5 prologue_end             # crypto_stream/xsalsa20/stream_xsalsa20.c:59:5
	movq	$-1, %rax
	retq
.Ltmp52:
.Lfunc_end5:
	.size	crypto_stream_xsalsa20_messagebytes_max, .Lfunc_end5-crypto_stream_xsalsa20_messagebytes_max
	.cfi_endproc
                                        # -- End function
	.globl	crypto_stream_xsalsa20_keygen   # -- Begin function crypto_stream_xsalsa20_keygen
	.p2align	4
	.type	crypto_stream_xsalsa20_keygen,@function
crypto_stream_xsalsa20_keygen:          # @crypto_stream_xsalsa20_keygen
.Lfunc_begin6:
	.cfi_startproc
# %bb.0:
	#DEBUG_VALUE: crypto_stream_xsalsa20_keygen:k <- $rdi
	.loc	1 65 5 prologue_end             # crypto_stream/xsalsa20/stream_xsalsa20.c:65:5
	movl	$32, %esi
.Ltmp53:
	jmp	randombytes_buf@PLT             # TAILCALL
.Ltmp54:
.Lfunc_end6:
	.size	crypto_stream_xsalsa20_keygen, .Lfunc_end6-crypto_stream_xsalsa20_keygen
	.cfi_endproc
	.file	8 "./include/sodium" "randombytes.h"
                                        # -- End function
	.section	".note.GNU-stack","",@progbits
	.addrsig
	.addrsig_sym __stack_chk_fail