	.file	"stream_chacha20.c"
	.file	0 "/home/leizhenyuu/opt/Anonymous_Repo/libsodium_o2_attr_inline/src/libsodium" "stream_chacha20.c" md5 0x20229c809cc01673f4d331e5e7e15392
	.file	1 "crypto_stream/chacha20" "stream_chacha20.h"
	.file	2 "/usr/include/x86_64-linux-gnu/bits" "types.h"
	.file	3 "/usr/include/x86_64-linux-gnu/bits" "stdint-uintn.h"
	.file	4 "crypto_stream/chacha20" "stream_chacha20.c"
	.text
	.globl	crypto_stream_chacha20_keybytes # -- Begin function crypto_stream_chacha20_keybytes
	.p2align	4
	.type	crypto_stream_chacha20_keybytes,@function
crypto_stream_chacha20_keybytes:        # @crypto_stream_chacha20_keybytes
.Lfunc_begin0:
	.cfi_startproc
# %bb.0:
	.loc	4 24 5 prologue_end             # crypto_stream/chacha20/stream_chacha20.c:24:5
	movl	$32, %eax
	retq
.Ltmp0:
.Lfunc_end0:
	.size	crypto_stream_chacha20_keybytes, .Lfunc_end0-crypto_stream_chacha20_keybytes
	.cfi_endproc
                                        # -- End function
	.globl	crypto_stream_chacha20_noncebytes # -- Begin function crypto_stream_chacha20_noncebytes
	.p2align	4
	.type	crypto_stream_chacha20_noncebytes,@function
crypto_stream_chacha20_noncebytes:      # @crypto_stream_chacha20_noncebytes
.Lfunc_begin1:
	.cfi_startproc
# %bb.0:
	.loc	4 29 5 prologue_end             # crypto_stream/chacha20/stream_chacha20.c:29:5
	movl	$8, %eax
	retq
.Ltmp1:
.Lfunc_end1:
	.size	crypto_stream_chacha20_noncebytes, .Lfunc_end1-crypto_stream_chacha20_noncebytes
	.cfi_endproc
                                        # -- End function
	.globl	crypto_stream_chacha20_messagebytes_max # -- Begin function crypto_stream_chacha20_messagebytes_max
	.p2align	4
	.type	crypto_stream_chacha20_messagebytes_max,@function
crypto_stream_chacha20_messagebytes_max: # @crypto_stream_chacha20_messagebytes_max
.Lfunc_begin2:
	.cfi_startproc
# %bb.0:
	.loc	4 35 5 prologue_end             # crypto_stream/chacha20/stream_chacha20.c:35:5
	movq	$-1, %rax
	retq
.Ltmp2:
.Lfunc_end2:
	.size	crypto_stream_chacha20_messagebytes_max, .Lfunc_end2-crypto_stream_chacha20_messagebytes_max
	.cfi_endproc
                                        # -- End function
	.globl	crypto_stream_chacha20_ietf_keybytes # -- Begin function crypto_stream_chacha20_ietf_keybytes
	.p2align	4
	.type	crypto_stream_chacha20_ietf_keybytes,@function
crypto_stream_chacha20_ietf_keybytes:   # @crypto_stream_chacha20_ietf_keybytes
.Lfunc_begin3:
	.cfi_startproc
# %bb.0:
	.loc	4 40 5 prologue_end             # crypto_stream/chacha20/stream_chacha20.c:40:5
	movl	$32, %eax
	retq
.Ltmp3:
.Lfunc_end3:
	.size	crypto_stream_chacha20_ietf_keybytes, .Lfunc_end3-crypto_stream_chacha20_ietf_keybytes
	.cfi_endproc
                                        # -- End function
	.globl	crypto_stream_chacha20_ietf_noncebytes # -- Begin function crypto_stream_chacha20_ietf_noncebytes
	.p2align	4
	.type	crypto_stream_chacha20_ietf_noncebytes,@function
crypto_stream_chacha20_ietf_noncebytes: # @crypto_stream_chacha20_ietf_noncebytes
.Lfunc_begin4:
	.cfi_startproc
# %bb.0:
	.loc	4 45 5 prologue_end             # crypto_stream/chacha20/stream_chacha20.c:45:5
	movl	$12, %eax
	retq
.Ltmp4:
.Lfunc_end4:
	.size	crypto_stream_chacha20_ietf_noncebytes, .Lfunc_end4-crypto_stream_chacha20_ietf_noncebytes
	.cfi_endproc
                                        # -- End function
	.globl	crypto_stream_chacha20_ietf_messagebytes_max # -- Begin function crypto_stream_chacha20_ietf_messagebytes_max
	.p2align	4
	.type	crypto_stream_chacha20_ietf_messagebytes_max,@function
crypto_stream_chacha20_ietf_messagebytes_max: # @crypto_stream_chacha20_ietf_messagebytes_max
.Lfunc_begin5:
	.loc	4 50 0                          # crypto_stream/chacha20/stream_chacha20.c:50:0
	.cfi_startproc
# %bb.0:
	movabsq	$274877906944, %rax             # imm = 0x4000000000
.Ltmp5:
	.loc	4 51 5 prologue_end             # crypto_stream/chacha20/stream_chacha20.c:51:5
	retq
.Ltmp6:
.Lfunc_end5:
	.size	crypto_stream_chacha20_ietf_messagebytes_max, .Lfunc_end5-crypto_stream_chacha20_ietf_messagebytes_max
	.cfi_endproc
                                        # -- End function
	.globl	crypto_stream_chacha20          # -- Begin function crypto_stream_chacha20
	.p2align	4
	.type	crypto_stream_chacha20,@function
crypto_stream_chacha20:                 # @crypto_stream_chacha20
.Lfunc_begin6:
	.cfi_startproc
# %bb.0:
	#DEBUG_VALUE: crypto_stream_chacha20:c <- $rdi
	#DEBUG_VALUE: crypto_stream_chacha20:clen <- $rsi
	#DEBUG_VALUE: crypto_stream_chacha20:n <- $rdx
	#DEBUG_VALUE: crypto_stream_chacha20:k <- $rcx
	.loc	4 61 12 prologue_end            # crypto_stream/chacha20/stream_chacha20.c:61:12
	movq	implementation(%rip), %rax
	movq	(%rax), %rax
.Ltmp7:
	jmpq	*%rax                           # TAILCALL
.Ltmp8:
.Lfunc_end6:
	.size	crypto_stream_chacha20, .Lfunc_end6-crypto_stream_chacha20
	.cfi_endproc
                                        # -- End function
	.globl	crypto_stream_chacha20_xor_ic   # -- Begin function crypto_stream_chacha20_xor_ic
	.p2align	4
	.type	crypto_stream_chacha20_xor_ic,@function
crypto_stream_chacha20_xor_ic:          # @crypto_stream_chacha20_xor_ic
.Lfunc_begin7:
	.cfi_startproc
# %bb.0:
	#DEBUG_VALUE: crypto_stream_chacha20_xor_ic:c <- $rdi
	#DEBUG_VALUE: crypto_stream_chacha20_xor_ic:m <- $rsi
	#DEBUG_VALUE: crypto_stream_chacha20_xor_ic:mlen <- $rdx
	#DEBUG_VALUE: crypto_stream_chacha20_xor_ic:n <- $rcx
	#DEBUG_VALUE: crypto_stream_chacha20_xor_ic:ic <- $r8
	#DEBUG_VALUE: crypto_stream_chacha20_xor_ic:k <- $r9
	.loc	4 73 12 prologue_end            # crypto_stream/chacha20/stream_chacha20.c:73:12
	movq	implementation(%rip), %rax
	movq	16(%rax), %rax
.Ltmp9:
	jmpq	*%rax                           # TAILCALL
.Ltmp10:
.Lfunc_end7:
	.size	crypto_stream_chacha20_xor_ic, .Lfunc_end7-crypto_stream_chacha20_xor_ic
	.cfi_endproc
                                        # -- End function
	.globl	crypto_stream_chacha20_xor      # -- Begin function crypto_stream_chacha20_xor
	.p2align	4
	.type	crypto_stream_chacha20_xor,@function
crypto_stream_chacha20_xor:             # @crypto_stream_chacha20_xor
.Lfunc_begin8:
	.loc	4 80 0                          # crypto_stream/chacha20/stream_chacha20.c:80:0
	.cfi_startproc
# %bb.0:
	#DEBUG_VALUE: crypto_stream_chacha20_xor:c <- $rdi
	#DEBUG_VALUE: crypto_stream_chacha20_xor:m <- $rsi
	#DEBUG_VALUE: crypto_stream_chacha20_xor:mlen <- $rdx
	#DEBUG_VALUE: crypto_stream_chacha20_xor:n <- $rcx
	#DEBUG_VALUE: crypto_stream_chacha20_xor:k <- $r8
	movq	%r8, %r9
.Ltmp11:
	.loc	4 84 12 prologue_end            # crypto_stream/chacha20/stream_chacha20.c:84:12
	movq	implementation(%rip), %rax
	movq	16(%rax), %rax
	xorl	%r8d, %r8d
.Ltmp12:
	#DEBUG_VALUE: crypto_stream_chacha20_xor:k <- $r9
	jmpq	*%rax                           # TAILCALL
.Ltmp13:
.Lfunc_end8:
	.size	crypto_stream_chacha20_xor, .Lfunc_end8-crypto_stream_chacha20_xor
	.cfi_endproc
                                        # -- End function
	.hidden	crypto_stream_chacha20_ietf_ext # -- Begin function crypto_stream_chacha20_ietf_ext
	.globl	crypto_stream_chacha20_ietf_ext
	.p2align	4
	.type	crypto_stream_chacha20_ietf_ext,@function
crypto_stream_chacha20_ietf_ext:        # @crypto_stream_chacha20_ietf_ext
.Lfunc_begin9:
	.cfi_startproc
# %bb.0:
	#DEBUG_VALUE: crypto_stream_chacha20_ietf_ext:c <- $rdi
	#DEBUG_VALUE: crypto_stream_chacha20_ietf_ext:clen <- $rsi
	#DEBUG_VALUE: crypto_stream_chacha20_ietf_ext:n <- $rdx
	#DEBUG_VALUE: crypto_stream_chacha20_ietf_ext:k <- $rcx
	.loc	4 94 12 prologue_end            # crypto_stream/chacha20/stream_chacha20.c:94:12
	movq	implementation(%rip), %rax
	movq	8(%rax), %rax
.Ltmp14:
	jmpq	*%rax                           # TAILCALL
.Ltmp15:
.Lfunc_end9:
	.size	crypto_stream_chacha20_ietf_ext, .Lfunc_end9-crypto_stream_chacha20_ietf_ext
	.cfi_endproc
                                        # -- End function
	.hidden	crypto_stream_chacha20_ietf_ext_xor_ic # -- Begin function crypto_stream_chacha20_ietf_ext_xor_ic
	.globl	crypto_stream_chacha20_ietf_ext_xor_ic
	.p2align	4
	.type	crypto_stream_chacha20_ietf_ext_xor_ic,@function
crypto_stream_chacha20_ietf_ext_xor_ic: # @crypto_stream_chacha20_ietf_ext_xor_ic
.Lfunc_begin10:
	.cfi_startproc
# %bb.0:
	#DEBUG_VALUE: crypto_stream_chacha20_ietf_ext_xor_ic:c <- $rdi
	#DEBUG_VALUE: crypto_stream_chacha20_ietf_ext_xor_ic:m <- $rsi
	#DEBUG_VALUE: crypto_stream_chacha20_ietf_ext_xor_ic:mlen <- $rdx
	#DEBUG_VALUE: crypto_stream_chacha20_ietf_ext_xor_ic:n <- $rcx
	#DEBUG_VALUE: crypto_stream_chacha20_ietf_ext_xor_ic:ic <- $r8d
	#DEBUG_VALUE: crypto_stream_chacha20_ietf_ext_xor_ic:k <- $r9
	.loc	4 106 12 prologue_end           # crypto_stream/chacha20/stream_chacha20.c:106:12
	movq	implementation(%rip), %rax
	movq	24(%rax), %rax
.Ltmp16:
	jmpq	*%rax                           # TAILCALL
.Ltmp17:
.Lfunc_end10:
	.size	crypto_stream_chacha20_ietf_ext_xor_ic, .Lfunc_end10-crypto_stream_chacha20_ietf_ext_xor_ic
	.cfi_endproc
                                        # -- End function
	.globl	crypto_stream_chacha20_ietf     # -- Begin function crypto_stream_chacha20_ietf
	.p2align	4
	.type	crypto_stream_chacha20_ietf,@function
crypto_stream_chacha20_ietf:            # @crypto_stream_chacha20_ietf
.Lfunc_begin11:
	.loc	4 123 0                         # crypto_stream/chacha20/stream_chacha20.c:123:0
	.cfi_startproc
# %bb.0:
	#DEBUG_VALUE: crypto_stream_chacha20_ietf:c <- $rdi
	#DEBUG_VALUE: crypto_stream_chacha20_ietf:clen <- $rsi
	#DEBUG_VALUE: crypto_stream_chacha20_ietf:n <- $rdx
	#DEBUG_VALUE: crypto_stream_chacha20_ietf:k <- $rcx
	movabsq	$274877906945, %rax             # imm = 0x4000000001
.Ltmp18:
	.loc	4 124 14 prologue_end           # crypto_stream/chacha20/stream_chacha20.c:124:14
	cmpq	%rax, %rsi
	jae	.LBB11_1
.Ltmp19:
# %bb.2:
	#DEBUG_VALUE: crypto_stream_chacha20_ietf:c <- $rdi
	#DEBUG_VALUE: crypto_stream_chacha20_ietf:clen <- $rsi
	#DEBUG_VALUE: crypto_stream_chacha20_ietf:n <- $rdx
	#DEBUG_VALUE: crypto_stream_chacha20_ietf:k <- $rcx
	#DEBUG_VALUE: crypto_stream_chacha20_ietf_ext:c <- $rdi
	#DEBUG_VALUE: crypto_stream_chacha20_ietf_ext:clen <- $rsi
	#DEBUG_VALUE: crypto_stream_chacha20_ietf_ext:n <- $rdx
	#DEBUG_VALUE: crypto_stream_chacha20_ietf_ext:k <- $rcx
	.loc	4 94 12                         # crypto_stream/chacha20/stream_chacha20.c:94:12 @[ crypto_stream/chacha20/stream_chacha20.c:127:12 ]
	movq	implementation(%rip), %rax
	movq	8(%rax), %rax
.Ltmp20:
	jmpq	*%rax                           # TAILCALL
.Ltmp21:
.LBB11_1:
	#DEBUG_VALUE: crypto_stream_chacha20_ietf:c <- $rdi
	#DEBUG_VALUE: crypto_stream_chacha20_ietf:clen <- $rsi
	#DEBUG_VALUE: crypto_stream_chacha20_ietf:n <- $rdx
	#DEBUG_VALUE: crypto_stream_chacha20_ietf:k <- $rcx
	pushq	%rax
	.cfi_def_cfa_offset 16
.Ltmp22:
	.loc	4 125 9                         # crypto_stream/chacha20/stream_chacha20.c:125:9
	callq	sodium_misuse@PLT
.Ltmp23:
	#DEBUG_VALUE: crypto_stream_chacha20_ietf:c <- [DW_OP_LLVM_entry_value 1] $rdi
	#DEBUG_VALUE: crypto_stream_chacha20_ietf:clen <- [DW_OP_LLVM_entry_value 1] $rsi
	#DEBUG_VALUE: crypto_stream_chacha20_ietf:n <- [DW_OP_LLVM_entry_value 1] $rdx
	#DEBUG_VALUE: crypto_stream_chacha20_ietf:k <- [DW_OP_LLVM_entry_value 1] $rcx
.Lfunc_end11:
	.size	crypto_stream_chacha20_ietf, .Lfunc_end11-crypto_stream_chacha20_ietf
	.cfi_endproc
	.file	5 "./include/sodium" "core.h"
                                        # -- End function
	.globl	crypto_stream_chacha20_ietf_xor_ic # -- Begin function crypto_stream_chacha20_ietf_xor_ic
	.p2align	4
	.type	crypto_stream_chacha20_ietf_xor_ic,@function
crypto_stream_chacha20_ietf_xor_ic:     # @crypto_stream_chacha20_ietf_xor_ic
.Lfunc_begin12:
	.cfi_startproc
# %bb.0:
	#DEBUG_VALUE: crypto_stream_chacha20_ietf_xor_ic:c <- $rdi
	#DEBUG_VALUE: crypto_stream_chacha20_ietf_xor_ic:m <- $rsi
	#DEBUG_VALUE: crypto_stream_chacha20_ietf_xor_ic:mlen <- $rdx
	#DEBUG_VALUE: crypto_stream_chacha20_ietf_xor_ic:n <- $rcx
	#DEBUG_VALUE: crypto_stream_chacha20_ietf_xor_ic:ic <- $r8d
	#DEBUG_VALUE: crypto_stream_chacha20_ietf_xor_ic:k <- $r9
	.loc	4 136 9 prologue_end            # crypto_stream/chacha20/stream_chacha20.c:136:9
	movl	%r8d, %eax
	.loc	4 137 48                        # crypto_stream/chacha20/stream_chacha20.c:137:48
	leaq	63(%rdx), %r10
	.loc	4 137 57 is_stmt 0              # crypto_stream/chacha20/stream_chacha20.c:137:57
	shrq	$6, %r10
	movabsq	$4294967296, %r11               # imm = 0x100000000
	.loc	4 137 40                        # crypto_stream/chacha20/stream_chacha20.c:137:40
	subq	%r10, %r11
	.loc	4 136 33 is_stmt 1              # crypto_stream/chacha20/stream_chacha20.c:136:33
	cmpq	%rax, %r11
	jb	.LBB12_1
.Ltmp24:
# %bb.2:
	#DEBUG_VALUE: crypto_stream_chacha20_ietf_xor_ic:c <- $rdi
	#DEBUG_VALUE: crypto_stream_chacha20_ietf_xor_ic:m <- $rsi
	#DEBUG_VALUE: crypto_stream_chacha20_ietf_xor_ic:mlen <- $rdx
	#DEBUG_VALUE: crypto_stream_chacha20_ietf_xor_ic:n <- $rcx
	#DEBUG_VALUE: crypto_stream_chacha20_ietf_xor_ic:ic <- $r8d
	#DEBUG_VALUE: crypto_stream_chacha20_ietf_xor_ic:k <- $r9
	#DEBUG_VALUE: crypto_stream_chacha20_ietf_ext_xor_ic:c <- $rdi
	#DEBUG_VALUE: crypto_stream_chacha20_ietf_ext_xor_ic:m <- $rsi
	#DEBUG_VALUE: crypto_stream_chacha20_ietf_ext_xor_ic:mlen <- $rdx
	#DEBUG_VALUE: crypto_stream_chacha20_ietf_ext_xor_ic:n <- $rcx
	#DEBUG_VALUE: crypto_stream_chacha20_ietf_ext_xor_ic:ic <- $r8d
	#DEBUG_VALUE: crypto_stream_chacha20_ietf_ext_xor_ic:k <- $r9
	.loc	4 106 12                        # crypto_stream/chacha20/stream_chacha20.c:106:12 @[ crypto_stream/chacha20/stream_chacha20.c:140:12 ]
	movq	implementation(%rip), %rax
	movq	24(%rax), %rax
.Ltmp25:
	jmpq	*%rax                           # TAILCALL
.Ltmp26:
.LBB12_1:
	#DEBUG_VALUE: crypto_stream_chacha20_ietf_xor_ic:c <- $rdi
	#DEBUG_VALUE: crypto_stream_chacha20_ietf_xor_ic:m <- $rsi
	#DEBUG_VALUE: crypto_stream_chacha20_ietf_xor_ic:mlen <- $rdx
	#DEBUG_VALUE: crypto_stream_chacha20_ietf_xor_ic:n <- $rcx
	#DEBUG_VALUE: crypto_stream_chacha20_ietf_xor_ic:ic <- $r8d
	#DEBUG_VALUE: crypto_stream_chacha20_ietf_xor_ic:k <- $r9
	pushq	%rax
	.cfi_def_cfa_offset 16
.Ltmp27:
	.loc	4 138 9                         # crypto_stream/chacha20/stream_chacha20.c:138:9
	callq	sodium_misuse@PLT
.Ltmp28:
	#DEBUG_VALUE: crypto_stream_chacha20_ietf_xor_ic:c <- [DW_OP_LLVM_entry_value 1] $rdi
	#DEBUG_VALUE: crypto_stream_chacha20_ietf_xor_ic:m <- [DW_OP_LLVM_entry_value 1] $rsi
	#DEBUG_VALUE: crypto_stream_chacha20_ietf_xor_ic:mlen <- [DW_OP_LLVM_entry_value 1] $rdx
	#DEBUG_VALUE: crypto_stream_chacha20_ietf_xor_ic:n <- [DW_OP_LLVM_entry_value 1] $rcx
	#DEBUG_VALUE: crypto_stream_chacha20_ietf_xor_ic:ic <- [DW_OP_LLVM_entry_value 1] $r8d
	#DEBUG_VALUE: crypto_stream_chacha20_ietf_xor_ic:k <- [DW_OP_LLVM_entry_value 1] $r9
.Lfunc_end12:
	.size	crypto_stream_chacha20_ietf_xor_ic, .Lfunc_end12-crypto_stream_chacha20_ietf_xor_ic
	.cfi_endproc
                                        # -- End function
	.globl	crypto_stream_chacha20_ietf_xor # -- Begin function crypto_stream_chacha20_ietf_xor
	.p2align	4
	.type	crypto_stream_chacha20_ietf_xor,@function
crypto_stream_chacha20_ietf_xor:        # @crypto_stream_chacha20_ietf_xor
.Lfunc_begin13:
	.loc	4 147 0                         # crypto_stream/chacha20/stream_chacha20.c:147:0
	.cfi_startproc
# %bb.0:
	#DEBUG_VALUE: crypto_stream_chacha20_ietf_xor:c <- $rdi
	#DEBUG_VALUE: crypto_stream_chacha20_ietf_xor:m <- $rsi
	#DEBUG_VALUE: crypto_stream_chacha20_ietf_xor:mlen <- $rdx
	#DEBUG_VALUE: crypto_stream_chacha20_ietf_xor:n <- $rcx
	#DEBUG_VALUE: crypto_stream_chacha20_ietf_xor:k <- $r8
	movabsq	$274877906945, %rax             # imm = 0x4000000001
.Ltmp29:
	.loc	4 148 14 prologue_end           # crypto_stream/chacha20/stream_chacha20.c:148:14
	cmpq	%rax, %rdx
	jae	.LBB13_1
.Ltmp30:
# %bb.2:
	#DEBUG_VALUE: crypto_stream_chacha20_ietf_xor:c <- $rdi
	#DEBUG_VALUE: crypto_stream_chacha20_ietf_xor:m <- $rsi
	#DEBUG_VALUE: crypto_stream_chacha20_ietf_xor:mlen <- $rdx
	#DEBUG_VALUE: crypto_stream_chacha20_ietf_xor:n <- $rcx
	#DEBUG_VALUE: crypto_stream_chacha20_ietf_xor:k <- $r8
	.loc	4 0 14 is_stmt 0                # crypto_stream/chacha20/stream_chacha20.c:0:14
	movq	%r8, %r9
.Ltmp31:
	#DEBUG_VALUE: crypto_stream_chacha20_ietf_ext_xor:c <- $rdi
	#DEBUG_VALUE: crypto_stream_chacha20_ietf_ext_xor:m <- $rsi
	#DEBUG_VALUE: crypto_stream_chacha20_ietf_ext_xor:mlen <- $rdx
	#DEBUG_VALUE: crypto_stream_chacha20_ietf_ext_xor:n <- $rcx
	#DEBUG_VALUE: crypto_stream_chacha20_ietf_ext_xor:k <- $r8
	.loc	4 117 12 is_stmt 1              # crypto_stream/chacha20/stream_chacha20.c:117:12 @[ crypto_stream/chacha20/stream_chacha20.c:151:12 ]
	movq	implementation(%rip), %rax
	movq	24(%rax), %rax
	xorl	%r8d, %r8d
.Ltmp32:
	#DEBUG_VALUE: crypto_stream_chacha20_ietf_ext_xor:k <- $r9
	#DEBUG_VALUE: crypto_stream_chacha20_ietf_xor:k <- $r9
	jmpq	*%rax                           # TAILCALL
.Ltmp33:
.LBB13_1:
	#DEBUG_VALUE: crypto_stream_chacha20_ietf_xor:c <- $rdi
	#DEBUG_VALUE: crypto_stream_chacha20_ietf_xor:m <- $rsi
	#DEBUG_VALUE: crypto_stream_chacha20_ietf_xor:mlen <- $rdx
	#DEBUG_VALUE: crypto_stream_chacha20_ietf_xor:n <- $rcx
	#DEBUG_VALUE: crypto_stream_chacha20_ietf_xor:k <- $r8
	pushq	%rax
	.cfi_def_cfa_offset 16
.Ltmp34:
	.loc	4 149 9                         # crypto_stream/chacha20/stream_chacha20.c:149:9
	callq	sodium_misuse@PLT
.Ltmp35:
	#DEBUG_VALUE: crypto_stream_chacha20_ietf_xor:c <- [DW_OP_LLVM_entry_value 1] $rdi
	#DEBUG_VALUE: crypto_stream_chacha20_ietf_xor:m <- [DW_OP_LLVM_entry_value 1] $rsi
	#DEBUG_VALUE: crypto_stream_chacha20_ietf_xor:mlen <- [DW_OP_LLVM_entry_value 1] $rdx
	#DEBUG_VALUE: crypto_stream_chacha20_ietf_xor:n <- [DW_OP_LLVM_entry_value 1] $rcx
	#DEBUG_VALUE: crypto_stream_chacha20_ietf_xor:k <- [DW_OP_LLVM_entry_value 1] $r8
.Lfunc_end13:
	.size	crypto_stream_chacha20_ietf_xor, .Lfunc_end13-crypto_stream_chacha20_ietf_xor
	.cfi_endproc
                                        # -- End function
	.globl	crypto_stream_chacha20_ietf_keygen # -- Begin function crypto_stream_chacha20_ietf_keygen
	.p2align	4
	.type	crypto_stream_chacha20_ietf_keygen,@function
crypto_stream_chacha20_ietf_keygen:     # @crypto_stream_chacha20_ietf_keygen
.Lfunc_begin14:
	.cfi_startproc
# %bb.0:
	#DEBUG_VALUE: crypto_stream_chacha20_ietf_keygen:k <- $rdi
	.loc	4 157 5 prologue_end            # crypto_stream/chacha20/stream_chacha20.c:157:5
	movl	$32, %esi
.Ltmp36:
	jmp	randombytes_buf@PLT             # TAILCALL
.Ltmp37:
.Lfunc_end14:
	.size	crypto_stream_chacha20_ietf_keygen, .Lfunc_end14-crypto_stream_chacha20_ietf_keygen
	.cfi_endproc
	.file	6 "./include/sodium" "randombytes.h"
	.file	7 "/home/leizhenyuu/opt/Anonymous_Repo" "llvm-project/build/lib/clang/21/include/__stddef_size_t.h"
                                        # -- End function
	.globl	crypto_stream_chacha20_keygen   # -- Begin function crypto_stream_chacha20_keygen
	.p2align	4
	.type	crypto_stream_chacha20_keygen,@function
crypto_stream_chacha20_keygen:          # @crypto_stream_chacha20_keygen
.Lfunc_begin15:
	.cfi_startproc
# %bb.0:
	#DEBUG_VALUE: crypto_stream_chacha20_keygen:k <- $rdi
	.loc	4 163 5 prologue_end            # crypto_stream/chacha20/stream_chacha20.c:163:5
	movl	$32, %esi
.Ltmp38:
	jmp	randombytes_buf@PLT             # TAILCALL
.Ltmp39:
.Lfunc_end15:
	.size	crypto_stream_chacha20_keygen, .Lfunc_end15-crypto_stream_chacha20_keygen
	.cfi_endproc
                                        # -- End function
	.hidden	_crypto_stream_chacha20_pick_best_implementation # -- Begin function _crypto_stream_chacha20_pick_best_implementation
	.globl	_crypto_stream_chacha20_pick_best_implementation
	.p2align	4
	.type	_crypto_stream_chacha20_pick_best_implementation,@function
_crypto_stream_chacha20_pick_best_implementation: # @_crypto_stream_chacha20_pick_best_implementation
.Lfunc_begin16:
	.loc	4 168 0                         # crypto_stream/chacha20/stream_chacha20.c:168:0
	.cfi_startproc
# %bb.0:
	pushq	%rax
	.cfi_def_cfa_offset 16
.Ltmp40:
	.loc	4 169 20 prologue_end           # crypto_stream/chacha20/stream_chacha20.c:169:20
	movq	crypto_stream_chacha20_ref_implementation@GOTPCREL(%rip), %rax
	movq	%rax, implementation(%rip)
.Ltmp41:
	.loc	4 172 9                         # crypto_stream/chacha20/stream_chacha20.c:172:9
	callq	sodium_runtime_has_avx2@PLT
.Ltmp42:
	testl	%eax, %eax
	je	.LBB16_2
.Ltmp43:
# %bb.1:
	.loc	4 0 9 is_stmt 0                 # crypto_stream/chacha20/stream_chacha20.c:0:9
	movq	crypto_stream_chacha20_dolbeau_avx2_implementation@GOTPCREL(%rip), %rax
	jmp	.LBB16_4
.LBB16_2:
.Ltmp44:
	.loc	4 178 9 is_stmt 1               # crypto_stream/chacha20/stream_chacha20.c:178:9
	callq	sodium_runtime_has_ssse3@PLT
.Ltmp45:
	testl	%eax, %eax
	je	.LBB16_5
.Ltmp46:
# %bb.3:
	.loc	4 0 9 is_stmt 0                 # crypto_stream/chacha20/stream_chacha20.c:0:9
	movq	crypto_stream_chacha20_dolbeau_ssse3_implementation@GOTPCREL(%rip), %rax
.LBB16_4:                               # %.sink.split
	movq	%rax, implementation(%rip)
.LBB16_5:
	.loc	4 184 1 is_stmt 1               # crypto_stream/chacha20/stream_chacha20.c:184:1
	xorl	%eax, %eax
	.loc	4 184 1 epilogue_begin is_stmt 0 # crypto_stream/chacha20/stream_chacha20.c:184:1
	popq	%rcx
	.cfi_def_cfa_offset 8
	retq
.Ltmp47:
.Lfunc_end16:
	.size	_crypto_stream_chacha20_pick_best_implementation, .Lfunc_end16-_crypto_stream_chacha20_pick_best_implementation
	.cfi_endproc
	.file	8 "./include/sodium" "runtime.h"
                                        # -- End function
	.type	implementation,@object          # @implementation
	.data
	.p2align	3, 0x0
implementation:
	.quad	crypto_stream_chacha20_ref_implementation
	.size	implementation, 8

	.section	".note.GNU-stack","",@progbits
	.addrsig
	.addrsig_sym crypto_stream_chacha20_ref_implementation
	.addrsig_sym crypto_stream_chacha20_dolbeau_avx2_implementation
	.addrsig_sym crypto_stream_chacha20_dolbeau_ssse3_implementation