	.file	"stream_xchacha20.c"
	.text
	.globl	crypto_stream_xchacha20_keybytes # -- Begin function crypto_stream_xchacha20_keybytes
	.p2align	4
	.type	crypto_stream_xchacha20_keybytes,@function
crypto_stream_xchacha20_keybytes:       # @crypto_stream_xchacha20_keybytes
.Lfunc_begin0:
	.file	0 "/home/leizhenyuu/opt/Anonymous_Repo/libsodium_o2_attr_inline/src/libsodium" "stream_xchacha20.c" md5 0xcb3f83a30ac09c91cd994d553f1c7a0d
	.cfi_startproc
# %bb.0:
	.file	1 "crypto_stream/xchacha20" "stream_xchacha20.c"
	.loc	1 13 5 prologue_end             # crypto_stream/xchacha20/stream_xchacha20.c:13:5
	movl	$32, %eax
	retq
.Ltmp0:
.Lfunc_end0:
	.size	crypto_stream_xchacha20_keybytes, .Lfunc_end0-crypto_stream_xchacha20_keybytes
	.cfi_endproc
                                        # -- End function
	.globl	crypto_stream_xchacha20_noncebytes # -- Begin function crypto_stream_xchacha20_noncebytes
	.p2align	4
	.type	crypto_stream_xchacha20_noncebytes,@function
crypto_stream_xchacha20_noncebytes:     # @crypto_stream_xchacha20_noncebytes
.Lfunc_begin1:
	.cfi_startproc
# %bb.0:
	.loc	1 19 5 prologue_end             # crypto_stream/xchacha20/stream_xchacha20.c:19:5
	movl	$24, %eax
	retq
.Ltmp1:
.Lfunc_end1:
	.size	crypto_stream_xchacha20_noncebytes, .Lfunc_end1-crypto_stream_xchacha20_noncebytes
	.cfi_endproc
                                        # -- End function
	.globl	crypto_stream_xchacha20_messagebytes_max # -- Begin function crypto_stream_xchacha20_messagebytes_max
	.p2align	4
	.type	crypto_stream_xchacha20_messagebytes_max,@function
crypto_stream_xchacha20_messagebytes_max: # @crypto_stream_xchacha20_messagebytes_max
.Lfunc_begin2:
	.cfi_startproc
# %bb.0:
	.loc	1 25 5 prologue_end             # crypto_stream/xchacha20/stream_xchacha20.c:25:5
	movq	$-1, %rax
	retq
.Ltmp2:
.Lfunc_end2:
	.size	crypto_stream_xchacha20_messagebytes_max, .Lfunc_end2-crypto_stream_xchacha20_messagebytes_max
	.cfi_endproc
                                        # -- End function
	.globl	crypto_stream_xchacha20         # -- Begin function crypto_stream_xchacha20
	.p2align	4
	.type	crypto_stream_xchacha20,@function
crypto_stream_xchacha20:                # @crypto_stream_xchacha20
.Lfunc_begin3:
	.loc	1 31 0                          # crypto_stream/xchacha20/stream_xchacha20.c:31:0
	.cfi_startproc
# %bb.0:
	#DEBUG_VALUE: crypto_stream_xchacha20:c <- $rdi
	#DEBUG_VALUE: crypto_stream_xchacha20:clen <- $rsi
	#DEBUG_VALUE: crypto_stream_xchacha20:n <- $rdx
	#DEBUG_VALUE: crypto_stream_xchacha20:k <- $rcx
	pushq	%r15
	.cfi_def_cfa_offset 16
	pushq	%r14
	.cfi_def_cfa_offset 24
	pushq	%r12
	.cfi_def_cfa_offset 32
	pushq	%rbx
	.cfi_def_cfa_offset 40
	subq	$40, %rsp
	.cfi_def_cfa_offset 80
	.cfi_offset %rbx, -40
	.cfi_offset %r12, -32
	.cfi_offset %r14, -24
	.cfi_offset %r15, -16
	movq	%rdx, %rbx
	movq	%rsi, %r14
	movq	%rdi, %r15
	movq	%fs:40, %rax
	movq	%rax, 32(%rsp)
	movq	%rsp, %r12
.Ltmp3:
	.loc	1 34 5 prologue_end             # crypto_stream/xchacha20/stream_xchacha20.c:34:5
	movq	%r12, %rdi
.Ltmp4:
	#DEBUG_VALUE: crypto_stream_xchacha20:c <- $r15
	movq	%rdx, %rsi
.Ltmp5:
	#DEBUG_VALUE: crypto_stream_xchacha20:clen <- $r14
	movq	%rcx, %rdx
.Ltmp6:
	#DEBUG_VALUE: crypto_stream_xchacha20:n <- $rbx
	xorl	%ecx, %ecx
.Ltmp7:
	#DEBUG_VALUE: crypto_stream_xchacha20:k <- $rdx
	callq	crypto_core_hchacha20@PLT
.Ltmp8:
	#DEBUG_VALUE: crypto_stream_xchacha20:k <- [DW_OP_LLVM_entry_value 1] $rcx
	.loc	1 40 46                         # crypto_stream/xchacha20/stream_xchacha20.c:40:46
	addq	$16, %rbx
.Ltmp9:
	#DEBUG_VALUE: crypto_stream_xchacha20:n <- [DW_OP_LLVM_entry_value 1] $rdx
	.loc	1 40 12 is_stmt 0               # crypto_stream/xchacha20/stream_xchacha20.c:40:12
	movq	%r15, %rdi
	movq	%r14, %rsi
	movq	%rbx, %rdx
	movq	%r12, %rcx
	callq	crypto_stream_chacha20@PLT
.Ltmp10:
	.loc	1 40 5                          # crypto_stream/xchacha20/stream_xchacha20.c:40:5
	movq	%fs:40, %rcx
	cmpq	32(%rsp), %rcx
	jne	.LBB3_2
.Ltmp11:
# %bb.1:                                # %SP_return
	#DEBUG_VALUE: crypto_stream_xchacha20:c <- $r15
	#DEBUG_VALUE: crypto_stream_xchacha20:clen <- $r14
	#DEBUG_VALUE: crypto_stream_xchacha20:n <- [DW_OP_LLVM_entry_value 1] $rdx
	#DEBUG_VALUE: crypto_stream_xchacha20:k <- [DW_OP_LLVM_entry_value 1] $rcx
	.loc	1 40 5 epilogue_begin           # crypto_stream/xchacha20/stream_xchacha20.c:40:5
	addq	$40, %rsp
	.cfi_def_cfa_offset 40
	popq	%rbx
	.cfi_def_cfa_offset 32
	popq	%r12
	.cfi_def_cfa_offset 24
	popq	%r14
.Ltmp12:
	#DEBUG_VALUE: crypto_stream_xchacha20:clen <- [DW_OP_LLVM_entry_value 1] $rsi
	.cfi_def_cfa_offset 16
	popq	%r15
.Ltmp13:
	#DEBUG_VALUE: crypto_stream_xchacha20:c <- [DW_OP_LLVM_entry_value 1] $rdi
	.cfi_def_cfa_offset 8
	retq
.Ltmp14:
.LBB3_2:                                # %CallStackCheckFailBlk
	.cfi_def_cfa_offset 80
	#DEBUG_VALUE: crypto_stream_xchacha20:c <- $r15
	#DEBUG_VALUE: crypto_stream_xchacha20:clen <- $r14
	#DEBUG_VALUE: crypto_stream_xchacha20:n <- [DW_OP_LLVM_entry_value 1] $rdx
	#DEBUG_VALUE: crypto_stream_xchacha20:k <- [DW_OP_LLVM_entry_value 1] $rcx
	.loc	1 0 0                           # crypto_stream/xchacha20/stream_xchacha20.c:0
	callq	__stack_chk_fail@PLT
.Ltmp15:
.Lfunc_end3:
	.size	crypto_stream_xchacha20, .Lfunc_end3-crypto_stream_xchacha20
	.cfi_endproc
	.file	2 "./include/sodium" "crypto_core_hchacha20.h"
	.file	3 "./include/sodium" "crypto_stream_chacha20.h"
                                        # -- End function
	.globl	crypto_stream_xchacha20_xor_ic  # -- Begin function crypto_stream_xchacha20_xor_ic
	.p2align	4
	.type	crypto_stream_xchacha20_xor_ic,@function
crypto_stream_xchacha20_xor_ic:         # @crypto_stream_xchacha20_xor_ic
.Lfunc_begin4:
	.loc	1 48 0 is_stmt 1                # crypto_stream/xchacha20/stream_xchacha20.c:48:0
	.cfi_startproc
# %bb.0:
	#DEBUG_VALUE: crypto_stream_xchacha20_xor_ic:c <- $rdi
	#DEBUG_VALUE: crypto_stream_xchacha20_xor_ic:m <- $rsi
	#DEBUG_VALUE: crypto_stream_xchacha20_xor_ic:mlen <- $rdx
	#DEBUG_VALUE: crypto_stream_xchacha20_xor_ic:n <- $rcx
	#DEBUG_VALUE: crypto_stream_xchacha20_xor_ic:ic <- $r8
	#DEBUG_VALUE: crypto_stream_xchacha20_xor_ic:k <- $r9
	pushq	%rbp
	.cfi_def_cfa_offset 16
	pushq	%r15
	.cfi_def_cfa_offset 24
	pushq	%r14
	.cfi_def_cfa_offset 32
	pushq	%r13
	.cfi_def_cfa_offset 40
	pushq	%r12
	.cfi_def_cfa_offset 48
	pushq	%rbx
	.cfi_def_cfa_offset 56
	subq	$40, %rsp
	.cfi_def_cfa_offset 96
	.cfi_offset %rbx, -56
	.cfi_offset %r12, -48
	.cfi_offset %r13, -40
	.cfi_offset %r14, -32
	.cfi_offset %r15, -24
	.cfi_offset %rbp, -16
	movq	%r8, %rbx
	movq	%rcx, %r14
	movq	%rdx, %r15
	movq	%rsi, %r12
	movq	%rdi, %r13
	movq	%fs:40, %rax
	movq	%rax, 32(%rsp)
	movq	%rsp, %rbp
.Ltmp16:
	.loc	1 51 5 prologue_end             # crypto_stream/xchacha20/stream_xchacha20.c:51:5
	movq	%rbp, %rdi
.Ltmp17:
	#DEBUG_VALUE: crypto_stream_xchacha20_xor_ic:c <- $r13
	movq	%rcx, %rsi
.Ltmp18:
	#DEBUG_VALUE: crypto_stream_xchacha20_xor_ic:m <- $r12
	movq	%r9, %rdx
.Ltmp19:
	#DEBUG_VALUE: crypto_stream_xchacha20_xor_ic:mlen <- $r15
	xorl	%ecx, %ecx
.Ltmp20:
	#DEBUG_VALUE: crypto_stream_xchacha20_xor_ic:n <- $r14
	callq	crypto_core_hchacha20@PLT
.Ltmp21:
	#DEBUG_VALUE: crypto_stream_xchacha20_xor_ic:k <- [DW_OP_LLVM_entry_value 1] $r9
	#DEBUG_VALUE: crypto_stream_xchacha20_xor_ic:ic <- $rbx
	.loc	1 53 23                         # crypto_stream/xchacha20/stream_xchacha20.c:53:23
	addq	$16, %r14
.Ltmp22:
	#DEBUG_VALUE: crypto_stream_xchacha20_xor_ic:n <- [DW_OP_LLVM_entry_value 1] $rcx
	.loc	1 52 12                         # crypto_stream/xchacha20/stream_xchacha20.c:52:12
	movq	%r13, %rdi
	movq	%r12, %rsi
	movq	%r15, %rdx
	movq	%r14, %rcx
	movq	%rbx, %r8
	movq	%rbp, %r9
	callq	crypto_stream_chacha20_xor_ic@PLT
.Ltmp23:
	.loc	1 52 5 is_stmt 0                # crypto_stream/xchacha20/stream_xchacha20.c:52:5
	movq	%fs:40, %rcx
	cmpq	32(%rsp), %rcx
	jne	.LBB4_2
.Ltmp24:
# %bb.1:                                # %SP_return
	#DEBUG_VALUE: crypto_stream_xchacha20_xor_ic:c <- $r13
	#DEBUG_VALUE: crypto_stream_xchacha20_xor_ic:m <- $r12
	#DEBUG_VALUE: crypto_stream_xchacha20_xor_ic:mlen <- $r15
	#DEBUG_VALUE: crypto_stream_xchacha20_xor_ic:n <- [DW_OP_LLVM_entry_value 1] $rcx
	#DEBUG_VALUE: crypto_stream_xchacha20_xor_ic:ic <- $rbx
	#DEBUG_VALUE: crypto_stream_xchacha20_xor_ic:k <- [DW_OP_LLVM_entry_value 1] $r9
	.loc	1 52 5 epilogue_begin           # crypto_stream/xchacha20/stream_xchacha20.c:52:5
	addq	$40, %rsp
	.cfi_def_cfa_offset 56
	popq	%rbx
.Ltmp25:
	#DEBUG_VALUE: crypto_stream_xchacha20_xor_ic:ic <- [DW_OP_LLVM_entry_value 1] $r8
	.cfi_def_cfa_offset 48
	popq	%r12
.Ltmp26:
	#DEBUG_VALUE: crypto_stream_xchacha20_xor_ic:m <- [DW_OP_LLVM_entry_value 1] $rsi
	.cfi_def_cfa_offset 40
	popq	%r13
.Ltmp27:
	#DEBUG_VALUE: crypto_stream_xchacha20_xor_ic:c <- [DW_OP_LLVM_entry_value 1] $rdi
	.cfi_def_cfa_offset 32
	popq	%r14
	.cfi_def_cfa_offset 24
	popq	%r15
.Ltmp28:
	#DEBUG_VALUE: crypto_stream_xchacha20_xor_ic:mlen <- [DW_OP_LLVM_entry_value 1] $rdx
	.cfi_def_cfa_offset 16
	popq	%rbp
	.cfi_def_cfa_offset 8
	retq
.Ltmp29:
.LBB4_2:                                # %CallStackCheckFailBlk
	.cfi_def_cfa_offset 96
	#DEBUG_VALUE: crypto_stream_xchacha20_xor_ic:c <- $r13
	#DEBUG_VALUE: crypto_stream_xchacha20_xor_ic:m <- $r12
	#DEBUG_VALUE: crypto_stream_xchacha20_xor_ic:mlen <- $r15
	#DEBUG_VALUE: crypto_stream_xchacha20_xor_ic:n <- [DW_OP_LLVM_entry_value 1] $rcx
	#DEBUG_VALUE: crypto_stream_xchacha20_xor_ic:ic <- $rbx
	#DEBUG_VALUE: crypto_stream_xchacha20_xor_ic:k <- [DW_OP_LLVM_entry_value 1] $r9
	.loc	1 0 0                           # crypto_stream/xchacha20/stream_xchacha20.c:0
	callq	__stack_chk_fail@PLT
.Ltmp30:
.Lfunc_end4:
	.size	crypto_stream_xchacha20_xor_ic, .Lfunc_end4-crypto_stream_xchacha20_xor_ic
	.cfi_endproc
	.file	4 "/usr/include/x86_64-linux-gnu/bits" "types.h"
	.file	5 "/usr/include/x86_64-linux-gnu/bits" "stdint-uintn.h"
                                        # -- End function
	.globl	crypto_stream_xchacha20_xor     # -- Begin function crypto_stream_xchacha20_xor
	.p2align	4
	.type	crypto_stream_xchacha20_xor,@function
crypto_stream_xchacha20_xor:            # @crypto_stream_xchacha20_xor
.Lfunc_begin5:
	.loc	1 60 0 is_stmt 1                # crypto_stream/xchacha20/stream_xchacha20.c:60:0
	.cfi_startproc
# %bb.0:
	#DEBUG_VALUE: crypto_stream_xchacha20_xor:c <- $rdi
	#DEBUG_VALUE: crypto_stream_xchacha20_xor:m <- $rsi
	#DEBUG_VALUE: crypto_stream_xchacha20_xor:mlen <- $rdx
	#DEBUG_VALUE: crypto_stream_xchacha20_xor:n <- $rcx
	#DEBUG_VALUE: crypto_stream_xchacha20_xor:k <- $r8
	pushq	%r15
	.cfi_def_cfa_offset 16
	pushq	%r14
	.cfi_def_cfa_offset 24
	pushq	%r13
	.cfi_def_cfa_offset 32
	pushq	%r12
	.cfi_def_cfa_offset 40
	pushq	%rbx
	.cfi_def_cfa_offset 48
	subq	$48, %rsp
	.cfi_def_cfa_offset 96
	.cfi_offset %rbx, -48
	.cfi_offset %r12, -40
	.cfi_offset %r13, -32
	.cfi_offset %r14, -24
	.cfi_offset %r15, -16
	movq	%rcx, %rbx
	movq	%rdx, %r14
	movq	%rsi, %r15
	movq	%rdi, %r12
	movq	%fs:40, %rax
	movq	%rax, 40(%rsp)
.Ltmp31:
	#DEBUG_VALUE: crypto_stream_xchacha20_xor_ic:c <- $r12
	#DEBUG_VALUE: crypto_stream_xchacha20_xor_ic:m <- $r15
	#DEBUG_VALUE: crypto_stream_xchacha20_xor_ic:mlen <- $r14
	#DEBUG_VALUE: crypto_stream_xchacha20_xor_ic:n <- $rbx
	#DEBUG_VALUE: crypto_stream_xchacha20_xor_ic:ic <- 0
	#DEBUG_VALUE: crypto_stream_xchacha20_xor_ic:k <- $r8
	movq	%rsp, %r13
.Ltmp32:
	.loc	1 51 5 prologue_end             # crypto_stream/xchacha20/stream_xchacha20.c:51:5 @[ crypto_stream/xchacha20/stream_xchacha20.c:61:12 ]
	movq	%r13, %rdi
.Ltmp33:
	#DEBUG_VALUE: crypto_stream_xchacha20_xor:c <- $r12
	movq	%rcx, %rsi
.Ltmp34:
	#DEBUG_VALUE: crypto_stream_xchacha20_xor:m <- $r15
	movq	%r8, %rdx
.Ltmp35:
	#DEBUG_VALUE: crypto_stream_xchacha20_xor:mlen <- $r14
	xorl	%ecx, %ecx
.Ltmp36:
	#DEBUG_VALUE: crypto_stream_xchacha20_xor:n <- $rbx
	callq	crypto_core_hchacha20@PLT
.Ltmp37:
	#DEBUG_VALUE: crypto_stream_xchacha20_xor:k <- [DW_OP_LLVM_entry_value 1] $r8
	.loc	1 53 23                         # crypto_stream/xchacha20/stream_xchacha20.c:53:23 @[ crypto_stream/xchacha20/stream_xchacha20.c:61:12 ]
	addq	$16, %rbx
.Ltmp38:
	#DEBUG_VALUE: crypto_stream_xchacha20_xor:n <- [DW_OP_LLVM_entry_value 1] $rcx
	.loc	1 52 12                         # crypto_stream/xchacha20/stream_xchacha20.c:52:12 @[ crypto_stream/xchacha20/stream_xchacha20.c:61:12 ]
	movq	%r12, %rdi
	movq	%r15, %rsi
	movq	%r14, %rdx
	movq	%rbx, %rcx
	xorl	%r8d, %r8d
	movq	%r13, %r9
	callq	crypto_stream_chacha20_xor_ic@PLT
.Ltmp39:
	.loc	1 61 5                          # crypto_stream/xchacha20/stream_xchacha20.c:61:5
	movq	%fs:40, %rcx
	cmpq	40(%rsp), %rcx
	jne	.LBB5_2
.Ltmp40:
# %bb.1:                                # %SP_return
	#DEBUG_VALUE: crypto_stream_xchacha20_xor:c <- $r12
	#DEBUG_VALUE: crypto_stream_xchacha20_xor:m <- $r15
	#DEBUG_VALUE: crypto_stream_xchacha20_xor:mlen <- $r14
	#DEBUG_VALUE: crypto_stream_xchacha20_xor:n <- [DW_OP_LLVM_entry_value 1] $rcx
	#DEBUG_VALUE: crypto_stream_xchacha20_xor:k <- [DW_OP_LLVM_entry_value 1] $r8
	.loc	1 61 5 epilogue_begin is_stmt 0 # crypto_stream/xchacha20/stream_xchacha20.c:61:5
	addq	$48, %rsp
	.cfi_def_cfa_offset 48
	popq	%rbx
	.cfi_def_cfa_offset 40
	popq	%r12
.Ltmp41:
	#DEBUG_VALUE: crypto_stream_xchacha20_xor:c <- [DW_OP_LLVM_entry_value 1] $rdi
	.cfi_def_cfa_offset 32
	popq	%r13
	.cfi_def_cfa_offset 24
	popq	%r14
.Ltmp42:
	#DEBUG_VALUE: crypto_stream_xchacha20_xor:mlen <- [DW_OP_LLVM_entry_value 1] $rdx
	.cfi_def_cfa_offset 16
	popq	%r15
.Ltmp43:
	#DEBUG_VALUE: crypto_stream_xchacha20_xor:m <- [DW_OP_LLVM_entry_value 1] $rsi
	.cfi_def_cfa_offset 8
	retq
.Ltmp44:
.LBB5_2:                                # %CallStackCheckFailBlk
	.cfi_def_cfa_offset 96
	#DEBUG_VALUE: crypto_stream_xchacha20_xor:c <- $r12
	#DEBUG_VALUE: crypto_stream_xchacha20_xor:m <- $r15
	#DEBUG_VALUE: crypto_stream_xchacha20_xor:mlen <- $r14
	#DEBUG_VALUE: crypto_stream_xchacha20_xor:n <- [DW_OP_LLVM_entry_value 1] $rcx
	#DEBUG_VALUE: crypto_stream_xchacha20_xor:k <- [DW_OP_LLVM_entry_value 1] $r8
	#DEBUG_VALUE: crypto_stream_xchacha20_xor_ic:c <- $r12
	#DEBUG_VALUE: crypto_stream_xchacha20_xor_ic:m <- $r15
	#DEBUG_VALUE: crypto_stream_xchacha20_xor_ic:mlen <- $r14
	#DEBUG_VALUE: crypto_stream_xchacha20_xor_ic:ic <- 0
	.loc	1 0 0                           # crypto_stream/xchacha20/stream_xchacha20.c:0
	callq	__stack_chk_fail@PLT
.Ltmp45:
.Lfunc_end5:
	.size	crypto_stream_xchacha20_xor, .Lfunc_end5-crypto_stream_xchacha20_xor
	.cfi_endproc
                                        # -- End function
	.globl	crypto_stream_xchacha20_keygen  # -- Begin function crypto_stream_xchacha20_keygen
	.p2align	4
	.type	crypto_stream_xchacha20_keygen,@function
crypto_stream_xchacha20_keygen:         # @crypto_stream_xchacha20_keygen
.Lfunc_begin6:
	.cfi_startproc
# %bb.0:
	#DEBUG_VALUE: crypto_stream_xchacha20_keygen:k <- $rdi
	.loc	1 68 5 prologue_end is_stmt 1   # crypto_stream/xchacha20/stream_xchacha20.c:68:5
	movl	$32, %esi
.Ltmp46:
	jmp	randombytes_buf@PLT             # TAILCALL
.Ltmp47:
.Lfunc_end6:
	.size	crypto_stream_xchacha20_keygen, .Lfunc_end6-crypto_stream_xchacha20_keygen
	.cfi_endproc
	.file	6 "./include/sodium" "randombytes.h"
	.file	7 "/home/leizhenyuu/opt/Anonymous_Repo" "llvm-project/build/lib/clang/21/include/__stddef_size_t.h"
                                        # -- End function
	.section	".note.GNU-stack","",@progbits
	.addrsig
	.addrsig_sym __stack_chk_fail