	.file	"utils.c"
	.file	0 "/home/leizhenyuu/opt/Anonymous_Repo/libsodium_o2_attr_inline/src/libsodium" "utils.c" md5 0x865e3cf5b1d5d9c35b001a728956c5f5
	.file	1 "sodium" "utils.c"
	.file	2 "/home/leizhenyuu/opt/Anonymous_Repo" "llvm-project/build/lib/clang/21/include/__stddef_size_t.h"
	.file	3 "/usr/include/x86_64-linux-gnu/bits" "confname.h"
	.file	4 "/usr/include" "stdint.h"
	.text
	.hidden	_sodium_dummy_symbol_to_prevent_memzero_lto # -- Begin function _sodium_dummy_symbol_to_prevent_memzero_lto
	.weak	_sodium_dummy_symbol_to_prevent_memzero_lto
	.p2align	4
	.type	_sodium_dummy_symbol_to_prevent_memzero_lto,@function
_sodium_dummy_symbol_to_prevent_memzero_lto: # @_sodium_dummy_symbol_to_prevent_memzero_lto
.Lfunc_begin0:
	.cfi_startproc
# %bb.0:
	#DEBUG_VALUE: _sodium_dummy_symbol_to_prevent_memzero_lto:pnt <- $rdi
	#DEBUG_VALUE: _sodium_dummy_symbol_to_prevent_memzero_lto:len <- $rsi
	.loc	1 118 1 prologue_end            # sodium/utils.c:118:1
	retq
.Ltmp0:
.Lfunc_end0:
	.size	_sodium_dummy_symbol_to_prevent_memzero_lto, .Lfunc_end0-_sodium_dummy_symbol_to_prevent_memzero_lto
	.cfi_endproc
                                        # -- End function
	.globl	sodium_memzero                  # -- Begin function sodium_memzero
	.p2align	4
	.type	sodium_memzero,@function
sodium_memzero:                         # @sodium_memzero
.Lfunc_begin1:
	.cfi_startproc
# %bb.0:
	#DEBUG_VALUE: sodium_memzero:pnt <- $rdi
	#DEBUG_VALUE: sodium_memzero:len <- $rsi
	#DEBUG_VALUE: explicit_bzero:__dest <- $rdi
	#DEBUG_VALUE: explicit_bzero:__len <- $rsi
	.file	5 "/usr/include/x86_64-linux-gnu/bits" "string_fortified.h"
	.loc	5 72 3 prologue_end             # /usr/include/x86_64-linux-gnu/bits/string_fortified.h:72:3 @[ sodium/utils.c:132:5 ]
	movq	$-1, %rdx
.Ltmp1:
	jmp	__explicit_bzero_chk@PLT        # TAILCALL
.Ltmp2:
.Lfunc_end1:
	.size	sodium_memzero, .Lfunc_end1-sodium_memzero
	.cfi_endproc
                                        # -- End function
	.globl	sodium_stackzero                # -- Begin function sodium_stackzero
	.p2align	4
	.type	sodium_stackzero,@function
sodium_stackzero:                       # @sodium_stackzero
.Lfunc_begin2:
	.loc	1 158 0                         # sodium/utils.c:158:0
	.cfi_startproc
# %bb.0:
	#DEBUG_VALUE: sodium_stackzero:len <- $rdi
	pushq	%rbp
	.cfi_def_cfa_offset 16
	.cfi_offset %rbp, -16
	movq	%rsp, %rbp
	.cfi_def_cfa_register %rbp
	subq	$16, %rsp
	movq	%rdi, %rdx
.Ltmp3:
	.loc	1 160 5 prologue_end            # sodium/utils.c:160:5
	movq	%fs:40, %rax
	movq	%rax, -8(%rbp)
	movq	%rsp, %rdi
.Ltmp4:
	#DEBUG_VALUE: sodium_stackzero:len <- $rdx
	leaq	15(%rdx), %rax
	andq	$-16, %rax
	subq	%rax, %rdi
.Ltmp5:
	#DEBUG_VALUE: sodium_memzero:pnt <- $rdi
	#DEBUG_VALUE: explicit_bzero:__dest <- $rdi
	movq	%rdi, %rsp
.Ltmp6:
	#DEBUG_VALUE: sodium_stackzero:__vla_expr0 <- $rdx
	#DEBUG_VALUE: sodium_memzero:len <- $rdx
	#DEBUG_VALUE: explicit_bzero:__len <- $rdx
	.loc	5 72 3                          # /usr/include/x86_64-linux-gnu/bits/string_fortified.h:72:3 @[ sodium/utils.c:132:5 @[ sodium/utils.c:161:5 ] ]
	movq	%rdx, %rsi
	callq	__explicit_bzero_chk@PLT
.Ltmp7:
	#DEBUG_VALUE: sodium_stackzero:len <- [DW_OP_LLVM_entry_value 1] $rdi
	#DEBUG_VALUE: explicit_bzero:__dest <- $rsp
	#DEBUG_VALUE: sodium_memzero:pnt <- $rsp
	.loc	1 165 1                         # sodium/utils.c:165:1
	movq	%fs:40, %rax
	cmpq	-8(%rbp), %rax
	jne	.LBB2_2
.Ltmp8:
# %bb.1:                                # %SP_return
	#DEBUG_VALUE: sodium_stackzero:len <- [DW_OP_LLVM_entry_value 1] $rdi
	movq	%rbp, %rsp
	.loc	1 165 1 epilogue_begin is_stmt 0 # sodium/utils.c:165:1
	popq	%rbp
	.cfi_def_cfa %rsp, 8
	retq
.Ltmp9:
.LBB2_2:                                # %CallStackCheckFailBlk
	.cfi_def_cfa %rbp, 16
	#DEBUG_VALUE: sodium_stackzero:len <- [DW_OP_LLVM_entry_value 1] $rdi
	#DEBUG_VALUE: sodium_memzero:pnt <- $rsp
	#DEBUG_VALUE: explicit_bzero:__dest <- $rsp
	.loc	1 0 0                           # sodium/utils.c:0
	callq	__stack_chk_fail@PLT
.Ltmp10:
.Lfunc_end2:
	.size	sodium_stackzero, .Lfunc_end2-sodium_stackzero
	.cfi_endproc
                                        # -- End function
	.hidden	_sodium_dummy_symbol_to_prevent_memcmp_lto # -- Begin function _sodium_dummy_symbol_to_prevent_memcmp_lto
	.weak	_sodium_dummy_symbol_to_prevent_memcmp_lto
	.p2align	4
	.type	_sodium_dummy_symbol_to_prevent_memcmp_lto,@function
_sodium_dummy_symbol_to_prevent_memcmp_lto: # @_sodium_dummy_symbol_to_prevent_memcmp_lto
.Lfunc_begin3:
	.cfi_startproc
# %bb.0:
	#DEBUG_VALUE: _sodium_dummy_symbol_to_prevent_memcmp_lto:b1 <- $rdi
	#DEBUG_VALUE: _sodium_dummy_symbol_to_prevent_memcmp_lto:b2 <- $rsi
	#DEBUG_VALUE: _sodium_dummy_symbol_to_prevent_memcmp_lto:len <- $rdx
	.loc	1 180 1 prologue_end is_stmt 1  # sodium/utils.c:180:1
	retq
.Ltmp11:
.Lfunc_end3:
	.size	_sodium_dummy_symbol_to_prevent_memcmp_lto, .Lfunc_end3-_sodium_dummy_symbol_to_prevent_memcmp_lto
	.cfi_endproc
                                        # -- End function
	.globl	sodium_memcmp                   # -- Begin function sodium_memcmp
	.p2align	4
	.type	sodium_memcmp,@function
sodium_memcmp:                          # @sodium_memcmp
.Lfunc_begin4:
	.loc	1 185 0                         # sodium/utils.c:185:0
	.cfi_startproc
# %bb.0:
	#DEBUG_VALUE: sodium_memcmp:b1_ <- $rdi
	#DEBUG_VALUE: sodium_memcmp:b2_ <- $rsi
	#DEBUG_VALUE: sodium_memcmp:len <- $rdx
	pushq	%r15
	.cfi_def_cfa_offset 16
	pushq	%r14
	.cfi_def_cfa_offset 24
	pushq	%rbx
	.cfi_def_cfa_offset 32
	subq	$16, %rsp
	.cfi_def_cfa_offset 48
	.cfi_offset %rbx, -32
	.cfi_offset %r14, -24
	.cfi_offset %r15, -16
	movq	%rdx, %r15
	movq	%rsi, %r14
	movq	%rdi, %rbx
.Ltmp12:
	#DEBUG_VALUE: sodium_memcmp:d <- [DW_OP_plus_uconst 15, DW_OP_deref] $rsp
	#DEBUG_VALUE: sodium_memcmp:b1 <- $rbx
	#DEBUG_VALUE: sodium_memcmp:b2 <- $r14
	.loc	1 196 28 prologue_end           # sodium/utils.c:196:28
	movb	$0, 15(%rsp)
	.loc	1 199 5                         # sodium/utils.c:199:5
	callq	_sodium_dummy_symbol_to_prevent_memcmp_lto
.Ltmp13:
	#DEBUG_VALUE: sodium_memcmp:len <- $r15
	#DEBUG_VALUE: sodium_memcmp:b2_ <- $r14
	#DEBUG_VALUE: sodium_memcmp:b1_ <- $rbx
	#DEBUG_VALUE: sodium_memcmp:i <- 0
	.loc	1 201 20                        # sodium/utils.c:201:20
	testq	%r15, %r15
.Ltmp14:
	.loc	1 201 5 is_stmt 0               # sodium/utils.c:201:5
	je	.LBB4_7
.Ltmp15:
# %bb.1:                                # %.lr.ph.preheader
	#DEBUG_VALUE: sodium_memcmp:b1_ <- $rbx
	#DEBUG_VALUE: sodium_memcmp:b2_ <- $r14
	#DEBUG_VALUE: sodium_memcmp:len <- $r15
	#DEBUG_VALUE: sodium_memcmp:d <- [DW_OP_plus_uconst 15, DW_OP_deref] $rsp
	#DEBUG_VALUE: sodium_memcmp:b1 <- $rbx
	#DEBUG_VALUE: sodium_memcmp:b2 <- $r14
	#DEBUG_VALUE: sodium_memcmp:i <- 0
	cmpq	$1, %r15
	jne	.LBB4_3
.Ltmp16:
# %bb.2:
	#DEBUG_VALUE: sodium_memcmp:b1_ <- $rbx
	#DEBUG_VALUE: sodium_memcmp:b2_ <- $r14
	#DEBUG_VALUE: sodium_memcmp:len <- $r15
	#DEBUG_VALUE: sodium_memcmp:d <- [DW_OP_plus_uconst 15, DW_OP_deref] $rsp
	#DEBUG_VALUE: sodium_memcmp:b1 <- $rbx
	#DEBUG_VALUE: sodium_memcmp:b2 <- $r14
	#DEBUG_VALUE: sodium_memcmp:i <- 0
	.loc	1 0 5                           # sodium/utils.c:0:5
	xorl	%eax, %eax
	.loc	1 201 5                         # sodium/utils.c:201:5
	jmp	.LBB4_5
.Ltmp17:
.LBB4_3:                                # %.lr.ph.preheader.new
	#DEBUG_VALUE: sodium_memcmp:b1_ <- $rbx
	#DEBUG_VALUE: sodium_memcmp:b2_ <- $r14
	#DEBUG_VALUE: sodium_memcmp:len <- $r15
	#DEBUG_VALUE: sodium_memcmp:d <- [DW_OP_plus_uconst 15, DW_OP_deref] $rsp
	#DEBUG_VALUE: sodium_memcmp:b1 <- $rbx
	#DEBUG_VALUE: sodium_memcmp:b2 <- $r14
	#DEBUG_VALUE: sodium_memcmp:i <- 0
	movq	%r15, %rcx
	andq	$-2, %rcx
	xorl	%eax, %eax
.Ltmp18:
	.loc	1 0 5                           # :0:5
.Ltmp19:
	.p2align	4
.LBB4_4:                                # %.lr.ph
                                        # =>This Inner Loop Header: Depth=1
	#DEBUG_VALUE: sodium_memcmp:b1_ <- $rbx
	#DEBUG_VALUE: sodium_memcmp:b2_ <- $r14
	#DEBUG_VALUE: sodium_memcmp:len <- $r15
	#DEBUG_VALUE: sodium_memcmp:d <- [DW_OP_plus_uconst 15, DW_OP_deref] $rsp
	#DEBUG_VALUE: sodium_memcmp:b1 <- $rbx
	#DEBUG_VALUE: sodium_memcmp:b2 <- $r14
	#DEBUG_VALUE: sodium_memcmp:i <- $rax
	.loc	1 202 22 is_stmt 1              # sodium/utils.c:202:22
	movzbl	(%r14,%rax), %edx
	.loc	1 202 20 is_stmt 0              # sodium/utils.c:202:20
	xorb	(%rbx,%rax), %dl
	.loc	1 202 11                        # sodium/utils.c:202:11
	orb	%dl, 15(%rsp)
.Ltmp20:
	#DEBUG_VALUE: sodium_memcmp:i <- [DW_OP_constu 1, DW_OP_or, DW_OP_stack_value] $rax
	#DEBUG_VALUE: sodium_memcmp:d <- undef
	.loc	1 202 22                        # sodium/utils.c:202:22
	movzbl	1(%r14,%rax), %edx
	.loc	1 202 20                        # sodium/utils.c:202:20
	xorb	1(%rbx,%rax), %dl
	.loc	1 202 11                        # sodium/utils.c:202:11
	orb	%dl, 15(%rsp)
.Ltmp21:
	#DEBUG_VALUE: sodium_memcmp:d <- [DW_OP_plus_uconst 15, DW_OP_deref] $rsp
	.loc	1 201 28 is_stmt 1              # sodium/utils.c:201:28
	addq	$2, %rax
.Ltmp22:
	#DEBUG_VALUE: sodium_memcmp:i <- $rax
	.loc	1 201 5 is_stmt 0               # sodium/utils.c:201:5
	cmpq	%rax, %rcx
	jne	.LBB4_4
.Ltmp23:
.LBB4_5:                                # %._crit_edge.loopexit.unr-lcssa
	#DEBUG_VALUE: sodium_memcmp:b1_ <- $rbx
	#DEBUG_VALUE: sodium_memcmp:b2_ <- $r14
	#DEBUG_VALUE: sodium_memcmp:len <- $r15
	#DEBUG_VALUE: sodium_memcmp:d <- [DW_OP_plus_uconst 15, DW_OP_deref] $rsp
	#DEBUG_VALUE: sodium_memcmp:b1 <- $rbx
	#DEBUG_VALUE: sodium_memcmp:b2 <- $r14
	testb	$1, %r15b
	je	.LBB4_7
.Ltmp24:
# %bb.6:                                # %.lr.ph.epil
	#DEBUG_VALUE: sodium_memcmp:b1_ <- $rbx
	#DEBUG_VALUE: sodium_memcmp:b2_ <- $r14
	#DEBUG_VALUE: sodium_memcmp:len <- $r15
	#DEBUG_VALUE: sodium_memcmp:d <- [DW_OP_plus_uconst 15, DW_OP_deref] $rsp
	#DEBUG_VALUE: sodium_memcmp:b1 <- $rbx
	#DEBUG_VALUE: sodium_memcmp:b2 <- $r14
	#DEBUG_VALUE: sodium_memcmp:i <- $rax
	.loc	1 202 22 is_stmt 1              # sodium/utils.c:202:22
	movzbl	(%r14,%rax), %ecx
	.loc	1 202 20 is_stmt 0              # sodium/utils.c:202:20
	xorb	(%rbx,%rax), %cl
	.loc	1 202 11                        # sodium/utils.c:202:11
	orb	%cl, 15(%rsp)
.Ltmp25:
	#DEBUG_VALUE: sodium_memcmp:i <- [DW_OP_plus_uconst 1, DW_OP_stack_value] $rax
	#DEBUG_VALUE: sodium_memcmp:d <- undef
.LBB4_7:                                # %._crit_edge
	#DEBUG_VALUE: sodium_memcmp:b1_ <- $rbx
	#DEBUG_VALUE: sodium_memcmp:b2_ <- $r14
	#DEBUG_VALUE: sodium_memcmp:len <- $r15
	#DEBUG_VALUE: sodium_memcmp:b1 <- $rbx
	#DEBUG_VALUE: sodium_memcmp:b2 <- $r14
	.loc	1 204 19 is_stmt 1              # sodium/utils.c:204:19
	movzbl	15(%rsp), %ecx
	.loc	1 204 21 is_stmt 0              # sodium/utils.c:204:21
	decl	%ecx
	xorl	%eax, %eax
	.loc	1 204 33                        # sodium/utils.c:204:33
	btl	$8, %ecx
	adcl	$-1, %eax
	.loc	1 204 5 epilogue_begin          # sodium/utils.c:204:5
	addq	$16, %rsp
	.cfi_def_cfa_offset 32
	popq	%rbx
.Ltmp26:
	#DEBUG_VALUE: sodium_memcmp:b1_ <- [DW_OP_LLVM_entry_value 1] $rdi
	.cfi_def_cfa_offset 24
	popq	%r14
.Ltmp27:
	#DEBUG_VALUE: sodium_memcmp:b2_ <- [DW_OP_LLVM_entry_value 1] $rsi
	.cfi_def_cfa_offset 16
	popq	%r15
.Ltmp28:
	#DEBUG_VALUE: sodium_memcmp:len <- [DW_OP_LLVM_entry_value 1] $rdx
	.cfi_def_cfa_offset 8
	retq
.Ltmp29:
.Lfunc_end4:
	.size	sodium_memcmp, .Lfunc_end4-sodium_memcmp
	.cfi_endproc
                                        # -- End function
	.hidden	_sodium_dummy_symbol_to_prevent_compare_lto # -- Begin function _sodium_dummy_symbol_to_prevent_compare_lto
	.weak	_sodium_dummy_symbol_to_prevent_compare_lto
	.p2align	4
	.type	_sodium_dummy_symbol_to_prevent_compare_lto,@function
_sodium_dummy_symbol_to_prevent_compare_lto: # @_sodium_dummy_symbol_to_prevent_compare_lto
.Lfunc_begin5:
	.cfi_startproc
# %bb.0:
	#DEBUG_VALUE: _sodium_dummy_symbol_to_prevent_compare_lto:b1 <- $rdi
	#DEBUG_VALUE: _sodium_dummy_symbol_to_prevent_compare_lto:b2 <- $rsi
	#DEBUG_VALUE: _sodium_dummy_symbol_to_prevent_compare_lto:len <- $rdx
	.loc	1 220 1 prologue_end is_stmt 1  # sodium/utils.c:220:1
	retq
.Ltmp30:
.Lfunc_end5:
	.size	_sodium_dummy_symbol_to_prevent_compare_lto, .Lfunc_end5-_sodium_dummy_symbol_to_prevent_compare_lto
	.cfi_endproc
                                        # -- End function
	.globl	sodium_compare                  # -- Begin function sodium_compare
	.p2align	4
	.type	sodium_compare,@function
sodium_compare:                         # @sodium_compare
.Lfunc_begin6:
	.loc	1 225 0                         # sodium/utils.c:225:0
	.cfi_startproc
# %bb.0:
	#DEBUG_VALUE: sodium_compare:b1_ <- $rdi
	#DEBUG_VALUE: sodium_compare:b2_ <- $rsi
	#DEBUG_VALUE: sodium_compare:len <- $rdx
	pushq	%r15
	.cfi_def_cfa_offset 16
	pushq	%r14
	.cfi_def_cfa_offset 24
	pushq	%rbx
	.cfi_def_cfa_offset 32
	subq	$16, %rsp
	.cfi_def_cfa_offset 48
	.cfi_offset %rbx, -32
	.cfi_offset %r14, -24
	.cfi_offset %r15, -16
	movq	%rdx, %rbx
	movq	%rsi, %r14
	movq	%rdi, %r15
.Ltmp31:
	#DEBUG_VALUE: sodium_compare:b1 <- $r15
	#DEBUG_VALUE: sodium_compare:b2 <- $r14
	.loc	1 236 28 prologue_end           # sodium/utils.c:236:28
	movb	$0, 15(%rsp)
	.loc	1 237 28                        # sodium/utils.c:237:28
	movb	$1, 14(%rsp)
	.loc	1 241 5                         # sodium/utils.c:241:5
	callq	_sodium_dummy_symbol_to_prevent_compare_lto
.Ltmp32:
	#DEBUG_VALUE: sodium_compare:len <- $rbx
	#DEBUG_VALUE: sodium_compare:b2_ <- $r14
	#DEBUG_VALUE: sodium_compare:b1_ <- $r15
	#DEBUG_VALUE: sodium_compare:i <- $rbx
	.loc	1 244 14                        # sodium/utils.c:244:14
	testq	%rbx, %rbx
	.loc	1 244 5 is_stmt 0               # sodium/utils.c:244:5
	je	.LBB6_2
.Ltmp33:
	.loc	1 0 5                           # :0:5
.Ltmp34:
	.p2align	4
.LBB6_1:                                # %.lr.ph
                                        # =>This Inner Loop Header: Depth=1
	#DEBUG_VALUE: sodium_compare:b1_ <- $r15
	#DEBUG_VALUE: sodium_compare:b2_ <- $r14
	#DEBUG_VALUE: sodium_compare:len <- [DW_OP_LLVM_entry_value 1] $rdx
	#DEBUG_VALUE: sodium_compare:b1 <- $r15
	#DEBUG_VALUE: sodium_compare:b2 <- $r14
	#DEBUG_VALUE: sodium_compare:i <- $rbx
	#DEBUG_VALUE: sodium_compare:i <- $rbx
	.loc	1 246 14 is_stmt 1              # sodium/utils.c:246:14
	movzbl	-1(%r15,%rbx), %eax
.Ltmp35:
	#DEBUG_VALUE: sodium_compare:x1 <- undef
	.loc	1 247 14                        # sodium/utils.c:247:14
	movzbl	-1(%r14,%rbx), %ecx
.Ltmp36:
	#DEBUG_VALUE: sodium_compare:x2 <- $ecx
	.loc	1 248 35                        # sodium/utils.c:248:35
	movl	%ecx, %edx
	subl	%eax, %edx
	.loc	1 248 56 is_stmt 0              # sodium/utils.c:248:56
	shrl	$8, %edx
	.loc	1 248 12                        # sodium/utils.c:248:12
	andb	14(%rsp), %dl
	orb	%dl, 15(%rsp)
	.loc	1 249 36 is_stmt 1              # sodium/utils.c:249:36
	xorl	%eax, %ecx
.Ltmp37:
	.loc	1 249 43 is_stmt 0              # sodium/utils.c:249:43
	decl	%ecx
	.loc	1 249 48                        # sodium/utils.c:249:48
	shrl	$8, %ecx
	.loc	1 249 12                        # sodium/utils.c:249:12
	andb	%cl, 14(%rsp)
.Ltmp38:
	.loc	1 244 14 is_stmt 1              # sodium/utils.c:244:14
	decq	%rbx
.Ltmp39:
	#DEBUG_VALUE: sodium_compare:i <- $rbx
	.loc	1 244 5 is_stmt 0               # sodium/utils.c:244:5
	jne	.LBB6_1
.Ltmp40:
.LBB6_2:                                # %._crit_edge
	#DEBUG_VALUE: sodium_compare:b1_ <- $r15
	#DEBUG_VALUE: sodium_compare:b2_ <- $r14
	#DEBUG_VALUE: sodium_compare:len <- [DW_OP_LLVM_entry_value 1] $rdx
	#DEBUG_VALUE: sodium_compare:b1 <- $r15
	#DEBUG_VALUE: sodium_compare:b2 <- $r14
	#DEBUG_VALUE: sodium_compare:i <- $rbx
	.loc	1 251 19 is_stmt 1              # sodium/utils.c:251:19
	movzbl	15(%rsp), %eax
	.loc	1 251 24 is_stmt 0              # sodium/utils.c:251:24
	movzbl	15(%rsp), %ecx
	.loc	1 251 22                        # sodium/utils.c:251:22
	addl	%eax, %ecx
	.loc	1 251 29                        # sodium/utils.c:251:29
	movzbl	14(%rsp), %eax
	.loc	1 251 33                        # sodium/utils.c:251:33
	addl	%ecx, %eax
	decl	%eax
	.loc	1 251 5 epilogue_begin          # sodium/utils.c:251:5
	addq	$16, %rsp
	.cfi_def_cfa_offset 32
	popq	%rbx
.Ltmp41:
	.cfi_def_cfa_offset 24
	popq	%r14
.Ltmp42:
	#DEBUG_VALUE: sodium_compare:b2_ <- [DW_OP_LLVM_entry_value 1] $rsi
	.cfi_def_cfa_offset 16
	popq	%r15
.Ltmp43:
	#DEBUG_VALUE: sodium_compare:b1_ <- [DW_OP_LLVM_entry_value 1] $rdi
	.cfi_def_cfa_offset 8
	retq
.Ltmp44:
.Lfunc_end6:
	.size	sodium_compare, .Lfunc_end6-sodium_compare
	.cfi_endproc
                                        # -- End function
	.globl	sodium_is_zero                  # -- Begin function sodium_is_zero
	.p2align	4
	.type	sodium_is_zero,@function
sodium_is_zero:                         # @sodium_is_zero
.Lfunc_begin7:
	.cfi_startproc
# %bb.0:
	#DEBUG_VALUE: sodium_is_zero:n <- $rdi
	#DEBUG_VALUE: sodium_is_zero:nlen <- $rsi
	#DEBUG_VALUE: sodium_is_zero:d <- [DW_OP_constu 1, DW_OP_minus, DW_OP_deref] $rsp
	.loc	1 258 28 prologue_end is_stmt 1 # sodium/utils.c:258:28
	movb	$0, -1(%rsp)
.Ltmp45:
	#DEBUG_VALUE: sodium_is_zero:i <- 0
	.loc	1 260 20                        # sodium/utils.c:260:20
	testq	%rsi, %rsi
.Ltmp46:
	.loc	1 260 5 is_stmt 0               # sodium/utils.c:260:5
	je	.LBB7_8
.Ltmp47:
# %bb.1:                                # %.lr.ph.preheader
	#DEBUG_VALUE: sodium_is_zero:n <- $rdi
	#DEBUG_VALUE: sodium_is_zero:nlen <- $rsi
	#DEBUG_VALUE: sodium_is_zero:d <- [DW_OP_constu 1, DW_OP_minus, DW_OP_deref] $rsp
	#DEBUG_VALUE: sodium_is_zero:i <- 0
	movl	%esi, %eax
	andl	$3, %eax
	cmpq	$4, %rsi
	jae	.LBB7_3
.Ltmp48:
# %bb.2:
	#DEBUG_VALUE: sodium_is_zero:n <- $rdi
	#DEBUG_VALUE: sodium_is_zero:nlen <- $rsi
	#DEBUG_VALUE: sodium_is_zero:d <- [DW_OP_constu 1, DW_OP_minus, DW_OP_deref] $rsp
	#DEBUG_VALUE: sodium_is_zero:i <- 0
	.loc	1 0 5                           # sodium/utils.c:0:5
	xorl	%ecx, %ecx
	.loc	1 260 5                         # sodium/utils.c:260:5
	jmp	.LBB7_5
.Ltmp49:
.LBB7_3:                                # %.lr.ph.preheader.new
	#DEBUG_VALUE: sodium_is_zero:n <- $rdi
	#DEBUG_VALUE: sodium_is_zero:nlen <- $rsi
	#DEBUG_VALUE: sodium_is_zero:d <- [DW_OP_constu 1, DW_OP_minus, DW_OP_deref] $rsp
	#DEBUG_VALUE: sodium_is_zero:i <- 0
	andq	$-4, %rsi
.Ltmp50:
	#DEBUG_VALUE: sodium_is_zero:nlen <- [DW_OP_LLVM_entry_value 1] $rsi
	.loc	1 0 5                           # sodium/utils.c:0:5
	xorl	%ecx, %ecx
.Ltmp51:
	.p2align	4
.LBB7_4:                                # %.lr.ph
                                        # =>This Inner Loop Header: Depth=1
	#DEBUG_VALUE: sodium_is_zero:n <- $rdi
	#DEBUG_VALUE: sodium_is_zero:nlen <- [DW_OP_LLVM_entry_value 1] $rsi
	#DEBUG_VALUE: sodium_is_zero:d <- [DW_OP_constu 1, DW_OP_minus, DW_OP_deref] $rsp
	#DEBUG_VALUE: sodium_is_zero:i <- $rcx
	.loc	1 261 14 is_stmt 1              # sodium/utils.c:261:14
	movzbl	(%rdi,%rcx), %edx
	.loc	1 261 11 is_stmt 0              # sodium/utils.c:261:11
	orb	%dl, -1(%rsp)
.Ltmp52:
	#DEBUG_VALUE: sodium_is_zero:i <- [DW_OP_constu 1, DW_OP_or, DW_OP_stack_value] $rcx
	#DEBUG_VALUE: sodium_is_zero:d <- undef
	.loc	1 261 14                        # sodium/utils.c:261:14
	movzbl	1(%rdi,%rcx), %edx
	.loc	1 261 11                        # sodium/utils.c:261:11
	orb	%dl, -1(%rsp)
.Ltmp53:
	#DEBUG_VALUE: sodium_is_zero:i <- [DW_OP_constu 2, DW_OP_or, DW_OP_stack_value] $rcx
	.loc	1 261 14                        # sodium/utils.c:261:14
	movzbl	2(%rdi,%rcx), %edx
	.loc	1 261 11                        # sodium/utils.c:261:11
	orb	%dl, -1(%rsp)
.Ltmp54:
	#DEBUG_VALUE: sodium_is_zero:i <- [DW_OP_constu 3, DW_OP_or, DW_OP_stack_value] $rcx
	.loc	1 261 14                        # sodium/utils.c:261:14
	movzbl	3(%rdi,%rcx), %edx
	.loc	1 261 11                        # sodium/utils.c:261:11
	orb	%dl, -1(%rsp)
.Ltmp55:
	#DEBUG_VALUE: sodium_is_zero:d <- [DW_OP_constu 1, DW_OP_minus, DW_OP_deref] $rsp
	.loc	1 260 29 is_stmt 1              # sodium/utils.c:260:29
	addq	$4, %rcx
.Ltmp56:
	#DEBUG_VALUE: sodium_is_zero:i <- $rcx
	.loc	1 260 5 is_stmt 0               # sodium/utils.c:260:5
	cmpq	%rcx, %rsi
	jne	.LBB7_4
.Ltmp57:
.LBB7_5:                                # %._crit_edge.loopexit.unr-lcssa
	#DEBUG_VALUE: sodium_is_zero:n <- $rdi
	#DEBUG_VALUE: sodium_is_zero:nlen <- [DW_OP_LLVM_entry_value 1] $rsi
	#DEBUG_VALUE: sodium_is_zero:d <- [DW_OP_constu 1, DW_OP_minus, DW_OP_deref] $rsp
	testq	%rax, %rax
	je	.LBB7_8
.Ltmp58:
# %bb.6:                                # %.lr.ph.epil.preheader
	#DEBUG_VALUE: sodium_is_zero:n <- $rdi
	#DEBUG_VALUE: sodium_is_zero:nlen <- [DW_OP_LLVM_entry_value 1] $rsi
	#DEBUG_VALUE: sodium_is_zero:d <- [DW_OP_constu 1, DW_OP_minus, DW_OP_deref] $rsp
	addq	%rcx, %rdi
.Ltmp59:
	#DEBUG_VALUE: sodium_is_zero:n <- [DW_OP_LLVM_entry_value 1] $rdi
	.loc	1 0 5                           # sodium/utils.c:0:5
	xorl	%ecx, %ecx
.Ltmp60:
	.p2align	4
.LBB7_7:                                # %.lr.ph.epil
                                        # =>This Inner Loop Header: Depth=1
	#DEBUG_VALUE: sodium_is_zero:n <- [DW_OP_LLVM_entry_value 1] $rdi
	#DEBUG_VALUE: sodium_is_zero:nlen <- [DW_OP_LLVM_entry_value 1] $rsi
	#DEBUG_VALUE: sodium_is_zero:i <- [DW_OP_LLVM_arg 0, DW_OP_LLVM_arg 1, DW_OP_plus, DW_OP_stack_value] undef, undef
	.loc	1 261 14 is_stmt 1              # sodium/utils.c:261:14
	movzbl	(%rdi,%rcx), %edx
	.loc	1 261 11 is_stmt 0              # sodium/utils.c:261:11
	orb	%dl, -1(%rsp)
.Ltmp61:
	#DEBUG_VALUE: sodium_is_zero:i <- [DW_OP_LLVM_arg 0, DW_OP_consts 1, DW_OP_LLVM_arg 1, DW_OP_plus, DW_OP_plus, DW_OP_stack_value] undef, undef
	.loc	1 260 5 is_stmt 1               # sodium/utils.c:260:5
	incq	%rcx
	cmpq	%rcx, %rax
.Ltmp62:
	#DEBUG_VALUE: sodium_is_zero:d <- undef
	jne	.LBB7_7
.Ltmp63:
.LBB7_8:                                # %._crit_edge
	#DEBUG_VALUE: sodium_is_zero:n <- [DW_OP_LLVM_entry_value 1] $rdi
	#DEBUG_VALUE: sodium_is_zero:nlen <- [DW_OP_LLVM_entry_value 1] $rsi
	.loc	1 263 18                        # sodium/utils.c:263:18
	movzbl	-1(%rsp), %eax
	.loc	1 263 20 is_stmt 0              # sodium/utils.c:263:20
	decl	%eax
	.loc	1 263 14                        # sodium/utils.c:263:14
	shrl	$31, %eax
	.loc	1 263 5                         # sodium/utils.c:263:5
	retq
.Ltmp64:
.Lfunc_end7:
	.size	sodium_is_zero, .Lfunc_end7-sodium_is_zero
	.cfi_endproc
                                        # -- End function
	.globl	sodium_increment                # -- Begin function sodium_increment
	.p2align	4
	.type	sodium_increment,@function
sodium_increment:                       # @sodium_increment
.Lfunc_begin8:
	.cfi_startproc
# %bb.0:
	#DEBUG_VALUE: sodium_increment:n <- $rdi
	#DEBUG_VALUE: sodium_increment:nlen <- $rsi
	#DEBUG_VALUE: sodium_increment:i <- 0
	#DEBUG_VALUE: sodium_increment:c <- 1
	.loc	1 276 14 prologue_end is_stmt 1 # sodium/utils.c:276:14
	movq	%rsi, %rax
	rolq	$62, %rax
	cmpq	$6, %rax
	ja	.LBB8_2
.Ltmp65:
# %bb.1:
	#DEBUG_VALUE: sodium_increment:n <- $rdi
	#DEBUG_VALUE: sodium_increment:nlen <- $rsi
	#DEBUG_VALUE: sodium_increment:i <- 0
	#DEBUG_VALUE: sodium_increment:c <- 1
	.loc	1 0 14 is_stmt 0                # sodium/utils.c:0:14
	leaq	.LJTI8_0(%rip), %rcx
	.loc	1 276 14                        # sodium/utils.c:276:14
	movslq	(%rcx,%rax,4), %rax
	addq	%rcx, %rax
	jmpq	*%rax
.Ltmp66:
.LBB8_6:
	#DEBUG_VALUE: sodium_increment:n <- $rdi
	#DEBUG_VALUE: sodium_increment:nlen <- $rsi
	#DEBUG_VALUE: sodium_increment:i <- 0
	#DEBUG_VALUE: sodium_increment:c <- 1
	.loc	1 299 9 is_stmt 1               # sodium/utils.c:299:9
	#APP
	incq	(%rdi)

	#NO_APP
.Ltmp67:
	.loc	1 311 1                         # sodium/utils.c:311:1
	retq
.Ltmp68:
.LBB8_4:
	#DEBUG_VALUE: sodium_increment:n <- $rdi
	#DEBUG_VALUE: sodium_increment:nlen <- $rsi
	#DEBUG_VALUE: sodium_increment:i <- 0
	#DEBUG_VALUE: sodium_increment:c <- 1
	.loc	1 277 9                         # sodium/utils.c:277:9
	#APP
	xorq	%rax, %rax
	xorl	%ecx, %ecx
	stc
	adcq	%rax, (%rdi)
	adcl	%ecx, 8(%rdi)

	#NO_APP
.Ltmp69:
	#DEBUG_VALUE: sodium_increment:t64 <- undef
	#DEBUG_VALUE: sodium_increment:t32 <- undef
	.loc	1 311 1                         # sodium/utils.c:311:1
	retq
.Ltmp70:
.LBB8_5:
	#DEBUG_VALUE: sodium_increment:n <- $rdi
	#DEBUG_VALUE: sodium_increment:nlen <- $rsi
	#DEBUG_VALUE: sodium_increment:i <- 0
	#DEBUG_VALUE: sodium_increment:c <- 1
	.loc	1 288 9                         # sodium/utils.c:288:9
	#APP
	movq	$1, %rax
	xorq	%rcx, %rcx
	addq	%rax, (%rdi)
	adcq	%rcx, 8(%rdi)
	adcq	%rcx, 16(%rdi)

	#NO_APP
.Ltmp71:
	#DEBUG_VALUE: sodium_increment:t64 <- undef
	#DEBUG_VALUE: sodium_increment:t64_2 <- undef
	.loc	1 311 1                         # sodium/utils.c:311:1
	retq
.Ltmp72:
.LBB8_2:                                # %.lr.ph.preheader
	#DEBUG_VALUE: sodium_increment:n <- $rdi
	#DEBUG_VALUE: sodium_increment:nlen <- $rsi
	#DEBUG_VALUE: sodium_increment:i <- 0
	#DEBUG_VALUE: sodium_increment:c <- 1
	.loc	1 306 5                         # sodium/utils.c:306:5
	leaq	-1(%rsi), %rcx
	movl	%esi, %eax
	andl	$3, %eax
	cmpq	$3, %rcx
	jae	.LBB8_7
.Ltmp73:
# %bb.3:
	#DEBUG_VALUE: sodium_increment:n <- $rdi
	#DEBUG_VALUE: sodium_increment:nlen <- $rsi
	#DEBUG_VALUE: sodium_increment:i <- 0
	#DEBUG_VALUE: sodium_increment:c <- 1
	.loc	1 0 5 is_stmt 0                 # sodium/utils.c:0:5
	movl	$1, %edx
	xorl	%ecx, %ecx
	.loc	1 306 5                         # sodium/utils.c:306:5
	jmp	.LBB8_9
.Ltmp74:
.LBB8_7:                                # %.lr.ph.preheader.new
	#DEBUG_VALUE: sodium_increment:n <- $rdi
	#DEBUG_VALUE: sodium_increment:nlen <- $rsi
	#DEBUG_VALUE: sodium_increment:i <- 0
	#DEBUG_VALUE: sodium_increment:c <- 1
	andq	$-4, %rsi
.Ltmp75:
	#DEBUG_VALUE: sodium_increment:nlen <- [DW_OP_LLVM_entry_value 1] $rsi
	.loc	1 0 5                           # sodium/utils.c:0:5
	movl	$1, %edx
	xorl	%ecx, %ecx
.Ltmp76:
	.p2align	4
.LBB8_8:                                # %.lr.ph
                                        # =>This Inner Loop Header: Depth=1
	#DEBUG_VALUE: sodium_increment:n <- $rdi
	#DEBUG_VALUE: sodium_increment:nlen <- [DW_OP_LLVM_entry_value 1] $rsi
	#DEBUG_VALUE: sodium_increment:i <- $rcx
	#DEBUG_VALUE: sodium_increment:c <- $rdx
	.loc	1 307 30 is_stmt 1              # sodium/utils.c:307:30
	movzbl	(%rdi,%rcx), %r8d
	.loc	1 307 11 is_stmt 0              # sodium/utils.c:307:11
	addq	%rdx, %r8
.Ltmp77:
	#DEBUG_VALUE: sodium_increment:c <- $r8
	.loc	1 308 14 is_stmt 1              # sodium/utils.c:308:14
	movb	%r8b, (%rdi,%rcx)
	.loc	1 309 11                        # sodium/utils.c:309:11
	shrq	$8, %r8
.Ltmp78:
	#DEBUG_VALUE: sodium_increment:c <- $r8
	#DEBUG_VALUE: sodium_increment:i <- [DW_OP_constu 1, DW_OP_or, DW_OP_stack_value] $rcx
	.loc	1 307 30                        # sodium/utils.c:307:30
	movzbl	1(%rdi,%rcx), %edx
	.loc	1 307 11 is_stmt 0              # sodium/utils.c:307:11
	addq	%r8, %rdx
.Ltmp79:
	#DEBUG_VALUE: sodium_increment:c <- $rdx
	.loc	1 308 14 is_stmt 1              # sodium/utils.c:308:14
	movb	%dl, 1(%rdi,%rcx)
	.loc	1 309 11                        # sodium/utils.c:309:11
	shrq	$8, %rdx
.Ltmp80:
	#DEBUG_VALUE: sodium_increment:c <- $rdx
	#DEBUG_VALUE: sodium_increment:i <- [DW_OP_constu 2, DW_OP_or, DW_OP_stack_value] $rcx
	.loc	1 307 30                        # sodium/utils.c:307:30
	movzbl	2(%rdi,%rcx), %r8d
	.loc	1 307 11 is_stmt 0              # sodium/utils.c:307:11
	addq	%rdx, %r8
.Ltmp81:
	#DEBUG_VALUE: sodium_increment:c <- $r8
	.loc	1 308 14 is_stmt 1              # sodium/utils.c:308:14
	movb	%r8b, 2(%rdi,%rcx)
	.loc	1 309 11                        # sodium/utils.c:309:11
	shrq	$8, %r8
.Ltmp82:
	#DEBUG_VALUE: sodium_increment:c <- $r8
	#DEBUG_VALUE: sodium_increment:i <- [DW_OP_constu 3, DW_OP_or, DW_OP_stack_value] $rcx
	.loc	1 307 30                        # sodium/utils.c:307:30
	movzbl	3(%rdi,%rcx), %edx
	.loc	1 307 11 is_stmt 0              # sodium/utils.c:307:11
	addq	%r8, %rdx
.Ltmp83:
	#DEBUG_VALUE: sodium_increment:c <- $rdx
	.loc	1 308 14 is_stmt 1              # sodium/utils.c:308:14
	movb	%dl, 3(%rdi,%rcx)
	.loc	1 309 11                        # sodium/utils.c:309:11
	shrq	$8, %rdx
.Ltmp84:
	#DEBUG_VALUE: sodium_increment:c <- $rdx
	.loc	1 306 23                        # sodium/utils.c:306:23
	addq	$4, %rcx
.Ltmp85:
	#DEBUG_VALUE: sodium_increment:i <- $rcx
	.loc	1 306 5 is_stmt 0               # sodium/utils.c:306:5
	cmpq	%rcx, %rsi
	jne	.LBB8_8
.Ltmp86:
.LBB8_9:                                # %.loopexit.loopexit.unr-lcssa
	#DEBUG_VALUE: sodium_increment:n <- $rdi
	#DEBUG_VALUE: sodium_increment:nlen <- [DW_OP_LLVM_entry_value 1] $rsi
	testq	%rax, %rax
	je	.LBB8_12
.Ltmp87:
# %bb.10:                               # %.lr.ph.epil.preheader
	#DEBUG_VALUE: sodium_increment:n <- $rdi
	#DEBUG_VALUE: sodium_increment:nlen <- [DW_OP_LLVM_entry_value 1] $rsi
	addq	%rcx, %rdi
.Ltmp88:
	#DEBUG_VALUE: sodium_increment:n <- [DW_OP_LLVM_entry_value 1] $rdi
	.loc	1 0 5                           # sodium/utils.c:0:5
	xorl	%ecx, %ecx
.Ltmp89:
	.p2align	4
.LBB8_11:                               # %.lr.ph.epil
                                        # =>This Inner Loop Header: Depth=1
	#DEBUG_VALUE: sodium_increment:n <- [DW_OP_LLVM_entry_value 1] $rdi
	#DEBUG_VALUE: sodium_increment:nlen <- [DW_OP_LLVM_entry_value 1] $rsi
	#DEBUG_VALUE: sodium_increment:i <- [DW_OP_LLVM_arg 0, DW_OP_LLVM_arg 1, DW_OP_plus, DW_OP_stack_value] undef, undef
	#DEBUG_VALUE: sodium_increment:c <- $rdx
	.loc	1 307 30 is_stmt 1              # sodium/utils.c:307:30
	movzbl	(%rdi,%rcx), %esi
	.loc	1 307 11 is_stmt 0              # sodium/utils.c:307:11
	addq	%rdx, %rsi
.Ltmp90:
	#DEBUG_VALUE: sodium_increment:c <- $rsi
	.loc	1 308 14 is_stmt 1              # sodium/utils.c:308:14
	movb	%sil, (%rdi,%rcx)
	.loc	1 309 11                        # sodium/utils.c:309:11
	shrq	$8, %rsi
.Ltmp91:
	#DEBUG_VALUE: sodium_increment:c <- $rsi
	#DEBUG_VALUE: sodium_increment:i <- [DW_OP_LLVM_arg 0, DW_OP_consts 1, DW_OP_LLVM_arg 1, DW_OP_plus, DW_OP_plus, DW_OP_stack_value] undef, undef
	.loc	1 306 5                         # sodium/utils.c:306:5
	incq	%rcx
	movq	%rsi, %rdx
	cmpq	%rcx, %rax
	jne	.LBB8_11
.Ltmp92:
.LBB8_12:                               # %.loopexit
	#DEBUG_VALUE: sodium_increment:n <- [DW_OP_LLVM_entry_value 1] $rdi
	#DEBUG_VALUE: sodium_increment:nlen <- [DW_OP_LLVM_entry_value 1] $rsi
	.loc	1 311 1                         # sodium/utils.c:311:1
	retq
.Ltmp93:
.Lfunc_end8:
	.size	sodium_increment, .Lfunc_end8-sodium_increment
	.cfi_endproc
	.section	.rodata,"a",@progbits
	.p2align	2, 0x0
.LJTI8_0:
	.long	.LBB8_12-.LJTI8_0
	.long	.LBB8_2-.LJTI8_0
	.long	.LBB8_6-.LJTI8_0
	.long	.LBB8_4-.LJTI8_0
	.long	.LBB8_2-.LJTI8_0
	.long	.LBB8_2-.LJTI8_0
	.long	.LBB8_5-.LJTI8_0
                                        # -- End function
	.text
	.globl	sodium_add                      # -- Begin function sodium_add
	.p2align	4
	.type	sodium_add,@function
sodium_add:                             # @sodium_add
.Lfunc_begin9:
	.cfi_startproc
# %bb.0:
	#DEBUG_VALUE: sodium_add:a <- $rdi
	#DEBUG_VALUE: sodium_add:b <- $rsi
	#DEBUG_VALUE: sodium_add:len <- $rdx
	#DEBUG_VALUE: sodium_add:c <- 0
	.loc	1 323 13 prologue_end           # sodium/utils.c:323:13
	movq	%rdx, %rax
	rolq	$62, %rax
	cmpq	$6, %rax
	ja	.LBB9_2
.Ltmp94:
# %bb.1:
	#DEBUG_VALUE: sodium_add:a <- $rdi
	#DEBUG_VALUE: sodium_add:b <- $rsi
	#DEBUG_VALUE: sodium_add:len <- $rdx
	#DEBUG_VALUE: sodium_add:c <- 0
	.loc	1 0 13 is_stmt 0                # sodium/utils.c:0:13
	leaq	.LJTI9_0(%rip), %rcx
	.loc	1 323 13                        # sodium/utils.c:323:13
	movslq	(%rcx,%rax,4), %rax
	addq	%rcx, %rax
	jmpq	*%rax
.Ltmp95:
.LBB9_6:
	#DEBUG_VALUE: sodium_add:a <- $rdi
	#DEBUG_VALUE: sodium_add:b <- $rsi
	#DEBUG_VALUE: sodium_add:len <- $rdx
	#DEBUG_VALUE: sodium_add:c <- 0
	.loc	1 346 9 is_stmt 1               # sodium/utils.c:346:9
	#APP
	movq	(%rsi), %rax
	addq	%rax, (%rdi)

	#NO_APP
.Ltmp96:
	#DEBUG_VALUE: sodium_add:t64 <- $rax
	.loc	1 360 1                         # sodium/utils.c:360:1
	retq
.Ltmp97:
.LBB9_4:
	#DEBUG_VALUE: sodium_add:a <- $rdi
	#DEBUG_VALUE: sodium_add:b <- $rsi
	#DEBUG_VALUE: sodium_add:len <- $rdx
	#DEBUG_VALUE: sodium_add:c <- 0
	.loc	1 324 9                         # sodium/utils.c:324:9
	#APP
	movq	(%rsi), %rax
	movl	8(%rsi), %ecx
	addq	%rax, (%rdi)
	adcl	%ecx, 8(%rdi)

	#NO_APP
.Ltmp98:
	#DEBUG_VALUE: sodium_add:t64 <- undef
	#DEBUG_VALUE: sodium_add:t32 <- undef
	.loc	1 360 1                         # sodium/utils.c:360:1
	retq
.Ltmp99:
.LBB9_5:
	#DEBUG_VALUE: sodium_add:a <- $rdi
	#DEBUG_VALUE: sodium_add:b <- $rsi
	#DEBUG_VALUE: sodium_add:len <- $rdx
	#DEBUG_VALUE: sodium_add:c <- 0
	.loc	1 334 9                         # sodium/utils.c:334:9
	#APP
	movq	(%rsi), %rax
	movq	8(%rsi), %rcx
	movq	16(%rsi), %rdx
	addq	%rax, (%rdi)
	adcq	%rcx, 8(%rdi)
	adcq	%rdx, 16(%rdi)

	#NO_APP
.Ltmp100:
	#DEBUG_VALUE: sodium_add:len <- [DW_OP_LLVM_entry_value 1] $rdx
	#DEBUG_VALUE: sodium_add:t64 <- undef
	#DEBUG_VALUE: sodium_add:t64_2 <- undef
	#DEBUG_VALUE: sodium_add:t64_3 <- undef
	.loc	1 360 1                         # sodium/utils.c:360:1
	retq
.Ltmp101:
.LBB9_2:                                # %.lr.ph.preheader
	#DEBUG_VALUE: sodium_add:a <- $rdi
	#DEBUG_VALUE: sodium_add:b <- $rsi
	#DEBUG_VALUE: sodium_add:len <- $rdx
	#DEBUG_VALUE: sodium_add:c <- 0
	.loc	1 355 5                         # sodium/utils.c:355:5
	cmpq	$1, %rdx
	jne	.LBB9_7
.Ltmp102:
# %bb.3:
	#DEBUG_VALUE: sodium_add:a <- $rdi
	#DEBUG_VALUE: sodium_add:b <- $rsi
	#DEBUG_VALUE: sodium_add:len <- $rdx
	#DEBUG_VALUE: sodium_add:c <- 0
	.loc	1 0 5 is_stmt 0                 # sodium/utils.c:0:5
	xorl	%eax, %eax
	xorl	%ecx, %ecx
	.loc	1 355 5                         # sodium/utils.c:355:5
	jmp	.LBB9_9
.Ltmp103:
.LBB9_7:                                # %.lr.ph.preheader.new
	#DEBUG_VALUE: sodium_add:a <- $rdi
	#DEBUG_VALUE: sodium_add:b <- $rsi
	#DEBUG_VALUE: sodium_add:len <- $rdx
	#DEBUG_VALUE: sodium_add:c <- 0
	movq	%rdx, %r8
	andq	$-2, %r8
	xorl	%eax, %eax
	xorl	%ecx, %ecx
.Ltmp104:
	.loc	1 0 5                           # :0:5
.Ltmp105:
	.p2align	4
.LBB9_8:                                # %.lr.ph
                                        # =>This Inner Loop Header: Depth=1
	#DEBUG_VALUE: sodium_add:a <- $rdi
	#DEBUG_VALUE: sodium_add:b <- $rsi
	#DEBUG_VALUE: sodium_add:len <- $rdx
	#DEBUG_VALUE: sodium_add:i <- $rax
	#DEBUG_VALUE: sodium_add:c <- $rcx
	.loc	1 356 30 is_stmt 1              # sodium/utils.c:356:30
	movzbl	(%rdi,%rax), %r9d
	.loc	1 356 35 is_stmt 0              # sodium/utils.c:356:35
	addq	%rcx, %r9
	.loc	1 356 53                        # sodium/utils.c:356:53
	movzbl	(%rsi,%rax), %r10d
	.loc	1 356 11                        # sodium/utils.c:356:11
	addq	%r9, %r10
.Ltmp106:
	#DEBUG_VALUE: sodium_add:c <- $r10
	.loc	1 357 14 is_stmt 1              # sodium/utils.c:357:14
	movb	%r10b, (%rdi,%rax)
	.loc	1 358 11                        # sodium/utils.c:358:11
	shrq	$8, %r10
.Ltmp107:
	#DEBUG_VALUE: sodium_add:c <- $r10
	#DEBUG_VALUE: sodium_add:i <- [DW_OP_constu 1, DW_OP_or, DW_OP_stack_value] $rax
	.loc	1 356 30                        # sodium/utils.c:356:30
	movzbl	1(%rdi,%rax), %r9d
	.loc	1 356 53 is_stmt 0              # sodium/utils.c:356:53
	movzbl	1(%rsi,%rax), %ecx
	.loc	1 356 35                        # sodium/utils.c:356:35
	addq	%r9, %rcx
	.loc	1 356 11                        # sodium/utils.c:356:11
	addq	%r10, %rcx
.Ltmp108:
	#DEBUG_VALUE: sodium_add:c <- $rcx
	.loc	1 357 14 is_stmt 1              # sodium/utils.c:357:14
	movb	%cl, 1(%rdi,%rax)
	.loc	1 358 11                        # sodium/utils.c:358:11
	shrq	$8, %rcx
.Ltmp109:
	#DEBUG_VALUE: sodium_add:c <- $rcx
	.loc	1 355 28                        # sodium/utils.c:355:28
	addq	$2, %rax
.Ltmp110:
	#DEBUG_VALUE: sodium_add:i <- $rax
	.loc	1 355 5 is_stmt 0               # sodium/utils.c:355:5
	cmpq	%rax, %r8
	jne	.LBB9_8
.Ltmp111:
.LBB9_9:                                # %.loopexit.loopexit.unr-lcssa
	#DEBUG_VALUE: sodium_add:a <- $rdi
	#DEBUG_VALUE: sodium_add:b <- $rsi
	#DEBUG_VALUE: sodium_add:len <- $rdx
	testb	$1, %dl
	je	.LBB9_11
.Ltmp112:
# %bb.10:                               # %.lr.ph.epil
	#DEBUG_VALUE: sodium_add:a <- $rdi
	#DEBUG_VALUE: sodium_add:b <- $rsi
	#DEBUG_VALUE: sodium_add:len <- $rdx
	#DEBUG_VALUE: sodium_add:i <- $rax
	#DEBUG_VALUE: sodium_add:c <- undef
	.loc	1 357 16 is_stmt 1              # sodium/utils.c:357:16
	addb	(%rdi,%rax), %cl
	addb	(%rsi,%rax), %cl
	.loc	1 357 14 is_stmt 0              # sodium/utils.c:357:14
	movb	%cl, (%rdi,%rax)
.Ltmp113:
	#DEBUG_VALUE: sodium_add:i <- [DW_OP_plus_uconst 1, DW_OP_stack_value] $rax
.LBB9_11:                               # %.loopexit
	#DEBUG_VALUE: sodium_add:a <- $rdi
	#DEBUG_VALUE: sodium_add:b <- $rsi
	#DEBUG_VALUE: sodium_add:len <- $rdx
	.loc	1 360 1 is_stmt 1               # sodium/utils.c:360:1
	retq
.Ltmp114:
.Lfunc_end9:
	.size	sodium_add, .Lfunc_end9-sodium_add
	.cfi_endproc
	.section	.rodata,"a",@progbits
	.p2align	2, 0x0
.LJTI9_0:
	.long	.LBB9_11-.LJTI9_0
	.long	.LBB9_2-.LJTI9_0
	.long	.LBB9_6-.LJTI9_0
	.long	.LBB9_4-.LJTI9_0
	.long	.LBB9_2-.LJTI9_0
	.long	.LBB9_2-.LJTI9_0
	.long	.LBB9_5-.LJTI9_0
                                        # -- End function
	.text
	.globl	sodium_sub                      # -- Begin function sodium_sub
	.p2align	4
	.type	sodium_sub,@function
sodium_sub:                             # @sodium_sub
.Lfunc_begin10:
	.cfi_startproc
# %bb.0:
	#DEBUG_VALUE: sodium_sub:a <- $rdi
	#DEBUG_VALUE: sodium_sub:b <- $rsi
	#DEBUG_VALUE: sodium_sub:len <- $rdx
	#DEBUG_VALUE: sodium_sub:c <- 0
	.loc	1 373 13 prologue_end           # sodium/utils.c:373:13
	testq	%rdx, %rdx
	je	.LBB10_9
.Ltmp115:
# %bb.1:
	#DEBUG_VALUE: sodium_sub:a <- $rdi
	#DEBUG_VALUE: sodium_sub:b <- $rsi
	#DEBUG_VALUE: sodium_sub:len <- $rdx
	#DEBUG_VALUE: sodium_sub:c <- 0
	cmpq	$64, %rdx
	jne	.LBB10_2
.Ltmp116:
# %bb.4:
	#DEBUG_VALUE: sodium_sub:a <- $rdi
	#DEBUG_VALUE: sodium_sub:b <- $rsi
	#DEBUG_VALUE: sodium_sub:len <- $rdx
	#DEBUG_VALUE: sodium_sub:c <- 0
	pushq	%rbx
	.cfi_def_cfa_offset 16
	.cfi_offset %rbx, -16
	.loc	1 374 9                         # sodium/utils.c:374:9
	#APP
	movq	(%rsi), %rax
	movq	8(%rsi), %rcx
	movq	16(%rsi), %rdx
	movq	24(%rsi), %r8
	movq	32(%rsi), %r9
	movq	40(%rsi), %r10
	movq	48(%rsi), %r11
	movq	56(%rsi), %rbx
	subq	%rax, (%rdi)
	sbbq	%rcx, 8(%rdi)
	sbbq	%rdx, 16(%rdi)
	sbbq	%r8, 24(%rdi)
	sbbq	%r9, 32(%rdi)
	sbbq	%r10, 40(%rdi)
	sbbq	%r11, 48(%rdi)
	sbbq	%rbx, 56(%rdi)

	#NO_APP
.Ltmp117:
	#DEBUG_VALUE: sodium_sub:len <- [DW_OP_LLVM_entry_value 1] $rdx
	#DEBUG_VALUE: sodium_sub:t64_1 <- undef
	#DEBUG_VALUE: sodium_sub:t64_2 <- undef
	#DEBUG_VALUE: sodium_sub:t64_3 <- undef
	#DEBUG_VALUE: sodium_sub:t64_4 <- undef
	#DEBUG_VALUE: sodium_sub:t64_5 <- undef
	#DEBUG_VALUE: sodium_sub:t64_6 <- undef
	#DEBUG_VALUE: sodium_sub:t64_7 <- undef
	#DEBUG_VALUE: sodium_sub:t64_8 <- undef
	.loc	1 403 1 epilogue_begin          # sodium/utils.c:403:1
	popq	%rbx
	.cfi_def_cfa_offset 8
	retq
.Ltmp118:
.LBB10_2:                               # %.lr.ph.preheader
	.cfi_restore %rbx
	#DEBUG_VALUE: sodium_sub:a <- $rdi
	#DEBUG_VALUE: sodium_sub:b <- $rsi
	#DEBUG_VALUE: sodium_sub:len <- $rdx
	#DEBUG_VALUE: sodium_sub:c <- 0
	.loc	1 398 5                         # sodium/utils.c:398:5
	cmpq	$1, %rdx
	jne	.LBB10_5
.Ltmp119:
# %bb.3:
	#DEBUG_VALUE: sodium_sub:a <- $rdi
	#DEBUG_VALUE: sodium_sub:b <- $rsi
	#DEBUG_VALUE: sodium_sub:len <- $rdx
	#DEBUG_VALUE: sodium_sub:c <- 0
	.loc	1 0 5 is_stmt 0                 # sodium/utils.c:0:5
	xorl	%eax, %eax
	xorl	%ecx, %ecx
	.loc	1 398 5                         # sodium/utils.c:398:5
	jmp	.LBB10_7
.Ltmp120:
.LBB10_5:                               # %.lr.ph.preheader.new
	#DEBUG_VALUE: sodium_sub:a <- $rdi
	#DEBUG_VALUE: sodium_sub:b <- $rsi
	#DEBUG_VALUE: sodium_sub:len <- $rdx
	#DEBUG_VALUE: sodium_sub:c <- 0
	movq	%rdx, %r8
	andq	$-2, %r8
	xorl	%eax, %eax
	xorl	%ecx, %ecx
.Ltmp121:
	.loc	1 0 5                           # :0:5
.Ltmp122:
	.p2align	4
.LBB10_6:                               # %.lr.ph
                                        # =>This Inner Loop Header: Depth=1
	#DEBUG_VALUE: sodium_sub:a <- $rdi
	#DEBUG_VALUE: sodium_sub:b <- $rsi
	#DEBUG_VALUE: sodium_sub:len <- $rdx
	#DEBUG_VALUE: sodium_sub:c <- $rax
	#DEBUG_VALUE: sodium_sub:i <- $rcx
	.loc	1 399 29 is_stmt 1              # sodium/utils.c:399:29
	movzbl	(%rdi,%rcx), %r9d
	.loc	1 399 52 is_stmt 0              # sodium/utils.c:399:52
	movzbl	(%rsi,%rcx), %r10d
	.loc	1 399 57                        # sodium/utils.c:399:57
	addq	%rax, %r10
	subq	%r10, %r9
.Ltmp123:
	#DEBUG_VALUE: sodium_sub:c <- $r9
	.loc	1 400 14 is_stmt 1              # sodium/utils.c:400:14
	movb	%r9b, (%rdi,%rcx)
.Ltmp124:
	#DEBUG_VALUE: sodium_sub:i <- [DW_OP_constu 1, DW_OP_or, DW_OP_stack_value] $rcx
	#DEBUG_VALUE: sodium_sub:c <- undef
	.loc	1 399 29                        # sodium/utils.c:399:29
	movzbl	1(%rdi,%rcx), %eax
	.loc	1 399 52 is_stmt 0              # sodium/utils.c:399:52
	movzbl	1(%rsi,%rcx), %r10d
	.loc	1 399 57                        # sodium/utils.c:399:57
	btl	$8, %r9d
	sbbq	%r10, %rax
.Ltmp125:
	#DEBUG_VALUE: sodium_sub:c <- $rax
	.loc	1 400 14 is_stmt 1              # sodium/utils.c:400:14
	movb	%al, 1(%rdi,%rcx)
	.loc	1 401 16                        # sodium/utils.c:401:16
	shrl	$8, %eax
.Ltmp126:
	.loc	1 401 22 is_stmt 0              # sodium/utils.c:401:22
	andl	$1, %eax
.Ltmp127:
	#DEBUG_VALUE: sodium_sub:c <- $eax
	.loc	1 398 28 is_stmt 1              # sodium/utils.c:398:28
	addq	$2, %rcx
.Ltmp128:
	#DEBUG_VALUE: sodium_sub:i <- $rcx
	.loc	1 398 5 is_stmt 0               # sodium/utils.c:398:5
	cmpq	%rcx, %r8
	jne	.LBB10_6
.Ltmp129:
.LBB10_7:                               # %.loopexit.loopexit.unr-lcssa
	#DEBUG_VALUE: sodium_sub:a <- $rdi
	#DEBUG_VALUE: sodium_sub:b <- $rsi
	#DEBUG_VALUE: sodium_sub:len <- $rdx
	testb	$1, %dl
	je	.LBB10_9
.Ltmp130:
# %bb.8:                                # %.lr.ph.epil
	#DEBUG_VALUE: sodium_sub:a <- $rdi
	#DEBUG_VALUE: sodium_sub:b <- $rsi
	#DEBUG_VALUE: sodium_sub:len <- $rdx
	#DEBUG_VALUE: sodium_sub:c <- undef
	#DEBUG_VALUE: sodium_sub:i <- $rcx
	.loc	1 400 16 is_stmt 1              # sodium/utils.c:400:16
	addb	(%rsi,%rcx), %al
	.loc	1 400 14 is_stmt 0              # sodium/utils.c:400:14
	subb	%al, (%rdi,%rcx)
.Ltmp131:
	#DEBUG_VALUE: sodium_sub:i <- [DW_OP_plus_uconst 1, DW_OP_stack_value] $rcx
.LBB10_9:                               # %.loopexit
	#DEBUG_VALUE: sodium_sub:a <- $rdi
	#DEBUG_VALUE: sodium_sub:b <- $rsi
	#DEBUG_VALUE: sodium_sub:len <- $rdx
	.loc	1 403 1 is_stmt 1               # sodium/utils.c:403:1
	retq
.Ltmp132:
.Lfunc_end10:
	.size	sodium_sub, .Lfunc_end10-sodium_sub
	.cfi_endproc
                                        # -- End function
	.hidden	_sodium_alloc_init              # -- Begin function _sodium_alloc_init
	.globl	_sodium_alloc_init
	.p2align	4
	.type	_sodium_alloc_init,@function
_sodium_alloc_init:                     # @_sodium_alloc_init
.Lfunc_begin11:
	.loc	1 407 0                         # sodium/utils.c:407:0
	.cfi_startproc
# %bb.0:
	pushq	%rax
	.cfi_def_cfa_offset 16
.Ltmp133:
	.loc	1 410 23 prologue_end           # sodium/utils.c:410:23
	movl	$30, %edi
	callq	sysconf@PLT
.Ltmp134:
	#DEBUG_VALUE: _sodium_alloc_init:page_size_ <- $rax
	.loc	1 411 20                        # sodium/utils.c:411:20
	testq	%rax, %rax
	jle	.LBB11_2
.Ltmp135:
# %bb.1:
	#DEBUG_VALUE: _sodium_alloc_init:page_size_ <- $rax
	.loc	1 412 19                        # sodium/utils.c:412:19
	movq	%rax, page_size(%rip)
.Ltmp136:
	.loc	1 421 19                        # sodium/utils.c:421:19
	cmpq	$15, %rax
	.loc	1 421 25 is_stmt 0              # sodium/utils.c:421:25
	jbe	.LBB11_5
.Ltmp137:
.LBB11_4:
	.loc	1 425 5 is_stmt 1               # sodium/utils.c:425:5
	leaq	canary(%rip), %rdi
	movl	$16, %esi
	callq	randombytes_buf@PLT
.Ltmp138:
	.loc	1 427 5                         # sodium/utils.c:427:5
	xorl	%eax, %eax
	.loc	1 427 5 epilogue_begin is_stmt 0 # sodium/utils.c:427:5
	popq	%rcx
	.cfi_def_cfa_offset 8
	retq
.LBB11_2:                               # %thread-pre-split
	.cfi_def_cfa_offset 16
.Ltmp139:
	#DEBUG_VALUE: _sodium_alloc_init:page_size_ <- $rax
	.loc	1 421 9 is_stmt 1               # sodium/utils.c:421:9
	movq	page_size(%rip), %rax
.Ltmp140:
	.loc	1 421 19 is_stmt 0              # sodium/utils.c:421:19
	cmpq	$15, %rax
	.loc	1 421 25                        # sodium/utils.c:421:25
	ja	.LBB11_4
.LBB11_5:
.Ltmp141:
	.loc	1 422 9 is_stmt 1               # sodium/utils.c:422:9
	callq	sodium_misuse@PLT
.Ltmp142:
.Lfunc_end11:
	.size	_sodium_alloc_init, .Lfunc_end11-_sodium_alloc_init
	.cfi_endproc
	.file	6 "/usr/include" "unistd.h"
	.file	7 "./include/sodium" "randombytes.h"
	.file	8 "./include/sodium" "core.h"
                                        # -- End function
	.globl	sodium_mlock                    # -- Begin function sodium_mlock
	.p2align	4
	.type	sodium_mlock,@function
sodium_mlock:                           # @sodium_mlock
.Lfunc_begin12:
	.loc	1 432 0                         # sodium/utils.c:432:0
	.cfi_startproc
# %bb.0:
	#DEBUG_VALUE: sodium_mlock:addr <- $rdi
	#DEBUG_VALUE: sodium_mlock:len <- $rsi
	pushq	%r14
	.cfi_def_cfa_offset 16
	pushq	%rbx
	.cfi_def_cfa_offset 24
	pushq	%rax
	.cfi_def_cfa_offset 32
	.cfi_offset %rbx, -24
	.cfi_offset %r14, -16
	movq	%rsi, %rbx
	movq	%rdi, %r14
.Ltmp143:
	.loc	1 434 12 prologue_end           # sodium/utils.c:434:12
	movl	$16, %edx
	callq	madvise@PLT
.Ltmp144:
	#DEBUG_VALUE: sodium_mlock:len <- $rbx
	#DEBUG_VALUE: sodium_mlock:addr <- $r14
	.loc	1 437 12                        # sodium/utils.c:437:12
	movq	%r14, %rdi
	movq	%rbx, %rsi
	.loc	1 437 12 epilogue_begin is_stmt 0 # sodium/utils.c:437:12
	addq	$8, %rsp
	.cfi_def_cfa_offset 24
	popq	%rbx
.Ltmp145:
	#DEBUG_VALUE: sodium_mlock:len <- $rsi
	.cfi_def_cfa_offset 16
	popq	%r14
.Ltmp146:
	#DEBUG_VALUE: sodium_mlock:addr <- $rdi
	.cfi_def_cfa_offset 8
	jmp	mlock@PLT                       # TAILCALL
.Ltmp147:
.Lfunc_end12:
	.size	sodium_mlock, .Lfunc_end12-sodium_mlock
	.cfi_endproc
	.file	9 "/usr/include/x86_64-linux-gnu/sys" "mman.h"
                                        # -- End function
	.globl	sodium_munlock                  # -- Begin function sodium_munlock
	.p2align	4
	.type	sodium_munlock,@function
sodium_munlock:                         # @sodium_munlock
.Lfunc_begin13:
	.loc	1 448 0 is_stmt 1               # sodium/utils.c:448:0
	.cfi_startproc
# %bb.0:
	#DEBUG_VALUE: sodium_munlock:addr <- $rdi
	#DEBUG_VALUE: sodium_munlock:len <- $rsi
	#DEBUG_VALUE: sodium_memzero:pnt <- $rdi
	#DEBUG_VALUE: sodium_memzero:len <- $rsi
	#DEBUG_VALUE: explicit_bzero:__dest <- $rdi
	#DEBUG_VALUE: explicit_bzero:__len <- $rsi
	pushq	%r14
	.cfi_def_cfa_offset 16
	pushq	%rbx
	.cfi_def_cfa_offset 24
	pushq	%rax
	.cfi_def_cfa_offset 32
	.cfi_offset %rbx, -24
	.cfi_offset %r14, -16
	movq	%rsi, %rbx
	movq	%rdi, %r14
.Ltmp148:
	.loc	5 72 3 prologue_end             # /usr/include/x86_64-linux-gnu/bits/string_fortified.h:72:3 @[ sodium/utils.c:132:5 @[ sodium/utils.c:449:5 ] ]
	movq	$-1, %rdx
	callq	__explicit_bzero_chk@PLT
.Ltmp149:
	#DEBUG_VALUE: explicit_bzero:__len <- $rbx
	#DEBUG_VALUE: sodium_memzero:len <- $rbx
	#DEBUG_VALUE: sodium_munlock:len <- $rbx
	#DEBUG_VALUE: explicit_bzero:__dest <- $r14
	#DEBUG_VALUE: sodium_memzero:pnt <- $r14
	#DEBUG_VALUE: sodium_munlock:addr <- $r14
	.loc	1 451 12                        # sodium/utils.c:451:12
	movq	%r14, %rdi
	movq	%rbx, %rsi
	movl	$17, %edx
	callq	madvise@PLT
.Ltmp150:
	.loc	1 454 12                        # sodium/utils.c:454:12
	movq	%r14, %rdi
	movq	%rbx, %rsi
	.loc	1 454 12 epilogue_begin is_stmt 0 # sodium/utils.c:454:12
	addq	$8, %rsp
	.cfi_def_cfa_offset 24
	popq	%rbx
.Ltmp151:
	#DEBUG_VALUE: explicit_bzero:__len <- $rsi
	#DEBUG_VALUE: sodium_memzero:len <- $rsi
	#DEBUG_VALUE: sodium_munlock:len <- $rsi
	.cfi_def_cfa_offset 16
	popq	%r14
.Ltmp152:
	#DEBUG_VALUE: explicit_bzero:__dest <- $rdi
	#DEBUG_VALUE: sodium_memzero:pnt <- $rdi
	#DEBUG_VALUE: sodium_munlock:addr <- $rdi
	.cfi_def_cfa_offset 8
	jmp	munlock@PLT                     # TAILCALL
.Ltmp153:
.Lfunc_end13:
	.size	sodium_munlock, .Lfunc_end13-sodium_munlock
	.cfi_endproc
                                        # -- End function
	.globl	sodium_malloc                   # -- Begin function sodium_malloc
	.p2align	4
	.type	sodium_malloc,@function
sodium_malloc:                          # @sodium_malloc
.Lfunc_begin14:
	.loc	1 637 0 is_stmt 1               # sodium/utils.c:637:0
	.cfi_startproc
# %bb.0:
	#DEBUG_VALUE: sodium_malloc:size <- $rdi
	#DEBUG_VALUE: _sodium_malloc:size <- $rdi
	pushq	%rbp
	.cfi_def_cfa_offset 16
	pushq	%r15
	.cfi_def_cfa_offset 24
	pushq	%r14
	.cfi_def_cfa_offset 32
	pushq	%r13
	.cfi_def_cfa_offset 40
	pushq	%r12
	.cfi_def_cfa_offset 48
	pushq	%rbx
	.cfi_def_cfa_offset 56
	pushq	%rax
	.cfi_def_cfa_offset 64
	.cfi_offset %rbx, -56
	.cfi_offset %r12, -48
	.cfi_offset %r13, -40
	.cfi_offset %r14, -32
	.cfi_offset %r15, -24
	.cfi_offset %rbp, -16
	.loc	1 603 53 prologue_end           # sodium/utils.c:603:53 @[ sodium/utils.c:640:16 ]
	movq	page_size(%rip), %r14
	.loc	1 603 63 is_stmt 0              # sodium/utils.c:603:63 @[ sodium/utils.c:640:16 ]
	leaq	(,%r14,4), %rax
	.loc	1 603 51                        # sodium/utils.c:603:51 @[ sodium/utils.c:640:16 ]
	notq	%rax
	.loc	1 603 14                        # sodium/utils.c:603:14 @[ sodium/utils.c:640:16 ]
	cmpq	%rax, %rdi
	jae	.LBB14_1
.Ltmp154:
# %bb.2:
	#DEBUG_VALUE: sodium_malloc:size <- $rdi
	#DEBUG_VALUE: _sodium_malloc:size <- $rdi
	.loc	1 607 19 is_stmt 1              # sodium/utils.c:607:19 @[ sodium/utils.c:640:16 ]
	cmpq	$16, %r14
	.loc	1 607 36 is_stmt 0              # sodium/utils.c:607:36 @[ sodium/utils.c:640:16 ]
	jbe	.LBB14_8
.Ltmp155:
# %bb.3:
	#DEBUG_VALUE: sodium_malloc:size <- $rdi
	#DEBUG_VALUE: _sodium_malloc:size <- $rdi
	.loc	1 0 36                          # sodium/utils.c:0:36
	movq	%rdi, %rbx
.Ltmp156:
	#DEBUG_VALUE: _sodium_malloc:size_with_canary <- [DW_OP_plus_uconst 16, DW_OP_stack_value] $rbx
	#DEBUG_VALUE: _page_round:size <- [DW_OP_plus_uconst 16, DW_OP_stack_value] $rbx
	#DEBUG_VALUE: _page_round:page_mask <- undef
	.loc	1 527 18 is_stmt 1              # sodium/utils.c:527:18 @[ sodium/utils.c:611:24 @[ sodium/utils.c:640:16 ] ]
	leaq	(%r14,%rdi), %rax
	addq	$15, %rax
.Ltmp157:
	#DEBUG_VALUE: _sodium_malloc:unprotected_size <- undef
	.loc	1 612 40                        # sodium/utils.c:612:40 @[ sodium/utils.c:640:16 ]
	leaq	(%r14,%r14,2), %rsi
.Ltmp158:
	.loc	1 527 33                        # sodium/utils.c:527:33 @[ sodium/utils.c:611:24 @[ sodium/utils.c:640:16 ] ]
	negq	%r14
	.loc	1 527 31 is_stmt 0              # sodium/utils.c:527:31 @[ sodium/utils.c:611:24 @[ sodium/utils.c:640:16 ] ]
	andq	%rax, %r14
.Ltmp159:
	#DEBUG_VALUE: _sodium_malloc:unprotected_size <- $r14
	.loc	1 612 59 is_stmt 1              # sodium/utils.c:612:59 @[ sodium/utils.c:640:16 ]
	addq	%r14, %rsi
.Ltmp160:
	#DEBUG_VALUE: _sodium_malloc:total_size <- $rsi
	#DEBUG_VALUE: _alloc_aligned:size <- $rsi
	.loc	1 536 16                        # sodium/utils.c:536:16 @[ sodium/utils.c:613:21 @[ sodium/utils.c:640:16 ] ]
	xorl	%edi, %edi
.Ltmp161:
	#DEBUG_VALUE: _sodium_malloc:size <- $rbx
	#DEBUG_VALUE: sodium_malloc:size <- $rbx
	movl	$3, %edx
	movl	$34, %ecx
	movl	$-1, %r8d
	xorl	%r9d, %r9d
	callq	mmap@PLT
.Ltmp162:
	#DEBUG_VALUE: _alloc_aligned:ptr <- undef
	#DEBUG_VALUE: _sodium_malloc:base_ptr <- undef
	.loc	1 613 49                        # sodium/utils.c:613:49 @[ sodium/utils.c:640:16 ]
	leaq	1(%rax), %rcx
	cmpq	$2, %rcx
	jb	.LBB14_7
.Ltmp163:
# %bb.4:
	#DEBUG_VALUE: sodium_malloc:size <- $rbx
	#DEBUG_VALUE: _sodium_malloc:size <- $rbx
	#DEBUG_VALUE: _sodium_malloc:size_with_canary <- [DW_OP_plus_uconst 16, DW_OP_stack_value] $rbx
	#DEBUG_VALUE: _sodium_malloc:unprotected_size <- $r14
	.loc	1 0 0 is_stmt 0                 # sodium/utils.c:0 @[ sodium/utils.c:640:16 ]
	leaq	15(%rbx), %rbp
	.loc	1 616 34 is_stmt 1              # sodium/utils.c:616:34 @[ sodium/utils.c:640:16 ]
	movq	page_size(%rip), %rsi
	.loc	1 616 32 is_stmt 0              # sodium/utils.c:616:32 @[ sodium/utils.c:640:16 ]
	leaq	(%rax,%rsi,2), %r15
.Ltmp164:
	#DEBUG_VALUE: _sodium_malloc:unprotected_ptr <- $r15
	.loc	1 617 33 is_stmt 1              # sodium/utils.c:617:33 @[ sodium/utils.c:640:16 ]
	movq	%rax, %rdi
	addq	%rsi, %rdi
.Ltmp165:
	#DEBUG_VALUE: _mprotect_noaccess:ptr <- $rdi
	#DEBUG_VALUE: _mprotect_noaccess:size <- $rsi
	.loc	1 467 12                        # sodium/utils.c:467:12 @[ sodium/utils.c:617:5 @[ sodium/utils.c:640:16 ] ]
	xorl	%edx, %edx
	movq	%rax, %r13
	callq	mprotect@PLT
.Ltmp166:
	.loc	1 621 40                        # sodium/utils.c:621:40 @[ sodium/utils.c:640:16 ]
	leaq	(%r15,%r14), %rdi
	.loc	1 621 60 is_stmt 0              # sodium/utils.c:621:60 @[ sodium/utils.c:640:16 ]
	movq	page_size(%rip), %rsi
.Ltmp167:
	#DEBUG_VALUE: _mprotect_noaccess:size <- $rsi
	#DEBUG_VALUE: _mprotect_noaccess:ptr <- $rdi
	.loc	1 467 12 is_stmt 1              # sodium/utils.c:467:12 @[ sodium/utils.c:621:5 @[ sodium/utils.c:640:16 ] ]
	xorl	%edx, %edx
	callq	mprotect@PLT
.Ltmp168:
	#DEBUG_VALUE: sodium_mlock:addr <- $r15
	#DEBUG_VALUE: sodium_mlock:len <- $r14
	.loc	1 434 12                        # sodium/utils.c:434:12 @[ sodium/utils.c:622:12 @[ sodium/utils.c:640:16 ] ]
	movq	%r15, %rdi
	movq	%r14, %rsi
	movl	$16, %edx
	callq	madvise@PLT
.Ltmp169:
	.loc	1 437 12                        # sodium/utils.c:437:12 @[ sodium/utils.c:622:12 @[ sodium/utils.c:640:16 ] ]
	movq	%r15, %rdi
	movq	%r14, %rsi
	callq	mlock@PLT
.Ltmp170:
	#DEBUG_VALUE: _page_round:size <- [DW_OP_plus_uconst 16, DW_OP_stack_value] $rbx
	.loc	1 525 30                        # sodium/utils.c:525:30 @[ sodium/utils.c:624:27 @[ sodium/utils.c:640:16 ] ]
	movq	page_size(%rip), %rsi
.Ltmp171:
	#DEBUG_VALUE: _page_round:page_mask <- undef
	.loc	1 527 18                        # sodium/utils.c:527:18 @[ sodium/utils.c:624:27 @[ sodium/utils.c:640:16 ] ]
	addq	%rsi, %rbp
	.loc	1 527 33 is_stmt 0              # sodium/utils.c:527:33 @[ sodium/utils.c:624:27 @[ sodium/utils.c:640:16 ] ]
	movq	%rsi, %r12
	negq	%r12
	.loc	1 527 31                        # sodium/utils.c:527:31 @[ sodium/utils.c:624:27 @[ sodium/utils.c:640:16 ] ]
	andq	%rbp, %r12
.Ltmp172:
	.loc	1 624 25 is_stmt 1              # sodium/utils.c:624:25 @[ sodium/utils.c:640:16 ]
	addq	%r15, %r12
	.loc	1 624 57 is_stmt 0              # sodium/utils.c:624:57 @[ sodium/utils.c:640:16 ]
	subq	%rbx, %r12
.Ltmp173:
	.loc	5 29 10 is_stmt 1               # /usr/include/x86_64-linux-gnu/bits/string_fortified.h:29:10 @[ sodium/utils.c:626:5 @[ sodium/utils.c:640:16 ] ]
	movaps	canary(%rip), %xmm0
	movups	%xmm0, -16(%r12)
.Ltmp174:
	.loc	1 624 57                        # sodium/utils.c:624:57 @[ sodium/utils.c:640:16 ]
	addq	$-16, %r12
.Ltmp175:
	#DEBUG_VALUE: _sodium_malloc:canary_ptr <- $r12
	#DEBUG_VALUE: _sodium_malloc:user_ptr <- [DW_OP_plus_uconst 16, DW_OP_stack_value] $r12
	#DEBUG_VALUE: memcpy:__dest <- $r12
	#DEBUG_VALUE: _mprotect_readonly:ptr <- $r13
	#DEBUG_VALUE: _mprotect_readonly:size <- $rsi
	#DEBUG_VALUE: _unprotected_ptr_from_user_ptr:ptr <- [DW_OP_plus_uconst 16, DW_OP_stack_value] $r12
	#DEBUG_VALUE: _unprotected_ptr_from_user_ptr:canary_ptr <- $r12
	#DEBUG_VALUE: memcpy:__len <- 16
	#DEBUG_VALUE: memcpy:__dest <- $r13
	#DEBUG_VALUE: memcpy:__src <- undef
	#DEBUG_VALUE: memcpy:__len <- 8
	#DEBUG_VALUE: memcpy:__src <- undef
	.loc	5 29 10                         # /usr/include/x86_64-linux-gnu/bits/string_fortified.h:29:10 @[ sodium/utils.c:627:5 @[ sodium/utils.c:640:16 ] ]
	movq	%r14, (%r13)
.Ltmp176:
	.loc	1 481 12                        # sodium/utils.c:481:12 @[ sodium/utils.c:628:5 @[ sodium/utils.c:640:16 ] ]
	movq	%r13, %rdi
	movl	$1, %edx
	callq	mprotect@PLT
.Ltmp177:
	.loc	1 575 17                        # sodium/utils.c:575:17 @[ sodium/utils.c:629:114 @[ sodium/utils.c:640:16 ] ]
	movq	page_size(%rip), %rcx
.Ltmp178:
	#DEBUG_VALUE: _unprotected_ptr_from_user_ptr:page_mask <- [DW_OP_constu 1, DW_OP_minus, DW_OP_stack_value] $rcx
	.loc	1 576 63                        # sodium/utils.c:576:63 @[ sodium/utils.c:629:114 @[ sodium/utils.c:640:16 ] ]
	movq	%rcx, %rax
	negq	%rax
	.loc	1 576 49 is_stmt 0              # sodium/utils.c:576:49 @[ sodium/utils.c:629:114 @[ sodium/utils.c:640:16 ] ]
	andq	%r12, %rax
.Ltmp179:
	#DEBUG_VALUE: _unprotected_ptr_from_user_ptr:unprotected_ptr_u <- $rax
	.loc	1 577 40 is_stmt 1              # sodium/utils.c:577:40 @[ sodium/utils.c:629:114 @[ sodium/utils.c:640:16 ] ]
	addq	%rcx, %rcx
.Ltmp180:
	.loc	1 577 27 is_stmt 0              # sodium/utils.c:577:27 @[ sodium/utils.c:629:114 @[ sodium/utils.c:640:16 ] ]
	cmpq	%rcx, %rax
	jbe	.LBB14_8
.Ltmp181:
# %bb.5:                                # %_unprotected_ptr_from_user_ptr.exit.i
	#DEBUG_VALUE: sodium_malloc:size <- $rbx
	#DEBUG_VALUE: _sodium_malloc:size <- $rbx
	#DEBUG_VALUE: _sodium_malloc:size_with_canary <- [DW_OP_plus_uconst 16, DW_OP_stack_value] $rbx
	#DEBUG_VALUE: _sodium_malloc:unprotected_size <- $r14
	#DEBUG_VALUE: _sodium_malloc:unprotected_ptr <- $r15
	#DEBUG_VALUE: _sodium_malloc:canary_ptr <- $r12
	#DEBUG_VALUE: _sodium_malloc:user_ptr <- [DW_OP_plus_uconst 16, DW_OP_stack_value] $r12
	#DEBUG_VALUE: _unprotected_ptr_from_user_ptr:ptr <- [DW_OP_plus_uconst 16, DW_OP_stack_value] $r12
	#DEBUG_VALUE: _unprotected_ptr_from_user_ptr:canary_ptr <- $r12
	#DEBUG_VALUE: _unprotected_ptr_from_user_ptr:unprotected_ptr_u <- $rax
	#DEBUG_VALUE: _sodium_malloc:user_ptr <- undef
	#DEBUG_VALUE: _unprotected_ptr_from_user_ptr:ptr <- undef
	.loc	1 629 155 is_stmt 1             # sodium/utils.c:629:155 @[ sodium/utils.c:640:16 ]
	cmpq	%rax, %r15
	jne	.LBB14_9
.Ltmp182:
# %bb.6:                                # %_sodium_malloc.exit
	#DEBUG_VALUE: sodium_malloc:size <- $rbx
	.loc	1 0 0 is_stmt 0                 # sodium/utils.c:0
	addq	$16, %r12
.Ltmp183:
	#DEBUG_VALUE: sodium_malloc:ptr <- $r12
	.loc	1 640 38 is_stmt 1              # sodium/utils.c:640:38
	je	.LBB14_7
.Ltmp184:
# %bb.10:
	#DEBUG_VALUE: sodium_malloc:size <- $rbx
	#DEBUG_VALUE: sodium_malloc:ptr <- $r12
	#DEBUG_VALUE: memset:__dest <- $r12
	#DEBUG_VALUE: memset:__ch <- 219
	#DEBUG_VALUE: memset:__len <- $rbx
	.loc	5 59 10                         # /usr/include/x86_64-linux-gnu/bits/string_fortified.h:59:10 @[ sodium/utils.c:643:5 ]
	movq	%r12, %rdi
	movl	$219, %esi
	movq	%rbx, %rdx
	.loc	5 59 10 epilogue_begin is_stmt 0 # /usr/include/x86_64-linux-gnu/bits/string_fortified.h:59:10 @[ sodium/utils.c:643:5 ]
	addq	$8, %rsp
	.cfi_def_cfa_offset 56
	popq	%rbx
.Ltmp185:
	#DEBUG_VALUE: memset:__len <- $rdx
	#DEBUG_VALUE: sodium_malloc:size <- $rdx
	.cfi_def_cfa_offset 48
	popq	%r12
.Ltmp186:
	#DEBUG_VALUE: memset:__dest <- $rdi
	#DEBUG_VALUE: sodium_malloc:ptr <- $rdi
	.cfi_def_cfa_offset 40
	popq	%r13
	.cfi_def_cfa_offset 32
	popq	%r14
	.cfi_def_cfa_offset 24
	popq	%r15
	.cfi_def_cfa_offset 16
	popq	%rbp
	.cfi_def_cfa_offset 8
.Ltmp187:
	jmp	memset@PLT                      # TAILCALL
.Ltmp188:
.LBB14_1:
	.cfi_def_cfa_offset 64
	#DEBUG_VALUE: sodium_malloc:size <- $rdi
	#DEBUG_VALUE: _sodium_malloc:size <- $rdi
	.loc	1 604 11 is_stmt 1              # sodium/utils.c:604:11 @[ sodium/utils.c:640:16 ]
	callq	__errno_location@PLT
.Ltmp189:
	#DEBUG_VALUE: sodium_malloc:size <- [DW_OP_LLVM_entry_value 1] $rdi
	.loc	1 604 32 is_stmt 0              # sodium/utils.c:604:32 @[ sodium/utils.c:640:16 ]
	movl	$12, (%rax)
.Ltmp190:
.LBB14_7:                               # %_sodium_malloc.exit.thread
	#DEBUG_VALUE: sodium_malloc:size <- [DW_OP_LLVM_entry_value 1] $rdi
	.loc	1 646 1 is_stmt 1               # sodium/utils.c:646:1
	xorl	%eax, %eax
	.loc	1 646 1 epilogue_begin is_stmt 0 # sodium/utils.c:646:1
	addq	$8, %rsp
	.cfi_def_cfa_offset 56
	popq	%rbx
	.cfi_def_cfa_offset 48
	popq	%r12
	.cfi_def_cfa_offset 40
	popq	%r13
	.cfi_def_cfa_offset 32
	popq	%r14
	.cfi_def_cfa_offset 24
	popq	%r15
	.cfi_def_cfa_offset 16
	popq	%rbp
	.cfi_def_cfa_offset 8
	retq
.Ltmp191:
.LBB14_8:
	.cfi_def_cfa_offset 64
	#DEBUG_VALUE: sodium_malloc:size <- [DW_OP_LLVM_entry_value 1] $rdi
	.loc	1 0 0                           # sodium/utils.c:0 @[ sodium/utils.c:640:16 ]
	callq	sodium_misuse@PLT
.Ltmp192:
.LBB14_9:
	#DEBUG_VALUE: sodium_malloc:size <- $rbx
	#DEBUG_VALUE: _sodium_malloc:size <- $rbx
	#DEBUG_VALUE: _sodium_malloc:size_with_canary <- [DW_OP_plus_uconst 16, DW_OP_stack_value] $rbx
	#DEBUG_VALUE: _sodium_malloc:unprotected_size <- $r14
	#DEBUG_VALUE: _sodium_malloc:unprotected_ptr <- $r15
	#DEBUG_VALUE: _sodium_malloc:canary_ptr <- $r12
	.loc	1 629 182 is_stmt 1             # sodium/utils.c:629:182 @[ sodium/utils.c:640:16 ]
	leaq	.L.str(%rip), %rdi
	leaq	.L.str.1(%rip), %rsi
	leaq	.L__PRETTY_FUNCTION__._sodium_malloc(%rip), %rcx
	movl	$629, %edx                      # imm = 0x275
	callq	__assert_fail@PLT
.Ltmp193:
.Lfunc_end14:
	.size	sodium_malloc, .Lfunc_end14-sodium_malloc
	.cfi_endproc
	.file	10 "/usr/include/x86_64-linux-gnu/bits" "types.h"
	.file	11 "/usr/include" "errno.h"
	.file	12 "/usr/include" "assert.h"
                                        # -- End function
	.globl	sodium_allocarray               # -- Begin function sodium_allocarray
	.p2align	4
	.type	sodium_allocarray,@function
sodium_allocarray:                      # @sodium_allocarray
.Lfunc_begin15:
	.cfi_startproc
# %bb.0:
	#DEBUG_VALUE: sodium_allocarray:count <- $rdi
	#DEBUG_VALUE: sodium_allocarray:size <- $rsi
	.loc	1 651 15 prologue_end           # sodium/utils.c:651:15
	testq	%rdi, %rdi
	.loc	1 651 29 is_stmt 0              # sodium/utils.c:651:29
	je	.LBB15_3
.Ltmp194:
# %bb.1:
	#DEBUG_VALUE: sodium_allocarray:count <- $rdi
	#DEBUG_VALUE: sodium_allocarray:size <- $rsi
	.loc	1 651 74                        # sodium/utils.c:651:74
	movq	$-1, %rax
	xorl	%edx, %edx
	divq	%rdi
	.loc	1 651 37                        # sodium/utils.c:651:37
	cmpq	%rax, %rsi
	.loc	1 651 29                        # sodium/utils.c:651:29
	jae	.LBB15_2
.Ltmp195:
.LBB15_3:
	#DEBUG_VALUE: sodium_allocarray:count <- $rdi
	#DEBUG_VALUE: sodium_allocarray:size <- $rsi
	.loc	1 655 32 is_stmt 1              # sodium/utils.c:655:32
	imulq	%rdi, %rsi
.Ltmp196:
	#DEBUG_VALUE: sodium_allocarray:size <- [DW_OP_LLVM_entry_value 1] $rsi
	.loc	1 655 12 is_stmt 0              # sodium/utils.c:655:12
	movq	%rsi, %rdi
.Ltmp197:
	#DEBUG_VALUE: sodium_allocarray:count <- [DW_OP_LLVM_entry_value 1] $rdi
	jmp	sodium_malloc                   # TAILCALL
.Ltmp198:
.LBB15_2:
	#DEBUG_VALUE: sodium_allocarray:count <- $rdi
	#DEBUG_VALUE: sodium_allocarray:size <- $rsi
	pushq	%rax
	.cfi_def_cfa_offset 16
.Ltmp199:
	.loc	1 652 11 is_stmt 1              # sodium/utils.c:652:11
	callq	__errno_location@PLT
.Ltmp200:
	#DEBUG_VALUE: sodium_allocarray:size <- [DW_OP_LLVM_entry_value 1] $rsi
	#DEBUG_VALUE: sodium_allocarray:count <- [DW_OP_LLVM_entry_value 1] $rdi
	.loc	1 652 32 is_stmt 0              # sodium/utils.c:652:32
	movl	$12, (%rax)
.Ltmp201:
	.loc	1 656 1 is_stmt 1               # sodium/utils.c:656:1
	xorl	%eax, %eax
	.loc	1 656 1 epilogue_begin is_stmt 0 # sodium/utils.c:656:1
	popq	%rcx
	.cfi_def_cfa_offset 8
	retq
.Ltmp202:
.Lfunc_end15:
	.size	sodium_allocarray, .Lfunc_end15-sodium_allocarray
	.cfi_endproc
                                        # -- End function
	.globl	sodium_free                     # -- Begin function sodium_free
	.p2align	4
	.type	sodium_free,@function
sodium_free:                            # @sodium_free
.Lfunc_begin16:
	.loc	1 667 0 is_stmt 1               # sodium/utils.c:667:0
	.cfi_startproc
# %bb.0:
	#DEBUG_VALUE: sodium_free:ptr <- $rdi
	pushq	%rbp
	.cfi_def_cfa_offset 16
	pushq	%r15
	.cfi_def_cfa_offset 24
	pushq	%r14
	.cfi_def_cfa_offset 32
	pushq	%r13
	.cfi_def_cfa_offset 40
	pushq	%r12
	.cfi_def_cfa_offset 48
	pushq	%rbx
	.cfi_def_cfa_offset 56
	pushq	%rax
	.cfi_def_cfa_offset 64
	.cfi_offset %rbx, -56
	.cfi_offset %r12, -48
	.cfi_offset %r13, -40
	.cfi_offset %r14, -32
	.cfi_offset %r15, -24
	.cfi_offset %rbp, -16
	.loc	1 674 13 prologue_end           # sodium/utils.c:674:13
	testq	%rdi, %rdi
	je	.LBB16_4
.Ltmp203:
# %bb.1:
	#DEBUG_VALUE: sodium_free:ptr <- $rdi
	.loc	1 0 13 is_stmt 0                # sodium/utils.c:0:13
	movq	%rdi, %r13
	.loc	1 677 42 is_stmt 1              # sodium/utils.c:677:42
	leaq	-16(%rdi), %rbp
.Ltmp204:
	#DEBUG_VALUE: sodium_free:canary_ptr <- $rbp
	#DEBUG_VALUE: _unprotected_ptr_from_user_ptr:canary_ptr <- $rbp
	#DEBUG_VALUE: _unprotected_ptr_from_user_ptr:ptr <- $r13
	.loc	1 575 17                        # sodium/utils.c:575:17 @[ sodium/utils.c:678:23 ]
	movq	page_size(%rip), %rax
.Ltmp205:
	#DEBUG_VALUE: _unprotected_ptr_from_user_ptr:page_mask <- [DW_OP_constu 1, DW_OP_minus, DW_OP_stack_value] $rax
	.loc	1 576 63                        # sodium/utils.c:576:63 @[ sodium/utils.c:678:23 ]
	movq	%rax, %rbx
	negq	%rbx
	.loc	1 576 49 is_stmt 0              # sodium/utils.c:576:49 @[ sodium/utils.c:678:23 ]
	andq	%rbp, %rbx
.Ltmp206:
	#DEBUG_VALUE: _unprotected_ptr_from_user_ptr:unprotected_ptr_u <- $rbx
	.loc	1 577 40 is_stmt 1              # sodium/utils.c:577:40 @[ sodium/utils.c:678:23 ]
	leaq	(%rax,%rax), %rcx
	.loc	1 577 27 is_stmt 0              # sodium/utils.c:577:27 @[ sodium/utils.c:678:23 ]
	movq	%rbx, %r14
	subq	%rcx, %r14
	jbe	.LBB16_5
.Ltmp207:
# %bb.2:                                # %_unprotected_ptr_from_user_ptr.exit
	#DEBUG_VALUE: sodium_free:ptr <- $r13
	#DEBUG_VALUE: sodium_free:canary_ptr <- $rbp
	#DEBUG_VALUE: sodium_free:unprotected_ptr <- $rbx
	#DEBUG_VALUE: sodium_free:base_ptr <- undef
	#DEBUG_VALUE: memcpy:__src <- undef
	#DEBUG_VALUE: _mprotect_readwrite:ptr <- undef
	#DEBUG_VALUE: memcpy:__dest <- undef
	#DEBUG_VALUE: memcpy:__len <- 8
	.loc	5 29 10 is_stmt 1               # /usr/include/x86_64-linux-gnu/bits/string_fortified.h:29:10 @[ sodium/utils.c:680:5 ]
	movq	(%r14), %r12
.Ltmp208:
	#DEBUG_VALUE: sodium_free:unprotected_size <- $r12
	.loc	1 681 40                        # sodium/utils.c:681:40
	leaq	(%rax,%rax,2), %r15
	.loc	1 681 59 is_stmt 0              # sodium/utils.c:681:59
	addq	%r12, %r15
.Ltmp209:
	#DEBUG_VALUE: sodium_free:total_size <- $r15
	#DEBUG_VALUE: _mprotect_readwrite:size <- $r15
	.loc	1 495 12 is_stmt 1              # sodium/utils.c:495:12 @[ sodium/utils.c:682:5 ]
	movq	%r14, %rdi
	movq	%r15, %rsi
	movl	$3, %edx
	callq	mprotect@PLT
.Ltmp210:
	#DEBUG_VALUE: sodium_memcmp:d <- [DW_OP_plus_uconst 7, DW_OP_deref] $rsp
	#DEBUG_VALUE: sodium_memcmp:b1_ <- $rbp
	#DEBUG_VALUE: sodium_memcmp:len <- 16
	#DEBUG_VALUE: sodium_memcmp:b1 <- $rbp
	.loc	1 196 28                        # sodium/utils.c:196:28 @[ sodium/utils.c:683:9 ]
	movb	$0, 7(%rsp)
	.loc	1 199 5                         # sodium/utils.c:199:5 @[ sodium/utils.c:683:9 ]
	leaq	canary(%rip), %rsi
.Ltmp211:
	#DEBUG_VALUE: sodium_memcmp:b2_ <- $rsi
	#DEBUG_VALUE: sodium_memcmp:b2 <- $rsi
	movl	$16, %edx
	movq	%rbp, %rdi
	callq	_sodium_dummy_symbol_to_prevent_memcmp_lto
.Ltmp212:
	#DEBUG_VALUE: sodium_memcmp:i <- 0
	.loc	1 202 22                        # sodium/utils.c:202:22 @[ sodium/utils.c:683:9 ]
	movzbl	canary(%rip), %eax
	.loc	1 202 20 is_stmt 0              # sodium/utils.c:202:20 @[ sodium/utils.c:683:9 ]
	xorb	-16(%r13), %al
	.loc	1 202 11                        # sodium/utils.c:202:11 @[ sodium/utils.c:683:9 ]
	orb	%al, 7(%rsp)
.Ltmp213:
	#DEBUG_VALUE: sodium_memcmp:i <- 1
	#DEBUG_VALUE: sodium_memcmp:d <- undef
	.loc	1 202 22                        # sodium/utils.c:202:22 @[ sodium/utils.c:683:9 ]
	movzbl	canary+1(%rip), %eax
	.loc	1 202 20                        # sodium/utils.c:202:20 @[ sodium/utils.c:683:9 ]
	xorb	-15(%r13), %al
	.loc	1 202 11                        # sodium/utils.c:202:11 @[ sodium/utils.c:683:9 ]
	orb	%al, 7(%rsp)
.Ltmp214:
	#DEBUG_VALUE: sodium_memcmp:i <- 2
	.loc	1 202 22                        # sodium/utils.c:202:22 @[ sodium/utils.c:683:9 ]
	movzbl	canary+2(%rip), %eax
	.loc	1 202 20                        # sodium/utils.c:202:20 @[ sodium/utils.c:683:9 ]
	xorb	-14(%r13), %al
	.loc	1 202 11                        # sodium/utils.c:202:11 @[ sodium/utils.c:683:9 ]
	orb	%al, 7(%rsp)
.Ltmp215:
	#DEBUG_VALUE: sodium_memcmp:i <- 3
	.loc	1 202 22                        # sodium/utils.c:202:22 @[ sodium/utils.c:683:9 ]
	movzbl	canary+3(%rip), %eax
	.loc	1 202 20                        # sodium/utils.c:202:20 @[ sodium/utils.c:683:9 ]
	xorb	-13(%r13), %al
	.loc	1 202 11                        # sodium/utils.c:202:11 @[ sodium/utils.c:683:9 ]
	orb	%al, 7(%rsp)
.Ltmp216:
	#DEBUG_VALUE: sodium_memcmp:i <- 4
	.loc	1 202 22                        # sodium/utils.c:202:22 @[ sodium/utils.c:683:9 ]
	movzbl	canary+4(%rip), %eax
	.loc	1 202 20                        # sodium/utils.c:202:20 @[ sodium/utils.c:683:9 ]
	xorb	-12(%r13), %al
	.loc	1 202 11                        # sodium/utils.c:202:11 @[ sodium/utils.c:683:9 ]
	orb	%al, 7(%rsp)
.Ltmp217:
	#DEBUG_VALUE: sodium_memcmp:i <- 5
	.loc	1 202 22                        # sodium/utils.c:202:22 @[ sodium/utils.c:683:9 ]
	movzbl	canary+5(%rip), %eax
	.loc	1 202 20                        # sodium/utils.c:202:20 @[ sodium/utils.c:683:9 ]
	xorb	-11(%r13), %al
	.loc	1 202 11                        # sodium/utils.c:202:11 @[ sodium/utils.c:683:9 ]
	orb	%al, 7(%rsp)
.Ltmp218:
	#DEBUG_VALUE: sodium_memcmp:i <- 6
	.loc	1 202 22                        # sodium/utils.c:202:22 @[ sodium/utils.c:683:9 ]
	movzbl	canary+6(%rip), %eax
	.loc	1 202 20                        # sodium/utils.c:202:20 @[ sodium/utils.c:683:9 ]
	xorb	-10(%r13), %al
	.loc	1 202 11                        # sodium/utils.c:202:11 @[ sodium/utils.c:683:9 ]
	orb	%al, 7(%rsp)
.Ltmp219:
	#DEBUG_VALUE: sodium_memcmp:i <- 7
	.loc	1 202 22                        # sodium/utils.c:202:22 @[ sodium/utils.c:683:9 ]
	movzbl	canary+7(%rip), %eax
	.loc	1 202 20                        # sodium/utils.c:202:20 @[ sodium/utils.c:683:9 ]
	xorb	-9(%r13), %al
	.loc	1 202 11                        # sodium/utils.c:202:11 @[ sodium/utils.c:683:9 ]
	orb	%al, 7(%rsp)
.Ltmp220:
	#DEBUG_VALUE: sodium_memcmp:i <- 8
	.loc	1 202 22                        # sodium/utils.c:202:22 @[ sodium/utils.c:683:9 ]
	movzbl	canary+8(%rip), %eax
	.loc	1 202 20                        # sodium/utils.c:202:20 @[ sodium/utils.c:683:9 ]
	xorb	-8(%r13), %al
	.loc	1 202 11                        # sodium/utils.c:202:11 @[ sodium/utils.c:683:9 ]
	orb	%al, 7(%rsp)
.Ltmp221:
	#DEBUG_VALUE: sodium_memcmp:i <- 9
	.loc	1 202 22                        # sodium/utils.c:202:22 @[ sodium/utils.c:683:9 ]
	movzbl	canary+9(%rip), %eax
	.loc	1 202 20                        # sodium/utils.c:202:20 @[ sodium/utils.c:683:9 ]
	xorb	-7(%r13), %al
	.loc	1 202 11                        # sodium/utils.c:202:11 @[ sodium/utils.c:683:9 ]
	orb	%al, 7(%rsp)
.Ltmp222:
	#DEBUG_VALUE: sodium_memcmp:i <- 10
	.loc	1 202 22                        # sodium/utils.c:202:22 @[ sodium/utils.c:683:9 ]
	movzbl	canary+10(%rip), %eax
	.loc	1 202 20                        # sodium/utils.c:202:20 @[ sodium/utils.c:683:9 ]
	xorb	-6(%r13), %al
	.loc	1 202 11                        # sodium/utils.c:202:11 @[ sodium/utils.c:683:9 ]
	orb	%al, 7(%rsp)
.Ltmp223:
	#DEBUG_VALUE: sodium_memcmp:i <- 11
	.loc	1 202 22                        # sodium/utils.c:202:22 @[ sodium/utils.c:683:9 ]
	movzbl	canary+11(%rip), %eax
	.loc	1 202 20                        # sodium/utils.c:202:20 @[ sodium/utils.c:683:9 ]
	xorb	-5(%r13), %al
	.loc	1 202 11                        # sodium/utils.c:202:11 @[ sodium/utils.c:683:9 ]
	orb	%al, 7(%rsp)
.Ltmp224:
	#DEBUG_VALUE: sodium_memcmp:i <- 12
	.loc	1 202 22                        # sodium/utils.c:202:22 @[ sodium/utils.c:683:9 ]
	movzbl	canary+12(%rip), %eax
	.loc	1 202 20                        # sodium/utils.c:202:20 @[ sodium/utils.c:683:9 ]
	xorb	-4(%r13), %al
	.loc	1 202 11                        # sodium/utils.c:202:11 @[ sodium/utils.c:683:9 ]
	orb	%al, 7(%rsp)
.Ltmp225:
	#DEBUG_VALUE: sodium_memcmp:i <- 13
	.loc	1 202 22                        # sodium/utils.c:202:22 @[ sodium/utils.c:683:9 ]
	movzbl	canary+13(%rip), %eax
	.loc	1 202 20                        # sodium/utils.c:202:20 @[ sodium/utils.c:683:9 ]
	xorb	-3(%r13), %al
	.loc	1 202 11                        # sodium/utils.c:202:11 @[ sodium/utils.c:683:9 ]
	orb	%al, 7(%rsp)
.Ltmp226:
	#DEBUG_VALUE: sodium_memcmp:i <- 14
	.loc	1 202 22                        # sodium/utils.c:202:22 @[ sodium/utils.c:683:9 ]
	movzbl	canary+14(%rip), %eax
	.loc	1 202 20                        # sodium/utils.c:202:20 @[ sodium/utils.c:683:9 ]
	xorb	-2(%r13), %al
	.loc	1 202 11                        # sodium/utils.c:202:11 @[ sodium/utils.c:683:9 ]
	orb	%al, 7(%rsp)
.Ltmp227:
	#DEBUG_VALUE: sodium_memcmp:i <- 15
	.loc	1 202 22                        # sodium/utils.c:202:22 @[ sodium/utils.c:683:9 ]
	movzbl	canary+15(%rip), %eax
	.loc	1 202 20                        # sodium/utils.c:202:20 @[ sodium/utils.c:683:9 ]
	xorb	-1(%r13), %al
	.loc	1 202 11                        # sodium/utils.c:202:11 @[ sodium/utils.c:683:9 ]
	orb	%al, 7(%rsp)
.Ltmp228:
	#DEBUG_VALUE: sodium_memcmp:d <- [DW_OP_plus_uconst 7, DW_OP_deref] $rsp
	#DEBUG_VALUE: sodium_memcmp:i <- 16
	.loc	1 204 19 is_stmt 1              # sodium/utils.c:204:19 @[ sodium/utils.c:683:9 ]
	movzbl	7(%rsp), %eax
	.loc	1 204 21 is_stmt 0              # sodium/utils.c:204:21 @[ sodium/utils.c:683:9 ]
	decl	%eax
.Ltmp229:
	.loc	1 683 58 is_stmt 1              # sodium/utils.c:683:58
	testl	$256, %eax                      # imm = 0x100
	je	.LBB16_6
.Ltmp230:
# %bb.3:
	#DEBUG_VALUE: sodium_free:ptr <- $r13
	#DEBUG_VALUE: sodium_free:canary_ptr <- $rbp
	#DEBUG_VALUE: sodium_free:unprotected_ptr <- $rbx
	#DEBUG_VALUE: sodium_free:unprotected_size <- $r12
	#DEBUG_VALUE: sodium_free:total_size <- $r15
	#DEBUG_VALUE: sodium_munlock:len <- $r12
	#DEBUG_VALUE: sodium_memzero:len <- $r12
	#DEBUG_VALUE: explicit_bzero:__len <- $r12
	#DEBUG_VALUE: sodium_munlock:addr <- $rbx
	#DEBUG_VALUE: sodium_memzero:pnt <- $rbx
	#DEBUG_VALUE: explicit_bzero:__dest <- $rbx
	.loc	5 72 3                          # /usr/include/x86_64-linux-gnu/bits/string_fortified.h:72:3 @[ sodium/utils.c:132:5 @[ sodium/utils.c:449:5 @[ sodium/utils.c:692:12 ] ] ]
	movq	%rbx, %rdi
	movq	%r12, %rsi
	movq	$-1, %rdx
	callq	__explicit_bzero_chk@PLT
.Ltmp231:
	.loc	1 451 12                        # sodium/utils.c:451:12 @[ sodium/utils.c:692:12 ]
	movq	%rbx, %rdi
	movq	%r12, %rsi
	movl	$17, %edx
	callq	madvise@PLT
.Ltmp232:
	.loc	1 454 12                        # sodium/utils.c:454:12 @[ sodium/utils.c:692:12 ]
	movq	%rbx, %rdi
	movq	%r12, %rsi
	callq	munlock@PLT
.Ltmp233:
	#DEBUG_VALUE: _free_aligned:ptr <- undef
	#DEBUG_VALUE: _free_aligned:size <- $r15
	.loc	1 557 12                        # sodium/utils.c:557:12 @[ sodium/utils.c:693:5 ]
	movq	%r14, %rdi
	movq	%r15, %rsi
	.loc	1 557 12 epilogue_begin is_stmt 0 # sodium/utils.c:557:12 @[ sodium/utils.c:693:5 ]
	addq	$8, %rsp
	.cfi_def_cfa_offset 56
	popq	%rbx
.Ltmp234:
	.cfi_def_cfa_offset 48
	popq	%r12
.Ltmp235:
	.cfi_def_cfa_offset 40
	popq	%r13
.Ltmp236:
	#DEBUG_VALUE: sodium_free:ptr <- [DW_OP_LLVM_entry_value 1] $rdi
	.cfi_def_cfa_offset 32
	popq	%r14
	.cfi_def_cfa_offset 24
	popq	%r15
.Ltmp237:
	#DEBUG_VALUE: _free_aligned:size <- $rsi
	#DEBUG_VALUE: sodium_free:total_size <- $rsi
	.cfi_def_cfa_offset 16
	popq	%rbp
.Ltmp238:
	.cfi_def_cfa_offset 8
	jmp	munmap@PLT                      # TAILCALL
.Ltmp239:
.LBB16_4:
	.cfi_def_cfa_offset 64
	#DEBUG_VALUE: sodium_free:ptr <- $rdi
	.loc	1 694 1 epilogue_begin is_stmt 1 # sodium/utils.c:694:1
	addq	$8, %rsp
	.cfi_def_cfa_offset 56
	popq	%rbx
	.cfi_def_cfa_offset 48
	popq	%r12
	.cfi_def_cfa_offset 40
	popq	%r13
	.cfi_def_cfa_offset 32
	popq	%r14
	.cfi_def_cfa_offset 24
	popq	%r15
	.cfi_def_cfa_offset 16
	popq	%rbp
	.cfi_def_cfa_offset 8
	retq
.Ltmp240:
.LBB16_5:
	.cfi_def_cfa_offset 64
	#DEBUG_VALUE: sodium_free:ptr <- $r13
	#DEBUG_VALUE: sodium_free:canary_ptr <- $rbp
	#DEBUG_VALUE: _unprotected_ptr_from_user_ptr:canary_ptr <- $rbp
	#DEBUG_VALUE: _unprotected_ptr_from_user_ptr:ptr <- $r13
	#DEBUG_VALUE: _unprotected_ptr_from_user_ptr:page_mask <- [DW_OP_constu 1, DW_OP_minus, DW_OP_stack_value] $rax
	#DEBUG_VALUE: _unprotected_ptr_from_user_ptr:unprotected_ptr_u <- $rbx
	.loc	1 578 9                         # sodium/utils.c:578:9 @[ sodium/utils.c:678:23 ]
	callq	sodium_misuse@PLT
.Ltmp241:
.LBB16_6:
	#DEBUG_VALUE: sodium_free:ptr <- $r13
	#DEBUG_VALUE: sodium_free:canary_ptr <- $rbp
	#DEBUG_VALUE: sodium_free:unprotected_ptr <- $rbx
	#DEBUG_VALUE: sodium_free:unprotected_size <- $r12
	#DEBUG_VALUE: sodium_free:total_size <- $r15
	.loc	1 684 9                         # sodium/utils.c:684:9
	callq	_out_of_bounds
.Ltmp242:
.Lfunc_end16:
	.size	sodium_free, .Lfunc_end16-sodium_free
	.cfi_endproc
                                        # -- End function
	.section	.text.unlikely.,"ax",@progbits
	.p2align	4                               # -- Begin function _out_of_bounds
	.type	_out_of_bounds,@function
_out_of_bounds:                         # @_out_of_bounds
.Lfunc_begin17:
	.loc	1 509 0                         # sodium/utils.c:509:0
	.cfi_startproc
# %bb.0:
	pushq	%rax
	.cfi_def_cfa_offset 16
.Ltmp243:
	.loc	1 514 5 prologue_end            # sodium/utils.c:514:5
	movl	$11, %edi
	callq	raise@PLT
.Ltmp244:
	.loc	1 519 5                         # sodium/utils.c:519:5
	callq	abort@PLT
.Ltmp245:
.Lfunc_end17:
	.size	_out_of_bounds, .Lfunc_end17-_out_of_bounds
	.cfi_endproc
	.file	13 "/usr/include" "signal.h"
	.file	14 "/usr/include" "stdlib.h"
                                        # -- End function
	.text
	.globl	sodium_mprotect_noaccess        # -- Begin function sodium_mprotect_noaccess
	.p2align	4
	.type	sodium_mprotect_noaccess,@function
sodium_mprotect_noaccess:               # @sodium_mprotect_noaccess
.Lfunc_begin18:
	.loc	1 724 0                         # sodium/utils.c:724:0
	.cfi_startproc
# %bb.0:
	#DEBUG_VALUE: sodium_mprotect_noaccess:ptr <- $rdi
	#DEBUG_VALUE: _sodium_mprotect:ptr <- $rdi
	#DEBUG_VALUE: _unprotected_ptr_from_user_ptr:ptr <- $rdi
	movq	%rdi, %rax
.Ltmp246:
	.loc	1 574 42 prologue_end           # sodium/utils.c:574:42 @[ sodium/utils.c:714:23 @[ sodium/utils.c:725:12 ] ]
	addq	$-16, %rax
.Ltmp247:
	#DEBUG_VALUE: _unprotected_ptr_from_user_ptr:canary_ptr <- $rax
	.loc	1 575 17                        # sodium/utils.c:575:17 @[ sodium/utils.c:714:23 @[ sodium/utils.c:725:12 ] ]
	movq	page_size(%rip), %rcx
.Ltmp248:
	#DEBUG_VALUE: _unprotected_ptr_from_user_ptr:page_mask <- [DW_OP_constu 1, DW_OP_minus, DW_OP_stack_value] $rcx
	.loc	1 576 63                        # sodium/utils.c:576:63 @[ sodium/utils.c:714:23 @[ sodium/utils.c:725:12 ] ]
	movq	%rcx, %rdi
.Ltmp249:
	#DEBUG_VALUE: sodium_mprotect_noaccess:ptr <- [DW_OP_LLVM_entry_value 1] $rdi
	negq	%rdi
	.loc	1 576 49 is_stmt 0              # sodium/utils.c:576:49 @[ sodium/utils.c:714:23 @[ sodium/utils.c:725:12 ] ]
	andq	%rax, %rdi
.Ltmp250:
	#DEBUG_VALUE: _unprotected_ptr_from_user_ptr:unprotected_ptr_u <- $rdi
	.loc	1 577 40 is_stmt 1              # sodium/utils.c:577:40 @[ sodium/utils.c:714:23 @[ sodium/utils.c:725:12 ] ]
	addq	%rcx, %rcx
.Ltmp251:
	.loc	1 577 27 is_stmt 0              # sodium/utils.c:577:27 @[ sodium/utils.c:714:23 @[ sodium/utils.c:725:12 ] ]
	cmpq	%rcx, %rdi
	jbe	.LBB18_1
.Ltmp252:
# %bb.2:                                # %_sodium_mprotect.exit
	#DEBUG_VALUE: sodium_mprotect_noaccess:ptr <- [DW_OP_LLVM_entry_value 1] $rdi
	#DEBUG_VALUE: _sodium_mprotect:unprotected_ptr <- $rdi
	.loc	1 715 32 is_stmt 1              # sodium/utils.c:715:32 @[ sodium/utils.c:725:12 ]
	negq	%rcx
.Ltmp253:
	#DEBUG_VALUE: memcpy:__dest <- undef
	#DEBUG_VALUE: memcpy:__len <- 8
	#DEBUG_VALUE: _sodium_mprotect:base_ptr <- undef
	#DEBUG_VALUE: memcpy:__src <- undef
	.loc	5 29 10                         # /usr/include/x86_64-linux-gnu/bits/string_fortified.h:29:10 @[ sodium/utils.c:716:5 @[ sodium/utils.c:725:12 ] ]
	movq	(%rdi,%rcx), %rsi
.Ltmp254:
	#DEBUG_VALUE: _mprotect_noaccess:size <- $rsi
	#DEBUG_VALUE: _mprotect_noaccess:ptr <- $rdi
	.loc	1 467 12                        # sodium/utils.c:467:12 @[ sodium/utils.c:718:12 @[ sodium/utils.c:725:12 ] ]
	xorl	%edx, %edx
.Ltmp255:
	jmp	mprotect@PLT                    # TAILCALL
.Ltmp256:
.LBB18_1:
	#DEBUG_VALUE: sodium_mprotect_noaccess:ptr <- [DW_OP_LLVM_entry_value 1] $rdi
	#DEBUG_VALUE: _unprotected_ptr_from_user_ptr:canary_ptr <- $rax
	#DEBUG_VALUE: _unprotected_ptr_from_user_ptr:unprotected_ptr_u <- $rdi
	pushq	%rax
	.cfi_def_cfa_offset 16
.Ltmp257:
	.loc	1 578 9                         # sodium/utils.c:578:9 @[ sodium/utils.c:714:23 @[ sodium/utils.c:725:12 ] ]
	callq	sodium_misuse@PLT
.Ltmp258:
.Lfunc_end18:
	.size	sodium_mprotect_noaccess, .Lfunc_end18-sodium_mprotect_noaccess
	.cfi_endproc
                                        # -- End function
	.globl	sodium_mprotect_readonly        # -- Begin function sodium_mprotect_readonly
	.p2align	4
	.type	sodium_mprotect_readonly,@function
sodium_mprotect_readonly:               # @sodium_mprotect_readonly
.Lfunc_begin19:
	.loc	1 730 0                         # sodium/utils.c:730:0
	.cfi_startproc
# %bb.0:
	#DEBUG_VALUE: sodium_mprotect_readonly:ptr <- $rdi
	#DEBUG_VALUE: _sodium_mprotect:ptr <- $rdi
	#DEBUG_VALUE: _unprotected_ptr_from_user_ptr:ptr <- $rdi
	movq	%rdi, %rax
.Ltmp259:
	.loc	1 574 42 prologue_end           # sodium/utils.c:574:42 @[ sodium/utils.c:714:23 @[ sodium/utils.c:731:12 ] ]
	addq	$-16, %rax
.Ltmp260:
	#DEBUG_VALUE: _unprotected_ptr_from_user_ptr:canary_ptr <- $rax
	.loc	1 575 17                        # sodium/utils.c:575:17 @[ sodium/utils.c:714:23 @[ sodium/utils.c:731:12 ] ]
	movq	page_size(%rip), %rcx
.Ltmp261:
	#DEBUG_VALUE: _unprotected_ptr_from_user_ptr:page_mask <- [DW_OP_constu 1, DW_OP_minus, DW_OP_stack_value] $rcx
	.loc	1 576 63                        # sodium/utils.c:576:63 @[ sodium/utils.c:714:23 @[ sodium/utils.c:731:12 ] ]
	movq	%rcx, %rdi
.Ltmp262:
	#DEBUG_VALUE: sodium_mprotect_readonly:ptr <- [DW_OP_LLVM_entry_value 1] $rdi
	negq	%rdi
	.loc	1 576 49 is_stmt 0              # sodium/utils.c:576:49 @[ sodium/utils.c:714:23 @[ sodium/utils.c:731:12 ] ]
	andq	%rax, %rdi
.Ltmp263:
	#DEBUG_VALUE: _unprotected_ptr_from_user_ptr:unprotected_ptr_u <- $rdi
	.loc	1 577 40 is_stmt 1              # sodium/utils.c:577:40 @[ sodium/utils.c:714:23 @[ sodium/utils.c:731:12 ] ]
	addq	%rcx, %rcx
.Ltmp264:
	.loc	1 577 27 is_stmt 0              # sodium/utils.c:577:27 @[ sodium/utils.c:714:23 @[ sodium/utils.c:731:12 ] ]
	cmpq	%rcx, %rdi
	jbe	.LBB19_1
.Ltmp265:
# %bb.2:                                # %_sodium_mprotect.exit
	#DEBUG_VALUE: sodium_mprotect_readonly:ptr <- [DW_OP_LLVM_entry_value 1] $rdi
	#DEBUG_VALUE: _sodium_mprotect:unprotected_ptr <- $rdi
	.loc	1 715 32 is_stmt 1              # sodium/utils.c:715:32 @[ sodium/utils.c:731:12 ]
	negq	%rcx
.Ltmp266:
	#DEBUG_VALUE: memcpy:__dest <- undef
	#DEBUG_VALUE: memcpy:__len <- 8
	#DEBUG_VALUE: _sodium_mprotect:base_ptr <- undef
	#DEBUG_VALUE: memcpy:__src <- undef
	.loc	5 29 10                         # /usr/include/x86_64-linux-gnu/bits/string_fortified.h:29:10 @[ sodium/utils.c:716:5 @[ sodium/utils.c:731:12 ] ]
	movq	(%rdi,%rcx), %rsi
.Ltmp267:
	#DEBUG_VALUE: _mprotect_readonly:size <- $rsi
	#DEBUG_VALUE: _mprotect_readonly:ptr <- $rdi
	.loc	1 481 12                        # sodium/utils.c:481:12 @[ sodium/utils.c:718:12 @[ sodium/utils.c:731:12 ] ]
	movl	$1, %edx
.Ltmp268:
	jmp	mprotect@PLT                    # TAILCALL
.Ltmp269:
.LBB19_1:
	#DEBUG_VALUE: sodium_mprotect_readonly:ptr <- [DW_OP_LLVM_entry_value 1] $rdi
	#DEBUG_VALUE: _unprotected_ptr_from_user_ptr:canary_ptr <- $rax
	#DEBUG_VALUE: _unprotected_ptr_from_user_ptr:unprotected_ptr_u <- $rdi
	pushq	%rax
	.cfi_def_cfa_offset 16
.Ltmp270:
	.loc	1 578 9                         # sodium/utils.c:578:9 @[ sodium/utils.c:714:23 @[ sodium/utils.c:731:12 ] ]
	callq	sodium_misuse@PLT
.Ltmp271:
.Lfunc_end19:
	.size	sodium_mprotect_readonly, .Lfunc_end19-sodium_mprotect_readonly
	.cfi_endproc
                                        # -- End function
	.globl	sodium_mprotect_readwrite       # -- Begin function sodium_mprotect_readwrite
	.p2align	4
	.type	sodium_mprotect_readwrite,@function
sodium_mprotect_readwrite:              # @sodium_mprotect_readwrite
.Lfunc_begin20:
	.loc	1 736 0                         # sodium/utils.c:736:0
	.cfi_startproc
# %bb.0:
	#DEBUG_VALUE: sodium_mprotect_readwrite:ptr <- $rdi
	#DEBUG_VALUE: _sodium_mprotect:ptr <- $rdi
	#DEBUG_VALUE: _unprotected_ptr_from_user_ptr:ptr <- $rdi
	movq	%rdi, %rax
.Ltmp272:
	.loc	1 574 42 prologue_end           # sodium/utils.c:574:42 @[ sodium/utils.c:714:23 @[ sodium/utils.c:737:12 ] ]
	addq	$-16, %rax
.Ltmp273:
	#DEBUG_VALUE: _unprotected_ptr_from_user_ptr:canary_ptr <- $rax
	.loc	1 575 17                        # sodium/utils.c:575:17 @[ sodium/utils.c:714:23 @[ sodium/utils.c:737:12 ] ]
	movq	page_size(%rip), %rcx
.Ltmp274:
	#DEBUG_VALUE: _unprotected_ptr_from_user_ptr:page_mask <- [DW_OP_constu 1, DW_OP_minus, DW_OP_stack_value] $rcx
	.loc	1 576 63                        # sodium/utils.c:576:63 @[ sodium/utils.c:714:23 @[ sodium/utils.c:737:12 ] ]
	movq	%rcx, %rdi
.Ltmp275:
	#DEBUG_VALUE: sodium_mprotect_readwrite:ptr <- [DW_OP_LLVM_entry_value 1] $rdi
	negq	%rdi
	.loc	1 576 49 is_stmt 0              # sodium/utils.c:576:49 @[ sodium/utils.c:714:23 @[ sodium/utils.c:737:12 ] ]
	andq	%rax, %rdi
.Ltmp276:
	#DEBUG_VALUE: _unprotected_ptr_from_user_ptr:unprotected_ptr_u <- $rdi
	.loc	1 577 40 is_stmt 1              # sodium/utils.c:577:40 @[ sodium/utils.c:714:23 @[ sodium/utils.c:737:12 ] ]
	addq	%rcx, %rcx
.Ltmp277:
	.loc	1 577 27 is_stmt 0              # sodium/utils.c:577:27 @[ sodium/utils.c:714:23 @[ sodium/utils.c:737:12 ] ]
	cmpq	%rcx, %rdi
	jbe	.LBB20_1
.Ltmp278:
# %bb.2:                                # %_sodium_mprotect.exit
	#DEBUG_VALUE: sodium_mprotect_readwrite:ptr <- [DW_OP_LLVM_entry_value 1] $rdi
	#DEBUG_VALUE: _sodium_mprotect:unprotected_ptr <- $rdi
	.loc	1 715 32 is_stmt 1              # sodium/utils.c:715:32 @[ sodium/utils.c:737:12 ]
	negq	%rcx
.Ltmp279:
	#DEBUG_VALUE: memcpy:__dest <- undef
	#DEBUG_VALUE: memcpy:__len <- 8
	#DEBUG_VALUE: _sodium_mprotect:base_ptr <- undef
	#DEBUG_VALUE: memcpy:__src <- undef
	.loc	5 29 10                         # /usr/include/x86_64-linux-gnu/bits/string_fortified.h:29:10 @[ sodium/utils.c:716:5 @[ sodium/utils.c:737:12 ] ]
	movq	(%rdi,%rcx), %rsi
.Ltmp280:
	#DEBUG_VALUE: _mprotect_readwrite:size <- $rsi
	#DEBUG_VALUE: _mprotect_readwrite:ptr <- $rdi
	.loc	1 495 12                        # sodium/utils.c:495:12 @[ sodium/utils.c:718:12 @[ sodium/utils.c:737:12 ] ]
	movl	$3, %edx
.Ltmp281:
	jmp	mprotect@PLT                    # TAILCALL
.Ltmp282:
.LBB20_1:
	#DEBUG_VALUE: sodium_mprotect_readwrite:ptr <- [DW_OP_LLVM_entry_value 1] $rdi
	#DEBUG_VALUE: _unprotected_ptr_from_user_ptr:canary_ptr <- $rax
	#DEBUG_VALUE: _unprotected_ptr_from_user_ptr:unprotected_ptr_u <- $rdi
	pushq	%rax
	.cfi_def_cfa_offset 16
.Ltmp283:
	.loc	1 578 9                         # sodium/utils.c:578:9 @[ sodium/utils.c:714:23 @[ sodium/utils.c:737:12 ] ]
	callq	sodium_misuse@PLT
.Ltmp284:
.Lfunc_end20:
	.size	sodium_mprotect_readwrite, .Lfunc_end20-sodium_mprotect_readwrite
	.cfi_endproc
                                        # -- End function
	.globl	sodium_pad                      # -- Begin function sodium_pad
	.p2align	4
	.type	sodium_pad,@function
sodium_pad:                             # @sodium_pad
.Lfunc_begin21:
	.loc	1 743 0                         # sodium/utils.c:743:0
	.cfi_startproc
# %bb.0:
	#DEBUG_VALUE: sodium_pad:padded_buflen_p <- $rdi
	#DEBUG_VALUE: sodium_pad:buf <- $rsi
	#DEBUG_VALUE: sodium_pad:unpadded_buflen <- $rdx
	#DEBUG_VALUE: sodium_pad:blocksize <- $rcx
	#DEBUG_VALUE: sodium_pad:max_buflen <- $r8
	pushq	%rax
	.cfi_def_cfa_offset 16
	movl	$-1, %r9d
.Ltmp285:
	.loc	1 751 19 prologue_end           # sodium/utils.c:751:19
	testq	%rcx, %rcx
	je	.LBB21_13
.Ltmp286:
# %bb.1:
	#DEBUG_VALUE: sodium_pad:padded_buflen_p <- $rdi
	#DEBUG_VALUE: sodium_pad:buf <- $rsi
	#DEBUG_VALUE: sodium_pad:unpadded_buflen <- $rdx
	#DEBUG_VALUE: sodium_pad:blocksize <- $rcx
	#DEBUG_VALUE: sodium_pad:max_buflen <- $r8
	.loc	1 0 19 is_stmt 0                # sodium/utils.c:0:19
	movq	%rdx, %r10
	.loc	1 754 25 is_stmt 1              # sodium/utils.c:754:25
	leaq	-1(%rcx), %r11
.Ltmp287:
	#DEBUG_VALUE: sodium_pad:xpadlen <- $r11
	.loc	1 0 0 is_stmt 0                 # sodium/utils.c:0
	movq	%rdx, %rax
	.loc	1 755 40 is_stmt 1              # sodium/utils.c:755:40
	testq	%r11, %rcx
	je	.LBB21_2
.Ltmp288:
# %bb.3:
	#DEBUG_VALUE: sodium_pad:padded_buflen_p <- $rdi
	#DEBUG_VALUE: sodium_pad:buf <- $rsi
	#DEBUG_VALUE: sodium_pad:unpadded_buflen <- $rdx
	#DEBUG_VALUE: sodium_pad:blocksize <- $rcx
	#DEBUG_VALUE: sodium_pad:max_buflen <- $r8
	#DEBUG_VALUE: sodium_pad:xpadlen <- $r11
	.loc	1 758 36                        # sodium/utils.c:758:36
	orq	%rcx, %rax
	shrq	$32, %rax
	je	.LBB21_4
.Ltmp289:
# %bb.5:
	#DEBUG_VALUE: sodium_pad:padded_buflen_p <- $rdi
	#DEBUG_VALUE: sodium_pad:buf <- $rsi
	#DEBUG_VALUE: sodium_pad:unpadded_buflen <- $rdx
	#DEBUG_VALUE: sodium_pad:blocksize <- $rcx
	#DEBUG_VALUE: sodium_pad:max_buflen <- $r8
	#DEBUG_VALUE: sodium_pad:xpadlen <- $r11
	movq	%r10, %rax
	xorl	%edx, %edx
.Ltmp290:
	#DEBUG_VALUE: sodium_pad:unpadded_buflen <- $rax
	divq	%rcx
.Ltmp291:
	#DEBUG_VALUE: sodium_pad:unpadded_buflen <- $r10
	.loc	1 0 36 is_stmt 0                # sodium/utils.c:0:36
	jmp	.LBB21_6
.Ltmp292:
.LBB21_2:
	#DEBUG_VALUE: sodium_pad:padded_buflen_p <- $rdi
	#DEBUG_VALUE: sodium_pad:buf <- $rsi
	#DEBUG_VALUE: sodium_pad:unpadded_buflen <- $rdx
	#DEBUG_VALUE: sodium_pad:blocksize <- $rcx
	#DEBUG_VALUE: sodium_pad:max_buflen <- $r8
	#DEBUG_VALUE: sodium_pad:xpadlen <- $r11
	.loc	1 756 17 is_stmt 1              # sodium/utils.c:756:17
	notq	%rax
	andq	%rax, %r11
.Ltmp293:
	#DEBUG_VALUE: sodium_pad:xpadlen <- $r11
	.loc	1 757 5                         # sodium/utils.c:757:5
	jmp	.LBB21_7
.Ltmp294:
.LBB21_4:
	#DEBUG_VALUE: sodium_pad:padded_buflen_p <- $rdi
	#DEBUG_VALUE: sodium_pad:buf <- $rsi
	#DEBUG_VALUE: sodium_pad:unpadded_buflen <- $rdx
	#DEBUG_VALUE: sodium_pad:blocksize <- $rcx
	#DEBUG_VALUE: sodium_pad:max_buflen <- $r8
	#DEBUG_VALUE: sodium_pad:xpadlen <- $r11
	.loc	1 758 36                        # sodium/utils.c:758:36
	movl	%r10d, %eax
	xorl	%edx, %edx
.Ltmp295:
	#DEBUG_VALUE: sodium_pad:unpadded_buflen <- $r10
	divl	%ecx
                                        # kill: def $edx killed $edx def $rdx
.Ltmp296:
.LBB21_6:
	#DEBUG_VALUE: sodium_pad:padded_buflen_p <- $rdi
	#DEBUG_VALUE: sodium_pad:buf <- $rsi
	#DEBUG_VALUE: sodium_pad:unpadded_buflen <- $r10
	#DEBUG_VALUE: sodium_pad:blocksize <- $rcx
	#DEBUG_VALUE: sodium_pad:max_buflen <- $r8
	#DEBUG_VALUE: sodium_pad:xpadlen <- $r11
	.loc	1 758 17 is_stmt 0              # sodium/utils.c:758:17
	subq	%rdx, %r11
.Ltmp297:
	#DEBUG_VALUE: sodium_pad:xpadlen <- $r11
	.loc	1 760 43 is_stmt 1              # sodium/utils.c:760:43
	movq	%r10, %rax
	notq	%rax
.Ltmp298:
.LBB21_7:
	#DEBUG_VALUE: sodium_pad:padded_buflen_p <- $rdi
	#DEBUG_VALUE: sodium_pad:buf <- $rsi
	#DEBUG_VALUE: sodium_pad:unpadded_buflen <- $r10
	#DEBUG_VALUE: sodium_pad:blocksize <- $rcx
	#DEBUG_VALUE: sodium_pad:max_buflen <- $r8
	#DEBUG_VALUE: sodium_pad:xpadlen <- $r11
	#DEBUG_VALUE: sodium_pad:xpadlen <- $r11
	.loc	1 760 61                        # sodium/utils.c:760:61
	cmpq	%rax, %r11
	jae	.LBB21_14
.Ltmp299:
# %bb.8:
	#DEBUG_VALUE: sodium_pad:padded_buflen_p <- $rdi
	#DEBUG_VALUE: sodium_pad:buf <- $rsi
	#DEBUG_VALUE: sodium_pad:unpadded_buflen <- $r10
	#DEBUG_VALUE: sodium_pad:blocksize <- $rcx
	#DEBUG_VALUE: sodium_pad:max_buflen <- $r8
	#DEBUG_VALUE: sodium_pad:xpadlen <- $r11
	.loc	1 763 35                        # sodium/utils.c:763:35
	addq	%r11, %r10
.Ltmp300:
	#DEBUG_VALUE: sodium_pad:unpadded_buflen <- [DW_OP_LLVM_entry_value 1] $rdx
	#DEBUG_VALUE: sodium_pad:xpadded_len <- $r10
	.loc	1 764 21                        # sodium/utils.c:764:21
	cmpq	%r8, %r10
	jae	.LBB21_13
.Ltmp301:
# %bb.9:
	#DEBUG_VALUE: sodium_pad:padded_buflen_p <- $rdi
	#DEBUG_VALUE: sodium_pad:buf <- $rsi
	#DEBUG_VALUE: sodium_pad:unpadded_buflen <- [DW_OP_LLVM_entry_value 1] $rdx
	#DEBUG_VALUE: sodium_pad:blocksize <- $rcx
	#DEBUG_VALUE: sodium_pad:max_buflen <- $r8
	#DEBUG_VALUE: sodium_pad:xpadlen <- $r11
	#DEBUG_VALUE: sodium_pad:xpadded_len <- $r10
	#DEBUG_VALUE: sodium_pad:tail <- undef
	.loc	1 768 25                        # sodium/utils.c:768:25
	testq	%rdi, %rdi
	je	.LBB21_11
.Ltmp302:
# %bb.10:
	#DEBUG_VALUE: sodium_pad:padded_buflen_p <- $rdi
	#DEBUG_VALUE: sodium_pad:buf <- $rsi
	#DEBUG_VALUE: sodium_pad:unpadded_buflen <- [DW_OP_LLVM_entry_value 1] $rdx
	#DEBUG_VALUE: sodium_pad:blocksize <- $rcx
	#DEBUG_VALUE: sodium_pad:max_buflen <- $r8
	#DEBUG_VALUE: sodium_pad:xpadlen <- $r11
	#DEBUG_VALUE: sodium_pad:xpadded_len <- $r10
	.loc	1 769 40                        # sodium/utils.c:769:40
	leaq	1(%r10), %rax
	.loc	1 769 26 is_stmt 0              # sodium/utils.c:769:26
	movq	%rax, (%rdi)
.Ltmp303:
.LBB21_11:
	#DEBUG_VALUE: sodium_pad:padded_buflen_p <- $rdi
	#DEBUG_VALUE: sodium_pad:buf <- $rsi
	#DEBUG_VALUE: sodium_pad:unpadded_buflen <- [DW_OP_LLVM_entry_value 1] $rdx
	#DEBUG_VALUE: sodium_pad:blocksize <- $rcx
	#DEBUG_VALUE: sodium_pad:max_buflen <- $r8
	#DEBUG_VALUE: sodium_pad:xpadlen <- $r11
	#DEBUG_VALUE: sodium_pad:xpadded_len <- $r10
	.loc	1 0 0                           # sodium/utils.c:0
	addq	%r10, %rsi
.Ltmp304:
	#DEBUG_VALUE: sodium_pad:tail <- $rsi
	#DEBUG_VALUE: sodium_pad:buf <- [DW_OP_LLVM_entry_value 1] $rsi
	.loc	1 771 10 is_stmt 1              # sodium/utils.c:771:10
	movb	$0, 7(%rsp)
	xorl	%r9d, %r9d
.Ltmp305:
	#DEBUG_VALUE: sodium_pad:i <- 0
	.loc	1 0 10 is_stmt 0                # sodium/utils.c:0:10
	xorl	%eax, %eax
.Ltmp306:
	.p2align	4
.LBB21_12:                              # =>This Inner Loop Header: Depth=1
	#DEBUG_VALUE: sodium_pad:padded_buflen_p <- [DW_OP_LLVM_entry_value 1] $rdi
	#DEBUG_VALUE: sodium_pad:buf <- [DW_OP_LLVM_entry_value 1] $rsi
	#DEBUG_VALUE: sodium_pad:unpadded_buflen <- [DW_OP_LLVM_entry_value 1] $rdx
	#DEBUG_VALUE: sodium_pad:blocksize <- $rcx
	#DEBUG_VALUE: sodium_pad:max_buflen <- [DW_OP_LLVM_entry_value 1] $r8
	#DEBUG_VALUE: sodium_pad:xpadlen <- $r11
	#DEBUG_VALUE: sodium_pad:xpadded_len <- $r10
	#DEBUG_VALUE: sodium_pad:i <- $rax
	.loc	1 773 45 is_stmt 1              # sodium/utils.c:773:45
	movq	%rax, %rdx
	xorq	%r11, %rdx
	.loc	1 773 56 is_stmt 0              # sodium/utils.c:773:56
	decq	%rdx
.Ltmp307:
	#DEBUG_VALUE: sodium_pad:barrier_mask <- [DW_OP_LLVM_convert 64 7, DW_OP_LLVM_convert 8 7, DW_OP_stack_value] undef
	.loc	1 775 25 is_stmt 1              # sodium/utils.c:775:25
	movzbl	(%rsi), %edi
	.loc	1 775 38 is_stmt 0              # sodium/utils.c:775:38
	andb	7(%rsp), %dil
	.loc	1 774 12 is_stmt 1              # sodium/utils.c:774:12
	shrq	$56, %rdx
.Ltmp308:
	#DEBUG_VALUE: sodium_pad:barrier_mask <- [DW_OP_LLVM_convert 64 7, DW_OP_LLVM_convert 8 7, DW_OP_stack_value] $rdx
	.loc	1 775 23                        # sodium/utils.c:775:23
	movl	%edx, %r8d
	andb	$-128, %r8b
	orb	%dil, %r8b
	.loc	1 775 21 is_stmt 0              # sodium/utils.c:775:21
	movb	%r8b, (%rsi)
	.loc	1 776 14 is_stmt 1              # sodium/utils.c:776:14
	orb	%dl, 7(%rsp)
.Ltmp309:
	.loc	1 772 33                        # sodium/utils.c:772:33
	incq	%rax
.Ltmp310:
	#DEBUG_VALUE: sodium_pad:i <- $rax
	.loc	1 772 19 is_stmt 0              # sodium/utils.c:772:19
	decq	%rsi
	cmpq	%rax, %rcx
.Ltmp311:
	.loc	1 772 5                         # sodium/utils.c:772:5
	jne	.LBB21_12
.Ltmp312:
.LBB21_13:                              # %.loopexit
	#DEBUG_VALUE: sodium_pad:padded_buflen_p <- [DW_OP_LLVM_entry_value 1] $rdi
	#DEBUG_VALUE: sodium_pad:buf <- [DW_OP_LLVM_entry_value 1] $rsi
	#DEBUG_VALUE: sodium_pad:unpadded_buflen <- [DW_OP_LLVM_entry_value 1] $rdx
	#DEBUG_VALUE: sodium_pad:blocksize <- $rcx
	#DEBUG_VALUE: sodium_pad:max_buflen <- [DW_OP_LLVM_entry_value 1] $r8
	.loc	1 779 1 is_stmt 1               # sodium/utils.c:779:1
	movl	%r9d, %eax
	.loc	1 779 1 epilogue_begin is_stmt 0 # sodium/utils.c:779:1
	popq	%rcx
.Ltmp313:
	#DEBUG_VALUE: sodium_pad:blocksize <- [DW_OP_LLVM_entry_value 1] $rcx
	.cfi_def_cfa_offset 8
	retq
.Ltmp314:
.LBB21_14:
	.cfi_def_cfa_offset 16
	#DEBUG_VALUE: sodium_pad:padded_buflen_p <- $rdi
	#DEBUG_VALUE: sodium_pad:buf <- $rsi
	#DEBUG_VALUE: sodium_pad:unpadded_buflen <- $r10
	#DEBUG_VALUE: sodium_pad:blocksize <- $rcx
	#DEBUG_VALUE: sodium_pad:max_buflen <- $r8
	#DEBUG_VALUE: sodium_pad:xpadlen <- $r11
	.loc	1 761 9 is_stmt 1               # sodium/utils.c:761:9
	callq	sodium_misuse@PLT
.Ltmp315:
	#DEBUG_VALUE: sodium_pad:unpadded_buflen <- [DW_OP_LLVM_entry_value 1] $rdx
	#DEBUG_VALUE: sodium_pad:max_buflen <- [DW_OP_LLVM_entry_value 1] $r8
	#DEBUG_VALUE: sodium_pad:blocksize <- [DW_OP_LLVM_entry_value 1] $rcx
	#DEBUG_VALUE: sodium_pad:buf <- [DW_OP_LLVM_entry_value 1] $rsi
	#DEBUG_VALUE: sodium_pad:padded_buflen_p <- [DW_OP_LLVM_entry_value 1] $rdi
.Lfunc_end21:
	.size	sodium_pad, .Lfunc_end21-sodium_pad
	.cfi_endproc
                                        # -- End function
	.globl	sodium_unpad                    # -- Begin function sodium_unpad
	.p2align	4
	.type	sodium_unpad,@function
sodium_unpad:                           # @sodium_unpad
.Lfunc_begin22:
	.loc	1 784 0                         # sodium/utils.c:784:0
	.cfi_startproc
# %bb.0:
	#DEBUG_VALUE: sodium_unpad:unpadded_buflen_p <- $rdi
	#DEBUG_VALUE: sodium_unpad:buf <- $rsi
	#DEBUG_VALUE: sodium_unpad:padded_buflen <- $rdx
	#DEBUG_VALUE: sodium_unpad:blocksize <- $rcx
	pushq	%rbx
	.cfi_def_cfa_offset 16
	.cfi_offset %rbx, -16
.Ltmp316:
	#DEBUG_VALUE: sodium_unpad:acc <- 0
	#DEBUG_VALUE: sodium_unpad:valid <- 0
	.loc	1 789 21 prologue_end           # sodium/utils.c:789:21
	movq	$0, -8(%rsp)
.Ltmp317:
	.loc	1 793 35                        # sodium/utils.c:793:35
	leaq	-1(%rcx), %r8
	movl	$-1, %eax
	cmpq	%rdx, %r8
	jae	.LBB22_4
.Ltmp318:
# %bb.1:                                # %.lr.ph.preheader
	#DEBUG_VALUE: sodium_unpad:unpadded_buflen_p <- $rdi
	#DEBUG_VALUE: sodium_unpad:buf <- $rsi
	#DEBUG_VALUE: sodium_unpad:padded_buflen <- $rdx
	#DEBUG_VALUE: sodium_unpad:blocksize <- $rcx
	#DEBUG_VALUE: sodium_unpad:acc <- 0
	#DEBUG_VALUE: sodium_unpad:valid <- 0
	.loc	1 796 13                        # sodium/utils.c:796:13
	leaq	(%rsi,%rdx), %rax
	decq	%rax
	.loc	1 796 31 is_stmt 0              # sodium/utils.c:796:31
	decq	%rdx
.Ltmp319:
	#DEBUG_VALUE: sodium_unpad:padded_buflen <- [DW_OP_LLVM_entry_value 1] $rdx
	#DEBUG_VALUE: sodium_unpad:tail <- $rax
	.loc	1 0 31                          # sodium/utils.c:0:31
	xorl	%esi, %esi
.Ltmp320:
	#DEBUG_VALUE: sodium_unpad:buf <- [DW_OP_LLVM_entry_value 1] $rsi
	#DEBUG_VALUE: sodium_unpad:i <- 0
	#DEBUG_VALUE: sodium_unpad:valid <- 0
	#DEBUG_VALUE: sodium_unpad:acc <- undef
	xorl	%r8d, %r8d
	xorl	%r9d, %r9d
.Ltmp321:
	.p2align	4
.LBB22_2:                               # %.lr.ph
                                        # =>This Inner Loop Header: Depth=1
	#DEBUG_VALUE: sodium_unpad:unpadded_buflen_p <- $rdi
	#DEBUG_VALUE: sodium_unpad:buf <- [DW_OP_LLVM_entry_value 1] $rsi
	#DEBUG_VALUE: sodium_unpad:padded_buflen <- [DW_OP_LLVM_entry_value 1] $rdx
	#DEBUG_VALUE: sodium_unpad:blocksize <- $rcx
	#DEBUG_VALUE: sodium_unpad:i <- $rsi
	#DEBUG_VALUE: sodium_unpad:valid <- $r8
	.loc	1 799 13 is_stmt 1              # sodium/utils.c:799:13
	movzbl	(%rax), %r10d
.Ltmp322:
	#DEBUG_VALUE: sodium_unpad:c <- undef
	.loc	1 801 21                        # sodium/utils.c:801:21
	leal	511(%r9), %r11d
	.loc	1 801 30 is_stmt 0              # sodium/utils.c:801:30
	movq	-8(%rsp), %rbx
	.loc	1 801 38                        # sodium/utils.c:801:38
	addl	$511, %ebx                      # imm = 0x1FF
	.loc	1 801 27                        # sodium/utils.c:801:27
	andl	%r11d, %ebx
.Ltmp323:
	#DEBUG_VALUE: sodium_unpad:is_barrier <- undef
	.loc	1 802 13 is_stmt 1              # sodium/utils.c:802:13
	orl	%r10d, %r9d
	.loc	1 801 50                        # sodium/utils.c:801:50
	xorl	$128, %r10d
	.loc	1 801 58 is_stmt 0              # sodium/utils.c:801:58
	decl	%r10d
	.loc	1 801 44                        # sodium/utils.c:801:44
	andl	%ebx, %r10d
	.loc	1 801 66                        # sodium/utils.c:801:66
	movl	%r10d, %r11d
	shrl	$8, %r11d
	.loc	1 801 72                        # sodium/utils.c:801:72
	btl	$8, %r10d
	movl	$0, %r10d
	sbbq	%r10, %r10
.Ltmp324:
	#DEBUG_VALUE: sodium_unpad:acc <- [DW_OP_LLVM_convert 32 7, DW_OP_LLVM_convert 8 7, DW_OP_stack_value] $r9d
	.loc	1 803 22 is_stmt 1              # sodium/utils.c:803:22
	andq	%rsi, %r10
	.loc	1 803 17 is_stmt 0              # sodium/utils.c:803:17
	orq	%r10, -8(%rsp)
	.loc	1 804 18 is_stmt 1              # sodium/utils.c:804:18
	andb	$1, %r11b
	.loc	1 804 15 is_stmt 0              # sodium/utils.c:804:15
	orb	%r11b, %r8b
.Ltmp325:
	#DEBUG_VALUE: sodium_unpad:valid <- $r8b
	.loc	1 798 34 is_stmt 1              # sodium/utils.c:798:34
	incq	%rsi
.Ltmp326:
	#DEBUG_VALUE: sodium_unpad:i <- $rsi
	#DEBUG_VALUE: sodium_unpad:acc <- undef
	.loc	1 798 20 is_stmt 0              # sodium/utils.c:798:20
	decq	%rax
	cmpq	%rsi, %rcx
.Ltmp327:
	.loc	1 798 5                         # sodium/utils.c:798:5
	jne	.LBB22_2
.Ltmp328:
# %bb.3:                                # %._crit_edge
	#DEBUG_VALUE: sodium_unpad:unpadded_buflen_p <- $rdi
	#DEBUG_VALUE: sodium_unpad:buf <- [DW_OP_LLVM_entry_value 1] $rsi
	#DEBUG_VALUE: sodium_unpad:padded_buflen <- [DW_OP_LLVM_entry_value 1] $rdx
	#DEBUG_VALUE: sodium_unpad:blocksize <- $rcx
	#DEBUG_VALUE: sodium_unpad:valid <- $r8b
	#DEBUG_VALUE: sodium_unpad:i <- $rsi
	.loc	1 808 19 is_stmt 1              # sodium/utils.c:808:19
	movzbl	%r8b, %eax
	.loc	1 808 25 is_stmt 0              # sodium/utils.c:808:25
	decl	%eax
	.loc	1 806 45 is_stmt 1              # sodium/utils.c:806:45
	subq	-8(%rsp), %rdx
	.loc	1 806 24 is_stmt 0              # sodium/utils.c:806:24
	movq	%rdx, (%rdi)
.Ltmp329:
.LBB22_4:
	#DEBUG_VALUE: sodium_unpad:unpadded_buflen_p <- $rdi
	#DEBUG_VALUE: sodium_unpad:buf <- [DW_OP_LLVM_entry_value 1] $rsi
	#DEBUG_VALUE: sodium_unpad:padded_buflen <- [DW_OP_LLVM_entry_value 1] $rdx
	#DEBUG_VALUE: sodium_unpad:blocksize <- $rcx
	.loc	1 809 1 epilogue_begin is_stmt 1 # sodium/utils.c:809:1
	popq	%rbx
	.cfi_def_cfa_offset 8
	retq
.Ltmp330:
.Lfunc_end22:
	.size	sodium_unpad, .Lfunc_end22-sodium_unpad
	.cfi_endproc
                                        # -- End function
	.type	page_size,@object               # @page_size
	.data
	.p2align	3, 0x0
page_size:
	.quad	65536                           # 0x10000
	.size	page_size, 8

	.type	canary,@object                  # @canary
	.local	canary
	.comm	canary,16,16
	.type	.L.str,@object                  # @.str
	.section	.rodata.str1.1,"aMS",@progbits,1
.L.str:
	.asciz	"_unprotected_ptr_from_user_ptr(user_ptr) == unprotected_ptr"
	.size	.L.str, 60

	.type	.L.str.1,@object                # @.str.1
.L.str.1:
	.asciz	"sodium/utils.c"
	.size	.L.str.1, 15

	.type	.L__PRETTY_FUNCTION__._sodium_malloc,@object # @__PRETTY_FUNCTION__._sodium_malloc
.L__PRETTY_FUNCTION__._sodium_malloc:
	.asciz	"void *_sodium_malloc(const size_t)"
	.size	.L__PRETTY_FUNCTION__._sodium_malloc, 35

	.file	15 "/usr/include/x86_64-linux-gnu/bits" "stdint-uintn.h"
	.section	".note.GNU-stack","",@progbits
	.addrsig
	.addrsig_sym __stack_chk_fail
	.addrsig_sym canary