	.file	"x25519_ref10.c"
	.file	0 "/home/leizhenyuu/opt/Anonymous_Repo/libsodium_o2_attr_inline/src/libsodium" "x25519_ref10.c" md5 0x1d2ff27c96e211ab8e40599849995ac8
	.file	1 "crypto_scalarmult/curve25519/ref10/.." "scalarmult_curve25519.h"
	.file	2 "crypto_scalarmult/curve25519/ref10" "x25519_ref10.c"
	.file	3 "/usr/include/x86_64-linux-gnu/bits" "types.h"
	.file	4 "/usr/include/x86_64-linux-gnu/bits" "stdint-uintn.h"
	.file	5 "/usr/include/x86_64-linux-gnu/bits" "stdint-intn.h"
	.file	6 "./include/sodium/private" "common.h"
	.section	.rodata.cst16,"aM",@progbits,16
	.p2align	4, 0x0                          # -- Begin function crypto_scalarmult_curve25519_ref10
.LCPI0_0:
	.byte	238                             # 0xee
	.byte	255                             # 0xff
	.byte	255                             # 0xff
	.byte	255                             # 0xff
	.zero	1
	.zero	1
	.zero	1
	.zero	1
	.zero	1
	.zero	1
	.zero	1
	.zero	1
	.zero	1
	.zero	1
	.zero	1
	.zero	1
.LCPI0_1:
	.byte	237                             # 0xed
	.byte	255                             # 0xff
	.byte	255                             # 0xff
	.byte	255                             # 0xff
	.zero	1
	.zero	1
	.zero	1
	.zero	1
	.zero	1
	.zero	1
	.zero	1
	.zero	1
	.zero	1
	.zero	1
	.zero	1
	.zero	1
.LCPI0_2:
	.byte	236                             # 0xec
	.byte	255                             # 0xff
	.byte	255                             # 0xff
	.byte	255                             # 0xff
	.zero	1
	.zero	1
	.zero	1
	.zero	1
	.zero	1
	.zero	1
	.zero	1
	.zero	1
	.zero	1
	.zero	1
	.zero	1
	.zero	1
.LCPI0_3:
	.byte	216                             # 0xd8
	.byte	34                              # 0x22
	.byte	78                              # 0x4e
	.byte	221                             # 0xdd
	.zero	1
	.zero	1
	.zero	1
	.zero	1
	.zero	1
	.zero	1
	.zero	1
	.zero	1
	.zero	1
	.zero	1
	.zero	1
	.zero	1
.LCPI0_4:
	.byte	88                              # 0x58
	.byte	28                              # 0x1c
	.byte	142                             # 0x8e
	.byte	134                             # 0x86
	.zero	1
	.zero	1
	.zero	1
	.zero	1
	.zero	1
	.zero	1
	.zero	1
	.zero	1
	.zero	1
	.zero	1
	.zero	1
	.zero	1
.LCPI0_5:
	.byte	4                               # 0x4
	.byte	68                              # 0x44
	.byte	92                              # 0x5c
	.byte	196                             # 0xc4
	.zero	1
	.zero	1
	.zero	1
	.zero	1
	.zero	1
	.zero	1
	.zero	1
	.zero	1
	.zero	1
	.zero	1
	.zero	1
	.zero	1
.LCPI0_6:
	.byte	156                             # 0x9c
	.byte	131                             # 0x83
	.byte	239                             # 0xef
	.byte	91                              # 0x5b
	.zero	1
	.zero	1
	.zero	1
	.zero	1
	.zero	1
	.zero	1
	.zero	1
	.zero	1
	.zero	1
	.zero	1
	.zero	1
	.zero	1
.LCPI0_7:
	.byte	177                             # 0xb1
	.byte	208                             # 0xd0
	.byte	177                             # 0xb1
	.byte	85                              # 0x55
	.zero	1
	.zero	1
	.zero	1
	.zero	1
	.zero	1
	.zero	1
	.zero	1
	.zero	1
	.zero	1
	.zero	1
	.zero	1
	.zero	1
.LCPI0_8:
	.byte	163                             # 0xa3
	.byte	80                              # 0x50
	.byte	140                             # 0x8c
	.byte	36                              # 0x24
	.zero	1
	.zero	1
	.zero	1
	.zero	1
	.zero	1
	.zero	1
	.zero	1
	.zero	1
	.zero	1
	.zero	1
	.zero	1
	.zero	1
.LCPI0_9:
	.byte	95                              # 0x5f
	.byte	156                             # 0x9c
	.byte	149                             # 0x95
	.byte	188                             # 0xbc
	.zero	1
	.zero	1
	.zero	1
	.zero	1
	.zero	1
	.zero	1
	.zero	1
	.zero	1
	.zero	1
	.zero	1
	.zero	1
	.zero	1
.LCPI0_10:
	.byte	134                             # 0x86
	.byte	98                              # 0x62
	.byte	5                               # 0x5
	.byte	22                              # 0x16
	.zero	1
	.zero	1
	.zero	1
	.zero	1
	.zero	1
	.zero	1
	.zero	1
	.zero	1
	.zero	1
	.zero	1
	.zero	1
	.zero	1
.LCPI0_11:
	.byte	156                             # 0x9c
	.byte	50                              # 0x32
	.byte	177                             # 0xb1
	.byte	253                             # 0xfd
	.zero	1
	.zero	1
	.zero	1
	.zero	1
	.zero	1
	.zero	1
	.zero	1
	.zero	1
	.zero	1
	.zero	1
	.zero	1
	.zero	1
.LCPI0_12:
	.byte	218                             # 0xda
	.byte	9                               # 0x9
	.byte	141                             # 0x8d
	.byte	235                             # 0xeb
	.zero	1
	.zero	1
	.zero	1
	.zero	1
	.zero	1
	.zero	1
	.zero	1
	.zero	1
	.zero	1
	.zero	1
	.zero	1
	.zero	1
.LCPI0_13:
	.byte	241                             # 0xf1
	.byte	159                             # 0x9f
	.byte	196                             # 0xc4
	.byte	106                             # 0x6a
	.zero	1
	.zero	1
	.zero	1
	.zero	1
	.zero	1
	.zero	1
	.zero	1
	.zero	1
	.zero	1
	.zero	1
	.zero	1
	.zero	1
.LCPI0_14:
	.byte	22                              # 0x16
	.byte	86                              # 0x56
	.byte	227                             # 0xe3
	.byte	250                             # 0xfa
	.zero	1
	.zero	1
	.zero	1
	.zero	1
	.zero	1
	.zero	1
	.zero	1
	.zero	1
	.zero	1
	.zero	1
	.zero	1
	.zero	1
.LCPI0_15:
	.byte	59                              # 0x3b
	.byte	65                              # 0x41
	.byte	184                             # 0xb8
	.byte	174                             # 0xae
	.zero	1
	.zero	1
	.zero	1
	.zero	1
	.zero	1
	.zero	1
	.zero	1
	.zero	1
	.zero	1
	.zero	1
	.zero	1
	.zero	1
.LCPI0_16:
	.byte	224                             # 0xe0
	.byte	235                             # 0xeb
	.byte	122                             # 0x7a
	.byte	124                             # 0x7c
	.zero	1
	.zero	1
	.zero	1
	.zero	1
	.zero	1
	.zero	1
	.zero	1
	.zero	1
	.zero	1
	.zero	1
	.zero	1
	.zero	1
.LCPI0_17:
	.long	1                               # 0x1
	.long	0                               # 0x0
	.long	0                               # 0x0
	.long	0                               # 0x0
.LCPI0_18:
	.byte	238                             # 0xee
	.byte	255                             # 0xff
	.byte	255                             # 0xff
	.byte	255                             # 0xff
	.byte	0                               # 0x0
	.byte	0                               # 0x0
	.byte	0                               # 0x0
	.byte	0                               # 0x0
	.byte	0                               # 0x0
	.byte	0                               # 0x0
	.byte	0                               # 0x0
	.byte	0                               # 0x0
	.byte	0                               # 0x0
	.byte	0                               # 0x0
	.byte	0                               # 0x0
	.byte	0                               # 0x0
.LCPI0_19:
	.byte	237                             # 0xed
	.byte	255                             # 0xff
	.byte	255                             # 0xff
	.byte	255                             # 0xff
	.byte	0                               # 0x0
	.byte	0                               # 0x0
	.byte	0                               # 0x0
	.byte	0                               # 0x0
	.byte	0                               # 0x0
	.byte	0                               # 0x0
	.byte	0                               # 0x0
	.byte	0                               # 0x0
	.byte	0                               # 0x0
	.byte	0                               # 0x0
	.byte	0                               # 0x0
	.byte	0                               # 0x0
.LCPI0_20:
	.byte	216                             # 0xd8
	.byte	34                              # 0x22
	.byte	78                              # 0x4e
	.byte	221                             # 0xdd
	.byte	0                               # 0x0
	.byte	0                               # 0x0
	.byte	0                               # 0x0
	.byte	0                               # 0x0
	.byte	0                               # 0x0
	.byte	0                               # 0x0
	.byte	0                               # 0x0
	.byte	0                               # 0x0
	.byte	0                               # 0x0
	.byte	0                               # 0x0
	.byte	0                               # 0x0
	.byte	0                               # 0x0
.LCPI0_21:
	.byte	88                              # 0x58
	.byte	28                              # 0x1c
	.byte	142                             # 0x8e
	.byte	134                             # 0x86
	.byte	0                               # 0x0
	.byte	0                               # 0x0
	.byte	0                               # 0x0
	.byte	0                               # 0x0
	.byte	0                               # 0x0
	.byte	0                               # 0x0
	.byte	0                               # 0x0
	.byte	0                               # 0x0
	.byte	0                               # 0x0
	.byte	0                               # 0x0
	.byte	0                               # 0x0
	.byte	0                               # 0x0
.LCPI0_22:
	.byte	4                               # 0x4
	.byte	68                              # 0x44
	.byte	92                              # 0x5c
	.byte	196                             # 0xc4
	.byte	0                               # 0x0
	.byte	0                               # 0x0
	.byte	0                               # 0x0
	.byte	0                               # 0x0
	.byte	0                               # 0x0
	.byte	0                               # 0x0
	.byte	0                               # 0x0
	.byte	0                               # 0x0
	.byte	0                               # 0x0
	.byte	0                               # 0x0
	.byte	0                               # 0x0
	.byte	0                               # 0x0
.LCPI0_23:
	.byte	156                             # 0x9c
	.byte	131                             # 0x83
	.byte	239                             # 0xef
	.byte	91                              # 0x5b
	.byte	0                               # 0x0
	.byte	0                               # 0x0
	.byte	0                               # 0x0
	.byte	0                               # 0x0
	.byte	0                               # 0x0
	.byte	0                               # 0x0
	.byte	0                               # 0x0
	.byte	0                               # 0x0
	.byte	0                               # 0x0
	.byte	0                               # 0x0
	.byte	0                               # 0x0
	.byte	0                               # 0x0
.LCPI0_24:
	.byte	177                             # 0xb1
	.byte	208                             # 0xd0
	.byte	177                             # 0xb1
	.byte	85                              # 0x55
	.byte	0                               # 0x0
	.byte	0                               # 0x0
	.byte	0                               # 0x0
	.byte	0                               # 0x0
	.byte	0                               # 0x0
	.byte	0                               # 0x0
	.byte	0                               # 0x0
	.byte	0                               # 0x0
	.byte	0                               # 0x0
	.byte	0                               # 0x0
	.byte	0                               # 0x0
	.byte	0                               # 0x0
.LCPI0_25:
	.byte	163                             # 0xa3
	.byte	80                              # 0x50
	.byte	140                             # 0x8c
	.byte	36                              # 0x24
	.byte	0                               # 0x0
	.byte	0                               # 0x0
	.byte	0                               # 0x0
	.byte	0                               # 0x0
	.byte	0                               # 0x0
	.byte	0                               # 0x0
	.byte	0                               # 0x0
	.byte	0                               # 0x0
	.byte	0                               # 0x0
	.byte	0                               # 0x0
	.byte	0                               # 0x0
	.byte	0                               # 0x0
.LCPI0_26:
	.byte	95                              # 0x5f
	.byte	156                             # 0x9c
	.byte	149                             # 0x95
	.byte	188                             # 0xbc
	.byte	0                               # 0x0
	.byte	0                               # 0x0
	.byte	0                               # 0x0
	.byte	0                               # 0x0
	.byte	0                               # 0x0
	.byte	0                               # 0x0
	.byte	0                               # 0x0
	.byte	0                               # 0x0
	.byte	0                               # 0x0
	.byte	0                               # 0x0
	.byte	0                               # 0x0
	.byte	0                               # 0x0
.LCPI0_27:
	.byte	134                             # 0x86
	.byte	98                              # 0x62
	.byte	5                               # 0x5
	.byte	22                              # 0x16
	.byte	0                               # 0x0
	.byte	0                               # 0x0
	.byte	0                               # 0x0
	.byte	0                               # 0x0
	.byte	0                               # 0x0
	.byte	0                               # 0x0
	.byte	0                               # 0x0
	.byte	0                               # 0x0
	.byte	0                               # 0x0
	.byte	0                               # 0x0
	.byte	0                               # 0x0
	.byte	0                               # 0x0
.LCPI0_28:
	.byte	156                             # 0x9c
	.byte	50                              # 0x32
	.byte	177                             # 0xb1
	.byte	253                             # 0xfd
	.byte	0                               # 0x0
	.byte	0                               # 0x0
	.byte	0                               # 0x0
	.byte	0                               # 0x0
	.byte	0                               # 0x0
	.byte	0                               # 0x0
	.byte	0                               # 0x0
	.byte	0                               # 0x0
	.byte	0                               # 0x0
	.byte	0                               # 0x0
	.byte	0                               # 0x0
	.byte	0                               # 0x0
.LCPI0_29:
	.byte	218                             # 0xda
	.byte	9                               # 0x9
	.byte	141                             # 0x8d
	.byte	235                             # 0xeb
	.byte	0                               # 0x0
	.byte	0                               # 0x0
	.byte	0                               # 0x0
	.byte	0                               # 0x0
	.byte	0                               # 0x0
	.byte	0                               # 0x0
	.byte	0                               # 0x0
	.byte	0                               # 0x0
	.byte	0                               # 0x0
	.byte	0                               # 0x0
	.byte	0                               # 0x0
	.byte	0                               # 0x0
.LCPI0_30:
	.byte	241                             # 0xf1
	.byte	159                             # 0x9f
	.byte	196                             # 0xc4
	.byte	106                             # 0x6a
	.byte	0                               # 0x0
	.byte	0                               # 0x0
	.byte	0                               # 0x0
	.byte	0                               # 0x0
	.byte	0                               # 0x0
	.byte	0                               # 0x0
	.byte	0                               # 0x0
	.byte	0                               # 0x0
	.byte	0                               # 0x0
	.byte	0                               # 0x0
	.byte	0                               # 0x0
	.byte	0                               # 0x0
.LCPI0_31:
	.byte	22                              # 0x16
	.byte	86                              # 0x56
	.byte	227                             # 0xe3
	.byte	250                             # 0xfa
	.byte	0                               # 0x0
	.byte	0                               # 0x0
	.byte	0                               # 0x0
	.byte	0                               # 0x0
	.byte	0                               # 0x0
	.byte	0                               # 0x0
	.byte	0                               # 0x0
	.byte	0                               # 0x0
	.byte	0                               # 0x0
	.byte	0                               # 0x0
	.byte	0                               # 0x0
	.byte	0                               # 0x0
.LCPI0_32:
	.byte	59                              # 0x3b
	.byte	65                              # 0x41
	.byte	184                             # 0xb8
	.byte	174                             # 0xae
	.byte	0                               # 0x0
	.byte	0                               # 0x0
	.byte	0                               # 0x0
	.byte	0                               # 0x0
	.byte	0                               # 0x0
	.byte	0                               # 0x0
	.byte	0                               # 0x0
	.byte	0                               # 0x0
	.byte	0                               # 0x0
	.byte	0                               # 0x0
	.byte	0                               # 0x0
	.byte	0                               # 0x0
.LCPI0_33:
	.byte	224                             # 0xe0
	.byte	235                             # 0xeb
	.byte	122                             # 0x7a
	.byte	124                             # 0x7c
	.byte	0                               # 0x0
	.byte	0                               # 0x0
	.byte	0                               # 0x0
	.byte	0                               # 0x0
	.byte	0                               # 0x0
	.byte	0                               # 0x0
	.byte	0                               # 0x0
	.byte	0                               # 0x0
	.byte	0                               # 0x0
	.byte	0                               # 0x0
	.byte	0                               # 0x0
	.byte	0                               # 0x0
.LCPI0_34:
	.byte	236                             # 0xec
	.byte	255                             # 0xff
	.byte	255                             # 0xff
	.byte	255                             # 0xff
	.byte	0                               # 0x0
	.byte	0                               # 0x0
	.byte	0                               # 0x0
	.byte	0                               # 0x0
	.byte	0                               # 0x0
	.byte	0                               # 0x0
	.byte	0                               # 0x0
	.byte	0                               # 0x0
	.byte	0                               # 0x0
	.byte	0                               # 0x0
	.byte	0                               # 0x0
	.byte	0                               # 0x0
	.text
	.p2align	4
	.type	crypto_scalarmult_curve25519_ref10,@function
crypto_scalarmult_curve25519_ref10:     # @crypto_scalarmult_curve25519_ref10
.Lfunc_begin0:
	.loc	2 76 0                          # crypto_scalarmult/curve25519/ref10/x25519_ref10.c:76:0
	.cfi_startproc
# %bb.0:                                # %vector.ph
	#DEBUG_VALUE: crypto_scalarmult_curve25519_ref10:q <- $rdi
	#DEBUG_VALUE: crypto_scalarmult_curve25519_ref10:n <- $rsi
	#DEBUG_VALUE: crypto_scalarmult_curve25519_ref10:p <- $rdx
	pushq	%rbp
	.cfi_def_cfa_offset 16
	pushq	%r15
	.cfi_def_cfa_offset 24
	pushq	%r14
	.cfi_def_cfa_offset 32
	pushq	%r13
	.cfi_def_cfa_offset 40
	pushq	%r12
	.cfi_def_cfa_offset 48
	pushq	%rbx
	.cfi_def_cfa_offset 56
	subq	$584, %rsp                      # imm = 0x248
	.cfi_def_cfa_offset 640
	.cfi_offset %rbx, -56
	.cfi_offset %r12, -48
	.cfi_offset %r13, -40
	.cfi_offset %r14, -32
	.cfi_offset %r15, -24
	.cfi_offset %rbp, -16
	movq	%fs:40, %rax
	movq	%rax, 576(%rsp)
.Ltmp0:
	#DEBUG_VALUE: crypto_scalarmult_curve25519_ref10:t <- [DW_OP_plus_uconst 544, DW_OP_deref] $rsp
	#DEBUG_VALUE: crypto_scalarmult_curve25519_ref10:x2 <- [DW_OP_plus_uconst 208, DW_OP_deref] $rsp
	#DEBUG_VALUE: crypto_scalarmult_curve25519_ref10:z2 <- [DW_OP_plus_uconst 112, DW_OP_deref] $rsp
	#DEBUG_VALUE: crypto_scalarmult_curve25519_ref10:z3 <- [DW_OP_plus_uconst 416, DW_OP_deref] $rsp
	#DEBUG_VALUE: has_small_order:s <- $rdx
	#DEBUG_VALUE: has_small_order:c <- [DW_OP_LLVM_fragment 0 8] 0
	#DEBUG_VALUE: has_small_order:c <- [DW_OP_LLVM_fragment 8 8] 0
	#DEBUG_VALUE: has_small_order:c <- [DW_OP_LLVM_fragment 16 8] 0
	#DEBUG_VALUE: has_small_order:c <- [DW_OP_LLVM_fragment 24 8] 0
	#DEBUG_VALUE: has_small_order:c <- [DW_OP_LLVM_fragment 32 8] 0
	#DEBUG_VALUE: has_small_order:c <- [DW_OP_LLVM_fragment 40 8] 0
	#DEBUG_VALUE: has_small_order:c <- [DW_OP_LLVM_fragment 48 8] 0
	#DEBUG_VALUE: has_small_order:j <- 0
	movl	4(%rdx), %eax
	movl	8(%rdx), %r11d
.Ltmp1:
	.loc	2 59 18 prologue_end            # crypto_scalarmult/curve25519/ref10/x25519_ref10.c:59:18 @[ crypto_scalarmult/curve25519/ref10/x25519_ref10.c:90:9 ]
	movl	%eax, %r9d
	andl	%r11d, %r9d
	movl	12(%rdx), %ecx
	movl	16(%rdx), %r8d
	movl	%ecx, %ebx
	andl	%r8d, %ebx
	andl	%r9d, %ebx
	movl	20(%rdx), %r9d
	movl	24(%rdx), %r10d
	movl	%r9d, %ebp
	andl	%r10d, %ebp
	andl	%ebx, %ebp
	movd	%ebp, %xmm3
.Ltmp2:
	#DEBUG_VALUE: has_small_order:c <- [DW_OP_LLVM_fragment 48 8] undef
	#DEBUG_VALUE: has_small_order:c <- [DW_OP_LLVM_fragment 40 8] undef
	#DEBUG_VALUE: has_small_order:c <- [DW_OP_LLVM_fragment 32 8] undef
	#DEBUG_VALUE: has_small_order:c <- [DW_OP_LLVM_fragment 24 8] undef
	#DEBUG_VALUE: has_small_order:c <- [DW_OP_LLVM_fragment 16 8] undef
	#DEBUG_VALUE: has_small_order:c <- [DW_OP_LLVM_fragment 8 8] undef
	.loc	2 0 18 is_stmt 0                # crypto_scalarmult/curve25519/ref10/x25519_ref10.c:0:18
	movl	(%rdx), %ebx
	movd	%ebx, %xmm0
	movd	%eax, %xmm1
	.loc	2 59 18                         # crypto_scalarmult/curve25519/ref10/x25519_ref10.c:59:18 @[ crypto_scalarmult/curve25519/ref10/x25519_ref10.c:90:9 ]
	orl	%ebx, %eax
	movd	.LCPI0_18(%rip), %xmm4          # xmm4 = [238,255,255,255,0,0,0,0,0,0,0,0,0,0,0,0]
	.loc	2 59 26                         # crypto_scalarmult/curve25519/ref10/x25519_ref10.c:59:26 @[ crypto_scalarmult/curve25519/ref10/x25519_ref10.c:90:9 ]
	pxor	%xmm0, %xmm4
	movd	%r11d, %xmm5
	movd	%ecx, %xmm7
	movd	%r8d, %xmm8
	movd	%r9d, %xmm9
	movd	%r10d, %xmm10
	.loc	2 59 18                         # crypto_scalarmult/curve25519/ref10/x25519_ref10.c:59:18 @[ crypto_scalarmult/curve25519/ref10/x25519_ref10.c:90:9 ]
	pcmpeqd	%xmm2, %xmm2
	pxor	%xmm3, %xmm2
	por	%xmm2, %xmm4
.Ltmp3:
	.loc	2 57 5 is_stmt 1                # crypto_scalarmult/curve25519/ref10/x25519_ref10.c:57:5 @[ crypto_scalarmult/curve25519/ref10/x25519_ref10.c:90:9 ]
	movdqa	%xmm4, %xmm3
	psrld	$16, %xmm3
	por	%xmm4, %xmm3
	movdqa	%xmm3, %xmm4
	psrlw	$8, %xmm4
	por	%xmm3, %xmm4
.Ltmp4:
	.loc	2 59 18                         # crypto_scalarmult/curve25519/ref10/x25519_ref10.c:59:18 @[ crypto_scalarmult/curve25519/ref10/x25519_ref10.c:90:9 ]
	orl	%r11d, %ecx
.Ltmp5:
	.loc	2 57 5                          # crypto_scalarmult/curve25519/ref10/x25519_ref10.c:57:5 @[ crypto_scalarmult/curve25519/ref10/x25519_ref10.c:90:9 ]
	movd	%xmm4, %r11d
.Ltmp6:
	#DEBUG_VALUE: has_small_order:c <- [DW_OP_LLVM_fragment 48 8] $r11b
	.loc	2 0 5 is_stmt 0                 # crypto_scalarmult/curve25519/ref10/x25519_ref10.c:0:5
	movd	.LCPI0_19(%rip), %xmm3          # xmm3 = [237,255,255,255,0,0,0,0,0,0,0,0,0,0,0,0]
.Ltmp7:
	.loc	2 59 26 is_stmt 1               # crypto_scalarmult/curve25519/ref10/x25519_ref10.c:59:26 @[ crypto_scalarmult/curve25519/ref10/x25519_ref10.c:90:9 ]
	pxor	%xmm0, %xmm3
	.loc	2 59 18 is_stmt 0               # crypto_scalarmult/curve25519/ref10/x25519_ref10.c:59:18 @[ crypto_scalarmult/curve25519/ref10/x25519_ref10.c:90:9 ]
	por	%xmm2, %xmm3
.Ltmp8:
	.loc	2 57 5 is_stmt 1                # crypto_scalarmult/curve25519/ref10/x25519_ref10.c:57:5 @[ crypto_scalarmult/curve25519/ref10/x25519_ref10.c:90:9 ]
	movdqa	%xmm3, %xmm4
	psrld	$16, %xmm4
	por	%xmm3, %xmm4
	movdqa	%xmm4, %xmm3
	psrlw	$8, %xmm3
	por	%xmm4, %xmm3
	movd	.LCPI0_20(%rip), %xmm4          # xmm4 = [216,34,78,221,0,0,0,0,0,0,0,0,0,0,0,0]
.Ltmp9:
	.loc	2 59 26                         # crypto_scalarmult/curve25519/ref10/x25519_ref10.c:59:26 @[ crypto_scalarmult/curve25519/ref10/x25519_ref10.c:90:9 ]
	pxor	%xmm10, %xmm4
	movd	.LCPI0_21(%rip), %xmm6          # xmm6 = [88,28,142,134,0,0,0,0,0,0,0,0,0,0,0,0]
	pxor	%xmm9, %xmm6
	movd	.LCPI0_22(%rip), %xmm11         # xmm11 = [4,68,92,196,0,0,0,0,0,0,0,0,0,0,0,0]
	pxor	%xmm8, %xmm11
	.loc	2 59 18 is_stmt 0               # crypto_scalarmult/curve25519/ref10/x25519_ref10.c:59:18 @[ crypto_scalarmult/curve25519/ref10/x25519_ref10.c:90:9 ]
	por	%xmm6, %xmm11
	por	%xmm4, %xmm11
	movd	.LCPI0_23(%rip), %xmm4          # xmm4 = [156,131,239,91,0,0,0,0,0,0,0,0,0,0,0,0]
	.loc	2 59 26                         # crypto_scalarmult/curve25519/ref10/x25519_ref10.c:59:26 @[ crypto_scalarmult/curve25519/ref10/x25519_ref10.c:90:9 ]
	pxor	%xmm7, %xmm4
	movd	.LCPI0_24(%rip), %xmm6          # xmm6 = [177,208,177,85,0,0,0,0,0,0,0,0,0,0,0,0]
	pxor	%xmm5, %xmm6
	.loc	2 59 18                         # crypto_scalarmult/curve25519/ref10/x25519_ref10.c:59:18 @[ crypto_scalarmult/curve25519/ref10/x25519_ref10.c:90:9 ]
	por	%xmm4, %xmm6
	movd	.LCPI0_25(%rip), %xmm4          # xmm4 = [163,80,140,36,0,0,0,0,0,0,0,0,0,0,0,0]
	.loc	2 59 26                         # crypto_scalarmult/curve25519/ref10/x25519_ref10.c:59:26 @[ crypto_scalarmult/curve25519/ref10/x25519_ref10.c:90:9 ]
	pxor	%xmm1, %xmm4
	movd	.LCPI0_26(%rip), %xmm12         # xmm12 = [95,156,149,188,0,0,0,0,0,0,0,0,0,0,0,0]
	pxor	%xmm0, %xmm12
	.loc	2 59 18                         # crypto_scalarmult/curve25519/ref10/x25519_ref10.c:59:18 @[ crypto_scalarmult/curve25519/ref10/x25519_ref10.c:90:9 ]
	por	%xmm4, %xmm12
	por	%xmm6, %xmm12
	por	%xmm11, %xmm12
.Ltmp10:
	.loc	2 57 5 is_stmt 1                # crypto_scalarmult/curve25519/ref10/x25519_ref10.c:57:5 @[ crypto_scalarmult/curve25519/ref10/x25519_ref10.c:90:9 ]
	movdqa	%xmm12, %xmm6
	psrld	$16, %xmm6
	por	%xmm12, %xmm6
	movdqa	%xmm6, %xmm4
	psrlw	$8, %xmm4
	por	%xmm6, %xmm4
	movd	.LCPI0_27(%rip), %xmm6          # xmm6 = [134,98,5,22,0,0,0,0,0,0,0,0,0,0,0,0]
.Ltmp11:
	.loc	2 59 26                         # crypto_scalarmult/curve25519/ref10/x25519_ref10.c:59:26 @[ crypto_scalarmult/curve25519/ref10/x25519_ref10.c:90:9 ]
	pxor	%xmm10, %xmm6
	movd	.LCPI0_28(%rip), %xmm11         # xmm11 = [156,50,177,253,0,0,0,0,0,0,0,0,0,0,0,0]
	pxor	%xmm9, %xmm11
	movd	.LCPI0_29(%rip), %xmm12         # xmm12 = [218,9,141,235,0,0,0,0,0,0,0,0,0,0,0,0]
	pxor	%xmm8, %xmm12
	.loc	2 59 18 is_stmt 0               # crypto_scalarmult/curve25519/ref10/x25519_ref10.c:59:18 @[ crypto_scalarmult/curve25519/ref10/x25519_ref10.c:90:9 ]
	por	%xmm11, %xmm12
	por	%xmm6, %xmm12
	movd	.LCPI0_30(%rip), %xmm6          # xmm6 = [241,159,196,106,0,0,0,0,0,0,0,0,0,0,0,0]
	.loc	2 59 26                         # crypto_scalarmult/curve25519/ref10/x25519_ref10.c:59:26 @[ crypto_scalarmult/curve25519/ref10/x25519_ref10.c:90:9 ]
	pxor	%xmm7, %xmm6
	movd	.LCPI0_31(%rip), %xmm11         # xmm11 = [22,86,227,250,0,0,0,0,0,0,0,0,0,0,0,0]
	pxor	%xmm5, %xmm11
	.loc	2 59 18                         # crypto_scalarmult/curve25519/ref10/x25519_ref10.c:59:18 @[ crypto_scalarmult/curve25519/ref10/x25519_ref10.c:90:9 ]
	por	%xmm6, %xmm11
	movd	.LCPI0_32(%rip), %xmm6          # xmm6 = [59,65,184,174,0,0,0,0,0,0,0,0,0,0,0,0]
	.loc	2 59 26                         # crypto_scalarmult/curve25519/ref10/x25519_ref10.c:59:26 @[ crypto_scalarmult/curve25519/ref10/x25519_ref10.c:90:9 ]
	pxor	%xmm1, %xmm6
	movd	.LCPI0_33(%rip), %xmm13         # xmm13 = [224,235,122,124,0,0,0,0,0,0,0,0,0,0,0,0]
	pxor	%xmm0, %xmm13
	.loc	2 59 18                         # crypto_scalarmult/curve25519/ref10/x25519_ref10.c:59:18 @[ crypto_scalarmult/curve25519/ref10/x25519_ref10.c:90:9 ]
	por	%xmm6, %xmm13
	por	%xmm11, %xmm13
	por	%xmm12, %xmm13
.Ltmp12:
	.loc	2 57 5 is_stmt 1                # crypto_scalarmult/curve25519/ref10/x25519_ref10.c:57:5 @[ crypto_scalarmult/curve25519/ref10/x25519_ref10.c:90:9 ]
	movdqa	%xmm13, %xmm11
	psrld	$16, %xmm11
	por	%xmm13, %xmm11
	movdqa	%xmm11, %xmm6
	psrlw	$8, %xmm6
	por	%xmm11, %xmm6
.Ltmp13:
	.loc	2 59 18                         # crypto_scalarmult/curve25519/ref10/x25519_ref10.c:59:18 @[ crypto_scalarmult/curve25519/ref10/x25519_ref10.c:90:9 ]
	por	%xmm1, %xmm5
	movd	.LCPI0_34(%rip), %xmm1          # xmm1 = [236,255,255,255,0,0,0,0,0,0,0,0,0,0,0,0]
	.loc	2 59 26 is_stmt 0               # crypto_scalarmult/curve25519/ref10/x25519_ref10.c:59:26 @[ crypto_scalarmult/curve25519/ref10/x25519_ref10.c:90:9 ]
	pxor	%xmm0, %xmm1
	pxor	.LCPI0_17(%rip), %xmm0
	.loc	2 59 18                         # crypto_scalarmult/curve25519/ref10/x25519_ref10.c:59:18 @[ crypto_scalarmult/curve25519/ref10/x25519_ref10.c:90:9 ]
	por	%xmm7, %xmm5
	por	%xmm8, %xmm5
	por	%xmm9, %xmm5
	por	%xmm10, %xmm5
	por	%xmm0, %xmm5
.Ltmp14:
	.loc	2 57 5 is_stmt 1                # crypto_scalarmult/curve25519/ref10/x25519_ref10.c:57:5 @[ crypto_scalarmult/curve25519/ref10/x25519_ref10.c:90:9 ]
	movdqa	%xmm5, %xmm0
	psrld	$16, %xmm0
	por	%xmm5, %xmm0
	movdqa	%xmm0, %xmm5
	psrlw	$8, %xmm5
	por	%xmm0, %xmm5
.Ltmp15:
	.loc	2 59 18                         # crypto_scalarmult/curve25519/ref10/x25519_ref10.c:59:18 @[ crypto_scalarmult/curve25519/ref10/x25519_ref10.c:90:9 ]
	orl	%eax, %ecx
.Ltmp16:
	.loc	2 57 5                          # crypto_scalarmult/curve25519/ref10/x25519_ref10.c:57:5 @[ crypto_scalarmult/curve25519/ref10/x25519_ref10.c:90:9 ]
	movd	%xmm5, %ebx
.Ltmp17:
	#DEBUG_VALUE: has_small_order:c <- [DW_OP_LLVM_fragment 8 8] $bl
	.loc	2 59 18                         # crypto_scalarmult/curve25519/ref10/x25519_ref10.c:59:18 @[ crypto_scalarmult/curve25519/ref10/x25519_ref10.c:90:9 ]
	orl	%r8d, %r9d
	orl	%r10d, %r9d
	orl	%ecx, %r9d
	movd	%r9d, %xmm0
.Ltmp18:
	.loc	2 57 5                          # crypto_scalarmult/curve25519/ref10/x25519_ref10.c:57:5 @[ crypto_scalarmult/curve25519/ref10/x25519_ref10.c:90:9 ]
	movdqa	%xmm0, %xmm5
	psrld	$16, %xmm5
	por	%xmm0, %xmm5
	movdqa	%xmm5, %xmm0
	psrlw	$8, %xmm0
	por	%xmm5, %xmm0
	movd	%xmm0, %r9d
.Ltmp19:
	#DEBUG_VALUE: has_small_order:c <- [DW_OP_LLVM_fragment 0 8] $r9b
	#DEBUG_VALUE: has_small_order:j <- 28
	.loc	2 0 5 is_stmt 0                 # crypto_scalarmult/curve25519/ref10/x25519_ref10.c:0:5
	movzbl	28(%rdx), %ecx
.Ltmp20:
	#DEBUG_VALUE: has_small_order:i <- 0
	#DEBUG_VALUE: has_small_order:c <- [DW_OP_LLVM_fragment 0 8] undef
	#DEBUG_VALUE: has_small_order:i <- 1
	#DEBUG_VALUE: has_small_order:c <- [DW_OP_LLVM_fragment 8 8] undef
	#DEBUG_VALUE: has_small_order:i <- 2
	.loc	2 59 26 is_stmt 1               # crypto_scalarmult/curve25519/ref10/x25519_ref10.c:59:26 @[ crypto_scalarmult/curve25519/ref10/x25519_ref10.c:90:9 ]
	movl	%ecx, %r8d
	xorb	$95, %r8b
.Ltmp21:
	#DEBUG_VALUE: has_small_order:c <- [DW_OP_LLVM_fragment 16 8] undef
	#DEBUG_VALUE: has_small_order:i <- 3
	movl	%ecx, %r10d
	xorb	$-48, %r10b
.Ltmp22:
	#DEBUG_VALUE: has_small_order:c <- [DW_OP_LLVM_fragment 24 8] undef
	#DEBUG_VALUE: has_small_order:i <- 7
	#DEBUG_VALUE: has_small_order:j <- 29
	#DEBUG_VALUE: has_small_order:c <- [DW_OP_LLVM_fragment 16 8] undef
	#DEBUG_VALUE: has_small_order:c <- [DW_OP_LLVM_fragment 8 8] undef
	#DEBUG_VALUE: has_small_order:c <- [DW_OP_LLVM_fragment 0 8] undef
	#DEBUG_VALUE: has_small_order:c <- [DW_OP_LLVM_arg 0, DW_OP_LLVM_arg 1, DW_OP_constu 18446744073709551615, DW_OP_xor, DW_OP_or, DW_OP_stack_value, DW_OP_LLVM_fragment 48 8] $r11b, $cl
	#DEBUG_VALUE: has_small_order:c <- [DW_OP_LLVM_arg 0, DW_OP_LLVM_arg 1, DW_OP_constu 18446744073709551615, DW_OP_xor, DW_OP_or, DW_OP_stack_value, DW_OP_LLVM_fragment 40 8] undef, undef
	#DEBUG_VALUE: has_small_order:c <- [DW_OP_LLVM_arg 0, DW_OP_LLVM_arg 1, DW_OP_constu 18446744073709551615, DW_OP_xor, DW_OP_or, DW_OP_stack_value, DW_OP_LLVM_fragment 32 8] undef, undef
	.loc	2 0 26 is_stmt 0                # crypto_scalarmult/curve25519/ref10/x25519_ref10.c:0:26
	movzbl	29(%rdx), %ebp
.Ltmp23:
	#DEBUG_VALUE: has_small_order:i <- 0
	.loc	2 59 18                         # crypto_scalarmult/curve25519/ref10/x25519_ref10.c:59:18 @[ crypto_scalarmult/curve25519/ref10/x25519_ref10.c:90:9 ]
	movl	%ebp, %eax
	orb	%cl, %al
.Ltmp24:
	#DEBUG_VALUE: has_small_order:c <- [DW_OP_LLVM_fragment 0 8] undef
	#DEBUG_VALUE: has_small_order:i <- 1
	#DEBUG_VALUE: has_small_order:c <- [DW_OP_LLVM_fragment 8 8] undef
	#DEBUG_VALUE: has_small_order:i <- 2
	.loc	2 59 26                         # crypto_scalarmult/curve25519/ref10/x25519_ref10.c:59:26 @[ crypto_scalarmult/curve25519/ref10/x25519_ref10.c:90:9 ]
	movl	%ebp, %r15d
	xorb	$73, %r15b
	.loc	2 59 18                         # crypto_scalarmult/curve25519/ref10/x25519_ref10.c:59:18 @[ crypto_scalarmult/curve25519/ref10/x25519_ref10.c:90:9 ]
	orb	%r8b, %r15b
.Ltmp25:
	#DEBUG_VALUE: has_small_order:c <- [DW_OP_LLVM_fragment 24 8] undef
	#DEBUG_VALUE: has_small_order:i <- 4
	andb	%bpl, %cl
.Ltmp26:
	#DEBUG_VALUE: has_small_order:c <- [DW_OP_LLVM_fragment 16 8] undef
	#DEBUG_VALUE: has_small_order:i <- 3
	.loc	2 59 26                         # crypto_scalarmult/curve25519/ref10/x25519_ref10.c:59:26 @[ crypto_scalarmult/curve25519/ref10/x25519_ref10.c:90:9 ]
	xorb	$-97, %bpl
	.loc	2 59 18                         # crypto_scalarmult/curve25519/ref10/x25519_ref10.c:59:18 @[ crypto_scalarmult/curve25519/ref10/x25519_ref10.c:90:9 ]
	orb	%r10b, %bpl
.Ltmp27:
	#DEBUG_VALUE: has_small_order:c <- [DW_OP_LLVM_arg 0, DW_OP_LLVM_arg 1, DW_OP_constu 18446744073709551615, DW_OP_xor, DW_OP_or, DW_OP_stack_value, DW_OP_LLVM_fragment 32 8] undef, undef
	#DEBUG_VALUE: has_small_order:i <- 5
	#DEBUG_VALUE: has_small_order:i <- 6
	#DEBUG_VALUE: has_small_order:c <- [DW_OP_LLVM_arg 0, DW_OP_LLVM_arg 1, DW_OP_constu 18446744073709551615, DW_OP_xor, DW_OP_or, DW_OP_stack_value, DW_OP_LLVM_fragment 40 8] undef, undef
	#DEBUG_VALUE: has_small_order:i <- 7
	#DEBUG_VALUE: has_small_order:j <- 30
	#DEBUG_VALUE: has_small_order:c <- [DW_OP_LLVM_fragment 24 8] undef
	#DEBUG_VALUE: has_small_order:c <- [DW_OP_LLVM_fragment 16 8] undef
	#DEBUG_VALUE: has_small_order:c <- [DW_OP_LLVM_fragment 8 8] undef
	#DEBUG_VALUE: has_small_order:c <- [DW_OP_LLVM_fragment 0 8] undef
	#DEBUG_VALUE: has_small_order:c <- [DW_OP_LLVM_arg 0, DW_OP_LLVM_arg 1, DW_OP_constu 18446744073709551615, DW_OP_xor, DW_OP_or, DW_OP_stack_value, DW_OP_LLVM_fragment 48 8] $r11b, $cl
	#DEBUG_VALUE: has_small_order:c <- [DW_OP_LLVM_arg 0, DW_OP_LLVM_arg 1, DW_OP_constu 18446744073709551615, DW_OP_xor, DW_OP_or, DW_OP_stack_value, DW_OP_LLVM_fragment 40 8] undef, undef
	#DEBUG_VALUE: has_small_order:c <- [DW_OP_LLVM_arg 0, DW_OP_LLVM_arg 1, DW_OP_constu 18446744073709551615, DW_OP_xor, DW_OP_or, DW_OP_stack_value, DW_OP_LLVM_fragment 32 8] undef, undef
	.loc	2 0 18                          # crypto_scalarmult/curve25519/ref10/x25519_ref10.c:0:18
	movzbl	30(%rdx), %r14d
.Ltmp28:
	#DEBUG_VALUE: has_small_order:i <- 0
	.loc	2 59 18                         # crypto_scalarmult/curve25519/ref10/x25519_ref10.c:59:18 @[ crypto_scalarmult/curve25519/ref10/x25519_ref10.c:90:9 ]
	orb	%r14b, %al
	orb	%al, %r9b
.Ltmp29:
	#DEBUG_VALUE: has_small_order:c <- [DW_OP_LLVM_fragment 0 8] $r9b
	#DEBUG_VALUE: has_small_order:i <- 1
	#DEBUG_VALUE: has_small_order:c <- [DW_OP_LLVM_fragment 8 8] undef
	#DEBUG_VALUE: has_small_order:i <- 2
	.loc	2 59 26                         # crypto_scalarmult/curve25519/ref10/x25519_ref10.c:59:26 @[ crypto_scalarmult/curve25519/ref10/x25519_ref10.c:90:9 ]
	movl	%r14d, %r10d
	xorb	$-72, %r10b
	.loc	2 59 18                         # crypto_scalarmult/curve25519/ref10/x25519_ref10.c:59:18 @[ crypto_scalarmult/curve25519/ref10/x25519_ref10.c:90:9 ]
	orb	%r15b, %r10b
.Ltmp30:
	#DEBUG_VALUE: has_small_order:c <- [DW_OP_LLVM_fragment 24 8] undef
	#DEBUG_VALUE: has_small_order:i <- 4
	#DEBUG_VALUE: has_small_order:c <- [DW_OP_LLVM_fragment 16 8] undef
	#DEBUG_VALUE: has_small_order:i <- 3
	#DEBUG_VALUE: has_small_order:c <- [DW_OP_LLVM_fragment 32 8] undef
	#DEBUG_VALUE: has_small_order:i <- 5
	#DEBUG_VALUE: has_small_order:c <- [DW_OP_LLVM_fragment 40 8] undef
	#DEBUG_VALUE: has_small_order:i <- 6
	#DEBUG_VALUE: has_small_order:c <- [DW_OP_LLVM_fragment 48 8] undef
	#DEBUG_VALUE: has_small_order:i <- 7
	#DEBUG_VALUE: has_small_order:j <- 31
	.loc	2 0 18                          # crypto_scalarmult/curve25519/ref10/x25519_ref10.c:0:18
	movzbl	31(%rdx), %r8d
	andl	$127, %r8d
.Ltmp31:
	#DEBUG_VALUE: has_small_order:i <- 0
	#DEBUG_VALUE: has_small_order:c <- [DW_OP_LLVM_fragment 0 8] undef
	#DEBUG_VALUE: has_small_order:i <- 1
	.loc	2 59 18                         # crypto_scalarmult/curve25519/ref10/x25519_ref10.c:59:18 @[ crypto_scalarmult/curve25519/ref10/x25519_ref10.c:90:9 ]
	orb	%r8b, %al
.Ltmp32:
	.loc	2 63 14 is_stmt 1               # crypto_scalarmult/curve25519/ref10/x25519_ref10.c:63:14 @[ crypto_scalarmult/curve25519/ref10/x25519_ref10.c:90:9 ]
	orb	%bl, %al
.Ltmp33:
	#DEBUG_VALUE: has_small_order:c <- [DW_OP_LLVM_fragment 8 8] $al
	#DEBUG_VALUE: has_small_order:i <- 2
	.loc	2 57 5                          # crypto_scalarmult/curve25519/ref10/x25519_ref10.c:57:5 @[ crypto_scalarmult/curve25519/ref10/x25519_ref10.c:90:9 ]
	movd	%xmm6, %ebx
.Ltmp34:
	.loc	2 59 18                         # crypto_scalarmult/curve25519/ref10/x25519_ref10.c:59:18 @[ crypto_scalarmult/curve25519/ref10/x25519_ref10.c:90:9 ]
	orb	%r8b, %r10b
.Ltmp35:
	.loc	2 63 14                         # crypto_scalarmult/curve25519/ref10/x25519_ref10.c:63:14 @[ crypto_scalarmult/curve25519/ref10/x25519_ref10.c:90:9 ]
	orb	%bl, %r10b
.Ltmp36:
	#DEBUG_VALUE: has_small_order:c <- [DW_OP_LLVM_fragment 16 8] $r10b
	#DEBUG_VALUE: has_small_order:i <- 3
	.loc	2 57 5                          # crypto_scalarmult/curve25519/ref10/x25519_ref10.c:57:5 @[ crypto_scalarmult/curve25519/ref10/x25519_ref10.c:90:9 ]
	movd	%xmm4, %ebx
.Ltmp37:
	.loc	2 59 18                         # crypto_scalarmult/curve25519/ref10/x25519_ref10.c:59:18 @[ crypto_scalarmult/curve25519/ref10/x25519_ref10.c:90:9 ]
	andb	%r14b, %cl
	.loc	2 59 26 is_stmt 0               # crypto_scalarmult/curve25519/ref10/x25519_ref10.c:59:26 @[ crypto_scalarmult/curve25519/ref10/x25519_ref10.c:90:9 ]
	xorb	$17, %r14b
	.loc	2 59 18                         # crypto_scalarmult/curve25519/ref10/x25519_ref10.c:59:18 @[ crypto_scalarmult/curve25519/ref10/x25519_ref10.c:90:9 ]
	orb	%bpl, %r14b
.Ltmp38:
	.loc	2 63 31 is_stmt 1               # crypto_scalarmult/curve25519/ref10/x25519_ref10.c:63:31 @[ crypto_scalarmult/curve25519/ref10/x25519_ref10.c:90:9 ]
	movl	%r8d, %ebp
	xorb	$87, %bpl
.Ltmp39:
	.loc	2 59 18                         # crypto_scalarmult/curve25519/ref10/x25519_ref10.c:59:18 @[ crypto_scalarmult/curve25519/ref10/x25519_ref10.c:90:9 ]
	orb	%r14b, %bpl
.Ltmp40:
	.loc	2 63 14                         # crypto_scalarmult/curve25519/ref10/x25519_ref10.c:63:14 @[ crypto_scalarmult/curve25519/ref10/x25519_ref10.c:90:9 ]
	orb	%bl, %bpl
.Ltmp41:
	#DEBUG_VALUE: has_small_order:c <- [DW_OP_LLVM_fragment 24 8] $bpl
	#DEBUG_VALUE: has_small_order:i <- 4
	.loc	2 57 5                          # crypto_scalarmult/curve25519/ref10/x25519_ref10.c:57:5 @[ crypto_scalarmult/curve25519/ref10/x25519_ref10.c:90:9 ]
	movd	%xmm3, %ebx
.Ltmp42:
	.loc	2 59 18                         # crypto_scalarmult/curve25519/ref10/x25519_ref10.c:59:18 @[ crypto_scalarmult/curve25519/ref10/x25519_ref10.c:90:9 ]
	por	%xmm2, %xmm1
.Ltmp43:
	.loc	2 57 5                          # crypto_scalarmult/curve25519/ref10/x25519_ref10.c:57:5 @[ crypto_scalarmult/curve25519/ref10/x25519_ref10.c:90:9 ]
	movdqa	%xmm1, %xmm0
	psrld	$16, %xmm0
	por	%xmm1, %xmm0
	movdqa	%xmm0, %xmm1
	psrlw	$8, %xmm1
	por	%xmm0, %xmm1
.Ltmp44:
	.loc	2 59 18                         # crypto_scalarmult/curve25519/ref10/x25519_ref10.c:59:18 @[ crypto_scalarmult/curve25519/ref10/x25519_ref10.c:90:9 ]
	notb	%cl
	movzbl	%r9b, %r9d
.Ltmp45:
	.loc	2 63 14                         # crypto_scalarmult/curve25519/ref10/x25519_ref10.c:63:14 @[ crypto_scalarmult/curve25519/ref10/x25519_ref10.c:90:9 ]
	orl	%r8d, %r9d
.Ltmp46:
	#DEBUG_VALUE: has_small_order:c <- [DW_OP_LLVM_fragment 0 8] $r9d
	.loc	2 63 31 is_stmt 0               # crypto_scalarmult/curve25519/ref10/x25519_ref10.c:63:31 @[ crypto_scalarmult/curve25519/ref10/x25519_ref10.c:90:9 ]
	xorb	$127, %r8b
.Ltmp47:
	.loc	2 59 18 is_stmt 1               # crypto_scalarmult/curve25519/ref10/x25519_ref10.c:59:18 @[ crypto_scalarmult/curve25519/ref10/x25519_ref10.c:90:9 ]
	orb	%cl, %r8b
.Ltmp48:
	.loc	2 57 5                          # crypto_scalarmult/curve25519/ref10/x25519_ref10.c:57:5 @[ crypto_scalarmult/curve25519/ref10/x25519_ref10.c:90:9 ]
	movd	%xmm1, %ecx
.Ltmp49:
	.loc	2 63 14                         # crypto_scalarmult/curve25519/ref10/x25519_ref10.c:63:14 @[ crypto_scalarmult/curve25519/ref10/x25519_ref10.c:90:9 ]
	orb	%r8b, %cl
.Ltmp50:
	#DEBUG_VALUE: has_small_order:c <- [DW_OP_LLVM_fragment 32 8] $cl
	#DEBUG_VALUE: has_small_order:i <- 5
	orb	%r8b, %bl
.Ltmp51:
	#DEBUG_VALUE: has_small_order:c <- [DW_OP_LLVM_fragment 40 8] $bl
	#DEBUG_VALUE: has_small_order:i <- 6
	orb	%r11b, %r8b
.Ltmp52:
	#DEBUG_VALUE: has_small_order:c <- [DW_OP_LLVM_fragment 48 8] $r8b
	#DEBUG_VALUE: has_small_order:i <- 0
	#DEBUG_VALUE: has_small_order:k <- 0
	.loc	2 67 20                         # crypto_scalarmult/curve25519/ref10/x25519_ref10.c:67:20 @[ crypto_scalarmult/curve25519/ref10/x25519_ref10.c:90:9 ]
	decl	%r9d
.Ltmp53:
	#DEBUG_VALUE: has_small_order:k <- $r9d
	#DEBUG_VALUE: has_small_order:i <- 1
	.loc	2 67 15 is_stmt 0               # crypto_scalarmult/curve25519/ref10/x25519_ref10.c:67:15 @[ crypto_scalarmult/curve25519/ref10/x25519_ref10.c:90:9 ]
	movzbl	%al, %eax
.Ltmp54:
	.loc	2 67 20                         # crypto_scalarmult/curve25519/ref10/x25519_ref10.c:67:20 @[ crypto_scalarmult/curve25519/ref10/x25519_ref10.c:90:9 ]
	decl	%eax
	.loc	2 67 11                         # crypto_scalarmult/curve25519/ref10/x25519_ref10.c:67:11 @[ crypto_scalarmult/curve25519/ref10/x25519_ref10.c:90:9 ]
	orl	%r9d, %eax
.Ltmp55:
	#DEBUG_VALUE: has_small_order:k <- $eax
	#DEBUG_VALUE: has_small_order:i <- 2
	.loc	2 67 15                         # crypto_scalarmult/curve25519/ref10/x25519_ref10.c:67:15 @[ crypto_scalarmult/curve25519/ref10/x25519_ref10.c:90:9 ]
	movzbl	%r10b, %r9d
	.loc	2 67 20                         # crypto_scalarmult/curve25519/ref10/x25519_ref10.c:67:20 @[ crypto_scalarmult/curve25519/ref10/x25519_ref10.c:90:9 ]
	decl	%r9d
	.loc	2 67 11                         # crypto_scalarmult/curve25519/ref10/x25519_ref10.c:67:11 @[ crypto_scalarmult/curve25519/ref10/x25519_ref10.c:90:9 ]
	orl	%eax, %r9d
.Ltmp56:
	#DEBUG_VALUE: has_small_order:k <- $r9d
	#DEBUG_VALUE: has_small_order:i <- 3
	.loc	2 67 15                         # crypto_scalarmult/curve25519/ref10/x25519_ref10.c:67:15 @[ crypto_scalarmult/curve25519/ref10/x25519_ref10.c:90:9 ]
	movzbl	%bpl, %eax
	.loc	2 67 20                         # crypto_scalarmult/curve25519/ref10/x25519_ref10.c:67:20 @[ crypto_scalarmult/curve25519/ref10/x25519_ref10.c:90:9 ]
	decl	%eax
.Ltmp57:
	#DEBUG_VALUE: has_small_order:i <- 4
	#DEBUG_VALUE: has_small_order:k <- [DW_OP_LLVM_arg 0, DW_OP_LLVM_arg 1, DW_OP_or, DW_OP_stack_value] $eax, $r9d
	.loc	2 67 15                         # crypto_scalarmult/curve25519/ref10/x25519_ref10.c:67:15 @[ crypto_scalarmult/curve25519/ref10/x25519_ref10.c:90:9 ]
	movzbl	%cl, %ecx
.Ltmp58:
	.loc	2 67 20                         # crypto_scalarmult/curve25519/ref10/x25519_ref10.c:67:20 @[ crypto_scalarmult/curve25519/ref10/x25519_ref10.c:90:9 ]
	decl	%ecx
	.loc	2 67 11                         # crypto_scalarmult/curve25519/ref10/x25519_ref10.c:67:11 @[ crypto_scalarmult/curve25519/ref10/x25519_ref10.c:90:9 ]
	orl	%eax, %ecx
	orl	%r9d, %ecx
.Ltmp59:
	#DEBUG_VALUE: has_small_order:i <- 5
	#DEBUG_VALUE: has_small_order:k <- [DW_OP_LLVM_arg 0, DW_OP_LLVM_arg 1, DW_OP_LLVM_arg 2, DW_OP_or, DW_OP_or, DW_OP_stack_value] undef, undef, undef
	.loc	2 67 15                         # crypto_scalarmult/curve25519/ref10/x25519_ref10.c:67:15 @[ crypto_scalarmult/curve25519/ref10/x25519_ref10.c:90:9 ]
	movzbl	%bl, %eax
	.loc	2 67 20                         # crypto_scalarmult/curve25519/ref10/x25519_ref10.c:67:20 @[ crypto_scalarmult/curve25519/ref10/x25519_ref10.c:90:9 ]
	decl	%eax
.Ltmp60:
	#DEBUG_VALUE: has_small_order:i <- 6
	#DEBUG_VALUE: has_small_order:k <- [DW_OP_LLVM_arg 0, DW_OP_plus_uconst 511, DW_OP_LLVM_arg 1, DW_OP_LLVM_arg 2, DW_OP_or, DW_OP_or, DW_OP_stack_value] undef, undef, undef
	.loc	2 67 15                         # crypto_scalarmult/curve25519/ref10/x25519_ref10.c:67:15 @[ crypto_scalarmult/curve25519/ref10/x25519_ref10.c:90:9 ]
	movzbl	%r8b, %r8d
.Ltmp61:
	.loc	2 67 20                         # crypto_scalarmult/curve25519/ref10/x25519_ref10.c:67:20 @[ crypto_scalarmult/curve25519/ref10/x25519_ref10.c:90:9 ]
	decl	%r8d
	.loc	2 67 11                         # crypto_scalarmult/curve25519/ref10/x25519_ref10.c:67:11 @[ crypto_scalarmult/curve25519/ref10/x25519_ref10.c:90:9 ]
	orl	%eax, %r8d
	orl	%ecx, %r8d
	movl	$-1, %eax
.Ltmp62:
	#DEBUG_VALUE: has_small_order:i <- 7
	#DEBUG_VALUE: has_small_order:k <- [DW_OP_LLVM_arg 0, DW_OP_plus_uconst 511, DW_OP_LLVM_arg 1, DW_OP_LLVM_arg 2, DW_OP_LLVM_arg 3, DW_OP_or, DW_OP_or, DW_OP_or, DW_OP_stack_value] undef, undef, undef, undef
	.loc	2 90 9 is_stmt 1                # crypto_scalarmult/curve25519/ref10/x25519_ref10.c:90:9
	testl	$256, %r8d                      # imm = 0x100
	jne	.LBB0_4
.Ltmp63:
# %bb.1:                                # %.preheader.preheader
	#DEBUG_VALUE: crypto_scalarmult_curve25519_ref10:q <- $rdi
	#DEBUG_VALUE: crypto_scalarmult_curve25519_ref10:n <- $rsi
	#DEBUG_VALUE: crypto_scalarmult_curve25519_ref10:p <- $rdx
	#DEBUG_VALUE: crypto_scalarmult_curve25519_ref10:t <- [DW_OP_plus_uconst 544, DW_OP_deref] $rsp
	#DEBUG_VALUE: crypto_scalarmult_curve25519_ref10:x2 <- [DW_OP_plus_uconst 208, DW_OP_deref] $rsp
	#DEBUG_VALUE: crypto_scalarmult_curve25519_ref10:z2 <- [DW_OP_plus_uconst 112, DW_OP_deref] $rsp
	#DEBUG_VALUE: crypto_scalarmult_curve25519_ref10:z3 <- [DW_OP_plus_uconst 416, DW_OP_deref] $rsp
	.loc	2 0 9 is_stmt 0                 # crypto_scalarmult/curve25519/ref10/x25519_ref10.c:0:9
	movq	%rdi, 464(%rsp)                 # 8-byte Spill
.Ltmp64:
	#DEBUG_VALUE: crypto_scalarmult_curve25519_ref10:q <- [DW_OP_plus_uconst 464] [$rsp+0]
	.loc	2 94 14 is_stmt 1               # crypto_scalarmult/curve25519/ref10/x25519_ref10.c:94:14
	movups	(%rsi), %xmm0
	movups	16(%rsi), %xmm1
	movaps	%xmm0, 544(%rsp)
	movaps	%xmm1, 560(%rsp)
.Ltmp65:
	#DEBUG_VALUE: crypto_scalarmult_curve25519_ref10:t <- [DW_OP_plus_uconst 544, DW_OP_deref] $rsp
	#DEBUG_VALUE: crypto_scalarmult_curve25519_ref10:i <- undef
	.loc	2 96 10                         # crypto_scalarmult/curve25519/ref10/x25519_ref10.c:96:10
	andb	$-8, 544(%rsp)
	.loc	2 97 11                         # crypto_scalarmult/curve25519/ref10/x25519_ref10.c:97:11
	movzbl	575(%rsp), %eax
	andb	$63, %al
.Ltmp66:
	#DEBUG_VALUE: crypto_scalarmult_curve25519_ref10:t <- [DW_OP_plus_uconst 544, DW_OP_deref, DW_OP_LLVM_fragment 0 248] $rsp
	#DEBUG_VALUE: crypto_scalarmult_curve25519_ref10:t <- [DW_OP_constu 63, DW_OP_and, DW_OP_stack_value, DW_OP_LLVM_fragment 248 8] undef
	.loc	2 98 11                         # crypto_scalarmult/curve25519/ref10/x25519_ref10.c:98:11
	orb	$64, %al
	movb	%al, 575(%rsp)
.Ltmp67:
	#DEBUG_VALUE: crypto_scalarmult_curve25519_ref10:t <- [DW_OP_plus_uconst 544, DW_OP_deref] $rsp
	.loc	2 0 11 is_stmt 0                # crypto_scalarmult/curve25519/ref10/x25519_ref10.c:0:11
	leaq	496(%rsp), %rdi
	.loc	2 99 5 is_stmt 1                # crypto_scalarmult/curve25519/ref10/x25519_ref10.c:99:5
	movq	%rdx, %rsi
.Ltmp68:
	#DEBUG_VALUE: crypto_scalarmult_curve25519_ref10:n <- [DW_OP_LLVM_entry_value 1] $rsi
	callq	fe25519_frombytes@PLT
.Ltmp69:
	#DEBUG_VALUE: crypto_scalarmult_curve25519_ref10:p <- [DW_OP_LLVM_entry_value 1] $rdx
	#DEBUG_VALUE: fe25519_1:h <- [DW_OP_plus_uconst 208, DW_OP_stack_value] $rsp
	.file	7 "./include/sodium/private" "ed25519_ref10_fe_51.h"
	.loc	7 23 10                         # ./include/sodium/private/ed25519_ref10_fe_51.h:23:10 @[ crypto_scalarmult/curve25519/ref10/x25519_ref10.c:100:5 ]
	movq	$1, 208(%rsp)
	#DEBUG_VALUE: crypto_scalarmult_curve25519_ref10:x2 <- [DW_OP_plus_uconst 208, DW_OP_deref] $rsp
.Ltmp70:
	#DEBUG_VALUE: memset:__ch <- 0
	#DEBUG_VALUE: memset:__len <- 32
	#DEBUG_VALUE: memset:__dest <- undef
	.file	8 "/usr/include/x86_64-linux-gnu/bits" "string_fortified.h"
	.loc	8 59 10                         # /usr/include/x86_64-linux-gnu/bits/string_fortified.h:59:10 @[ ./include/sodium/private/ed25519_ref10_fe_51.h:24:5 @[ crypto_scalarmult/curve25519/ref10/x25519_ref10.c:100:5 ] ]
	xorps	%xmm0, %xmm0
	movups	%xmm0, 216(%rsp)
	movups	%xmm0, 232(%rsp)
.Ltmp71:
	#DEBUG_VALUE: fe25519_0:h <- [DW_OP_plus_uconst 112, DW_OP_stack_value] $rsp
	#DEBUG_VALUE: memset:__dest <- [DW_OP_plus_uconst 112, DW_OP_stack_value] $rsp
	#DEBUG_VALUE: memset:__ch <- 0
	#DEBUG_VALUE: memset:__len <- 40
	.loc	8 59 10 is_stmt 0               # /usr/include/x86_64-linux-gnu/bits/string_fortified.h:59:10 @[ ./include/sodium/private/ed25519_ref10_fe_51.h:13:5 @[ crypto_scalarmult/curve25519/ref10/x25519_ref10.c:101:5 ] ]
	movaps	%xmm0, 112(%rsp)
	movaps	%xmm0, 128(%rsp)
	movq	$0, 144(%rsp)
.Ltmp72:
	#DEBUG_VALUE: crypto_scalarmult_curve25519_ref10:z2 <- [DW_OP_plus_uconst 112, DW_OP_deref] $rsp
	#DEBUG_VALUE: fe25519_copy:h <- undef
	#DEBUG_VALUE: fe25519_copy:f <- [DW_OP_plus_uconst 496, DW_OP_stack_value] $rsp
	#DEBUG_VALUE: memcpy:__dest <- undef
	#DEBUG_VALUE: memcpy:__src <- [DW_OP_plus_uconst 496, DW_OP_stack_value] $rsp
	#DEBUG_VALUE: memcpy:__len <- 40
	.loc	8 29 10 is_stmt 1               # /usr/include/x86_64-linux-gnu/bits/string_fortified.h:29:10 @[ ./include/sodium/private/ed25519_ref10_fe_51.h:194:5 @[ crypto_scalarmult/curve25519/ref10/x25519_ref10.c:102:5 ] ]
	movq	496(%rsp), %r13
.Ltmp73:
	#DEBUG_VALUE: crypto_scalarmult_curve25519_ref10:x3 <- [DW_OP_LLVM_fragment 0 64] $r13
	movq	504(%rsp), %r14
.Ltmp74:
	#DEBUG_VALUE: crypto_scalarmult_curve25519_ref10:x3 <- [DW_OP_LLVM_fragment 64 64] $r14
	movq	512(%rsp), %r12
.Ltmp75:
	#DEBUG_VALUE: crypto_scalarmult_curve25519_ref10:x3 <- [DW_OP_LLVM_fragment 128 64] $r12
	movq	520(%rsp), %rbp
.Ltmp76:
	#DEBUG_VALUE: crypto_scalarmult_curve25519_ref10:x3 <- [DW_OP_LLVM_fragment 192 64] $rbp
	movq	528(%rsp), %rbx
.Ltmp77:
	#DEBUG_VALUE: crypto_scalarmult_curve25519_ref10:x3 <- [DW_OP_LLVM_fragment 256 64] $rbx
	#DEBUG_VALUE: fe25519_1:h <- [DW_OP_plus_uconst 416, DW_OP_stack_value] $rsp
	.loc	7 23 10                         # ./include/sodium/private/ed25519_ref10_fe_51.h:23:10 @[ crypto_scalarmult/curve25519/ref10/x25519_ref10.c:103:5 ]
	movq	$1, 416(%rsp)
	#DEBUG_VALUE: crypto_scalarmult_curve25519_ref10:z3 <- [DW_OP_plus_uconst 416, DW_OP_deref] $rsp
.Ltmp78:
	#DEBUG_VALUE: memset:__ch <- 0
	#DEBUG_VALUE: memset:__len <- 32
	#DEBUG_VALUE: memset:__dest <- undef
	.loc	8 59 10                         # /usr/include/x86_64-linux-gnu/bits/string_fortified.h:59:10 @[ ./include/sodium/private/ed25519_ref10_fe_51.h:24:5 @[ crypto_scalarmult/curve25519/ref10/x25519_ref10.c:103:5 ] ]
	movups	%xmm0, 424(%rsp)
	movups	%xmm0, 440(%rsp)
	movl	$254, %ecx
	xorl	%eax, %eax
.Ltmp79:
	#DEBUG_VALUE: crypto_scalarmult_curve25519_ref10:swap <- 0
	#DEBUG_VALUE: crypto_scalarmult_curve25519_ref10:pos <- 254
	.loc	8 0 10 is_stmt 0                # :0:10
.Ltmp80:
	.p2align	4
.LBB0_2:                                # =>This Inner Loop Header: Depth=1
	#DEBUG_VALUE: crypto_scalarmult_curve25519_ref10:q <- [DW_OP_plus_uconst 464] [$rsp+0]
	#DEBUG_VALUE: crypto_scalarmult_curve25519_ref10:n <- [DW_OP_LLVM_entry_value 1] $rsi
	#DEBUG_VALUE: crypto_scalarmult_curve25519_ref10:p <- [DW_OP_LLVM_entry_value 1] $rdx
	#DEBUG_VALUE: crypto_scalarmult_curve25519_ref10:t <- [DW_OP_plus_uconst 544, DW_OP_deref] $rsp
	#DEBUG_VALUE: crypto_scalarmult_curve25519_ref10:x2 <- [DW_OP_plus_uconst 208, DW_OP_deref] $rsp
	#DEBUG_VALUE: crypto_scalarmult_curve25519_ref10:z2 <- [DW_OP_plus_uconst 112, DW_OP_deref] $rsp
	#DEBUG_VALUE: crypto_scalarmult_curve25519_ref10:x3 <- [DW_OP_LLVM_fragment 0 64] $r13
	#DEBUG_VALUE: crypto_scalarmult_curve25519_ref10:x3 <- [DW_OP_LLVM_fragment 64 64] $r14
	#DEBUG_VALUE: crypto_scalarmult_curve25519_ref10:x3 <- [DW_OP_LLVM_fragment 128 64] $r12
	#DEBUG_VALUE: crypto_scalarmult_curve25519_ref10:x3 <- [DW_OP_LLVM_fragment 192 64] $rbp
	#DEBUG_VALUE: crypto_scalarmult_curve25519_ref10:x3 <- [DW_OP_LLVM_fragment 256 64] $rbx
	movl	%ecx, 204(%rsp)                 # 4-byte Spill
                                        # kill: def $eax killed $eax def $rax
.Ltmp81:
	#DEBUG_VALUE: crypto_scalarmult_curve25519_ref10:swap <- $eax
	#DEBUG_VALUE: crypto_scalarmult_curve25519_ref10:pos <- [DW_OP_plus_uconst 204, DW_OP_deref] $rsp
                                        # kill: def $ecx killed $ecx def $rcx
	.loc	2 107 19 is_stmt 1              # crypto_scalarmult/curve25519/ref10/x25519_ref10.c:107:19
	shrl	$3, %ecx
	.loc	2 107 13 is_stmt 0              # crypto_scalarmult/curve25519/ref10/x25519_ref10.c:107:13
	movzbl	544(%rsp,%rcx), %ecx
.Ltmp82:
	#DEBUG_VALUE: crypto_scalarmult_curve25519_ref10:b <- undef
	.loc	2 0 13                          # crypto_scalarmult/curve25519/ref10/x25519_ref10.c:0:13
	movl	204(%rsp), %edx                 # 4-byte Reload
	.loc	2 108 11 is_stmt 1              # crypto_scalarmult/curve25519/ref10/x25519_ref10.c:108:11
	andl	$7, %edx
	btl	%edx, %ecx
	movl	$0, %ecx
	setb	%cl
	#DEBUG_VALUE: crypto_scalarmult_curve25519_ref10:b <- undef
.Ltmp83:
	#DEBUG_VALUE: crypto_scalarmult_curve25519_ref10:swap <- undef
	.loc	2 0 11 is_stmt 0                # crypto_scalarmult/curve25519/ref10/x25519_ref10.c:0:11
	movl	%ecx, 316(%rsp)                 # 4-byte Spill
	.loc	2 109 14 is_stmt 1              # crypto_scalarmult/curve25519/ref10/x25519_ref10.c:109:14
	xorl	%ecx, %eax
.Ltmp84:
	#DEBUG_VALUE: crypto_scalarmult_curve25519_ref10:swap <- $eax
	#DEBUG_VALUE: fe25519_cswap:b <- $eax
	#DEBUG_VALUE: fe25519_cswap:f <- [DW_OP_plus_uconst 208, DW_OP_stack_value] $rsp
	#DEBUG_VALUE: fe25519_cswap:g <- undef
	.loc	7 148 39                        # ./include/sodium/private/ed25519_ref10_fe_51.h:148:39 @[ crypto_scalarmult/curve25519/ref10/x25519_ref10.c:110:9 ]
	negq	%rax
.Ltmp85:
	#DEBUG_VALUE: fe25519_cswap:mask <- $rax
	.loc	7 150 19                        # ./include/sodium/private/ed25519_ref10_fe_51.h:150:19 @[ crypto_scalarmult/curve25519/ref10/x25519_ref10.c:110:9 ]
	movq	208(%rsp), %r8
.Ltmp86:
	#DEBUG_VALUE: fe25519_cswap:f0 <- $r8
	.loc	7 151 19                        # ./include/sodium/private/ed25519_ref10_fe_51.h:151:19 @[ crypto_scalarmult/curve25519/ref10/x25519_ref10.c:110:9 ]
	movq	216(%rsp), %r11
.Ltmp87:
	#DEBUG_VALUE: fe25519_cswap:f1 <- $r11
	.loc	7 152 19                        # ./include/sodium/private/ed25519_ref10_fe_51.h:152:19 @[ crypto_scalarmult/curve25519/ref10/x25519_ref10.c:110:9 ]
	movq	224(%rsp), %r10
.Ltmp88:
	#DEBUG_VALUE: fe25519_cswap:f2 <- $r10
	.loc	7 153 19                        # ./include/sodium/private/ed25519_ref10_fe_51.h:153:19 @[ crypto_scalarmult/curve25519/ref10/x25519_ref10.c:110:9 ]
	movq	232(%rsp), %r9
.Ltmp89:
	#DEBUG_VALUE: fe25519_cswap:f3 <- $r9
	.loc	7 154 19                        # ./include/sodium/private/ed25519_ref10_fe_51.h:154:19 @[ crypto_scalarmult/curve25519/ref10/x25519_ref10.c:110:9 ]
	movq	240(%rsp), %rdi
.Ltmp90:
	#DEBUG_VALUE: fe25519_cswap:f4 <- $rdi
	#DEBUG_VALUE: fe25519_cswap:g0 <- $r13
	#DEBUG_VALUE: fe25519_cswap:g1 <- $r14
	#DEBUG_VALUE: fe25519_cswap:g2 <- $r12
	#DEBUG_VALUE: fe25519_cswap:g3 <- $rbp
	#DEBUG_VALUE: fe25519_cswap:g4 <- $rbx
	.loc	7 162 22                        # ./include/sodium/private/ed25519_ref10_fe_51.h:162:22 @[ crypto_scalarmult/curve25519/ref10/x25519_ref10.c:110:9 ]
	movq	%r13, %rcx
	xorq	%r8, %rcx
.Ltmp91:
	#DEBUG_VALUE: fe25519_cswap:x0 <- $rcx
	.loc	7 0 22 is_stmt 0                # ./include/sodium/private/ed25519_ref10_fe_51.h:0:22
	movq	%rcx, %rsi
	.loc	7 163 22 is_stmt 1              # ./include/sodium/private/ed25519_ref10_fe_51.h:163:22 @[ crypto_scalarmult/curve25519/ref10/x25519_ref10.c:110:9 ]
	movq	%r14, %rcx
.Ltmp92:
	#DEBUG_VALUE: fe25519_cswap:x0 <- $rsi
	xorq	%r11, %rcx
.Ltmp93:
	#DEBUG_VALUE: fe25519_cswap:x1 <- $rcx
	.loc	7 164 22                        # ./include/sodium/private/ed25519_ref10_fe_51.h:164:22 @[ crypto_scalarmult/curve25519/ref10/x25519_ref10.c:110:9 ]
	movq	%r12, %rdx
	xorq	%r10, %rdx
.Ltmp94:
	#DEBUG_VALUE: fe25519_cswap:x2 <- $rdx
	#DEBUG_VALUE: fe25519_cswap:x3 <- undef
	#DEBUG_VALUE: fe25519_cswap:x4 <- undef
	.loc	7 168 8                         # ./include/sodium/private/ed25519_ref10_fe_51.h:168:8 @[ crypto_scalarmult/curve25519/ref10/x25519_ref10.c:110:9 ]
	andq	%rax, %rsi
.Ltmp95:
	#DEBUG_VALUE: fe25519_cswap:x0 <- $rsi
	#DEBUG_VALUE: fe25519_cswap:x1 <- undef
	#DEBUG_VALUE: fe25519_cswap:x2 <- undef
	#DEBUG_VALUE: fe25519_cswap:x3 <- undef
	#DEBUG_VALUE: fe25519_cswap:x4 <- undef
	.loc	7 174 15                        # ./include/sodium/private/ed25519_ref10_fe_51.h:174:15 @[ crypto_scalarmult/curve25519/ref10/x25519_ref10.c:110:9 ]
	xorq	%rsi, %r8
.Ltmp96:
	#DEBUG_VALUE: crypto_scalarmult_curve25519_ref10:x2 <- [DW_OP_LLVM_fragment 0 64] $r8
	#DEBUG_VALUE: crypto_scalarmult_curve25519_ref10:x2 <- [DW_OP_plus_uconst 208, DW_OP_plus_uconst 8, DW_OP_deref, DW_OP_LLVM_fragment 64 256] $rsp
	#DEBUG_VALUE: crypto_scalarmult_curve25519_ref10:x2 <- [DW_OP_LLVM_fragment 64 64] undef
	#DEBUG_VALUE: crypto_scalarmult_curve25519_ref10:x2 <- [DW_OP_plus_uconst 208, DW_OP_plus_uconst 16, DW_OP_deref, DW_OP_LLVM_fragment 128 192] $rsp
	#DEBUG_VALUE: crypto_scalarmult_curve25519_ref10:x2 <- [DW_OP_LLVM_fragment 128 64] undef
	#DEBUG_VALUE: crypto_scalarmult_curve25519_ref10:x2 <- [DW_OP_plus_uconst 208, DW_OP_plus_uconst 24, DW_OP_deref, DW_OP_LLVM_fragment 192 128] $rsp
	#DEBUG_VALUE: crypto_scalarmult_curve25519_ref10:x2 <- [DW_OP_LLVM_fragment 192 64] undef
	#DEBUG_VALUE: crypto_scalarmult_curve25519_ref10:x2 <- [DW_OP_plus_uconst 208, DW_OP_plus_uconst 32, DW_OP_deref, DW_OP_LLVM_fragment 256 64] $rsp
	#DEBUG_VALUE: crypto_scalarmult_curve25519_ref10:x2 <- [DW_OP_LLVM_fragment 256 64] undef
	.loc	7 0 15 is_stmt 0                # ./include/sodium/private/ed25519_ref10_fe_51.h:0:15
	movq	%r8, 48(%rsp)                   # 8-byte Spill
.Ltmp97:
	#DEBUG_VALUE: crypto_scalarmult_curve25519_ref10:x2 <- [DW_OP_plus_uconst 48, DW_OP_deref, DW_OP_LLVM_fragment 0 64] $rsp
	.loc	7 180 15 is_stmt 1              # ./include/sodium/private/ed25519_ref10_fe_51.h:180:15 @[ crypto_scalarmult/curve25519/ref10/x25519_ref10.c:110:9 ]
	xorq	%r13, %rsi
.Ltmp98:
	.loc	7 0 15 is_stmt 0                # ./include/sodium/private/ed25519_ref10_fe_51.h:0:15
	movq	%rsi, 104(%rsp)                 # 8-byte Spill
	.loc	7 165 22 is_stmt 1              # ./include/sodium/private/ed25519_ref10_fe_51.h:165:22 @[ crypto_scalarmult/curve25519/ref10/x25519_ref10.c:110:9 ]
	movq	%rbp, %rsi
.Ltmp99:
	#DEBUG_VALUE: fe25519_cswap:x0 <- [DW_OP_plus_uconst 104, DW_OP_deref] $rsp
	xorq	%r9, %rsi
.Ltmp100:
	#DEBUG_VALUE: fe25519_cswap:x3 <- $rsi
	.loc	7 169 8                         # ./include/sodium/private/ed25519_ref10_fe_51.h:169:8 @[ crypto_scalarmult/curve25519/ref10/x25519_ref10.c:110:9 ]
	andq	%rax, %rcx
.Ltmp101:
	#DEBUG_VALUE: fe25519_cswap:x1 <- $rcx
	.loc	7 175 15                        # ./include/sodium/private/ed25519_ref10_fe_51.h:175:15 @[ crypto_scalarmult/curve25519/ref10/x25519_ref10.c:110:9 ]
	xorq	%rcx, %r11
.Ltmp102:
	#DEBUG_VALUE: crypto_scalarmult_curve25519_ref10:x2 <- [DW_OP_LLVM_fragment 64 64] $r11
	.loc	7 0 15 is_stmt 0                # ./include/sodium/private/ed25519_ref10_fe_51.h:0:15
	movq	%r11, 184(%rsp)                 # 8-byte Spill
	.loc	7 181 15 is_stmt 1              # ./include/sodium/private/ed25519_ref10_fe_51.h:181:15 @[ crypto_scalarmult/curve25519/ref10/x25519_ref10.c:110:9 ]
	xorq	%r14, %rcx
.Ltmp103:
	.loc	7 0 15 is_stmt 0                # ./include/sodium/private/ed25519_ref10_fe_51.h:0:15
	movq	%rcx, 96(%rsp)                  # 8-byte Spill
	.loc	7 166 22 is_stmt 1              # ./include/sodium/private/ed25519_ref10_fe_51.h:166:22 @[ crypto_scalarmult/curve25519/ref10/x25519_ref10.c:110:9 ]
	movq	%rbx, %rcx
	xorq	%rdi, %rcx
.Ltmp104:
	#DEBUG_VALUE: fe25519_cswap:x4 <- $rcx
	.loc	7 170 8                         # ./include/sodium/private/ed25519_ref10_fe_51.h:170:8 @[ crypto_scalarmult/curve25519/ref10/x25519_ref10.c:110:9 ]
	andq	%rax, %rdx
.Ltmp105:
	#DEBUG_VALUE: fe25519_cswap:x2 <- $rdx
	.loc	7 171 8                         # ./include/sodium/private/ed25519_ref10_fe_51.h:171:8 @[ crypto_scalarmult/curve25519/ref10/x25519_ref10.c:110:9 ]
	andq	%rax, %rsi
.Ltmp106:
	#DEBUG_VALUE: fe25519_cswap:x3 <- $rsi
	.loc	7 172 8                         # ./include/sodium/private/ed25519_ref10_fe_51.h:172:8 @[ crypto_scalarmult/curve25519/ref10/x25519_ref10.c:110:9 ]
	andq	%rax, %rcx
.Ltmp107:
	#DEBUG_VALUE: fe25519_cswap:x4 <- $rcx
	.loc	7 176 15                        # ./include/sodium/private/ed25519_ref10_fe_51.h:176:15 @[ crypto_scalarmult/curve25519/ref10/x25519_ref10.c:110:9 ]
	xorq	%rdx, %r10
.Ltmp108:
	#DEBUG_VALUE: crypto_scalarmult_curve25519_ref10:x2 <- [DW_OP_LLVM_fragment 128 64] $r10
	.loc	7 0 15 is_stmt 0                # ./include/sodium/private/ed25519_ref10_fe_51.h:0:15
	movq	%r10, 176(%rsp)                 # 8-byte Spill
	.loc	7 177 15 is_stmt 1              # ./include/sodium/private/ed25519_ref10_fe_51.h:177:15 @[ crypto_scalarmult/curve25519/ref10/x25519_ref10.c:110:9 ]
	xorq	%rsi, %r9
.Ltmp109:
	#DEBUG_VALUE: crypto_scalarmult_curve25519_ref10:x2 <- [DW_OP_LLVM_fragment 192 64] $r9
	.loc	7 0 15 is_stmt 0                # ./include/sodium/private/ed25519_ref10_fe_51.h:0:15
	movq	%r9, 192(%rsp)                  # 8-byte Spill
	.loc	7 178 15 is_stmt 1              # ./include/sodium/private/ed25519_ref10_fe_51.h:178:15 @[ crypto_scalarmult/curve25519/ref10/x25519_ref10.c:110:9 ]
	xorq	%rcx, %rdi
.Ltmp110:
	#DEBUG_VALUE: crypto_scalarmult_curve25519_ref10:x2 <- [DW_OP_LLVM_fragment 256 64] $rdi
	.loc	7 0 15 is_stmt 0                # ./include/sodium/private/ed25519_ref10_fe_51.h:0:15
	movq	%rdi, 72(%rsp)                  # 8-byte Spill
	.loc	7 182 15 is_stmt 1              # ./include/sodium/private/ed25519_ref10_fe_51.h:182:15 @[ crypto_scalarmult/curve25519/ref10/x25519_ref10.c:110:9 ]
	xorq	%r12, %rdx
.Ltmp111:
	.loc	7 0 15 is_stmt 0                # ./include/sodium/private/ed25519_ref10_fe_51.h:0:15
	movq	%rdx, 88(%rsp)                  # 8-byte Spill
	.loc	7 183 15 is_stmt 1              # ./include/sodium/private/ed25519_ref10_fe_51.h:183:15 @[ crypto_scalarmult/curve25519/ref10/x25519_ref10.c:110:9 ]
	xorq	%rbp, %rsi
.Ltmp112:
	.loc	7 0 15 is_stmt 0                # ./include/sodium/private/ed25519_ref10_fe_51.h:0:15
	movq	%rsi, 80(%rsp)                  # 8-byte Spill
	.loc	7 184 15 is_stmt 1              # ./include/sodium/private/ed25519_ref10_fe_51.h:184:15 @[ crypto_scalarmult/curve25519/ref10/x25519_ref10.c:110:9 ]
	xorq	%rbx, %rcx
.Ltmp113:
	#DEBUG_VALUE: fe25519_cswap:f <- [DW_OP_plus_uconst 112, DW_OP_stack_value] $rsp
	#DEBUG_VALUE: fe25519_cswap:g <- [DW_OP_plus_uconst 416, DW_OP_stack_value] $rsp
	#DEBUG_VALUE: fe25519_cswap:b <- undef
	#DEBUG_VALUE: fe25519_cswap:mask <- $rax
	.loc	7 0 15 is_stmt 0                # ./include/sodium/private/ed25519_ref10_fe_51.h:0:15
	movq	%rcx, 32(%rsp)                  # 8-byte Spill
.Ltmp114:
	.loc	7 150 19 is_stmt 1              # ./include/sodium/private/ed25519_ref10_fe_51.h:150:19 @[ crypto_scalarmult/curve25519/ref10/x25519_ref10.c:111:9 ]
	movq	112(%rsp), %rcx
.Ltmp115:
	#DEBUG_VALUE: fe25519_cswap:f0 <- $rcx
	#DEBUG_VALUE: fe25519_cswap:f1 <- undef
	#DEBUG_VALUE: fe25519_cswap:f2 <- undef
	#DEBUG_VALUE: fe25519_cswap:f3 <- undef
	#DEBUG_VALUE: fe25519_cswap:f4 <- undef
	.loc	7 156 19                        # ./include/sodium/private/ed25519_ref10_fe_51.h:156:19 @[ crypto_scalarmult/curve25519/ref10/x25519_ref10.c:111:9 ]
	movq	416(%rsp), %r10
.Ltmp116:
	#DEBUG_VALUE: fe25519_cswap:g0 <- $r10
	#DEBUG_VALUE: fe25519_cswap:g1 <- undef
	#DEBUG_VALUE: fe25519_cswap:g2 <- undef
	#DEBUG_VALUE: fe25519_cswap:g3 <- undef
	#DEBUG_VALUE: fe25519_cswap:g4 <- undef
	.loc	7 0 19 is_stmt 0                # ./include/sodium/private/ed25519_ref10_fe_51.h:0:19
	movq	%r10, (%rsp)                    # 8-byte Spill
.Ltmp117:
	#DEBUG_VALUE: fe25519_cswap:g0 <- [DW_OP_deref] $rsp
	.loc	7 162 22 is_stmt 1              # ./include/sodium/private/ed25519_ref10_fe_51.h:162:22 @[ crypto_scalarmult/curve25519/ref10/x25519_ref10.c:111:9 ]
	xorq	%rcx, %r10
.Ltmp118:
	#DEBUG_VALUE: fe25519_cswap:x0 <- $r10
	.loc	7 151 19                        # ./include/sodium/private/ed25519_ref10_fe_51.h:151:19 @[ crypto_scalarmult/curve25519/ref10/x25519_ref10.c:111:9 ]
	movq	120(%rsp), %rsi
.Ltmp119:
	#DEBUG_VALUE: fe25519_cswap:f1 <- $rsi
	.loc	7 157 19                        # ./include/sodium/private/ed25519_ref10_fe_51.h:157:19 @[ crypto_scalarmult/curve25519/ref10/x25519_ref10.c:111:9 ]
	movq	424(%rsp), %rbx
.Ltmp120:
	#DEBUG_VALUE: fe25519_cswap:g1 <- $rbx
	.loc	7 163 22                        # ./include/sodium/private/ed25519_ref10_fe_51.h:163:22 @[ crypto_scalarmult/curve25519/ref10/x25519_ref10.c:111:9 ]
	movq	%rbx, %r11
.Ltmp121:
	#DEBUG_VALUE: fe25519_cswap:f1 <- [DW_OP_plus_uconst 184, DW_OP_deref] $rsp
	xorq	%rsi, %r11
.Ltmp122:
	#DEBUG_VALUE: fe25519_cswap:x1 <- $r11
	.loc	7 152 19                        # ./include/sodium/private/ed25519_ref10_fe_51.h:152:19 @[ crypto_scalarmult/curve25519/ref10/x25519_ref10.c:111:9 ]
	movq	128(%rsp), %rbp
.Ltmp123:
	#DEBUG_VALUE: fe25519_cswap:f2 <- $rbp
	.loc	7 158 19                        # ./include/sodium/private/ed25519_ref10_fe_51.h:158:19 @[ crypto_scalarmult/curve25519/ref10/x25519_ref10.c:111:9 ]
	movq	432(%rsp), %r14
.Ltmp124:
	#DEBUG_VALUE: fe25519_cswap:g2 <- $r14
	.loc	7 164 22                        # ./include/sodium/private/ed25519_ref10_fe_51.h:164:22 @[ crypto_scalarmult/curve25519/ref10/x25519_ref10.c:111:9 ]
	movq	%r14, %r9
.Ltmp125:
	#DEBUG_VALUE: fe25519_cswap:f3 <- [DW_OP_plus_uconst 192, DW_OP_deref] $rsp
	xorq	%rbp, %r9
.Ltmp126:
	#DEBUG_VALUE: fe25519_cswap:x2 <- $r9
	.loc	7 153 19                        # ./include/sodium/private/ed25519_ref10_fe_51.h:153:19 @[ crypto_scalarmult/curve25519/ref10/x25519_ref10.c:111:9 ]
	movq	136(%rsp), %rdx
.Ltmp127:
	#DEBUG_VALUE: fe25519_cswap:f3 <- $rdx
	.loc	7 159 19                        # ./include/sodium/private/ed25519_ref10_fe_51.h:159:19 @[ crypto_scalarmult/curve25519/ref10/x25519_ref10.c:111:9 ]
	movq	440(%rsp), %r12
.Ltmp128:
	#DEBUG_VALUE: fe25519_cswap:g3 <- $r12
	.loc	7 165 22                        # ./include/sodium/private/ed25519_ref10_fe_51.h:165:22 @[ crypto_scalarmult/curve25519/ref10/x25519_ref10.c:111:9 ]
	movq	%r12, %r8
	xorq	%rdx, %r8
.Ltmp129:
	#DEBUG_VALUE: fe25519_cswap:x3 <- $r8
	.loc	7 154 19                        # ./include/sodium/private/ed25519_ref10_fe_51.h:154:19 @[ crypto_scalarmult/curve25519/ref10/x25519_ref10.c:111:9 ]
	movq	144(%rsp), %r15
.Ltmp130:
	#DEBUG_VALUE: fe25519_cswap:f4 <- $r15
	.loc	7 160 19                        # ./include/sodium/private/ed25519_ref10_fe_51.h:160:19 @[ crypto_scalarmult/curve25519/ref10/x25519_ref10.c:111:9 ]
	movq	448(%rsp), %r13
.Ltmp131:
	#DEBUG_VALUE: fe25519_cswap:g4 <- $r13
	.loc	7 166 22                        # ./include/sodium/private/ed25519_ref10_fe_51.h:166:22 @[ crypto_scalarmult/curve25519/ref10/x25519_ref10.c:111:9 ]
	movq	%r13, %rdi
.Ltmp132:
	#DEBUG_VALUE: fe25519_cswap:f4 <- [DW_OP_plus_uconst 72, DW_OP_deref] $rsp
	xorq	%r15, %rdi
.Ltmp133:
	#DEBUG_VALUE: fe25519_cswap:x4 <- $rdi
	.loc	7 168 8                         # ./include/sodium/private/ed25519_ref10_fe_51.h:168:8 @[ crypto_scalarmult/curve25519/ref10/x25519_ref10.c:111:9 ]
	andq	%rax, %r10
.Ltmp134:
	#DEBUG_VALUE: fe25519_cswap:x0 <- $r10
	.loc	7 169 8                         # ./include/sodium/private/ed25519_ref10_fe_51.h:169:8 @[ crypto_scalarmult/curve25519/ref10/x25519_ref10.c:111:9 ]
	andq	%rax, %r11
.Ltmp135:
	#DEBUG_VALUE: fe25519_cswap:x1 <- $r11
	.loc	7 170 8                         # ./include/sodium/private/ed25519_ref10_fe_51.h:170:8 @[ crypto_scalarmult/curve25519/ref10/x25519_ref10.c:111:9 ]
	andq	%rax, %r9
.Ltmp136:
	#DEBUG_VALUE: fe25519_cswap:x2 <- $r9
	.loc	7 171 8                         # ./include/sodium/private/ed25519_ref10_fe_51.h:171:8 @[ crypto_scalarmult/curve25519/ref10/x25519_ref10.c:111:9 ]
	andq	%rax, %r8
.Ltmp137:
	#DEBUG_VALUE: fe25519_cswap:x3 <- $r8
	.loc	7 172 8                         # ./include/sodium/private/ed25519_ref10_fe_51.h:172:8 @[ crypto_scalarmult/curve25519/ref10/x25519_ref10.c:111:9 ]
	andq	%rax, %rdi
.Ltmp138:
	#DEBUG_VALUE: fe25519_cswap:x4 <- $rdi
	.loc	7 174 15                        # ./include/sodium/private/ed25519_ref10_fe_51.h:174:15 @[ crypto_scalarmult/curve25519/ref10/x25519_ref10.c:111:9 ]
	xorq	%r10, %rcx
.Ltmp139:
	#DEBUG_VALUE: crypto_scalarmult_curve25519_ref10:z2 <- [DW_OP_LLVM_fragment 0 64] $rcx
	#DEBUG_VALUE: crypto_scalarmult_curve25519_ref10:z2 <- [DW_OP_plus_uconst 112, DW_OP_plus_uconst 8, DW_OP_deref, DW_OP_LLVM_fragment 64 256] $rsp
	#DEBUG_VALUE: crypto_scalarmult_curve25519_ref10:z2 <- [DW_OP_LLVM_fragment 64 64] undef
	#DEBUG_VALUE: crypto_scalarmult_curve25519_ref10:z2 <- [DW_OP_plus_uconst 112, DW_OP_plus_uconst 16, DW_OP_deref, DW_OP_LLVM_fragment 128 192] $rsp
	#DEBUG_VALUE: crypto_scalarmult_curve25519_ref10:z2 <- [DW_OP_LLVM_fragment 128 64] undef
	#DEBUG_VALUE: crypto_scalarmult_curve25519_ref10:z2 <- [DW_OP_plus_uconst 112, DW_OP_plus_uconst 24, DW_OP_deref, DW_OP_LLVM_fragment 192 128] $rsp
	#DEBUG_VALUE: crypto_scalarmult_curve25519_ref10:z2 <- [DW_OP_LLVM_fragment 192 64] undef
	#DEBUG_VALUE: crypto_scalarmult_curve25519_ref10:z2 <- [DW_OP_plus_uconst 112, DW_OP_plus_uconst 32, DW_OP_deref, DW_OP_LLVM_fragment 256 64] $rsp
	#DEBUG_VALUE: crypto_scalarmult_curve25519_ref10:z2 <- [DW_OP_LLVM_fragment 256 64] undef
	.loc	7 0 15 is_stmt 0                # ./include/sodium/private/ed25519_ref10_fe_51.h:0:15
	movq	%rcx, 8(%rsp)                   # 8-byte Spill
.Ltmp140:
	#DEBUG_VALUE: crypto_scalarmult_curve25519_ref10:z2 <- [DW_OP_plus_uconst 8, DW_OP_deref, DW_OP_LLVM_fragment 0 64] $rsp
	.loc	7 180 15 is_stmt 1              # ./include/sodium/private/ed25519_ref10_fe_51.h:180:15 @[ crypto_scalarmult/curve25519/ref10/x25519_ref10.c:111:9 ]
	xorq	(%rsp), %r10                    # 8-byte Folded Reload
.Ltmp141:
	#DEBUG_VALUE: crypto_scalarmult_curve25519_ref10:z3 <- [DW_OP_LLVM_fragment 0 64] $r10
	.loc	7 175 15                        # ./include/sodium/private/ed25519_ref10_fe_51.h:175:15 @[ crypto_scalarmult/curve25519/ref10/x25519_ref10.c:111:9 ]
	xorq	%r11, %rsi
.Ltmp142:
	#DEBUG_VALUE: crypto_scalarmult_curve25519_ref10:z2 <- [DW_OP_LLVM_fragment 64 64] $rsi
	.loc	7 0 15 is_stmt 0                # ./include/sodium/private/ed25519_ref10_fe_51.h:0:15
	movq	%rsi, 24(%rsp)                  # 8-byte Spill
	.loc	7 181 15 is_stmt 1              # ./include/sodium/private/ed25519_ref10_fe_51.h:181:15 @[ crypto_scalarmult/curve25519/ref10/x25519_ref10.c:111:9 ]
	xorq	%rbx, %r11
.Ltmp143:
	#DEBUG_VALUE: crypto_scalarmult_curve25519_ref10:z3 <- [DW_OP_LLVM_fragment 64 64] $r11
	.loc	7 176 15                        # ./include/sodium/private/ed25519_ref10_fe_51.h:176:15 @[ crypto_scalarmult/curve25519/ref10/x25519_ref10.c:111:9 ]
	xorq	%r9, %rbp
.Ltmp144:
	#DEBUG_VALUE: crypto_scalarmult_curve25519_ref10:z2 <- [DW_OP_LLVM_fragment 128 64] $rbp
	.loc	7 0 15 is_stmt 0                # ./include/sodium/private/ed25519_ref10_fe_51.h:0:15
	movq	%rbp, (%rsp)                    # 8-byte Spill
.Ltmp145:
	#DEBUG_VALUE: fe25519_cswap:g0 <- undef
	.loc	7 182 15 is_stmt 1              # ./include/sodium/private/ed25519_ref10_fe_51.h:182:15 @[ crypto_scalarmult/curve25519/ref10/x25519_ref10.c:111:9 ]
	xorq	%r14, %r9
.Ltmp146:
	#DEBUG_VALUE: crypto_scalarmult_curve25519_ref10:z3 <- [DW_OP_LLVM_fragment 128 64] $r9
	.loc	7 177 15                        # ./include/sodium/private/ed25519_ref10_fe_51.h:177:15 @[ crypto_scalarmult/curve25519/ref10/x25519_ref10.c:111:9 ]
	xorq	%r8, %rdx
.Ltmp147:
	#DEBUG_VALUE: crypto_scalarmult_curve25519_ref10:z2 <- [DW_OP_LLVM_fragment 192 64] $rdx
	.loc	7 0 15 is_stmt 0                # ./include/sodium/private/ed25519_ref10_fe_51.h:0:15
	movq	%rdx, 40(%rsp)                  # 8-byte Spill
	.loc	7 183 15 is_stmt 1              # ./include/sodium/private/ed25519_ref10_fe_51.h:183:15 @[ crypto_scalarmult/curve25519/ref10/x25519_ref10.c:111:9 ]
	xorq	%r12, %r8
.Ltmp148:
	#DEBUG_VALUE: crypto_scalarmult_curve25519_ref10:z3 <- [DW_OP_LLVM_fragment 192 64] $r8
	.loc	7 178 15                        # ./include/sodium/private/ed25519_ref10_fe_51.h:178:15 @[ crypto_scalarmult/curve25519/ref10/x25519_ref10.c:111:9 ]
	xorq	%rdi, %r15
.Ltmp149:
	#DEBUG_VALUE: crypto_scalarmult_curve25519_ref10:z2 <- [DW_OP_LLVM_fragment 256 64] $r15
	.loc	7 0 15 is_stmt 0                # ./include/sodium/private/ed25519_ref10_fe_51.h:0:15
	movq	%r15, 16(%rsp)                  # 8-byte Spill
	.loc	7 184 15 is_stmt 1              # ./include/sodium/private/ed25519_ref10_fe_51.h:184:15 @[ crypto_scalarmult/curve25519/ref10/x25519_ref10.c:111:9 ]
	xorq	%r13, %rdi
.Ltmp150:
	#DEBUG_VALUE: crypto_scalarmult_curve25519_ref10:z3 <- [DW_OP_LLVM_fragment 256 64] $rdi
	#DEBUG_VALUE: fe25519_sub:h4 <- $rdi
	#DEBUG_VALUE: fe25519_sub:h <- [DW_OP_plus_uconst 368, DW_OP_stack_value] $rsp
	#DEBUG_VALUE: fe25519_sub:f <- undef
	#DEBUG_VALUE: fe25519_sub:g <- [DW_OP_plus_uconst 416, DW_OP_stack_value] $rsp
	#DEBUG_VALUE: fe25519_sub:mask <- 2251799813685247
	#DEBUG_VALUE: fe25519_sub:h0 <- $r10
	#DEBUG_VALUE: fe25519_sub:h1 <- $r11
	#DEBUG_VALUE: fe25519_sub:h2 <- $r9
	#DEBUG_VALUE: fe25519_sub:h3 <- $r8
	#DEBUG_VALUE: fe25519_sub:h1 <- undef
	.loc	7 65 8                          # ./include/sodium/private/ed25519_ref10_fe_51.h:65:8 @[ crypto_scalarmult/curve25519/ref10/x25519_ref10.c:113:9 ]
	movq	%r10, %rcx
	movabsq	$2251799813685247, %r15         # imm = 0x7FFFFFFFFFFFF
.Ltmp151:
	andq	%r15, %rcx
.Ltmp152:
	#DEBUG_VALUE: fe25519_sub:h0 <- $rcx
	#DEBUG_VALUE: fe25519_sub:h2 <- undef
	#DEBUG_VALUE: fe25519_sub:h1 <- undef
	#DEBUG_VALUE: fe25519_sub:h3 <- undef
	#DEBUG_VALUE: fe25519_sub:h2 <- undef
	#DEBUG_VALUE: fe25519_sub:h4 <- undef
	#DEBUG_VALUE: fe25519_sub:h3 <- undef
	#DEBUG_VALUE: fe25519_sub:h4 <- undef
	.loc	7 0 8 is_stmt 0                 # ./include/sodium/private/ed25519_ref10_fe_51.h:0:8
	movabsq	$4503599627370494, %rbp         # imm = 0xFFFFFFFFFFFFE
.Ltmp153:
	movq	104(%rsp), %rax                 # 8-byte Reload
.Ltmp154:
	.loc	7 75 16 is_stmt 1               # ./include/sodium/private/ed25519_ref10_fe_51.h:75:16 @[ crypto_scalarmult/curve25519/ref10/x25519_ref10.c:113:9 ]
	addq	%rbp, %rax
	addq	$-36, %rax
	subq	%rcx, %rax
	.loc	7 64 14                         # ./include/sodium/private/ed25519_ref10_fe_51.h:64:14 @[ crypto_scalarmult/curve25519/ref10/x25519_ref10.c:113:9 ]
	movq	%r10, %rcx
.Ltmp155:
	shrq	$51, %rcx
	.loc	7 64 8 is_stmt 0                # ./include/sodium/private/ed25519_ref10_fe_51.h:64:8 @[ crypto_scalarmult/curve25519/ref10/x25519_ref10.c:113:9 ]
	addq	%r11, %rcx
.Ltmp156:
	#DEBUG_VALUE: fe25519_sub:h1 <- $rcx
	.loc	7 66 14 is_stmt 1               # ./include/sodium/private/ed25519_ref10_fe_51.h:66:14 @[ crypto_scalarmult/curve25519/ref10/x25519_ref10.c:113:9 ]
	movq	%rcx, %rbx
.Ltmp157:
	shrq	$51, %rbx
	.loc	7 66 8 is_stmt 0                # ./include/sodium/private/ed25519_ref10_fe_51.h:66:8 @[ crypto_scalarmult/curve25519/ref10/x25519_ref10.c:113:9 ]
	addq	%r9, %rbx
.Ltmp158:
	#DEBUG_VALUE: fe25519_sub:h2 <- $rbx
	.loc	7 68 14 is_stmt 1               # ./include/sodium/private/ed25519_ref10_fe_51.h:68:14 @[ crypto_scalarmult/curve25519/ref10/x25519_ref10.c:113:9 ]
	movq	%rbx, %r14
.Ltmp159:
	shrq	$51, %r14
	.loc	7 68 8 is_stmt 0                # ./include/sodium/private/ed25519_ref10_fe_51.h:68:8 @[ crypto_scalarmult/curve25519/ref10/x25519_ref10.c:113:9 ]
	addq	%r8, %r14
.Ltmp160:
	#DEBUG_VALUE: fe25519_sub:h3 <- $r14
	.loc	7 70 14 is_stmt 1               # ./include/sodium/private/ed25519_ref10_fe_51.h:70:14 @[ crypto_scalarmult/curve25519/ref10/x25519_ref10.c:113:9 ]
	movq	%r14, %r12
.Ltmp161:
	shrq	$51, %r12
	.loc	7 70 8 is_stmt 0                # ./include/sodium/private/ed25519_ref10_fe_51.h:70:8 @[ crypto_scalarmult/curve25519/ref10/x25519_ref10.c:113:9 ]
	addq	%rdi, %r12
.Ltmp162:
	#DEBUG_VALUE: fe25519_sub:h4 <- $r12
	.loc	7 72 23 is_stmt 1               # ./include/sodium/private/ed25519_ref10_fe_51.h:72:23 @[ crypto_scalarmult/curve25519/ref10/x25519_ref10.c:113:9 ]
	movq	%r12, %r13
.Ltmp163:
	shrq	$51, %r13
.Ltmp164:
	#DEBUG_VALUE: fe25519_sub:h0 <- undef
	.loc	7 75 38                         # ./include/sodium/private/ed25519_ref10_fe_51.h:75:38 @[ crypto_scalarmult/curve25519/ref10/x25519_ref10.c:113:9 ]
	imulq	$-19, %r13, %r13
	addq	%r13, %rax
.Ltmp165:
	#DEBUG_VALUE: fe25519_sub:h0 <- $rax
	.loc	7 67 8                          # ./include/sodium/private/ed25519_ref10_fe_51.h:67:8 @[ crypto_scalarmult/curve25519/ref10/x25519_ref10.c:113:9 ]
	andq	%r15, %rcx
.Ltmp166:
	#DEBUG_VALUE: fe25519_sub:h1 <- $rcx
	.loc	7 0 8 is_stmt 0                 # ./include/sodium/private/ed25519_ref10_fe_51.h:0:8
	movq	96(%rsp), %rsi                  # 8-byte Reload
.Ltmp167:
	.loc	7 76 38 is_stmt 1               # ./include/sodium/private/ed25519_ref10_fe_51.h:76:38 @[ crypto_scalarmult/curve25519/ref10/x25519_ref10.c:113:9 ]
	leaq	(%rsi,%rbp), %r13
	subq	%rcx, %r13
.Ltmp168:
	#DEBUG_VALUE: fe25519_sub:h1 <- $r13
	.loc	7 69 8                          # ./include/sodium/private/ed25519_ref10_fe_51.h:69:8 @[ crypto_scalarmult/curve25519/ref10/x25519_ref10.c:113:9 ]
	andq	%r15, %rbx
.Ltmp169:
	#DEBUG_VALUE: fe25519_sub:h2 <- $rbx
	.loc	7 0 8 is_stmt 0                 # ./include/sodium/private/ed25519_ref10_fe_51.h:0:8
	movq	88(%rsp), %rcx                  # 8-byte Reload
	.loc	7 77 38 is_stmt 1               # ./include/sodium/private/ed25519_ref10_fe_51.h:77:38 @[ crypto_scalarmult/curve25519/ref10/x25519_ref10.c:113:9 ]
	addq	%rbp, %rcx
	subq	%rbx, %rcx
.Ltmp170:
	#DEBUG_VALUE: fe25519_sub:h2 <- $rcx
	.loc	7 71 8                          # ./include/sodium/private/ed25519_ref10_fe_51.h:71:8 @[ crypto_scalarmult/curve25519/ref10/x25519_ref10.c:113:9 ]
	andq	%r15, %r14
.Ltmp171:
	#DEBUG_VALUE: fe25519_sub:h3 <- $r14
	.loc	7 0 8 is_stmt 0                 # ./include/sodium/private/ed25519_ref10_fe_51.h:0:8
	movq	80(%rsp), %rsi                  # 8-byte Reload
	.loc	7 78 38 is_stmt 1               # ./include/sodium/private/ed25519_ref10_fe_51.h:78:38 @[ crypto_scalarmult/curve25519/ref10/x25519_ref10.c:113:9 ]
	leaq	(%rsi,%rbp), %rbx
	subq	%r14, %rbx
.Ltmp172:
	#DEBUG_VALUE: fe25519_sub:h3 <- $rbx
	.loc	7 73 8                          # ./include/sodium/private/ed25519_ref10_fe_51.h:73:8 @[ crypto_scalarmult/curve25519/ref10/x25519_ref10.c:113:9 ]
	andq	%r15, %r12
.Ltmp173:
	#DEBUG_VALUE: fe25519_sub:h4 <- $r12
	.loc	7 0 8 is_stmt 0                 # ./include/sodium/private/ed25519_ref10_fe_51.h:0:8
	movq	32(%rsp), %rsi                  # 8-byte Reload
	.loc	7 79 16 is_stmt 1               # ./include/sodium/private/ed25519_ref10_fe_51.h:79:16 @[ crypto_scalarmult/curve25519/ref10/x25519_ref10.c:113:9 ]
	leaq	(%rsi,%rbp), %r14
	.loc	7 79 38 is_stmt 0               # ./include/sodium/private/ed25519_ref10_fe_51.h:79:38 @[ crypto_scalarmult/curve25519/ref10/x25519_ref10.c:113:9 ]
	subq	%r12, %r14
.Ltmp174:
	#DEBUG_VALUE: fe25519_sub:h4 <- $r14
	.loc	7 81 10 is_stmt 1               # ./include/sodium/private/ed25519_ref10_fe_51.h:81:10 @[ crypto_scalarmult/curve25519/ref10/x25519_ref10.c:113:9 ]
	movq	%rax, 368(%rsp)
	.loc	7 82 10                         # ./include/sodium/private/ed25519_ref10_fe_51.h:82:10 @[ crypto_scalarmult/curve25519/ref10/x25519_ref10.c:113:9 ]
	movq	%r13, 376(%rsp)
	.loc	7 83 10                         # ./include/sodium/private/ed25519_ref10_fe_51.h:83:10 @[ crypto_scalarmult/curve25519/ref10/x25519_ref10.c:113:9 ]
	movq	%rcx, 384(%rsp)
	.loc	7 84 10                         # ./include/sodium/private/ed25519_ref10_fe_51.h:84:10 @[ crypto_scalarmult/curve25519/ref10/x25519_ref10.c:113:9 ]
	movq	%rbx, 392(%rsp)
	.loc	7 85 10                         # ./include/sodium/private/ed25519_ref10_fe_51.h:85:10 @[ crypto_scalarmult/curve25519/ref10/x25519_ref10.c:113:9 ]
	movq	%r14, 400(%rsp)
.Ltmp175:
	#DEBUG_VALUE: fe25519_sub:h <- [DW_OP_plus_uconst 320, DW_OP_stack_value] $rsp
	#DEBUG_VALUE: fe25519_sub:f <- [DW_OP_plus_uconst 208, DW_OP_stack_value] $rsp
	#DEBUG_VALUE: fe25519_sub:g <- [DW_OP_plus_uconst 112, DW_OP_stack_value] $rsp
	#DEBUG_VALUE: fe25519_sub:mask <- 2251799813685247
	#DEBUG_VALUE: fe25519_sub:h0 <- [DW_OP_plus_uconst 8, DW_OP_deref] $rsp
	#DEBUG_VALUE: fe25519_sub:h1 <- [DW_OP_plus_uconst 24, DW_OP_deref] $rsp
	#DEBUG_VALUE: fe25519_sub:h2 <- [DW_OP_deref] $rsp
	#DEBUG_VALUE: fe25519_sub:h3 <- [DW_OP_plus_uconst 40, DW_OP_deref] $rsp
	#DEBUG_VALUE: fe25519_sub:h4 <- [DW_OP_plus_uconst 16, DW_OP_deref] $rsp
	#DEBUG_VALUE: fe25519_sub:h1 <- undef
	.loc	7 0 10 is_stmt 0                # ./include/sodium/private/ed25519_ref10_fe_51.h:0:10
	movq	8(%rsp), %rcx                   # 8-byte Reload
.Ltmp176:
	.loc	7 65 8 is_stmt 1                # ./include/sodium/private/ed25519_ref10_fe_51.h:65:8 @[ crypto_scalarmult/curve25519/ref10/x25519_ref10.c:114:9 ]
	movq	%rcx, %rax
.Ltmp177:
	andq	%r15, %rax
.Ltmp178:
	#DEBUG_VALUE: fe25519_sub:h0 <- $rax
	#DEBUG_VALUE: fe25519_sub:h2 <- undef
	#DEBUG_VALUE: fe25519_sub:h1 <- undef
	#DEBUG_VALUE: fe25519_sub:h3 <- undef
	#DEBUG_VALUE: fe25519_sub:h2 <- undef
	#DEBUG_VALUE: fe25519_sub:h4 <- undef
	#DEBUG_VALUE: fe25519_sub:h3 <- undef
	#DEBUG_VALUE: fe25519_sub:h4 <- undef
	.loc	7 0 8 is_stmt 0                 # ./include/sodium/private/ed25519_ref10_fe_51.h:0:8
	movq	48(%rsp), %rsi                  # 8-byte Reload
	.loc	7 75 16 is_stmt 1               # ./include/sodium/private/ed25519_ref10_fe_51.h:75:16 @[ crypto_scalarmult/curve25519/ref10/x25519_ref10.c:114:9 ]
	leaq	(%rsi,%rbp), %r14
.Ltmp179:
	addq	$-36, %r14
	subq	%rax, %r14
	.loc	7 64 14                         # ./include/sodium/private/ed25519_ref10_fe_51.h:64:14 @[ crypto_scalarmult/curve25519/ref10/x25519_ref10.c:114:9 ]
	movq	%rcx, %rbp
	shrq	$51, %rbp
	movq	24(%rsp), %r12                  # 8-byte Reload
	.loc	7 64 8 is_stmt 0                # ./include/sodium/private/ed25519_ref10_fe_51.h:64:8 @[ crypto_scalarmult/curve25519/ref10/x25519_ref10.c:114:9 ]
	addq	%r12, %rbp
.Ltmp180:
	#DEBUG_VALUE: fe25519_sub:h1 <- $rbp
	.loc	7 66 14 is_stmt 1               # ./include/sodium/private/ed25519_ref10_fe_51.h:66:14 @[ crypto_scalarmult/curve25519/ref10/x25519_ref10.c:114:9 ]
	movq	%rbp, %r13
.Ltmp181:
	shrq	$51, %r13
	movq	(%rsp), %rdx                    # 8-byte Reload
.Ltmp182:
	.loc	7 66 8 is_stmt 0                # ./include/sodium/private/ed25519_ref10_fe_51.h:66:8 @[ crypto_scalarmult/curve25519/ref10/x25519_ref10.c:114:9 ]
	addq	%rdx, %r13
.Ltmp183:
	#DEBUG_VALUE: fe25519_sub:h2 <- $r13
	.loc	7 68 14 is_stmt 1               # ./include/sodium/private/ed25519_ref10_fe_51.h:68:14 @[ crypto_scalarmult/curve25519/ref10/x25519_ref10.c:114:9 ]
	movq	%r13, %rax
.Ltmp184:
	shrq	$51, %rax
	movq	40(%rsp), %rsi                  # 8-byte Reload
	.loc	7 68 8 is_stmt 0                # ./include/sodium/private/ed25519_ref10_fe_51.h:68:8 @[ crypto_scalarmult/curve25519/ref10/x25519_ref10.c:114:9 ]
	addq	%rsi, %rax
.Ltmp185:
	#DEBUG_VALUE: fe25519_sub:h3 <- $rax
	.loc	7 70 14 is_stmt 1               # ./include/sodium/private/ed25519_ref10_fe_51.h:70:14 @[ crypto_scalarmult/curve25519/ref10/x25519_ref10.c:114:9 ]
	movq	%rax, %rcx
	#DEBUG_VALUE: fe25519_sub:h2 <- [DW_OP_plus_uconst 8, DW_OP_deref] $rsp
	shrq	$51, %rcx
	.loc	7 70 8 is_stmt 0                # ./include/sodium/private/ed25519_ref10_fe_51.h:70:8 @[ crypto_scalarmult/curve25519/ref10/x25519_ref10.c:114:9 ]
	addq	16(%rsp), %rcx                  # 8-byte Folded Reload
.Ltmp186:
	#DEBUG_VALUE: fe25519_sub:h4 <- $rcx
	.loc	7 72 23 is_stmt 1               # ./include/sodium/private/ed25519_ref10_fe_51.h:72:23 @[ crypto_scalarmult/curve25519/ref10/x25519_ref10.c:114:9 ]
	movq	%rcx, %rbx
.Ltmp187:
	shrq	$51, %rbx
.Ltmp188:
	#DEBUG_VALUE: fe25519_sub:h0 <- undef
	.loc	7 75 38                         # ./include/sodium/private/ed25519_ref10_fe_51.h:75:38 @[ crypto_scalarmult/curve25519/ref10/x25519_ref10.c:114:9 ]
	imulq	$-19, %rbx, %rbx
	addq	%rbx, %r14
.Ltmp189:
	#DEBUG_VALUE: fe25519_sub:h0 <- $r14
	#DEBUG_VALUE: fe25519_sub:h1 <- undef
	#DEBUG_VALUE: fe25519_sub:h2 <- undef
	#DEBUG_VALUE: fe25519_sub:h3 <- undef
	#DEBUG_VALUE: fe25519_sub:h4 <- undef
	#DEBUG_VALUE: fe25519_add:h0 <- undef
	.loc	7 67 8                          # ./include/sodium/private/ed25519_ref10_fe_51.h:67:8 @[ crypto_scalarmult/curve25519/ref10/x25519_ref10.c:114:9 ]
	andq	%r15, %rbp
.Ltmp190:
	#DEBUG_VALUE: fe25519_sub:h1 <- $rbp
	.loc	7 0 8 is_stmt 0                 # ./include/sodium/private/ed25519_ref10_fe_51.h:0:8
	movq	184(%rsp), %rbx                 # 8-byte Reload
.Ltmp191:
	.loc	7 36 24 is_stmt 1               # ./include/sodium/private/ed25519_ref10_fe_51.h:36:24 @[ crypto_scalarmult/curve25519/ref10/x25519_ref10.c:115:9 ]
	addq	%rbx, %r12
.Ltmp192:
	#DEBUG_VALUE: fe25519_add:h1 <- $r12
	.loc	7 0 24 is_stmt 0                # ./include/sodium/private/ed25519_ref10_fe_51.h:0:24
	movq	%r12, 24(%rsp)                  # 8-byte Spill
.Ltmp193:
	#DEBUG_VALUE: fe25519_add:h1 <- [DW_OP_plus_uconst 24, DW_OP_deref] $rsp
	.loc	7 76 38 is_stmt 1               # ./include/sodium/private/ed25519_ref10_fe_51.h:76:38 @[ crypto_scalarmult/curve25519/ref10/x25519_ref10.c:114:9 ]
	movq	%rbx, %r12
	subq	%rbp, %r12
	movq	%r15, %rbx
	#DEBUG_VALUE: fe25519_sub:h3 <- [DW_OP_plus_uconst 184, DW_OP_deref] $rsp
	.loc	7 69 8                          # ./include/sodium/private/ed25519_ref10_fe_51.h:69:8 @[ crypto_scalarmult/curve25519/ref10/x25519_ref10.c:114:9 ]
	andq	%r15, %r13
.Ltmp194:
	#DEBUG_VALUE: fe25519_sub:h2 <- $r13
	.loc	7 0 8 is_stmt 0                 # ./include/sodium/private/ed25519_ref10_fe_51.h:0:8
	movq	176(%rsp), %r15                 # 8-byte Reload
.Ltmp195:
	.loc	7 37 24 is_stmt 1               # ./include/sodium/private/ed25519_ref10_fe_51.h:37:24 @[ crypto_scalarmult/curve25519/ref10/x25519_ref10.c:115:9 ]
	addq	%r15, %rdx
.Ltmp196:
	#DEBUG_VALUE: fe25519_add:h2 <- $rdx
	.loc	7 0 24 is_stmt 0                # ./include/sodium/private/ed25519_ref10_fe_51.h:0:24
	movq	%rdx, (%rsp)                    # 8-byte Spill
.Ltmp197:
	#DEBUG_VALUE: fe25519_add:h2 <- [DW_OP_deref] $rsp
	.loc	7 77 38 is_stmt 1               # ./include/sodium/private/ed25519_ref10_fe_51.h:77:38 @[ crypto_scalarmult/curve25519/ref10/x25519_ref10.c:114:9 ]
	subq	%r13, %r15
	.loc	7 71 8                          # ./include/sodium/private/ed25519_ref10_fe_51.h:71:8 @[ crypto_scalarmult/curve25519/ref10/x25519_ref10.c:114:9 ]
	andq	%rbx, %rax
.Ltmp198:
	#DEBUG_VALUE: fe25519_sub:h3 <- $rax
	.loc	7 0 8 is_stmt 0                 # ./include/sodium/private/ed25519_ref10_fe_51.h:0:8
	movq	192(%rsp), %r13                 # 8-byte Reload
.Ltmp199:
	.loc	7 38 24 is_stmt 1               # ./include/sodium/private/ed25519_ref10_fe_51.h:38:24 @[ crypto_scalarmult/curve25519/ref10/x25519_ref10.c:115:9 ]
	addq	%r13, %rsi
.Ltmp200:
	#DEBUG_VALUE: fe25519_add:h3 <- $rsi
	.loc	7 0 24 is_stmt 0                # ./include/sodium/private/ed25519_ref10_fe_51.h:0:24
	movq	%rsi, 40(%rsp)                  # 8-byte Spill
.Ltmp201:
	#DEBUG_VALUE: fe25519_add:h3 <- [DW_OP_plus_uconst 40, DW_OP_deref] $rsp
	.loc	7 78 38 is_stmt 1               # ./include/sodium/private/ed25519_ref10_fe_51.h:78:38 @[ crypto_scalarmult/curve25519/ref10/x25519_ref10.c:114:9 ]
	subq	%rax, %r13
	.loc	7 73 8                          # ./include/sodium/private/ed25519_ref10_fe_51.h:73:8 @[ crypto_scalarmult/curve25519/ref10/x25519_ref10.c:114:9 ]
	andq	%rbx, %rcx
.Ltmp202:
	#DEBUG_VALUE: fe25519_sub:h4 <- $rcx
	.loc	7 0 8 is_stmt 0                 # ./include/sodium/private/ed25519_ref10_fe_51.h:0:8
	movq	72(%rsp), %rax                  # 8-byte Reload
.Ltmp203:
	movabsq	$4503599627370494, %rbx         # imm = 0xFFFFFFFFFFFFE
	.loc	7 79 16 is_stmt 1               # ./include/sodium/private/ed25519_ref10_fe_51.h:79:16 @[ crypto_scalarmult/curve25519/ref10/x25519_ref10.c:114:9 ]
	leaq	(%rax,%rbx), %rbp
.Ltmp204:
	.loc	7 79 38 is_stmt 0               # ./include/sodium/private/ed25519_ref10_fe_51.h:79:38 @[ crypto_scalarmult/curve25519/ref10/x25519_ref10.c:114:9 ]
	subq	%rcx, %rbp
.Ltmp205:
	#DEBUG_VALUE: fe25519_sub:h4 <- $rbp
	.loc	7 0 38                          # ./include/sodium/private/ed25519_ref10_fe_51.h:0:38
	movq	8(%rsp), %rdx                   # 8-byte Reload
.Ltmp206:
	.loc	7 35 24 is_stmt 1               # ./include/sodium/private/ed25519_ref10_fe_51.h:35:24 @[ crypto_scalarmult/curve25519/ref10/x25519_ref10.c:115:9 ]
	addq	48(%rsp), %rdx                  # 8-byte Folded Reload
.Ltmp207:
	#DEBUG_VALUE: fe25519_add:h0 <- $rdx
	.loc	7 0 24 is_stmt 0                # ./include/sodium/private/ed25519_ref10_fe_51.h:0:24
	movq	%rdx, 8(%rsp)                   # 8-byte Spill
	#DEBUG_VALUE: fe25519_sub:h2 <- undef
.Ltmp208:
	#DEBUG_VALUE: crypto_scalarmult_curve25519_ref10:z2 <- [DW_OP_LLVM_fragment 0 64] undef
	movq	16(%rsp), %rcx                  # 8-byte Reload
	.loc	7 39 24 is_stmt 1               # ./include/sodium/private/ed25519_ref10_fe_51.h:39:24 @[ crypto_scalarmult/curve25519/ref10/x25519_ref10.c:115:9 ]
	addq	%rax, %rcx
.Ltmp209:
	#DEBUG_VALUE: fe25519_add:h4 <- $rcx
	.loc	7 0 24 is_stmt 0                # ./include/sodium/private/ed25519_ref10_fe_51.h:0:24
	movq	%rcx, 16(%rsp)                  # 8-byte Spill
.Ltmp210:
	#DEBUG_VALUE: fe25519_add:h4 <- [DW_OP_plus_uconst 16, DW_OP_deref] $rsp
	.loc	7 35 24 is_stmt 1               # ./include/sodium/private/ed25519_ref10_fe_51.h:35:24 @[ crypto_scalarmult/curve25519/ref10/x25519_ref10.c:116:9 ]
	addq	104(%rsp), %r10                 # 8-byte Folded Reload
.Ltmp211:
	#DEBUG_VALUE: fe25519_add:h0 <- $r10
	.loc	7 36 24                         # ./include/sodium/private/ed25519_ref10_fe_51.h:36:24 @[ crypto_scalarmult/curve25519/ref10/x25519_ref10.c:116:9 ]
	addq	96(%rsp), %r11                  # 8-byte Folded Reload
.Ltmp212:
	#DEBUG_VALUE: fe25519_add:h1 <- $r11
	.loc	7 37 24                         # ./include/sodium/private/ed25519_ref10_fe_51.h:37:24 @[ crypto_scalarmult/curve25519/ref10/x25519_ref10.c:116:9 ]
	addq	88(%rsp), %r9                   # 8-byte Folded Reload
.Ltmp213:
	#DEBUG_VALUE: fe25519_add:h2 <- $r9
	.loc	7 38 24                         # ./include/sodium/private/ed25519_ref10_fe_51.h:38:24 @[ crypto_scalarmult/curve25519/ref10/x25519_ref10.c:116:9 ]
	addq	80(%rsp), %r8                   # 8-byte Folded Reload
.Ltmp214:
	#DEBUG_VALUE: fe25519_add:h3 <- $r8
	.loc	7 39 24                         # ./include/sodium/private/ed25519_ref10_fe_51.h:39:24 @[ crypto_scalarmult/curve25519/ref10/x25519_ref10.c:116:9 ]
	addq	32(%rsp), %rdi                  # 8-byte Folded Reload
.Ltmp215:
	#DEBUG_VALUE: fe25519_add:h4 <- $rdi
	.loc	7 41 10                         # ./include/sodium/private/ed25519_ref10_fe_51.h:41:10 @[ crypto_scalarmult/curve25519/ref10/x25519_ref10.c:116:9 ]
	movq	%r10, 112(%rsp)
.Ltmp216:
	#DEBUG_VALUE: crypto_scalarmult_curve25519_ref10:z2 <- [DW_OP_plus_uconst 112, DW_OP_deref, DW_OP_LLVM_fragment 0 64] $rsp
	.loc	7 42 10                         # ./include/sodium/private/ed25519_ref10_fe_51.h:42:10 @[ crypto_scalarmult/curve25519/ref10/x25519_ref10.c:116:9 ]
	movq	%r11, 120(%rsp)
.Ltmp217:
	#DEBUG_VALUE: crypto_scalarmult_curve25519_ref10:z2 <- [DW_OP_plus_uconst 112, DW_OP_deref, DW_OP_LLVM_fragment 0 128] $rsp
	.loc	7 43 10                         # ./include/sodium/private/ed25519_ref10_fe_51.h:43:10 @[ crypto_scalarmult/curve25519/ref10/x25519_ref10.c:116:9 ]
	movq	%r9, 128(%rsp)
.Ltmp218:
	#DEBUG_VALUE: crypto_scalarmult_curve25519_ref10:z2 <- [DW_OP_plus_uconst 112, DW_OP_deref, DW_OP_LLVM_fragment 0 192] $rsp
	.loc	7 44 10                         # ./include/sodium/private/ed25519_ref10_fe_51.h:44:10 @[ crypto_scalarmult/curve25519/ref10/x25519_ref10.c:116:9 ]
	movq	%r8, 136(%rsp)
.Ltmp219:
	#DEBUG_VALUE: crypto_scalarmult_curve25519_ref10:z2 <- [DW_OP_plus_uconst 112, DW_OP_deref, DW_OP_LLVM_fragment 0 256] $rsp
	.loc	7 45 10                         # ./include/sodium/private/ed25519_ref10_fe_51.h:45:10 @[ crypto_scalarmult/curve25519/ref10/x25519_ref10.c:116:9 ]
	movq	%rdi, 144(%rsp)
.Ltmp220:
	#DEBUG_VALUE: crypto_scalarmult_curve25519_ref10:z2 <- [DW_OP_plus_uconst 112, DW_OP_deref] $rsp
	.loc	7 76 38                         # ./include/sodium/private/ed25519_ref10_fe_51.h:76:38 @[ crypto_scalarmult/curve25519/ref10/x25519_ref10.c:114:9 ]
	addq	%rbx, %r12
.Ltmp221:
	#DEBUG_VALUE: fe25519_sub:h1 <- $r12
	.loc	7 77 38                         # ./include/sodium/private/ed25519_ref10_fe_51.h:77:38 @[ crypto_scalarmult/curve25519/ref10/x25519_ref10.c:114:9 ]
	addq	%rbx, %r15
.Ltmp222:
	#DEBUG_VALUE: fe25519_sub:h2 <- $r15
	.loc	7 78 38                         # ./include/sodium/private/ed25519_ref10_fe_51.h:78:38 @[ crypto_scalarmult/curve25519/ref10/x25519_ref10.c:114:9 ]
	addq	%rbx, %r13
.Ltmp223:
	#DEBUG_VALUE: fe25519_sub:h3 <- $r13
	.loc	7 81 10                         # ./include/sodium/private/ed25519_ref10_fe_51.h:81:10 @[ crypto_scalarmult/curve25519/ref10/x25519_ref10.c:114:9 ]
	movq	%r14, 320(%rsp)
	.loc	7 82 10                         # ./include/sodium/private/ed25519_ref10_fe_51.h:82:10 @[ crypto_scalarmult/curve25519/ref10/x25519_ref10.c:114:9 ]
	movq	%r12, 328(%rsp)
	.loc	7 83 10                         # ./include/sodium/private/ed25519_ref10_fe_51.h:83:10 @[ crypto_scalarmult/curve25519/ref10/x25519_ref10.c:114:9 ]
	movq	%r15, 336(%rsp)
	.loc	7 84 10                         # ./include/sodium/private/ed25519_ref10_fe_51.h:84:10 @[ crypto_scalarmult/curve25519/ref10/x25519_ref10.c:114:9 ]
	movq	%r13, 344(%rsp)
	.loc	7 85 10                         # ./include/sodium/private/ed25519_ref10_fe_51.h:85:10 @[ crypto_scalarmult/curve25519/ref10/x25519_ref10.c:114:9 ]
	movq	%rbp, 352(%rsp)
.Ltmp224:
	#DEBUG_VALUE: fe25519_add:h <- [DW_OP_plus_uconst 208, DW_OP_stack_value] $rsp
	#DEBUG_VALUE: fe25519_add:f <- [DW_OP_plus_uconst 208, DW_OP_stack_value] $rsp
	#DEBUG_VALUE: fe25519_add:g <- [DW_OP_plus_uconst 112, DW_OP_stack_value] $rsp
	.loc	7 41 10                         # ./include/sodium/private/ed25519_ref10_fe_51.h:41:10 @[ crypto_scalarmult/curve25519/ref10/x25519_ref10.c:115:9 ]
	movq	%rdx, 208(%rsp)
.Ltmp225:
	#DEBUG_VALUE: crypto_scalarmult_curve25519_ref10:x2 <- [DW_OP_plus_uconst 208, DW_OP_deref, DW_OP_LLVM_fragment 0 64] $rsp
	.loc	7 0 10 is_stmt 0                # ./include/sodium/private/ed25519_ref10_fe_51.h:0:10
	movq	24(%rsp), %rax                  # 8-byte Reload
	.loc	7 42 10 is_stmt 1               # ./include/sodium/private/ed25519_ref10_fe_51.h:42:10 @[ crypto_scalarmult/curve25519/ref10/x25519_ref10.c:115:9 ]
	movq	%rax, 216(%rsp)
.Ltmp226:
	#DEBUG_VALUE: crypto_scalarmult_curve25519_ref10:x2 <- [DW_OP_plus_uconst 208, DW_OP_deref, DW_OP_LLVM_fragment 0 128] $rsp
	.loc	7 0 10 is_stmt 0                # ./include/sodium/private/ed25519_ref10_fe_51.h:0:10
	movq	(%rsp), %rax                    # 8-byte Reload
	.loc	7 43 10 is_stmt 1               # ./include/sodium/private/ed25519_ref10_fe_51.h:43:10 @[ crypto_scalarmult/curve25519/ref10/x25519_ref10.c:115:9 ]
	movq	%rax, 224(%rsp)
.Ltmp227:
	#DEBUG_VALUE: crypto_scalarmult_curve25519_ref10:x2 <- [DW_OP_plus_uconst 208, DW_OP_deref, DW_OP_LLVM_fragment 0 192] $rsp
	.loc	7 44 10                         # ./include/sodium/private/ed25519_ref10_fe_51.h:44:10 @[ crypto_scalarmult/curve25519/ref10/x25519_ref10.c:115:9 ]
	movq	%rsi, 232(%rsp)
.Ltmp228:
	#DEBUG_VALUE: crypto_scalarmult_curve25519_ref10:x2 <- [DW_OP_plus_uconst 208, DW_OP_deref, DW_OP_LLVM_fragment 0 256] $rsp
	.loc	7 45 10                         # ./include/sodium/private/ed25519_ref10_fe_51.h:45:10 @[ crypto_scalarmult/curve25519/ref10/x25519_ref10.c:115:9 ]
	movq	%rcx, 240(%rsp)
.Ltmp229:
	#DEBUG_VALUE: crypto_scalarmult_curve25519_ref10:x2 <- [DW_OP_plus_uconst 208, DW_OP_deref] $rsp
	#DEBUG_VALUE: fe25519_add:h <- [DW_OP_plus_uconst 112, DW_OP_stack_value] $rsp
	#DEBUG_VALUE: fe25519_add:f <- undef
	#DEBUG_VALUE: fe25519_add:g <- [DW_OP_plus_uconst 416, DW_OP_stack_value] $rsp
	.loc	7 0 10 is_stmt 0                # ./include/sodium/private/ed25519_ref10_fe_51.h:0:10
	leaq	416(%rsp), %rdi
.Ltmp230:
	leaq	368(%rsp), %rsi
	leaq	208(%rsp), %rdx
.Ltmp231:
	.loc	2 117 9 is_stmt 1               # crypto_scalarmult/curve25519/ref10/x25519_ref10.c:117:9
	callq	fe25519_mul
.Ltmp232:
	.loc	2 0 9 is_stmt 0                 # crypto_scalarmult/curve25519/ref10/x25519_ref10.c:0:9
	leaq	112(%rsp), %rdi
	.loc	2 118 9 is_stmt 1               # crypto_scalarmult/curve25519/ref10/x25519_ref10.c:118:9
	movq	%rdi, %rsi
	leaq	320(%rsp), %rdx
	callq	fe25519_mul
.Ltmp233:
	#DEBUG_VALUE: fe25519_sq:h <- [DW_OP_plus_uconst 368, DW_OP_stack_value] $rsp
	#DEBUG_VALUE: fe25519_sq:f <- [DW_OP_plus_uconst 320, DW_OP_stack_value] $rsp
	#DEBUG_VALUE: fe25519_sq:mask <- 2251799813685247
	#DEBUG_VALUE: fe25519_sq:f0 <- $r14
	#DEBUG_VALUE: fe25519_sq:f1 <- $r12
	#DEBUG_VALUE: fe25519_sq:f2 <- $r15
	#DEBUG_VALUE: fe25519_sq:f3 <- $r13
	#DEBUG_VALUE: fe25519_sq:f4 <- $rbp
	#DEBUG_VALUE: fe25519_sq:f0_2 <- undef
	#DEBUG_VALUE: fe25519_sq:f1_2 <- undef
	.loc	7 341 19                        # ./include/sodium/private/ed25519_ref10_fe_51.h:341:19 @[ crypto_scalarmult/curve25519/ref10/x25519_ref10.c:119:9 ]
	imulq	$38, %r12, %rcx
.Ltmp234:
	#DEBUG_VALUE: fe25519_sq:f1_38 <- $rcx
	#DEBUG_VALUE: fe25519_sq:f2_38 <- undef
	#DEBUG_VALUE: fe25519_sq:f3_38 <- undef
	#DEBUG_VALUE: fe25519_sq:f3_19 <- undef
	#DEBUG_VALUE: fe25519_sq:f4_19 <- undef
	.loc	7 348 28                        # ./include/sodium/private/ed25519_ref10_fe_51.h:348:28 @[ crypto_scalarmult/curve25519/ref10/x25519_ref10.c:119:9 ]
	movq	%r14, %rax
	mulq	%r14
	movq	%rdx, %rsi
	movq	%rax, %r9
.Ltmp235:
	#DEBUG_VALUE: fe25519_sq:r0 <- [DW_OP_LLVM_fragment 0 64] $rax
	#DEBUG_VALUE: fe25519_sq:r0 <- [DW_OP_LLVM_fragment 64 64] $rsi
	.loc	7 349 31                        # ./include/sodium/private/ed25519_ref10_fe_51.h:349:31 @[ crypto_scalarmult/curve25519/ref10/x25519_ref10.c:119:9 ]
	movq	%rbp, %rax
.Ltmp236:
	#DEBUG_VALUE: fe25519_sq:r0 <- [DW_OP_LLVM_fragment 0 64] $r9
	#DEBUG_VALUE: fe25519_cswap:b <- $r9d
	#DEBUG_VALUE: crypto_scalarmult_curve25519_ref10:swap <- $r9d
	mulq	%rcx
	movq	%rax, %r10
	movq	%rdx, %r11
.Ltmp237:
	#DEBUG_VALUE: fe25519_sq:r0 <- undef
	.loc	7 342 19                        # ./include/sodium/private/ed25519_ref10_fe_51.h:342:19 @[ crypto_scalarmult/curve25519/ref10/x25519_ref10.c:119:9 ]
	imulq	$38, %r15, %rbx
.Ltmp238:
	#DEBUG_VALUE: fe25519_sq:f2_38 <- $rbx
	.loc	7 350 31                        # ./include/sodium/private/ed25519_ref10_fe_51.h:350:31 @[ crypto_scalarmult/curve25519/ref10/x25519_ref10.c:119:9 ]
	movq	%r13, %rax
	mulq	%rbx
	movq	%rax, %rcx
.Ltmp239:
	movq	%rdx, %r8
	.loc	7 343 19                        # ./include/sodium/private/ed25519_ref10_fe_51.h:343:19 @[ crypto_scalarmult/curve25519/ref10/x25519_ref10.c:119:9 ]
	imulq	$38, %r13, %rdi
.Ltmp240:
	#DEBUG_VALUE: fe25519_sq:f3_38 <- $rdi
	.loc	7 349 8                         # ./include/sodium/private/ed25519_ref10_fe_51.h:349:8 @[ crypto_scalarmult/curve25519/ref10/x25519_ref10.c:119:9 ]
	addq	%r10, %rcx
	adcq	%r11, %r8
	.loc	7 350 8                         # ./include/sodium/private/ed25519_ref10_fe_51.h:350:8 @[ crypto_scalarmult/curve25519/ref10/x25519_ref10.c:119:9 ]
	addq	%r9, %rcx
.Ltmp241:
	#DEBUG_VALUE: fe25519_sq:r0 <- [DW_OP_LLVM_fragment 0 64] $rcx
	.loc	7 338 15                        # ./include/sodium/private/ed25519_ref10_fe_51.h:338:15 @[ crypto_scalarmult/curve25519/ref10/x25519_ref10.c:119:9 ]
	leaq	(%r14,%r14), %r14
.Ltmp242:
	#DEBUG_VALUE: fe25519_sq:f0_2 <- $r14
	.loc	7 350 8                         # ./include/sodium/private/ed25519_ref10_fe_51.h:350:8 @[ crypto_scalarmult/curve25519/ref10/x25519_ref10.c:119:9 ]
	adcq	%rsi, %r8
.Ltmp243:
	#DEBUG_VALUE: fe25519_sq:r0 <- [DW_OP_LLVM_fragment 64 64] $r8
	.loc	7 352 30                        # ./include/sodium/private/ed25519_ref10_fe_51.h:352:30 @[ crypto_scalarmult/curve25519/ref10/x25519_ref10.c:119:9 ]
	movq	%r14, %rax
	mulq	%r12
	movq	%rax, 104(%rsp)                 # 8-byte Spill
.Ltmp244:
	#DEBUG_VALUE: fe25519_cswap:x0 <- undef
	.loc	7 0 30 is_stmt 0                # ./include/sodium/private/ed25519_ref10_fe_51.h:0:30
	movq	%rdx, 48(%rsp)                  # 8-byte Spill
	.loc	7 345 19 is_stmt 1              # ./include/sodium/private/ed25519_ref10_fe_51.h:345:19 @[ crypto_scalarmult/curve25519/ref10/x25519_ref10.c:119:9 ]
	leaq	(,%r13,8), %rax
	addq	%r13, %rax
	leaq	(,%rax,2), %rsi
	addq	%r13, %rsi
.Ltmp245:
	#DEBUG_VALUE: fe25519_sq:f3_19 <- $rsi
	#DEBUG_VALUE: fe25519_sq:r1 <- [DW_OP_plus_uconst 104, DW_OP_deref, DW_OP_LLVM_fragment 0 64] $rsp
	#DEBUG_VALUE: fe25519_sq:r1 <- [DW_OP_plus_uconst 48, DW_OP_deref, DW_OP_LLVM_fragment 64 64] $rsp
	.loc	7 353 31                        # ./include/sodium/private/ed25519_ref10_fe_51.h:353:31 @[ crypto_scalarmult/curve25519/ref10/x25519_ref10.c:119:9 ]
	movq	%rbp, %rax
	mulq	%rbx
	movq	%rdx, 184(%rsp)                 # 8-byte Spill
	#DEBUG_VALUE: fe25519_sub:h3 <- undef
	#DEBUG_VALUE: fe25519_cswap:f1 <- undef
.Ltmp246:
	#DEBUG_VALUE: fe25519_sq:r1 <- undef
	.loc	7 0 31 is_stmt 0                # ./include/sodium/private/ed25519_ref10_fe_51.h:0:31
	movq	%rax, 64(%rsp)                  # 8-byte Spill
	.loc	7 354 31 is_stmt 1              # ./include/sodium/private/ed25519_ref10_fe_51.h:354:31 @[ crypto_scalarmult/curve25519/ref10/x25519_ref10.c:119:9 ]
	movq	%rsi, %rax
	mulq	%r13
	movq	%rdx, %r9
.Ltmp247:
	movq	%rax, %rsi
.Ltmp248:
	.loc	7 356 30                        # ./include/sodium/private/ed25519_ref10_fe_51.h:356:30 @[ crypto_scalarmult/curve25519/ref10/x25519_ref10.c:119:9 ]
	movq	%r14, %rax
	mulq	%r15
	movq	%rax, 80(%rsp)                  # 8-byte Spill
	movq	%rdx, 96(%rsp)                  # 8-byte Spill
	.loc	7 339 15                        # ./include/sodium/private/ed25519_ref10_fe_51.h:339:15 @[ crypto_scalarmult/curve25519/ref10/x25519_ref10.c:119:9 ]
	leaq	(%r12,%r12), %rbx
.Ltmp249:
	#DEBUG_VALUE: fe25519_sq:f1_2 <- $rbx
	#DEBUG_VALUE: fe25519_sq:r2 <- [DW_OP_plus_uconst 80, DW_OP_deref, DW_OP_LLVM_fragment 0 64] $rsp
	#DEBUG_VALUE: fe25519_sq:r2 <- [DW_OP_plus_uconst 96, DW_OP_deref, DW_OP_LLVM_fragment 64 64] $rsp
	.loc	7 357 29                        # ./include/sodium/private/ed25519_ref10_fe_51.h:357:29 @[ crypto_scalarmult/curve25519/ref10/x25519_ref10.c:119:9 ]
	movq	%r12, %rax
	mulq	%r12
	movq	%rdx, 176(%rsp)                 # 8-byte Spill
.Ltmp250:
	#DEBUG_VALUE: fe25519_sq:r2 <- undef
	.loc	7 0 29 is_stmt 0                # ./include/sodium/private/ed25519_ref10_fe_51.h:0:29
	movq	%rax, 56(%rsp)                  # 8-byte Spill
	.loc	7 358 31 is_stmt 1              # ./include/sodium/private/ed25519_ref10_fe_51.h:358:31 @[ crypto_scalarmult/curve25519/ref10/x25519_ref10.c:119:9 ]
	movq	%rdi, %rax
	mulq	%rbp
	movq	%rax, %rdi
.Ltmp251:
	movq	%rdx, %r11
	.loc	7 346 19                        # ./include/sodium/private/ed25519_ref10_fe_51.h:346:19 @[ crypto_scalarmult/curve25519/ref10/x25519_ref10.c:119:9 ]
	leaq	(,%rbp,8), %rax
	addq	%rbp, %rax
	leaq	(,%rax,2), %r10
	addq	%rbp, %r10
.Ltmp252:
	#DEBUG_VALUE: fe25519_sq:f4_19 <- $r10
	.loc	7 360 30                        # ./include/sodium/private/ed25519_ref10_fe_51.h:360:30 @[ crypto_scalarmult/curve25519/ref10/x25519_ref10.c:119:9 ]
	movq	%r14, %rax
	mulq	%r13
	movq	%rdx, 32(%rsp)                  # 8-byte Spill
	movq	%rax, 192(%rsp)                 # 8-byte Spill
	#DEBUG_VALUE: fe25519_cswap:f3 <- undef
.Ltmp253:
	#DEBUG_VALUE: fe25519_sq:r3 <- [DW_OP_plus_uconst 192, DW_OP_deref, DW_OP_LLVM_fragment 0 64] $rsp
	#DEBUG_VALUE: fe25519_sq:r3 <- [DW_OP_plus_uconst 32, DW_OP_deref, DW_OP_LLVM_fragment 64 64] $rsp
	.loc	7 361 31                        # ./include/sodium/private/ed25519_ref10_fe_51.h:361:31 @[ crypto_scalarmult/curve25519/ref10/x25519_ref10.c:119:9 ]
	movq	%r15, %rax
	mulq	%rbx
	movq	%rdx, 168(%rsp)                 # 8-byte Spill
.Ltmp254:
	#DEBUG_VALUE: fe25519_sq:r3 <- undef
	.loc	7 0 31 is_stmt 0                # ./include/sodium/private/ed25519_ref10_fe_51.h:0:31
	movq	%rax, 160(%rsp)                 # 8-byte Spill
	.loc	7 362 31 is_stmt 1              # ./include/sodium/private/ed25519_ref10_fe_51.h:362:31 @[ crypto_scalarmult/curve25519/ref10/x25519_ref10.c:119:9 ]
	movq	%r10, %rax
	mulq	%rbp
	movq	%rdx, %r10
.Ltmp255:
	movq	%rax, %r12
.Ltmp256:
	.loc	7 364 30                        # ./include/sodium/private/ed25519_ref10_fe_51.h:364:30 @[ crypto_scalarmult/curve25519/ref10/x25519_ref10.c:119:9 ]
	movq	%r14, %rax
	mulq	%rbp
	movq	%rdx, 88(%rsp)                  # 8-byte Spill
	movq	%rax, 72(%rsp)                  # 8-byte Spill
	#DEBUG_VALUE: fe25519_cswap:f4 <- undef
.Ltmp257:
	#DEBUG_VALUE: fe25519_sq:r4 <- [DW_OP_plus_uconst 72, DW_OP_deref, DW_OP_LLVM_fragment 0 64] $rsp
	#DEBUG_VALUE: fe25519_sq:r4 <- [DW_OP_plus_uconst 88, DW_OP_deref, DW_OP_LLVM_fragment 64 64] $rsp
	.loc	7 365 31                        # ./include/sodium/private/ed25519_ref10_fe_51.h:365:31 @[ crypto_scalarmult/curve25519/ref10/x25519_ref10.c:119:9 ]
	movq	%r13, %rax
	mulq	%rbx
	movq	%rdx, %r13
.Ltmp258:
	#DEBUG_VALUE: fe25519_sq:r4 <- undef
	movq	%rax, %rbp
.Ltmp259:
	.loc	7 366 29                        # ./include/sodium/private/ed25519_ref10_fe_51.h:366:29 @[ crypto_scalarmult/curve25519/ref10/x25519_ref10.c:119:9 ]
	movq	%r15, %rax
	mulq	%r15
	.loc	7 369 16                        # ./include/sodium/private/ed25519_ref10_fe_51.h:369:16 @[ crypto_scalarmult/curve25519/ref10/x25519_ref10.c:119:9 ]
	movq	%r8, %rbx
.Ltmp260:
	shrq	$51, %rbx
.Ltmp261:
	#DEBUG_VALUE: fe25519_sq:carry <- [DW_OP_LLVM_fragment 64 64] $rbx
	shldq	$13, %rcx, %r8
.Ltmp262:
	.loc	7 0 16 is_stmt 0                # ./include/sodium/private/ed25519_ref10_fe_51.h:0:16
	movabsq	$2251799813685247, %r14         # imm = 0x7FFFFFFFFFFFF
.Ltmp263:
	.loc	7 368 27 is_stmt 1              # ./include/sodium/private/ed25519_ref10_fe_51.h:368:27 @[ crypto_scalarmult/curve25519/ref10/x25519_ref10.c:119:9 ]
	andq	%r14, %rcx
.Ltmp264:
	#DEBUG_VALUE: fe25519_sq:r00 <- $rcx
	#DEBUG_VALUE: fe25519_sq:carry <- [DW_OP_LLVM_fragment 0 64] $r8
	.loc	7 353 8                         # ./include/sodium/private/ed25519_ref10_fe_51.h:353:8 @[ crypto_scalarmult/curve25519/ref10/x25519_ref10.c:119:9 ]
	addq	64(%rsp), %rsi                  # 8-byte Folded Reload
	adcq	184(%rsp), %r9                  # 8-byte Folded Reload
	.loc	7 354 8                         # ./include/sodium/private/ed25519_ref10_fe_51.h:354:8 @[ crypto_scalarmult/curve25519/ref10/x25519_ref10.c:119:9 ]
	addq	104(%rsp), %rsi                 # 8-byte Folded Reload
.Ltmp265:
	#DEBUG_VALUE: fe25519_sq:r1 <- [DW_OP_LLVM_fragment 0 64] $rsi
	adcq	48(%rsp), %r9                   # 8-byte Folded Reload
.Ltmp266:
	#DEBUG_VALUE: fe25519_sq:r1 <- [DW_OP_LLVM_fragment 64 64] $r9
	.loc	7 370 8                         # ./include/sodium/private/ed25519_ref10_fe_51.h:370:8 @[ crypto_scalarmult/curve25519/ref10/x25519_ref10.c:119:9 ]
	addq	%r8, %rsi
.Ltmp267:
	#DEBUG_VALUE: fe25519_sq:r1 <- [DW_OP_LLVM_fragment 0 64] $rsi
	adcq	%rbx, %r9
.Ltmp268:
	.loc	7 372 16                        # ./include/sodium/private/ed25519_ref10_fe_51.h:372:16 @[ crypto_scalarmult/curve25519/ref10/x25519_ref10.c:119:9 ]
	movq	%r9, %r8
.Ltmp269:
	shrq	$51, %r8
.Ltmp270:
	#DEBUG_VALUE: fe25519_sq:carry <- [DW_OP_LLVM_fragment 64 64] $r8
	shldq	$13, %rsi, %r9
.Ltmp271:
	#DEBUG_VALUE: fe25519_sq:r1 <- [DW_OP_LLVM_fragment 64 64] undef
	.loc	7 371 27                        # ./include/sodium/private/ed25519_ref10_fe_51.h:371:27 @[ crypto_scalarmult/curve25519/ref10/x25519_ref10.c:119:9 ]
	andq	%r14, %rsi
.Ltmp272:
	#DEBUG_VALUE: fe25519_sq:r01 <- $rsi
	#DEBUG_VALUE: fe25519_sq:carry <- [DW_OP_LLVM_fragment 0 64] $r9
	.loc	7 357 8                         # ./include/sodium/private/ed25519_ref10_fe_51.h:357:8 @[ crypto_scalarmult/curve25519/ref10/x25519_ref10.c:119:9 ]
	addq	56(%rsp), %rdi                  # 8-byte Folded Reload
	adcq	176(%rsp), %r11                 # 8-byte Folded Reload
	.loc	7 358 8                         # ./include/sodium/private/ed25519_ref10_fe_51.h:358:8 @[ crypto_scalarmult/curve25519/ref10/x25519_ref10.c:119:9 ]
	addq	80(%rsp), %rdi                  # 8-byte Folded Reload
.Ltmp273:
	#DEBUG_VALUE: fe25519_sq:r2 <- [DW_OP_LLVM_fragment 0 64] $rdi
	adcq	96(%rsp), %r11                  # 8-byte Folded Reload
.Ltmp274:
	#DEBUG_VALUE: fe25519_sq:r2 <- [DW_OP_LLVM_fragment 64 64] $r11
	.loc	7 373 8                         # ./include/sodium/private/ed25519_ref10_fe_51.h:373:8 @[ crypto_scalarmult/curve25519/ref10/x25519_ref10.c:119:9 ]
	addq	%r9, %rdi
.Ltmp275:
	#DEBUG_VALUE: fe25519_sq:r2 <- [DW_OP_LLVM_fragment 0 64] $rdi
	adcq	%r8, %r11
.Ltmp276:
	.loc	7 375 16                        # ./include/sodium/private/ed25519_ref10_fe_51.h:375:16 @[ crypto_scalarmult/curve25519/ref10/x25519_ref10.c:119:9 ]
	movq	%r11, %r8
.Ltmp277:
	shrq	$51, %r8
.Ltmp278:
	#DEBUG_VALUE: fe25519_sq:carry <- [DW_OP_LLVM_fragment 64 64] $r8
	shldq	$13, %rdi, %r11
.Ltmp279:
	#DEBUG_VALUE: fe25519_sq:r2 <- [DW_OP_LLVM_fragment 64 64] undef
	.loc	7 374 27                        # ./include/sodium/private/ed25519_ref10_fe_51.h:374:27 @[ crypto_scalarmult/curve25519/ref10/x25519_ref10.c:119:9 ]
	andq	%r14, %rdi
.Ltmp280:
	#DEBUG_VALUE: fe25519_sq:r02 <- $rdi
	#DEBUG_VALUE: fe25519_sq:carry <- [DW_OP_LLVM_fragment 0 64] $r11
	.loc	7 361 8                         # ./include/sodium/private/ed25519_ref10_fe_51.h:361:8 @[ crypto_scalarmult/curve25519/ref10/x25519_ref10.c:119:9 ]
	addq	160(%rsp), %r12                 # 8-byte Folded Reload
	adcq	168(%rsp), %r10                 # 8-byte Folded Reload
	.loc	7 362 8                         # ./include/sodium/private/ed25519_ref10_fe_51.h:362:8 @[ crypto_scalarmult/curve25519/ref10/x25519_ref10.c:119:9 ]
	addq	192(%rsp), %r12                 # 8-byte Folded Reload
.Ltmp281:
	#DEBUG_VALUE: fe25519_sq:r3 <- [DW_OP_LLVM_fragment 0 64] $r12
	adcq	32(%rsp), %r10                  # 8-byte Folded Reload
.Ltmp282:
	#DEBUG_VALUE: fe25519_sq:r3 <- [DW_OP_LLVM_fragment 64 64] $r10
	.loc	7 376 8                         # ./include/sodium/private/ed25519_ref10_fe_51.h:376:8 @[ crypto_scalarmult/curve25519/ref10/x25519_ref10.c:119:9 ]
	addq	%r11, %r12
.Ltmp283:
	#DEBUG_VALUE: fe25519_sq:r3 <- [DW_OP_LLVM_fragment 0 64] $r12
	adcq	%r8, %r10
.Ltmp284:
	.loc	7 378 16                        # ./include/sodium/private/ed25519_ref10_fe_51.h:378:16 @[ crypto_scalarmult/curve25519/ref10/x25519_ref10.c:119:9 ]
	movq	%r10, %r8
.Ltmp285:
	shrq	$51, %r8
.Ltmp286:
	#DEBUG_VALUE: fe25519_sq:carry <- [DW_OP_LLVM_fragment 64 64] $r8
	shldq	$13, %r12, %r10
.Ltmp287:
	#DEBUG_VALUE: fe25519_sq:r3 <- [DW_OP_LLVM_fragment 64 64] undef
	.loc	7 377 27                        # ./include/sodium/private/ed25519_ref10_fe_51.h:377:27 @[ crypto_scalarmult/curve25519/ref10/x25519_ref10.c:119:9 ]
	andq	%r14, %r12
.Ltmp288:
	#DEBUG_VALUE: fe25519_sq:r03 <- $r12
	#DEBUG_VALUE: fe25519_sq:carry <- [DW_OP_LLVM_fragment 0 64] $r10
	.loc	7 0 27 is_stmt 0                # ./include/sodium/private/ed25519_ref10_fe_51.h:0:27
	movq	%r12, 104(%rsp)                 # 8-byte Spill
.Ltmp289:
	#DEBUG_VALUE: fe25519_sq:r03 <- [DW_OP_plus_uconst 104, DW_OP_deref] $rsp
	.loc	7 365 8 is_stmt 1               # ./include/sodium/private/ed25519_ref10_fe_51.h:365:8 @[ crypto_scalarmult/curve25519/ref10/x25519_ref10.c:119:9 ]
	addq	%rbp, %rax
	adcq	%r13, %rdx
	.loc	7 366 8                         # ./include/sodium/private/ed25519_ref10_fe_51.h:366:8 @[ crypto_scalarmult/curve25519/ref10/x25519_ref10.c:119:9 ]
	addq	72(%rsp), %rax                  # 8-byte Folded Reload
.Ltmp290:
	#DEBUG_VALUE: fe25519_sq:r4 <- [DW_OP_LLVM_fragment 0 64] $rax
	adcq	88(%rsp), %rdx                  # 8-byte Folded Reload
.Ltmp291:
	#DEBUG_VALUE: fe25519_sq:r4 <- [DW_OP_LLVM_fragment 64 64] $rdx
	.loc	7 379 8                         # ./include/sodium/private/ed25519_ref10_fe_51.h:379:8 @[ crypto_scalarmult/curve25519/ref10/x25519_ref10.c:119:9 ]
	addq	%r10, %rax
.Ltmp292:
	#DEBUG_VALUE: fe25519_sq:r4 <- [DW_OP_LLVM_fragment 0 64] $rax
	adcq	%r8, %rdx
.Ltmp293:
	.loc	7 381 16                        # ./include/sodium/private/ed25519_ref10_fe_51.h:381:16 @[ crypto_scalarmult/curve25519/ref10/x25519_ref10.c:119:9 ]
	shldq	$13, %rax, %rdx
.Ltmp294:
	#DEBUG_VALUE: fe25519_sq:r4 <- [DW_OP_LLVM_fragment 64 64] undef
	.loc	7 380 27                        # ./include/sodium/private/ed25519_ref10_fe_51.h:380:27 @[ crypto_scalarmult/curve25519/ref10/x25519_ref10.c:119:9 ]
	andq	%r14, %rax
.Ltmp295:
	#DEBUG_VALUE: fe25519_sq:r04 <- $rax
	#DEBUG_VALUE: fe25519_sq:carry <- [DW_OP_LLVM_fragment 0 64] $rdx
	#DEBUG_VALUE: fe25519_sq:carry <- [DW_OP_LLVM_fragment 64 64] undef
	.loc	7 0 27 is_stmt 0                # ./include/sodium/private/ed25519_ref10_fe_51.h:0:27
	movq	%rax, 96(%rsp)                  # 8-byte Spill
.Ltmp296:
	#DEBUG_VALUE: fe25519_sq:r04 <- [DW_OP_plus_uconst 96, DW_OP_deref] $rsp
	.loc	7 382 18 is_stmt 1              # ./include/sodium/private/ed25519_ref10_fe_51.h:382:18 @[ crypto_scalarmult/curve25519/ref10/x25519_ref10.c:119:9 ]
	leaq	(%rdx,%rdx,8), %rax
	leaq	(%rdx,%rax,2), %rdx
.Ltmp297:
	.loc	7 382 9 is_stmt 0               # ./include/sodium/private/ed25519_ref10_fe_51.h:382:9 @[ crypto_scalarmult/curve25519/ref10/x25519_ref10.c:119:9 ]
	addq	%rcx, %rdx
.Ltmp298:
	#DEBUG_VALUE: fe25519_sq:r00 <- $rdx
	.loc	7 383 17 is_stmt 1              # ./include/sodium/private/ed25519_ref10_fe_51.h:383:17 @[ crypto_scalarmult/curve25519/ref10/x25519_ref10.c:119:9 ]
	movq	%rdx, %rax
	shrq	$51, %rax
.Ltmp299:
	#DEBUG_VALUE: fe25519_sq:carry <- [DW_OP_LLVM_convert 64 7, DW_OP_LLVM_convert 128 7, DW_OP_stack_value] $rax
	.loc	7 385 9                         # ./include/sodium/private/ed25519_ref10_fe_51.h:385:9 @[ crypto_scalarmult/curve25519/ref10/x25519_ref10.c:119:9 ]
	addq	%rsi, %rax
.Ltmp300:
	.loc	7 384 9                         # ./include/sodium/private/ed25519_ref10_fe_51.h:384:9 @[ crypto_scalarmult/curve25519/ref10/x25519_ref10.c:119:9 ]
	andq	%r14, %rdx
.Ltmp301:
	#DEBUG_VALUE: fe25519_sq:r00 <- [DW_OP_constu 2251799813685247, DW_OP_and, DW_OP_stack_value] undef
	#DEBUG_VALUE: fe25519_sq:r01 <- $rax
	.loc	7 0 9 is_stmt 0                 # ./include/sodium/private/ed25519_ref10_fe_51.h:0:9
	movq	%rdx, 80(%rsp)                  # 8-byte Spill
	.loc	7 386 17 is_stmt 1              # ./include/sodium/private/ed25519_ref10_fe_51.h:386:17 @[ crypto_scalarmult/curve25519/ref10/x25519_ref10.c:119:9 ]
	movq	%rax, %rcx
	shrq	$51, %rcx
.Ltmp302:
	#DEBUG_VALUE: fe25519_sq:carry <- [DW_OP_LLVM_convert 64 7, DW_OP_LLVM_convert 128 7, DW_OP_stack_value] $rcx
	.loc	7 388 9                         # ./include/sodium/private/ed25519_ref10_fe_51.h:388:9 @[ crypto_scalarmult/curve25519/ref10/x25519_ref10.c:119:9 ]
	addq	%rdi, %rcx
.Ltmp303:
	.loc	7 0 9 is_stmt 0                 # ./include/sodium/private/ed25519_ref10_fe_51.h:0:9
	movq	%rcx, 88(%rsp)                  # 8-byte Spill
	.loc	7 387 9 is_stmt 1               # ./include/sodium/private/ed25519_ref10_fe_51.h:387:9 @[ crypto_scalarmult/curve25519/ref10/x25519_ref10.c:119:9 ]
	andq	%r14, %rax
.Ltmp304:
	#DEBUG_VALUE: fe25519_sq:r01 <- [DW_OP_constu 2251799813685247, DW_OP_and, DW_OP_stack_value] undef
	#DEBUG_VALUE: fe25519_sq:r02 <- [DW_OP_plus_uconst 88, DW_OP_deref] $rsp
	#DEBUG_VALUE: fe25519_sq:f0 <- [DW_OP_plus_uconst 8, DW_OP_deref] $rsp
	#DEBUG_VALUE: fe25519_sq:f1 <- [DW_OP_plus_uconst 24, DW_OP_deref] $rsp
	#DEBUG_VALUE: fe25519_sq:f2 <- [DW_OP_deref] $rsp
	#DEBUG_VALUE: fe25519_sq:f3 <- [DW_OP_plus_uconst 40, DW_OP_deref] $rsp
	#DEBUG_VALUE: fe25519_sq:f4 <- [DW_OP_plus_uconst 16, DW_OP_deref] $rsp
	#DEBUG_VALUE: fe25519_sq:f0_2 <- undef
	#DEBUG_VALUE: fe25519_sq:f1_2 <- undef
	.loc	7 0 9 is_stmt 0                 # ./include/sodium/private/ed25519_ref10_fe_51.h:0:9
	movq	%rax, 48(%rsp)                  # 8-byte Spill
	movq	24(%rsp), %r12                  # 8-byte Reload
.Ltmp305:
	.loc	7 341 19 is_stmt 1              # ./include/sodium/private/ed25519_ref10_fe_51.h:341:19 @[ crypto_scalarmult/curve25519/ref10/x25519_ref10.c:120:9 ]
	imulq	$38, %r12, %rcx
.Ltmp306:
	#DEBUG_VALUE: fe25519_sq:f1_38 <- $rcx
	#DEBUG_VALUE: fe25519_sq:f2_38 <- undef
	#DEBUG_VALUE: fe25519_sq:f3_38 <- undef
	#DEBUG_VALUE: fe25519_sq:f3_19 <- undef
	#DEBUG_VALUE: fe25519_sq:f4_19 <- undef
	.loc	7 0 19 is_stmt 0                # ./include/sodium/private/ed25519_ref10_fe_51.h:0:19
	movq	8(%rsp), %rsi                   # 8-byte Reload
	.loc	7 348 28 is_stmt 1              # ./include/sodium/private/ed25519_ref10_fe_51.h:348:28 @[ crypto_scalarmult/curve25519/ref10/x25519_ref10.c:120:9 ]
	movq	%rsi, %rax
	mulq	%rsi
	movq	%rsi, %r13
	movq	%rdx, %rdi
	movq	%rax, %r8
.Ltmp307:
	#DEBUG_VALUE: fe25519_sq:r0 <- [DW_OP_LLVM_fragment 0 64] $rax
	#DEBUG_VALUE: fe25519_sq:r0 <- [DW_OP_LLVM_fragment 64 64] $rdi
	.loc	7 0 28 is_stmt 0                # ./include/sodium/private/ed25519_ref10_fe_51.h:0:28
	movq	16(%rsp), %r10                  # 8-byte Reload
	.loc	7 349 31 is_stmt 1              # ./include/sodium/private/ed25519_ref10_fe_51.h:349:31 @[ crypto_scalarmult/curve25519/ref10/x25519_ref10.c:120:9 ]
	movq	%r10, %rax
.Ltmp308:
	#DEBUG_VALUE: fe25519_sq:r0 <- [DW_OP_LLVM_fragment 0 64] $r8
	mulq	%rcx
	movq	%rax, %r9
	movq	%rdx, %r11
.Ltmp309:
	#DEBUG_VALUE: fe25519_sq:r0 <- undef
	.loc	7 0 31 is_stmt 0                # ./include/sodium/private/ed25519_ref10_fe_51.h:0:31
	movq	(%rsp), %rbx                    # 8-byte Reload
	.loc	7 342 19 is_stmt 1              # ./include/sodium/private/ed25519_ref10_fe_51.h:342:19 @[ crypto_scalarmult/curve25519/ref10/x25519_ref10.c:120:9 ]
	imulq	$38, %rbx, %r14
.Ltmp310:
	#DEBUG_VALUE: fe25519_sq:f2_38 <- $r14
	.loc	7 350 31                        # ./include/sodium/private/ed25519_ref10_fe_51.h:350:31 @[ crypto_scalarmult/curve25519/ref10/x25519_ref10.c:120:9 ]
	movq	%r14, %rax
	movq	40(%rsp), %rbp                  # 8-byte Reload
	mulq	%rbp
	movq	%rax, %rsi
	movq	%rdx, %rcx
.Ltmp311:
	.loc	7 343 19                        # ./include/sodium/private/ed25519_ref10_fe_51.h:343:19 @[ crypto_scalarmult/curve25519/ref10/x25519_ref10.c:120:9 ]
	imulq	$38, %rbp, %rax
.Ltmp312:
	#DEBUG_VALUE: fe25519_sq:f3_38 <- $rax
	.loc	7 0 19 is_stmt 0                # ./include/sodium/private/ed25519_ref10_fe_51.h:0:19
	movq	%rax, 32(%rsp)                  # 8-byte Spill
	.loc	7 349 8 is_stmt 1               # ./include/sodium/private/ed25519_ref10_fe_51.h:349:8 @[ crypto_scalarmult/curve25519/ref10/x25519_ref10.c:120:9 ]
	addq	%r8, %rsi
	adcq	%rdi, %rcx
	.loc	7 350 8                         # ./include/sodium/private/ed25519_ref10_fe_51.h:350:8 @[ crypto_scalarmult/curve25519/ref10/x25519_ref10.c:120:9 ]
	addq	%r9, %rsi
.Ltmp313:
	#DEBUG_VALUE: fe25519_sq:r0 <- [DW_OP_LLVM_fragment 0 64] $rsi
	.loc	7 338 15                        # ./include/sodium/private/ed25519_ref10_fe_51.h:338:15 @[ crypto_scalarmult/curve25519/ref10/x25519_ref10.c:120:9 ]
	leaq	(%r13,%r13), %r8
.Ltmp314:
	#DEBUG_VALUE: fe25519_sq:f0_2 <- $r8
	.loc	7 350 8                         # ./include/sodium/private/ed25519_ref10_fe_51.h:350:8 @[ crypto_scalarmult/curve25519/ref10/x25519_ref10.c:120:9 ]
	adcq	%r11, %rcx
.Ltmp315:
	#DEBUG_VALUE: fe25519_sq:r0 <- [DW_OP_LLVM_fragment 64 64] $rcx
	.loc	7 352 30                        # ./include/sodium/private/ed25519_ref10_fe_51.h:352:30 @[ crypto_scalarmult/curve25519/ref10/x25519_ref10.c:120:9 ]
	movq	%r8, %rax
.Ltmp316:
	mulq	%r12
	movq	%rdx, %rdi
	movq	%rax, %r9
.Ltmp317:
	#DEBUG_VALUE: fe25519_sq:r1 <- [DW_OP_LLVM_fragment 0 64] $rax
	#DEBUG_VALUE: fe25519_sq:r1 <- [DW_OP_LLVM_fragment 64 64] $rdi
	.loc	7 353 31                        # ./include/sodium/private/ed25519_ref10_fe_51.h:353:31 @[ crypto_scalarmult/curve25519/ref10/x25519_ref10.c:120:9 ]
	movq	%r10, %rax
.Ltmp318:
	#DEBUG_VALUE: fe25519_sq:r1 <- [DW_OP_LLVM_fragment 0 64] $r9
	mulq	%r14
	movq	%rdx, %r11
	movq	%rax, %r14
.Ltmp319:
	.loc	7 353 8 is_stmt 0               # ./include/sodium/private/ed25519_ref10_fe_51.h:353:8 @[ crypto_scalarmult/curve25519/ref10/x25519_ref10.c:120:9 ]
	addq	%r9, %r14
.Ltmp320:
	#DEBUG_VALUE: fe25519_sq:r1 <- [DW_OP_LLVM_fragment 0 64] $r14
	adcq	%rdi, %r11
.Ltmp321:
	#DEBUG_VALUE: fe25519_sq:r1 <- [DW_OP_LLVM_fragment 64 64] $r11
	.loc	7 0 8                           # ./include/sodium/private/ed25519_ref10_fe_51.h:0:8
	movq	%rbp, %rdi
	.loc	7 345 19 is_stmt 1              # ./include/sodium/private/ed25519_ref10_fe_51.h:345:19 @[ crypto_scalarmult/curve25519/ref10/x25519_ref10.c:120:9 ]
	leaq	(,%rbp,8), %rax
	addq	%rbp, %rax
	leaq	(,%rax,2), %rax
	addq	%rbp, %rax
.Ltmp322:
	#DEBUG_VALUE: fe25519_sq:f3_19 <- $rax
	.loc	7 354 31                        # ./include/sodium/private/ed25519_ref10_fe_51.h:354:31 @[ crypto_scalarmult/curve25519/ref10/x25519_ref10.c:120:9 ]
	mulq	%rbp
.Ltmp323:
	movq	%rax, %r9
	.loc	7 354 8 is_stmt 0               # ./include/sodium/private/ed25519_ref10_fe_51.h:354:8 @[ crypto_scalarmult/curve25519/ref10/x25519_ref10.c:120:9 ]
	addq	%r14, %r9
.Ltmp324:
	#DEBUG_VALUE: fe25519_sq:r1 <- [DW_OP_LLVM_fragment 0 64] $r9
	adcq	%r11, %rdx
.Ltmp325:
	#DEBUG_VALUE: fe25519_sq:r1 <- [DW_OP_LLVM_fragment 64 64] $rdx
	.loc	7 0 8                           # ./include/sodium/private/ed25519_ref10_fe_51.h:0:8
	movq	%rdx, 8(%rsp)                   # 8-byte Spill
.Ltmp326:
	#DEBUG_VALUE: fe25519_sq:r1 <- [DW_OP_plus_uconst 8, DW_OP_deref, DW_OP_LLVM_fragment 64 64] $rsp
	#DEBUG_VALUE: fe25519_sq:f0 <- $r13
	.loc	7 356 30 is_stmt 1              # ./include/sodium/private/ed25519_ref10_fe_51.h:356:30 @[ crypto_scalarmult/curve25519/ref10/x25519_ref10.c:120:9 ]
	movq	%rbx, %rax
	movq	%rbx, %r13
.Ltmp327:
	mulq	%r8
	movq	%rdx, %r11
	movq	%rax, %r14
.Ltmp328:
	#DEBUG_VALUE: fe25519_sq:r2 <- [DW_OP_LLVM_fragment 0 64] $r14
	#DEBUG_VALUE: fe25519_sq:r2 <- [DW_OP_LLVM_fragment 64 64] $rdx
	.loc	7 357 29                        # ./include/sodium/private/ed25519_ref10_fe_51.h:357:29 @[ crypto_scalarmult/curve25519/ref10/x25519_ref10.c:120:9 ]
	movq	%r12, %rax
	mulq	%r12
.Ltmp329:
	#DEBUG_VALUE: fe25519_sq:r2 <- [DW_OP_LLVM_fragment 64 64] $r11
	.loc	7 0 29 is_stmt 0                # ./include/sodium/private/ed25519_ref10_fe_51.h:0:29
	movq	%r12, %rbp
	#DEBUG_VALUE: fe25519_sq:f4 <- [DW_OP_plus_uconst 40, DW_OP_deref] $rsp
	.loc	7 357 29                        # ./include/sodium/private/ed25519_ref10_fe_51.h:357:29 @[ crypto_scalarmult/curve25519/ref10/x25519_ref10.c:120:9 ]
	movq	%rdx, %r15
.Ltmp330:
	movq	%rax, %r12
	.loc	7 357 8                         # ./include/sodium/private/ed25519_ref10_fe_51.h:357:8 @[ crypto_scalarmult/curve25519/ref10/x25519_ref10.c:120:9 ]
	addq	%r14, %r12
.Ltmp331:
	#DEBUG_VALUE: fe25519_sq:r2 <- [DW_OP_LLVM_fragment 0 64] $r12
	adcq	%r11, %r15
.Ltmp332:
	#DEBUG_VALUE: fe25519_sq:r2 <- [DW_OP_LLVM_fragment 64 64] $r15
	.loc	7 0 8                           # ./include/sodium/private/ed25519_ref10_fe_51.h:0:8
	movq	32(%rsp), %rax                  # 8-byte Reload
	movq	%r10, %rbx
	.loc	7 358 31 is_stmt 1              # ./include/sodium/private/ed25519_ref10_fe_51.h:358:31 @[ crypto_scalarmult/curve25519/ref10/x25519_ref10.c:120:9 ]
	mulq	%r10
	movq	%rdx, %r10
	movq	%rax, %r11
	.loc	7 358 8 is_stmt 0               # ./include/sodium/private/ed25519_ref10_fe_51.h:358:8 @[ crypto_scalarmult/curve25519/ref10/x25519_ref10.c:120:9 ]
	addq	%r12, %r11
.Ltmp333:
	#DEBUG_VALUE: fe25519_sq:r2 <- [DW_OP_LLVM_fragment 0 64] $r11
	adcq	%r15, %r10
.Ltmp334:
	#DEBUG_VALUE: fe25519_sq:r2 <- [DW_OP_LLVM_fragment 64 64] $r10
	.loc	7 339 15 is_stmt 1              # ./include/sodium/private/ed25519_ref10_fe_51.h:339:15 @[ crypto_scalarmult/curve25519/ref10/x25519_ref10.c:120:9 ]
	leaq	(,%rbp,2), %r12
.Ltmp335:
	#DEBUG_VALUE: fe25519_sq:f1_2 <- $r12
	.loc	7 360 30                        # ./include/sodium/private/ed25519_ref10_fe_51.h:360:30 @[ crypto_scalarmult/curve25519/ref10/x25519_ref10.c:120:9 ]
	movq	%rdi, %rax
	mulq	%r8
	movq	%rdx, %r14
	movq	%rax, %r15
.Ltmp336:
	#DEBUG_VALUE: fe25519_sq:r3 <- [DW_OP_LLVM_fragment 0 64] $r15
	#DEBUG_VALUE: fe25519_sq:r3 <- [DW_OP_LLVM_fragment 64 64] $r14
	.loc	7 361 31                        # ./include/sodium/private/ed25519_ref10_fe_51.h:361:31 @[ crypto_scalarmult/curve25519/ref10/x25519_ref10.c:120:9 ]
	movq	%r12, %rax
	mulq	%r13
	movq	%rdx, %r13
.Ltmp337:
	#DEBUG_VALUE: fe25519_sq:f0 <- [DW_OP_deref] $rsp
	#DEBUG_VALUE: fe25519_sq:f3 <- [DW_OP_deref] $rsp
	movq	%rax, %rbp
	.loc	7 361 8 is_stmt 0               # ./include/sodium/private/ed25519_ref10_fe_51.h:361:8 @[ crypto_scalarmult/curve25519/ref10/x25519_ref10.c:120:9 ]
	addq	%r15, %rbp
.Ltmp338:
	#DEBUG_VALUE: fe25519_sq:r3 <- [DW_OP_LLVM_fragment 0 64] $rbp
	adcq	%r14, %r13
.Ltmp339:
	#DEBUG_VALUE: fe25519_sq:r3 <- [DW_OP_LLVM_fragment 64 64] $r13
	.loc	7 346 19 is_stmt 1              # ./include/sodium/private/ed25519_ref10_fe_51.h:346:19 @[ crypto_scalarmult/curve25519/ref10/x25519_ref10.c:120:9 ]
	leaq	(%rbx,%rbx,8), %rax
	leaq	(%rbx,%rax,2), %rax
.Ltmp340:
	#DEBUG_VALUE: fe25519_sq:f4_19 <- $rax
	.loc	7 362 31                        # ./include/sodium/private/ed25519_ref10_fe_51.h:362:31 @[ crypto_scalarmult/curve25519/ref10/x25519_ref10.c:120:9 ]
	mulq	%rbx
.Ltmp341:
	movq	%rdx, %r14
	movq	%rax, %r15
	.loc	7 362 8 is_stmt 0               # ./include/sodium/private/ed25519_ref10_fe_51.h:362:8 @[ crypto_scalarmult/curve25519/ref10/x25519_ref10.c:120:9 ]
	addq	%rbp, %r15
.Ltmp342:
	#DEBUG_VALUE: fe25519_sq:r3 <- [DW_OP_LLVM_fragment 0 64] $r15
	adcq	%r13, %r14
.Ltmp343:
	#DEBUG_VALUE: fe25519_sq:r3 <- [DW_OP_LLVM_fragment 64 64] $r14
	.loc	7 364 30 is_stmt 1              # ./include/sodium/private/ed25519_ref10_fe_51.h:364:30 @[ crypto_scalarmult/curve25519/ref10/x25519_ref10.c:120:9 ]
	movq	%rbx, %rax
	mulq	%r8
	movq	%rdx, 16(%rsp)                  # 8-byte Spill
.Ltmp344:
	#DEBUG_VALUE: fe25519_sq:f4 <- $rbx
	#DEBUG_VALUE: fe25519_add:h4 <- $rbx
	movq	%rax, %r8
.Ltmp345:
	#DEBUG_VALUE: fe25519_sq:r4 <- [DW_OP_LLVM_fragment 0 64] $rax
	#DEBUG_VALUE: fe25519_sq:r4 <- [DW_OP_plus_uconst 16, DW_OP_deref, DW_OP_LLVM_fragment 64 64] $rsp
	.loc	7 365 31                        # ./include/sodium/private/ed25519_ref10_fe_51.h:365:31 @[ crypto_scalarmult/curve25519/ref10/x25519_ref10.c:120:9 ]
	movq	%rdi, %rax
.Ltmp346:
	#DEBUG_VALUE: fe25519_sq:r4 <- [DW_OP_LLVM_fragment 0 64] $r8
	mulq	%r12
	movq	%rdx, %r13
.Ltmp347:
	#DEBUG_VALUE: fe25519_sq:r4 <- undef
	movq	%rax, %rbp
	movq	(%rsp), %rax                    # 8-byte Reload
	.loc	7 366 29                        # ./include/sodium/private/ed25519_ref10_fe_51.h:366:29 @[ crypto_scalarmult/curve25519/ref10/x25519_ref10.c:120:9 ]
	mulq	%rax
	.loc	7 369 16                        # ./include/sodium/private/ed25519_ref10_fe_51.h:369:16 @[ crypto_scalarmult/curve25519/ref10/x25519_ref10.c:120:9 ]
	movq	%rcx, %r12
.Ltmp348:
	shrq	$51, %r12
.Ltmp349:
	#DEBUG_VALUE: fe25519_sq:carry <- [DW_OP_LLVM_fragment 64 64] $r12
	shldq	$13, %rsi, %rcx
.Ltmp350:
	.loc	7 0 16 is_stmt 0                # ./include/sodium/private/ed25519_ref10_fe_51.h:0:16
	movabsq	$2251799813685247, %rdi         # imm = 0x7FFFFFFFFFFFF
	.loc	7 368 27 is_stmt 1              # ./include/sodium/private/ed25519_ref10_fe_51.h:368:27 @[ crypto_scalarmult/curve25519/ref10/x25519_ref10.c:120:9 ]
	andq	%rdi, %rsi
.Ltmp351:
	#DEBUG_VALUE: fe25519_sq:r00 <- $rsi
	#DEBUG_VALUE: fe25519_sq:carry <- [DW_OP_LLVM_fragment 0 64] $rcx
	.loc	7 370 8                         # ./include/sodium/private/ed25519_ref10_fe_51.h:370:8 @[ crypto_scalarmult/curve25519/ref10/x25519_ref10.c:120:9 ]
	addq	%r9, %rcx
.Ltmp352:
	#DEBUG_VALUE: fe25519_sq:r1 <- [DW_OP_LLVM_fragment 0 64] $rcx
	adcq	8(%rsp), %r12                   # 8-byte Folded Reload
.Ltmp353:
	.loc	7 372 16                        # ./include/sodium/private/ed25519_ref10_fe_51.h:372:16 @[ crypto_scalarmult/curve25519/ref10/x25519_ref10.c:120:9 ]
	movq	%r12, %rbx
.Ltmp354:
	shrq	$51, %rbx
.Ltmp355:
	#DEBUG_VALUE: fe25519_sq:carry <- [DW_OP_LLVM_fragment 64 64] $rbx
	shldq	$13, %rcx, %r12
.Ltmp356:
	#DEBUG_VALUE: fe25519_sq:r1 <- [DW_OP_LLVM_fragment 64 64] undef
	.loc	7 371 27                        # ./include/sodium/private/ed25519_ref10_fe_51.h:371:27 @[ crypto_scalarmult/curve25519/ref10/x25519_ref10.c:120:9 ]
	andq	%rdi, %rcx
.Ltmp357:
	#DEBUG_VALUE: fe25519_sq:r01 <- $rcx
	#DEBUG_VALUE: fe25519_sq:carry <- [DW_OP_LLVM_fragment 0 64] $r12
	.loc	7 0 27 is_stmt 0                # ./include/sodium/private/ed25519_ref10_fe_51.h:0:27
	movq	%rdi, %r9
	.loc	7 373 8 is_stmt 1               # ./include/sodium/private/ed25519_ref10_fe_51.h:373:8 @[ crypto_scalarmult/curve25519/ref10/x25519_ref10.c:120:9 ]
	addq	%r11, %r12
.Ltmp358:
	#DEBUG_VALUE: fe25519_sq:r2 <- [DW_OP_LLVM_fragment 0 64] $r12
	adcq	%r10, %rbx
.Ltmp359:
	.loc	7 375 16                        # ./include/sodium/private/ed25519_ref10_fe_51.h:375:16 @[ crypto_scalarmult/curve25519/ref10/x25519_ref10.c:120:9 ]
	movq	%rbx, %rdi
	shrq	$51, %rdi
.Ltmp360:
	#DEBUG_VALUE: fe25519_sq:carry <- [DW_OP_LLVM_fragment 64 64] $rdi
	shldq	$13, %r12, %rbx
.Ltmp361:
	#DEBUG_VALUE: fe25519_sq:r2 <- [DW_OP_LLVM_fragment 64 64] undef
	.loc	7 374 27                        # ./include/sodium/private/ed25519_ref10_fe_51.h:374:27 @[ crypto_scalarmult/curve25519/ref10/x25519_ref10.c:120:9 ]
	andq	%r9, %r12
.Ltmp362:
	#DEBUG_VALUE: fe25519_sq:r02 <- $r12
	#DEBUG_VALUE: fe25519_sq:carry <- [DW_OP_LLVM_fragment 0 64] $rbx
	.loc	7 0 27 is_stmt 0                # ./include/sodium/private/ed25519_ref10_fe_51.h:0:27
	movq	%r9, %r10
	.loc	7 376 8 is_stmt 1               # ./include/sodium/private/ed25519_ref10_fe_51.h:376:8 @[ crypto_scalarmult/curve25519/ref10/x25519_ref10.c:120:9 ]
	addq	%r15, %rbx
.Ltmp363:
	#DEBUG_VALUE: fe25519_sq:r3 <- [DW_OP_LLVM_fragment 0 64] $rbx
	adcq	%r14, %rdi
.Ltmp364:
	.loc	7 378 16                        # ./include/sodium/private/ed25519_ref10_fe_51.h:378:16 @[ crypto_scalarmult/curve25519/ref10/x25519_ref10.c:120:9 ]
	movq	%rdi, %r9
	#DEBUG_VALUE: fe25519_cswap:b <- $r10d
.Ltmp365:
	#DEBUG_VALUE: crypto_scalarmult_curve25519_ref10:swap <- $r10d
	shrq	$51, %r9
.Ltmp366:
	#DEBUG_VALUE: fe25519_sq:carry <- [DW_OP_LLVM_fragment 64 64] $r9
	shldq	$13, %rbx, %rdi
.Ltmp367:
	#DEBUG_VALUE: fe25519_sq:r3 <- [DW_OP_LLVM_fragment 64 64] undef
	.loc	7 377 27                        # ./include/sodium/private/ed25519_ref10_fe_51.h:377:27 @[ crypto_scalarmult/curve25519/ref10/x25519_ref10.c:120:9 ]
	andq	%r10, %rbx
.Ltmp368:
	#DEBUG_VALUE: fe25519_sq:r03 <- $rbx
	#DEBUG_VALUE: fe25519_sq:carry <- [DW_OP_LLVM_fragment 0 64] $rdi
	.loc	7 0 27 is_stmt 0                # ./include/sodium/private/ed25519_ref10_fe_51.h:0:27
	movq	%r10, %r15
	movq	%rbx, 24(%rsp)                  # 8-byte Spill
.Ltmp369:
	#DEBUG_VALUE: fe25519_sq:r03 <- [DW_OP_plus_uconst 24, DW_OP_deref] $rsp
	#DEBUG_VALUE: fe25519_sq:f1 <- undef
	#DEBUG_VALUE: fe25519_add:h1 <- undef
	.loc	7 365 8 is_stmt 1               # ./include/sodium/private/ed25519_ref10_fe_51.h:365:8 @[ crypto_scalarmult/curve25519/ref10/x25519_ref10.c:120:9 ]
	addq	%rbp, %rax
	adcq	%r13, %rdx
	.loc	7 366 8                         # ./include/sodium/private/ed25519_ref10_fe_51.h:366:8 @[ crypto_scalarmult/curve25519/ref10/x25519_ref10.c:120:9 ]
	addq	%r8, %rax
.Ltmp370:
	#DEBUG_VALUE: fe25519_sq:r4 <- [DW_OP_LLVM_fragment 0 64] $rax
	adcq	16(%rsp), %rdx                  # 8-byte Folded Reload
.Ltmp371:
	#DEBUG_VALUE: fe25519_sq:r4 <- [DW_OP_LLVM_fragment 64 64] $rdx
	.loc	7 379 8                         # ./include/sodium/private/ed25519_ref10_fe_51.h:379:8 @[ crypto_scalarmult/curve25519/ref10/x25519_ref10.c:120:9 ]
	addq	%rdi, %rax
.Ltmp372:
	#DEBUG_VALUE: fe25519_sq:r4 <- [DW_OP_LLVM_fragment 0 64] $rax
	.loc	7 0 8 is_stmt 0                 # ./include/sodium/private/ed25519_ref10_fe_51.h:0:8
	movq	%rax, (%rsp)                    # 8-byte Spill
.Ltmp373:
	#DEBUG_VALUE: fe25519_sq:r4 <- [DW_OP_deref, DW_OP_LLVM_fragment 0 64] $rsp
	#DEBUG_VALUE: fe25519_sq:f2 <- undef
	#DEBUG_VALUE: fe25519_sq:f0 <- undef
	#DEBUG_VALUE: fe25519_sq:f3 <- undef
	#DEBUG_VALUE: fe25519_add:h2 <- undef
	.loc	7 379 8                         # ./include/sodium/private/ed25519_ref10_fe_51.h:379:8 @[ crypto_scalarmult/curve25519/ref10/x25519_ref10.c:120:9 ]
	adcq	%r9, %rdx
.Ltmp374:
	.loc	7 381 16 is_stmt 1              # ./include/sodium/private/ed25519_ref10_fe_51.h:381:16 @[ crypto_scalarmult/curve25519/ref10/x25519_ref10.c:120:9 ]
	shldq	$13, %rax, %rdx
.Ltmp375:
	#DEBUG_VALUE: fe25519_sq:r4 <- [DW_OP_LLVM_fragment 64 64] undef
	#DEBUG_VALUE: fe25519_sq:r04 <- undef
	#DEBUG_VALUE: fe25519_sq:carry <- [DW_OP_LLVM_fragment 0 64] $rdx
	#DEBUG_VALUE: fe25519_sq:carry <- [DW_OP_LLVM_fragment 64 64] undef
	.loc	7 382 18                        # ./include/sodium/private/ed25519_ref10_fe_51.h:382:18 @[ crypto_scalarmult/curve25519/ref10/x25519_ref10.c:120:9 ]
	leaq	(%rdx,%rdx,8), %rdi
	leaq	(%rdx,%rdi,2), %rdx
.Ltmp376:
	.loc	7 382 9 is_stmt 0               # ./include/sodium/private/ed25519_ref10_fe_51.h:382:9 @[ crypto_scalarmult/curve25519/ref10/x25519_ref10.c:120:9 ]
	addq	%rsi, %rdx
.Ltmp377:
	#DEBUG_VALUE: fe25519_sq:r00 <- $rdx
	.loc	7 0 9                           # ./include/sodium/private/ed25519_ref10_fe_51.h:0:9
	movq	%rdx, 40(%rsp)                  # 8-byte Spill
.Ltmp378:
	#DEBUG_VALUE: fe25519_sq:r00 <- [DW_OP_plus_uconst 40, DW_OP_deref] $rsp
	#DEBUG_VALUE: fe25519_sq:f3 <- undef
	#DEBUG_VALUE: fe25519_sq:f4 <- undef
	#DEBUG_VALUE: fe25519_add:h3 <- undef
	.loc	7 383 17 is_stmt 1              # ./include/sodium/private/ed25519_ref10_fe_51.h:383:17 @[ crypto_scalarmult/curve25519/ref10/x25519_ref10.c:120:9 ]
	movq	%rdx, %rax
	shrq	$51, %rax
.Ltmp379:
	#DEBUG_VALUE: fe25519_sq:carry <- [DW_OP_LLVM_convert 64 7, DW_OP_LLVM_convert 128 7, DW_OP_stack_value] $rax
	.loc	7 385 9                         # ./include/sodium/private/ed25519_ref10_fe_51.h:385:9 @[ crypto_scalarmult/curve25519/ref10/x25519_ref10.c:120:9 ]
	addq	%rcx, %rax
.Ltmp380:
	#DEBUG_VALUE: fe25519_sq:r00 <- undef
	#DEBUG_VALUE: fe25519_sq:r01 <- $rax
	.loc	7 0 9 is_stmt 0                 # ./include/sodium/private/ed25519_ref10_fe_51.h:0:9
	movq	%rax, 8(%rsp)                   # 8-byte Spill
.Ltmp381:
	#DEBUG_VALUE: fe25519_sq:r01 <- [DW_OP_plus_uconst 8, DW_OP_deref] $rsp
	.loc	7 386 17 is_stmt 1              # ./include/sodium/private/ed25519_ref10_fe_51.h:386:17 @[ crypto_scalarmult/curve25519/ref10/x25519_ref10.c:120:9 ]
	shrq	$51, %rax
.Ltmp382:
	#DEBUG_VALUE: fe25519_sq:carry <- [DW_OP_LLVM_convert 64 7, DW_OP_LLVM_convert 128 7, DW_OP_stack_value] $rax
	.loc	7 388 9                         # ./include/sodium/private/ed25519_ref10_fe_51.h:388:9 @[ crypto_scalarmult/curve25519/ref10/x25519_ref10.c:120:9 ]
	addq	%r12, %rax
.Ltmp383:
	#DEBUG_VALUE: fe25519_sq:r01 <- undef
	#DEBUG_VALUE: fe25519_sq:r02 <- $rax
	.loc	7 0 9 is_stmt 0                 # ./include/sodium/private/ed25519_ref10_fe_51.h:0:9
	movq	%rax, 16(%rsp)                  # 8-byte Spill
.Ltmp384:
	#DEBUG_VALUE: fe25519_sq:r02 <- [DW_OP_plus_uconst 16, DW_OP_deref] $rsp
	.loc	7 35 19 is_stmt 1               # ./include/sodium/private/ed25519_ref10_fe_51.h:35:19 @[ crypto_scalarmult/curve25519/ref10/x25519_ref10.c:121:9 ]
	movq	416(%rsp), %rdx
	.loc	7 35 26 is_stmt 0               # ./include/sodium/private/ed25519_ref10_fe_51.h:35:26 @[ crypto_scalarmult/curve25519/ref10/x25519_ref10.c:121:9 ]
	movq	112(%rsp), %rsi
	.loc	7 36 26 is_stmt 1               # ./include/sodium/private/ed25519_ref10_fe_51.h:36:26 @[ crypto_scalarmult/curve25519/ref10/x25519_ref10.c:121:9 ]
	movq	120(%rsp), %rax
	.loc	7 35 24                         # ./include/sodium/private/ed25519_ref10_fe_51.h:35:24 @[ crypto_scalarmult/curve25519/ref10/x25519_ref10.c:121:9 ]
	leaq	(%rsi,%rdx), %rcx
.Ltmp385:
	#DEBUG_VALUE: fe25519_add:h0 <- $rcx
	#DEBUG_VALUE: fe25519_add:h1 <- undef
	#DEBUG_VALUE: fe25519_add:h3 <- undef
	#DEBUG_VALUE: fe25519_add:h4 <- undef
	#DEBUG_VALUE: fe25519_sub:h <- [DW_OP_plus_uconst 112, DW_OP_stack_value] $rsp
	#DEBUG_VALUE: fe25519_sub:f <- [DW_OP_plus_uconst 416, DW_OP_stack_value] $rsp
	#DEBUG_VALUE: fe25519_sub:g <- [DW_OP_plus_uconst 112, DW_OP_stack_value] $rsp
	#DEBUG_VALUE: fe25519_sub:mask <- 2251799813685247
	#DEBUG_VALUE: fe25519_sub:h4 <- undef
	#DEBUG_VALUE: fe25519_sub:h3 <- undef
	#DEBUG_VALUE: fe25519_sub:h2 <- undef
	#DEBUG_VALUE: fe25519_sub:h1 <- $rax
	#DEBUG_VALUE: fe25519_sub:h0 <- $rsi
	.loc	7 0 24 is_stmt 0                # ./include/sodium/private/ed25519_ref10_fe_51.h:0:24
	movq	%rcx, 72(%rsp)                  # 8-byte Spill
.Ltmp386:
	#DEBUG_VALUE: fe25519_add:h0 <- [DW_OP_plus_uconst 72, DW_OP_deref] $rsp
	.loc	7 64 14 is_stmt 1               # ./include/sodium/private/ed25519_ref10_fe_51.h:64:14 @[ crypto_scalarmult/curve25519/ref10/x25519_ref10.c:122:9 ]
	movq	%rsi, %rcx
	shrq	$51, %rcx
	.loc	7 64 8 is_stmt 0                # ./include/sodium/private/ed25519_ref10_fe_51.h:64:8 @[ crypto_scalarmult/curve25519/ref10/x25519_ref10.c:122:9 ]
	addq	%rax, %rcx
.Ltmp387:
	#DEBUG_VALUE: fe25519_sub:h1 <- $rcx
	.loc	7 65 8 is_stmt 1                # ./include/sodium/private/ed25519_ref10_fe_51.h:65:8 @[ crypto_scalarmult/curve25519/ref10/x25519_ref10.c:122:9 ]
	andq	%r10, %rsi
.Ltmp388:
	#DEBUG_VALUE: fe25519_sub:h0 <- $rsi
	#DEBUG_VALUE: fe25519_add:h2 <- undef
	#DEBUG_VALUE: fe25519_sub:h2 <- undef
	#DEBUG_VALUE: fe25519_sub:h1 <- undef
	#DEBUG_VALUE: fe25519_sub:h3 <- undef
	#DEBUG_VALUE: fe25519_sub:h2 <- undef
	#DEBUG_VALUE: fe25519_sub:h4 <- undef
	#DEBUG_VALUE: fe25519_sub:h3 <- undef
	#DEBUG_VALUE: fe25519_sub:h4 <- undef
	.loc	7 0 8 is_stmt 0                 # ./include/sodium/private/ed25519_ref10_fe_51.h:0:8
	movabsq	$4503599627370494, %rbx         # imm = 0xFFFFFFFFFFFFE
	.loc	7 75 16 is_stmt 1               # ./include/sodium/private/ed25519_ref10_fe_51.h:75:16 @[ crypto_scalarmult/curve25519/ref10/x25519_ref10.c:122:9 ]
	addq	%rbx, %rdx
	addq	$-36, %rdx
	subq	%rsi, %rdx
	movq	%rdx, %r14
	.loc	7 66 14                         # ./include/sodium/private/ed25519_ref10_fe_51.h:66:14 @[ crypto_scalarmult/curve25519/ref10/x25519_ref10.c:122:9 ]
	movq	%rcx, %rdi
	shrq	$51, %rdi
.Ltmp389:
	.loc	7 37 26                         # ./include/sodium/private/ed25519_ref10_fe_51.h:37:26 @[ crypto_scalarmult/curve25519/ref10/x25519_ref10.c:121:9 ]
	movq	128(%rsp), %r11
.Ltmp390:
	#DEBUG_VALUE: fe25519_sub:h2 <- $r11
	.loc	7 66 8                          # ./include/sodium/private/ed25519_ref10_fe_51.h:66:8 @[ crypto_scalarmult/curve25519/ref10/x25519_ref10.c:122:9 ]
	addq	%r11, %rdi
.Ltmp391:
	#DEBUG_VALUE: fe25519_sub:h2 <- $rdi
	.loc	7 68 14                         # ./include/sodium/private/ed25519_ref10_fe_51.h:68:14 @[ crypto_scalarmult/curve25519/ref10/x25519_ref10.c:122:9 ]
	movq	%rdi, %rsi
.Ltmp392:
	shrq	$51, %rsi
.Ltmp393:
	.loc	7 38 26                         # ./include/sodium/private/ed25519_ref10_fe_51.h:38:26 @[ crypto_scalarmult/curve25519/ref10/x25519_ref10.c:121:9 ]
	movq	136(%rsp), %r8
.Ltmp394:
	#DEBUG_VALUE: fe25519_sub:h3 <- $r8
	.loc	7 68 8                          # ./include/sodium/private/ed25519_ref10_fe_51.h:68:8 @[ crypto_scalarmult/curve25519/ref10/x25519_ref10.c:122:9 ]
	addq	%r8, %rsi
.Ltmp395:
	#DEBUG_VALUE: fe25519_sub:h3 <- $rsi
	.loc	7 70 14                         # ./include/sodium/private/ed25519_ref10_fe_51.h:70:14 @[ crypto_scalarmult/curve25519/ref10/x25519_ref10.c:122:9 ]
	movq	%rsi, %rdx
	shrq	$51, %rdx
.Ltmp396:
	.loc	7 39 26                         # ./include/sodium/private/ed25519_ref10_fe_51.h:39:26 @[ crypto_scalarmult/curve25519/ref10/x25519_ref10.c:121:9 ]
	movq	144(%rsp), %r9
.Ltmp397:
	#DEBUG_VALUE: fe25519_sub:h4 <- $r9
	.loc	7 70 8                          # ./include/sodium/private/ed25519_ref10_fe_51.h:70:8 @[ crypto_scalarmult/curve25519/ref10/x25519_ref10.c:122:9 ]
	addq	%r9, %rdx
.Ltmp398:
	#DEBUG_VALUE: fe25519_sub:h4 <- $rdx
	.loc	7 72 23                         # ./include/sodium/private/ed25519_ref10_fe_51.h:72:23 @[ crypto_scalarmult/curve25519/ref10/x25519_ref10.c:122:9 ]
	movq	%rdx, %r10
.Ltmp399:
	#DEBUG_VALUE: fe25519_cswap:b <- $r15d
	#DEBUG_VALUE: crypto_scalarmult_curve25519_ref10:swap <- $r15d
	shrq	$51, %r10
.Ltmp400:
	#DEBUG_VALUE: fe25519_sub:h0 <- undef
	.loc	7 75 38                         # ./include/sodium/private/ed25519_ref10_fe_51.h:75:38 @[ crypto_scalarmult/curve25519/ref10/x25519_ref10.c:122:9 ]
	imulq	$-19, %r10, %r10
	addq	%r10, %r14
.Ltmp401:
	#DEBUG_VALUE: fe25519_sub:h0 <- $r14
	.loc	7 0 38 is_stmt 0                # ./include/sodium/private/ed25519_ref10_fe_51.h:0:38
	movq	%r14, 64(%rsp)                  # 8-byte Spill
.Ltmp402:
	#DEBUG_VALUE: fe25519_sub:h0 <- [DW_OP_plus_uconst 64, DW_OP_deref] $rsp
	.loc	7 36 19 is_stmt 1               # ./include/sodium/private/ed25519_ref10_fe_51.h:36:19 @[ crypto_scalarmult/curve25519/ref10/x25519_ref10.c:121:9 ]
	movq	424(%rsp), %r10
	.loc	7 36 24 is_stmt 0               # ./include/sodium/private/ed25519_ref10_fe_51.h:36:24 @[ crypto_scalarmult/curve25519/ref10/x25519_ref10.c:121:9 ]
	addq	%r10, %rax
.Ltmp403:
	#DEBUG_VALUE: fe25519_add:h1 <- $rax
	.loc	7 0 24                          # ./include/sodium/private/ed25519_ref10_fe_51.h:0:24
	movq	%rax, 184(%rsp)                 # 8-byte Spill
.Ltmp404:
	.loc	7 67 8 is_stmt 1                # ./include/sodium/private/ed25519_ref10_fe_51.h:67:8 @[ crypto_scalarmult/curve25519/ref10/x25519_ref10.c:122:9 ]
	andq	%r15, %rcx
.Ltmp405:
	#DEBUG_VALUE: fe25519_sub:h1 <- $rcx
	.loc	7 76 38                         # ./include/sodium/private/ed25519_ref10_fe_51.h:76:38 @[ crypto_scalarmult/curve25519/ref10/x25519_ref10.c:122:9 ]
	subq	%rcx, %r10
.Ltmp406:
	#DEBUG_VALUE: fe25519_sub:h1 <- undef
	.loc	7 37 19                         # ./include/sodium/private/ed25519_ref10_fe_51.h:37:19 @[ crypto_scalarmult/curve25519/ref10/x25519_ref10.c:121:9 ]
	movq	432(%rsp), %rcx
	.loc	7 37 24 is_stmt 0               # ./include/sodium/private/ed25519_ref10_fe_51.h:37:24 @[ crypto_scalarmult/curve25519/ref10/x25519_ref10.c:121:9 ]
	addq	%rcx, %r11
.Ltmp407:
	#DEBUG_VALUE: fe25519_add:h2 <- $r11
	.loc	7 0 24                          # ./include/sodium/private/ed25519_ref10_fe_51.h:0:24
	movq	%r11, 192(%rsp)                 # 8-byte Spill
.Ltmp408:
	.loc	7 69 8 is_stmt 1                # ./include/sodium/private/ed25519_ref10_fe_51.h:69:8 @[ crypto_scalarmult/curve25519/ref10/x25519_ref10.c:122:9 ]
	andq	%r15, %rdi
.Ltmp409:
	#DEBUG_VALUE: fe25519_sub:h2 <- $rdi
	.loc	7 77 38                         # ./include/sodium/private/ed25519_ref10_fe_51.h:77:38 @[ crypto_scalarmult/curve25519/ref10/x25519_ref10.c:122:9 ]
	subq	%rdi, %rcx
.Ltmp410:
	#DEBUG_VALUE: fe25519_sub:h2 <- undef
	.loc	7 0 38 is_stmt 0                # ./include/sodium/private/ed25519_ref10_fe_51.h:0:38
	movq	%rcx, %r11
.Ltmp411:
	.loc	7 38 19 is_stmt 1               # ./include/sodium/private/ed25519_ref10_fe_51.h:38:19 @[ crypto_scalarmult/curve25519/ref10/x25519_ref10.c:121:9 ]
	movq	440(%rsp), %r13
	.loc	7 38 24 is_stmt 0               # ./include/sodium/private/ed25519_ref10_fe_51.h:38:24 @[ crypto_scalarmult/curve25519/ref10/x25519_ref10.c:121:9 ]
	leaq	(%r8,%r13), %rcx
.Ltmp412:
	#DEBUG_VALUE: fe25519_add:h3 <- $rcx
	.loc	7 0 24                          # ./include/sodium/private/ed25519_ref10_fe_51.h:0:24
	movq	%rcx, 32(%rsp)                  # 8-byte Spill
.Ltmp413:
	.loc	7 71 8 is_stmt 1                # ./include/sodium/private/ed25519_ref10_fe_51.h:71:8 @[ crypto_scalarmult/curve25519/ref10/x25519_ref10.c:122:9 ]
	andq	%r15, %rsi
.Ltmp414:
	#DEBUG_VALUE: fe25519_sub:h3 <- $rsi
	.loc	7 78 38                         # ./include/sodium/private/ed25519_ref10_fe_51.h:78:38 @[ crypto_scalarmult/curve25519/ref10/x25519_ref10.c:122:9 ]
	subq	%rsi, %r13
.Ltmp415:
	#DEBUG_VALUE: fe25519_sub:h3 <- undef
	.loc	7 39 19                         # ./include/sodium/private/ed25519_ref10_fe_51.h:39:19 @[ crypto_scalarmult/curve25519/ref10/x25519_ref10.c:121:9 ]
	movq	448(%rsp), %rbp
	.loc	7 39 24 is_stmt 0               # ./include/sodium/private/ed25519_ref10_fe_51.h:39:24 @[ crypto_scalarmult/curve25519/ref10/x25519_ref10.c:121:9 ]
	leaq	(%r9,%rbp), %rcx
.Ltmp416:
	#DEBUG_VALUE: fe25519_add:h4 <- $rcx
	.loc	7 0 24                          # ./include/sodium/private/ed25519_ref10_fe_51.h:0:24
	movq	%rcx, 176(%rsp)                 # 8-byte Spill
.Ltmp417:
	.loc	7 73 8 is_stmt 1                # ./include/sodium/private/ed25519_ref10_fe_51.h:73:8 @[ crypto_scalarmult/curve25519/ref10/x25519_ref10.c:122:9 ]
	andq	%r15, %rdx
.Ltmp418:
	#DEBUG_VALUE: fe25519_sub:h4 <- $rdx
	.loc	7 0 8 is_stmt 0                 # ./include/sodium/private/ed25519_ref10_fe_51.h:0:8
	movq	%r15, %rcx
.Ltmp419:
	movq	%rbx, %rsi
	.loc	7 79 16 is_stmt 1               # ./include/sodium/private/ed25519_ref10_fe_51.h:79:16 @[ crypto_scalarmult/curve25519/ref10/x25519_ref10.c:122:9 ]
	addq	%rbx, %rbp
	.loc	7 79 38 is_stmt 0               # ./include/sodium/private/ed25519_ref10_fe_51.h:79:38 @[ crypto_scalarmult/curve25519/ref10/x25519_ref10.c:122:9 ]
	subq	%rdx, %rbp
.Ltmp420:
	#DEBUG_VALUE: fe25519_sub:h4 <- $rbp
	#DEBUG_VALUE: crypto_scalarmult_curve25519_ref10:z2 <- [DW_OP_LLVM_fragment 256 64] $rbp
	#DEBUG_VALUE: crypto_scalarmult_curve25519_ref10:z2 <- [DW_OP_plus_uconst 64, DW_OP_deref, DW_OP_LLVM_fragment 0 64] $rsp
	#DEBUG_VALUE: crypto_scalarmult_curve25519_ref10:z2 <- [DW_OP_LLVM_fragment 64 64] undef
	#DEBUG_VALUE: crypto_scalarmult_curve25519_ref10:z2 <- [DW_OP_LLVM_fragment 128 64] undef
	#DEBUG_VALUE: crypto_scalarmult_curve25519_ref10:z2 <- [DW_OP_LLVM_fragment 192 64] undef
	.loc	7 0 38                          # ./include/sodium/private/ed25519_ref10_fe_51.h:0:38
	movq	80(%rsp), %r15                  # 8-byte Reload
.Ltmp421:
	.loc	7 390 10 is_stmt 1              # ./include/sodium/private/ed25519_ref10_fe_51.h:390:10 @[ crypto_scalarmult/curve25519/ref10/x25519_ref10.c:119:9 ]
	movq	%r15, 368(%rsp)
	movq	48(%rsp), %rax                  # 8-byte Reload
.Ltmp422:
	.loc	7 391 10                        # ./include/sodium/private/ed25519_ref10_fe_51.h:391:10 @[ crypto_scalarmult/curve25519/ref10/x25519_ref10.c:119:9 ]
	movq	%rax, 376(%rsp)
	movq	88(%rsp), %rbx                  # 8-byte Reload
	.loc	7 392 10                        # ./include/sodium/private/ed25519_ref10_fe_51.h:392:10 @[ crypto_scalarmult/curve25519/ref10/x25519_ref10.c:119:9 ]
	movq	%rbx, 384(%rsp)
	movq	104(%rsp), %r14                 # 8-byte Reload
	.loc	7 393 10                        # ./include/sodium/private/ed25519_ref10_fe_51.h:393:10 @[ crypto_scalarmult/curve25519/ref10/x25519_ref10.c:119:9 ]
	movq	%r14, 392(%rsp)
	movq	96(%rsp), %r12                  # 8-byte Reload
	.loc	7 394 10                        # ./include/sodium/private/ed25519_ref10_fe_51.h:394:10 @[ crypto_scalarmult/curve25519/ref10/x25519_ref10.c:119:9 ]
	movq	%r12, 400(%rsp)
.Ltmp423:
	#DEBUG_VALUE: fe25519_sq:h <- [DW_OP_plus_uconst 320, DW_OP_stack_value] $rsp
	#DEBUG_VALUE: fe25519_sq:f <- [DW_OP_plus_uconst 208, DW_OP_stack_value] $rsp
	#DEBUG_VALUE: fe25519_sq:mask <- 2251799813685247
	.loc	7 0 10 is_stmt 0                # ./include/sodium/private/ed25519_ref10_fe_51.h:0:10
	movq	%rcx, %rax
	movq	(%rsp), %rcx                    # 8-byte Reload
.Ltmp424:
	.loc	7 380 27 is_stmt 1              # ./include/sodium/private/ed25519_ref10_fe_51.h:380:27 @[ crypto_scalarmult/curve25519/ref10/x25519_ref10.c:120:9 ]
	andq	%rax, %rcx
.Ltmp425:
	#DEBUG_VALUE: fe25519_sq:r04 <- $rcx
	.loc	7 0 27 is_stmt 0                # ./include/sodium/private/ed25519_ref10_fe_51.h:0:27
	movq	%rcx, (%rsp)                    # 8-byte Spill
.Ltmp426:
	#DEBUG_VALUE: fe25519_sq:r4 <- [DW_OP_LLVM_fragment 0 64] undef
	movq	40(%rsp), %rdi                  # 8-byte Reload
	.loc	7 384 9 is_stmt 1               # ./include/sodium/private/ed25519_ref10_fe_51.h:384:9 @[ crypto_scalarmult/curve25519/ref10/x25519_ref10.c:120:9 ]
	andq	%rax, %rdi
.Ltmp427:
	#DEBUG_VALUE: fe25519_sq:r00 <- $rdi
	.loc	7 0 9 is_stmt 0                 # ./include/sodium/private/ed25519_ref10_fe_51.h:0:9
	movq	%rdi, 40(%rsp)                  # 8-byte Spill
	movq	8(%rsp), %rdx                   # 8-byte Reload
	.loc	7 387 9 is_stmt 1               # ./include/sodium/private/ed25519_ref10_fe_51.h:387:9 @[ crypto_scalarmult/curve25519/ref10/x25519_ref10.c:120:9 ]
	andq	%rax, %rdx
.Ltmp428:
	#DEBUG_VALUE: fe25519_sq:r01 <- $rdx
	.loc	7 0 9 is_stmt 0                 # ./include/sodium/private/ed25519_ref10_fe_51.h:0:9
	movq	%rdx, 8(%rsp)                   # 8-byte Spill
	.loc	7 390 10 is_stmt 1              # ./include/sodium/private/ed25519_ref10_fe_51.h:390:10 @[ crypto_scalarmult/curve25519/ref10/x25519_ref10.c:120:9 ]
	movq	%rdi, 320(%rsp)
	.loc	7 391 10                        # ./include/sodium/private/ed25519_ref10_fe_51.h:391:10 @[ crypto_scalarmult/curve25519/ref10/x25519_ref10.c:120:9 ]
	movq	%rdx, 328(%rsp)
	movq	16(%rsp), %rax                  # 8-byte Reload
	.loc	7 392 10                        # ./include/sodium/private/ed25519_ref10_fe_51.h:392:10 @[ crypto_scalarmult/curve25519/ref10/x25519_ref10.c:120:9 ]
	movq	%rax, 336(%rsp)
	movq	24(%rsp), %rax                  # 8-byte Reload
	.loc	7 393 10                        # ./include/sodium/private/ed25519_ref10_fe_51.h:393:10 @[ crypto_scalarmult/curve25519/ref10/x25519_ref10.c:120:9 ]
	movq	%rax, 344(%rsp)
	.loc	7 394 10                        # ./include/sodium/private/ed25519_ref10_fe_51.h:394:10 @[ crypto_scalarmult/curve25519/ref10/x25519_ref10.c:120:9 ]
	movq	%rcx, 352(%rsp)
.Ltmp429:
	#DEBUG_VALUE: fe25519_add:h <- undef
	#DEBUG_VALUE: fe25519_add:f <- [DW_OP_plus_uconst 416, DW_OP_stack_value] $rsp
	#DEBUG_VALUE: fe25519_add:g <- [DW_OP_plus_uconst 112, DW_OP_stack_value] $rsp
	.loc	7 76 38                         # ./include/sodium/private/ed25519_ref10_fe_51.h:76:38 @[ crypto_scalarmult/curve25519/ref10/x25519_ref10.c:122:9 ]
	addq	%rsi, %r10
.Ltmp430:
	#DEBUG_VALUE: fe25519_sub:h1 <- $r10
	#DEBUG_VALUE: crypto_scalarmult_curve25519_ref10:z2 <- [DW_OP_LLVM_fragment 64 64] $r10
	.loc	7 0 38 is_stmt 0                # ./include/sodium/private/ed25519_ref10_fe_51.h:0:38
	movq	%r10, 56(%rsp)                  # 8-byte Spill
	.loc	7 77 38 is_stmt 1               # ./include/sodium/private/ed25519_ref10_fe_51.h:77:38 @[ crypto_scalarmult/curve25519/ref10/x25519_ref10.c:122:9 ]
	addq	%rsi, %r11
.Ltmp431:
	#DEBUG_VALUE: fe25519_sub:h2 <- $r11
	#DEBUG_VALUE: crypto_scalarmult_curve25519_ref10:z2 <- [DW_OP_LLVM_fragment 128 64] $r11
	.loc	7 0 38 is_stmt 0                # ./include/sodium/private/ed25519_ref10_fe_51.h:0:38
	movq	%r11, 272(%rsp)                 # 8-byte Spill
	.loc	7 78 38 is_stmt 1               # ./include/sodium/private/ed25519_ref10_fe_51.h:78:38 @[ crypto_scalarmult/curve25519/ref10/x25519_ref10.c:122:9 ]
	addq	%rsi, %r13
.Ltmp432:
	#DEBUG_VALUE: fe25519_sub:h3 <- $r13
	#DEBUG_VALUE: crypto_scalarmult_curve25519_ref10:z2 <- [DW_OP_LLVM_fragment 192 64] $r13
	.loc	2 123 9                         # crypto_scalarmult/curve25519/ref10/x25519_ref10.c:123:9
	leaq	208(%rsp), %rdi
.Ltmp433:
	leaq	320(%rsp), %rsi
	leaq	368(%rsp), %rdx
.Ltmp434:
	callq	fe25519_mul
.Ltmp435:
	#DEBUG_VALUE: fe25519_sub:h <- [DW_OP_plus_uconst 320, DW_OP_stack_value] $rsp
	#DEBUG_VALUE: fe25519_sub:f <- [DW_OP_plus_uconst 320, DW_OP_stack_value] $rsp
	#DEBUG_VALUE: fe25519_sub:g <- [DW_OP_plus_uconst 368, DW_OP_stack_value] $rsp
	#DEBUG_VALUE: fe25519_sub:mask <- 2251799813685247
	#DEBUG_VALUE: fe25519_sub:h3 <- [DW_OP_plus_uconst 104, DW_OP_deref] $rsp
	#DEBUG_VALUE: fe25519_sub:h4 <- [DW_OP_plus_uconst 96, DW_OP_deref] $rsp
	#DEBUG_VALUE: fe25519_sub:h0 <- [DW_OP_constu 2251799813685247, DW_OP_and, DW_OP_stack_value] undef
	#DEBUG_VALUE: fe25519_sub:h2 <- [DW_OP_plus_uconst 88, DW_OP_deref] $rsp
	#DEBUG_VALUE: fe25519_sub:h1 <- [DW_OP_constu 2251799813685247, DW_OP_and, DW_OP_stack_value] undef
	.loc	7 68 14                         # ./include/sodium/private/ed25519_ref10_fe_51.h:68:14 @[ crypto_scalarmult/curve25519/ref10/x25519_ref10.c:124:9 ]
	movq	%rbx, %rcx
	shrq	$51, %rcx
	.loc	7 68 8 is_stmt 0                # ./include/sodium/private/ed25519_ref10_fe_51.h:68:8 @[ crypto_scalarmult/curve25519/ref10/x25519_ref10.c:124:9 ]
	addq	%r14, %rcx
.Ltmp436:
	#DEBUG_VALUE: fe25519_sub:h3 <- $rcx
	#DEBUG_VALUE: fe25519_sub:h2 <- undef
	.loc	7 70 14 is_stmt 1               # ./include/sodium/private/ed25519_ref10_fe_51.h:70:14 @[ crypto_scalarmult/curve25519/ref10/x25519_ref10.c:124:9 ]
	movq	%rcx, %rax
	shrq	$51, %rax
	.loc	7 70 8 is_stmt 0                # ./include/sodium/private/ed25519_ref10_fe_51.h:70:8 @[ crypto_scalarmult/curve25519/ref10/x25519_ref10.c:124:9 ]
	addq	%r12, %rax
.Ltmp437:
	#DEBUG_VALUE: fe25519_sub:h4 <- $rax
	#DEBUG_VALUE: fe25519_sub:h3 <- undef
	.loc	7 72 23 is_stmt 1               # ./include/sodium/private/ed25519_ref10_fe_51.h:72:23 @[ crypto_scalarmult/curve25519/ref10/x25519_ref10.c:124:9 ]
	movq	%rax, %rdx
	shrq	$51, %rdx
.Ltmp438:
	#DEBUG_VALUE: fe25519_sub:h0 <- undef
	#DEBUG_VALUE: fe25519_sub:h4 <- undef
	.loc	7 75 38                         # ./include/sodium/private/ed25519_ref10_fe_51.h:75:38 @[ crypto_scalarmult/curve25519/ref10/x25519_ref10.c:124:9 ]
	imulq	$-19, %rdx, %rdx
	movabsq	$4503599627370494, %r8          # imm = 0xFFFFFFFFFFFFE
	movq	40(%rsp), %rdi                  # 8-byte Reload
	.loc	7 75 16 is_stmt 0               # ./include/sodium/private/ed25519_ref10_fe_51.h:75:16 @[ crypto_scalarmult/curve25519/ref10/x25519_ref10.c:124:9 ]
	addq	%r8, %rdi
	addq	$-36, %rdi
	subq	%r15, %rdi
	.loc	7 75 38                         # ./include/sodium/private/ed25519_ref10_fe_51.h:75:38 @[ crypto_scalarmult/curve25519/ref10/x25519_ref10.c:124:9 ]
	addq	%rdx, %rdi
.Ltmp439:
	#DEBUG_VALUE: fe25519_sub:h0 <- $rdi
	#DEBUG_VALUE: fe25519_sub:h1 <- undef
	.loc	7 0 38                          # ./include/sodium/private/ed25519_ref10_fe_51.h:0:38
	movq	%rdi, 304(%rsp)                 # 8-byte Spill
.Ltmp440:
	#DEBUG_VALUE: fe25519_sub:h0 <- [DW_OP_plus_uconst 304, DW_OP_deref] $rsp
	movabsq	$2251799813685247, %rdi         # imm = 0x7FFFFFFFFFFFF
	.loc	7 69 8 is_stmt 1                # ./include/sodium/private/ed25519_ref10_fe_51.h:69:8 @[ crypto_scalarmult/curve25519/ref10/x25519_ref10.c:124:9 ]
	andq	%rdi, %rbx
.Ltmp441:
	#DEBUG_VALUE: fe25519_sub:h2 <- $rbx
	.loc	7 0 8 is_stmt 0                 # ./include/sodium/private/ed25519_ref10_fe_51.h:0:8
	movq	16(%rsp), %rsi                  # 8-byte Reload
	.loc	7 77 38 is_stmt 1               # ./include/sodium/private/ed25519_ref10_fe_51.h:77:38 @[ crypto_scalarmult/curve25519/ref10/x25519_ref10.c:124:9 ]
	subq	%rbx, %rsi
.Ltmp442:
	#DEBUG_VALUE: fe25519_sub:h2 <- undef
	.loc	7 71 8                          # ./include/sodium/private/ed25519_ref10_fe_51.h:71:8 @[ crypto_scalarmult/curve25519/ref10/x25519_ref10.c:124:9 ]
	andq	%rdi, %rcx
.Ltmp443:
	#DEBUG_VALUE: fe25519_sub:h3 <- $rcx
	.loc	7 0 8 is_stmt 0                 # ./include/sodium/private/ed25519_ref10_fe_51.h:0:8
	movq	24(%rsp), %rdx                  # 8-byte Reload
	.loc	7 78 38 is_stmt 1               # ./include/sodium/private/ed25519_ref10_fe_51.h:78:38 @[ crypto_scalarmult/curve25519/ref10/x25519_ref10.c:124:9 ]
	subq	%rcx, %rdx
.Ltmp444:
	#DEBUG_VALUE: fe25519_sub:h3 <- undef
	.loc	7 73 8                          # ./include/sodium/private/ed25519_ref10_fe_51.h:73:8 @[ crypto_scalarmult/curve25519/ref10/x25519_ref10.c:124:9 ]
	andq	%rdi, %rax
.Ltmp445:
	#DEBUG_VALUE: fe25519_sub:h4 <- $rax
	.loc	7 0 8 is_stmt 0                 # ./include/sodium/private/ed25519_ref10_fe_51.h:0:8
	movq	(%rsp), %rcx                    # 8-byte Reload
	.loc	7 79 16 is_stmt 1               # ./include/sodium/private/ed25519_ref10_fe_51.h:79:16 @[ crypto_scalarmult/curve25519/ref10/x25519_ref10.c:124:9 ]
	addq	%r8, %rcx
	.loc	7 79 38 is_stmt 0               # ./include/sodium/private/ed25519_ref10_fe_51.h:79:38 @[ crypto_scalarmult/curve25519/ref10/x25519_ref10.c:124:9 ]
	subq	%rax, %rcx
.Ltmp446:
	#DEBUG_VALUE: fe25519_sub:h4 <- $rcx
	#DEBUG_VALUE: fe25519_sq:f0 <- [DW_OP_plus_uconst 64, DW_OP_deref] $rsp
	#DEBUG_VALUE: fe25519_sq:f1 <- [DW_OP_plus_uconst 56, DW_OP_deref] $rsp
	#DEBUG_VALUE: fe25519_sq:f2 <- [DW_OP_plus_uconst 272, DW_OP_deref] $rsp
	#DEBUG_VALUE: fe25519_sq:f3 <- $r13
	#DEBUG_VALUE: fe25519_sq:f4 <- $rbp
	#DEBUG_VALUE: fe25519_sq:f0_2 <- undef
	#DEBUG_VALUE: fe25519_sq:f1_2 <- undef
	#DEBUG_VALUE: fe25519_sq:f1_38 <- undef
	#DEBUG_VALUE: fe25519_sq:f2_38 <- undef
	#DEBUG_VALUE: fe25519_sq:f3_38 <- undef
	#DEBUG_VALUE: fe25519_sq:f3_19 <- undef
	#DEBUG_VALUE: fe25519_sq:f4_19 <- undef
	.loc	7 0 38                          # ./include/sodium/private/ed25519_ref10_fe_51.h:0:38
	movq	%rcx, (%rsp)                    # 8-byte Spill
.Ltmp447:
	#DEBUG_VALUE: fe25519_sub:h4 <- [DW_OP_deref] $rsp
	movq	8(%rsp), %rax                   # 8-byte Reload
	.loc	7 76 38 is_stmt 1               # ./include/sodium/private/ed25519_ref10_fe_51.h:76:38 @[ crypto_scalarmult/curve25519/ref10/x25519_ref10.c:124:9 ]
	subq	48(%rsp), %rax                  # 8-byte Folded Reload
	addq	%r8, %rax
.Ltmp448:
	#DEBUG_VALUE: fe25519_sub:h1 <- $rax
	.loc	7 0 38 is_stmt 0                # ./include/sodium/private/ed25519_ref10_fe_51.h:0:38
	movq	%rax, 8(%rsp)                   # 8-byte Spill
	.loc	7 77 38 is_stmt 1               # ./include/sodium/private/ed25519_ref10_fe_51.h:77:38 @[ crypto_scalarmult/curve25519/ref10/x25519_ref10.c:124:9 ]
	addq	%r8, %rsi
.Ltmp449:
	#DEBUG_VALUE: fe25519_sub:h2 <- $rsi
	.loc	7 0 38 is_stmt 0                # ./include/sodium/private/ed25519_ref10_fe_51.h:0:38
	movq	%rsi, 16(%rsp)                  # 8-byte Spill
.Ltmp450:
	#DEBUG_VALUE: fe25519_sq:r02 <- undef
	.loc	7 78 38 is_stmt 1               # ./include/sodium/private/ed25519_ref10_fe_51.h:78:38 @[ crypto_scalarmult/curve25519/ref10/x25519_ref10.c:124:9 ]
	addq	%r8, %rdx
.Ltmp451:
	#DEBUG_VALUE: fe25519_sub:h3 <- $rdx
	.loc	7 0 38 is_stmt 0                # ./include/sodium/private/ed25519_ref10_fe_51.h:0:38
	movq	%rdx, 24(%rsp)                  # 8-byte Spill
.Ltmp452:
	#DEBUG_VALUE: fe25519_sq:r03 <- undef
	movq	64(%rsp), %rcx                  # 8-byte Reload
.Ltmp453:
	.loc	7 348 28 is_stmt 1              # ./include/sodium/private/ed25519_ref10_fe_51.h:348:28 @[ crypto_scalarmult/curve25519/ref10/x25519_ref10.c:125:9 ]
	movq	%rcx, %rax
.Ltmp454:
	mulq	%rcx
.Ltmp455:
	.loc	7 0 28 is_stmt 0                # ./include/sodium/private/ed25519_ref10_fe_51.h:0:28
	movq	%rcx, %r12
	.loc	7 348 28                        # ./include/sodium/private/ed25519_ref10_fe_51.h:348:28 @[ crypto_scalarmult/curve25519/ref10/x25519_ref10.c:125:9 ]
	movq	%rax, %rsi
.Ltmp456:
	movq	%rdx, %r8
	movq	56(%rsp), %r9                   # 8-byte Reload
	.loc	7 341 19 is_stmt 1              # ./include/sodium/private/ed25519_ref10_fe_51.h:341:19 @[ crypto_scalarmult/curve25519/ref10/x25519_ref10.c:125:9 ]
	imulq	$38, %r9, %rcx
.Ltmp457:
	#DEBUG_VALUE: fe25519_sq:f1_38 <- $rcx
	#DEBUG_VALUE: fe25519_sq:r0 <- [DW_OP_LLVM_fragment 0 64] $rsi
	#DEBUG_VALUE: fe25519_sq:r0 <- [DW_OP_LLVM_fragment 64 64] $rdx
	.loc	7 349 31                        # ./include/sodium/private/ed25519_ref10_fe_51.h:349:31 @[ crypto_scalarmult/curve25519/ref10/x25519_ref10.c:125:9 ]
	movq	%rbp, %rax
	mulq	%rcx
.Ltmp458:
	#DEBUG_VALUE: fe25519_sq:r0 <- [DW_OP_LLVM_fragment 64 64] $r8
	movq	%rax, %rcx
.Ltmp459:
	movq	%rdx, %r10
.Ltmp460:
	#DEBUG_VALUE: fe25519_sq:r0 <- undef
	.loc	7 0 31 is_stmt 0                # ./include/sodium/private/ed25519_ref10_fe_51.h:0:31
	movq	272(%rsp), %r15                 # 8-byte Reload
	.loc	7 342 19 is_stmt 1              # ./include/sodium/private/ed25519_ref10_fe_51.h:342:19 @[ crypto_scalarmult/curve25519/ref10/x25519_ref10.c:125:9 ]
	imulq	$38, %r15, %r14
.Ltmp461:
	#DEBUG_VALUE: fe25519_sq:f2_38 <- $r14
	.loc	7 350 31                        # ./include/sodium/private/ed25519_ref10_fe_51.h:350:31 @[ crypto_scalarmult/curve25519/ref10/x25519_ref10.c:125:9 ]
	movq	%r13, %rax
	mulq	%r14
	movq	%rax, %rdi
	movq	%rdx, %r11
	.loc	7 343 19                        # ./include/sodium/private/ed25519_ref10_fe_51.h:343:19 @[ crypto_scalarmult/curve25519/ref10/x25519_ref10.c:125:9 ]
	imulq	$38, %r13, %rbx
.Ltmp462:
	#DEBUG_VALUE: fe25519_sq:f3_38 <- $rbx
	.loc	7 349 8                         # ./include/sodium/private/ed25519_ref10_fe_51.h:349:8 @[ crypto_scalarmult/curve25519/ref10/x25519_ref10.c:125:9 ]
	addq	%rcx, %rdi
	adcq	%r10, %r11
	.loc	7 350 8                         # ./include/sodium/private/ed25519_ref10_fe_51.h:350:8 @[ crypto_scalarmult/curve25519/ref10/x25519_ref10.c:125:9 ]
	addq	%rsi, %rdi
.Ltmp463:
	#DEBUG_VALUE: fe25519_sq:r0 <- [DW_OP_LLVM_fragment 0 64] $rdi
	adcq	%r8, %r11
.Ltmp464:
	#DEBUG_VALUE: fe25519_sq:r0 <- [DW_OP_LLVM_fragment 64 64] $r11
	.loc	7 338 15                        # ./include/sodium/private/ed25519_ref10_fe_51.h:338:15 @[ crypto_scalarmult/curve25519/ref10/x25519_ref10.c:125:9 ]
	leaq	(%r12,%r12), %rsi
.Ltmp465:
	#DEBUG_VALUE: fe25519_sq:f0_2 <- $rsi
	.loc	7 352 30                        # ./include/sodium/private/ed25519_ref10_fe_51.h:352:30 @[ crypto_scalarmult/curve25519/ref10/x25519_ref10.c:125:9 ]
	movq	%rsi, %rax
	mulq	%r9
	movq	%rax, 64(%rsp)                  # 8-byte Spill
.Ltmp466:
	#DEBUG_VALUE: fe25519_sq:f0 <- $r12
	#DEBUG_VALUE: fe25519_sub:h0 <- $r12
	#DEBUG_VALUE: crypto_scalarmult_curve25519_ref10:z2 <- [DW_OP_LLVM_fragment 0 64] $r12
	.loc	7 0 30 is_stmt 0                # ./include/sodium/private/ed25519_ref10_fe_51.h:0:30
	movq	%rdx, 40(%rsp)                  # 8-byte Spill
	movq	%r13, %rcx
	.loc	7 345 19 is_stmt 1              # ./include/sodium/private/ed25519_ref10_fe_51.h:345:19 @[ crypto_scalarmult/curve25519/ref10/x25519_ref10.c:125:9 ]
	leaq	(,%r13,8), %rax
	addq	%r13, %rax
	leaq	(,%rax,2), %r8
	addq	%r13, %r8
.Ltmp467:
	#DEBUG_VALUE: fe25519_sq:f3_19 <- $r8
	#DEBUG_VALUE: fe25519_sq:r1 <- [DW_OP_plus_uconst 64, DW_OP_deref, DW_OP_LLVM_fragment 0 64] $rsp
	#DEBUG_VALUE: fe25519_sq:r1 <- [DW_OP_plus_uconst 40, DW_OP_deref, DW_OP_LLVM_fragment 64 64] $rsp
	.loc	7 353 31                        # ./include/sodium/private/ed25519_ref10_fe_51.h:353:31 @[ crypto_scalarmult/curve25519/ref10/x25519_ref10.c:125:9 ]
	movq	%rbp, %rax
	mulq	%r14
	movq	%rdx, 264(%rsp)                 # 8-byte Spill
.Ltmp468:
	#DEBUG_VALUE: fe25519_sq:r1 <- undef
	.loc	7 0 31 is_stmt 0                # ./include/sodium/private/ed25519_ref10_fe_51.h:0:31
	movq	%rax, 248(%rsp)                 # 8-byte Spill
	.loc	7 354 31 is_stmt 1              # ./include/sodium/private/ed25519_ref10_fe_51.h:354:31 @[ crypto_scalarmult/curve25519/ref10/x25519_ref10.c:125:9 ]
	movq	%r8, %rax
	mulq	%r13
	movq	%rdx, %r14
.Ltmp469:
	movq	%rax, %r8
.Ltmp470:
	.loc	7 356 30                        # ./include/sodium/private/ed25519_ref10_fe_51.h:356:30 @[ crypto_scalarmult/curve25519/ref10/x25519_ref10.c:125:9 ]
	movq	%rsi, %rax
	mulq	%r15
	movq	%rax, 160(%rsp)                 # 8-byte Spill
	movq	%rdx, 168(%rsp)                 # 8-byte Spill
	.loc	7 339 15                        # ./include/sodium/private/ed25519_ref10_fe_51.h:339:15 @[ crypto_scalarmult/curve25519/ref10/x25519_ref10.c:125:9 ]
	leaq	(%r9,%r9), %r12
.Ltmp471:
	#DEBUG_VALUE: fe25519_sq:f1_2 <- $r12
	#DEBUG_VALUE: fe25519_sq:r2 <- [DW_OP_plus_uconst 160, DW_OP_deref, DW_OP_LLVM_fragment 0 64] $rsp
	#DEBUG_VALUE: fe25519_sq:r2 <- [DW_OP_plus_uconst 168, DW_OP_deref, DW_OP_LLVM_fragment 64 64] $rsp
	.loc	7 357 29                        # ./include/sodium/private/ed25519_ref10_fe_51.h:357:29 @[ crypto_scalarmult/curve25519/ref10/x25519_ref10.c:125:9 ]
	movq	%r9, %rax
	mulq	%r9
	movq	%rdx, 256(%rsp)                 # 8-byte Spill
.Ltmp472:
	#DEBUG_VALUE: fe25519_sq:r2 <- undef
	.loc	7 0 29 is_stmt 0                # ./include/sodium/private/ed25519_ref10_fe_51.h:0:29
	movq	%rax, 480(%rsp)                 # 8-byte Spill
	.loc	7 358 31 is_stmt 1              # ./include/sodium/private/ed25519_ref10_fe_51.h:358:31 @[ crypto_scalarmult/curve25519/ref10/x25519_ref10.c:125:9 ]
	movq	%rbx, %rax
	mulq	%rbp
	movq	%rax, %r9
	movq	%rdx, %r10
	.loc	7 346 19                        # ./include/sodium/private/ed25519_ref10_fe_51.h:346:19 @[ crypto_scalarmult/curve25519/ref10/x25519_ref10.c:125:9 ]
	leaq	(,%rbp,8), %rax
	addq	%rbp, %rax
	leaq	(,%rax,2), %r13
.Ltmp473:
	#DEBUG_VALUE: fe25519_sq:f3 <- $rcx
	addq	%rbp, %r13
.Ltmp474:
	#DEBUG_VALUE: fe25519_sq:f4_19 <- $r13
	.loc	7 360 30                        # ./include/sodium/private/ed25519_ref10_fe_51.h:360:30 @[ crypto_scalarmult/curve25519/ref10/x25519_ref10.c:125:9 ]
	movq	%rsi, %rax
	mulq	%rcx
	movq	%rdx, 296(%rsp)                 # 8-byte Spill
	movq	%rax, 280(%rsp)                 # 8-byte Spill
.Ltmp475:
	#DEBUG_VALUE: fe25519_sq:r3 <- [DW_OP_plus_uconst 280, DW_OP_deref, DW_OP_LLVM_fragment 0 64] $rsp
	#DEBUG_VALUE: fe25519_sq:r3 <- [DW_OP_plus_uconst 296, DW_OP_deref, DW_OP_LLVM_fragment 64 64] $rsp
	.loc	7 361 31                        # ./include/sodium/private/ed25519_ref10_fe_51.h:361:31 @[ crypto_scalarmult/curve25519/ref10/x25519_ref10.c:125:9 ]
	movq	%r15, %rax
	mulq	%r12
	movq	%rdx, 488(%rsp)                 # 8-byte Spill
.Ltmp476:
	#DEBUG_VALUE: fe25519_sq:r3 <- undef
	.loc	7 0 31 is_stmt 0                # ./include/sodium/private/ed25519_ref10_fe_51.h:0:31
	movq	%rax, 472(%rsp)                 # 8-byte Spill
	.loc	7 362 31 is_stmt 1              # ./include/sodium/private/ed25519_ref10_fe_51.h:362:31 @[ crypto_scalarmult/curve25519/ref10/x25519_ref10.c:125:9 ]
	movq	%r13, %rax
	mulq	%rbp
	movq	%rdx, %r13
.Ltmp477:
	movq	%rax, %rbx
.Ltmp478:
	.loc	7 364 30                        # ./include/sodium/private/ed25519_ref10_fe_51.h:364:30 @[ crypto_scalarmult/curve25519/ref10/x25519_ref10.c:125:9 ]
	movq	%rsi, %rax
	mulq	%rbp
	movq	%rdx, 56(%rsp)                  # 8-byte Spill
.Ltmp479:
	#DEBUG_VALUE: fe25519_sq:f1 <- undef
	.loc	7 0 30 is_stmt 0                # ./include/sodium/private/ed25519_ref10_fe_51.h:0:30
	movq	%rax, 288(%rsp)                 # 8-byte Spill
.Ltmp480:
	#DEBUG_VALUE: fe25519_sq:r4 <- [DW_OP_plus_uconst 288, DW_OP_deref, DW_OP_LLVM_fragment 0 64] $rsp
	#DEBUG_VALUE: fe25519_sq:r4 <- [DW_OP_plus_uconst 56, DW_OP_deref, DW_OP_LLVM_fragment 64 64] $rsp
	.loc	7 365 31 is_stmt 1              # ./include/sodium/private/ed25519_ref10_fe_51.h:365:31 @[ crypto_scalarmult/curve25519/ref10/x25519_ref10.c:125:9 ]
	movq	%rcx, %rax
	mulq	%r12
	movq	%rdx, %rsi
.Ltmp481:
	#DEBUG_VALUE: fe25519_sq:r4 <- undef
	movq	%rax, %rbp
.Ltmp482:
	.loc	7 366 29                        # ./include/sodium/private/ed25519_ref10_fe_51.h:366:29 @[ crypto_scalarmult/curve25519/ref10/x25519_ref10.c:125:9 ]
	movq	%r15, %rax
	mulq	%r15
	.loc	7 369 16                        # ./include/sodium/private/ed25519_ref10_fe_51.h:369:16 @[ crypto_scalarmult/curve25519/ref10/x25519_ref10.c:125:9 ]
	movq	%r11, %r15
	#DEBUG_VALUE: fe25519_cswap:b <- [DW_OP_plus_uconst 272, DW_OP_deref] $rsp
.Ltmp483:
	#DEBUG_VALUE: crypto_scalarmult_curve25519_ref10:swap <- [DW_OP_plus_uconst 272, DW_OP_deref] $rsp
	shrq	$51, %r15
.Ltmp484:
	#DEBUG_VALUE: fe25519_sq:carry <- [DW_OP_LLVM_fragment 64 64] $r15
	shldq	$13, %rdi, %r11
.Ltmp485:
	.loc	7 0 16 is_stmt 0                # ./include/sodium/private/ed25519_ref10_fe_51.h:0:16
	movabsq	$2251799813685247, %r12         # imm = 0x7FFFFFFFFFFFF
.Ltmp486:
	.loc	7 368 27 is_stmt 1              # ./include/sodium/private/ed25519_ref10_fe_51.h:368:27 @[ crypto_scalarmult/curve25519/ref10/x25519_ref10.c:125:9 ]
	andq	%r12, %rdi
.Ltmp487:
	#DEBUG_VALUE: fe25519_sq:r00 <- $rdi
	#DEBUG_VALUE: fe25519_sq:carry <- [DW_OP_LLVM_fragment 0 64] $r11
	.loc	7 353 8                         # ./include/sodium/private/ed25519_ref10_fe_51.h:353:8 @[ crypto_scalarmult/curve25519/ref10/x25519_ref10.c:125:9 ]
	addq	248(%rsp), %r8                  # 8-byte Folded Reload
	adcq	264(%rsp), %r14                 # 8-byte Folded Reload
	.loc	7 354 8                         # ./include/sodium/private/ed25519_ref10_fe_51.h:354:8 @[ crypto_scalarmult/curve25519/ref10/x25519_ref10.c:125:9 ]
	addq	64(%rsp), %r8                   # 8-byte Folded Reload
.Ltmp488:
	#DEBUG_VALUE: fe25519_sq:r1 <- [DW_OP_LLVM_fragment 0 64] $r8
	adcq	40(%rsp), %r14                  # 8-byte Folded Reload
.Ltmp489:
	#DEBUG_VALUE: fe25519_sq:r1 <- [DW_OP_LLVM_fragment 64 64] $r14
	.loc	7 370 8                         # ./include/sodium/private/ed25519_ref10_fe_51.h:370:8 @[ crypto_scalarmult/curve25519/ref10/x25519_ref10.c:125:9 ]
	addq	%r11, %r8
.Ltmp490:
	#DEBUG_VALUE: fe25519_sq:r1 <- [DW_OP_LLVM_fragment 0 64] $r8
	adcq	%r15, %r14
.Ltmp491:
	.loc	7 372 16                        # ./include/sodium/private/ed25519_ref10_fe_51.h:372:16 @[ crypto_scalarmult/curve25519/ref10/x25519_ref10.c:125:9 ]
	movq	%r14, %r11
.Ltmp492:
	shrq	$51, %r11
.Ltmp493:
	#DEBUG_VALUE: fe25519_sq:carry <- [DW_OP_LLVM_fragment 64 64] $r11
	shldq	$13, %r8, %r14
.Ltmp494:
	#DEBUG_VALUE: fe25519_sq:r1 <- [DW_OP_LLVM_fragment 64 64] undef
	.loc	7 371 27                        # ./include/sodium/private/ed25519_ref10_fe_51.h:371:27 @[ crypto_scalarmult/curve25519/ref10/x25519_ref10.c:125:9 ]
	andq	%r12, %r8
.Ltmp495:
	#DEBUG_VALUE: fe25519_sq:r01 <- $r8
	#DEBUG_VALUE: fe25519_sq:carry <- [DW_OP_LLVM_fragment 0 64] $r14
	.loc	7 357 8                         # ./include/sodium/private/ed25519_ref10_fe_51.h:357:8 @[ crypto_scalarmult/curve25519/ref10/x25519_ref10.c:125:9 ]
	addq	480(%rsp), %r9                  # 8-byte Folded Reload
	adcq	256(%rsp), %r10                 # 8-byte Folded Reload
	.loc	7 358 8                         # ./include/sodium/private/ed25519_ref10_fe_51.h:358:8 @[ crypto_scalarmult/curve25519/ref10/x25519_ref10.c:125:9 ]
	addq	160(%rsp), %r9                  # 8-byte Folded Reload
.Ltmp496:
	#DEBUG_VALUE: fe25519_sq:r2 <- [DW_OP_LLVM_fragment 0 64] $r9
	adcq	168(%rsp), %r10                 # 8-byte Folded Reload
.Ltmp497:
	#DEBUG_VALUE: fe25519_sq:r2 <- [DW_OP_LLVM_fragment 64 64] $r10
	.loc	7 373 8                         # ./include/sodium/private/ed25519_ref10_fe_51.h:373:8 @[ crypto_scalarmult/curve25519/ref10/x25519_ref10.c:125:9 ]
	addq	%r14, %r9
.Ltmp498:
	#DEBUG_VALUE: fe25519_sq:r2 <- [DW_OP_LLVM_fragment 0 64] $r9
	adcq	%r11, %r10
.Ltmp499:
	.loc	7 375 16                        # ./include/sodium/private/ed25519_ref10_fe_51.h:375:16 @[ crypto_scalarmult/curve25519/ref10/x25519_ref10.c:125:9 ]
	movq	%r10, %r11
.Ltmp500:
	shrq	$51, %r11
.Ltmp501:
	#DEBUG_VALUE: fe25519_sq:carry <- [DW_OP_LLVM_fragment 64 64] $r11
	shldq	$13, %r9, %r10
.Ltmp502:
	#DEBUG_VALUE: fe25519_sq:r2 <- [DW_OP_LLVM_fragment 64 64] undef
	.loc	7 374 27                        # ./include/sodium/private/ed25519_ref10_fe_51.h:374:27 @[ crypto_scalarmult/curve25519/ref10/x25519_ref10.c:125:9 ]
	andq	%r12, %r9
.Ltmp503:
	#DEBUG_VALUE: fe25519_sq:r02 <- $r9
	#DEBUG_VALUE: fe25519_sq:carry <- [DW_OP_LLVM_fragment 0 64] $r10
	.loc	7 361 8                         # ./include/sodium/private/ed25519_ref10_fe_51.h:361:8 @[ crypto_scalarmult/curve25519/ref10/x25519_ref10.c:125:9 ]
	addq	472(%rsp), %rbx                 # 8-byte Folded Reload
	adcq	488(%rsp), %r13                 # 8-byte Folded Reload
	.loc	7 362 8                         # ./include/sodium/private/ed25519_ref10_fe_51.h:362:8 @[ crypto_scalarmult/curve25519/ref10/x25519_ref10.c:125:9 ]
	addq	280(%rsp), %rbx                 # 8-byte Folded Reload
.Ltmp504:
	#DEBUG_VALUE: fe25519_sq:r3 <- [DW_OP_LLVM_fragment 0 64] $rbx
	adcq	296(%rsp), %r13                 # 8-byte Folded Reload
.Ltmp505:
	#DEBUG_VALUE: fe25519_sq:r3 <- [DW_OP_LLVM_fragment 64 64] $r13
	.loc	7 376 8                         # ./include/sodium/private/ed25519_ref10_fe_51.h:376:8 @[ crypto_scalarmult/curve25519/ref10/x25519_ref10.c:125:9 ]
	addq	%r10, %rbx
.Ltmp506:
	#DEBUG_VALUE: fe25519_sq:r3 <- [DW_OP_LLVM_fragment 0 64] $rbx
	adcq	%r11, %r13
.Ltmp507:
	.loc	7 378 16                        # ./include/sodium/private/ed25519_ref10_fe_51.h:378:16 @[ crypto_scalarmult/curve25519/ref10/x25519_ref10.c:125:9 ]
	movq	%r13, %rcx
.Ltmp508:
	shrq	$51, %rcx
.Ltmp509:
	#DEBUG_VALUE: fe25519_sq:carry <- [DW_OP_LLVM_fragment 64 64] $rcx
	shldq	$13, %rbx, %r13
.Ltmp510:
	#DEBUG_VALUE: fe25519_sq:r3 <- [DW_OP_LLVM_fragment 64 64] undef
	.loc	7 377 27                        # ./include/sodium/private/ed25519_ref10_fe_51.h:377:27 @[ crypto_scalarmult/curve25519/ref10/x25519_ref10.c:125:9 ]
	andq	%r12, %rbx
.Ltmp511:
	#DEBUG_VALUE: fe25519_sq:r03 <- $rbx
	#DEBUG_VALUE: fe25519_sq:carry <- [DW_OP_LLVM_fragment 0 64] $r13
	.loc	7 0 27 is_stmt 0                # ./include/sodium/private/ed25519_ref10_fe_51.h:0:27
	movq	%rbx, 40(%rsp)                  # 8-byte Spill
.Ltmp512:
	#DEBUG_VALUE: fe25519_sq:r03 <- [DW_OP_plus_uconst 40, DW_OP_deref] $rsp
	.loc	7 365 8 is_stmt 1               # ./include/sodium/private/ed25519_ref10_fe_51.h:365:8 @[ crypto_scalarmult/curve25519/ref10/x25519_ref10.c:125:9 ]
	addq	%rbp, %rax
	adcq	%rsi, %rdx
	.loc	7 366 8                         # ./include/sodium/private/ed25519_ref10_fe_51.h:366:8 @[ crypto_scalarmult/curve25519/ref10/x25519_ref10.c:125:9 ]
	addq	288(%rsp), %rax                 # 8-byte Folded Reload
.Ltmp513:
	#DEBUG_VALUE: fe25519_sq:r4 <- [DW_OP_LLVM_fragment 0 64] $rax
	adcq	56(%rsp), %rdx                  # 8-byte Folded Reload
.Ltmp514:
	#DEBUG_VALUE: fe25519_sq:r4 <- [DW_OP_LLVM_fragment 64 64] $rdx
	.loc	7 379 8                         # ./include/sodium/private/ed25519_ref10_fe_51.h:379:8 @[ crypto_scalarmult/curve25519/ref10/x25519_ref10.c:125:9 ]
	addq	%r13, %rax
.Ltmp515:
	#DEBUG_VALUE: fe25519_sq:r4 <- [DW_OP_LLVM_fragment 0 64] $rax
	adcq	%rcx, %rdx
.Ltmp516:
	.loc	7 381 16                        # ./include/sodium/private/ed25519_ref10_fe_51.h:381:16 @[ crypto_scalarmult/curve25519/ref10/x25519_ref10.c:125:9 ]
	shldq	$13, %rax, %rdx
.Ltmp517:
	#DEBUG_VALUE: fe25519_sq:r4 <- [DW_OP_LLVM_fragment 64 64] undef
	#DEBUG_VALUE: fe25519_sq:r04 <- undef
	#DEBUG_VALUE: fe25519_sq:carry <- [DW_OP_LLVM_fragment 0 64] $rdx
	#DEBUG_VALUE: fe25519_sq:carry <- [DW_OP_LLVM_fragment 64 64] undef
	.loc	7 0 16 is_stmt 0                # ./include/sodium/private/ed25519_ref10_fe_51.h:0:16
	movq	%rax, %rcx
	.loc	7 382 18 is_stmt 1              # ./include/sodium/private/ed25519_ref10_fe_51.h:382:18 @[ crypto_scalarmult/curve25519/ref10/x25519_ref10.c:125:9 ]
	leaq	(%rdx,%rdx,8), %rax
.Ltmp518:
	#DEBUG_VALUE: fe25519_sq:r4 <- [DW_OP_LLVM_fragment 0 64] $rcx
	leaq	(%rdx,%rax,2), %rax
	.loc	7 382 9 is_stmt 0               # ./include/sodium/private/ed25519_ref10_fe_51.h:382:9 @[ crypto_scalarmult/curve25519/ref10/x25519_ref10.c:125:9 ]
	addq	%rdi, %rax
.Ltmp519:
	#DEBUG_VALUE: fe25519_sq:r00 <- $rax
	.loc	7 383 17 is_stmt 1              # ./include/sodium/private/ed25519_ref10_fe_51.h:383:17 @[ crypto_scalarmult/curve25519/ref10/x25519_ref10.c:125:9 ]
	movq	%rax, %rsi
	movq	%rax, %rdx
.Ltmp520:
	shrq	$51, %rsi
.Ltmp521:
	#DEBUG_VALUE: fe25519_sq:carry <- [DW_OP_LLVM_convert 64 7, DW_OP_LLVM_convert 128 7, DW_OP_stack_value] $rsi
	.loc	7 385 9                         # ./include/sodium/private/ed25519_ref10_fe_51.h:385:9 @[ crypto_scalarmult/curve25519/ref10/x25519_ref10.c:125:9 ]
	addq	%r8, %rsi
.Ltmp522:
	#DEBUG_VALUE: fe25519_sq:r00 <- undef
	#DEBUG_VALUE: fe25519_sq:r01 <- $rsi
	.loc	7 386 17                        # ./include/sodium/private/ed25519_ref10_fe_51.h:386:17 @[ crypto_scalarmult/curve25519/ref10/x25519_ref10.c:125:9 ]
	movq	%rsi, %rax
	movq	%rsi, %r11
	shrq	$51, %rax
.Ltmp523:
	#DEBUG_VALUE: fe25519_sq:carry <- [DW_OP_LLVM_convert 64 7, DW_OP_LLVM_convert 128 7, DW_OP_stack_value] $rax
	.loc	7 388 9                         # ./include/sodium/private/ed25519_ref10_fe_51.h:388:9 @[ crypto_scalarmult/curve25519/ref10/x25519_ref10.c:125:9 ]
	addq	%r9, %rax
.Ltmp524:
	#DEBUG_VALUE: fe25519_sq:r01 <- undef
	#DEBUG_VALUE: fe25519_sq:r02 <- $rax
	.loc	7 0 9 is_stmt 0                 # ./include/sodium/private/ed25519_ref10_fe_51.h:0:9
	movq	%rax, 168(%rsp)                 # 8-byte Spill
.Ltmp525:
	#DEBUG_VALUE: fe25519_sq:r02 <- [DW_OP_plus_uconst 168, DW_OP_deref] $rsp
	.loc	7 380 27 is_stmt 1              # ./include/sodium/private/ed25519_ref10_fe_51.h:380:27 @[ crypto_scalarmult/curve25519/ref10/x25519_ref10.c:125:9 ]
	andq	%r12, %rcx
.Ltmp526:
	#DEBUG_VALUE: fe25519_sq:r04 <- $rcx
	.loc	7 0 27 is_stmt 0                # ./include/sodium/private/ed25519_ref10_fe_51.h:0:27
	movq	%rcx, 64(%rsp)                  # 8-byte Spill
	.loc	7 384 9 is_stmt 1               # ./include/sodium/private/ed25519_ref10_fe_51.h:384:9 @[ crypto_scalarmult/curve25519/ref10/x25519_ref10.c:125:9 ]
	andq	%r12, %rdx
.Ltmp527:
	#DEBUG_VALUE: fe25519_sq:r00 <- $rdx
	.loc	7 0 9 is_stmt 0                 # ./include/sodium/private/ed25519_ref10_fe_51.h:0:9
	movq	%rdx, 288(%rsp)                 # 8-byte Spill
	movq	304(%rsp), %r9                  # 8-byte Reload
.Ltmp528:
	.loc	7 490 14 is_stmt 1              # ./include/sodium/private/ed25519_ref10_fe_51.h:490:14 @[ crypto_scalarmult/curve25519/ref10/x25519_ref10.c:126:9 ]
	movq	%r9, %rax
	movl	$121666, %esi                   # imm = 0x1DB42
	mulq	%rsi
.Ltmp529:
	movq	%rdx, %rcx
.Ltmp530:
	#DEBUG_VALUE: fe25519_sq:r4 <- [DW_OP_plus_uconst 64, DW_OP_deref, DW_OP_LLVM_fragment 0 64] $rsp
	movq	%rax, %r8
.Ltmp531:
	#DEBUG_VALUE: fe25519_mul32:a <- [DW_OP_LLVM_fragment 0 64] $rax
	#DEBUG_VALUE: fe25519_mul32:h0 <- [DW_OP_LLVM_convert 128 7, DW_OP_LLVM_convert 64 7, DW_OP_constu 2251799813685246, DW_OP_and, DW_OP_stack_value, DW_OP_LLVM_fragment 0 64] $rax
	#DEBUG_VALUE: fe25519_mul32:a <- [DW_OP_LLVM_fragment 64 64] $rdx
	#DEBUG_VALUE: fe25519_mul32:h0 <- [DW_OP_LLVM_convert 128 7, DW_OP_LLVM_convert 64 7, DW_OP_constu 2251799813685246, DW_OP_and, DW_OP_stack_value, DW_OP_LLVM_fragment 64 64] $rdx
	.loc	7 0 14 is_stmt 0                # ./include/sodium/private/ed25519_ref10_fe_51.h:0:14
	movq	8(%rsp), %r10                   # 8-byte Reload
	.loc	7 492 14 is_stmt 1              # ./include/sodium/private/ed25519_ref10_fe_51.h:492:14 @[ crypto_scalarmult/curve25519/ref10/x25519_ref10.c:126:9 ]
	movq	%r10, %rax
.Ltmp532:
	#DEBUG_VALUE: fe25519_mul32:h0 <- [DW_OP_LLVM_convert 128 7, DW_OP_LLVM_convert 64 7, DW_OP_constu 2251799813685246, DW_OP_and, DW_OP_stack_value, DW_OP_LLVM_fragment 0 64] $r8
	#DEBUG_VALUE: fe25519_mul32:a <- [DW_OP_LLVM_fragment 0 64] $r8
	mulq	%rsi
.Ltmp533:
	#DEBUG_VALUE: fe25519_mul32:h0 <- [DW_OP_LLVM_convert 128 7, DW_OP_LLVM_convert 64 7, DW_OP_constu 2251799813685246, DW_OP_and, DW_OP_stack_value, DW_OP_LLVM_fragment 64 64] $rcx
	#DEBUG_VALUE: fe25519_mul32:a <- [DW_OP_LLVM_fragment 64 64] $rcx
	movq	%rdx, %rdi
.Ltmp534:
	.loc	7 387 9                         # ./include/sodium/private/ed25519_ref10_fe_51.h:387:9 @[ crypto_scalarmult/curve25519/ref10/x25519_ref10.c:125:9 ]
	andq	%r12, %r11
.Ltmp535:
	#DEBUG_VALUE: fe25519_sq:r01 <- $r11
	.loc	7 0 9 is_stmt 0                 # ./include/sodium/private/ed25519_ref10_fe_51.h:0:9
	movq	%r11, 256(%rsp)                 # 8-byte Spill
.Ltmp536:
	.loc	7 492 36 is_stmt 1              # ./include/sodium/private/ed25519_ref10_fe_51.h:492:36 @[ crypto_scalarmult/curve25519/ref10/x25519_ref10.c:126:9 ]
	shldq	$13, %r8, %rcx
.Ltmp537:
	.loc	7 492 19 is_stmt 0              # ./include/sodium/private/ed25519_ref10_fe_51.h:492:19 @[ crypto_scalarmult/curve25519/ref10/x25519_ref10.c:126:9 ]
	addq	%rax, %rcx
.Ltmp538:
	#DEBUG_VALUE: fe25519_mul32:a <- [DW_OP_LLVM_fragment 0 64] $rcx
	adcq	$0, %rdi
	movq	16(%rsp), %rax                  # 8-byte Reload
	.loc	7 494 14 is_stmt 1              # ./include/sodium/private/ed25519_ref10_fe_51.h:494:14 @[ crypto_scalarmult/curve25519/ref10/x25519_ref10.c:126:9 ]
	mulq	%rsi
	movq	%rdx, %r11
.Ltmp539:
	.loc	7 494 36 is_stmt 0              # ./include/sodium/private/ed25519_ref10_fe_51.h:494:36 @[ crypto_scalarmult/curve25519/ref10/x25519_ref10.c:126:9 ]
	shldq	$13, %rcx, %rdi
.Ltmp540:
	#DEBUG_VALUE: fe25519_mul32:a <- [DW_OP_LLVM_fragment 64 64] undef
	.loc	7 493 25 is_stmt 1              # ./include/sodium/private/ed25519_ref10_fe_51.h:493:25 @[ crypto_scalarmult/curve25519/ref10/x25519_ref10.c:126:9 ]
	andq	%r12, %rcx
.Ltmp541:
	#DEBUG_VALUE: fe25519_mul32:h1 <- $rcx
	.loc	7 0 25 is_stmt 0                # ./include/sodium/private/ed25519_ref10_fe_51.h:0:25
	movq	%rcx, 56(%rsp)                  # 8-byte Spill
.Ltmp542:
	#DEBUG_VALUE: fe25519_mul32:h1 <- [DW_OP_plus_uconst 56, DW_OP_deref] $rsp
	.loc	7 494 19 is_stmt 1              # ./include/sodium/private/ed25519_ref10_fe_51.h:494:19 @[ crypto_scalarmult/curve25519/ref10/x25519_ref10.c:126:9 ]
	addq	%rax, %rdi
.Ltmp543:
	#DEBUG_VALUE: fe25519_mul32:a <- [DW_OP_LLVM_fragment 0 64] $rdi
	adcq	$0, %r11
	movq	24(%rsp), %rax                  # 8-byte Reload
	.loc	7 496 14                        # ./include/sodium/private/ed25519_ref10_fe_51.h:496:14 @[ crypto_scalarmult/curve25519/ref10/x25519_ref10.c:126:9 ]
	mulq	%rsi
	movq	%rdx, %rcx
	.loc	7 496 36 is_stmt 0              # ./include/sodium/private/ed25519_ref10_fe_51.h:496:36 @[ crypto_scalarmult/curve25519/ref10/x25519_ref10.c:126:9 ]
	shldq	$13, %rdi, %r11
.Ltmp544:
	#DEBUG_VALUE: fe25519_mul32:a <- [DW_OP_LLVM_fragment 64 64] undef
	.loc	7 495 25 is_stmt 1              # ./include/sodium/private/ed25519_ref10_fe_51.h:495:25 @[ crypto_scalarmult/curve25519/ref10/x25519_ref10.c:126:9 ]
	andq	%r12, %rdi
.Ltmp545:
	#DEBUG_VALUE: fe25519_mul32:h2 <- $rdi
	.loc	7 0 25 is_stmt 0                # ./include/sodium/private/ed25519_ref10_fe_51.h:0:25
	movq	%rdi, 160(%rsp)                 # 8-byte Spill
.Ltmp546:
	#DEBUG_VALUE: fe25519_mul32:h2 <- [DW_OP_plus_uconst 160, DW_OP_deref] $rsp
	.loc	7 496 19 is_stmt 1              # ./include/sodium/private/ed25519_ref10_fe_51.h:496:19 @[ crypto_scalarmult/curve25519/ref10/x25519_ref10.c:126:9 ]
	addq	%rax, %r11
.Ltmp547:
	#DEBUG_VALUE: fe25519_mul32:a <- [DW_OP_LLVM_fragment 0 64] $r11
	adcq	$0, %rcx
.Ltmp548:
	.loc	7 81 10                         # ./include/sodium/private/ed25519_ref10_fe_51.h:81:10 @[ crypto_scalarmult/curve25519/ref10/x25519_ref10.c:124:9 ]
	movq	%r9, 320(%rsp)
	movq	(%rsp), %rax                    # 8-byte Reload
.Ltmp549:
	.loc	7 498 14                        # ./include/sodium/private/ed25519_ref10_fe_51.h:498:14 @[ crypto_scalarmult/curve25519/ref10/x25519_ref10.c:126:9 ]
	mulq	%rsi
	.loc	7 498 36 is_stmt 0              # ./include/sodium/private/ed25519_ref10_fe_51.h:498:36 @[ crypto_scalarmult/curve25519/ref10/x25519_ref10.c:126:9 ]
	shldq	$13, %r11, %rcx
.Ltmp550:
	#DEBUG_VALUE: fe25519_mul32:a <- [DW_OP_LLVM_fragment 64 64] undef
	.loc	7 497 25 is_stmt 1              # ./include/sodium/private/ed25519_ref10_fe_51.h:497:25 @[ crypto_scalarmult/curve25519/ref10/x25519_ref10.c:126:9 ]
	andq	%r12, %r11
.Ltmp551:
	#DEBUG_VALUE: fe25519_mul32:h3 <- $r11
	.loc	7 0 25 is_stmt 0                # ./include/sodium/private/ed25519_ref10_fe_51.h:0:25
	movq	%r11, 264(%rsp)                 # 8-byte Spill
.Ltmp552:
	#DEBUG_VALUE: fe25519_mul32:h3 <- [DW_OP_plus_uconst 264, DW_OP_deref] $rsp
	.loc	7 498 19 is_stmt 1              # ./include/sodium/private/ed25519_ref10_fe_51.h:498:19 @[ crypto_scalarmult/curve25519/ref10/x25519_ref10.c:126:9 ]
	addq	%rax, %rcx
.Ltmp553:
	#DEBUG_VALUE: fe25519_mul32:a <- [DW_OP_LLVM_fragment 0 64] $rcx
	.loc	7 501 14                        # ./include/sodium/private/ed25519_ref10_fe_51.h:501:14 @[ crypto_scalarmult/curve25519/ref10/x25519_ref10.c:126:9 ]
	adcl	$0, %edx
.Ltmp554:
	#DEBUG_VALUE: fe25519_mul32:a <- [DW_OP_LLVM_fragment 64 64] undef
	.loc	7 82 10                         # ./include/sodium/private/ed25519_ref10_fe_51.h:82:10 @[ crypto_scalarmult/curve25519/ref10/x25519_ref10.c:124:9 ]
	movq	%r10, 328(%rsp)
.Ltmp555:
	.loc	7 499 25                        # ./include/sodium/private/ed25519_ref10_fe_51.h:499:25 @[ crypto_scalarmult/curve25519/ref10/x25519_ref10.c:126:9 ]
	movq	%rcx, %rax
.Ltmp556:
	#DEBUG_VALUE: fe25519_mul32:h4 <- undef
	.loc	7 501 14                        # ./include/sodium/private/ed25519_ref10_fe_51.h:501:14 @[ crypto_scalarmult/curve25519/ref10/x25519_ref10.c:126:9 ]
	shrq	$51, %rcx
.Ltmp557:
	#DEBUG_VALUE: fe25519_mul32:a <- [DW_OP_LLVM_fragment 0 64] $rax
	shll	$13, %edx
	orq	%rcx, %rdx
	movq	%rdx, 296(%rsp)                 # 8-byte Spill
	.loc	7 499 25                        # ./include/sodium/private/ed25519_ref10_fe_51.h:499:25 @[ crypto_scalarmult/curve25519/ref10/x25519_ref10.c:126:9 ]
	andq	%r12, %rax
.Ltmp558:
	#DEBUG_VALUE: fe25519_mul32:h4 <- $rax
	.loc	7 0 25 is_stmt 0                # ./include/sodium/private/ed25519_ref10_fe_51.h:0:25
	movq	%rax, 8(%rsp)                   # 8-byte Spill
	.loc	7 501 8 is_stmt 1               # ./include/sodium/private/ed25519_ref10_fe_51.h:501:8 @[ crypto_scalarmult/curve25519/ref10/x25519_ref10.c:126:9 ]
	movabsq	$2251799813685246, %rax         # imm = 0x7FFFFFFFFFFFE
.Ltmp559:
	andq	%rax, %r8
.Ltmp560:
	#DEBUG_VALUE: crypto_scalarmult_curve25519_ref10:z3 <- [DW_OP_plus_uconst 56, DW_OP_deref, DW_OP_LLVM_fragment 64 64] $rsp
	#DEBUG_VALUE: crypto_scalarmult_curve25519_ref10:z3 <- [DW_OP_plus_uconst 160, DW_OP_deref, DW_OP_LLVM_fragment 128 64] $rsp
	#DEBUG_VALUE: crypto_scalarmult_curve25519_ref10:z3 <- [DW_OP_plus_uconst 264, DW_OP_deref, DW_OP_LLVM_fragment 192 64] $rsp
	#DEBUG_VALUE: crypto_scalarmult_curve25519_ref10:z3 <- [DW_OP_plus_uconst 8, DW_OP_deref, DW_OP_LLVM_fragment 256 64] $rsp
	#DEBUG_VALUE: fe25519_sq:h <- undef
	#DEBUG_VALUE: fe25519_sq:f <- undef
	#DEBUG_VALUE: fe25519_sq:mask <- 2251799813685247
	#DEBUG_VALUE: fe25519_sq:f0 <- [DW_OP_plus_uconst 72, DW_OP_deref] $rsp
	#DEBUG_VALUE: fe25519_sq:f1 <- [DW_OP_plus_uconst 184, DW_OP_deref] $rsp
	#DEBUG_VALUE: fe25519_sq:f2 <- [DW_OP_plus_uconst 192, DW_OP_deref] $rsp
	#DEBUG_VALUE: fe25519_sq:f3 <- [DW_OP_plus_uconst 32, DW_OP_deref] $rsp
	#DEBUG_VALUE: fe25519_sq:f4 <- [DW_OP_plus_uconst 176, DW_OP_deref] $rsp
	#DEBUG_VALUE: fe25519_mul32:h0 <- undef
	#DEBUG_VALUE: crypto_scalarmult_curve25519_ref10:z3 <- [DW_OP_LLVM_fragment 0 64] undef
	#DEBUG_VALUE: fe25519_sq:f0_2 <- undef
	#DEBUG_VALUE: fe25519_sq:f1_2 <- undef
	#DEBUG_VALUE: fe25519_sq:f1_38 <- undef
	#DEBUG_VALUE: fe25519_sq:f2_38 <- undef
	#DEBUG_VALUE: fe25519_sq:f3_38 <- undef
	#DEBUG_VALUE: fe25519_sq:f3_19 <- undef
	#DEBUG_VALUE: fe25519_sq:f4_19 <- undef
	.loc	7 0 8 is_stmt 0                 # ./include/sodium/private/ed25519_ref10_fe_51.h:0:8
	movq	%r8, 304(%rsp)                  # 8-byte Spill
.Ltmp561:
	#DEBUG_VALUE: fe25519_sub:h0 <- $r9
	movq	72(%rsp), %rcx                  # 8-byte Reload
.Ltmp562:
	.loc	7 348 28 is_stmt 1              # ./include/sodium/private/ed25519_ref10_fe_51.h:348:28 @[ crypto_scalarmult/curve25519/ref10/x25519_ref10.c:127:9 ]
	movq	%rcx, %rax
	mulq	%rcx
	movq	%rcx, %r11
	movq	%rax, %rcx
	movq	%rdx, %r9
.Ltmp563:
	.loc	7 0 28 is_stmt 0                # ./include/sodium/private/ed25519_ref10_fe_51.h:0:28
	movq	184(%rsp), %r13                 # 8-byte Reload
	.loc	7 341 19 is_stmt 1              # ./include/sodium/private/ed25519_ref10_fe_51.h:341:19 @[ crypto_scalarmult/curve25519/ref10/x25519_ref10.c:127:9 ]
	imulq	$38, %r13, %rdx
.Ltmp564:
	#DEBUG_VALUE: fe25519_sq:f1_38 <- $rdx
	#DEBUG_VALUE: fe25519_sq:r0 <- [DW_OP_LLVM_fragment 0 64] $rax
	#DEBUG_VALUE: fe25519_sq:r0 <- [DW_OP_LLVM_fragment 64 64] $r9
	.loc	7 0 19 is_stmt 0                # ./include/sodium/private/ed25519_ref10_fe_51.h:0:19
	movq	176(%rsp), %rsi                 # 8-byte Reload
	.loc	7 349 31 is_stmt 1              # ./include/sodium/private/ed25519_ref10_fe_51.h:349:31 @[ crypto_scalarmult/curve25519/ref10/x25519_ref10.c:127:9 ]
	movq	%rsi, %rax
.Ltmp565:
	#DEBUG_VALUE: fe25519_sq:r0 <- [DW_OP_LLVM_fragment 0 64] $rcx
	mulq	%rdx
.Ltmp566:
	movq	%rax, %r8
.Ltmp567:
	#DEBUG_VALUE: fe25519_mul32:h0 <- [DW_OP_plus_uconst 304, DW_OP_deref_size 8, DW_OP_LLVM_convert 128 7, DW_OP_LLVM_convert 64 7, DW_OP_constu 2251799813685246, DW_OP_and, DW_OP_stack_value, DW_OP_LLVM_fragment 0 64] $rsp
	movq	%rdx, %rdi
.Ltmp568:
	#DEBUG_VALUE: fe25519_sq:r0 <- undef
	.loc	7 0 31 is_stmt 0                # ./include/sodium/private/ed25519_ref10_fe_51.h:0:31
	movq	192(%rsp), %r12                 # 8-byte Reload
	.loc	7 342 19 is_stmt 1              # ./include/sodium/private/ed25519_ref10_fe_51.h:342:19 @[ crypto_scalarmult/curve25519/ref10/x25519_ref10.c:127:9 ]
	imulq	$38, %r12, %r10
.Ltmp569:
	#DEBUG_VALUE: fe25519_sq:f2_38 <- $r10
	.loc	7 0 19 is_stmt 0                # ./include/sodium/private/ed25519_ref10_fe_51.h:0:19
	movq	32(%rsp), %r15                  # 8-byte Reload
	.loc	7 350 31 is_stmt 1              # ./include/sodium/private/ed25519_ref10_fe_51.h:350:31 @[ crypto_scalarmult/curve25519/ref10/x25519_ref10.c:127:9 ]
	movq	%r15, %rax
	mulq	%r10
	movq	%rax, %r14
	movq	%rdx, %rbp
	.loc	7 343 19                        # ./include/sodium/private/ed25519_ref10_fe_51.h:343:19 @[ crypto_scalarmult/curve25519/ref10/x25519_ref10.c:127:9 ]
	imulq	$38, %r15, %rax
.Ltmp570:
	#DEBUG_VALUE: fe25519_sq:f3_38 <- $rax
	.loc	7 0 19 is_stmt 0                # ./include/sodium/private/ed25519_ref10_fe_51.h:0:19
	movq	%rax, 248(%rsp)                 # 8-byte Spill
	.loc	7 349 8 is_stmt 1               # ./include/sodium/private/ed25519_ref10_fe_51.h:349:8 @[ crypto_scalarmult/curve25519/ref10/x25519_ref10.c:127:9 ]
	addq	%rcx, %r14
	adcq	%r9, %rbp
	movq	16(%rsp), %rax                  # 8-byte Reload
.Ltmp571:
	.loc	7 83 10                         # ./include/sodium/private/ed25519_ref10_fe_51.h:83:10 @[ crypto_scalarmult/curve25519/ref10/x25519_ref10.c:124:9 ]
	movq	%rax, 336(%rsp)
.Ltmp572:
	.loc	7 350 8                         # ./include/sodium/private/ed25519_ref10_fe_51.h:350:8 @[ crypto_scalarmult/curve25519/ref10/x25519_ref10.c:127:9 ]
	addq	%r8, %r14
.Ltmp573:
	#DEBUG_VALUE: fe25519_sq:r0 <- [DW_OP_LLVM_fragment 0 64] $r14
	adcq	%rdi, %rbp
.Ltmp574:
	#DEBUG_VALUE: fe25519_sq:r0 <- [DW_OP_LLVM_fragment 64 64] $rbp
	.loc	7 338 15                        # ./include/sodium/private/ed25519_ref10_fe_51.h:338:15 @[ crypto_scalarmult/curve25519/ref10/x25519_ref10.c:127:9 ]
	addq	%r11, %r11
.Ltmp575:
	#DEBUG_VALUE: fe25519_sq:f0_2 <- $r11
	.loc	7 345 19                        # ./include/sodium/private/ed25519_ref10_fe_51.h:345:19 @[ crypto_scalarmult/curve25519/ref10/x25519_ref10.c:127:9 ]
	leaq	(%r15,%r15,8), %rax
	leaq	(%r15,%rax,2), %rdi
.Ltmp576:
	#DEBUG_VALUE: fe25519_sq:f3_19 <- $rdi
	.loc	7 0 19 is_stmt 0                # ./include/sodium/private/ed25519_ref10_fe_51.h:0:19
	movq	%r15, %r9
	.loc	7 352 30 is_stmt 1              # ./include/sodium/private/ed25519_ref10_fe_51.h:352:30 @[ crypto_scalarmult/curve25519/ref10/x25519_ref10.c:127:9 ]
	movq	%r13, %rax
	mulq	%r11
	movq	%rdx, 272(%rsp)                 # 8-byte Spill
.Ltmp577:
	#DEBUG_VALUE: fe25519_sq:f2 <- undef
	#DEBUG_VALUE: fe25519_cswap:b <- undef
	#DEBUG_VALUE: crypto_scalarmult_curve25519_ref10:swap <- undef
	.loc	7 0 30 is_stmt 0                # ./include/sodium/private/ed25519_ref10_fe_51.h:0:30
	movq	%rax, 72(%rsp)                  # 8-byte Spill
.Ltmp578:
	#DEBUG_VALUE: fe25519_sq:f0 <- undef
	#DEBUG_VALUE: fe25519_add:h0 <- undef
	#DEBUG_VALUE: fe25519_sq:r1 <- [DW_OP_plus_uconst 72, DW_OP_deref, DW_OP_LLVM_fragment 0 64] $rsp
	#DEBUG_VALUE: fe25519_sq:r1 <- [DW_OP_plus_uconst 272, DW_OP_deref, DW_OP_LLVM_fragment 64 64] $rsp
	.loc	7 353 31 is_stmt 1              # ./include/sodium/private/ed25519_ref10_fe_51.h:353:31 @[ crypto_scalarmult/curve25519/ref10/x25519_ref10.c:127:9 ]
	movq	%rsi, %rax
	movq	%rsi, %rcx
	mulq	%r10
	movq	%rdx, 16(%rsp)                  # 8-byte Spill
.Ltmp579:
	#DEBUG_VALUE: fe25519_sq:r1 <- undef
	.loc	7 0 31 is_stmt 0                # ./include/sodium/private/ed25519_ref10_fe_51.h:0:31
	movq	%rax, 280(%rsp)                 # 8-byte Spill
	.loc	7 354 31 is_stmt 1              # ./include/sodium/private/ed25519_ref10_fe_51.h:354:31 @[ crypto_scalarmult/curve25519/ref10/x25519_ref10.c:127:9 ]
	movq	%rdi, %rax
	mulq	%r15
	movq	%rax, %r10
.Ltmp580:
	movq	%rdx, %r15
	movq	24(%rsp), %rax                  # 8-byte Reload
.Ltmp581:
	.loc	7 84 10                         # ./include/sodium/private/ed25519_ref10_fe_51.h:84:10 @[ crypto_scalarmult/curve25519/ref10/x25519_ref10.c:124:9 ]
	movq	%rax, 344(%rsp)
.Ltmp582:
	.loc	7 356 30                        # ./include/sodium/private/ed25519_ref10_fe_51.h:356:30 @[ crypto_scalarmult/curve25519/ref10/x25519_ref10.c:127:9 ]
	movq	%r12, %rax
	mulq	%r11
	movq	%rdx, %rdi
.Ltmp583:
	movq	%rax, %rsi
.Ltmp584:
	#DEBUG_VALUE: fe25519_sq:r2 <- [DW_OP_LLVM_fragment 0 64] $rsi
	#DEBUG_VALUE: fe25519_sq:r2 <- [DW_OP_LLVM_fragment 64 64] $rdi
	.loc	7 357 29                        # ./include/sodium/private/ed25519_ref10_fe_51.h:357:29 @[ crypto_scalarmult/curve25519/ref10/x25519_ref10.c:127:9 ]
	movq	%r13, %rax
	mulq	%r13
	movq	%rdx, %r8
	movq	%rax, %rbx
	.loc	7 357 8 is_stmt 0               # ./include/sodium/private/ed25519_ref10_fe_51.h:357:8 @[ crypto_scalarmult/curve25519/ref10/x25519_ref10.c:127:9 ]
	addq	%rsi, %rbx
.Ltmp585:
	#DEBUG_VALUE: fe25519_sq:r2 <- [DW_OP_LLVM_fragment 0 64] $rbx
	adcq	%rdi, %r8
.Ltmp586:
	#DEBUG_VALUE: fe25519_sq:r2 <- [DW_OP_LLVM_fragment 64 64] $r8
	.loc	7 0 8                           # ./include/sodium/private/ed25519_ref10_fe_51.h:0:8
	movq	(%rsp), %rax                    # 8-byte Reload
.Ltmp587:
	.loc	7 85 10 is_stmt 1               # ./include/sodium/private/ed25519_ref10_fe_51.h:85:10 @[ crypto_scalarmult/curve25519/ref10/x25519_ref10.c:124:9 ]
	movq	%rax, 352(%rsp)
.Ltmp588:
	#DEBUG_VALUE: fe25519_sq:h <- [DW_OP_plus_uconst 112, DW_OP_stack_value] $rsp
	#DEBUG_VALUE: fe25519_sq:f <- [DW_OP_plus_uconst 112, DW_OP_stack_value] $rsp
	#DEBUG_VALUE: fe25519_sq:mask <- 2251799813685247
	.loc	7 358 31                        # ./include/sodium/private/ed25519_ref10_fe_51.h:358:31 @[ crypto_scalarmult/curve25519/ref10/x25519_ref10.c:127:9 ]
	movq	%rcx, %rax
	movq	%rcx, %rdi
	mulq	248(%rsp)                       # 8-byte Folded Reload
	movq	%rax, %rcx
	movq	288(%rsp), %rax                 # 8-byte Reload
.Ltmp589:
	.loc	7 390 10                        # ./include/sodium/private/ed25519_ref10_fe_51.h:390:10 @[ crypto_scalarmult/curve25519/ref10/x25519_ref10.c:125:9 ]
	movq	%rax, 112(%rsp)
.Ltmp590:
	#DEBUG_VALUE: crypto_scalarmult_curve25519_ref10:z2 <- [DW_OP_plus_uconst 112, DW_OP_deref, DW_OP_LLVM_fragment 0 64] $rsp
	.loc	7 358 8                         # ./include/sodium/private/ed25519_ref10_fe_51.h:358:8 @[ crypto_scalarmult/curve25519/ref10/x25519_ref10.c:127:9 ]
	addq	%rbx, %rcx
.Ltmp591:
	#DEBUG_VALUE: fe25519_sq:r2 <- [DW_OP_LLVM_fragment 0 64] $rcx
	.loc	7 0 8 is_stmt 0                 # ./include/sodium/private/ed25519_ref10_fe_51.h:0:8
	movq	%rcx, (%rsp)                    # 8-byte Spill
.Ltmp592:
	#DEBUG_VALUE: fe25519_sq:r2 <- [DW_OP_deref, DW_OP_LLVM_fragment 0 64] $rsp
	#DEBUG_VALUE: fe25519_sub:h4 <- undef
	.loc	7 358 8                         # ./include/sodium/private/ed25519_ref10_fe_51.h:358:8 @[ crypto_scalarmult/curve25519/ref10/x25519_ref10.c:127:9 ]
	adcq	%r8, %rdx
.Ltmp593:
	#DEBUG_VALUE: fe25519_sq:r2 <- [DW_OP_LLVM_fragment 64 64] $rdx
	.loc	7 0 8                           # ./include/sodium/private/ed25519_ref10_fe_51.h:0:8
	movq	%rdx, 24(%rsp)                  # 8-byte Spill
.Ltmp594:
	#DEBUG_VALUE: fe25519_sq:r2 <- [DW_OP_plus_uconst 24, DW_OP_deref, DW_OP_LLVM_fragment 64 64] $rsp
	.loc	7 339 15 is_stmt 1              # ./include/sodium/private/ed25519_ref10_fe_51.h:339:15 @[ crypto_scalarmult/curve25519/ref10/x25519_ref10.c:127:9 ]
	leaq	(,%r13,2), %rcx
.Ltmp595:
	#DEBUG_VALUE: fe25519_sq:f1_2 <- $rcx
	.loc	7 360 30                        # ./include/sodium/private/ed25519_ref10_fe_51.h:360:30 @[ crypto_scalarmult/curve25519/ref10/x25519_ref10.c:127:9 ]
	movq	%r9, %rax
	mulq	%r11
	movq	%rdx, %rsi
	movq	%rax, %r8
.Ltmp596:
	#DEBUG_VALUE: fe25519_sq:r3 <- [DW_OP_LLVM_fragment 0 64] $rax
	#DEBUG_VALUE: fe25519_sq:r3 <- [DW_OP_LLVM_fragment 64 64] $rsi
	.loc	7 361 31                        # ./include/sodium/private/ed25519_ref10_fe_51.h:361:31 @[ crypto_scalarmult/curve25519/ref10/x25519_ref10.c:127:9 ]
	movq	%r12, %rax
.Ltmp597:
	#DEBUG_VALUE: fe25519_sq:r3 <- [DW_OP_LLVM_fragment 0 64] $r8
	.loc	7 0 31 is_stmt 0                # ./include/sodium/private/ed25519_ref10_fe_51.h:0:31
	movq	%r12, %r9
	.loc	7 361 31                        # ./include/sodium/private/ed25519_ref10_fe_51.h:361:31 @[ crypto_scalarmult/curve25519/ref10/x25519_ref10.c:127:9 ]
	mulq	%rcx
	movq	%rdx, %rbx
	movq	%rax, %r12
.Ltmp598:
	#DEBUG_VALUE: fe25519_sq:f0 <- [DW_OP_plus_uconst 192, DW_OP_deref] $rsp
	#DEBUG_VALUE: fe25519_sub:h0 <- [DW_OP_plus_uconst 192, DW_OP_deref] $rsp
	.loc	7 361 8                         # ./include/sodium/private/ed25519_ref10_fe_51.h:361:8 @[ crypto_scalarmult/curve25519/ref10/x25519_ref10.c:127:9 ]
	addq	%r8, %r12
.Ltmp599:
	#DEBUG_VALUE: fe25519_sq:r3 <- [DW_OP_LLVM_fragment 0 64] $r12
	adcq	%rsi, %rbx
.Ltmp600:
	#DEBUG_VALUE: fe25519_sq:r3 <- [DW_OP_LLVM_fragment 64 64] $rbx
	.loc	7 0 8                           # ./include/sodium/private/ed25519_ref10_fe_51.h:0:8
	movq	256(%rsp), %rax                 # 8-byte Reload
.Ltmp601:
	.loc	7 391 10 is_stmt 1              # ./include/sodium/private/ed25519_ref10_fe_51.h:391:10 @[ crypto_scalarmult/curve25519/ref10/x25519_ref10.c:125:9 ]
	movq	%rax, 120(%rsp)
.Ltmp602:
	#DEBUG_VALUE: crypto_scalarmult_curve25519_ref10:z2 <- [DW_OP_plus_uconst 112, DW_OP_deref, DW_OP_LLVM_fragment 0 128] $rsp
	.loc	7 346 19                        # ./include/sodium/private/ed25519_ref10_fe_51.h:346:19 @[ crypto_scalarmult/curve25519/ref10/x25519_ref10.c:127:9 ]
	leaq	(%rdi,%rdi,8), %rax
	leaq	(%rdi,%rax,2), %rax
.Ltmp603:
	#DEBUG_VALUE: fe25519_sq:f4_19 <- $rax
	.loc	7 362 31                        # ./include/sodium/private/ed25519_ref10_fe_51.h:362:31 @[ crypto_scalarmult/curve25519/ref10/x25519_ref10.c:127:9 ]
	mulq	%rdi
.Ltmp604:
	movq	%rdx, %r8
	movq	%rax, %rsi
	.loc	7 362 8 is_stmt 0               # ./include/sodium/private/ed25519_ref10_fe_51.h:362:8 @[ crypto_scalarmult/curve25519/ref10/x25519_ref10.c:127:9 ]
	addq	%r12, %rsi
.Ltmp605:
	#DEBUG_VALUE: fe25519_sq:r3 <- [DW_OP_LLVM_fragment 0 64] $rsi
	adcq	%rbx, %r8
.Ltmp606:
	#DEBUG_VALUE: fe25519_sq:r3 <- [DW_OP_LLVM_fragment 64 64] $r8
	.loc	7 364 30 is_stmt 1              # ./include/sodium/private/ed25519_ref10_fe_51.h:364:30 @[ crypto_scalarmult/curve25519/ref10/x25519_ref10.c:127:9 ]
	movq	%rdi, %rax
	mulq	%r11
	movq	%rdx, %r12
	movq	%rax, %r11
.Ltmp607:
	#DEBUG_VALUE: fe25519_sq:r4 <- [DW_OP_LLVM_fragment 0 64] $rax
	#DEBUG_VALUE: fe25519_sq:r4 <- [DW_OP_LLVM_fragment 64 64] $r12
	.loc	7 0 30 is_stmt 0                # ./include/sodium/private/ed25519_ref10_fe_51.h:0:30
	movq	32(%rsp), %rax                  # 8-byte Reload
.Ltmp608:
	.loc	7 365 31 is_stmt 1              # ./include/sodium/private/ed25519_ref10_fe_51.h:365:31 @[ crypto_scalarmult/curve25519/ref10/x25519_ref10.c:127:9 ]
	mulq	%rcx
.Ltmp609:
	#DEBUG_VALUE: fe25519_sq:r4 <- [DW_OP_LLVM_fragment 0 64] $r11
	movq	%rdx, %r13
.Ltmp610:
	#DEBUG_VALUE: fe25519_sq:r4 <- undef
	.loc	7 0 31 is_stmt 0                # ./include/sodium/private/ed25519_ref10_fe_51.h:0:31
	movq	%rax, 32(%rsp)                  # 8-byte Spill
.Ltmp611:
	#DEBUG_VALUE: fe25519_sq:f3 <- undef
	.loc	7 366 29 is_stmt 1              # ./include/sodium/private/ed25519_ref10_fe_51.h:366:29 @[ crypto_scalarmult/curve25519/ref10/x25519_ref10.c:127:9 ]
	movq	%r9, %rax
	mulq	%r9
	movq	%rax, %rbx
	.loc	7 369 16                        # ./include/sodium/private/ed25519_ref10_fe_51.h:369:16 @[ crypto_scalarmult/curve25519/ref10/x25519_ref10.c:127:9 ]
	movq	%rbp, %rax
	shrq	$51, %rax
.Ltmp612:
	#DEBUG_VALUE: fe25519_sq:carry <- [DW_OP_LLVM_fragment 64 64] $rax
	shldq	$13, %r14, %rbp
.Ltmp613:
	.loc	7 0 16 is_stmt 0                # ./include/sodium/private/ed25519_ref10_fe_51.h:0:16
	movabsq	$2251799813685247, %rdi         # imm = 0x7FFFFFFFFFFFF
	.loc	7 368 27 is_stmt 1              # ./include/sodium/private/ed25519_ref10_fe_51.h:368:27 @[ crypto_scalarmult/curve25519/ref10/x25519_ref10.c:127:9 ]
	andq	%rdi, %r14
.Ltmp614:
	#DEBUG_VALUE: fe25519_sq:r00 <- $r14
	#DEBUG_VALUE: fe25519_sq:carry <- [DW_OP_LLVM_fragment 0 64] $rbp
	.loc	7 353 8                         # ./include/sodium/private/ed25519_ref10_fe_51.h:353:8 @[ crypto_scalarmult/curve25519/ref10/x25519_ref10.c:127:9 ]
	addq	72(%rsp), %r10                  # 8-byte Folded Reload
	adcq	272(%rsp), %r15                 # 8-byte Folded Reload
	.loc	7 354 8                         # ./include/sodium/private/ed25519_ref10_fe_51.h:354:8 @[ crypto_scalarmult/curve25519/ref10/x25519_ref10.c:127:9 ]
	addq	280(%rsp), %r10                 # 8-byte Folded Reload
.Ltmp615:
	#DEBUG_VALUE: fe25519_sq:r1 <- [DW_OP_LLVM_fragment 0 64] $r10
	adcq	16(%rsp), %r15                  # 8-byte Folded Reload
.Ltmp616:
	#DEBUG_VALUE: fe25519_sq:r1 <- [DW_OP_LLVM_fragment 64 64] $r15
	.loc	7 370 8                         # ./include/sodium/private/ed25519_ref10_fe_51.h:370:8 @[ crypto_scalarmult/curve25519/ref10/x25519_ref10.c:127:9 ]
	addq	%rbp, %r10
.Ltmp617:
	#DEBUG_VALUE: fe25519_sq:r1 <- [DW_OP_LLVM_fragment 0 64] $r10
	adcq	%rax, %r15
.Ltmp618:
	.loc	7 372 16                        # ./include/sodium/private/ed25519_ref10_fe_51.h:372:16 @[ crypto_scalarmult/curve25519/ref10/x25519_ref10.c:127:9 ]
	movq	%r15, %rbp
.Ltmp619:
	shrq	$51, %rbp
.Ltmp620:
	#DEBUG_VALUE: fe25519_sq:carry <- [DW_OP_LLVM_fragment 64 64] $rbp
	shldq	$13, %r10, %r15
.Ltmp621:
	#DEBUG_VALUE: fe25519_sq:r1 <- [DW_OP_LLVM_fragment 64 64] undef
	.loc	7 371 27                        # ./include/sodium/private/ed25519_ref10_fe_51.h:371:27 @[ crypto_scalarmult/curve25519/ref10/x25519_ref10.c:127:9 ]
	andq	%rdi, %r10
.Ltmp622:
	#DEBUG_VALUE: fe25519_sq:r01 <- $r10
	#DEBUG_VALUE: fe25519_sq:carry <- [DW_OP_LLVM_fragment 0 64] $r15
	.loc	7 373 8                         # ./include/sodium/private/ed25519_ref10_fe_51.h:373:8 @[ crypto_scalarmult/curve25519/ref10/x25519_ref10.c:127:9 ]
	addq	(%rsp), %r15                    # 8-byte Folded Reload
.Ltmp623:
	#DEBUG_VALUE: fe25519_sq:r2 <- [DW_OP_LLVM_fragment 0 64] $r15
	adcq	24(%rsp), %rbp                  # 8-byte Folded Reload
.Ltmp624:
	.loc	7 375 16                        # ./include/sodium/private/ed25519_ref10_fe_51.h:375:16 @[ crypto_scalarmult/curve25519/ref10/x25519_ref10.c:127:9 ]
	movq	%rbp, %rax
	shrq	$51, %rax
.Ltmp625:
	#DEBUG_VALUE: fe25519_sq:carry <- [DW_OP_LLVM_fragment 64 64] $rax
	shldq	$13, %r15, %rbp
.Ltmp626:
	#DEBUG_VALUE: fe25519_sq:r2 <- [DW_OP_LLVM_fragment 64 64] undef
	.loc	7 374 27                        # ./include/sodium/private/ed25519_ref10_fe_51.h:374:27 @[ crypto_scalarmult/curve25519/ref10/x25519_ref10.c:127:9 ]
	andq	%rdi, %r15
.Ltmp627:
	#DEBUG_VALUE: fe25519_sq:r02 <- $r15
	#DEBUG_VALUE: fe25519_sq:carry <- [DW_OP_LLVM_fragment 0 64] $rbp
	.loc	7 376 8                         # ./include/sodium/private/ed25519_ref10_fe_51.h:376:8 @[ crypto_scalarmult/curve25519/ref10/x25519_ref10.c:127:9 ]
	addq	%rsi, %rbp
.Ltmp628:
	#DEBUG_VALUE: fe25519_sq:r3 <- [DW_OP_LLVM_fragment 0 64] $rbp
	adcq	%r8, %rax
.Ltmp629:
	.loc	7 378 16                        # ./include/sodium/private/ed25519_ref10_fe_51.h:378:16 @[ crypto_scalarmult/curve25519/ref10/x25519_ref10.c:127:9 ]
	movq	%rax, %rcx
.Ltmp630:
	shrq	$51, %rcx
.Ltmp631:
	#DEBUG_VALUE: fe25519_sq:carry <- [DW_OP_LLVM_fragment 64 64] $rcx
	shldq	$13, %rbp, %rax
.Ltmp632:
	#DEBUG_VALUE: fe25519_sq:r3 <- [DW_OP_LLVM_fragment 64 64] undef
	.loc	7 377 27                        # ./include/sodium/private/ed25519_ref10_fe_51.h:377:27 @[ crypto_scalarmult/curve25519/ref10/x25519_ref10.c:127:9 ]
	andq	%rdi, %rbp
.Ltmp633:
	#DEBUG_VALUE: crypto_scalarmult_curve25519_ref10:x3 <- [DW_OP_LLVM_fragment 192 64] $rbp
	#DEBUG_VALUE: fe25519_sq:r03 <- $rbp
	#DEBUG_VALUE: fe25519_sq:carry <- [DW_OP_LLVM_fragment 0 64] $rax
	.loc	7 0 27 is_stmt 0                # ./include/sodium/private/ed25519_ref10_fe_51.h:0:27
	movq	%rdi, %rsi
	.loc	7 365 8 is_stmt 1               # ./include/sodium/private/ed25519_ref10_fe_51.h:365:8 @[ crypto_scalarmult/curve25519/ref10/x25519_ref10.c:127:9 ]
	addq	32(%rsp), %rbx                  # 8-byte Folded Reload
	adcq	%r13, %rdx
	movq	168(%rsp), %rdi                 # 8-byte Reload
.Ltmp634:
	.loc	7 392 10                        # ./include/sodium/private/ed25519_ref10_fe_51.h:392:10 @[ crypto_scalarmult/curve25519/ref10/x25519_ref10.c:125:9 ]
	movq	%rdi, 128(%rsp)
.Ltmp635:
	#DEBUG_VALUE: crypto_scalarmult_curve25519_ref10:z2 <- [DW_OP_plus_uconst 112, DW_OP_deref, DW_OP_LLVM_fragment 0 192] $rsp
	.loc	7 366 8                         # ./include/sodium/private/ed25519_ref10_fe_51.h:366:8 @[ crypto_scalarmult/curve25519/ref10/x25519_ref10.c:127:9 ]
	addq	%r11, %rbx
.Ltmp636:
	#DEBUG_VALUE: fe25519_sq:r4 <- [DW_OP_LLVM_fragment 0 64] $rbx
	adcq	%r12, %rdx
.Ltmp637:
	#DEBUG_VALUE: fe25519_sq:r4 <- [DW_OP_LLVM_fragment 64 64] $rdx
	.loc	7 0 8 is_stmt 0                 # ./include/sodium/private/ed25519_ref10_fe_51.h:0:8
	movq	40(%rsp), %rdi                  # 8-byte Reload
.Ltmp638:
	.loc	7 393 10 is_stmt 1              # ./include/sodium/private/ed25519_ref10_fe_51.h:393:10 @[ crypto_scalarmult/curve25519/ref10/x25519_ref10.c:125:9 ]
	movq	%rdi, 136(%rsp)
.Ltmp639:
	#DEBUG_VALUE: crypto_scalarmult_curve25519_ref10:z2 <- [DW_OP_plus_uconst 112, DW_OP_deref, DW_OP_LLVM_fragment 0 256] $rsp
	.loc	7 379 8                         # ./include/sodium/private/ed25519_ref10_fe_51.h:379:8 @[ crypto_scalarmult/curve25519/ref10/x25519_ref10.c:127:9 ]
	addq	%rax, %rbx
.Ltmp640:
	#DEBUG_VALUE: fe25519_sq:r4 <- [DW_OP_LLVM_fragment 0 64] $rbx
	adcq	%rcx, %rdx
.Ltmp641:
	.loc	7 0 8 is_stmt 0                 # ./include/sodium/private/ed25519_ref10_fe_51.h:0:8
	movq	64(%rsp), %rax                  # 8-byte Reload
.Ltmp642:
	.loc	7 394 10 is_stmt 1              # ./include/sodium/private/ed25519_ref10_fe_51.h:394:10 @[ crypto_scalarmult/curve25519/ref10/x25519_ref10.c:125:9 ]
	movq	%rax, 144(%rsp)
.Ltmp643:
	#DEBUG_VALUE: crypto_scalarmult_curve25519_ref10:z2 <- [DW_OP_plus_uconst 112, DW_OP_deref] $rsp
	#DEBUG_VALUE: fe25519_mul32:h <- [DW_OP_plus_uconst 416, DW_OP_stack_value] $rsp
	#DEBUG_VALUE: fe25519_mul32:f <- [DW_OP_plus_uconst 320, DW_OP_stack_value] $rsp
	#DEBUG_VALUE: fe25519_mul32:n <- 121666
	#DEBUG_VALUE: fe25519_mul32:mask <- 2251799813685247
	#DEBUG_VALUE: fe25519_mul32:sn <- 121666
	.loc	7 381 16                        # ./include/sodium/private/ed25519_ref10_fe_51.h:381:16 @[ crypto_scalarmult/curve25519/ref10/x25519_ref10.c:127:9 ]
	shldq	$13, %rbx, %rdx
.Ltmp644:
	#DEBUG_VALUE: fe25519_sq:r4 <- [DW_OP_LLVM_fragment 64 64] undef
	#DEBUG_VALUE: crypto_scalarmult_curve25519_ref10:x3 <- [DW_OP_LLVM_fragment 256 64] undef
	#DEBUG_VALUE: fe25519_sq:r04 <- undef
	#DEBUG_VALUE: fe25519_sq:carry <- [DW_OP_LLVM_fragment 0 64] $rdx
	#DEBUG_VALUE: fe25519_sq:carry <- [DW_OP_LLVM_fragment 64 64] undef
	.loc	7 0 16 is_stmt 0                # ./include/sodium/private/ed25519_ref10_fe_51.h:0:16
	movq	296(%rsp), %rcx                 # 8-byte Reload
.Ltmp645:
	.loc	7 501 21 is_stmt 1              # ./include/sodium/private/ed25519_ref10_fe_51.h:501:21 @[ crypto_scalarmult/curve25519/ref10/x25519_ref10.c:126:9 ]
	leaq	(%rcx,%rcx,8), %rax
	leaq	(%rcx,%rax,2), %rax
.Ltmp646:
	.loc	7 382 18                        # ./include/sodium/private/ed25519_ref10_fe_51.h:382:18 @[ crypto_scalarmult/curve25519/ref10/x25519_ref10.c:127:9 ]
	leaq	(%rdx,%rdx,8), %rcx
	leaq	(%rdx,%rcx,2), %r13
	.loc	7 382 9 is_stmt 0               # ./include/sodium/private/ed25519_ref10_fe_51.h:382:9 @[ crypto_scalarmult/curve25519/ref10/x25519_ref10.c:127:9 ]
	addq	%r14, %r13
.Ltmp647:
	#DEBUG_VALUE: fe25519_sq:r00 <- $r13
	.loc	7 383 17 is_stmt 1              # ./include/sodium/private/ed25519_ref10_fe_51.h:383:17 @[ crypto_scalarmult/curve25519/ref10/x25519_ref10.c:127:9 ]
	movq	%r13, %r14
	shrq	$51, %r14
.Ltmp648:
	#DEBUG_VALUE: fe25519_sq:carry <- [DW_OP_LLVM_convert 64 7, DW_OP_LLVM_convert 128 7, DW_OP_stack_value] $r14
	.loc	7 385 9                         # ./include/sodium/private/ed25519_ref10_fe_51.h:385:9 @[ crypto_scalarmult/curve25519/ref10/x25519_ref10.c:127:9 ]
	addq	%r10, %r14
.Ltmp649:
	#DEBUG_VALUE: crypto_scalarmult_curve25519_ref10:x3 <- [DW_OP_LLVM_fragment 0 64] undef
	#DEBUG_VALUE: fe25519_sq:r00 <- undef
	#DEBUG_VALUE: fe25519_sq:r01 <- $r14
	.loc	7 386 17                        # ./include/sodium/private/ed25519_ref10_fe_51.h:386:17 @[ crypto_scalarmult/curve25519/ref10/x25519_ref10.c:127:9 ]
	movq	%r14, %r12
	shrq	$51, %r12
.Ltmp650:
	#DEBUG_VALUE: fe25519_sq:carry <- [DW_OP_LLVM_convert 64 7, DW_OP_LLVM_convert 128 7, DW_OP_stack_value] $r12
	.loc	7 388 9                         # ./include/sodium/private/ed25519_ref10_fe_51.h:388:9 @[ crypto_scalarmult/curve25519/ref10/x25519_ref10.c:127:9 ]
	addq	%r15, %r12
.Ltmp651:
	#DEBUG_VALUE: crypto_scalarmult_curve25519_ref10:x3 <- [DW_OP_LLVM_fragment 64 64] undef
	#DEBUG_VALUE: fe25519_sq:r01 <- undef
	#DEBUG_VALUE: fe25519_sq:r02 <- $r12
	#DEBUG_VALUE: crypto_scalarmult_curve25519_ref10:x3 <- [DW_OP_LLVM_fragment 128 64] $r12
	#DEBUG_VALUE: crypto_scalarmult_curve25519_ref10:x3 <- [DW_OP_LLVM_fragment 0 64] undef
	#DEBUG_VALUE: crypto_scalarmult_curve25519_ref10:x3 <- [DW_OP_LLVM_fragment 64 64] undef
	#DEBUG_VALUE: crypto_scalarmult_curve25519_ref10:x3 <- [DW_OP_LLVM_fragment 192 64] $rbp
	#DEBUG_VALUE: crypto_scalarmult_curve25519_ref10:x3 <- [DW_OP_LLVM_fragment 256 64] undef
	#DEBUG_VALUE: fe25519_add:h <- [DW_OP_plus_uconst 368, DW_OP_stack_value] $rsp
	#DEBUG_VALUE: fe25519_add:f <- [DW_OP_plus_uconst 368, DW_OP_stack_value] $rsp
	#DEBUG_VALUE: fe25519_add:g <- [DW_OP_plus_uconst 416, DW_OP_stack_value] $rsp
	.loc	7 0 9 is_stmt 0                 # ./include/sodium/private/ed25519_ref10_fe_51.h:0:9
	movq	304(%rsp), %rcx                 # 8-byte Reload
.Ltmp652:
	.loc	7 501 8 is_stmt 1               # ./include/sodium/private/ed25519_ref10_fe_51.h:501:8 @[ crypto_scalarmult/curve25519/ref10/x25519_ref10.c:126:9 ]
	addq	80(%rsp), %rcx                  # 8-byte Folded Reload
.Ltmp653:
	.loc	7 35 24                         # ./include/sodium/private/ed25519_ref10_fe_51.h:35:24 @[ crypto_scalarmult/curve25519/ref10/x25519_ref10.c:128:9 ]
	addq	%rax, %rcx
.Ltmp654:
	#DEBUG_VALUE: fe25519_add:h0 <- $rcx
	.loc	7 0 24 is_stmt 0                # ./include/sodium/private/ed25519_ref10_fe_51.h:0:24
	movq	56(%rsp), %rax                  # 8-byte Reload
	.loc	7 36 24 is_stmt 1               # ./include/sodium/private/ed25519_ref10_fe_51.h:36:24 @[ crypto_scalarmult/curve25519/ref10/x25519_ref10.c:128:9 ]
	addq	48(%rsp), %rax                  # 8-byte Folded Reload
.Ltmp655:
	#DEBUG_VALUE: fe25519_add:h1 <- $rax
	.loc	7 0 24 is_stmt 0                # ./include/sodium/private/ed25519_ref10_fe_51.h:0:24
	movq	160(%rsp), %rdx                 # 8-byte Reload
	.loc	7 37 24 is_stmt 1               # ./include/sodium/private/ed25519_ref10_fe_51.h:37:24 @[ crypto_scalarmult/curve25519/ref10/x25519_ref10.c:128:9 ]
	addq	88(%rsp), %rdx                  # 8-byte Folded Reload
.Ltmp656:
	#DEBUG_VALUE: fe25519_add:h2 <- $rdx
	.loc	7 0 24 is_stmt 0                # ./include/sodium/private/ed25519_ref10_fe_51.h:0:24
	movq	264(%rsp), %r8                  # 8-byte Reload
	.loc	7 38 24 is_stmt 1               # ./include/sodium/private/ed25519_ref10_fe_51.h:38:24 @[ crypto_scalarmult/curve25519/ref10/x25519_ref10.c:128:9 ]
	addq	104(%rsp), %r8                  # 8-byte Folded Reload
.Ltmp657:
	#DEBUG_VALUE: fe25519_add:h3 <- $r8
	.loc	7 0 24 is_stmt 0                # ./include/sodium/private/ed25519_ref10_fe_51.h:0:24
	movq	8(%rsp), %rdi                   # 8-byte Reload
	.loc	7 39 24 is_stmt 1               # ./include/sodium/private/ed25519_ref10_fe_51.h:39:24 @[ crypto_scalarmult/curve25519/ref10/x25519_ref10.c:128:9 ]
	addq	96(%rsp), %rdi                  # 8-byte Folded Reload
.Ltmp658:
	#DEBUG_VALUE: fe25519_add:h4 <- $rdi
	.loc	7 41 10                         # ./include/sodium/private/ed25519_ref10_fe_51.h:41:10 @[ crypto_scalarmult/curve25519/ref10/x25519_ref10.c:128:9 ]
	movq	%rcx, 368(%rsp)
	.loc	7 42 10                         # ./include/sodium/private/ed25519_ref10_fe_51.h:42:10 @[ crypto_scalarmult/curve25519/ref10/x25519_ref10.c:128:9 ]
	movq	%rax, 376(%rsp)
	.loc	7 43 10                         # ./include/sodium/private/ed25519_ref10_fe_51.h:43:10 @[ crypto_scalarmult/curve25519/ref10/x25519_ref10.c:128:9 ]
	movq	%rdx, 384(%rsp)
	.loc	7 44 10                         # ./include/sodium/private/ed25519_ref10_fe_51.h:44:10 @[ crypto_scalarmult/curve25519/ref10/x25519_ref10.c:128:9 ]
	movq	%r8, 392(%rsp)
	.loc	7 45 10                         # ./include/sodium/private/ed25519_ref10_fe_51.h:45:10 @[ crypto_scalarmult/curve25519/ref10/x25519_ref10.c:128:9 ]
	movq	%rdi, 400(%rsp)
.Ltmp659:
	.loc	7 380 27                        # ./include/sodium/private/ed25519_ref10_fe_51.h:380:27 @[ crypto_scalarmult/curve25519/ref10/x25519_ref10.c:127:9 ]
	andq	%rsi, %rbx
.Ltmp660:
	#DEBUG_VALUE: fe25519_sq:r04 <- $rbx
	#DEBUG_VALUE: crypto_scalarmult_curve25519_ref10:x3 <- [DW_OP_LLVM_fragment 256 64] $rbx
	#DEBUG_VALUE: crypto_scalarmult_curve25519_ref10:x3 <- [DW_OP_LLVM_fragment 256 64] $rbx
	.loc	7 384 9                         # ./include/sodium/private/ed25519_ref10_fe_51.h:384:9 @[ crypto_scalarmult/curve25519/ref10/x25519_ref10.c:127:9 ]
	andq	%rsi, %r13
.Ltmp661:
	#DEBUG_VALUE: fe25519_sq:r00 <- $r13
	#DEBUG_VALUE: crypto_scalarmult_curve25519_ref10:x3 <- [DW_OP_LLVM_fragment 0 64] $r13
	#DEBUG_VALUE: crypto_scalarmult_curve25519_ref10:x3 <- [DW_OP_LLVM_fragment 0 64] $r13
	.loc	7 387 9                         # ./include/sodium/private/ed25519_ref10_fe_51.h:387:9 @[ crypto_scalarmult/curve25519/ref10/x25519_ref10.c:127:9 ]
	andq	%rsi, %r14
.Ltmp662:
	#DEBUG_VALUE: fe25519_sq:r01 <- $r14
	#DEBUG_VALUE: crypto_scalarmult_curve25519_ref10:x3 <- [DW_OP_LLVM_fragment 64 64] $r14
	#DEBUG_VALUE: crypto_scalarmult_curve25519_ref10:x3 <- [DW_OP_LLVM_fragment 64 64] $r14
	.loc	2 129 9                         # crypto_scalarmult/curve25519/ref10/x25519_ref10.c:129:9
	leaq	416(%rsp), %rdi
.Ltmp663:
	leaq	496(%rsp), %rsi
	leaq	112(%rsp), %r15
	movq	%r15, %rdx
.Ltmp664:
	callq	fe25519_mul
.Ltmp665:
	.loc	2 130 9                         # crypto_scalarmult/curve25519/ref10/x25519_ref10.c:130:9
	movq	%r15, %rdi
	leaq	320(%rsp), %rsi
	leaq	368(%rsp), %rdx
	callq	fe25519_mul
.Ltmp666:
	.loc	2 0 9 is_stmt 0                 # crypto_scalarmult/curve25519/ref10/x25519_ref10.c:0:9
	movl	316(%rsp), %eax                 # 4-byte Reload
	movl	204(%rsp), %ecx                 # 4-byte Reload
.Ltmp667:
	.loc	2 106 25 is_stmt 1              # crypto_scalarmult/curve25519/ref10/x25519_ref10.c:106:25
	addl	$-1, %ecx
.Ltmp668:
	#DEBUG_VALUE: crypto_scalarmult_curve25519_ref10:pos <- $ecx
	.loc	2 106 5 is_stmt 0               # crypto_scalarmult/curve25519/ref10/x25519_ref10.c:106:5
	jb	.LBB0_2
.Ltmp669:
# %bb.3:
	#DEBUG_VALUE: crypto_scalarmult_curve25519_ref10:q <- [DW_OP_plus_uconst 464] [$rsp+0]
	#DEBUG_VALUE: crypto_scalarmult_curve25519_ref10:n <- [DW_OP_LLVM_entry_value 1] $rsi
	#DEBUG_VALUE: crypto_scalarmult_curve25519_ref10:p <- [DW_OP_LLVM_entry_value 1] $rdx
	#DEBUG_VALUE: crypto_scalarmult_curve25519_ref10:t <- [DW_OP_plus_uconst 544, DW_OP_deref] $rsp
	#DEBUG_VALUE: crypto_scalarmult_curve25519_ref10:x2 <- [DW_OP_plus_uconst 208, DW_OP_deref] $rsp
	#DEBUG_VALUE: crypto_scalarmult_curve25519_ref10:z2 <- [DW_OP_plus_uconst 112, DW_OP_deref] $rsp
	#DEBUG_VALUE: crypto_scalarmult_curve25519_ref10:z3 <- [DW_OP_plus_uconst 56, DW_OP_deref, DW_OP_LLVM_fragment 64 64] $rsp
	#DEBUG_VALUE: crypto_scalarmult_curve25519_ref10:z3 <- [DW_OP_plus_uconst 160, DW_OP_deref, DW_OP_LLVM_fragment 128 64] $rsp
	#DEBUG_VALUE: crypto_scalarmult_curve25519_ref10:z3 <- [DW_OP_plus_uconst 264, DW_OP_deref, DW_OP_LLVM_fragment 192 64] $rsp
	#DEBUG_VALUE: crypto_scalarmult_curve25519_ref10:z3 <- [DW_OP_plus_uconst 8, DW_OP_deref, DW_OP_LLVM_fragment 256 64] $rsp
	#DEBUG_VALUE: crypto_scalarmult_curve25519_ref10:x3 <- [DW_OP_LLVM_fragment 0 64] $r13
	#DEBUG_VALUE: crypto_scalarmult_curve25519_ref10:x3 <- [DW_OP_LLVM_fragment 64 64] $r14
	#DEBUG_VALUE: crypto_scalarmult_curve25519_ref10:x3 <- [DW_OP_LLVM_fragment 128 64] $r12
	#DEBUG_VALUE: crypto_scalarmult_curve25519_ref10:x3 <- [DW_OP_LLVM_fragment 192 64] $rbp
	#DEBUG_VALUE: crypto_scalarmult_curve25519_ref10:x3 <- [DW_OP_LLVM_fragment 256 64] $rbx
	#DEBUG_VALUE: crypto_scalarmult_curve25519_ref10:pos <- $ecx
	#DEBUG_VALUE: fe25519_cswap:f <- [DW_OP_plus_uconst 208, DW_OP_stack_value] $rsp
	#DEBUG_VALUE: fe25519_cswap:g <- undef
	#DEBUG_VALUE: fe25519_cswap:b <- undef
	.loc	7 148 40 is_stmt 1              # ./include/sodium/private/ed25519_ref10_fe_51.h:148:40 @[ crypto_scalarmult/curve25519/ref10/x25519_ref10.c:132:5 ]
	movl	%eax, %eax
	.loc	7 148 39 is_stmt 0              # ./include/sodium/private/ed25519_ref10_fe_51.h:148:39 @[ crypto_scalarmult/curve25519/ref10/x25519_ref10.c:132:5 ]
	negq	%rax
.Ltmp670:
	#DEBUG_VALUE: fe25519_cswap:mask <- $rax
	.loc	7 150 19 is_stmt 1              # ./include/sodium/private/ed25519_ref10_fe_51.h:150:19 @[ crypto_scalarmult/curve25519/ref10/x25519_ref10.c:132:5 ]
	movq	208(%rsp), %rsi
.Ltmp671:
	#DEBUG_VALUE: fe25519_cswap:f0 <- $rsi
	.loc	7 151 19                        # ./include/sodium/private/ed25519_ref10_fe_51.h:151:19 @[ crypto_scalarmult/curve25519/ref10/x25519_ref10.c:132:5 ]
	movq	216(%rsp), %rdi
.Ltmp672:
	#DEBUG_VALUE: fe25519_cswap:f1 <- $rdi
	.loc	7 152 19                        # ./include/sodium/private/ed25519_ref10_fe_51.h:152:19 @[ crypto_scalarmult/curve25519/ref10/x25519_ref10.c:132:5 ]
	movq	224(%rsp), %r8
.Ltmp673:
	#DEBUG_VALUE: fe25519_cswap:f2 <- $r8
	.loc	7 153 19                        # ./include/sodium/private/ed25519_ref10_fe_51.h:153:19 @[ crypto_scalarmult/curve25519/ref10/x25519_ref10.c:132:5 ]
	movq	232(%rsp), %rdx
.Ltmp674:
	#DEBUG_VALUE: fe25519_cswap:f3 <- $rdx
	.loc	7 154 19                        # ./include/sodium/private/ed25519_ref10_fe_51.h:154:19 @[ crypto_scalarmult/curve25519/ref10/x25519_ref10.c:132:5 ]
	movq	240(%rsp), %rcx
.Ltmp675:
	#DEBUG_VALUE: fe25519_cswap:f4 <- $rcx
	#DEBUG_VALUE: fe25519_cswap:g0 <- $r13
	#DEBUG_VALUE: fe25519_cswap:g1 <- $r14
	#DEBUG_VALUE: fe25519_cswap:g2 <- $r12
	#DEBUG_VALUE: fe25519_cswap:g3 <- $rbp
	#DEBUG_VALUE: fe25519_cswap:g4 <- $rbx
	.loc	7 162 22                        # ./include/sodium/private/ed25519_ref10_fe_51.h:162:22 @[ crypto_scalarmult/curve25519/ref10/x25519_ref10.c:132:5 ]
	xorq	%rsi, %r13
.Ltmp676:
	#DEBUG_VALUE: fe25519_cswap:x0 <- $r13
	.loc	7 163 22                        # ./include/sodium/private/ed25519_ref10_fe_51.h:163:22 @[ crypto_scalarmult/curve25519/ref10/x25519_ref10.c:132:5 ]
	xorq	%rdi, %r14
.Ltmp677:
	#DEBUG_VALUE: fe25519_cswap:x1 <- $r14
	.loc	7 164 22                        # ./include/sodium/private/ed25519_ref10_fe_51.h:164:22 @[ crypto_scalarmult/curve25519/ref10/x25519_ref10.c:132:5 ]
	xorq	%r8, %r12
.Ltmp678:
	#DEBUG_VALUE: fe25519_cswap:x2 <- $r12
	.loc	7 165 22                        # ./include/sodium/private/ed25519_ref10_fe_51.h:165:22 @[ crypto_scalarmult/curve25519/ref10/x25519_ref10.c:132:5 ]
	xorq	%rdx, %rbp
.Ltmp679:
	#DEBUG_VALUE: fe25519_cswap:x3 <- $rbp
	.loc	7 166 22                        # ./include/sodium/private/ed25519_ref10_fe_51.h:166:22 @[ crypto_scalarmult/curve25519/ref10/x25519_ref10.c:132:5 ]
	xorq	%rcx, %rbx
.Ltmp680:
	#DEBUG_VALUE: fe25519_cswap:x4 <- $rbx
	.loc	7 168 8                         # ./include/sodium/private/ed25519_ref10_fe_51.h:168:8 @[ crypto_scalarmult/curve25519/ref10/x25519_ref10.c:132:5 ]
	andq	%rax, %r13
.Ltmp681:
	#DEBUG_VALUE: fe25519_cswap:x0 <- $r13
	.loc	7 169 8                         # ./include/sodium/private/ed25519_ref10_fe_51.h:169:8 @[ crypto_scalarmult/curve25519/ref10/x25519_ref10.c:132:5 ]
	andq	%rax, %r14
.Ltmp682:
	#DEBUG_VALUE: fe25519_cswap:x1 <- $r14
	.loc	7 170 8                         # ./include/sodium/private/ed25519_ref10_fe_51.h:170:8 @[ crypto_scalarmult/curve25519/ref10/x25519_ref10.c:132:5 ]
	andq	%rax, %r12
.Ltmp683:
	#DEBUG_VALUE: fe25519_cswap:x2 <- $r12
	.loc	7 171 8                         # ./include/sodium/private/ed25519_ref10_fe_51.h:171:8 @[ crypto_scalarmult/curve25519/ref10/x25519_ref10.c:132:5 ]
	andq	%rax, %rbp
.Ltmp684:
	#DEBUG_VALUE: fe25519_cswap:x3 <- $rbp
	.loc	7 172 8                         # ./include/sodium/private/ed25519_ref10_fe_51.h:172:8 @[ crypto_scalarmult/curve25519/ref10/x25519_ref10.c:132:5 ]
	andq	%rax, %rbx
.Ltmp685:
	#DEBUG_VALUE: fe25519_cswap:x4 <- $rbx
	.loc	7 174 15                        # ./include/sodium/private/ed25519_ref10_fe_51.h:174:15 @[ crypto_scalarmult/curve25519/ref10/x25519_ref10.c:132:5 ]
	xorq	%rsi, %r13
.Ltmp686:
	.loc	7 174 10 is_stmt 0              # ./include/sodium/private/ed25519_ref10_fe_51.h:174:10 @[ crypto_scalarmult/curve25519/ref10/x25519_ref10.c:132:5 ]
	movq	%r13, 208(%rsp)
	#DEBUG_VALUE: crypto_scalarmult_curve25519_ref10:x2 <- [DW_OP_plus_uconst 208, DW_OP_deref] $rsp
	.loc	7 175 15 is_stmt 1              # ./include/sodium/private/ed25519_ref10_fe_51.h:175:15 @[ crypto_scalarmult/curve25519/ref10/x25519_ref10.c:132:5 ]
	xorq	%rdi, %r14
.Ltmp687:
	.loc	7 175 10 is_stmt 0              # ./include/sodium/private/ed25519_ref10_fe_51.h:175:10 @[ crypto_scalarmult/curve25519/ref10/x25519_ref10.c:132:5 ]
	movq	%r14, 216(%rsp)
	.loc	7 176 15 is_stmt 1              # ./include/sodium/private/ed25519_ref10_fe_51.h:176:15 @[ crypto_scalarmult/curve25519/ref10/x25519_ref10.c:132:5 ]
	xorq	%r8, %r12
.Ltmp688:
	.loc	7 176 10 is_stmt 0              # ./include/sodium/private/ed25519_ref10_fe_51.h:176:10 @[ crypto_scalarmult/curve25519/ref10/x25519_ref10.c:132:5 ]
	movq	%r12, 224(%rsp)
	.loc	7 177 15 is_stmt 1              # ./include/sodium/private/ed25519_ref10_fe_51.h:177:15 @[ crypto_scalarmult/curve25519/ref10/x25519_ref10.c:132:5 ]
	xorq	%rdx, %rbp
.Ltmp689:
	.loc	7 177 10 is_stmt 0              # ./include/sodium/private/ed25519_ref10_fe_51.h:177:10 @[ crypto_scalarmult/curve25519/ref10/x25519_ref10.c:132:5 ]
	movq	%rbp, 232(%rsp)
	.loc	7 178 15 is_stmt 1              # ./include/sodium/private/ed25519_ref10_fe_51.h:178:15 @[ crypto_scalarmult/curve25519/ref10/x25519_ref10.c:132:5 ]
	xorq	%rcx, %rbx
.Ltmp690:
	.loc	7 178 10 is_stmt 0              # ./include/sodium/private/ed25519_ref10_fe_51.h:178:10 @[ crypto_scalarmult/curve25519/ref10/x25519_ref10.c:132:5 ]
	movq	%rbx, 240(%rsp)
.Ltmp691:
	#DEBUG_VALUE: crypto_scalarmult_curve25519_ref10:x3 <- [DW_OP_LLVM_arg 0, DW_OP_LLVM_arg 1, DW_OP_xor, DW_OP_stack_value, DW_OP_LLVM_fragment 0 64] undef, undef
	#DEBUG_VALUE: crypto_scalarmult_curve25519_ref10:x3 <- [DW_OP_LLVM_arg 0, DW_OP_LLVM_arg 1, DW_OP_xor, DW_OP_stack_value, DW_OP_LLVM_fragment 64 64] undef, undef
	#DEBUG_VALUE: crypto_scalarmult_curve25519_ref10:x3 <- [DW_OP_LLVM_arg 0, DW_OP_LLVM_arg 1, DW_OP_xor, DW_OP_stack_value, DW_OP_LLVM_fragment 128 64] undef, undef
	#DEBUG_VALUE: crypto_scalarmult_curve25519_ref10:x3 <- [DW_OP_LLVM_arg 0, DW_OP_LLVM_arg 1, DW_OP_xor, DW_OP_stack_value, DW_OP_LLVM_fragment 192 64] undef, undef
	#DEBUG_VALUE: crypto_scalarmult_curve25519_ref10:x3 <- [DW_OP_LLVM_arg 0, DW_OP_LLVM_arg 1, DW_OP_xor, DW_OP_stack_value, DW_OP_LLVM_fragment 256 64] undef, undef
	#DEBUG_VALUE: fe25519_cswap:f <- [DW_OP_plus_uconst 112, DW_OP_stack_value] $rsp
	#DEBUG_VALUE: fe25519_cswap:g <- [DW_OP_plus_uconst 416, DW_OP_stack_value] $rsp
	#DEBUG_VALUE: fe25519_cswap:b <- undef
	#DEBUG_VALUE: fe25519_cswap:mask <- $rax
	#DEBUG_VALUE: fe25519_cswap:f0 <- undef
	#DEBUG_VALUE: fe25519_cswap:f1 <- undef
	#DEBUG_VALUE: fe25519_cswap:f2 <- undef
	#DEBUG_VALUE: fe25519_cswap:f3 <- undef
	.loc	7 154 19 is_stmt 1              # ./include/sodium/private/ed25519_ref10_fe_51.h:154:19 @[ crypto_scalarmult/curve25519/ref10/x25519_ref10.c:133:5 ]
	movq	144(%rsp), %rcx
.Ltmp692:
	#DEBUG_VALUE: fe25519_cswap:f4 <- $rcx
	#DEBUG_VALUE: fe25519_cswap:g0 <- undef
	#DEBUG_VALUE: fe25519_cswap:g1 <- undef
	#DEBUG_VALUE: fe25519_cswap:g2 <- undef
	#DEBUG_VALUE: fe25519_cswap:g3 <- undef
	#DEBUG_VALUE: fe25519_cswap:x0 <- undef
	#DEBUG_VALUE: fe25519_cswap:x1 <- undef
	#DEBUG_VALUE: fe25519_cswap:x2 <- undef
	#DEBUG_VALUE: fe25519_cswap:x3 <- undef
	#DEBUG_VALUE: fe25519_cswap:g4 <- undef
	.loc	7 0 19 is_stmt 0                # ./include/sodium/private/ed25519_ref10_fe_51.h:0:19
	movq	448(%rsp), %rdx
.Ltmp693:
	.loc	7 166 22 is_stmt 1              # ./include/sodium/private/ed25519_ref10_fe_51.h:166:22 @[ crypto_scalarmult/curve25519/ref10/x25519_ref10.c:133:5 ]
	xorq	%rcx, %rdx
.Ltmp694:
	#DEBUG_VALUE: fe25519_cswap:x4 <- undef
	.loc	7 172 8                         # ./include/sodium/private/ed25519_ref10_fe_51.h:172:8 @[ crypto_scalarmult/curve25519/ref10/x25519_ref10.c:133:5 ]
	andq	%rax, %rdx
	.loc	7 168 8                         # ./include/sodium/private/ed25519_ref10_fe_51.h:168:8 @[ crypto_scalarmult/curve25519/ref10/x25519_ref10.c:133:5 ]
	movq	%rax, %xmm0
	pshufd	$68, %xmm0, %xmm0               # xmm0 = xmm0[0,1,0,1]
.Ltmp695:
	#DEBUG_VALUE: fe25519_cswap:x4 <- $rdx
	#DEBUG_VALUE: crypto_scalarmult_curve25519_ref10:z2 <- [DW_OP_LLVM_fragment 0 64] undef
	#DEBUG_VALUE: crypto_scalarmult_curve25519_ref10:z2 <- [DW_OP_plus_uconst 112, DW_OP_plus_uconst 8, DW_OP_deref, DW_OP_LLVM_fragment 64 256] $rsp
	.loc	7 174 15                        # ./include/sodium/private/ed25519_ref10_fe_51.h:174:15 @[ crypto_scalarmult/curve25519/ref10/x25519_ref10.c:133:5 ]
	movdqa	%xmm0, %xmm1
	pandn	112(%rsp), %xmm1
	movdqa	416(%rsp), %xmm2
	pand	%xmm0, %xmm2
	por	%xmm1, %xmm2
	.loc	7 174 10 is_stmt 0              # ./include/sodium/private/ed25519_ref10_fe_51.h:174:10 @[ crypto_scalarmult/curve25519/ref10/x25519_ref10.c:133:5 ]
	movdqa	%xmm2, 112(%rsp)
.Ltmp696:
	#DEBUG_VALUE: crypto_scalarmult_curve25519_ref10:z2 <- [DW_OP_plus_uconst 112, DW_OP_deref, DW_OP_LLVM_fragment 0 64] $rsp
	#DEBUG_VALUE: crypto_scalarmult_curve25519_ref10:z2 <- [DW_OP_plus_uconst 112, DW_OP_plus_uconst 16, DW_OP_deref, DW_OP_LLVM_fragment 128 192] $rsp
	#DEBUG_VALUE: crypto_scalarmult_curve25519_ref10:z2 <- [DW_OP_LLVM_fragment 128 64] undef
	#DEBUG_VALUE: crypto_scalarmult_curve25519_ref10:z2 <- [DW_OP_LLVM_fragment 64 64] undef
	#DEBUG_VALUE: crypto_scalarmult_curve25519_ref10:z2 <- [DW_OP_plus_uconst 112, DW_OP_deref, DW_OP_LLVM_fragment 0 128] $rsp
	#DEBUG_VALUE: crypto_scalarmult_curve25519_ref10:z2 <- [DW_OP_plus_uconst 112, DW_OP_plus_uconst 24, DW_OP_deref, DW_OP_LLVM_fragment 192 128] $rsp
	.loc	7 176 15 is_stmt 1              # ./include/sodium/private/ed25519_ref10_fe_51.h:176:15 @[ crypto_scalarmult/curve25519/ref10/x25519_ref10.c:133:5 ]
	movdqa	%xmm0, %xmm1
	pandn	128(%rsp), %xmm1
	pand	432(%rsp), %xmm0
	por	%xmm1, %xmm0
	.loc	7 176 10 is_stmt 0              # ./include/sodium/private/ed25519_ref10_fe_51.h:176:10 @[ crypto_scalarmult/curve25519/ref10/x25519_ref10.c:133:5 ]
	movdqa	%xmm0, 128(%rsp)
.Ltmp697:
	#DEBUG_VALUE: crypto_scalarmult_curve25519_ref10:z2 <- [DW_OP_plus_uconst 112, DW_OP_deref] $rsp
	.loc	7 178 15 is_stmt 1              # ./include/sodium/private/ed25519_ref10_fe_51.h:178:15 @[ crypto_scalarmult/curve25519/ref10/x25519_ref10.c:133:5 ]
	xorq	%rcx, %rdx
.Ltmp698:
	.loc	7 178 10 is_stmt 0              # ./include/sodium/private/ed25519_ref10_fe_51.h:178:10 @[ crypto_scalarmult/curve25519/ref10/x25519_ref10.c:133:5 ]
	movq	%rdx, 144(%rsp)
.Ltmp699:
	#DEBUG_VALUE: crypto_scalarmult_curve25519_ref10:z3 <- [DW_OP_LLVM_fragment 0 64] undef
	#DEBUG_VALUE: crypto_scalarmult_curve25519_ref10:z3 <- [DW_OP_LLVM_fragment 64 64] undef
	#DEBUG_VALUE: crypto_scalarmult_curve25519_ref10:z3 <- [DW_OP_LLVM_fragment 128 64] undef
	#DEBUG_VALUE: crypto_scalarmult_curve25519_ref10:z3 <- [DW_OP_LLVM_fragment 192 64] undef
	#DEBUG_VALUE: crypto_scalarmult_curve25519_ref10:z3 <- [DW_OP_LLVM_fragment 256 64] undef
	.loc	7 0 10                          # ./include/sodium/private/ed25519_ref10_fe_51.h:0:10
	leaq	112(%rsp), %rbx
.Ltmp700:
	.loc	2 135 5 is_stmt 1               # crypto_scalarmult/curve25519/ref10/x25519_ref10.c:135:5
	movq	%rbx, %rdi
.Ltmp701:
	movq	%rbx, %rsi
.Ltmp702:
	callq	fe25519_invert@PLT
.Ltmp703:
	.loc	2 0 5 is_stmt 0                 # crypto_scalarmult/curve25519/ref10/x25519_ref10.c:0:5
	leaq	208(%rsp), %r14
	.loc	2 136 5 is_stmt 1               # crypto_scalarmult/curve25519/ref10/x25519_ref10.c:136:5
	movq	%r14, %rdi
	movq	%r14, %rsi
	movq	%rbx, %rdx
	callq	fe25519_mul
.Ltmp704:
	.loc	2 0 5 is_stmt 0                 # crypto_scalarmult/curve25519/ref10/x25519_ref10.c:0:5
	movq	464(%rsp), %rdi                 # 8-byte Reload
	.loc	2 137 5 is_stmt 1               # crypto_scalarmult/curve25519/ref10/x25519_ref10.c:137:5
	movq	%r14, %rsi
	callq	fe25519_tobytes@PLT
.Ltmp705:
	.loc	2 0 5 is_stmt 0                 # crypto_scalarmult/curve25519/ref10/x25519_ref10.c:0:5
	leaq	544(%rsp), %rdi
	.loc	2 139 5 is_stmt 1               # crypto_scalarmult/curve25519/ref10/x25519_ref10.c:139:5
	movl	$32, %esi
	callq	sodium_memzero@PLT
.Ltmp706:
	.loc	2 0 5 is_stmt 0                 # crypto_scalarmult/curve25519/ref10/x25519_ref10.c:0:5
	xorl	%eax, %eax
.Ltmp707:
.LBB0_4:
	#DEBUG_VALUE: crypto_scalarmult_curve25519_ref10:q <- [DW_OP_LLVM_entry_value 1] $rdi
	#DEBUG_VALUE: crypto_scalarmult_curve25519_ref10:n <- [DW_OP_LLVM_entry_value 1] $rsi
	#DEBUG_VALUE: crypto_scalarmult_curve25519_ref10:p <- [DW_OP_LLVM_entry_value 1] $rdx
	#DEBUG_VALUE: crypto_scalarmult_curve25519_ref10:t <- [DW_OP_plus_uconst 544, DW_OP_deref] $rsp
	#DEBUG_VALUE: crypto_scalarmult_curve25519_ref10:x2 <- [DW_OP_plus_uconst 208, DW_OP_deref] $rsp
	#DEBUG_VALUE: crypto_scalarmult_curve25519_ref10:z2 <- [DW_OP_plus_uconst 112, DW_OP_deref] $rsp
	.loc	2 142 1 is_stmt 1               # crypto_scalarmult/curve25519/ref10/x25519_ref10.c:142:1
	movq	%fs:40, %rcx
	cmpq	576(%rsp), %rcx
	jne	.LBB0_6
.Ltmp708:
# %bb.5:                                # %SP_return
	#DEBUG_VALUE: crypto_scalarmult_curve25519_ref10:q <- [DW_OP_LLVM_entry_value 1] $rdi
	#DEBUG_VALUE: crypto_scalarmult_curve25519_ref10:n <- [DW_OP_LLVM_entry_value 1] $rsi
	#DEBUG_VALUE: crypto_scalarmult_curve25519_ref10:p <- [DW_OP_LLVM_entry_value 1] $rdx
	#DEBUG_VALUE: crypto_scalarmult_curve25519_ref10:t <- [DW_OP_plus_uconst 544, DW_OP_deref] $rsp
	#DEBUG_VALUE: crypto_scalarmult_curve25519_ref10:x2 <- [DW_OP_plus_uconst 208, DW_OP_deref] $rsp
	#DEBUG_VALUE: crypto_scalarmult_curve25519_ref10:z2 <- [DW_OP_plus_uconst 112, DW_OP_deref] $rsp
	.loc	2 142 1 epilogue_begin is_stmt 0 # crypto_scalarmult/curve25519/ref10/x25519_ref10.c:142:1
	addq	$584, %rsp                      # imm = 0x248
	.cfi_def_cfa_offset 56
	popq	%rbx
	.cfi_def_cfa_offset 48
	popq	%r12
	.cfi_def_cfa_offset 40
	popq	%r13
	.cfi_def_cfa_offset 32
	popq	%r14
	.cfi_def_cfa_offset 24
	popq	%r15
	.cfi_def_cfa_offset 16
	popq	%rbp
	.cfi_def_cfa_offset 8
	retq
.Ltmp709:
.LBB0_6:                                # %CallStackCheckFailBlk
	.cfi_def_cfa_offset 640
	#DEBUG_VALUE: crypto_scalarmult_curve25519_ref10:q <- [DW_OP_LLVM_entry_value 1] $rdi
	#DEBUG_VALUE: crypto_scalarmult_curve25519_ref10:n <- [DW_OP_LLVM_entry_value 1] $rsi
	#DEBUG_VALUE: crypto_scalarmult_curve25519_ref10:p <- [DW_OP_LLVM_entry_value 1] $rdx
	#DEBUG_VALUE: crypto_scalarmult_curve25519_ref10:t <- [DW_OP_plus_uconst 544, DW_OP_deref] $rsp
	#DEBUG_VALUE: crypto_scalarmult_curve25519_ref10:x2 <- [DW_OP_plus_uconst 208, DW_OP_deref] $rsp
	#DEBUG_VALUE: crypto_scalarmult_curve25519_ref10:z2 <- [DW_OP_plus_uconst 112, DW_OP_deref] $rsp
	.loc	2 0 0                           # crypto_scalarmult/curve25519/ref10/x25519_ref10.c:0
	callq	__stack_chk_fail@PLT
.Ltmp710:
.Lfunc_end0:
	.size	crypto_scalarmult_curve25519_ref10, .Lfunc_end0-crypto_scalarmult_curve25519_ref10
	.cfi_endproc
	.file	9 "/home/leizhenyuu/opt/Anonymous_Repo" "llvm-project/build/lib/clang/21/include/__stddef_size_t.h"
	.file	10 "./include/sodium/private" "ed25519_ref10.h"
	.file	11 "./include/sodium" "utils.h"
                                        # -- End function
	.p2align	4                               # -- Begin function crypto_scalarmult_curve25519_ref10_base
	.type	crypto_scalarmult_curve25519_ref10_base,@function
crypto_scalarmult_curve25519_ref10_base: # @crypto_scalarmult_curve25519_ref10_base
.Lfunc_begin1:
	.loc	2 159 0 is_stmt 1               # crypto_scalarmult/curve25519/ref10/x25519_ref10.c:159:0
	.cfi_startproc
# %bb.0:
	#DEBUG_VALUE: crypto_scalarmult_curve25519_ref10_base:q <- $rdi
	#DEBUG_VALUE: crypto_scalarmult_curve25519_ref10_base:n <- $rsi
	pushq	%rbp
	.cfi_def_cfa_offset 16
	pushq	%r15
	.cfi_def_cfa_offset 24
	pushq	%r14
	.cfi_def_cfa_offset 32
	pushq	%r13
	.cfi_def_cfa_offset 40
	pushq	%r12
	.cfi_def_cfa_offset 48
	pushq	%rbx
	.cfi_def_cfa_offset 56
	subq	$312, %rsp                      # imm = 0x138
	.cfi_def_cfa_offset 368
	.cfi_offset %rbx, -56
	.cfi_offset %r12, -48
	.cfi_offset %r13, -40
	.cfi_offset %r14, -32
	.cfi_offset %r15, -24
	.cfi_offset %rbp, -16
	movq	%rdi, %rbx
.Ltmp711:
	#DEBUG_VALUE: crypto_scalarmult_curve25519_ref10_base:t <- $rbx
	#DEBUG_VALUE: crypto_scalarmult_curve25519_ref10_base:i <- 0
	.loc	2 166 16 prologue_end           # crypto_scalarmult/curve25519/ref10/x25519_ref10.c:166:16
	movzbl	(%rsi), %eax
	.loc	2 166 14 is_stmt 0              # crypto_scalarmult/curve25519/ref10/x25519_ref10.c:166:14
	movb	%al, (%rdi)
.Ltmp712:
	#DEBUG_VALUE: crypto_scalarmult_curve25519_ref10_base:i <- 1
	.loc	2 166 16                        # crypto_scalarmult/curve25519/ref10/x25519_ref10.c:166:16
	movzbl	1(%rsi), %eax
	.loc	2 166 14                        # crypto_scalarmult/curve25519/ref10/x25519_ref10.c:166:14
	movb	%al, 1(%rdi)
.Ltmp713:
	#DEBUG_VALUE: crypto_scalarmult_curve25519_ref10_base:i <- 2
	.loc	2 166 16                        # crypto_scalarmult/curve25519/ref10/x25519_ref10.c:166:16
	movzbl	2(%rsi), %eax
	.loc	2 166 14                        # crypto_scalarmult/curve25519/ref10/x25519_ref10.c:166:14
	movb	%al, 2(%rdi)
.Ltmp714:
	#DEBUG_VALUE: crypto_scalarmult_curve25519_ref10_base:i <- 3
	.loc	2 166 16                        # crypto_scalarmult/curve25519/ref10/x25519_ref10.c:166:16
	movzbl	3(%rsi), %eax
	.loc	2 166 14                        # crypto_scalarmult/curve25519/ref10/x25519_ref10.c:166:14
	movb	%al, 3(%rdi)
.Ltmp715:
	#DEBUG_VALUE: crypto_scalarmult_curve25519_ref10_base:i <- 4
	.loc	2 166 16                        # crypto_scalarmult/curve25519/ref10/x25519_ref10.c:166:16
	movzbl	4(%rsi), %eax
	.loc	2 166 14                        # crypto_scalarmult/curve25519/ref10/x25519_ref10.c:166:14
	movb	%al, 4(%rdi)
.Ltmp716:
	#DEBUG_VALUE: crypto_scalarmult_curve25519_ref10_base:i <- 5
	.loc	2 166 16                        # crypto_scalarmult/curve25519/ref10/x25519_ref10.c:166:16
	movzbl	5(%rsi), %eax
	.loc	2 166 14                        # crypto_scalarmult/curve25519/ref10/x25519_ref10.c:166:14
	movb	%al, 5(%rdi)
.Ltmp717:
	#DEBUG_VALUE: crypto_scalarmult_curve25519_ref10_base:i <- 6
	.loc	2 166 16                        # crypto_scalarmult/curve25519/ref10/x25519_ref10.c:166:16
	movzbl	6(%rsi), %eax
	.loc	2 166 14                        # crypto_scalarmult/curve25519/ref10/x25519_ref10.c:166:14
	movb	%al, 6(%rdi)
.Ltmp718:
	#DEBUG_VALUE: crypto_scalarmult_curve25519_ref10_base:i <- 7
	.loc	2 166 16                        # crypto_scalarmult/curve25519/ref10/x25519_ref10.c:166:16
	movzbl	7(%rsi), %eax
	.loc	2 166 14                        # crypto_scalarmult/curve25519/ref10/x25519_ref10.c:166:14
	movb	%al, 7(%rdi)
.Ltmp719:
	#DEBUG_VALUE: crypto_scalarmult_curve25519_ref10_base:i <- 8
	.loc	2 166 16                        # crypto_scalarmult/curve25519/ref10/x25519_ref10.c:166:16
	movzbl	8(%rsi), %eax
	.loc	2 166 14                        # crypto_scalarmult/curve25519/ref10/x25519_ref10.c:166:14
	movb	%al, 8(%rdi)
.Ltmp720:
	#DEBUG_VALUE: crypto_scalarmult_curve25519_ref10_base:i <- 9
	.loc	2 166 16                        # crypto_scalarmult/curve25519/ref10/x25519_ref10.c:166:16
	movzbl	9(%rsi), %eax
	.loc	2 166 14                        # crypto_scalarmult/curve25519/ref10/x25519_ref10.c:166:14
	movb	%al, 9(%rdi)
.Ltmp721:
	#DEBUG_VALUE: crypto_scalarmult_curve25519_ref10_base:i <- 10
	.loc	2 166 16                        # crypto_scalarmult/curve25519/ref10/x25519_ref10.c:166:16
	movzbl	10(%rsi), %eax
	.loc	2 166 14                        # crypto_scalarmult/curve25519/ref10/x25519_ref10.c:166:14
	movb	%al, 10(%rdi)
.Ltmp722:
	#DEBUG_VALUE: crypto_scalarmult_curve25519_ref10_base:i <- 11
	.loc	2 166 16                        # crypto_scalarmult/curve25519/ref10/x25519_ref10.c:166:16
	movzbl	11(%rsi), %eax
	.loc	2 166 14                        # crypto_scalarmult/curve25519/ref10/x25519_ref10.c:166:14
	movb	%al, 11(%rdi)
.Ltmp723:
	#DEBUG_VALUE: crypto_scalarmult_curve25519_ref10_base:i <- 12
	.loc	2 166 16                        # crypto_scalarmult/curve25519/ref10/x25519_ref10.c:166:16
	movzbl	12(%rsi), %eax
	.loc	2 166 14                        # crypto_scalarmult/curve25519/ref10/x25519_ref10.c:166:14
	movb	%al, 12(%rdi)
.Ltmp724:
	#DEBUG_VALUE: crypto_scalarmult_curve25519_ref10_base:i <- 13
	.loc	2 166 16                        # crypto_scalarmult/curve25519/ref10/x25519_ref10.c:166:16
	movzbl	13(%rsi), %eax
	.loc	2 166 14                        # crypto_scalarmult/curve25519/ref10/x25519_ref10.c:166:14
	movb	%al, 13(%rdi)
.Ltmp725:
	#DEBUG_VALUE: crypto_scalarmult_curve25519_ref10_base:i <- 14
	.loc	2 166 16                        # crypto_scalarmult/curve25519/ref10/x25519_ref10.c:166:16
	movzbl	14(%rsi), %eax
	.loc	2 166 14                        # crypto_scalarmult/curve25519/ref10/x25519_ref10.c:166:14
	movb	%al, 14(%rdi)
.Ltmp726:
	#DEBUG_VALUE: crypto_scalarmult_curve25519_ref10_base:i <- 15
	.loc	2 166 16                        # crypto_scalarmult/curve25519/ref10/x25519_ref10.c:166:16
	movzbl	15(%rsi), %eax
	.loc	2 166 14                        # crypto_scalarmult/curve25519/ref10/x25519_ref10.c:166:14
	movb	%al, 15(%rdi)
.Ltmp727:
	#DEBUG_VALUE: crypto_scalarmult_curve25519_ref10_base:i <- 16
	.loc	2 166 16                        # crypto_scalarmult/curve25519/ref10/x25519_ref10.c:166:16
	movzbl	16(%rsi), %eax
	.loc	2 166 14                        # crypto_scalarmult/curve25519/ref10/x25519_ref10.c:166:14
	movb	%al, 16(%rdi)
.Ltmp728:
	#DEBUG_VALUE: crypto_scalarmult_curve25519_ref10_base:i <- 17
	.loc	2 166 16                        # crypto_scalarmult/curve25519/ref10/x25519_ref10.c:166:16
	movzbl	17(%rsi), %eax
	.loc	2 166 14                        # crypto_scalarmult/curve25519/ref10/x25519_ref10.c:166:14
	movb	%al, 17(%rdi)
.Ltmp729:
	#DEBUG_VALUE: crypto_scalarmult_curve25519_ref10_base:i <- 18
	.loc	2 166 16                        # crypto_scalarmult/curve25519/ref10/x25519_ref10.c:166:16
	movzbl	18(%rsi), %eax
	.loc	2 166 14                        # crypto_scalarmult/curve25519/ref10/x25519_ref10.c:166:14
	movb	%al, 18(%rdi)
.Ltmp730:
	#DEBUG_VALUE: crypto_scalarmult_curve25519_ref10_base:i <- 19
	.loc	2 166 16                        # crypto_scalarmult/curve25519/ref10/x25519_ref10.c:166:16
	movzbl	19(%rsi), %eax
	.loc	2 166 14                        # crypto_scalarmult/curve25519/ref10/x25519_ref10.c:166:14
	movb	%al, 19(%rdi)
.Ltmp731:
	#DEBUG_VALUE: crypto_scalarmult_curve25519_ref10_base:i <- 20
	.loc	2 166 16                        # crypto_scalarmult/curve25519/ref10/x25519_ref10.c:166:16
	movzbl	20(%rsi), %eax
	.loc	2 166 14                        # crypto_scalarmult/curve25519/ref10/x25519_ref10.c:166:14
	movb	%al, 20(%rdi)
.Ltmp732:
	#DEBUG_VALUE: crypto_scalarmult_curve25519_ref10_base:i <- 21
	.loc	2 166 16                        # crypto_scalarmult/curve25519/ref10/x25519_ref10.c:166:16
	movzbl	21(%rsi), %eax
	.loc	2 166 14                        # crypto_scalarmult/curve25519/ref10/x25519_ref10.c:166:14
	movb	%al, 21(%rdi)
.Ltmp733:
	#DEBUG_VALUE: crypto_scalarmult_curve25519_ref10_base:i <- 22
	.loc	2 166 16                        # crypto_scalarmult/curve25519/ref10/x25519_ref10.c:166:16
	movzbl	22(%rsi), %eax
	.loc	2 166 14                        # crypto_scalarmult/curve25519/ref10/x25519_ref10.c:166:14
	movb	%al, 22(%rdi)
.Ltmp734:
	#DEBUG_VALUE: crypto_scalarmult_curve25519_ref10_base:i <- 23
	.loc	2 166 16                        # crypto_scalarmult/curve25519/ref10/x25519_ref10.c:166:16
	movzbl	23(%rsi), %eax
	.loc	2 166 14                        # crypto_scalarmult/curve25519/ref10/x25519_ref10.c:166:14
	movb	%al, 23(%rdi)
.Ltmp735:
	#DEBUG_VALUE: crypto_scalarmult_curve25519_ref10_base:i <- 24
	.loc	2 166 16                        # crypto_scalarmult/curve25519/ref10/x25519_ref10.c:166:16
	movzbl	24(%rsi), %eax
	.loc	2 166 14                        # crypto_scalarmult/curve25519/ref10/x25519_ref10.c:166:14
	movb	%al, 24(%rdi)
.Ltmp736:
	#DEBUG_VALUE: crypto_scalarmult_curve25519_ref10_base:i <- 25
	.loc	2 166 16                        # crypto_scalarmult/curve25519/ref10/x25519_ref10.c:166:16
	movzbl	25(%rsi), %eax
	.loc	2 166 14                        # crypto_scalarmult/curve25519/ref10/x25519_ref10.c:166:14
	movb	%al, 25(%rdi)
.Ltmp737:
	#DEBUG_VALUE: crypto_scalarmult_curve25519_ref10_base:i <- 26
	.loc	2 166 16                        # crypto_scalarmult/curve25519/ref10/x25519_ref10.c:166:16
	movzbl	26(%rsi), %eax
	.loc	2 166 14                        # crypto_scalarmult/curve25519/ref10/x25519_ref10.c:166:14
	movb	%al, 26(%rdi)
.Ltmp738:
	#DEBUG_VALUE: crypto_scalarmult_curve25519_ref10_base:i <- 27
	.loc	2 166 16                        # crypto_scalarmult/curve25519/ref10/x25519_ref10.c:166:16
	movzbl	27(%rsi), %eax
	.loc	2 166 14                        # crypto_scalarmult/curve25519/ref10/x25519_ref10.c:166:14
	movb	%al, 27(%rdi)
.Ltmp739:
	#DEBUG_VALUE: crypto_scalarmult_curve25519_ref10_base:i <- 28
	.loc	2 166 16                        # crypto_scalarmult/curve25519/ref10/x25519_ref10.c:166:16
	movzbl	28(%rsi), %eax
	.loc	2 166 14                        # crypto_scalarmult/curve25519/ref10/x25519_ref10.c:166:14
	movb	%al, 28(%rdi)
.Ltmp740:
	#DEBUG_VALUE: crypto_scalarmult_curve25519_ref10_base:i <- 29
	.loc	2 166 16                        # crypto_scalarmult/curve25519/ref10/x25519_ref10.c:166:16
	movzbl	29(%rsi), %eax
	.loc	2 166 14                        # crypto_scalarmult/curve25519/ref10/x25519_ref10.c:166:14
	movb	%al, 29(%rdi)
.Ltmp741:
	#DEBUG_VALUE: crypto_scalarmult_curve25519_ref10_base:i <- 30
	.loc	2 166 16                        # crypto_scalarmult/curve25519/ref10/x25519_ref10.c:166:16
	movzbl	30(%rsi), %eax
	.loc	2 166 14                        # crypto_scalarmult/curve25519/ref10/x25519_ref10.c:166:14
	movb	%al, 30(%rdi)
.Ltmp742:
	#DEBUG_VALUE: crypto_scalarmult_curve25519_ref10_base:i <- 31
	.loc	2 166 16                        # crypto_scalarmult/curve25519/ref10/x25519_ref10.c:166:16
	movzbl	31(%rsi), %eax
.Ltmp743:
	#DEBUG_VALUE: crypto_scalarmult_curve25519_ref10_base:i <- 32
	.loc	2 168 10 is_stmt 1              # crypto_scalarmult/curve25519/ref10/x25519_ref10.c:168:10
	andb	$-8, (%rdi)
	.loc	2 169 11                        # crypto_scalarmult/curve25519/ref10/x25519_ref10.c:169:11
	andb	$63, %al
	.loc	2 170 11                        # crypto_scalarmult/curve25519/ref10/x25519_ref10.c:170:11
	orb	$64, %al
	movb	%al, 31(%rdi)
	leaq	112(%rsp), %rdi
.Ltmp744:
	#DEBUG_VALUE: crypto_scalarmult_curve25519_ref10_base:q <- $rbx
	.loc	2 171 5                         # crypto_scalarmult/curve25519/ref10/x25519_ref10.c:171:5
	movq	%rbx, %rsi
.Ltmp745:
	#DEBUG_VALUE: crypto_scalarmult_curve25519_ref10_base:n <- [DW_OP_LLVM_entry_value 1] $rsi
	callq	ge25519_scalarmult_base@PLT
.Ltmp746:
	#DEBUG_VALUE: edwards_to_montgomery:tempZ <- [DW_OP_plus_uconst 16, DW_OP_deref] $rsp
	#DEBUG_VALUE: edwards_to_montgomery:montgomeryX <- [DW_OP_plus_uconst 272, DW_OP_stack_value] $rsp
	#DEBUG_VALUE: edwards_to_montgomery:edwardsY <- [DW_OP_plus_uconst 112, DW_OP_plus_uconst 40, DW_OP_stack_value] $rsp
	#DEBUG_VALUE: edwards_to_montgomery:edwardsZ <- [DW_OP_plus_uconst 112, DW_OP_plus_uconst 80, DW_OP_stack_value] $rsp
	#DEBUG_VALUE: fe25519_add:h <- [DW_OP_plus_uconst 64, DW_OP_stack_value] $rsp
	#DEBUG_VALUE: fe25519_add:g <- [DW_OP_plus_uconst 112, DW_OP_plus_uconst 40, DW_OP_stack_value] $rsp
	#DEBUG_VALUE: fe25519_add:f <- [DW_OP_plus_uconst 112, DW_OP_plus_uconst 80, DW_OP_stack_value] $rsp
	.loc	7 35 19                         # ./include/sodium/private/ed25519_ref10_fe_51.h:35:19 @[ crypto_scalarmult/curve25519/ref10/x25519_ref10.c:150:5 @[ crypto_scalarmult/curve25519/ref10/x25519_ref10.c:172:5 ] ]
	movq	192(%rsp), %rdi
	.loc	7 35 26 is_stmt 0               # ./include/sodium/private/ed25519_ref10_fe_51.h:35:26 @[ crypto_scalarmult/curve25519/ref10/x25519_ref10.c:150:5 @[ crypto_scalarmult/curve25519/ref10/x25519_ref10.c:172:5 ] ]
	movq	152(%rsp), %r8
	.loc	7 36 26 is_stmt 1               # ./include/sodium/private/ed25519_ref10_fe_51.h:36:26 @[ crypto_scalarmult/curve25519/ref10/x25519_ref10.c:150:5 @[ crypto_scalarmult/curve25519/ref10/x25519_ref10.c:172:5 ] ]
	movq	160(%rsp), %r10
	.loc	7 35 24                         # ./include/sodium/private/ed25519_ref10_fe_51.h:35:24 @[ crypto_scalarmult/curve25519/ref10/x25519_ref10.c:150:5 @[ crypto_scalarmult/curve25519/ref10/x25519_ref10.c:172:5 ] ]
	leaq	(%r8,%rdi), %rax
.Ltmp747:
	#DEBUG_VALUE: fe25519_add:h0 <- $rax
	.loc	7 0 24 is_stmt 0                # ./include/sodium/private/ed25519_ref10_fe_51.h:0:24
	movq	%rax, 8(%rsp)                   # 8-byte Spill
.Ltmp748:
	#DEBUG_VALUE: fe25519_add:h0 <- [DW_OP_plus_uconst 8, DW_OP_deref] $rsp
	.loc	7 36 19 is_stmt 1               # ./include/sodium/private/ed25519_ref10_fe_51.h:36:19 @[ crypto_scalarmult/curve25519/ref10/x25519_ref10.c:150:5 @[ crypto_scalarmult/curve25519/ref10/x25519_ref10.c:172:5 ] ]
	movq	200(%rsp), %rax
	.loc	7 36 24 is_stmt 0               # ./include/sodium/private/ed25519_ref10_fe_51.h:36:24 @[ crypto_scalarmult/curve25519/ref10/x25519_ref10.c:150:5 @[ crypto_scalarmult/curve25519/ref10/x25519_ref10.c:172:5 ] ]
	leaq	(%r10,%rax), %rcx
.Ltmp749:
	#DEBUG_VALUE: fe25519_add:h1 <- $rcx
	.loc	7 0 24                          # ./include/sodium/private/ed25519_ref10_fe_51.h:0:24
	movq	%rcx, (%rsp)                    # 8-byte Spill
.Ltmp750:
	#DEBUG_VALUE: fe25519_add:h1 <- [DW_OP_deref] $rsp
	.loc	7 37 19 is_stmt 1               # ./include/sodium/private/ed25519_ref10_fe_51.h:37:19 @[ crypto_scalarmult/curve25519/ref10/x25519_ref10.c:150:5 @[ crypto_scalarmult/curve25519/ref10/x25519_ref10.c:172:5 ] ]
	movq	208(%rsp), %rcx
	.loc	7 37 26 is_stmt 0               # ./include/sodium/private/ed25519_ref10_fe_51.h:37:26 @[ crypto_scalarmult/curve25519/ref10/x25519_ref10.c:150:5 @[ crypto_scalarmult/curve25519/ref10/x25519_ref10.c:172:5 ] ]
	movq	168(%rsp), %r14
	.loc	7 37 24                         # ./include/sodium/private/ed25519_ref10_fe_51.h:37:24 @[ crypto_scalarmult/curve25519/ref10/x25519_ref10.c:150:5 @[ crypto_scalarmult/curve25519/ref10/x25519_ref10.c:172:5 ] ]
	leaq	(%r14,%rcx), %r15
.Ltmp751:
	#DEBUG_VALUE: fe25519_add:h2 <- $r15
	.loc	7 38 19 is_stmt 1               # ./include/sodium/private/ed25519_ref10_fe_51.h:38:19 @[ crypto_scalarmult/curve25519/ref10/x25519_ref10.c:150:5 @[ crypto_scalarmult/curve25519/ref10/x25519_ref10.c:172:5 ] ]
	movq	216(%rsp), %rdx
	.loc	7 38 26 is_stmt 0               # ./include/sodium/private/ed25519_ref10_fe_51.h:38:26 @[ crypto_scalarmult/curve25519/ref10/x25519_ref10.c:150:5 @[ crypto_scalarmult/curve25519/ref10/x25519_ref10.c:172:5 ] ]
	movq	176(%rsp), %r12
	.loc	7 38 24                         # ./include/sodium/private/ed25519_ref10_fe_51.h:38:24 @[ crypto_scalarmult/curve25519/ref10/x25519_ref10.c:150:5 @[ crypto_scalarmult/curve25519/ref10/x25519_ref10.c:172:5 ] ]
	leaq	(%r12,%rdx), %r13
.Ltmp752:
	#DEBUG_VALUE: fe25519_add:h3 <- $r13
	.loc	7 39 19 is_stmt 1               # ./include/sodium/private/ed25519_ref10_fe_51.h:39:19 @[ crypto_scalarmult/curve25519/ref10/x25519_ref10.c:150:5 @[ crypto_scalarmult/curve25519/ref10/x25519_ref10.c:172:5 ] ]
	movq	224(%rsp), %rsi
	.loc	7 39 26 is_stmt 0               # ./include/sodium/private/ed25519_ref10_fe_51.h:39:26 @[ crypto_scalarmult/curve25519/ref10/x25519_ref10.c:150:5 @[ crypto_scalarmult/curve25519/ref10/x25519_ref10.c:172:5 ] ]
	movq	184(%rsp), %rbp
	.loc	7 39 24                         # ./include/sodium/private/ed25519_ref10_fe_51.h:39:24 @[ crypto_scalarmult/curve25519/ref10/x25519_ref10.c:150:5 @[ crypto_scalarmult/curve25519/ref10/x25519_ref10.c:172:5 ] ]
	leaq	(%rbp,%rsi), %r9
.Ltmp753:
	#DEBUG_VALUE: fe25519_add:h4 <- $r9
	.loc	7 0 24                          # ./include/sodium/private/ed25519_ref10_fe_51.h:0:24
	movq	8(%rsp), %r11                   # 8-byte Reload
	.loc	7 41 10 is_stmt 1               # ./include/sodium/private/ed25519_ref10_fe_51.h:41:10 @[ crypto_scalarmult/curve25519/ref10/x25519_ref10.c:150:5 @[ crypto_scalarmult/curve25519/ref10/x25519_ref10.c:172:5 ] ]
	movq	%r11, 64(%rsp)
	movq	(%rsp), %r11                    # 8-byte Reload
	.loc	7 42 10                         # ./include/sodium/private/ed25519_ref10_fe_51.h:42:10 @[ crypto_scalarmult/curve25519/ref10/x25519_ref10.c:150:5 @[ crypto_scalarmult/curve25519/ref10/x25519_ref10.c:172:5 ] ]
	movq	%r11, 72(%rsp)
	.loc	7 43 10                         # ./include/sodium/private/ed25519_ref10_fe_51.h:43:10 @[ crypto_scalarmult/curve25519/ref10/x25519_ref10.c:150:5 @[ crypto_scalarmult/curve25519/ref10/x25519_ref10.c:172:5 ] ]
	movq	%r15, 80(%rsp)
