
bin/spectre-v4.riscv：     文件格式 elf64-littleriscv


Disassembly of section .text:

00000000000100b0 <register_fini>:
   100b0:	ffff0797          	auipc	a5,0xffff0
   100b4:	f5078793          	addi	a5,a5,-176 # 0 <register_fini-0x100b0>
   100b8:	c799                	beqz	a5,100c6 <register_fini+0x16>
   100ba:	00003517          	auipc	a0,0x3
   100be:	aec50513          	addi	a0,a0,-1300 # 12ba6 <__libc_fini_array>
   100c2:	3250906f          	j	19be6 <atexit>
   100c6:	8082                	ret

00000000000100c8 <_start>:
   100c8:	00010197          	auipc	gp,0x10
   100cc:	c6018193          	addi	gp,gp,-928 # 1fd28 <__global_pointer$>
   100d0:	87818513          	addi	a0,gp,-1928 # 1f5a0 <_edata>
   100d4:	00028617          	auipc	a2,0x28
   100d8:	5e460613          	addi	a2,a2,1508 # 386b8 <__BSS_END__>
   100dc:	8e09                	sub	a2,a2,a0
   100de:	4581                	li	a1,0
   100e0:	5ea000ef          	jal	ra,106ca <memset>
   100e4:	0000a517          	auipc	a0,0xa
   100e8:	b0250513          	addi	a0,a0,-1278 # 19be6 <atexit>
   100ec:	c519                	beqz	a0,100fa <_start+0x32>
   100ee:	00003517          	auipc	a0,0x3
   100f2:	ab850513          	addi	a0,a0,-1352 # 12ba6 <__libc_fini_array>
   100f6:	2f1090ef          	jal	ra,19be6 <atexit>
   100fa:	566000ef          	jal	ra,10660 <__libc_init_array>
   100fe:	4502                	lw	a0,0(sp)
   10100:	002c                	addi	a1,sp,8
   10102:	4601                	li	a2,0
   10104:	2d4000ef          	jal	ra,103d8 <main>
   10108:	ab2d                	j	10642 <exit>

000000000001010a <__do_global_dtors_aux>:
   1010a:	8a818793          	addi	a5,gp,-1880 # 1f5d0 <completed.5527>
   1010e:	0007c703          	lbu	a4,0(a5)
   10112:	eb0d                	bnez	a4,10144 <__do_global_dtors_aux+0x3a>
   10114:	1141                	addi	sp,sp,-16
   10116:	e022                	sd	s0,0(sp)
   10118:	e406                	sd	ra,8(sp)
   1011a:	843e                	mv	s0,a5
   1011c:	ffff0797          	auipc	a5,0xffff0
   10120:	ee478793          	addi	a5,a5,-284 # 0 <register_fini-0x100b0>
   10124:	cb89                	beqz	a5,10136 <__do_global_dtors_aux+0x2c>
   10126:	0000e517          	auipc	a0,0xe
   1012a:	24250513          	addi	a0,a0,578 # 1e368 <__FRAME_END__>
   1012e:	00000097          	auipc	ra,0x0
   10132:	000000e7          	jalr	zero # 0 <register_fini-0x100b0>
   10136:	4785                	li	a5,1
   10138:	60a2                	ld	ra,8(sp)
   1013a:	00f40023          	sb	a5,0(s0)
   1013e:	6402                	ld	s0,0(sp)
   10140:	0141                	addi	sp,sp,16
   10142:	8082                	ret
   10144:	8082                	ret

0000000000010146 <frame_dummy>:
   10146:	ffff0797          	auipc	a5,0xffff0
   1014a:	eba78793          	addi	a5,a5,-326 # 0 <register_fini-0x100b0>
   1014e:	cb99                	beqz	a5,10164 <frame_dummy+0x1e>
   10150:	8b018593          	addi	a1,gp,-1872 # 1f5d8 <object.5532>
   10154:	0000e517          	auipc	a0,0xe
   10158:	21450513          	addi	a0,a0,532 # 1e368 <__FRAME_END__>
   1015c:	00000317          	auipc	t1,0x0
   10160:	00000067          	jr	zero # 0 <register_fini-0x100b0>
   10164:	8082                	ret

0000000000010166 <flushCache>:
   10166:	711d                	addi	sp,sp,-96
   10168:	eca2                	sd	s0,88(sp)
   1016a:	1080                	addi	s0,sp,96
   1016c:	faa43423          	sd	a0,-88(s0)
   10170:	fab43023          	sd	a1,-96(s0)
   10174:	fa043783          	ld	a5,-96(s0)
   10178:	8399                	srli	a5,a5,0x6
   1017a:	fef43423          	sd	a5,-24(s0)
   1017e:	fa043783          	ld	a5,-96(s0)
   10182:	03f7f793          	andi	a5,a5,63
   10186:	c791                	beqz	a5,10192 <flushCache+0x2c>
   10188:	fe843783          	ld	a5,-24(s0)
   1018c:	0785                	addi	a5,a5,1
   1018e:	fef43423          	sd	a5,-24(s0)
   10192:	fe843703          	ld	a4,-24(s0)
   10196:	04000793          	li	a5,64
   1019a:	00e7f663          	bgeu	a5,a4,101a6 <flushCache+0x40>
   1019e:	04000793          	li	a5,64
   101a2:	fef43423          	sd	a5,-24(s0)
   101a6:	fc040ba3          	sb	zero,-41(s0)
   101aa:	000207b7          	lui	a5,0x20
   101ae:	e3078713          	addi	a4,a5,-464 # 1fe30 <dummyMem>
   101b2:	6791                	lui	a5,0x4
   101b4:	973e                	add	a4,a4,a5
   101b6:	77fd                	lui	a5,0xfffff
   101b8:	8ff9                	and	a5,a5,a4
   101ba:	fcf43423          	sd	a5,-56(s0)
   101be:	fe043023          	sd	zero,-32(s0)
   101c2:	a8b9                	j	10220 <flushCache+0xba>
   101c4:	fa843783          	ld	a5,-88(s0)
   101c8:	8399                	srli	a5,a5,0x6
   101ca:	03f7f713          	andi	a4,a5,63
   101ce:	fe043783          	ld	a5,-32(s0)
   101d2:	97ba                	add	a5,a5,a4
   101d4:	079a                	slli	a5,a5,0x6
   101d6:	fcf43023          	sd	a5,-64(s0)
   101da:	fc043c23          	sd	zero,-40(s0)
   101de:	a03d                	j	1020c <flushCache+0xa6>
   101e0:	fd843783          	ld	a5,-40(s0)
   101e4:	07b2                	slli	a5,a5,0xc
   101e6:	faf43c23          	sd	a5,-72(s0)
   101ea:	fc843703          	ld	a4,-56(s0)
   101ee:	fc043783          	ld	a5,-64(s0)
   101f2:	973e                	add	a4,a4,a5
   101f4:	fb843783          	ld	a5,-72(s0)
   101f8:	97ba                	add	a5,a5,a4
   101fa:	0007c783          	lbu	a5,0(a5) # fffffffffffff000 <__BSS_END__+0xfffffffffffc6948>
   101fe:	fcf40ba3          	sb	a5,-41(s0)
   10202:	fd843783          	ld	a5,-40(s0)
   10206:	0785                	addi	a5,a5,1
   10208:	fcf43c23          	sd	a5,-40(s0)
   1020c:	fd843703          	ld	a4,-40(s0)
   10210:	47bd                	li	a5,15
   10212:	fce7f7e3          	bgeu	a5,a4,101e0 <flushCache+0x7a>
   10216:	fe043783          	ld	a5,-32(s0)
   1021a:	0785                	addi	a5,a5,1
   1021c:	fef43023          	sd	a5,-32(s0)
   10220:	fe043703          	ld	a4,-32(s0)
   10224:	fe843783          	ld	a5,-24(s0)
   10228:	f8f76ee3          	bltu	a4,a5,101c4 <flushCache+0x5e>
   1022c:	0001                	nop
   1022e:	0001                	nop
   10230:	6466                	ld	s0,88(sp)
   10232:	6125                	addi	sp,sp,96
   10234:	8082                	ret

0000000000010236 <topTwoIdx>:
   10236:	7139                	addi	sp,sp,-64
   10238:	fc22                	sd	s0,56(sp)
   1023a:	0080                	addi	s0,sp,64
   1023c:	fca43c23          	sd	a0,-40(s0)
   10240:	fcb43823          	sd	a1,-48(s0)
   10244:	fcc43423          	sd	a2,-56(s0)
   10248:	fcd43023          	sd	a3,-64(s0)
   1024c:	fc043783          	ld	a5,-64(s0)
   10250:	0007b023          	sd	zero,0(a5)
   10254:	fc043783          	ld	a5,-64(s0)
   10258:	07a1                	addi	a5,a5,8
   1025a:	0007b023          	sd	zero,0(a5)
   1025e:	fe043423          	sd	zero,-24(s0)
   10262:	a075                	j	1030e <topTwoIdx+0xd8>
   10264:	fe843783          	ld	a5,-24(s0)
   10268:	078e                	slli	a5,a5,0x3
   1026a:	fd843703          	ld	a4,-40(s0)
   1026e:	97ba                	add	a5,a5,a4
   10270:	6398                	ld	a4,0(a5)
   10272:	fc043783          	ld	a5,-64(s0)
   10276:	639c                	ld	a5,0(a5)
   10278:	04e7f563          	bgeu	a5,a4,102c2 <topTwoIdx+0x8c>
   1027c:	fc043783          	ld	a5,-64(s0)
   10280:	07a1                	addi	a5,a5,8
   10282:	fc043703          	ld	a4,-64(s0)
   10286:	6318                	ld	a4,0(a4)
   10288:	e398                	sd	a4,0(a5)
   1028a:	fe843783          	ld	a5,-24(s0)
   1028e:	078e                	slli	a5,a5,0x3
   10290:	fd843703          	ld	a4,-40(s0)
   10294:	97ba                	add	a5,a5,a4
   10296:	6398                	ld	a4,0(a5)
   10298:	fc043783          	ld	a5,-64(s0)
   1029c:	e398                	sd	a4,0(a5)
   1029e:	fc843783          	ld	a5,-56(s0)
   102a2:	0785                	addi	a5,a5,1
   102a4:	fc843703          	ld	a4,-56(s0)
   102a8:	00074703          	lbu	a4,0(a4)
   102ac:	00e78023          	sb	a4,0(a5)
   102b0:	fe843783          	ld	a5,-24(s0)
   102b4:	0ff7f713          	andi	a4,a5,255
   102b8:	fc843783          	ld	a5,-56(s0)
   102bc:	00e78023          	sb	a4,0(a5)
   102c0:	a091                	j	10304 <topTwoIdx+0xce>
   102c2:	fe843783          	ld	a5,-24(s0)
   102c6:	078e                	slli	a5,a5,0x3
   102c8:	fd843703          	ld	a4,-40(s0)
   102cc:	97ba                	add	a5,a5,a4
   102ce:	6398                	ld	a4,0(a5)
   102d0:	fc043783          	ld	a5,-64(s0)
   102d4:	07a1                	addi	a5,a5,8
   102d6:	639c                	ld	a5,0(a5)
   102d8:	02e7f663          	bgeu	a5,a4,10304 <topTwoIdx+0xce>
   102dc:	fe843783          	ld	a5,-24(s0)
   102e0:	078e                	slli	a5,a5,0x3
   102e2:	fd843703          	ld	a4,-40(s0)
   102e6:	973e                	add	a4,a4,a5
   102e8:	fc043783          	ld	a5,-64(s0)
   102ec:	07a1                	addi	a5,a5,8
   102ee:	6318                	ld	a4,0(a4)
   102f0:	e398                	sd	a4,0(a5)
   102f2:	fc843783          	ld	a5,-56(s0)
   102f6:	0785                	addi	a5,a5,1
   102f8:	fe843703          	ld	a4,-24(s0)
   102fc:	0ff77713          	andi	a4,a4,255
   10300:	00e78023          	sb	a4,0(a5)
   10304:	fe843783          	ld	a5,-24(s0)
   10308:	0785                	addi	a5,a5,1
   1030a:	fef43423          	sd	a5,-24(s0)
   1030e:	fe843703          	ld	a4,-24(s0)
   10312:	fd043783          	ld	a5,-48(s0)
   10316:	f4f767e3          	bltu	a4,a5,10264 <topTwoIdx+0x2e>
   1031a:	0001                	nop
   1031c:	0001                	nop
   1031e:	7462                	ld	s0,56(sp)
   10320:	6121                	addi	sp,sp,64
   10322:	8082                	ret

0000000000010324 <victim_function>:
   10324:	7179                	addi	sp,sp,-48
   10326:	f422                	sd	s0,40(sp)
   10328:	1800                	addi	s0,sp,48
   1032a:	fca43c23          	sd	a0,-40(s0)
   1032e:	000387b7          	lui	a5,0x38
   10332:	e7078793          	addi	a5,a5,-400 # 37e70 <str>
   10336:	fd843703          	ld	a4,-40(s0)
   1033a:	e798                	sd	a4,8(a5)
   1033c:	8501b783          	ld	a5,-1968(gp) # 1f578 <str_index>
   10340:	00479713          	slli	a4,a5,0x4
   10344:	84e1b823          	sd	a4,-1968(gp) # 1f578 <str_index>
   10348:	8501b783          	ld	a5,-1968(gp) # 1f578 <str_index>
   1034c:	8591c703          	lbu	a4,-1959(gp) # 1f581 <t>
   10350:	d0377753          	fcvt.s.lu	fa4,a4
   10354:	d037f7d3          	fcvt.s.lu	fa5,a5
   10358:	18e7f7d3          	fdiv.s	fa5,fa5,fa4
   1035c:	18e7f7d3          	fdiv.s	fa5,fa5,fa4
   10360:	18e7f7d3          	fdiv.s	fa5,fa5,fa4
   10364:	18e7f7d3          	fdiv.s	fa5,fa5,fa4
   10368:	c0379753          	fcvt.lu.s	a4,fa5,rtz
   1036c:	84e1b823          	sd	a4,-1968(gp) # 1f578 <str_index>
   10370:	8501b783          	ld	a5,-1968(gp) # 1f578 <str_index>
   10374:	00038737          	lui	a4,0x38
   10378:	e7070713          	addi	a4,a4,-400 # 37e70 <str>
   1037c:	078e                	slli	a5,a5,0x3
   1037e:	97ba                	add	a5,a5,a4
   10380:	0007b023          	sd	zero,0(a5)
   10384:	000387b7          	lui	a5,0x38
   10388:	e7078793          	addi	a5,a5,-400 # 37e70 <str>
   1038c:	679c                	ld	a5,8(a5)
   1038e:	6779                	lui	a4,0x1e
   10390:	38870713          	addi	a4,a4,904 # 1e388 <__fini_array_end>
   10394:	97ba                	add	a5,a5,a4
   10396:	0007c783          	lbu	a5,0(a5)
   1039a:	2781                	sext.w	a5,a5
   1039c:	0067979b          	slliw	a5,a5,0x6
   103a0:	2781                	sext.w	a5,a5
   103a2:	00034737          	lui	a4,0x34
   103a6:	e7070713          	addi	a4,a4,-400 # 33e70 <array2>
   103aa:	97ba                	add	a5,a5,a4
   103ac:	0007c783          	lbu	a5,0(a5)
   103b0:	873e                	mv	a4,a5
   103b2:	8781b783          	ld	a5,-1928(gp) # 1f5a0 <_edata>
   103b6:	8f7d                	and	a4,a4,a5
   103b8:	86e1bc23          	sd	a4,-1928(gp) # 1f5a0 <_edata>
   103bc:	c00027f3          	rdcycle	a5
   103c0:	fef43423          	sd	a5,-24(s0)
   103c4:	fe843783          	ld	a5,-24(s0)
   103c8:	0ff7f713          	andi	a4,a5,255
   103cc:	84e18c23          	sb	a4,-1960(gp) # 1f580 <dummy>
   103d0:	0001                	nop
   103d2:	7422                	ld	s0,40(sp)
   103d4:	6145                	addi	sp,sp,48
   103d6:	8082                	ret

00000000000103d8 <main>:
   103d8:	7175                	addi	sp,sp,-144
   103da:	e506                	sd	ra,136(sp)
   103dc:	e122                	sd	s0,128(sp)
   103de:	0900                	addi	s0,sp,144
   103e0:	8481b703          	ld	a4,-1976(gp) # 1f570 <secretString>
   103e4:	67f9                	lui	a5,0x1e
   103e6:	38878793          	addi	a5,a5,904 # 1e388 <__fini_array_end>
   103ea:	40f707b3          	sub	a5,a4,a5
   103ee:	fef43423          	sd	a5,-24(s0)
   103f2:	67f1                	lui	a5,0x1c
   103f4:	53078513          	addi	a0,a5,1328 # 1c530 <__clzdi2+0x46>
   103f8:	44a000ef          	jal	ra,10842 <puts>
   103fc:	8481b783          	ld	a5,-1976(gp) # 1f570 <secretString>
   10400:	85be                	mv	a1,a5
   10402:	67f1                	lui	a5,0x1c
   10404:	58878513          	addi	a0,a5,1416 # 1c588 <__clzdi2+0x9e>
   10408:	38e000ef          	jal	ra,10796 <printf>
   1040c:	fe043023          	sd	zero,-32(s0)
   10410:	ac31                	j	1062c <main+0x254>
   10412:	fc043c23          	sd	zero,-40(s0)
   10416:	a005                	j	10436 <main+0x5e>
   10418:	0001f7b7          	lui	a5,0x1f
   1041c:	60878713          	addi	a4,a5,1544 # 1f608 <results.2599>
   10420:	fd843783          	ld	a5,-40(s0)
   10424:	078e                	slli	a5,a5,0x3
   10426:	97ba                	add	a5,a5,a4
   10428:	0007b023          	sd	zero,0(a5)
   1042c:	fd843783          	ld	a5,-40(s0)
   10430:	0785                	addi	a5,a5,1
   10432:	fcf43c23          	sd	a5,-40(s0)
   10436:	fd843703          	ld	a4,-40(s0)
   1043a:	0ff00793          	li	a5,255
   1043e:	fce7fde3          	bgeu	a5,a4,10418 <main+0x40>
   10442:	fc043823          	sd	zero,-48(s0)
   10446:	a8c9                	j	10518 <main+0x140>
   10448:	000347b7          	lui	a5,0x34
   1044c:	e7078793          	addi	a5,a5,-400 # 33e70 <array2>
   10450:	6591                	lui	a1,0x4
   10452:	853e                	mv	a0,a5
   10454:	d13ff0ef          	jal	ra,10166 <flushCache>
   10458:	fe843503          	ld	a0,-24(s0)
   1045c:	ec9ff0ef          	jal	ra,10324 <victim_function>
   10460:	fc043423          	sd	zero,-56(s0)
   10464:	a879                	j	10502 <main+0x12a>
   10466:	fc043023          	sd	zero,-64(s0)
   1046a:	c00027f3          	rdcycle	a5
   1046e:	faf43c23          	sd	a5,-72(s0)
   10472:	fb843783          	ld	a5,-72(s0)
   10476:	faf43823          	sd	a5,-80(s0)
   1047a:	fc843783          	ld	a5,-56(s0)
   1047e:	079a                	slli	a5,a5,0x6
   10480:	00034737          	lui	a4,0x34
   10484:	e7070713          	addi	a4,a4,-400 # 33e70 <array2>
   10488:	97ba                	add	a5,a5,a4
   1048a:	0007c703          	lbu	a4,0(a5)
   1048e:	8581c783          	lbu	a5,-1960(gp) # 1f580 <dummy>
   10492:	8ff9                	and	a5,a5,a4
   10494:	0ff7f713          	andi	a4,a5,255
   10498:	84e18c23          	sb	a4,-1960(gp) # 1f580 <dummy>
   1049c:	c00027f3          	rdcycle	a5
   104a0:	faf43423          	sd	a5,-88(s0)
   104a4:	fa843703          	ld	a4,-88(s0)
   104a8:	fb043783          	ld	a5,-80(s0)
   104ac:	40f707b3          	sub	a5,a4,a5
   104b0:	faf43023          	sd	a5,-96(s0)
   104b4:	fa043603          	ld	a2,-96(s0)
   104b8:	fc843583          	ld	a1,-56(s0)
   104bc:	67f1                	lui	a5,0x1c
   104be:	5a078513          	addi	a0,a5,1440 # 1c5a0 <__clzdi2+0xb6>
   104c2:	2d4000ef          	jal	ra,10796 <printf>
   104c6:	fa043703          	ld	a4,-96(s0)
   104ca:	47f5                	li	a5,29
   104cc:	02e7e663          	bltu	a5,a4,104f8 <main+0x120>
   104d0:	0001f7b7          	lui	a5,0x1f
   104d4:	60878713          	addi	a4,a5,1544 # 1f608 <results.2599>
   104d8:	fc843783          	ld	a5,-56(s0)
   104dc:	078e                	slli	a5,a5,0x3
   104de:	97ba                	add	a5,a5,a4
   104e0:	639c                	ld	a5,0(a5)
   104e2:	00178713          	addi	a4,a5,1
   104e6:	0001f7b7          	lui	a5,0x1f
   104ea:	60878693          	addi	a3,a5,1544 # 1f608 <results.2599>
   104ee:	fc843783          	ld	a5,-56(s0)
   104f2:	078e                	slli	a5,a5,0x3
   104f4:	97b6                	add	a5,a5,a3
   104f6:	e398                	sd	a4,0(a5)
   104f8:	fc843783          	ld	a5,-56(s0)
   104fc:	0785                	addi	a5,a5,1
   104fe:	fcf43423          	sd	a5,-56(s0)
   10502:	fc843703          	ld	a4,-56(s0)
   10506:	0ff00793          	li	a5,255
   1050a:	f4e7fee3          	bgeu	a5,a4,10466 <main+0x8e>
   1050e:	fd043783          	ld	a5,-48(s0)
   10512:	0785                	addi	a5,a5,1
   10514:	fcf43823          	sd	a5,-48(s0)
   10518:	fd043703          	ld	a4,-48(s0)
   1051c:	47a5                	li	a5,9
   1051e:	f2e7f5e3          	bgeu	a5,a4,10448 <main+0x70>
   10522:	f8840713          	addi	a4,s0,-120
   10526:	f9840793          	addi	a5,s0,-104
   1052a:	86ba                	mv	a3,a4
   1052c:	863e                	mv	a2,a5
   1052e:	10000593          	li	a1,256
   10532:	0001f7b7          	lui	a5,0x1f
   10536:	60878513          	addi	a0,a5,1544 # 1f608 <results.2599>
   1053a:	cfdff0ef          	jal	ra,10236 <topTwoIdx>
   1053e:	f9844683          	lbu	a3,-104(s0)
   10542:	8481b703          	ld	a4,-1976(gp) # 1f570 <secretString>
   10546:	fe043783          	ld	a5,-32(s0)
   1054a:	97ba                	add	a5,a5,a4
   1054c:	0007c783          	lbu	a5,0(a5)
   10550:	8736                	mv	a4,a3
   10552:	00f70e63          	beq	a4,a5,1056e <main+0x196>
   10556:	f9944683          	lbu	a3,-103(s0)
   1055a:	8481b703          	ld	a4,-1976(gp) # 1f570 <secretString>
   1055e:	fe043783          	ld	a5,-32(s0)
   10562:	97ba                	add	a5,a5,a4
   10564:	0007c783          	lbu	a5,0(a5)
   10568:	8736                	mv	a4,a3
   1056a:	04f71d63          	bne	a4,a5,105c4 <main+0x1ec>
   1056e:	fe843703          	ld	a4,-24(s0)
   10572:	67f9                	lui	a5,0x1e
   10574:	38878793          	addi	a5,a5,904 # 1e388 <__fini_array_end>
   10578:	00f705b3          	add	a1,a4,a5
   1057c:	8481b703          	ld	a4,-1976(gp) # 1f570 <secretString>
   10580:	fe043783          	ld	a5,-32(s0)
   10584:	97ba                	add	a5,a5,a4
   10586:	0007c783          	lbu	a5,0(a5)
   1058a:	0007861b          	sext.w	a2,a5
   1058e:	f8843683          	ld	a3,-120(s0)
   10592:	f9844783          	lbu	a5,-104(s0)
   10596:	0007871b          	sext.w	a4,a5
   1059a:	f9844783          	lbu	a5,-104(s0)
   1059e:	0007851b          	sext.w	a0,a5
   105a2:	f9043803          	ld	a6,-112(s0)
   105a6:	f9944783          	lbu	a5,-103(s0)
   105aa:	0007889b          	sext.w	a7,a5
   105ae:	f9944783          	lbu	a5,-103(s0)
   105b2:	2781                	sext.w	a5,a5
   105b4:	e03e                	sd	a5,0(sp)
   105b6:	87aa                	mv	a5,a0
   105b8:	6571                	lui	a0,0x1c
   105ba:	5a850513          	addi	a0,a0,1448 # 1c5a8 <__clzdi2+0xbe>
   105be:	1d8000ef          	jal	ra,10796 <printf>
   105c2:	a899                	j	10618 <main+0x240>
   105c4:	fe843703          	ld	a4,-24(s0)
   105c8:	67f9                	lui	a5,0x1e
   105ca:	38878793          	addi	a5,a5,904 # 1e388 <__fini_array_end>
   105ce:	00f705b3          	add	a1,a4,a5
   105d2:	8481b703          	ld	a4,-1976(gp) # 1f570 <secretString>
   105d6:	fe043783          	ld	a5,-32(s0)
   105da:	97ba                	add	a5,a5,a4
   105dc:	0007c783          	lbu	a5,0(a5)
   105e0:	0007861b          	sext.w	a2,a5
   105e4:	f8843683          	ld	a3,-120(s0)
   105e8:	f9844783          	lbu	a5,-104(s0)
   105ec:	0007871b          	sext.w	a4,a5
   105f0:	f9844783          	lbu	a5,-104(s0)
   105f4:	0007851b          	sext.w	a0,a5
   105f8:	f9043803          	ld	a6,-112(s0)
   105fc:	f9944783          	lbu	a5,-103(s0)
   10600:	0007889b          	sext.w	a7,a5
   10604:	f9944783          	lbu	a5,-103(s0)
   10608:	2781                	sext.w	a5,a5
   1060a:	e03e                	sd	a5,0(sp)
   1060c:	87aa                	mv	a5,a0
   1060e:	6571                	lui	a0,0x1c
   10610:	60850513          	addi	a0,a0,1544 # 1c608 <__clzdi2+0x11e>
   10614:	182000ef          	jal	ra,10796 <printf>
   10618:	fe843783          	ld	a5,-24(s0)
   1061c:	0785                	addi	a5,a5,1
   1061e:	fef43423          	sd	a5,-24(s0)
   10622:	fe043783          	ld	a5,-32(s0)
   10626:	0785                	addi	a5,a5,1
   10628:	fef43023          	sd	a5,-32(s0)
   1062c:	fe043703          	ld	a4,-32(s0)
   10630:	47c9                	li	a5,18
   10632:	dee7f0e3          	bgeu	a5,a4,10412 <main+0x3a>
   10636:	4781                	li	a5,0
   10638:	853e                	mv	a0,a5
   1063a:	60aa                	ld	ra,136(sp)
   1063c:	640a                	ld	s0,128(sp)
   1063e:	6149                	addi	sp,sp,144
   10640:	8082                	ret

0000000000010642 <exit>:
   10642:	1141                	addi	sp,sp,-16
   10644:	4581                	li	a1,0
   10646:	e022                	sd	s0,0(sp)
   10648:	e406                	sd	ra,8(sp)
   1064a:	842a                	mv	s0,a0
   1064c:	03c020ef          	jal	ra,12688 <__call_exitprocs>
   10650:	8301b503          	ld	a0,-2000(gp) # 1f558 <_global_impure_ptr>
   10654:	6d3c                	ld	a5,88(a0)
   10656:	c391                	beqz	a5,1065a <exit+0x18>
   10658:	9782                	jalr	a5
   1065a:	8522                	mv	a0,s0
   1065c:	0bf0a0ef          	jal	ra,1af1a <_exit>

0000000000010660 <__libc_init_array>:
   10660:	1101                	addi	sp,sp,-32
   10662:	e822                	sd	s0,16(sp)
   10664:	e04a                	sd	s2,0(sp)
   10666:	0000e417          	auipc	s0,0xe
   1066a:	d0640413          	addi	s0,s0,-762 # 1e36c <__preinit_array_end>
   1066e:	0000e917          	auipc	s2,0xe
   10672:	cfe90913          	addi	s2,s2,-770 # 1e36c <__preinit_array_end>
   10676:	40890933          	sub	s2,s2,s0
   1067a:	ec06                	sd	ra,24(sp)
   1067c:	e426                	sd	s1,8(sp)
   1067e:	40395913          	srai	s2,s2,0x3
   10682:	00090963          	beqz	s2,10694 <__libc_init_array+0x34>
   10686:	4481                	li	s1,0
   10688:	601c                	ld	a5,0(s0)
   1068a:	0485                	addi	s1,s1,1
   1068c:	0421                	addi	s0,s0,8
   1068e:	9782                	jalr	a5
   10690:	fe991ce3          	bne	s2,s1,10688 <__libc_init_array+0x28>
   10694:	0000e417          	auipc	s0,0xe
   10698:	cdc40413          	addi	s0,s0,-804 # 1e370 <__init_array_start>
   1069c:	0000e917          	auipc	s2,0xe
   106a0:	ce490913          	addi	s2,s2,-796 # 1e380 <__init_array_end>
   106a4:	40890933          	sub	s2,s2,s0
   106a8:	40395913          	srai	s2,s2,0x3
   106ac:	00090963          	beqz	s2,106be <__libc_init_array+0x5e>
   106b0:	4481                	li	s1,0
   106b2:	601c                	ld	a5,0(s0)
   106b4:	0485                	addi	s1,s1,1
   106b6:	0421                	addi	s0,s0,8
   106b8:	9782                	jalr	a5
   106ba:	fe991ce3          	bne	s2,s1,106b2 <__libc_init_array+0x52>
   106be:	60e2                	ld	ra,24(sp)
   106c0:	6442                	ld	s0,16(sp)
   106c2:	64a2                	ld	s1,8(sp)
   106c4:	6902                	ld	s2,0(sp)
   106c6:	6105                	addi	sp,sp,32
   106c8:	8082                	ret

00000000000106ca <memset>:
   106ca:	433d                	li	t1,15
   106cc:	872a                	mv	a4,a0
   106ce:	02c37163          	bgeu	t1,a2,106f0 <memset+0x26>
   106d2:	00f77793          	andi	a5,a4,15
   106d6:	e3c1                	bnez	a5,10756 <memset+0x8c>
   106d8:	e1bd                	bnez	a1,1073e <memset+0x74>
   106da:	ff067693          	andi	a3,a2,-16
   106de:	8a3d                	andi	a2,a2,15
   106e0:	96ba                	add	a3,a3,a4
   106e2:	e30c                	sd	a1,0(a4)
   106e4:	e70c                	sd	a1,8(a4)
   106e6:	0741                	addi	a4,a4,16
   106e8:	fed76de3          	bltu	a4,a3,106e2 <memset+0x18>
   106ec:	e211                	bnez	a2,106f0 <memset+0x26>
   106ee:	8082                	ret
   106f0:	40c306b3          	sub	a3,t1,a2
   106f4:	068a                	slli	a3,a3,0x2
   106f6:	00000297          	auipc	t0,0x0
   106fa:	9696                	add	a3,a3,t0
   106fc:	00a68067          	jr	10(a3)
   10700:	00b70723          	sb	a1,14(a4)
   10704:	00b706a3          	sb	a1,13(a4)
   10708:	00b70623          	sb	a1,12(a4)
   1070c:	00b705a3          	sb	a1,11(a4)
   10710:	00b70523          	sb	a1,10(a4)
   10714:	00b704a3          	sb	a1,9(a4)
   10718:	00b70423          	sb	a1,8(a4)
   1071c:	00b703a3          	sb	a1,7(a4)
   10720:	00b70323          	sb	a1,6(a4)
   10724:	00b702a3          	sb	a1,5(a4)
   10728:	00b70223          	sb	a1,4(a4)
   1072c:	00b701a3          	sb	a1,3(a4)
   10730:	00b70123          	sb	a1,2(a4)
   10734:	00b700a3          	sb	a1,1(a4)
   10738:	00b70023          	sb	a1,0(a4)
   1073c:	8082                	ret
   1073e:	0ff5f593          	andi	a1,a1,255
   10742:	00859693          	slli	a3,a1,0x8
   10746:	8dd5                	or	a1,a1,a3
   10748:	01059693          	slli	a3,a1,0x10
   1074c:	8dd5                	or	a1,a1,a3
   1074e:	02059693          	slli	a3,a1,0x20
   10752:	8dd5                	or	a1,a1,a3
   10754:	b759                	j	106da <memset+0x10>
   10756:	00279693          	slli	a3,a5,0x2
   1075a:	00000297          	auipc	t0,0x0
   1075e:	9696                	add	a3,a3,t0
   10760:	8286                	mv	t0,ra
   10762:	fa2680e7          	jalr	-94(a3)
   10766:	8096                	mv	ra,t0
   10768:	17c1                	addi	a5,a5,-16
   1076a:	8f1d                	sub	a4,a4,a5
   1076c:	963e                	add	a2,a2,a5
   1076e:	f8c371e3          	bgeu	t1,a2,106f0 <memset+0x26>
   10772:	b79d                	j	106d8 <memset+0xe>

0000000000010774 <_printf_r>:
   10774:	715d                	addi	sp,sp,-80
   10776:	f032                	sd	a2,32(sp)
   10778:	f436                	sd	a3,40(sp)
   1077a:	f83a                	sd	a4,48(sp)
   1077c:	fc3e                	sd	a5,56(sp)
   1077e:	e0c2                	sd	a6,64(sp)
   10780:	e4c6                	sd	a7,72(sp)
   10782:	862e                	mv	a2,a1
   10784:	690c                	ld	a1,16(a0)
   10786:	1014                	addi	a3,sp,32
   10788:	ec06                	sd	ra,24(sp)
   1078a:	e436                	sd	a3,8(sp)
   1078c:	152000ef          	jal	ra,108de <_vfprintf_r>
   10790:	60e2                	ld	ra,24(sp)
   10792:	6161                	addi	sp,sp,80
   10794:	8082                	ret

0000000000010796 <printf>:
   10796:	711d                	addi	sp,sp,-96
   10798:	f832                	sd	a2,48(sp)
   1079a:	fc36                	sd	a3,56(sp)
   1079c:	8601b303          	ld	t1,-1952(gp) # 1f588 <_impure_ptr>
   107a0:	f42e                	sd	a1,40(sp)
   107a2:	e0ba                	sd	a4,64(sp)
   107a4:	e4be                	sd	a5,72(sp)
   107a6:	e8c2                	sd	a6,80(sp)
   107a8:	ecc6                	sd	a7,88(sp)
   107aa:	01033583          	ld	a1,16(t1) # 1016c <flushCache+0x6>
   107ae:	1034                	addi	a3,sp,40
   107b0:	862a                	mv	a2,a0
   107b2:	851a                	mv	a0,t1
   107b4:	ec06                	sd	ra,24(sp)
   107b6:	e436                	sd	a3,8(sp)
   107b8:	126000ef          	jal	ra,108de <_vfprintf_r>
   107bc:	60e2                	ld	ra,24(sp)
   107be:	6125                	addi	sp,sp,96
   107c0:	8082                	ret

00000000000107c2 <_puts_r>:
   107c2:	7159                	addi	sp,sp,-112
   107c4:	f0a2                	sd	s0,96(sp)
   107c6:	842a                	mv	s0,a0
   107c8:	852e                	mv	a0,a1
   107ca:	eca6                	sd	s1,88(sp)
   107cc:	f486                	sd	ra,104(sp)
   107ce:	84ae                	mv	s1,a1
   107d0:	07a000ef          	jal	ra,1084a <strlen>
   107d4:	00150713          	addi	a4,a0,1
   107d8:	0000c697          	auipc	a3,0xc
   107dc:	e9068693          	addi	a3,a3,-368 # 1c668 <__clzdi2+0x17e>
   107e0:	f43a                	sd	a4,40(sp)
   107e2:	483c                	lw	a5,80(s0)
   107e4:	1818                	addi	a4,sp,48
   107e6:	e0b6                	sd	a3,64(sp)
   107e8:	ec3a                	sd	a4,24(sp)
   107ea:	4685                	li	a3,1
   107ec:	4709                	li	a4,2
   107ee:	f826                	sd	s1,48(sp)
   107f0:	fc2a                	sd	a0,56(sp)
   107f2:	e4b6                	sd	a3,72(sp)
   107f4:	d03a                	sw	a4,32(sp)
   107f6:	680c                	ld	a1,16(s0)
   107f8:	cf8d                	beqz	a5,10832 <_puts_r+0x70>
   107fa:	01059783          	lh	a5,16(a1) # 4010 <register_fini-0xc0a0>
   107fe:	03279713          	slli	a4,a5,0x32
   10802:	00074d63          	bltz	a4,1081c <_puts_r+0x5a>
   10806:	0ac5a703          	lw	a4,172(a1)
   1080a:	6689                	lui	a3,0x2
   1080c:	8fd5                	or	a5,a5,a3
   1080e:	76f9                	lui	a3,0xffffe
   10810:	16fd                	addi	a3,a3,-1
   10812:	8f75                	and	a4,a4,a3
   10814:	00f59823          	sh	a5,16(a1)
   10818:	0ae5a623          	sw	a4,172(a1)
   1081c:	0830                	addi	a2,sp,24
   1081e:	8522                	mv	a0,s0
   10820:	6dc020ef          	jal	ra,12efc <__sfvwrite_r>
   10824:	ed09                	bnez	a0,1083e <_puts_r+0x7c>
   10826:	4529                	li	a0,10
   10828:	70a6                	ld	ra,104(sp)
   1082a:	7406                	ld	s0,96(sp)
   1082c:	64e6                	ld	s1,88(sp)
   1082e:	6165                	addi	sp,sp,112
   10830:	8082                	ret
   10832:	8522                	mv	a0,s0
   10834:	e42e                	sd	a1,8(sp)
   10836:	344020ef          	jal	ra,12b7a <__sinit>
   1083a:	65a2                	ld	a1,8(sp)
   1083c:	bf7d                	j	107fa <_puts_r+0x38>
   1083e:	557d                	li	a0,-1
   10840:	b7e5                	j	10828 <_puts_r+0x66>

0000000000010842 <puts>:
   10842:	85aa                	mv	a1,a0
   10844:	8601b503          	ld	a0,-1952(gp) # 1f588 <_impure_ptr>
   10848:	bfad                	j	107c2 <_puts_r>

000000000001084a <strlen>:
   1084a:	00757793          	andi	a5,a0,7
   1084e:	872a                	mv	a4,a0
   10850:	ebb9                	bnez	a5,108a6 <strlen+0x5c>
   10852:	0000f697          	auipc	a3,0xf
   10856:	cd66b683          	ld	a3,-810(a3) # 1f528 <__SDATA_BEGIN__>
   1085a:	55fd                	li	a1,-1
   1085c:	6310                	ld	a2,0(a4)
   1085e:	0721                	addi	a4,a4,8
   10860:	00d677b3          	and	a5,a2,a3
   10864:	97b6                	add	a5,a5,a3
   10866:	8fd1                	or	a5,a5,a2
   10868:	8fd5                	or	a5,a5,a3
   1086a:	feb789e3          	beq	a5,a1,1085c <strlen+0x12>
   1086e:	ff874683          	lbu	a3,-8(a4)
   10872:	40a707b3          	sub	a5,a4,a0
   10876:	c6a9                	beqz	a3,108c0 <strlen+0x76>
   10878:	ff974683          	lbu	a3,-7(a4)
   1087c:	ce9d                	beqz	a3,108ba <strlen+0x70>
   1087e:	ffa74683          	lbu	a3,-6(a4)
   10882:	c6a9                	beqz	a3,108cc <strlen+0x82>
   10884:	ffb74683          	lbu	a3,-5(a4)
   10888:	ce9d                	beqz	a3,108c6 <strlen+0x7c>
   1088a:	ffc74683          	lbu	a3,-4(a4)
   1088e:	ffd74603          	lbu	a2,-3(a4)
   10892:	ffe74503          	lbu	a0,-2(a4)
   10896:	ce95                	beqz	a3,108d2 <strlen+0x88>
   10898:	c221                	beqz	a2,108d8 <strlen+0x8e>
   1089a:	00a03533          	snez	a0,a0
   1089e:	953e                	add	a0,a0,a5
   108a0:	1579                	addi	a0,a0,-2
   108a2:	8082                	ret
   108a4:	d6dd                	beqz	a3,10852 <strlen+0x8>
   108a6:	00074783          	lbu	a5,0(a4)
   108aa:	0705                	addi	a4,a4,1
   108ac:	00777693          	andi	a3,a4,7
   108b0:	fbf5                	bnez	a5,108a4 <strlen+0x5a>
   108b2:	8f09                	sub	a4,a4,a0
   108b4:	fff70513          	addi	a0,a4,-1
   108b8:	8082                	ret
   108ba:	ff978513          	addi	a0,a5,-7
   108be:	8082                	ret
   108c0:	ff878513          	addi	a0,a5,-8
   108c4:	8082                	ret
   108c6:	ffb78513          	addi	a0,a5,-5
   108ca:	8082                	ret
   108cc:	ffa78513          	addi	a0,a5,-6
   108d0:	8082                	ret
   108d2:	ffc78513          	addi	a0,a5,-4
   108d6:	8082                	ret
   108d8:	ffd78513          	addi	a0,a5,-3
   108dc:	8082                	ret

00000000000108de <_vfprintf_r>:
   108de:	d8010113          	addi	sp,sp,-640
   108e2:	26113c23          	sd	ra,632(sp)
   108e6:	25413823          	sd	s4,592(sp)
   108ea:	25513423          	sd	s5,584(sp)
   108ee:	23913423          	sd	s9,552(sp)
   108f2:	8a2e                	mv	s4,a1
   108f4:	8cb2                	mv	s9,a2
   108f6:	e836                	sd	a3,16(sp)
   108f8:	26813823          	sd	s0,624(sp)
   108fc:	26913423          	sd	s1,616(sp)
   10900:	27213023          	sd	s2,608(sp)
   10904:	25313c23          	sd	s3,600(sp)
   10908:	25613023          	sd	s6,576(sp)
   1090c:	23713c23          	sd	s7,568(sp)
   10910:	23813823          	sd	s8,560(sp)
   10914:	23a13023          	sd	s10,544(sp)
   10918:	21b13c23          	sd	s11,536(sp)
   1091c:	8aaa                	mv	s5,a0
   1091e:	2c5040ef          	jal	ra,153e2 <_localeconv_r>
   10922:	611c                	ld	a5,0(a0)
   10924:	853e                	mv	a0,a5
   10926:	fcbe                	sd	a5,120(sp)
   10928:	f23ff0ef          	jal	ra,1084a <strlen>
   1092c:	f8aa                	sd	a0,112(sp)
   1092e:	e202                	sd	zero,256(sp)
   10930:	e602                	sd	zero,264(sp)
   10932:	000a8663          	beqz	s5,1093e <_vfprintf_r+0x60>
   10936:	050aa783          	lw	a5,80(s5)
   1093a:	70078063          	beqz	a5,1103a <_vfprintf_r+0x75c>
   1093e:	010a1703          	lh	a4,16(s4)
   10942:	03071793          	slli	a5,a4,0x30
   10946:	03271693          	slli	a3,a4,0x32
   1094a:	93c1                	srli	a5,a5,0x30
   1094c:	0006cf63          	bltz	a3,1096a <_vfprintf_r+0x8c>
   10950:	0aca2683          	lw	a3,172(s4)
   10954:	6789                	lui	a5,0x2
   10956:	8fd9                	or	a5,a5,a4
   10958:	7779                	lui	a4,0xffffe
   1095a:	177d                	addi	a4,a4,-1
   1095c:	8f75                	and	a4,a4,a3
   1095e:	00fa1823          	sh	a5,16(s4)
   10962:	17c2                	slli	a5,a5,0x30
   10964:	0aea2623          	sw	a4,172(s4)
   10968:	93c1                	srli	a5,a5,0x30
   1096a:	0087f713          	andi	a4,a5,8
   1096e:	26070463          	beqz	a4,10bd6 <_vfprintf_r+0x2f8>
   10972:	018a3703          	ld	a4,24(s4)
   10976:	26070063          	beqz	a4,10bd6 <_vfprintf_r+0x2f8>
   1097a:	8be9                	andi	a5,a5,26
   1097c:	4729                	li	a4,10
   1097e:	26e78963          	beq	a5,a4,10bf0 <_vfprintf_r+0x312>
   10982:	000cc783          	lbu	a5,0(s9)
   10986:	19010b93          	addi	s7,sp,400
   1098a:	ea5e                	sd	s7,272(sp)
   1098c:	f202                	sd	zero,288(sp)
   1098e:	10012c23          	sw	zero,280(sp)
   10992:	f002                	sd	zero,32(sp)
   10994:	f402                	sd	zero,40(sp)
   10996:	e102                	sd	zero,128(sp)
   10998:	f482                	sd	zero,104(sp)
   1099a:	e502                	sd	zero,136(sp)
   1099c:	e902                	sd	zero,144(sp)
   1099e:	e002                	sd	zero,0(sp)
   109a0:	835e                	mv	t1,s7
   109a2:	4d41                	li	s10,16
   109a4:	0000c917          	auipc	s2,0xc
   109a8:	eac90913          	addi	s2,s2,-340 # 1c850 <zeroes.4521>
   109ac:	1c078663          	beqz	a5,10b78 <_vfprintf_r+0x29a>
   109b0:	8466                	mv	s0,s9
   109b2:	02500713          	li	a4,37
   109b6:	30e78463          	beq	a5,a4,10cbe <_vfprintf_r+0x3e0>
   109ba:	00144783          	lbu	a5,1(s0)
   109be:	0405                	addi	s0,s0,1
   109c0:	fbfd                	bnez	a5,109b6 <_vfprintf_r+0xd8>
   109c2:	419404bb          	subw	s1,s0,s9
   109c6:	1a048963          	beqz	s1,10b78 <_vfprintf_r+0x29a>
   109ca:	7712                	ld	a4,288(sp)
   109cc:	11812783          	lw	a5,280(sp)
   109d0:	01933023          	sd	s9,0(t1)
   109d4:	9726                	add	a4,a4,s1
   109d6:	2785                	addiw	a5,a5,1
   109d8:	00933423          	sd	s1,8(t1)
   109dc:	f23a                	sd	a4,288(sp)
   109de:	10f12c23          	sw	a5,280(sp)
   109e2:	0007871b          	sext.w	a4,a5
   109e6:	479d                	li	a5,7
   109e8:	0341                	addi	t1,t1,16
   109ea:	2ee7c163          	blt	a5,a4,10ccc <_vfprintf_r+0x3ee>
   109ee:	6702                	ld	a4,0(sp)
   109f0:	00044783          	lbu	a5,0(s0)
   109f4:	9f25                	addw	a4,a4,s1
   109f6:	e03a                	sd	a4,0(sp)
   109f8:	18078063          	beqz	a5,10b78 <_vfprintf_r+0x29a>
   109fc:	00144f03          	lbu	t5,1(s0)
   10a00:	0c010fa3          	sb	zero,223(sp)
   10a04:	0405                	addi	s0,s0,1
   10a06:	5efd                	li	t4,-1
   10a08:	4b01                	li	s6,0
   10a0a:	4481                	li	s1,0
   10a0c:	49a5                	li	s3,9
   10a0e:	02a00c13          	li	s8,42
   10a12:	0405                	addi	s0,s0,1
   10a14:	000f0d9b          	sext.w	s11,t5
   10a18:	05a00693          	li	a3,90
   10a1c:	fe0d879b          	addiw	a5,s11,-32
   10a20:	0007871b          	sext.w	a4,a5
   10a24:	04e6e663          	bltu	a3,a4,10a70 <_vfprintf_r+0x192>
   10a28:	1782                	slli	a5,a5,0x20
   10a2a:	0000c717          	auipc	a4,0xc
   10a2e:	ca670713          	addi	a4,a4,-858 # 1c6d0 <__clzdi2+0x1e6>
   10a32:	83f9                	srli	a5,a5,0x1e
   10a34:	97ba                	add	a5,a5,a4
   10a36:	439c                	lw	a5,0(a5)
   10a38:	97ba                	add	a5,a5,a4
   10a3a:	8782                	jr	a5
   10a3c:	4b01                	li	s6,0
   10a3e:	00044703          	lbu	a4,0(s0)
   10a42:	002b179b          	slliw	a5,s6,0x2
   10a46:	01678b3b          	addw	s6,a5,s6
   10a4a:	fd0d8f1b          	addiw	t5,s11,-48
   10a4e:	001b1b1b          	slliw	s6,s6,0x1
   10a52:	fd07079b          	addiw	a5,a4,-48
   10a56:	0405                	addi	s0,s0,1
   10a58:	016f0b3b          	addw	s6,t5,s6
   10a5c:	00070d9b          	sext.w	s11,a4
   10a60:	fcf9ffe3          	bgeu	s3,a5,10a3e <_vfprintf_r+0x160>
   10a64:	fe0d879b          	addiw	a5,s11,-32
   10a68:	0007871b          	sext.w	a4,a5
   10a6c:	fae6fee3          	bgeu	a3,a4,10a28 <_vfprintf_r+0x14a>
   10a70:	100d8463          	beqz	s11,10b78 <_vfprintf_r+0x29a>
   10a74:	13b10423          	sb	s11,296(sp)
   10a78:	0c010fa3          	sb	zero,223(sp)
   10a7c:	4985                	li	s3,1
   10a7e:	4c05                	li	s8,1
   10a80:	12810c93          	addi	s9,sp,296
   10a84:	ec02                	sd	zero,24(sp)
   10a86:	4e81                	li	t4,0
   10a88:	e882                	sd	zero,80(sp)
   10a8a:	f082                	sd	zero,96(sp)
   10a8c:	ec82                	sd	zero,88(sp)
   10a8e:	0024f793          	andi	a5,s1,2
   10a92:	0007829b          	sext.w	t0,a5
   10a96:	c391                	beqz	a5,10a9a <_vfprintf_r+0x1bc>
   10a98:	2989                	addiw	s3,s3,2
   10a9a:	0844ff93          	andi	t6,s1,132
   10a9e:	7792                	ld	a5,288(sp)
   10aa0:	000f9663          	bnez	t6,10aac <_vfprintf_r+0x1ce>
   10aa4:	413b06bb          	subw	a3,s6,s3
   10aa8:	2cd046e3          	bgtz	a3,11574 <_vfprintf_r+0xc96>
   10aac:	0df14703          	lbu	a4,223(sp)
   10ab0:	c70d                	beqz	a4,10ada <_vfprintf_r+0x1fc>
   10ab2:	11812703          	lw	a4,280(sp)
   10ab6:	0df10693          	addi	a3,sp,223
   10aba:	00d33023          	sd	a3,0(t1)
   10abe:	2705                	addiw	a4,a4,1
   10ac0:	4685                	li	a3,1
   10ac2:	0785                	addi	a5,a5,1
   10ac4:	00d33423          	sd	a3,8(t1)
   10ac8:	10e12c23          	sw	a4,280(sp)
   10acc:	0007069b          	sext.w	a3,a4
   10ad0:	f23e                	sd	a5,288(sp)
   10ad2:	471d                	li	a4,7
   10ad4:	0341                	addi	t1,t1,16
   10ad6:	42d74863          	blt	a4,a3,10f06 <_vfprintf_r+0x628>
   10ada:	02028563          	beqz	t0,10b04 <_vfprintf_r+0x226>
   10ade:	11812703          	lw	a4,280(sp)
   10ae2:	1194                	addi	a3,sp,224
   10ae4:	00d33023          	sd	a3,0(t1)
   10ae8:	2705                	addiw	a4,a4,1
   10aea:	4689                	li	a3,2
   10aec:	0789                	addi	a5,a5,2
   10aee:	00d33423          	sd	a3,8(t1)
   10af2:	10e12c23          	sw	a4,280(sp)
   10af6:	0007069b          	sext.w	a3,a4
   10afa:	f23e                	sd	a5,288(sp)
   10afc:	471d                	li	a4,7
   10afe:	0341                	addi	t1,t1,16
   10b00:	30d74ce3          	blt	a4,a3,11618 <_vfprintf_r+0xd3a>
   10b04:	08000713          	li	a4,128
   10b08:	06ef81e3          	beq	t6,a4,1136a <_vfprintf_r+0xa8c>
   10b0c:	418e8ebb          	subw	t4,t4,s8
   10b10:	0fd043e3          	bgtz	t4,113f6 <_vfprintf_r+0xb18>
   10b14:	1004f713          	andi	a4,s1,256
   10b18:	78071663          	bnez	a4,112a4 <_vfprintf_r+0x9c6>
   10b1c:	11812703          	lw	a4,280(sp)
   10b20:	97e2                	add	a5,a5,s8
   10b22:	01933023          	sd	s9,0(t1)
   10b26:	0017069b          	addiw	a3,a4,1
   10b2a:	8736                	mv	a4,a3
   10b2c:	01833423          	sd	s8,8(t1)
   10b30:	10e12c23          	sw	a4,280(sp)
   10b34:	f23e                	sd	a5,288(sp)
   10b36:	471d                	li	a4,7
   10b38:	44d74963          	blt	a4,a3,10f8a <_vfprintf_r+0x6ac>
   10b3c:	0341                	addi	t1,t1,16
   10b3e:	8891                	andi	s1,s1,4
   10b40:	c489                	beqz	s1,10b4a <_vfprintf_r+0x26c>
   10b42:	413b04bb          	subw	s1,s6,s3
   10b46:	2e9048e3          	bgtz	s1,11636 <_vfprintf_r+0xd58>
   10b4a:	875a                	mv	a4,s6
   10b4c:	013b5363          	bge	s6,s3,10b52 <_vfprintf_r+0x274>
   10b50:	874e                	mv	a4,s3
   10b52:	6682                	ld	a3,0(sp)
   10b54:	9f35                	addw	a4,a4,a3
   10b56:	e03a                	sd	a4,0(sp)
   10b58:	10079ce3          	bnez	a5,11470 <_vfprintf_r+0xb92>
   10b5c:	67e2                	ld	a5,24(sp)
   10b5e:	10012c23          	sw	zero,280(sp)
   10b62:	c789                	beqz	a5,10b6c <_vfprintf_r+0x28e>
   10b64:	65e2                	ld	a1,24(sp)
   10b66:	8556                	mv	a0,s5
   10b68:	144020ef          	jal	ra,12cac <_free_r>
   10b6c:	835e                	mv	t1,s7
   10b6e:	8ca2                	mv	s9,s0
   10b70:	000cc783          	lbu	a5,0(s9)
   10b74:	e2079ee3          	bnez	a5,109b0 <_vfprintf_r+0xd2>
   10b78:	7792                	ld	a5,288(sp)
   10b7a:	c399                	beqz	a5,10b80 <_vfprintf_r+0x2a2>
   10b7c:	2de0106f          	j	11e5a <_vfprintf_r+0x157c>
   10b80:	010a5783          	lhu	a5,16(s4)
   10b84:	0407f793          	andi	a5,a5,64
   10b88:	c399                	beqz	a5,10b8e <_vfprintf_r+0x2b0>
   10b8a:	67c0106f          	j	12206 <_vfprintf_r+0x1928>
   10b8e:	27813083          	ld	ra,632(sp)
   10b92:	27013403          	ld	s0,624(sp)
   10b96:	6502                	ld	a0,0(sp)
   10b98:	26813483          	ld	s1,616(sp)
   10b9c:	26013903          	ld	s2,608(sp)
   10ba0:	25813983          	ld	s3,600(sp)
   10ba4:	25013a03          	ld	s4,592(sp)
   10ba8:	24813a83          	ld	s5,584(sp)
   10bac:	24013b03          	ld	s6,576(sp)
   10bb0:	23813b83          	ld	s7,568(sp)
   10bb4:	23013c03          	ld	s8,560(sp)
   10bb8:	22813c83          	ld	s9,552(sp)
   10bbc:	22013d03          	ld	s10,544(sp)
   10bc0:	21813d83          	ld	s11,536(sp)
   10bc4:	28010113          	addi	sp,sp,640
   10bc8:	8082                	ret
   10bca:	0104e493          	ori	s1,s1,16
   10bce:	00044f03          	lbu	t5,0(s0)
   10bd2:	2481                	sext.w	s1,s1
   10bd4:	bd3d                	j	10a12 <_vfprintf_r+0x134>
   10bd6:	85d2                	mv	a1,s4
   10bd8:	8556                	mv	a0,s5
   10bda:	1c1010ef          	jal	ra,1259a <__swsetup_r>
   10bde:	c119                	beqz	a0,10be4 <_vfprintf_r+0x306>
   10be0:	6260106f          	j	12206 <_vfprintf_r+0x1928>
   10be4:	010a5783          	lhu	a5,16(s4)
   10be8:	4729                	li	a4,10
   10bea:	8be9                	andi	a5,a5,26
   10bec:	d8e79be3          	bne	a5,a4,10982 <_vfprintf_r+0xa4>
   10bf0:	012a1783          	lh	a5,18(s4)
   10bf4:	d807c7e3          	bltz	a5,10982 <_vfprintf_r+0xa4>
   10bf8:	66c2                	ld	a3,16(sp)
   10bfa:	8666                	mv	a2,s9
   10bfc:	85d2                	mv	a1,s4
   10bfe:	8556                	mv	a0,s5
   10c00:	107010ef          	jal	ra,12506 <__sbprintf>
   10c04:	e02a                	sd	a0,0(sp)
   10c06:	b761                	j	10b8e <_vfprintf_r+0x2b0>
   10c08:	0104e493          	ori	s1,s1,16
   10c0c:	2481                	sext.w	s1,s1
   10c0e:	66c2                	ld	a3,16(sp)
   10c10:	0204f793          	andi	a5,s1,32
   10c14:	00868713          	addi	a4,a3,8
   10c18:	3a078263          	beqz	a5,10fbc <_vfprintf_r+0x6de>
   10c1c:	629c                	ld	a5,0(a3)
   10c1e:	89be                	mv	s3,a5
   10c20:	3a07cc63          	bltz	a5,10fd8 <_vfprintf_r+0x6fa>
   10c24:	57fd                	li	a5,-1
   10c26:	48fe87e3          	beq	t4,a5,118b4 <_vfprintf_r+0xfd6>
   10c2a:	f7f4f493          	andi	s1,s1,-129
   10c2e:	e83a                	sd	a4,16(sp)
   10c30:	0004881b          	sext.w	a6,s1
   10c34:	120993e3          	bnez	s3,1155a <_vfprintf_r+0xc7c>
   10c38:	120e94e3          	bnez	t4,11560 <_vfprintf_r+0xc82>
   10c3c:	84c2                	mv	s1,a6
   10c3e:	4e81                	li	t4,0
   10c40:	4c01                	li	s8,0
   10c42:	18c10c93          	addi	s9,sp,396
   10c46:	000c099b          	sext.w	s3,s8
   10c4a:	01dc5463          	bge	s8,t4,10c52 <_vfprintf_r+0x374>
   10c4e:	000e899b          	sext.w	s3,t4
   10c52:	0df14783          	lbu	a5,223(sp)
   10c56:	ec02                	sd	zero,24(sp)
   10c58:	e882                	sd	zero,80(sp)
   10c5a:	f082                	sd	zero,96(sp)
   10c5c:	ec82                	sd	zero,88(sp)
   10c5e:	e20788e3          	beqz	a5,10a8e <_vfprintf_r+0x1b0>
   10c62:	2985                	addiw	s3,s3,1
   10c64:	b52d                	j	10a8e <_vfprintf_r+0x1b0>
   10c66:	0104e493          	ori	s1,s1,16
   10c6a:	2481                	sext.w	s1,s1
   10c6c:	66c2                	ld	a3,16(sp)
   10c6e:	0204f793          	andi	a5,s1,32
   10c72:	00868713          	addi	a4,a3,8
   10c76:	32078463          	beqz	a5,10f9e <_vfprintf_r+0x6c0>
   10c7a:	0006b983          	ld	s3,0(a3)
   10c7e:	bff4f493          	andi	s1,s1,-1025
   10c82:	0004881b          	sext.w	a6,s1
   10c86:	e83a                	sd	a4,16(sp)
   10c88:	4781                	li	a5,0
   10c8a:	0c010fa3          	sb	zero,223(sp)
   10c8e:	577d                	li	a4,-1
   10c90:	36ee8063          	beq	t4,a4,10ff0 <_vfprintf_r+0x712>
   10c94:	f7f87493          	andi	s1,a6,-129
   10c98:	2481                	sext.w	s1,s1
   10c9a:	0a099ce3          	bnez	s3,11552 <_vfprintf_r+0xc74>
   10c9e:	5c0e9663          	bnez	t4,1126a <_vfprintf_r+0x98c>
   10ca2:	ffd1                	bnez	a5,10c3e <_vfprintf_r+0x360>
   10ca4:	00187c13          	andi	s8,a6,1
   10ca8:	18c10c93          	addi	s9,sp,396
   10cac:	f80c0de3          	beqz	s8,10c46 <_vfprintf_r+0x368>
   10cb0:	03000793          	li	a5,48
   10cb4:	18f105a3          	sb	a5,395(sp)
   10cb8:	18b10c93          	addi	s9,sp,395
   10cbc:	b769                	j	10c46 <_vfprintf_r+0x368>
   10cbe:	419404bb          	subw	s1,s0,s9
   10cc2:	d00494e3          	bnez	s1,109ca <_vfprintf_r+0xec>
   10cc6:	00044783          	lbu	a5,0(s0)
   10cca:	b33d                	j	109f8 <_vfprintf_r+0x11a>
   10ccc:	0a10                	addi	a2,sp,272
   10cce:	85d2                	mv	a1,s4
   10cd0:	8556                	mv	a0,s5
   10cd2:	1ca080ef          	jal	ra,18e9c <__sprint_r>
   10cd6:	ea0515e3          	bnez	a0,10b80 <_vfprintf_r+0x2a2>
   10cda:	835e                	mv	t1,s7
   10cdc:	bb09                	j	109ee <_vfprintf_r+0x110>
   10cde:	0084f793          	andi	a5,s1,8
   10ce2:	3a079ee3          	bnez	a5,1189e <_vfprintf_r+0xfc0>
   10ce6:	67c2                	ld	a5,16(sp)
   10ce8:	ec1a                	sd	t1,24(sp)
   10cea:	e476                	sd	t4,8(sp)
   10cec:	2388                	fld	fa0,0(a5)
   10cee:	00878693          	addi	a3,a5,8 # 2008 <register_fini-0xe0a8>
   10cf2:	e836                	sd	a3,16(sp)
   10cf4:	5040b0ef          	jal	ra,1c1f8 <__extenddftf2>
   10cf8:	6362                	ld	t1,24(sp)
   10cfa:	6ea2                	ld	t4,8(sp)
   10cfc:	e22a                	sd	a0,256(sp)
   10cfe:	e62e                	sd	a1,264(sp)
   10d00:	0208                	addi	a0,sp,256
   10d02:	ec1a                	sd	t1,24(sp)
   10d04:	e476                	sd	t4,8(sp)
   10d06:	6a0040ef          	jal	ra,153a6 <_ldcheck>
   10d0a:	d5aa                	sw	a0,232(sp)
   10d0c:	4789                	li	a5,2
   10d0e:	6ea2                	ld	t4,8(sp)
   10d10:	6362                	ld	t1,24(sp)
   10d12:	64f502e3          	beq	a0,a5,11b56 <_vfprintf_r+0x1278>
   10d16:	4785                	li	a5,1
   10d18:	6ef50ee3          	beq	a0,a5,11c14 <_vfprintf_r+0x1336>
   10d1c:	06100793          	li	a5,97
   10d20:	00fd9463          	bne	s11,a5,10d28 <_vfprintf_r+0x44a>
   10d24:	5740106f          	j	12298 <_vfprintf_r+0x19ba>
   10d28:	04100793          	li	a5,65
   10d2c:	00fd9463          	bne	s11,a5,10d34 <_vfprintf_r+0x456>
   10d30:	1380106f          	j	11e68 <_vfprintf_r+0x158a>
   10d34:	fdfdf713          	andi	a4,s11,-33
   10d38:	57fd                	li	a5,-1
   10d3a:	f0ba                	sd	a4,96(sp)
   10d3c:	00fe9463          	bne	t4,a5,10d44 <_vfprintf_r+0x466>
   10d40:	6140106f          	j	12354 <_vfprintf_r+0x1a76>
   10d44:	04700793          	li	a5,71
   10d48:	00f71463          	bne	a4,a5,10d50 <_vfprintf_r+0x472>
   10d4c:	5c40106f          	j	12310 <_vfprintf_r+0x1a32>
   10d50:	69b2                	ld	s3,264(sp)
   10d52:	1004e793          	ori	a5,s1,256
   10d56:	ed26                	sd	s1,152(sp)
   10d58:	6c12                	ld	s8,256(sp)
   10d5a:	2781                	sext.w	a5,a5
   10d5c:	0009d463          	bgez	s3,10d64 <_vfprintf_r+0x486>
   10d60:	67a0106f          	j	123da <_vfprintf_r+0x1afc>
   10d64:	e582                	sd	zero,200(sp)
   10d66:	84be                	mv	s1,a5
   10d68:	ec02                	sd	zero,24(sp)
   10d6a:	2701                	sext.w	a4,a4
   10d6c:	04600793          	li	a5,70
   10d70:	00f71463          	bne	a4,a5,10d78 <_vfprintf_r+0x49a>
   10d74:	38a0106f          	j	120fe <_vfprintf_r+0x1820>
   10d78:	7706                	ld	a4,96(sp)
   10d7a:	04500793          	li	a5,69
   10d7e:	00f70463          	beq	a4,a5,10d86 <_vfprintf_r+0x4a8>
   10d82:	33c0106f          	j	120be <_vfprintf_r+0x17e0>
   10d86:	001e871b          	addiw	a4,t4,1
   10d8a:	0f810893          	addi	a7,sp,248
   10d8e:	0ec10813          	addi	a6,sp,236
   10d92:	11bc                	addi	a5,sp,232
   10d94:	4689                	li	a3,2
   10d96:	85e2                	mv	a1,s8
   10d98:	864e                	mv	a2,s3
   10d9a:	8556                	mv	a0,s5
   10d9c:	f81a                	sd	t1,48(sp)
   10d9e:	f076                	sd	t4,32(sp)
   10da0:	e43a                	sd	a4,8(sp)
   10da2:	78c030ef          	jal	ra,1452e <_ldtoa_r>
   10da6:	6722                	ld	a4,8(sp)
   10da8:	7e82                	ld	t4,32(sp)
   10daa:	7342                	ld	t1,48(sp)
   10dac:	8caa                	mv	s9,a0
   10dae:	00e508b3          	add	a7,a0,a4
   10db2:	4601                	li	a2,0
   10db4:	4681                	li	a3,0
   10db6:	8562                	mv	a0,s8
   10db8:	85ce                	mv	a1,s3
   10dba:	f846                	sd	a7,48(sp)
   10dbc:	f01a                	sd	t1,32(sp)
   10dbe:	e476                	sd	t4,8(sp)
   10dc0:	3540a0ef          	jal	ra,1b114 <__eqtf2>
   10dc4:	78c2                	ld	a7,48(sp)
   10dc6:	6ea2                	ld	t4,8(sp)
   10dc8:	7302                	ld	t1,32(sp)
   10dca:	87c6                	mv	a5,a7
   10dcc:	cd11                	beqz	a0,10de8 <_vfprintf_r+0x50a>
   10dce:	77ee                	ld	a5,248(sp)
   10dd0:	0117fc63          	bgeu	a5,a7,10de8 <_vfprintf_r+0x50a>
   10dd4:	03000693          	li	a3,48
   10dd8:	00178713          	addi	a4,a5,1
   10ddc:	fdba                	sd	a4,248(sp)
   10dde:	00d78023          	sb	a3,0(a5)
   10de2:	77ee                	ld	a5,248(sp)
   10de4:	ff17eae3          	bltu	a5,a7,10dd8 <_vfprintf_r+0x4fa>
   10de8:	419787bb          	subw	a5,a5,s9
   10dec:	f03e                	sd	a5,32(sp)
   10dee:	572e                	lw	a4,232(sp)
   10df0:	04700793          	li	a5,71
   10df4:	ecba                	sd	a4,88(sp)
   10df6:	7706                	ld	a4,96(sp)
   10df8:	00f71463          	bne	a4,a5,10e00 <_vfprintf_r+0x522>
   10dfc:	2200106f          	j	1201c <_vfprintf_r+0x173e>
   10e00:	7706                	ld	a4,96(sp)
   10e02:	04600793          	li	a5,70
   10e06:	00f71463          	bne	a4,a5,10e0e <_vfprintf_r+0x530>
   10e0a:	3c40106f          	j	121ce <_vfprintf_r+0x18f0>
   10e0e:	67e6                	ld	a5,88(sp)
   10e10:	7586                	ld	a1,96(sp)
   10e12:	04100613          	li	a2,65
   10e16:	37fd                	addiw	a5,a5,-1
   10e18:	d5be                	sw	a5,232(sp)
   10e1a:	0ffdf713          	andi	a4,s11,255
   10e1e:	4681                	li	a3,0
   10e20:	00c59663          	bne	a1,a2,10e2c <_vfprintf_r+0x54e>
   10e24:	273d                	addiw	a4,a4,15
   10e26:	0ff77713          	andi	a4,a4,255
   10e2a:	4685                	li	a3,1
   10e2c:	0ee10823          	sb	a4,240(sp)
   10e30:	02b00713          	li	a4,43
   10e34:	0007d763          	bgez	a5,10e42 <_vfprintf_r+0x564>
   10e38:	6766                	ld	a4,88(sp)
   10e3a:	4785                	li	a5,1
   10e3c:	9f99                	subw	a5,a5,a4
   10e3e:	02d00713          	li	a4,45
   10e42:	0ee108a3          	sb	a4,241(sp)
   10e46:	4725                	li	a4,9
   10e48:	00f74463          	blt	a4,a5,10e50 <_vfprintf_r+0x572>
   10e4c:	5e00106f          	j	1242c <_vfprintf_r+0x1b4e>
   10e50:	0ff10513          	addi	a0,sp,255
   10e54:	85aa                	mv	a1,a0
   10e56:	46a9                	li	a3,10
   10e58:	06300e93          	li	t4,99
   10e5c:	02d7e73b          	remw	a4,a5,a3
   10e60:	862e                	mv	a2,a1
   10e62:	88be                	mv	a7,a5
   10e64:	15fd                	addi	a1,a1,-1
   10e66:	0307071b          	addiw	a4,a4,48
   10e6a:	fee60fa3          	sb	a4,-1(a2)
   10e6e:	02d7c7bb          	divw	a5,a5,a3
   10e72:	ff1ec5e3          	blt	t4,a7,10e5c <_vfprintf_r+0x57e>
   10e76:	0307879b          	addiw	a5,a5,48
   10e7a:	0ff7f693          	andi	a3,a5,255
   10e7e:	fed58fa3          	sb	a3,-1(a1)
   10e82:	ffe60793          	addi	a5,a2,-2
   10e86:	00a7e463          	bltu	a5,a0,10e8e <_vfprintf_r+0x5b0>
   10e8a:	6560106f          	j	124e0 <_vfprintf_r+0x1c02>
   10e8e:	0f210713          	addi	a4,sp,242
   10e92:	a019                	j	10e98 <_vfprintf_r+0x5ba>
   10e94:	0007c683          	lbu	a3,0(a5)
   10e98:	00d70023          	sb	a3,0(a4)
   10e9c:	0785                	addi	a5,a5,1
   10e9e:	0705                	addi	a4,a4,1
   10ea0:	fea79ae3          	bne	a5,a0,10e94 <_vfprintf_r+0x5b6>
   10ea4:	10110793          	addi	a5,sp,257
   10ea8:	0f210713          	addi	a4,sp,242
   10eac:	8f91                	sub	a5,a5,a2
   10eae:	97ba                	add	a5,a5,a4
   10eb0:	1998                	addi	a4,sp,240
   10eb2:	9f99                	subw	a5,a5,a4
   10eb4:	e13e                	sd	a5,128(sp)
   10eb6:	678a                	ld	a5,128(sp)
   10eb8:	7682                	ld	a3,32(sp)
   10eba:	4705                	li	a4,1
   10ebc:	00f68c3b          	addw	s8,a3,a5
   10ec0:	87e2                	mv	a5,s8
   10ec2:	00d74463          	blt	a4,a3,10eca <_vfprintf_r+0x5ec>
   10ec6:	5a00106f          	j	12466 <_vfprintf_r+0x1b88>
   10eca:	7746                	ld	a4,112(sp)
   10ecc:	00e78c3b          	addw	s8,a5,a4
   10ed0:	67ea                	ld	a5,152(sp)
   10ed2:	fffc4993          	not	s3,s8
   10ed6:	43f9d993          	srai	s3,s3,0x3f
   10eda:	bff7f493          	andi	s1,a5,-1025
   10ede:	2481                	sext.w	s1,s1
   10ee0:	013c79b3          	and	s3,s8,s3
   10ee4:	1004e493          	ori	s1,s1,256
   10ee8:	2981                	sext.w	s3,s3
   10eea:	e882                	sd	zero,80(sp)
   10eec:	f082                	sd	zero,96(sp)
   10eee:	ec82                	sd	zero,88(sp)
   10ef0:	67ae                	ld	a5,200(sp)
   10ef2:	e399                	bnez	a5,10ef8 <_vfprintf_r+0x61a>
   10ef4:	17e0106f          	j	12072 <_vfprintf_r+0x1794>
   10ef8:	02d00793          	li	a5,45
   10efc:	0cf10fa3          	sb	a5,223(sp)
   10f00:	4e81                	li	t4,0
   10f02:	2985                	addiw	s3,s3,1
   10f04:	b669                	j	10a8e <_vfprintf_r+0x1b0>
   10f06:	0a10                	addi	a2,sp,272
   10f08:	85d2                	mv	a1,s4
   10f0a:	8556                	mv	a0,s5
   10f0c:	fc76                	sd	t4,56(sp)
   10f0e:	f87e                	sd	t6,48(sp)
   10f10:	e416                	sd	t0,8(sp)
   10f12:	78b070ef          	jal	ra,18e9c <__sprint_r>
   10f16:	56051463          	bnez	a0,1147e <_vfprintf_r+0xba0>
   10f1a:	7792                	ld	a5,288(sp)
   10f1c:	7ee2                	ld	t4,56(sp)
   10f1e:	7fc2                	ld	t6,48(sp)
   10f20:	62a2                	ld	t0,8(sp)
   10f22:	835e                	mv	t1,s7
   10f24:	be5d                	j	10ada <_vfprintf_r+0x1fc>
   10f26:	76e6                	ld	a3,120(sp)
   10f28:	7746                	ld	a4,112(sp)
   10f2a:	0341                	addi	t1,t1,16
   10f2c:	fed33823          	sd	a3,-16(t1)
   10f30:	11812683          	lw	a3,280(sp)
   10f34:	97ba                	add	a5,a5,a4
   10f36:	fee33c23          	sd	a4,-8(t1)
   10f3a:	2685                	addiw	a3,a3,1
   10f3c:	0006871b          	sext.w	a4,a3
   10f40:	10d12c23          	sw	a3,280(sp)
   10f44:	f23e                	sd	a5,288(sp)
   10f46:	469d                	li	a3,7
   10f48:	00e6de63          	bge	a3,a4,10f64 <_vfprintf_r+0x686>
   10f4c:	0a10                	addi	a2,sp,272
   10f4e:	85d2                	mv	a1,s4
   10f50:	8556                	mv	a0,s5
   10f52:	74b070ef          	jal	ra,18e9c <__sprint_r>
   10f56:	52051463          	bnez	a0,1147e <_vfprintf_r+0xba0>
   10f5a:	562e                	lw	a2,232(sp)
   10f5c:	7792                	ld	a5,288(sp)
   10f5e:	11812703          	lw	a4,280(sp)
   10f62:	835e                	mv	t1,s7
   10f64:	00065463          	bgez	a2,10f6c <_vfprintf_r+0x68e>
   10f68:	2a60106f          	j	1220e <_vfprintf_r+0x1930>
   10f6c:	7682                	ld	a3,32(sp)
   10f6e:	2705                	addiw	a4,a4,1
   10f70:	10e12c23          	sw	a4,280(sp)
   10f74:	97b6                	add	a5,a5,a3
   10f76:	00d33423          	sd	a3,8(t1)
   10f7a:	01933023          	sd	s9,0(t1)
   10f7e:	0007069b          	sext.w	a3,a4
   10f82:	f23e                	sd	a5,288(sp)
   10f84:	471d                	li	a4,7
   10f86:	bad75be3          	bge	a4,a3,10b3c <_vfprintf_r+0x25e>
   10f8a:	0a10                	addi	a2,sp,272
   10f8c:	85d2                	mv	a1,s4
   10f8e:	8556                	mv	a0,s5
   10f90:	70d070ef          	jal	ra,18e9c <__sprint_r>
   10f94:	4e051563          	bnez	a0,1147e <_vfprintf_r+0xba0>
   10f98:	7792                	ld	a5,288(sp)
   10f9a:	835e                	mv	t1,s7
   10f9c:	b64d                	j	10b3e <_vfprintf_r+0x260>
   10f9e:	0104f793          	andi	a5,s1,16
   10fa2:	0e0799e3          	bnez	a5,11894 <_vfprintf_r+0xfb6>
   10fa6:	66c2                	ld	a3,16(sp)
   10fa8:	0404f793          	andi	a5,s1,64
   10fac:	0006a983          	lw	s3,0(a3)
   10fb0:	44078ae3          	beqz	a5,11c04 <_vfprintf_r+0x1326>
   10fb4:	19c2                	slli	s3,s3,0x30
   10fb6:	0309d993          	srli	s3,s3,0x30
   10fba:	b1d1                	j	10c7e <_vfprintf_r+0x3a0>
   10fbc:	0104f793          	andi	a5,s1,16
   10fc0:	0c0795e3          	bnez	a5,1188a <_vfprintf_r+0xfac>
   10fc4:	0404f793          	andi	a5,s1,64
   10fc8:	40078de3          	beqz	a5,11be2 <_vfprintf_r+0x1304>
   10fcc:	67c2                	ld	a5,16(sp)
   10fce:	00079983          	lh	s3,0(a5)
   10fd2:	87ce                	mv	a5,s3
   10fd4:	c407d8e3          	bgez	a5,10c24 <_vfprintf_r+0x346>
   10fd8:	02d00793          	li	a5,45
   10fdc:	0cf10fa3          	sb	a5,223(sp)
   10fe0:	e83a                	sd	a4,16(sp)
   10fe2:	577d                	li	a4,-1
   10fe4:	413009b3          	neg	s3,s3
   10fe8:	8826                	mv	a6,s1
   10fea:	4785                	li	a5,1
   10fec:	caee94e3          	bne	t4,a4,10c94 <_vfprintf_r+0x3b6>
   10ff0:	4705                	li	a4,1
   10ff2:	56e78463          	beq	a5,a4,1155a <_vfprintf_r+0xc7c>
   10ff6:	4709                	li	a4,2
   10ff8:	28e78263          	beq	a5,a4,1127c <_vfprintf_r+0x99e>
   10ffc:	18c10c13          	addi	s8,sp,396
   11000:	8ce2                	mv	s9,s8
   11002:	0079f793          	andi	a5,s3,7
   11006:	03078793          	addi	a5,a5,48
   1100a:	fefc8fa3          	sb	a5,-1(s9)
   1100e:	0039d993          	srli	s3,s3,0x3
   11012:	8766                	mv	a4,s9
   11014:	1cfd                	addi	s9,s9,-1
   11016:	fe0996e3          	bnez	s3,11002 <_vfprintf_r+0x724>
   1101a:	00187693          	andi	a3,a6,1
   1101e:	26068f63          	beqz	a3,1129c <_vfprintf_r+0x9be>
   11022:	03000693          	li	a3,48
   11026:	26d78b63          	beq	a5,a3,1129c <_vfprintf_r+0x9be>
   1102a:	1779                	addi	a4,a4,-2
   1102c:	fedc8fa3          	sb	a3,-1(s9)
   11030:	40ec0c3b          	subw	s8,s8,a4
   11034:	84c2                	mv	s1,a6
   11036:	8cba                	mv	s9,a4
   11038:	b139                	j	10c46 <_vfprintf_r+0x368>
   1103a:	8556                	mv	a0,s5
   1103c:	33f010ef          	jal	ra,12b7a <__sinit>
   11040:	b8fd                	j	1093e <_vfprintf_r+0x60>
   11042:	67c2                	ld	a5,16(sp)
   11044:	0c010fa3          	sb	zero,223(sp)
   11048:	0007bc83          	ld	s9,0(a5)
   1104c:	00878693          	addi	a3,a5,8
   11050:	1c0c85e3          	beqz	s9,11a1a <_vfprintf_r+0x113c>
   11054:	57fd                	li	a5,-1
   11056:	34fe82e3          	beq	t4,a5,11b9a <_vfprintf_r+0x12bc>
   1105a:	8676                	mv	a2,t4
   1105c:	4581                	li	a1,0
   1105e:	8566                	mv	a0,s9
   11060:	f836                	sd	a3,48(sp)
   11062:	e81a                	sd	t1,16(sp)
   11064:	e476                	sd	t4,8(sp)
   11066:	3ab040ef          	jal	ra,15c10 <memchr>
   1106a:	ec2a                	sd	a0,24(sp)
   1106c:	6ea2                	ld	t4,8(sp)
   1106e:	6342                	ld	t1,16(sp)
   11070:	76c2                	ld	a3,48(sp)
   11072:	e119                	bnez	a0,11078 <_vfprintf_r+0x79a>
   11074:	1120106f          	j	12186 <_vfprintf_r+0x18a8>
   11078:	67e2                	ld	a5,24(sp)
   1107a:	e836                	sd	a3,16(sp)
   1107c:	ec02                	sd	zero,24(sp)
   1107e:	41978c3b          	subw	s8,a5,s9
   11082:	fffc4993          	not	s3,s8
   11086:	0df14783          	lbu	a5,223(sp)
   1108a:	43f9d993          	srai	s3,s3,0x3f
   1108e:	013c79b3          	and	s3,s8,s3
   11092:	e882                	sd	zero,80(sp)
   11094:	f082                	sd	zero,96(sp)
   11096:	ec82                	sd	zero,88(sp)
   11098:	2981                	sext.w	s3,s3
   1109a:	4e81                	li	t4,0
   1109c:	bc0793e3          	bnez	a5,10c62 <_vfprintf_r+0x384>
   110a0:	b2fd                	j	10a8e <_vfprintf_r+0x1b0>
   110a2:	6742                	ld	a4,16(sp)
   110a4:	0c010fa3          	sb	zero,223(sp)
   110a8:	4985                	li	s3,1
   110aa:	431c                	lw	a5,0(a4)
   110ac:	0721                	addi	a4,a4,8
   110ae:	e83a                	sd	a4,16(sp)
   110b0:	12f10423          	sb	a5,296(sp)
   110b4:	4c05                	li	s8,1
   110b6:	12810c93          	addi	s9,sp,296
   110ba:	b2e9                	j	10a84 <_vfprintf_r+0x1a6>
   110bc:	00044f03          	lbu	t5,0(s0)
   110c0:	0044e493          	ori	s1,s1,4
   110c4:	2481                	sext.w	s1,s1
   110c6:	b2b1                	j	10a12 <_vfprintf_r+0x134>
   110c8:	02b00793          	li	a5,43
   110cc:	00044f03          	lbu	t5,0(s0)
   110d0:	0cf10fa3          	sb	a5,223(sp)
   110d4:	ba3d                	j	10a12 <_vfprintf_r+0x134>
   110d6:	0804e493          	ori	s1,s1,128
   110da:	00044f03          	lbu	t5,0(s0)
   110de:	2481                	sext.w	s1,s1
   110e0:	ba0d                	j	10a12 <_vfprintf_r+0x134>
   110e2:	00044703          	lbu	a4,0(s0)
   110e6:	00140793          	addi	a5,s0,1
   110ea:	00070d9b          	sext.w	s11,a4
   110ee:	00ec1463          	bne	s8,a4,110f6 <_vfprintf_r+0x818>
   110f2:	3d20106f          	j	124c4 <_vfprintf_r+0x1be6>
   110f6:	fd07071b          	addiw	a4,a4,-48
   110fa:	843e                	mv	s0,a5
   110fc:	4e81                	li	t4,0
   110fe:	90e9efe3          	bltu	s3,a4,10a1c <_vfprintf_r+0x13e>
   11102:	00044d83          	lbu	s11,0(s0)
   11106:	002e979b          	slliw	a5,t4,0x2
   1110a:	01d78ebb          	addw	t4,a5,t4
   1110e:	001e9e9b          	slliw	t4,t4,0x1
   11112:	00ee8ebb          	addw	t4,t4,a4
   11116:	fd0d871b          	addiw	a4,s11,-48
   1111a:	0405                	addi	s0,s0,1
   1111c:	fee9f3e3          	bgeu	s3,a4,11102 <_vfprintf_r+0x824>
   11120:	b8f5                	j	10a1c <_vfprintf_r+0x13e>
   11122:	67c2                	ld	a5,16(sp)
   11124:	00044f03          	lbu	t5,0(s0)
   11128:	0007ab03          	lw	s6,0(a5)
   1112c:	07a1                	addi	a5,a5,8
   1112e:	e83e                	sd	a5,16(sp)
   11130:	8e0b51e3          	bgez	s6,10a12 <_vfprintf_r+0x134>
   11134:	41600b3b          	negw	s6,s6
   11138:	b761                	j	110c0 <_vfprintf_r+0x7e2>
   1113a:	8556                	mv	a0,s5
   1113c:	ec1a                	sd	t1,24(sp)
   1113e:	e476                	sd	t4,8(sp)
   11140:	2a2040ef          	jal	ra,153e2 <_localeconv_r>
   11144:	651c                	ld	a5,8(a0)
   11146:	853e                	mv	a0,a5
   11148:	e93e                	sd	a5,144(sp)
   1114a:	f00ff0ef          	jal	ra,1084a <strlen>
   1114e:	87aa                	mv	a5,a0
   11150:	8556                	mv	a0,s5
   11152:	8dbe                	mv	s11,a5
   11154:	e53e                	sd	a5,136(sp)
   11156:	28c040ef          	jal	ra,153e2 <_localeconv_r>
   1115a:	6918                	ld	a4,16(a0)
   1115c:	6ea2                	ld	t4,8(sp)
   1115e:	6362                	ld	t1,24(sp)
   11160:	f4ba                	sd	a4,104(sp)
   11162:	00044f03          	lbu	t5,0(s0)
   11166:	8a0d86e3          	beqz	s11,10a12 <_vfprintf_r+0x134>
   1116a:	8a0704e3          	beqz	a4,10a12 <_vfprintf_r+0x134>
   1116e:	00074783          	lbu	a5,0(a4)
   11172:	8a0780e3          	beqz	a5,10a12 <_vfprintf_r+0x134>
   11176:	4004e493          	ori	s1,s1,1024
   1117a:	2481                	sext.w	s1,s1
   1117c:	b859                	j	10a12 <_vfprintf_r+0x134>
   1117e:	0014e493          	ori	s1,s1,1
   11182:	00044f03          	lbu	t5,0(s0)
   11186:	2481                	sext.w	s1,s1
   11188:	b069                	j	10a12 <_vfprintf_r+0x134>
   1118a:	0df14783          	lbu	a5,223(sp)
   1118e:	00044f03          	lbu	t5,0(s0)
   11192:	880790e3          	bnez	a5,10a12 <_vfprintf_r+0x134>
   11196:	02000793          	li	a5,32
   1119a:	0cf10fa3          	sb	a5,223(sp)
   1119e:	b895                	j	10a12 <_vfprintf_r+0x134>
   111a0:	0084e493          	ori	s1,s1,8
   111a4:	00044f03          	lbu	t5,0(s0)
   111a8:	2481                	sext.w	s1,s1
   111aa:	b0a5                	j	10a12 <_vfprintf_r+0x134>
   111ac:	0104e493          	ori	s1,s1,16
   111b0:	0004881b          	sext.w	a6,s1
   111b4:	66c2                	ld	a3,16(sp)
   111b6:	02087793          	andi	a5,a6,32
   111ba:	00868713          	addi	a4,a3,8
   111be:	68078463          	beqz	a5,11846 <_vfprintf_r+0xf68>
   111c2:	0006b983          	ld	s3,0(a3)
   111c6:	4785                	li	a5,1
   111c8:	e83a                	sd	a4,16(sp)
   111ca:	b4c1                	j	10c8a <_vfprintf_r+0x3ac>
   111cc:	0204e493          	ori	s1,s1,32
   111d0:	00044f03          	lbu	t5,0(s0)
   111d4:	2481                	sext.w	s1,s1
   111d6:	83dff06f          	j	10a12 <_vfprintf_r+0x134>
   111da:	6742                	ld	a4,16(sp)
   111dc:	77e1                	lui	a5,0xffff8
   111de:	8307c793          	xori	a5,a5,-2000
   111e2:	0ef11023          	sh	a5,224(sp)
   111e6:	00870793          	addi	a5,a4,8
   111ea:	0024e493          	ori	s1,s1,2
   111ee:	e83e                	sd	a5,16(sp)
   111f0:	0000b797          	auipc	a5,0xb
   111f4:	4b878793          	addi	a5,a5,1208 # 1c6a8 <__clzdi2+0x1be>
   111f8:	f43e                	sd	a5,40(sp)
   111fa:	00073983          	ld	s3,0(a4)
   111fe:	0004881b          	sext.w	a6,s1
   11202:	4789                	li	a5,2
   11204:	07800d93          	li	s11,120
   11208:	b449                	j	10c8a <_vfprintf_r+0x3ac>
   1120a:	66c2                	ld	a3,16(sp)
   1120c:	0204f793          	andi	a5,s1,32
   11210:	6298                	ld	a4,0(a3)
   11212:	06a1                	addi	a3,a3,8
   11214:	e836                	sd	a3,16(sp)
   11216:	64079e63          	bnez	a5,11872 <_vfprintf_r+0xf94>
   1121a:	0104f793          	andi	a5,s1,16
   1121e:	64079a63          	bnez	a5,11872 <_vfprintf_r+0xf94>
   11222:	0404f793          	andi	a5,s1,64
   11226:	3e0799e3          	bnez	a5,11e18 <_vfprintf_r+0x153a>
   1122a:	2004f493          	andi	s1,s1,512
   1122e:	6782                	ld	a5,0(sp)
   11230:	e099                	bnez	s1,11236 <_vfprintf_r+0x958>
   11232:	1280106f          	j	1235a <_vfprintf_r+0x1a7c>
   11236:	00f70023          	sb	a5,0(a4)
   1123a:	8ca2                	mv	s9,s0
   1123c:	ba15                	j	10b70 <_vfprintf_r+0x292>
   1123e:	00044f03          	lbu	t5,0(s0)
   11242:	06c00793          	li	a5,108
   11246:	7aff0263          	beq	t5,a5,119ea <_vfprintf_r+0x110c>
   1124a:	0104e493          	ori	s1,s1,16
   1124e:	2481                	sext.w	s1,s1
   11250:	fc2ff06f          	j	10a12 <_vfprintf_r+0x134>
   11254:	00044f03          	lbu	t5,0(s0)
   11258:	06800793          	li	a5,104
   1125c:	76ff0f63          	beq	t5,a5,119da <_vfprintf_r+0x10fc>
   11260:	0404e493          	ori	s1,s1,64
   11264:	2481                	sext.w	s1,s1
   11266:	facff06f          	j	10a12 <_vfprintf_r+0x134>
   1126a:	4705                	li	a4,1
   1126c:	00e79463          	bne	a5,a4,11274 <_vfprintf_r+0x996>
   11270:	0220106f          	j	12292 <_vfprintf_r+0x19b4>
   11274:	4709                	li	a4,2
   11276:	8826                	mv	a6,s1
   11278:	d8e792e3          	bne	a5,a4,10ffc <_vfprintf_r+0x71e>
   1127c:	18c10c13          	addi	s8,sp,396
   11280:	8ce2                	mv	s9,s8
   11282:	7722                	ld	a4,40(sp)
   11284:	00f9f793          	andi	a5,s3,15
   11288:	1cfd                	addi	s9,s9,-1
   1128a:	97ba                	add	a5,a5,a4
   1128c:	0007c783          	lbu	a5,0(a5)
   11290:	0049d993          	srli	s3,s3,0x4
   11294:	00fc8023          	sb	a5,0(s9)
   11298:	fe0995e3          	bnez	s3,11282 <_vfprintf_r+0x9a4>
   1129c:	419c0c3b          	subw	s8,s8,s9
   112a0:	84c2                	mv	s1,a6
   112a2:	b255                	j	10c46 <_vfprintf_r+0x368>
   112a4:	06500713          	li	a4,101
   112a8:	1fb75463          	bge	a4,s11,11490 <_vfprintf_r+0xbb2>
   112ac:	6512                	ld	a0,256(sp)
   112ae:	65b2                	ld	a1,264(sp)
   112b0:	4601                	li	a2,0
   112b2:	4681                	li	a3,0
   112b4:	f83e                	sd	a5,48(sp)
   112b6:	e41a                	sd	t1,8(sp)
   112b8:	65d090ef          	jal	ra,1b114 <__eqtf2>
   112bc:	6322                	ld	t1,8(sp)
   112be:	77c2                	ld	a5,48(sp)
   112c0:	3e051b63          	bnez	a0,116b6 <_vfprintf_r+0xdd8>
   112c4:	11812703          	lw	a4,280(sp)
   112c8:	0000b697          	auipc	a3,0xb
   112cc:	40068693          	addi	a3,a3,1024 # 1c6c8 <__clzdi2+0x1de>
   112d0:	00d33023          	sd	a3,0(t1)
   112d4:	2705                	addiw	a4,a4,1
   112d6:	4685                	li	a3,1
   112d8:	0785                	addi	a5,a5,1
   112da:	00d33423          	sd	a3,8(t1)
   112de:	10e12c23          	sw	a4,280(sp)
   112e2:	0007069b          	sext.w	a3,a4
   112e6:	f23e                	sd	a5,288(sp)
   112e8:	471d                	li	a4,7
   112ea:	0341                	addi	t1,t1,16
   112ec:	04d742e3          	blt	a4,a3,11b30 <_vfprintf_r+0x1252>
   112f0:	572e                	lw	a4,232(sp)
   112f2:	7682                	ld	a3,32(sp)
   112f4:	56d75a63          	bge	a4,a3,11868 <_vfprintf_r+0xf8a>
   112f8:	7766                	ld	a4,120(sp)
   112fa:	76c6                	ld	a3,112(sp)
   112fc:	0341                	addi	t1,t1,16
   112fe:	fee33823          	sd	a4,-16(t1)
   11302:	11812703          	lw	a4,280(sp)
   11306:	97b6                	add	a5,a5,a3
   11308:	fed33c23          	sd	a3,-8(t1)
   1130c:	2705                	addiw	a4,a4,1
   1130e:	0007069b          	sext.w	a3,a4
   11312:	10e12c23          	sw	a4,280(sp)
   11316:	f23e                	sd	a5,288(sp)
   11318:	471d                	li	a4,7
   1131a:	6ed74063          	blt	a4,a3,119fa <_vfprintf_r+0x111c>
   1131e:	7702                	ld	a4,32(sp)
   11320:	fff70c1b          	addiw	s8,a4,-1
   11324:	81805de3          	blez	s8,10b3e <_vfprintf_r+0x260>
   11328:	11812703          	lw	a4,280(sp)
   1132c:	018d5de3          	bge	s10,s8,11b46 <_vfprintf_r+0x1268>
   11330:	4c9d                	li	s9,7
   11332:	a021                	j	1133a <_vfprintf_r+0xa5c>
   11334:	3c41                	addiw	s8,s8,-16
   11336:	018d58e3          	bge	s10,s8,11b46 <_vfprintf_r+0x1268>
   1133a:	2705                	addiw	a4,a4,1
   1133c:	07c1                	addi	a5,a5,16
   1133e:	01233023          	sd	s2,0(t1)
   11342:	01a33423          	sd	s10,8(t1)
   11346:	f23e                	sd	a5,288(sp)
   11348:	10e12c23          	sw	a4,280(sp)
   1134c:	0341                	addi	t1,t1,16
   1134e:	feecd3e3          	bge	s9,a4,11334 <_vfprintf_r+0xa56>
   11352:	0a10                	addi	a2,sp,272
   11354:	85d2                	mv	a1,s4
   11356:	8556                	mv	a0,s5
   11358:	345070ef          	jal	ra,18e9c <__sprint_r>
   1135c:	12051163          	bnez	a0,1147e <_vfprintf_r+0xba0>
   11360:	7792                	ld	a5,288(sp)
   11362:	11812703          	lw	a4,280(sp)
   11366:	835e                	mv	t1,s7
   11368:	b7f1                	j	11334 <_vfprintf_r+0xa56>
   1136a:	413b06bb          	subw	a3,s6,s3
   1136e:	f8d05f63          	blez	a3,10b0c <_vfprintf_r+0x22e>
   11372:	11812703          	lw	a4,280(sp)
   11376:	04dd5563          	bge	s10,a3,113c0 <_vfprintf_r+0xae2>
   1137a:	489d                	li	a7,7
   1137c:	a021                	j	11384 <_vfprintf_r+0xaa6>
   1137e:	36c1                	addiw	a3,a3,-16
   11380:	04dd5063          	bge	s10,a3,113c0 <_vfprintf_r+0xae2>
   11384:	2705                	addiw	a4,a4,1
   11386:	07c1                	addi	a5,a5,16
   11388:	01233023          	sd	s2,0(t1)
   1138c:	01a33423          	sd	s10,8(t1)
   11390:	f23e                	sd	a5,288(sp)
   11392:	10e12c23          	sw	a4,280(sp)
   11396:	0341                	addi	t1,t1,16
   11398:	fee8d3e3          	bge	a7,a4,1137e <_vfprintf_r+0xaa0>
   1139c:	0a10                	addi	a2,sp,272
   1139e:	85d2                	mv	a1,s4
   113a0:	8556                	mv	a0,s5
   113a2:	f836                	sd	a3,48(sp)
   113a4:	e476                	sd	t4,8(sp)
   113a6:	2f7070ef          	jal	ra,18e9c <__sprint_r>
   113aa:	e971                	bnez	a0,1147e <_vfprintf_r+0xba0>
   113ac:	76c2                	ld	a3,48(sp)
   113ae:	7792                	ld	a5,288(sp)
   113b0:	11812703          	lw	a4,280(sp)
   113b4:	36c1                	addiw	a3,a3,-16
   113b6:	6ea2                	ld	t4,8(sp)
   113b8:	835e                	mv	t1,s7
   113ba:	489d                	li	a7,7
   113bc:	fcdd44e3          	blt	s10,a3,11384 <_vfprintf_r+0xaa6>
   113c0:	2705                	addiw	a4,a4,1
   113c2:	97b6                	add	a5,a5,a3
   113c4:	00d33423          	sd	a3,8(t1)
   113c8:	01233023          	sd	s2,0(t1)
   113cc:	0007069b          	sext.w	a3,a4
   113d0:	10e12c23          	sw	a4,280(sp)
   113d4:	f23e                	sd	a5,288(sp)
   113d6:	471d                	li	a4,7
   113d8:	0341                	addi	t1,t1,16
   113da:	f2d75963          	bge	a4,a3,10b0c <_vfprintf_r+0x22e>
   113de:	0a10                	addi	a2,sp,272
   113e0:	85d2                	mv	a1,s4
   113e2:	8556                	mv	a0,s5
   113e4:	e476                	sd	t4,8(sp)
   113e6:	2b7070ef          	jal	ra,18e9c <__sprint_r>
   113ea:	e951                	bnez	a0,1147e <_vfprintf_r+0xba0>
   113ec:	7792                	ld	a5,288(sp)
   113ee:	6ea2                	ld	t4,8(sp)
   113f0:	835e                	mv	t1,s7
   113f2:	f1aff06f          	j	10b0c <_vfprintf_r+0x22e>
   113f6:	11812703          	lw	a4,280(sp)
   113fa:	05dd5363          	bge	s10,t4,11440 <_vfprintf_r+0xb62>
   113fe:	489d                	li	a7,7
   11400:	a021                	j	11408 <_vfprintf_r+0xb2a>
   11402:	3ec1                	addiw	t4,t4,-16
   11404:	03dd5e63          	bge	s10,t4,11440 <_vfprintf_r+0xb62>
   11408:	2705                	addiw	a4,a4,1
   1140a:	07c1                	addi	a5,a5,16
   1140c:	01233023          	sd	s2,0(t1)
   11410:	01a33423          	sd	s10,8(t1)
   11414:	f23e                	sd	a5,288(sp)
   11416:	10e12c23          	sw	a4,280(sp)
   1141a:	0341                	addi	t1,t1,16
   1141c:	fee8d3e3          	bge	a7,a4,11402 <_vfprintf_r+0xb24>
   11420:	0a10                	addi	a2,sp,272
   11422:	85d2                	mv	a1,s4
   11424:	8556                	mv	a0,s5
   11426:	e476                	sd	t4,8(sp)
   11428:	275070ef          	jal	ra,18e9c <__sprint_r>
   1142c:	e929                	bnez	a0,1147e <_vfprintf_r+0xba0>
   1142e:	6ea2                	ld	t4,8(sp)
   11430:	7792                	ld	a5,288(sp)
   11432:	11812703          	lw	a4,280(sp)
   11436:	3ec1                	addiw	t4,t4,-16
   11438:	835e                	mv	t1,s7
   1143a:	489d                	li	a7,7
   1143c:	fddd46e3          	blt	s10,t4,11408 <_vfprintf_r+0xb2a>
   11440:	0017069b          	addiw	a3,a4,1
   11444:	97f6                	add	a5,a5,t4
   11446:	01233023          	sd	s2,0(t1)
   1144a:	01d33423          	sd	t4,8(t1)
   1144e:	f23e                	sd	a5,288(sp)
   11450:	10d12c23          	sw	a3,280(sp)
   11454:	471d                	li	a4,7
   11456:	0341                	addi	t1,t1,16
   11458:	ead75e63          	bge	a4,a3,10b14 <_vfprintf_r+0x236>
   1145c:	0a10                	addi	a2,sp,272
   1145e:	85d2                	mv	a1,s4
   11460:	8556                	mv	a0,s5
   11462:	23b070ef          	jal	ra,18e9c <__sprint_r>
   11466:	ed01                	bnez	a0,1147e <_vfprintf_r+0xba0>
   11468:	7792                	ld	a5,288(sp)
   1146a:	835e                	mv	t1,s7
   1146c:	ea8ff06f          	j	10b14 <_vfprintf_r+0x236>
   11470:	0a10                	addi	a2,sp,272
   11472:	85d2                	mv	a1,s4
   11474:	8556                	mv	a0,s5
   11476:	227070ef          	jal	ra,18e9c <__sprint_r>
   1147a:	ee050163          	beqz	a0,10b5c <_vfprintf_r+0x27e>
   1147e:	67e2                	ld	a5,24(sp)
   11480:	f0078063          	beqz	a5,10b80 <_vfprintf_r+0x2a2>
   11484:	85be                	mv	a1,a5
   11486:	8556                	mv	a0,s5
   11488:	025010ef          	jal	ra,12cac <_free_r>
   1148c:	ef4ff06f          	j	10b80 <_vfprintf_r+0x2a2>
   11490:	11812603          	lw	a2,280(sp)
   11494:	00178d93          	addi	s11,a5,1
   11498:	7782                	ld	a5,32(sp)
   1149a:	0016071b          	addiw	a4,a2,1
   1149e:	4585                	li	a1,1
   114a0:	01933023          	sd	s9,0(t1)
   114a4:	86ba                	mv	a3,a4
   114a6:	01030c13          	addi	s8,t1,16
   114aa:	32f5d863          	bge	a1,a5,117da <_vfprintf_r+0xefc>
   114ae:	4605                	li	a2,1
   114b0:	10d12c23          	sw	a3,280(sp)
   114b4:	00c33423          	sd	a2,8(t1)
   114b8:	f26e                	sd	s11,288(sp)
   114ba:	469d                	li	a3,7
   114bc:	5ce6c463          	blt	a3,a4,11a84 <_vfprintf_r+0x11a6>
   114c0:	77c6                	ld	a5,112(sp)
   114c2:	0017069b          	addiw	a3,a4,1
   114c6:	7766                	ld	a4,120(sp)
   114c8:	9dbe                	add	s11,s11,a5
   114ca:	00fc3423          	sd	a5,8(s8)
   114ce:	00ec3023          	sd	a4,0(s8)
   114d2:	10d12c23          	sw	a3,280(sp)
   114d6:	0006871b          	sext.w	a4,a3
   114da:	f26e                	sd	s11,288(sp)
   114dc:	469d                	li	a3,7
   114de:	0c41                	addi	s8,s8,16
   114e0:	5ae6ce63          	blt	a3,a4,11a9c <_vfprintf_r+0x11be>
   114e4:	6512                	ld	a0,256(sp)
   114e6:	65b2                	ld	a1,264(sp)
   114e8:	0017089b          	addiw	a7,a4,1
   114ec:	4601                	li	a2,0
   114ee:	4681                	li	a3,0
   114f0:	e446                	sd	a7,8(sp)
   114f2:	f83a                	sd	a4,48(sp)
   114f4:	421090ef          	jal	ra,1b114 <__eqtf2>
   114f8:	68a2                	ld	a7,8(sp)
   114fa:	7782                	ld	a5,32(sp)
   114fc:	010c0313          	addi	t1,s8,16
   11500:	0008861b          	sext.w	a2,a7
   11504:	fff7869b          	addiw	a3,a5,-1
   11508:	2e050963          	beqz	a0,117fa <_vfprintf_r+0xf1c>
   1150c:	9db6                	add	s11,s11,a3
   1150e:	001c8813          	addi	a6,s9,1
   11512:	00dc3423          	sd	a3,8(s8)
   11516:	010c3023          	sd	a6,0(s8)
   1151a:	f26e                	sd	s11,288(sp)
   1151c:	11112c23          	sw	a7,280(sp)
   11520:	469d                	li	a3,7
   11522:	44c6c763          	blt	a3,a2,11970 <_vfprintf_r+0x1092>
   11526:	7742                	ld	a4,48(sp)
   11528:	020c0693          	addi	a3,s8,32
   1152c:	8c1a                	mv	s8,t1
   1152e:	0027061b          	addiw	a2,a4,2
   11532:	8336                	mv	t1,a3
   11534:	668a                	ld	a3,128(sp)
   11536:	1998                	addi	a4,sp,240
   11538:	00ec3023          	sd	a4,0(s8)
   1153c:	00dd87b3          	add	a5,s11,a3
   11540:	00dc3423          	sd	a3,8(s8)
   11544:	f23e                	sd	a5,288(sp)
   11546:	10c12c23          	sw	a2,280(sp)
   1154a:	471d                	li	a4,7
   1154c:	dec75963          	bge	a4,a2,10b3e <_vfprintf_r+0x260>
   11550:	bc2d                	j	10f8a <_vfprintf_r+0x6ac>
   11552:	4705                	li	a4,1
   11554:	8826                	mv	a6,s1
   11556:	aae790e3          	bne	a5,a4,10ff6 <_vfprintf_r+0x718>
   1155a:	47a5                	li	a5,9
   1155c:	3737e163          	bltu	a5,s3,118be <_vfprintf_r+0xfe0>
   11560:	0309899b          	addiw	s3,s3,48
   11564:	193105a3          	sb	s3,395(sp)
   11568:	84c2                	mv	s1,a6
   1156a:	4c05                	li	s8,1
   1156c:	18b10c93          	addi	s9,sp,395
   11570:	ed6ff06f          	j	10c46 <_vfprintf_r+0x368>
   11574:	11812703          	lw	a4,280(sp)
   11578:	0000b897          	auipc	a7,0xb
   1157c:	2c888893          	addi	a7,a7,712 # 1c840 <blanks.4520>
   11580:	439d                	li	t2,7
   11582:	00dd4663          	blt	s10,a3,1158e <_vfprintf_r+0xcb0>
   11586:	a889                	j	115d8 <_vfprintf_r+0xcfa>
   11588:	36c1                	addiw	a3,a3,-16
   1158a:	04dd5763          	bge	s10,a3,115d8 <_vfprintf_r+0xcfa>
   1158e:	2705                	addiw	a4,a4,1
   11590:	07c1                	addi	a5,a5,16
   11592:	01133023          	sd	a7,0(t1)
   11596:	01a33423          	sd	s10,8(t1)
   1159a:	f23e                	sd	a5,288(sp)
   1159c:	10e12c23          	sw	a4,280(sp)
   115a0:	0341                	addi	t1,t1,16
   115a2:	fee3d3e3          	bge	t2,a4,11588 <_vfprintf_r+0xcaa>
   115a6:	0a10                	addi	a2,sp,272
   115a8:	85d2                	mv	a1,s4
   115aa:	8556                	mv	a0,s5
   115ac:	e4c6                	sd	a7,72(sp)
   115ae:	e0f6                	sd	t4,64(sp)
   115b0:	fc7e                	sd	t6,56(sp)
   115b2:	f816                	sd	t0,48(sp)
   115b4:	e436                	sd	a3,8(sp)
   115b6:	0e7070ef          	jal	ra,18e9c <__sprint_r>
   115ba:	ec0512e3          	bnez	a0,1147e <_vfprintf_r+0xba0>
   115be:	66a2                	ld	a3,8(sp)
   115c0:	7792                	ld	a5,288(sp)
   115c2:	11812703          	lw	a4,280(sp)
   115c6:	36c1                	addiw	a3,a3,-16
   115c8:	68a6                	ld	a7,72(sp)
   115ca:	6e86                	ld	t4,64(sp)
   115cc:	7fe2                	ld	t6,56(sp)
   115ce:	72c2                	ld	t0,48(sp)
   115d0:	835e                	mv	t1,s7
   115d2:	439d                	li	t2,7
   115d4:	fadd4de3          	blt	s10,a3,1158e <_vfprintf_r+0xcb0>
   115d8:	2705                	addiw	a4,a4,1
   115da:	97b6                	add	a5,a5,a3
   115dc:	00d33423          	sd	a3,8(t1)
   115e0:	01133023          	sd	a7,0(t1)
   115e4:	0007069b          	sext.w	a3,a4
   115e8:	10e12c23          	sw	a4,280(sp)
   115ec:	f23e                	sd	a5,288(sp)
   115ee:	471d                	li	a4,7
   115f0:	0341                	addi	t1,t1,16
   115f2:	cad75d63          	bge	a4,a3,10aac <_vfprintf_r+0x1ce>
   115f6:	0a10                	addi	a2,sp,272
   115f8:	85d2                	mv	a1,s4
   115fa:	8556                	mv	a0,s5
   115fc:	fc76                	sd	t4,56(sp)
   115fe:	f87e                	sd	t6,48(sp)
   11600:	e416                	sd	t0,8(sp)
   11602:	09b070ef          	jal	ra,18e9c <__sprint_r>
   11606:	e6051ce3          	bnez	a0,1147e <_vfprintf_r+0xba0>
   1160a:	7792                	ld	a5,288(sp)
   1160c:	7ee2                	ld	t4,56(sp)
   1160e:	7fc2                	ld	t6,48(sp)
   11610:	62a2                	ld	t0,8(sp)
   11612:	835e                	mv	t1,s7
   11614:	c98ff06f          	j	10aac <_vfprintf_r+0x1ce>
   11618:	0a10                	addi	a2,sp,272
   1161a:	85d2                	mv	a1,s4
   1161c:	8556                	mv	a0,s5
   1161e:	f876                	sd	t4,48(sp)
   11620:	e47e                	sd	t6,8(sp)
   11622:	07b070ef          	jal	ra,18e9c <__sprint_r>
   11626:	e4051ce3          	bnez	a0,1147e <_vfprintf_r+0xba0>
   1162a:	7792                	ld	a5,288(sp)
   1162c:	7ec2                	ld	t4,48(sp)
   1162e:	6fa2                	ld	t6,8(sp)
   11630:	835e                	mv	t1,s7
   11632:	cd2ff06f          	j	10b04 <_vfprintf_r+0x226>
   11636:	11812703          	lw	a4,280(sp)
   1163a:	0000b897          	auipc	a7,0xb
   1163e:	20688893          	addi	a7,a7,518 # 1c840 <blanks.4520>
   11642:	4c1d                	li	s8,7
   11644:	009d4663          	blt	s10,s1,11650 <_vfprintf_r+0xd72>
   11648:	a081                	j	11688 <_vfprintf_r+0xdaa>
   1164a:	34c1                	addiw	s1,s1,-16
   1164c:	029d5e63          	bge	s10,s1,11688 <_vfprintf_r+0xdaa>
   11650:	2705                	addiw	a4,a4,1
   11652:	07c1                	addi	a5,a5,16
   11654:	01133023          	sd	a7,0(t1)
   11658:	01a33423          	sd	s10,8(t1)
   1165c:	f23e                	sd	a5,288(sp)
   1165e:	10e12c23          	sw	a4,280(sp)
   11662:	0341                	addi	t1,t1,16
   11664:	feec53e3          	bge	s8,a4,1164a <_vfprintf_r+0xd6c>
   11668:	0a10                	addi	a2,sp,272
   1166a:	85d2                	mv	a1,s4
   1166c:	8556                	mv	a0,s5
   1166e:	e446                	sd	a7,8(sp)
   11670:	02d070ef          	jal	ra,18e9c <__sprint_r>
   11674:	e00515e3          	bnez	a0,1147e <_vfprintf_r+0xba0>
   11678:	34c1                	addiw	s1,s1,-16
   1167a:	7792                	ld	a5,288(sp)
   1167c:	11812703          	lw	a4,280(sp)
   11680:	68a2                	ld	a7,8(sp)
   11682:	835e                	mv	t1,s7
   11684:	fc9d46e3          	blt	s10,s1,11650 <_vfprintf_r+0xd72>
   11688:	0017069b          	addiw	a3,a4,1
   1168c:	97a6                	add	a5,a5,s1
   1168e:	01133023          	sd	a7,0(t1)
   11692:	00933423          	sd	s1,8(t1)
   11696:	f23e                	sd	a5,288(sp)
   11698:	10d12c23          	sw	a3,280(sp)
   1169c:	471d                	li	a4,7
   1169e:	cad75663          	bge	a4,a3,10b4a <_vfprintf_r+0x26c>
   116a2:	0a10                	addi	a2,sp,272
   116a4:	85d2                	mv	a1,s4
   116a6:	8556                	mv	a0,s5
   116a8:	7f4070ef          	jal	ra,18e9c <__sprint_r>
   116ac:	dc0519e3          	bnez	a0,1147e <_vfprintf_r+0xba0>
   116b0:	7792                	ld	a5,288(sp)
   116b2:	c98ff06f          	j	10b4a <_vfprintf_r+0x26c>
   116b6:	562e                	lw	a2,232(sp)
   116b8:	3ec05e63          	blez	a2,11ab4 <_vfprintf_r+0x11d6>
   116bc:	6766                	ld	a4,88(sp)
   116be:	7682                	ld	a3,32(sp)
   116c0:	00070c1b          	sext.w	s8,a4
   116c4:	28e6c263          	blt	a3,a4,11948 <_vfprintf_r+0x106a>
   116c8:	03805263          	blez	s8,116ec <_vfprintf_r+0xe0e>
   116cc:	11812703          	lw	a4,280(sp)
   116d0:	97e2                	add	a5,a5,s8
   116d2:	01933023          	sd	s9,0(t1)
   116d6:	0017069b          	addiw	a3,a4,1
   116da:	01833423          	sd	s8,8(t1)
   116de:	f23e                	sd	a5,288(sp)
   116e0:	10d12c23          	sw	a3,280(sp)
   116e4:	471d                	li	a4,7
   116e6:	0341                	addi	t1,t1,16
   116e8:	6ed74d63          	blt	a4,a3,11de2 <_vfprintf_r+0x1504>
   116ec:	fffc4713          	not	a4,s8
   116f0:	977d                	srai	a4,a4,0x3f
   116f2:	00ec7c33          	and	s8,s8,a4
   116f6:	6766                	ld	a4,88(sp)
   116f8:	41870c3b          	subw	s8,a4,s8
   116fc:	33804c63          	bgtz	s8,11a34 <_vfprintf_r+0x1156>
   11700:	66e6                	ld	a3,88(sp)
   11702:	4004f713          	andi	a4,s1,1024
   11706:	00dc8db3          	add	s11,s9,a3
   1170a:	54071f63          	bnez	a4,11c68 <_vfprintf_r+0x138a>
   1170e:	572e                	lw	a4,232(sp)
   11710:	7682                	ld	a3,32(sp)
   11712:	00d74663          	blt	a4,a3,1171e <_vfprintf_r+0xe40>
   11716:	0014f693          	andi	a3,s1,1
   1171a:	6e068063          	beqz	a3,11dfa <_vfprintf_r+0x151c>
   1171e:	76e6                	ld	a3,120(sp)
   11720:	7646                	ld	a2,112(sp)
   11722:	0341                	addi	t1,t1,16
   11724:	fed33823          	sd	a3,-16(t1)
   11728:	11812683          	lw	a3,280(sp)
   1172c:	97b2                	add	a5,a5,a2
   1172e:	fec33c23          	sd	a2,-8(t1)
   11732:	2685                	addiw	a3,a3,1
   11734:	0006861b          	sext.w	a2,a3
   11738:	10d12c23          	sw	a3,280(sp)
   1173c:	f23e                	sd	a5,288(sp)
   1173e:	469d                	li	a3,7
   11740:	22c6c7e3          	blt	a3,a2,1216e <_vfprintf_r+0x1890>
   11744:	7682                	ld	a3,32(sp)
   11746:	00dc8633          	add	a2,s9,a3
   1174a:	40e6873b          	subw	a4,a3,a4
   1174e:	41b6063b          	subw	a2,a2,s11
   11752:	0007069b          	sext.w	a3,a4
   11756:	00d65363          	bge	a2,a3,1175c <_vfprintf_r+0xe7e>
   1175a:	8732                	mv	a4,a2
   1175c:	00070c9b          	sext.w	s9,a4
   11760:	03905263          	blez	s9,11784 <_vfprintf_r+0xea6>
   11764:	11812603          	lw	a2,280(sp)
   11768:	97e6                	add	a5,a5,s9
   1176a:	01b33023          	sd	s11,0(t1)
   1176e:	0016059b          	addiw	a1,a2,1
   11772:	01933423          	sd	s9,8(t1)
   11776:	f23e                	sd	a5,288(sp)
   11778:	10b12c23          	sw	a1,280(sp)
   1177c:	461d                	li	a2,7
   1177e:	0341                	addi	t1,t1,16
   11780:	26b644e3          	blt	a2,a1,121e8 <_vfprintf_r+0x190a>
   11784:	fffccc13          	not	s8,s9
   11788:	43fc5c13          	srai	s8,s8,0x3f
   1178c:	018cfc33          	and	s8,s9,s8
   11790:	41868c3b          	subw	s8,a3,s8
   11794:	bb805563          	blez	s8,10b3e <_vfprintf_r+0x260>
   11798:	11812703          	lw	a4,280(sp)
   1179c:	3b8d5563          	bge	s10,s8,11b46 <_vfprintf_r+0x1268>
   117a0:	4c9d                	li	s9,7
   117a2:	a021                	j	117aa <_vfprintf_r+0xecc>
   117a4:	3c41                	addiw	s8,s8,-16
   117a6:	3b8d5063          	bge	s10,s8,11b46 <_vfprintf_r+0x1268>
   117aa:	2705                	addiw	a4,a4,1
   117ac:	07c1                	addi	a5,a5,16
   117ae:	01233023          	sd	s2,0(t1)
   117b2:	01a33423          	sd	s10,8(t1)
   117b6:	f23e                	sd	a5,288(sp)
   117b8:	10e12c23          	sw	a4,280(sp)
   117bc:	0341                	addi	t1,t1,16
   117be:	feecd3e3          	bge	s9,a4,117a4 <_vfprintf_r+0xec6>
   117c2:	0a10                	addi	a2,sp,272
   117c4:	85d2                	mv	a1,s4
   117c6:	8556                	mv	a0,s5
   117c8:	6d4070ef          	jal	ra,18e9c <__sprint_r>
   117cc:	ca0519e3          	bnez	a0,1147e <_vfprintf_r+0xba0>
   117d0:	7792                	ld	a5,288(sp)
   117d2:	11812703          	lw	a4,280(sp)
   117d6:	835e                	mv	t1,s7
   117d8:	b7f1                	j	117a4 <_vfprintf_r+0xec6>
   117da:	0014f513          	andi	a0,s1,1
   117de:	cc0518e3          	bnez	a0,114ae <_vfprintf_r+0xbd0>
   117e2:	00b33423          	sd	a1,8(t1)
   117e6:	f26e                	sd	s11,288(sp)
   117e8:	10e12c23          	sw	a4,280(sp)
   117ec:	469d                	li	a3,7
   117ee:	18e6c163          	blt	a3,a4,11970 <_vfprintf_r+0x1092>
   117f2:	2609                	addiw	a2,a2,2
   117f4:	02030313          	addi	t1,t1,32
   117f8:	bb35                	j	11534 <_vfprintf_r+0xc56>
   117fa:	d2d05de3          	blez	a3,11534 <_vfprintf_r+0xc56>
   117fe:	4cdd50e3          	bge	s10,a3,124be <_vfprintf_r+0x1be0>
   11802:	4c9d                	li	s9,7
   11804:	a031                	j	11810 <_vfprintf_r+0xf32>
   11806:	36c1                	addiw	a3,a3,-16
   11808:	14dd5563          	bge	s10,a3,11952 <_vfprintf_r+0x1074>
   1180c:	0017089b          	addiw	a7,a4,1
   11810:	0dc1                	addi	s11,s11,16
   11812:	012c3023          	sd	s2,0(s8)
   11816:	01ac3423          	sd	s10,8(s8)
   1181a:	f26e                	sd	s11,288(sp)
   1181c:	0008871b          	sext.w	a4,a7
   11820:	11112c23          	sw	a7,280(sp)
   11824:	0c41                	addi	s8,s8,16
   11826:	feecd0e3          	bge	s9,a4,11806 <_vfprintf_r+0xf28>
   1182a:	0a10                	addi	a2,sp,272
   1182c:	85d2                	mv	a1,s4
   1182e:	8556                	mv	a0,s5
   11830:	e436                	sd	a3,8(sp)
   11832:	66a070ef          	jal	ra,18e9c <__sprint_r>
   11836:	c40514e3          	bnez	a0,1147e <_vfprintf_r+0xba0>
   1183a:	7d92                	ld	s11,288(sp)
   1183c:	11812703          	lw	a4,280(sp)
   11840:	66a2                	ld	a3,8(sp)
   11842:	8c5e                	mv	s8,s7
   11844:	b7c9                	j	11806 <_vfprintf_r+0xf28>
   11846:	01087793          	andi	a5,a6,16
   1184a:	eb8d                	bnez	a5,1187c <_vfprintf_r+0xf9e>
   1184c:	66c2                	ld	a3,16(sp)
   1184e:	04087793          	andi	a5,a6,64
   11852:	0006a983          	lw	s3,0(a3)
   11856:	36078c63          	beqz	a5,11bce <_vfprintf_r+0x12f0>
   1185a:	19c2                	slli	s3,s3,0x30
   1185c:	0309d993          	srli	s3,s3,0x30
   11860:	e83a                	sd	a4,16(sp)
   11862:	4785                	li	a5,1
   11864:	c26ff06f          	j	10c8a <_vfprintf_r+0x3ac>
   11868:	0014f713          	andi	a4,s1,1
   1186c:	ac070963          	beqz	a4,10b3e <_vfprintf_r+0x260>
   11870:	b461                	j	112f8 <_vfprintf_r+0xa1a>
   11872:	6782                	ld	a5,0(sp)
   11874:	8ca2                	mv	s9,s0
   11876:	e31c                	sd	a5,0(a4)
   11878:	af8ff06f          	j	10b70 <_vfprintf_r+0x292>
   1187c:	67c2                	ld	a5,16(sp)
   1187e:	e83a                	sd	a4,16(sp)
   11880:	0007b983          	ld	s3,0(a5)
   11884:	4785                	li	a5,1
   11886:	c04ff06f          	j	10c8a <_vfprintf_r+0x3ac>
   1188a:	67c2                	ld	a5,16(sp)
   1188c:	639c                	ld	a5,0(a5)
   1188e:	89be                	mv	s3,a5
   11890:	b90ff06f          	j	10c20 <_vfprintf_r+0x342>
   11894:	67c2                	ld	a5,16(sp)
   11896:	0007b983          	ld	s3,0(a5)
   1189a:	be4ff06f          	j	10c7e <_vfprintf_r+0x3a0>
   1189e:	67c2                	ld	a5,16(sp)
   118a0:	07bd                	addi	a5,a5,15
   118a2:	9bc1                	andi	a5,a5,-16
   118a4:	6394                	ld	a3,0(a5)
   118a6:	6798                	ld	a4,8(a5)
   118a8:	07c1                	addi	a5,a5,16
   118aa:	e83e                	sd	a5,16(sp)
   118ac:	e236                	sd	a3,256(sp)
   118ae:	e63a                	sd	a4,264(sp)
   118b0:	c50ff06f          	j	10d00 <_vfprintf_r+0x422>
   118b4:	e83a                	sd	a4,16(sp)
   118b6:	47a5                	li	a5,9
   118b8:	8826                	mv	a6,s1
   118ba:	cb37f3e3          	bgeu	a5,s3,11560 <_vfprintf_r+0xc82>
   118be:	40087793          	andi	a5,a6,1024
   118c2:	18c10c13          	addi	s8,sp,396
   118c6:	2781                	sext.w	a5,a5
   118c8:	f002                	sd	zero,32(sp)
   118ca:	85e2                	mv	a1,s8
   118cc:	44a9                	li	s1,10
   118ce:	4725                	li	a4,9
   118d0:	0ff00693          	li	a3,255
   118d4:	a039                	j	118e2 <_vfprintf_r+0x1004>
   118d6:	0299d633          	divu	a2,s3,s1
   118da:	9d3771e3          	bgeu	a4,s3,1129c <_vfprintf_r+0x9be>
   118de:	89b2                	mv	s3,a2
   118e0:	85e6                	mv	a1,s9
   118e2:	7502                	ld	a0,32(sp)
   118e4:	fff58c93          	addi	s9,a1,-1
   118e8:	2505                	addiw	a0,a0,1
   118ea:	f02a                	sd	a0,32(sp)
   118ec:	0299f633          	remu	a2,s3,s1
   118f0:	0306061b          	addiw	a2,a2,48
   118f4:	fec58fa3          	sb	a2,-1(a1)
   118f8:	dff9                	beqz	a5,118d6 <_vfprintf_r+0xff8>
   118fa:	7626                	ld	a2,104(sp)
   118fc:	00064603          	lbu	a2,0(a2)
   11900:	fcc51be3          	bne	a0,a2,118d6 <_vfprintf_r+0xff8>
   11904:	fcd609e3          	beq	a2,a3,118d6 <_vfprintf_r+0xff8>
   11908:	99377ae3          	bgeu	a4,s3,1129c <_vfprintf_r+0x9be>
   1190c:	fc3e                	sd	a5,56(sp)
   1190e:	67aa                	ld	a5,136(sp)
   11910:	65ca                	ld	a1,144(sp)
   11912:	f81a                	sd	t1,48(sp)
   11914:	40fc8cb3          	sub	s9,s9,a5
   11918:	863e                	mv	a2,a5
   1191a:	8566                	mv	a0,s9
   1191c:	ec76                	sd	t4,24(sp)
   1191e:	e442                	sd	a6,8(sp)
   11920:	07b050ef          	jal	ra,1719a <strncpy>
   11924:	77a6                	ld	a5,104(sp)
   11926:	0299d633          	divu	a2,s3,s1
   1192a:	6822                	ld	a6,8(sp)
   1192c:	0017c583          	lbu	a1,1(a5)
   11930:	6ee2                	ld	t4,24(sp)
   11932:	7342                	ld	t1,48(sp)
   11934:	00b035b3          	snez	a1,a1
   11938:	97ae                	add	a5,a5,a1
   1193a:	f4be                	sd	a5,104(sp)
   1193c:	f002                	sd	zero,32(sp)
   1193e:	77e2                	ld	a5,56(sp)
   11940:	4725                	li	a4,9
   11942:	0ff00693          	li	a3,255
   11946:	bf61                	j	118de <_vfprintf_r+0x1000>
   11948:	00068c1b          	sext.w	s8,a3
   1194c:	d98040e3          	bgtz	s8,116cc <_vfprintf_r+0xdee>
   11950:	bb71                	j	116ec <_vfprintf_r+0xe0e>
   11952:	0017061b          	addiw	a2,a4,1
   11956:	010c0713          	addi	a4,s8,16
   1195a:	9db6                	add	s11,s11,a3
   1195c:	00dc3423          	sd	a3,8(s8)
   11960:	012c3023          	sd	s2,0(s8)
   11964:	f26e                	sd	s11,288(sp)
   11966:	10c12c23          	sw	a2,280(sp)
   1196a:	469d                	li	a3,7
   1196c:	44c6d563          	bge	a3,a2,11db6 <_vfprintf_r+0x14d8>
   11970:	0a10                	addi	a2,sp,272
   11972:	85d2                	mv	a1,s4
   11974:	8556                	mv	a0,s5
   11976:	526070ef          	jal	ra,18e9c <__sprint_r>
   1197a:	b00512e3          	bnez	a0,1147e <_vfprintf_r+0xba0>
   1197e:	11812603          	lw	a2,280(sp)
   11982:	7d92                	ld	s11,288(sp)
   11984:	1a010313          	addi	t1,sp,416
   11988:	2605                	addiw	a2,a2,1
   1198a:	8c5e                	mv	s8,s7
   1198c:	b665                	j	11534 <_vfprintf_r+0xc56>
   1198e:	8826                	mv	a6,s1
   11990:	825ff06f          	j	111b4 <_vfprintf_r+0x8d6>
   11994:	0000b797          	auipc	a5,0xb
   11998:	d1478793          	addi	a5,a5,-748 # 1c6a8 <__clzdi2+0x1be>
   1199c:	f43e                	sd	a5,40(sp)
   1199e:	66c2                	ld	a3,16(sp)
   119a0:	0204f793          	andi	a5,s1,32
   119a4:	00868713          	addi	a4,a3,8
   119a8:	c7f9                	beqz	a5,11a76 <_vfprintf_r+0x1198>
   119aa:	0006b983          	ld	s3,0(a3)
   119ae:	0014f793          	andi	a5,s1,1
   119b2:	cf81                	beqz	a5,119ca <_vfprintf_r+0x10ec>
   119b4:	00098b63          	beqz	s3,119ca <_vfprintf_r+0x10ec>
   119b8:	0024e493          	ori	s1,s1,2
   119bc:	03000793          	li	a5,48
   119c0:	0ef10023          	sb	a5,224(sp)
   119c4:	0fb100a3          	sb	s11,225(sp)
   119c8:	2481                	sext.w	s1,s1
   119ca:	bff4f493          	andi	s1,s1,-1025
   119ce:	0004881b          	sext.w	a6,s1
   119d2:	e83a                	sd	a4,16(sp)
   119d4:	4789                	li	a5,2
   119d6:	ab4ff06f          	j	10c8a <_vfprintf_r+0x3ac>
   119da:	2004e493          	ori	s1,s1,512
   119de:	00144f03          	lbu	t5,1(s0)
   119e2:	2481                	sext.w	s1,s1
   119e4:	0405                	addi	s0,s0,1
   119e6:	82cff06f          	j	10a12 <_vfprintf_r+0x134>
   119ea:	0204e493          	ori	s1,s1,32
   119ee:	00144f03          	lbu	t5,1(s0)
   119f2:	2481                	sext.w	s1,s1
   119f4:	0405                	addi	s0,s0,1
   119f6:	81cff06f          	j	10a12 <_vfprintf_r+0x134>
   119fa:	0a10                	addi	a2,sp,272
   119fc:	85d2                	mv	a1,s4
   119fe:	8556                	mv	a0,s5
   11a00:	49c070ef          	jal	ra,18e9c <__sprint_r>
   11a04:	a6051de3          	bnez	a0,1147e <_vfprintf_r+0xba0>
   11a08:	7792                	ld	a5,288(sp)
   11a0a:	835e                	mv	t1,s7
   11a0c:	ba09                	j	1131e <_vfprintf_r+0xa40>
   11a0e:	0000b797          	auipc	a5,0xb
   11a12:	c8278793          	addi	a5,a5,-894 # 1c690 <__clzdi2+0x1a6>
   11a16:	f43e                	sd	a5,40(sp)
   11a18:	b759                	j	1199e <_vfprintf_r+0x10c0>
   11a1a:	4799                	li	a5,6
   11a1c:	000e8c1b          	sext.w	s8,t4
   11a20:	3dd7eb63          	bltu	a5,t4,11df6 <_vfprintf_r+0x1518>
   11a24:	89e2                	mv	s3,s8
   11a26:	e836                	sd	a3,16(sp)
   11a28:	0000bc97          	auipc	s9,0xb
   11a2c:	c98c8c93          	addi	s9,s9,-872 # 1c6c0 <__clzdi2+0x1d6>
   11a30:	854ff06f          	j	10a84 <_vfprintf_r+0x1a6>
   11a34:	11812703          	lw	a4,280(sp)
   11a38:	218d5063          	bge	s10,s8,11c38 <_vfprintf_r+0x135a>
   11a3c:	4d9d                	li	s11,7
   11a3e:	a021                	j	11a46 <_vfprintf_r+0x1168>
   11a40:	3c41                	addiw	s8,s8,-16
   11a42:	1f8d5b63          	bge	s10,s8,11c38 <_vfprintf_r+0x135a>
   11a46:	2705                	addiw	a4,a4,1
   11a48:	07c1                	addi	a5,a5,16
   11a4a:	01233023          	sd	s2,0(t1)
   11a4e:	01a33423          	sd	s10,8(t1)
   11a52:	f23e                	sd	a5,288(sp)
   11a54:	10e12c23          	sw	a4,280(sp)
   11a58:	0341                	addi	t1,t1,16
   11a5a:	feedd3e3          	bge	s11,a4,11a40 <_vfprintf_r+0x1162>
   11a5e:	0a10                	addi	a2,sp,272
   11a60:	85d2                	mv	a1,s4
   11a62:	8556                	mv	a0,s5
   11a64:	438070ef          	jal	ra,18e9c <__sprint_r>
   11a68:	a0051be3          	bnez	a0,1147e <_vfprintf_r+0xba0>
   11a6c:	7792                	ld	a5,288(sp)
   11a6e:	11812703          	lw	a4,280(sp)
   11a72:	835e                	mv	t1,s7
   11a74:	b7f1                	j	11a40 <_vfprintf_r+0x1162>
   11a76:	0104f793          	andi	a5,s1,16
   11a7a:	c3cd                	beqz	a5,11b1c <_vfprintf_r+0x123e>
   11a7c:	67c2                	ld	a5,16(sp)
   11a7e:	0007b983          	ld	s3,0(a5)
   11a82:	b735                	j	119ae <_vfprintf_r+0x10d0>
   11a84:	0a10                	addi	a2,sp,272
   11a86:	85d2                	mv	a1,s4
   11a88:	8556                	mv	a0,s5
   11a8a:	412070ef          	jal	ra,18e9c <__sprint_r>
   11a8e:	9e0518e3          	bnez	a0,1147e <_vfprintf_r+0xba0>
   11a92:	7d92                	ld	s11,288(sp)
   11a94:	11812703          	lw	a4,280(sp)
   11a98:	8c5e                	mv	s8,s7
   11a9a:	b41d                	j	114c0 <_vfprintf_r+0xbe2>
   11a9c:	0a10                	addi	a2,sp,272
   11a9e:	85d2                	mv	a1,s4
   11aa0:	8556                	mv	a0,s5
   11aa2:	3fa070ef          	jal	ra,18e9c <__sprint_r>
   11aa6:	9c051ce3          	bnez	a0,1147e <_vfprintf_r+0xba0>
   11aaa:	7d92                	ld	s11,288(sp)
   11aac:	11812703          	lw	a4,280(sp)
   11ab0:	8c5e                	mv	s8,s7
   11ab2:	bc0d                	j	114e4 <_vfprintf_r+0xc06>
   11ab4:	11812703          	lw	a4,280(sp)
   11ab8:	0000b697          	auipc	a3,0xb
   11abc:	c1068693          	addi	a3,a3,-1008 # 1c6c8 <__clzdi2+0x1de>
   11ac0:	00d33023          	sd	a3,0(t1)
   11ac4:	2705                	addiw	a4,a4,1
   11ac6:	4685                	li	a3,1
   11ac8:	0785                	addi	a5,a5,1
   11aca:	00d33423          	sd	a3,8(t1)
   11ace:	10e12c23          	sw	a4,280(sp)
   11ad2:	0007069b          	sext.w	a3,a4
   11ad6:	f23e                	sd	a5,288(sp)
   11ad8:	471d                	li	a4,7
   11ada:	0341                	addi	t1,t1,16
   11adc:	2ed74363          	blt	a4,a3,11dc2 <_vfprintf_r+0x14e4>
   11ae0:	c4061363          	bnez	a2,10f26 <_vfprintf_r+0x648>
   11ae4:	7682                	ld	a3,32(sp)
   11ae6:	0014f713          	andi	a4,s1,1
   11aea:	8f55                	or	a4,a4,a3
   11aec:	e319                	bnez	a4,11af2 <_vfprintf_r+0x1214>
   11aee:	850ff06f          	j	10b3e <_vfprintf_r+0x260>
   11af2:	76e6                	ld	a3,120(sp)
   11af4:	7746                	ld	a4,112(sp)
   11af6:	00d33023          	sd	a3,0(t1)
   11afa:	11812683          	lw	a3,280(sp)
   11afe:	97ba                	add	a5,a5,a4
   11b00:	00e33423          	sd	a4,8(t1)
   11b04:	2685                	addiw	a3,a3,1
   11b06:	0006871b          	sext.w	a4,a3
   11b0a:	10d12c23          	sw	a3,280(sp)
   11b0e:	f23e                	sd	a5,288(sp)
   11b10:	469d                	li	a3,7
   11b12:	c2e6cd63          	blt	a3,a4,10f4c <_vfprintf_r+0x66e>
   11b16:	0341                	addi	t1,t1,16
   11b18:	c54ff06f          	j	10f6c <_vfprintf_r+0x68e>
   11b1c:	66c2                	ld	a3,16(sp)
   11b1e:	0404f793          	andi	a5,s1,64
   11b22:	0006a983          	lw	s3,0(a3)
   11b26:	cbe1                	beqz	a5,11bf6 <_vfprintf_r+0x1318>
   11b28:	19c2                	slli	s3,s3,0x30
   11b2a:	0309d993          	srli	s3,s3,0x30
   11b2e:	b541                	j	119ae <_vfprintf_r+0x10d0>
   11b30:	0a10                	addi	a2,sp,272
   11b32:	85d2                	mv	a1,s4
   11b34:	8556                	mv	a0,s5
   11b36:	366070ef          	jal	ra,18e9c <__sprint_r>
   11b3a:	940512e3          	bnez	a0,1147e <_vfprintf_r+0xba0>
   11b3e:	7792                	ld	a5,288(sp)
   11b40:	835e                	mv	t1,s7
   11b42:	faeff06f          	j	112f0 <_vfprintf_r+0xa12>
   11b46:	0017069b          	addiw	a3,a4,1
   11b4a:	8736                	mv	a4,a3
   11b4c:	97e2                	add	a5,a5,s8
   11b4e:	01233023          	sd	s2,0(t1)
   11b52:	fdbfe06f          	j	10b2c <_vfprintf_r+0x24e>
   11b56:	6512                	ld	a0,256(sp)
   11b58:	65b2                	ld	a1,264(sp)
   11b5a:	4601                	li	a2,0
   11b5c:	4681                	li	a3,0
   11b5e:	e41a                	sd	t1,8(sp)
   11b60:	6f0090ef          	jal	ra,1b250 <__letf2>
   11b64:	6322                	ld	t1,8(sp)
   11b66:	54054763          	bltz	a0,120b4 <_vfprintf_r+0x17d6>
   11b6a:	0df14783          	lbu	a5,223(sp)
   11b6e:	04700713          	li	a4,71
   11b72:	0000bc97          	auipc	s9,0xb
   11b76:	afec8c93          	addi	s9,s9,-1282 # 1c670 <__clzdi2+0x186>
   11b7a:	25b74f63          	blt	a4,s11,11dd8 <_vfprintf_r+0x14fa>
   11b7e:	f7f4f493          	andi	s1,s1,-129
   11b82:	ec02                	sd	zero,24(sp)
   11b84:	e882                	sd	zero,80(sp)
   11b86:	f082                	sd	zero,96(sp)
   11b88:	ec82                	sd	zero,88(sp)
   11b8a:	2481                	sext.w	s1,s1
   11b8c:	498d                	li	s3,3
   11b8e:	4c0d                	li	s8,3
   11b90:	4e81                	li	t4,0
   11b92:	8c079863          	bnez	a5,10c62 <_vfprintf_r+0x384>
   11b96:	ef9fe06f          	j	10a8e <_vfprintf_r+0x1b0>
   11b9a:	8566                	mv	a0,s9
   11b9c:	e41a                	sd	t1,8(sp)
   11b9e:	e836                	sd	a3,16(sp)
   11ba0:	cabfe0ef          	jal	ra,1084a <strlen>
   11ba4:	00050c1b          	sext.w	s8,a0
   11ba8:	fffc4993          	not	s3,s8
   11bac:	0df14783          	lbu	a5,223(sp)
   11bb0:	43f9d993          	srai	s3,s3,0x3f
   11bb4:	013c79b3          	and	s3,s8,s3
   11bb8:	ec02                	sd	zero,24(sp)
   11bba:	e882                	sd	zero,80(sp)
   11bbc:	f082                	sd	zero,96(sp)
   11bbe:	ec82                	sd	zero,88(sp)
   11bc0:	6322                	ld	t1,8(sp)
   11bc2:	2981                	sext.w	s3,s3
   11bc4:	4e81                	li	t4,0
   11bc6:	88079e63          	bnez	a5,10c62 <_vfprintf_r+0x384>
   11bca:	ec5fe06f          	j	10a8e <_vfprintf_r+0x1b0>
   11bce:	20087793          	andi	a5,a6,512
   11bd2:	26078463          	beqz	a5,11e3a <_vfprintf_r+0x155c>
   11bd6:	0ff9f993          	andi	s3,s3,255
   11bda:	e83a                	sd	a4,16(sp)
   11bdc:	4785                	li	a5,1
   11bde:	8acff06f          	j	10c8a <_vfprintf_r+0x3ac>
   11be2:	2004f793          	andi	a5,s1,512
   11be6:	24078463          	beqz	a5,11e2e <_vfprintf_r+0x1550>
   11bea:	67c2                	ld	a5,16(sp)
   11bec:	00078983          	lb	s3,0(a5)
   11bf0:	87ce                	mv	a5,s3
   11bf2:	82eff06f          	j	10c20 <_vfprintf_r+0x342>
   11bf6:	2004f793          	andi	a5,s1,512
   11bfa:	24078763          	beqz	a5,11e48 <_vfprintf_r+0x156a>
   11bfe:	0ff9f993          	andi	s3,s3,255
   11c02:	b375                	j	119ae <_vfprintf_r+0x10d0>
   11c04:	2004f793          	andi	a5,s1,512
   11c08:	20078e63          	beqz	a5,11e24 <_vfprintf_r+0x1546>
   11c0c:	0ff9f993          	andi	s3,s3,255
   11c10:	86eff06f          	j	10c7e <_vfprintf_r+0x3a0>
   11c14:	67b2                	ld	a5,264(sp)
   11c16:	2207cd63          	bltz	a5,11e50 <_vfprintf_r+0x1572>
   11c1a:	0df14783          	lbu	a5,223(sp)
   11c1e:	04700713          	li	a4,71
   11c22:	0000bc97          	auipc	s9,0xb
   11c26:	a5ec8c93          	addi	s9,s9,-1442 # 1c680 <__clzdi2+0x196>
   11c2a:	f5b75ae3          	bge	a4,s11,11b7e <_vfprintf_r+0x12a0>
   11c2e:	0000bc97          	auipc	s9,0xb
   11c32:	a5ac8c93          	addi	s9,s9,-1446 # 1c688 <__clzdi2+0x19e>
   11c36:	b7a1                	j	11b7e <_vfprintf_r+0x12a0>
   11c38:	0017069b          	addiw	a3,a4,1
   11c3c:	97e2                	add	a5,a5,s8
   11c3e:	01233023          	sd	s2,0(t1)
   11c42:	01833423          	sd	s8,8(t1)
   11c46:	f23e                	sd	a5,288(sp)
   11c48:	10d12c23          	sw	a3,280(sp)
   11c4c:	471d                	li	a4,7
   11c4e:	0341                	addi	t1,t1,16
   11c50:	aad758e3          	bge	a4,a3,11700 <_vfprintf_r+0xe22>
   11c54:	0a10                	addi	a2,sp,272
   11c56:	85d2                	mv	a1,s4
   11c58:	8556                	mv	a0,s5
   11c5a:	242070ef          	jal	ra,18e9c <__sprint_r>
   11c5e:	820510e3          	bnez	a0,1147e <_vfprintf_r+0xba0>
   11c62:	7792                	ld	a5,288(sp)
   11c64:	835e                	mv	t1,s7
   11c66:	bc69                	j	11700 <_vfprintf_r+0xe22>
   11c68:	7702                	ld	a4,32(sp)
   11c6a:	4c1d                	li	s8,7
   11c6c:	9766                	add	a4,a4,s9
   11c6e:	f83a                	sd	a4,48(sp)
   11c70:	7706                	ld	a4,96(sp)
   11c72:	cb49                	beqz	a4,11d04 <_vfprintf_r+0x1426>
   11c74:	6746                	ld	a4,80(sp)
   11c76:	eb51                	bnez	a4,11d0a <_vfprintf_r+0x142c>
   11c78:	7726                	ld	a4,104(sp)
   11c7a:	177d                	addi	a4,a4,-1
   11c7c:	f4ba                	sd	a4,104(sp)
   11c7e:	7706                	ld	a4,96(sp)
   11c80:	377d                	addiw	a4,a4,-1
   11c82:	f0ba                	sd	a4,96(sp)
   11c84:	674a                	ld	a4,144(sp)
   11c86:	66aa                	ld	a3,136(sp)
   11c88:	0341                	addi	t1,t1,16
   11c8a:	fee33823          	sd	a4,-16(t1)
   11c8e:	11812703          	lw	a4,280(sp)
   11c92:	97b6                	add	a5,a5,a3
   11c94:	fed33c23          	sd	a3,-8(t1)
   11c98:	2705                	addiw	a4,a4,1
   11c9a:	f23e                	sd	a5,288(sp)
   11c9c:	0007069b          	sext.w	a3,a4
   11ca0:	10e12c23          	sw	a4,280(sp)
   11ca4:	0cdc4e63          	blt	s8,a3,11d80 <_vfprintf_r+0x14a2>
   11ca8:	7726                	ld	a4,104(sp)
   11caa:	00074603          	lbu	a2,0(a4)
   11cae:	7742                	ld	a4,48(sp)
   11cb0:	41b705bb          	subw	a1,a4,s11
   11cb4:	0006071b          	sext.w	a4,a2
   11cb8:	0007069b          	sext.w	a3,a4
   11cbc:	00e5d463          	bge	a1,a4,11cc4 <_vfprintf_r+0x13e6>
   11cc0:	0005869b          	sext.w	a3,a1
   11cc4:	02d05663          	blez	a3,11cf0 <_vfprintf_r+0x1412>
   11cc8:	11812703          	lw	a4,280(sp)
   11ccc:	97b6                	add	a5,a5,a3
   11cce:	01b33023          	sd	s11,0(t1)
   11cd2:	0017061b          	addiw	a2,a4,1
   11cd6:	00d33423          	sd	a3,8(t1)
   11cda:	f23e                	sd	a5,288(sp)
   11cdc:	10c12c23          	sw	a2,280(sp)
   11ce0:	0acc4a63          	blt	s8,a2,11d94 <_vfprintf_r+0x14b6>
   11ce4:	7726                	ld	a4,104(sp)
   11ce6:	0341                	addi	t1,t1,16
   11ce8:	00074603          	lbu	a2,0(a4)
   11cec:	0006071b          	sext.w	a4,a2
   11cf0:	fff6c593          	not	a1,a3
   11cf4:	95fd                	srai	a1,a1,0x3f
   11cf6:	8eed                	and	a3,a3,a1
   11cf8:	9f15                	subw	a4,a4,a3
   11cfa:	00e04c63          	bgtz	a4,11d12 <_vfprintf_r+0x1434>
   11cfe:	9db2                	add	s11,s11,a2
   11d00:	7706                	ld	a4,96(sp)
   11d02:	fb2d                	bnez	a4,11c74 <_vfprintf_r+0x1396>
   11d04:	6746                	ld	a4,80(sp)
   11d06:	30070463          	beqz	a4,1200e <_vfprintf_r+0x1730>
   11d0a:	6746                	ld	a4,80(sp)
   11d0c:	377d                	addiw	a4,a4,-1
   11d0e:	e8ba                	sd	a4,80(sp)
   11d10:	bf95                	j	11c84 <_vfprintf_r+0x13a6>
   11d12:	11812683          	lw	a3,280(sp)
   11d16:	00ed4663          	blt	s10,a4,11d22 <_vfprintf_r+0x1444>
   11d1a:	a081                	j	11d5a <_vfprintf_r+0x147c>
   11d1c:	3741                	addiw	a4,a4,-16
   11d1e:	02ed5e63          	bge	s10,a4,11d5a <_vfprintf_r+0x147c>
   11d22:	2685                	addiw	a3,a3,1
   11d24:	07c1                	addi	a5,a5,16
   11d26:	01233023          	sd	s2,0(t1)
   11d2a:	01a33423          	sd	s10,8(t1)
   11d2e:	f23e                	sd	a5,288(sp)
   11d30:	10d12c23          	sw	a3,280(sp)
   11d34:	0341                	addi	t1,t1,16
   11d36:	fedc53e3          	bge	s8,a3,11d1c <_vfprintf_r+0x143e>
   11d3a:	0a10                	addi	a2,sp,272
   11d3c:	85d2                	mv	a1,s4
   11d3e:	8556                	mv	a0,s5
   11d40:	e43a                	sd	a4,8(sp)
   11d42:	15a070ef          	jal	ra,18e9c <__sprint_r>
   11d46:	f2051c63          	bnez	a0,1147e <_vfprintf_r+0xba0>
   11d4a:	6722                	ld	a4,8(sp)
   11d4c:	7792                	ld	a5,288(sp)
   11d4e:	11812683          	lw	a3,280(sp)
   11d52:	3741                	addiw	a4,a4,-16
   11d54:	835e                	mv	t1,s7
   11d56:	fced46e3          	blt	s10,a4,11d22 <_vfprintf_r+0x1444>
   11d5a:	2685                	addiw	a3,a3,1
   11d5c:	97ba                	add	a5,a5,a4
   11d5e:	00e33423          	sd	a4,8(t1)
   11d62:	01233023          	sd	s2,0(t1)
   11d66:	f23e                	sd	a5,288(sp)
   11d68:	0006871b          	sext.w	a4,a3
   11d6c:	10d12c23          	sw	a3,280(sp)
   11d70:	32ec4463          	blt	s8,a4,12098 <_vfprintf_r+0x17ba>
   11d74:	7726                	ld	a4,104(sp)
   11d76:	0341                	addi	t1,t1,16
   11d78:	00074603          	lbu	a2,0(a4)
   11d7c:	9db2                	add	s11,s11,a2
   11d7e:	b749                	j	11d00 <_vfprintf_r+0x1422>
   11d80:	0a10                	addi	a2,sp,272
   11d82:	85d2                	mv	a1,s4
   11d84:	8556                	mv	a0,s5
   11d86:	116070ef          	jal	ra,18e9c <__sprint_r>
   11d8a:	ee051a63          	bnez	a0,1147e <_vfprintf_r+0xba0>
   11d8e:	7792                	ld	a5,288(sp)
   11d90:	835e                	mv	t1,s7
   11d92:	bf19                	j	11ca8 <_vfprintf_r+0x13ca>
   11d94:	0a10                	addi	a2,sp,272
   11d96:	85d2                	mv	a1,s4
   11d98:	8556                	mv	a0,s5
   11d9a:	e436                	sd	a3,8(sp)
   11d9c:	100070ef          	jal	ra,18e9c <__sprint_r>
   11da0:	ec051f63          	bnez	a0,1147e <_vfprintf_r+0xba0>
   11da4:	77a6                	ld	a5,104(sp)
   11da6:	66a2                	ld	a3,8(sp)
   11da8:	835e                	mv	t1,s7
   11daa:	0007c603          	lbu	a2,0(a5)
   11dae:	7792                	ld	a5,288(sp)
   11db0:	0006071b          	sext.w	a4,a2
   11db4:	bf35                	j	11cf0 <_vfprintf_r+0x1412>
   11db6:	2605                	addiw	a2,a2,1
   11db8:	01070313          	addi	t1,a4,16
   11dbc:	8c3a                	mv	s8,a4
   11dbe:	f76ff06f          	j	11534 <_vfprintf_r+0xc56>
   11dc2:	0a10                	addi	a2,sp,272
   11dc4:	85d2                	mv	a1,s4
   11dc6:	8556                	mv	a0,s5
   11dc8:	0d4070ef          	jal	ra,18e9c <__sprint_r>
   11dcc:	ea051963          	bnez	a0,1147e <_vfprintf_r+0xba0>
   11dd0:	562e                	lw	a2,232(sp)
   11dd2:	7792                	ld	a5,288(sp)
   11dd4:	835e                	mv	t1,s7
   11dd6:	b329                	j	11ae0 <_vfprintf_r+0x1202>
   11dd8:	0000bc97          	auipc	s9,0xb
   11ddc:	8a0c8c93          	addi	s9,s9,-1888 # 1c678 <__clzdi2+0x18e>
   11de0:	bb79                	j	11b7e <_vfprintf_r+0x12a0>
   11de2:	0a10                	addi	a2,sp,272
   11de4:	85d2                	mv	a1,s4
   11de6:	8556                	mv	a0,s5
   11de8:	0b4070ef          	jal	ra,18e9c <__sprint_r>
   11dec:	e8051963          	bnez	a0,1147e <_vfprintf_r+0xba0>
   11df0:	7792                	ld	a5,288(sp)
   11df2:	835e                	mv	t1,s7
   11df4:	b8e5                	j	116ec <_vfprintf_r+0xe0e>
   11df6:	4c19                	li	s8,6
   11df8:	b135                	j	11a24 <_vfprintf_r+0x1146>
   11dfa:	7682                	ld	a3,32(sp)
   11dfc:	00dc8833          	add	a6,s9,a3
   11e00:	40e6873b          	subw	a4,a3,a4
   11e04:	41b80ebb          	subw	t4,a6,s11
   11e08:	0007069b          	sext.w	a3,a4
   11e0c:	00ded363          	bge	t4,a3,11e12 <_vfprintf_r+0x1534>
   11e10:	8776                	mv	a4,t4
   11e12:	00070c9b          	sext.w	s9,a4
   11e16:	b2bd                	j	11784 <_vfprintf_r+0xea6>
   11e18:	6782                	ld	a5,0(sp)
   11e1a:	8ca2                	mv	s9,s0
   11e1c:	00f71023          	sh	a5,0(a4)
   11e20:	d51fe06f          	j	10b70 <_vfprintf_r+0x292>
   11e24:	1982                	slli	s3,s3,0x20
   11e26:	0209d993          	srli	s3,s3,0x20
   11e2a:	e55fe06f          	j	10c7e <_vfprintf_r+0x3a0>
   11e2e:	67c2                	ld	a5,16(sp)
   11e30:	0007a983          	lw	s3,0(a5)
   11e34:	87ce                	mv	a5,s3
   11e36:	debfe06f          	j	10c20 <_vfprintf_r+0x342>
   11e3a:	1982                	slli	s3,s3,0x20
   11e3c:	0209d993          	srli	s3,s3,0x20
   11e40:	e83a                	sd	a4,16(sp)
   11e42:	4785                	li	a5,1
   11e44:	e47fe06f          	j	10c8a <_vfprintf_r+0x3ac>
   11e48:	1982                	slli	s3,s3,0x20
   11e4a:	0209d993          	srli	s3,s3,0x20
   11e4e:	b685                	j	119ae <_vfprintf_r+0x10d0>
   11e50:	02d00793          	li	a5,45
   11e54:	0cf10fa3          	sb	a5,223(sp)
   11e58:	b3d9                	j	11c1e <_vfprintf_r+0x1340>
   11e5a:	0a10                	addi	a2,sp,272
   11e5c:	85d2                	mv	a1,s4
   11e5e:	8556                	mv	a0,s5
   11e60:	03c070ef          	jal	ra,18e9c <__sprint_r>
   11e64:	d1dfe06f          	j	10b80 <_vfprintf_r+0x2a2>
   11e68:	03000793          	li	a5,48
   11e6c:	0ef10023          	sb	a5,224(sp)
   11e70:	05800713          	li	a4,88
   11e74:	0024e793          	ori	a5,s1,2
   11e78:	2781                	sext.w	a5,a5
   11e7a:	0ee100a3          	sb	a4,225(sp)
   11e7e:	ed3e                	sd	a5,152(sp)
   11e80:	06300713          	li	a4,99
   11e84:	ec02                	sd	zero,24(sp)
   11e86:	12810c93          	addi	s9,sp,296
   11e8a:	47d74563          	blt	a4,t4,122f4 <_vfprintf_r+0x1a16>
   11e8e:	69b2                	ld	s3,264(sp)
   11e90:	fdfdf713          	andi	a4,s11,-33
   11e94:	1024e493          	ori	s1,s1,258
   11e98:	f0ba                	sd	a4,96(sp)
   11e9a:	e582                	sd	zero,200(sp)
   11e9c:	6c12                	ld	s8,256(sp)
   11e9e:	2481                	sext.w	s1,s1
   11ea0:	1e09c463          	bltz	s3,12088 <_vfprintf_r+0x17aa>
   11ea4:	06100793          	li	a5,97
   11ea8:	52fd8c63          	beq	s11,a5,123e0 <_vfprintf_r+0x1b02>
   11eac:	04100793          	li	a5,65
   11eb0:	00fd8463          	beq	s11,a5,11eb8 <_vfprintf_r+0x15da>
   11eb4:	eb7fe06f          	j	10d6a <_vfprintf_r+0x48c>
   11eb8:	85ce                	mv	a1,s3
   11eba:	8562                	mv	a0,s8
   11ebc:	fc1a                	sd	t1,56(sp)
   11ebe:	f876                	sd	t4,48(sp)
   11ec0:	3f80a0ef          	jal	ra,1c2b8 <__trunctfdf2>
   11ec4:	11a8                	addi	a0,sp,232
   11ec6:	765040ef          	jal	ra,16e2a <frexp>
   11eca:	32e0a0ef          	jal	ra,1c1f8 <__extenddftf2>
   11ece:	0000b797          	auipc	a5,0xb
   11ed2:	9b278793          	addi	a5,a5,-1614 # 1c880 <zeroes.4521+0x30>
   11ed6:	6390                	ld	a2,0(a5)
   11ed8:	6794                	ld	a3,8(a5)
   11eda:	41e090ef          	jal	ra,1b2f8 <__multf3>
   11ede:	4601                	li	a2,0
   11ee0:	4681                	li	a3,0
   11ee2:	f02a                	sd	a0,32(sp)
   11ee4:	e42e                	sd	a1,8(sp)
   11ee6:	22e090ef          	jal	ra,1b114 <__eqtf2>
   11eea:	62a2                	ld	t0,8(sp)
   11eec:	7702                	ld	a4,32(sp)
   11eee:	7ec2                	ld	t4,48(sp)
   11ef0:	7362                	ld	t1,56(sp)
   11ef2:	e119                	bnez	a0,11ef8 <_vfprintf_r+0x161a>
   11ef4:	4785                	li	a5,1
   11ef6:	d5be                	sw	a5,232(sp)
   11ef8:	0000a797          	auipc	a5,0xa
   11efc:	79878793          	addi	a5,a5,1944 # 1c690 <__clzdi2+0x1a6>
   11f00:	e8be                	sd	a5,80(sp)
   11f02:	020e9793          	slli	a5,t4,0x20
   11f06:	0000b697          	auipc	a3,0xb
   11f0a:	95a68693          	addi	a3,a3,-1702 # 1c860 <zeroes.4521+0x10>
   11f0e:	9381                	srli	a5,a5,0x20
   11f10:	6290                	ld	a2,0(a3)
   11f12:	0785                	addi	a5,a5,1
   11f14:	6694                	ld	a3,8(a3)
   11f16:	97e6                	add	a5,a5,s9
   11f18:	f13e                	sd	a5,160(sp)
   11f1a:	01dc87bb          	addw	a5,s9,t4
   11f1e:	fd32                	sd	a2,184(sp)
   11f20:	e1b6                	sd	a3,192(sp)
   11f22:	8c66                	mv	s8,s9
   11f24:	db3e                	sw	a5,180(sp)
   11f26:	a831                	j	11f42 <_vfprintf_r+0x1664>
   11f28:	4601                	li	a2,0
   11f2a:	4681                	li	a3,0
   11f2c:	e4ae                	sd	a1,72(sp)
   11f2e:	e0aa                	sd	a0,64(sp)
   11f30:	1e4090ef          	jal	ra,1b114 <__eqtf2>
   11f34:	7ec2                	ld	t4,48(sp)
   11f36:	7362                	ld	t1,56(sp)
   11f38:	6f86                	ld	t6,64(sp)
   11f3a:	68a6                	ld	a7,72(sp)
   11f3c:	62a2                	ld	t0,8(sp)
   11f3e:	7702                	ld	a4,32(sp)
   11f40:	c135                	beqz	a0,11fa4 <_vfprintf_r+0x16c6>
   11f42:	766a                	ld	a2,184(sp)
   11f44:	668e                	ld	a3,192(sp)
   11f46:	853a                	mv	a0,a4
   11f48:	8596                	mv	a1,t0
   11f4a:	fc1a                	sd	t1,56(sp)
   11f4c:	f876                	sd	t4,48(sp)
   11f4e:	3aa090ef          	jal	ra,1b2f8 <__multf3>
   11f52:	e42e                	sd	a1,8(sp)
   11f54:	f02a                	sd	a0,32(sp)
   11f56:	1b00a0ef          	jal	ra,1c106 <__fixtfsi>
   11f5a:	0005099b          	sext.w	s3,a0
   11f5e:	854e                	mv	a0,s3
   11f60:	23c0a0ef          	jal	ra,1c19c <__floatsitf>
   11f64:	7882                	ld	a7,32(sp)
   11f66:	6722                	ld	a4,8(sp)
   11f68:	862a                	mv	a2,a0
   11f6a:	86ae                	mv	a3,a1
   11f6c:	8546                	mv	a0,a7
   11f6e:	85ba                	mv	a1,a4
   11f70:	19b090ef          	jal	ra,1b90a <__subtf3>
   11f74:	67c6                	ld	a5,80(sp)
   11f76:	f562                	sd	s8,168(sp)
   11f78:	0c05                	addi	s8,s8,1
   11f7a:	01378733          	add	a4,a5,s3
   11f7e:	57da                	lw	a5,180(sp)
   11f80:	00074703          	lbu	a4,0(a4)
   11f84:	f02a                	sd	a0,32(sp)
   11f86:	418787bb          	subw	a5,a5,s8
   11f8a:	ecbe                	sd	a5,88(sp)
   11f8c:	778a                	ld	a5,160(sp)
   11f8e:	feec0fa3          	sb	a4,-1(s8)
   11f92:	e42e                	sd	a1,8(sp)
   11f94:	7ec2                	ld	t4,48(sp)
   11f96:	7362                	ld	t1,56(sp)
   11f98:	8faa                	mv	t6,a0
   11f9a:	88ae                	mv	a7,a1
   11f9c:	f98796e3          	bne	a5,s8,11f28 <_vfprintf_r+0x164a>
   11fa0:	57fd                	li	a5,-1
   11fa2:	ecbe                	sd	a5,88(sp)
   11fa4:	0000b717          	auipc	a4,0xb
   11fa8:	8cc70713          	addi	a4,a4,-1844 # 1c870 <zeroes.4521+0x20>
   11fac:	6310                	ld	a2,0(a4)
   11fae:	6714                	ld	a3,8(a4)
   11fb0:	857e                	mv	a0,t6
   11fb2:	85c6                	mv	a1,a7
   11fb4:	f01a                	sd	t1,32(sp)
   11fb6:	e476                	sd	t4,8(sp)
   11fb8:	e4fe                	sd	t6,72(sp)
   11fba:	e0b2                	sd	a2,64(sp)
   11fbc:	fc36                	sd	a3,56(sp)
   11fbe:	f846                	sd	a7,48(sp)
   11fc0:	1e8090ef          	jal	ra,1b1a8 <__getf2>
   11fc4:	6ea2                	ld	t4,8(sp)
   11fc6:	7302                	ld	t1,32(sp)
   11fc8:	2ca04f63          	bgtz	a0,122a6 <_vfprintf_r+0x19c8>
   11fcc:	6fa6                	ld	t6,72(sp)
   11fce:	78c2                	ld	a7,48(sp)
   11fd0:	6606                	ld	a2,64(sp)
   11fd2:	76e2                	ld	a3,56(sp)
   11fd4:	857e                	mv	a0,t6
   11fd6:	85c6                	mv	a1,a7
   11fd8:	13c090ef          	jal	ra,1b114 <__eqtf2>
   11fdc:	6ea2                	ld	t4,8(sp)
   11fde:	7302                	ld	t1,32(sp)
   11fe0:	e509                	bnez	a0,11fea <_vfprintf_r+0x170c>
   11fe2:	0019f993          	andi	s3,s3,1
   11fe6:	2c099063          	bnez	s3,122a6 <_vfprintf_r+0x19c8>
   11fea:	67e6                	ld	a5,88(sp)
   11fec:	03000693          	li	a3,48
   11ff0:	00178713          	addi	a4,a5,1
   11ff4:	9762                	add	a4,a4,s8
   11ff6:	0007c763          	bltz	a5,12004 <_vfprintf_r+0x1726>
   11ffa:	0c05                	addi	s8,s8,1
   11ffc:	fedc0fa3          	sb	a3,-1(s8)
   12000:	ff871de3          	bne	a4,s8,11ffa <_vfprintf_r+0x171c>
   12004:	419c07bb          	subw	a5,s8,s9
   12008:	f03e                	sd	a5,32(sp)
   1200a:	de5fe06f          	j	10dee <_vfprintf_r+0x510>
   1200e:	7702                	ld	a4,32(sp)
   12010:	9766                	add	a4,a4,s9
   12012:	efb77e63          	bgeu	a4,s11,1170e <_vfprintf_r+0xe30>
   12016:	8dba                	mv	s11,a4
   12018:	ef6ff06f          	j	1170e <_vfprintf_r+0xe30>
   1201c:	6766                	ld	a4,88(sp)
   1201e:	57f5                	li	a5,-3
   12020:	00f74463          	blt	a4,a5,12028 <_vfprintf_r+0x174a>
   12024:	00eed863          	bge	t4,a4,12034 <_vfprintf_r+0x1756>
   12028:	3df9                	addiw	s11,s11,-2
   1202a:	fdfdf793          	andi	a5,s11,-33
   1202e:	f0be                	sd	a5,96(sp)
   12030:	ddffe06f          	j	10e0e <_vfprintf_r+0x530>
   12034:	7782                	ld	a5,32(sp)
   12036:	6766                	ld	a4,88(sp)
   12038:	16f74563          	blt	a4,a5,121a2 <_vfprintf_r+0x18c4>
   1203c:	67ea                	ld	a5,152(sp)
   1203e:	8c3a                	mv	s8,a4
   12040:	8b85                	andi	a5,a5,1
   12042:	c781                	beqz	a5,1204a <_vfprintf_r+0x176c>
   12044:	77c6                	ld	a5,112(sp)
   12046:	00e78c3b          	addw	s8,a5,a4
   1204a:	67ea                	ld	a5,152(sp)
   1204c:	4007f793          	andi	a5,a5,1024
   12050:	c781                	beqz	a5,12058 <_vfprintf_r+0x177a>
   12052:	67e6                	ld	a5,88(sp)
   12054:	30f04763          	bgtz	a5,12362 <_vfprintf_r+0x1a84>
   12058:	fffc4993          	not	s3,s8
   1205c:	43f9d993          	srai	s3,s3,0x3f
   12060:	013c79b3          	and	s3,s8,s3
   12064:	2981                	sext.w	s3,s3
   12066:	06700d93          	li	s11,103
   1206a:	e882                	sd	zero,80(sp)
   1206c:	f082                	sd	zero,96(sp)
   1206e:	e83fe06f          	j	10ef0 <_vfprintf_r+0x612>
   12072:	0df14783          	lbu	a5,223(sp)
   12076:	4e81                	li	t4,0
   12078:	c399                	beqz	a5,1207e <_vfprintf_r+0x17a0>
   1207a:	be9fe06f          	j	10c62 <_vfprintf_r+0x384>
   1207e:	a11fe06f          	j	10a8e <_vfprintf_r+0x1b0>
   12082:	ed26                	sd	s1,152(sp)
   12084:	ec02                	sd	zero,24(sp)
   12086:	84fe                	mv	s1,t6
   12088:	57fd                	li	a5,-1
   1208a:	17fe                	slli	a5,a5,0x3f
   1208c:	00f9c9b3          	xor	s3,s3,a5
   12090:	02d00793          	li	a5,45
   12094:	e5be                	sd	a5,200(sp)
   12096:	b539                	j	11ea4 <_vfprintf_r+0x15c6>
   12098:	0a10                	addi	a2,sp,272
   1209a:	85d2                	mv	a1,s4
   1209c:	8556                	mv	a0,s5
   1209e:	5ff060ef          	jal	ra,18e9c <__sprint_r>
   120a2:	bc051e63          	bnez	a0,1147e <_vfprintf_r+0xba0>
   120a6:	77a6                	ld	a5,104(sp)
   120a8:	835e                	mv	t1,s7
   120aa:	0007c603          	lbu	a2,0(a5)
   120ae:	7792                	ld	a5,288(sp)
   120b0:	9db2                	add	s11,s11,a2
   120b2:	b1b9                	j	11d00 <_vfprintf_r+0x1422>
   120b4:	02d00793          	li	a5,45
   120b8:	0cf10fa3          	sb	a5,223(sp)
   120bc:	bc4d                	j	11b6e <_vfprintf_r+0x1290>
   120be:	8776                	mv	a4,t4
   120c0:	11bc                	addi	a5,sp,232
   120c2:	0f810893          	addi	a7,sp,248
   120c6:	0ec10813          	addi	a6,sp,236
   120ca:	4689                	li	a3,2
   120cc:	85e2                	mv	a1,s8
   120ce:	864e                	mv	a2,s3
   120d0:	8556                	mv	a0,s5
   120d2:	f01a                	sd	t1,32(sp)
   120d4:	e476                	sd	t4,8(sp)
   120d6:	458020ef          	jal	ra,1452e <_ldtoa_r>
   120da:	7706                	ld	a4,96(sp)
   120dc:	04700793          	li	a5,71
   120e0:	6ea2                	ld	t4,8(sp)
   120e2:	7302                	ld	t1,32(sp)
   120e4:	8caa                	mv	s9,a0
   120e6:	02f71d63          	bne	a4,a5,12120 <_vfprintf_r+0x1842>
   120ea:	67ea                	ld	a5,152(sp)
   120ec:	8b85                	andi	a5,a5,1
   120ee:	18079b63          	bnez	a5,12284 <_vfprintf_r+0x19a6>
   120f2:	04700713          	li	a4,71
   120f6:	77ee                	ld	a5,248(sp)
   120f8:	f0ba                	sd	a4,96(sp)
   120fa:	ceffe06f          	j	10de8 <_vfprintf_r+0x50a>
   120fe:	8776                	mv	a4,t4
   12100:	0f810893          	addi	a7,sp,248
   12104:	0ec10813          	addi	a6,sp,236
   12108:	11bc                	addi	a5,sp,232
   1210a:	468d                	li	a3,3
   1210c:	85e2                	mv	a1,s8
   1210e:	864e                	mv	a2,s3
   12110:	8556                	mv	a0,s5
   12112:	f01a                	sd	t1,32(sp)
   12114:	e476                	sd	t4,8(sp)
   12116:	418020ef          	jal	ra,1452e <_ldtoa_r>
   1211a:	6ea2                	ld	t4,8(sp)
   1211c:	7302                	ld	t1,32(sp)
   1211e:	8caa                	mv	s9,a0
   12120:	7706                	ld	a4,96(sp)
   12122:	04600793          	li	a5,70
   12126:	01dc88b3          	add	a7,s9,t4
   1212a:	00f70463          	beq	a4,a5,12132 <_vfprintf_r+0x1854>
   1212e:	c85fe06f          	j	10db2 <_vfprintf_r+0x4d4>
   12132:	000cc703          	lbu	a4,0(s9)
   12136:	03000793          	li	a5,48
   1213a:	00f70663          	beq	a4,a5,12146 <_vfprintf_r+0x1868>
   1213e:	572e                	lw	a4,232(sp)
   12140:	98ba                	add	a7,a7,a4
   12142:	c71fe06f          	j	10db2 <_vfprintf_r+0x4d4>
   12146:	4601                	li	a2,0
   12148:	4681                	li	a3,0
   1214a:	8562                	mv	a0,s8
   1214c:	85ce                	mv	a1,s3
   1214e:	f846                	sd	a7,48(sp)
   12150:	f01a                	sd	t1,32(sp)
   12152:	e476                	sd	t4,8(sp)
   12154:	7c1080ef          	jal	ra,1b114 <__eqtf2>
   12158:	6ea2                	ld	t4,8(sp)
   1215a:	7302                	ld	t1,32(sp)
   1215c:	78c2                	ld	a7,48(sp)
   1215e:	d165                	beqz	a0,1213e <_vfprintf_r+0x1860>
   12160:	4785                	li	a5,1
   12162:	41d7873b          	subw	a4,a5,t4
   12166:	d5ba                	sw	a4,232(sp)
   12168:	98ba                	add	a7,a7,a4
   1216a:	c49fe06f          	j	10db2 <_vfprintf_r+0x4d4>
   1216e:	0a10                	addi	a2,sp,272
   12170:	85d2                	mv	a1,s4
   12172:	8556                	mv	a0,s5
   12174:	529060ef          	jal	ra,18e9c <__sprint_r>
   12178:	b0051363          	bnez	a0,1147e <_vfprintf_r+0xba0>
   1217c:	572e                	lw	a4,232(sp)
   1217e:	7792                	ld	a5,288(sp)
   12180:	835e                	mv	t1,s7
   12182:	dc2ff06f          	j	11744 <_vfprintf_r+0xe66>
   12186:	0df14783          	lbu	a5,223(sp)
   1218a:	e836                	sd	a3,16(sp)
   1218c:	e882                	sd	zero,80(sp)
   1218e:	f082                	sd	zero,96(sp)
   12190:	ec82                	sd	zero,88(sp)
   12192:	89f6                	mv	s3,t4
   12194:	8c76                	mv	s8,t4
   12196:	4e81                	li	t4,0
   12198:	c399                	beqz	a5,1219e <_vfprintf_r+0x18c0>
   1219a:	ac9fe06f          	j	10c62 <_vfprintf_r+0x384>
   1219e:	8f1fe06f          	j	10a8e <_vfprintf_r+0x1b0>
   121a2:	7702                	ld	a4,32(sp)
   121a4:	77c6                	ld	a5,112(sp)
   121a6:	06700d93          	li	s11,103
   121aa:	00e78c3b          	addw	s8,a5,a4
   121ae:	6766                	ld	a4,88(sp)
   121b0:	2ce05263          	blez	a4,12474 <_vfprintf_r+0x1b96>
   121b4:	67ea                	ld	a5,152(sp)
   121b6:	4007f793          	andi	a5,a5,1024
   121ba:	1a079663          	bnez	a5,12366 <_vfprintf_r+0x1a88>
   121be:	fffc4993          	not	s3,s8
   121c2:	43f9d993          	srai	s3,s3,0x3f
   121c6:	013c79b3          	and	s3,s8,s3
   121ca:	2981                	sext.w	s3,s3
   121cc:	bd79                	j	1206a <_vfprintf_r+0x178c>
   121ce:	67ea                	ld	a5,152(sp)
   121d0:	6766                	ld	a4,88(sp)
   121d2:	8b85                	andi	a5,a5,1
   121d4:	00fee7b3          	or	a5,t4,a5
   121d8:	2ae05c63          	blez	a4,12490 <_vfprintf_r+0x1bb2>
   121dc:	26079d63          	bnez	a5,12456 <_vfprintf_r+0x1b78>
   121e0:	6c66                	ld	s8,88(sp)
   121e2:	06600d93          	li	s11,102
   121e6:	b7f9                	j	121b4 <_vfprintf_r+0x18d6>
   121e8:	0a10                	addi	a2,sp,272
   121ea:	85d2                	mv	a1,s4
   121ec:	8556                	mv	a0,s5
   121ee:	4af060ef          	jal	ra,18e9c <__sprint_r>
   121f2:	a8051663          	bnez	a0,1147e <_vfprintf_r+0xba0>
   121f6:	56ae                	lw	a3,232(sp)
   121f8:	7702                	ld	a4,32(sp)
   121fa:	7792                	ld	a5,288(sp)
   121fc:	835e                	mv	t1,s7
   121fe:	40d706bb          	subw	a3,a4,a3
   12202:	d82ff06f          	j	11784 <_vfprintf_r+0xea6>
   12206:	57fd                	li	a5,-1
   12208:	e03e                	sd	a5,0(sp)
   1220a:	985fe06f          	j	10b8e <_vfprintf_r+0x2b0>
   1220e:	56c1                	li	a3,-16
   12210:	40c00c3b          	negw	s8,a2
   12214:	02d65f63          	bge	a2,a3,12252 <_vfprintf_r+0x1974>
   12218:	4d9d                	li	s11,7
   1221a:	a021                	j	12222 <_vfprintf_r+0x1944>
   1221c:	3c41                	addiw	s8,s8,-16
   1221e:	038d5a63          	bge	s10,s8,12252 <_vfprintf_r+0x1974>
   12222:	2705                	addiw	a4,a4,1
   12224:	07c1                	addi	a5,a5,16
   12226:	01233023          	sd	s2,0(t1)
   1222a:	01a33423          	sd	s10,8(t1)
   1222e:	f23e                	sd	a5,288(sp)
   12230:	10e12c23          	sw	a4,280(sp)
   12234:	0341                	addi	t1,t1,16
   12236:	feedd3e3          	bge	s11,a4,1221c <_vfprintf_r+0x193e>
   1223a:	0a10                	addi	a2,sp,272
   1223c:	85d2                	mv	a1,s4
   1223e:	8556                	mv	a0,s5
   12240:	45d060ef          	jal	ra,18e9c <__sprint_r>
   12244:	a2051d63          	bnez	a0,1147e <_vfprintf_r+0xba0>
   12248:	7792                	ld	a5,288(sp)
   1224a:	11812703          	lw	a4,280(sp)
   1224e:	835e                	mv	t1,s7
   12250:	b7f1                	j	1221c <_vfprintf_r+0x193e>
   12252:	2705                	addiw	a4,a4,1
   12254:	97e2                	add	a5,a5,s8
   12256:	01233023          	sd	s2,0(t1)
   1225a:	01833423          	sd	s8,8(t1)
   1225e:	f23e                	sd	a5,288(sp)
   12260:	10e12c23          	sw	a4,280(sp)
   12264:	469d                	li	a3,7
   12266:	8ae6d8e3          	bge	a3,a4,11b16 <_vfprintf_r+0x1238>
   1226a:	0a10                	addi	a2,sp,272
   1226c:	85d2                	mv	a1,s4
   1226e:	8556                	mv	a0,s5
   12270:	42d060ef          	jal	ra,18e9c <__sprint_r>
   12274:	a0051563          	bnez	a0,1147e <_vfprintf_r+0xba0>
   12278:	7792                	ld	a5,288(sp)
   1227a:	11812703          	lw	a4,280(sp)
   1227e:	835e                	mv	t1,s7
   12280:	cedfe06f          	j	10f6c <_vfprintf_r+0x68e>
   12284:	04700793          	li	a5,71
   12288:	01dc88b3          	add	a7,s9,t4
   1228c:	f0be                	sd	a5,96(sp)
   1228e:	b25fe06f          	j	10db2 <_vfprintf_r+0x4d4>
   12292:	8826                	mv	a6,s1
   12294:	accff06f          	j	11560 <_vfprintf_r+0xc82>
   12298:	03000793          	li	a5,48
   1229c:	0ef10023          	sb	a5,224(sp)
   122a0:	07800713          	li	a4,120
   122a4:	bec1                	j	11e74 <_vfprintf_r+0x1596>
   122a6:	77aa                	ld	a5,168(sp)
   122a8:	8762                	mv	a4,s8
   122aa:	fdbe                	sd	a5,248(sp)
   122ac:	67c6                	ld	a5,80(sp)
   122ae:	fffc4683          	lbu	a3,-1(s8)
   122b2:	00f7c603          	lbu	a2,15(a5)
   122b6:	00d61e63          	bne	a2,a3,122d2 <_vfprintf_r+0x19f4>
   122ba:	03000593          	li	a1,48
   122be:	feb70fa3          	sb	a1,-1(a4)
   122c2:	776e                	ld	a4,248(sp)
   122c4:	fff70693          	addi	a3,a4,-1
   122c8:	fdb6                	sd	a3,248(sp)
   122ca:	fff74683          	lbu	a3,-1(a4)
   122ce:	fed608e3          	beq	a2,a3,122be <_vfprintf_r+0x19e0>
   122d2:	0016861b          	addiw	a2,a3,1
   122d6:	03900593          	li	a1,57
   122da:	0ff67613          	andi	a2,a2,255
   122de:	00b68563          	beq	a3,a1,122e8 <_vfprintf_r+0x1a0a>
   122e2:	fec70fa3          	sb	a2,-1(a4)
   122e6:	bb39                	j	12004 <_vfprintf_r+0x1726>
   122e8:	67c6                	ld	a5,80(sp)
   122ea:	00a7c603          	lbu	a2,10(a5)
   122ee:	fec70fa3          	sb	a2,-1(a4)
   122f2:	bb09                	j	12004 <_vfprintf_r+0x1726>
   122f4:	001e859b          	addiw	a1,t4,1
   122f8:	8556                	mv	a0,s5
   122fa:	ec1a                	sd	t1,24(sp)
   122fc:	e476                	sd	t4,8(sp)
   122fe:	2a2030ef          	jal	ra,155a0 <_malloc_r>
   12302:	6ea2                	ld	t4,8(sp)
   12304:	6362                	ld	t1,24(sp)
   12306:	8caa                	mv	s9,a0
   12308:	1e050063          	beqz	a0,124e8 <_vfprintf_r+0x1c0a>
   1230c:	ec2a                	sd	a0,24(sp)
   1230e:	b641                	j	11e8e <_vfprintf_r+0x15b0>
   12310:	000e9363          	bnez	t4,12316 <_vfprintf_r+0x1a38>
   12314:	4e85                	li	t4,1
   12316:	69b2                	ld	s3,264(sp)
   12318:	1004ef93          	ori	t6,s1,256
   1231c:	6c12                	ld	s8,256(sp)
   1231e:	2f81                	sext.w	t6,t6
   12320:	d609c1e3          	bltz	s3,12082 <_vfprintf_r+0x17a4>
   12324:	8776                	mv	a4,t4
   12326:	0f810893          	addi	a7,sp,248
   1232a:	0ec10813          	addi	a6,sp,236
   1232e:	11bc                	addi	a5,sp,232
   12330:	4689                	li	a3,2
   12332:	85e2                	mv	a1,s8
   12334:	864e                	mv	a2,s3
   12336:	8556                	mv	a0,s5
   12338:	ec7e                	sd	t6,24(sp)
   1233a:	f01a                	sd	t1,32(sp)
   1233c:	e476                	sd	t4,8(sp)
   1233e:	1f0020ef          	jal	ra,1452e <_ldtoa_r>
   12342:	6fe2                	ld	t6,24(sp)
   12344:	ed26                	sd	s1,152(sp)
   12346:	6ea2                	ld	t4,8(sp)
   12348:	7302                	ld	t1,32(sp)
   1234a:	8caa                	mv	s9,a0
   1234c:	84fe                	mv	s1,t6
   1234e:	ec02                	sd	zero,24(sp)
   12350:	e582                	sd	zero,200(sp)
   12352:	bb61                	j	120ea <_vfprintf_r+0x180c>
   12354:	4e99                	li	t4,6
   12356:	9fbfe06f          	j	10d50 <_vfprintf_r+0x472>
   1235a:	c31c                	sw	a5,0(a4)
   1235c:	8ca2                	mv	s9,s0
   1235e:	813fe06f          	j	10b70 <_vfprintf_r+0x292>
   12362:	06700d93          	li	s11,103
   12366:	77a6                	ld	a5,104(sp)
   12368:	0ff00713          	li	a4,255
   1236c:	e882                	sd	zero,80(sp)
   1236e:	0007c783          	lbu	a5,0(a5)
   12372:	f082                	sd	zero,96(sp)
   12374:	02e78863          	beq	a5,a4,123a4 <_vfprintf_r+0x1ac6>
   12378:	0ff00693          	li	a3,255
   1237c:	6666                	ld	a2,88(sp)
   1237e:	0007871b          	sext.w	a4,a5
   12382:	02c7d163          	bge	a5,a2,123a4 <_vfprintf_r+0x1ac6>
   12386:	75a6                	ld	a1,104(sp)
   12388:	40e6073b          	subw	a4,a2,a4
   1238c:	ecba                	sd	a4,88(sp)
   1238e:	0015c783          	lbu	a5,1(a1)
   12392:	cf8d                	beqz	a5,123cc <_vfprintf_r+0x1aee>
   12394:	7706                	ld	a4,96(sp)
   12396:	2705                	addiw	a4,a4,1
   12398:	f0ba                	sd	a4,96(sp)
   1239a:	00158713          	addi	a4,a1,1
   1239e:	f4ba                	sd	a4,104(sp)
   123a0:	fcd79ee3          	bne	a5,a3,1237c <_vfprintf_r+0x1a9e>
   123a4:	7706                	ld	a4,96(sp)
   123a6:	67c6                	ld	a5,80(sp)
   123a8:	9fb9                	addw	a5,a5,a4
   123aa:	672a                	ld	a4,136(sp)
   123ac:	02e787bb          	mulw	a5,a5,a4
   123b0:	018787bb          	addw	a5,a5,s8
   123b4:	00078c1b          	sext.w	s8,a5
   123b8:	fffc4993          	not	s3,s8
   123bc:	43f9d993          	srai	s3,s3,0x3f
   123c0:	0137f7b3          	and	a5,a5,s3
   123c4:	0007899b          	sext.w	s3,a5
   123c8:	b29fe06f          	j	10ef0 <_vfprintf_r+0x612>
   123cc:	6746                	ld	a4,80(sp)
   123ce:	77a6                	ld	a5,104(sp)
   123d0:	2705                	addiw	a4,a4,1
   123d2:	0007c783          	lbu	a5,0(a5)
   123d6:	e8ba                	sd	a4,80(sp)
   123d8:	b7e1                	j	123a0 <_vfprintf_r+0x1ac2>
   123da:	ec02                	sd	zero,24(sp)
   123dc:	84be                	mv	s1,a5
   123de:	b16d                	j	12088 <_vfprintf_r+0x17aa>
   123e0:	85ce                	mv	a1,s3
   123e2:	8562                	mv	a0,s8
   123e4:	fc1a                	sd	t1,56(sp)
   123e6:	f876                	sd	t4,48(sp)
   123e8:	6d1090ef          	jal	ra,1c2b8 <__trunctfdf2>
   123ec:	11a8                	addi	a0,sp,232
   123ee:	23d040ef          	jal	ra,16e2a <frexp>
   123f2:	607090ef          	jal	ra,1c1f8 <__extenddftf2>
   123f6:	0000a797          	auipc	a5,0xa
   123fa:	48a78793          	addi	a5,a5,1162 # 1c880 <zeroes.4521+0x30>
   123fe:	6390                	ld	a2,0(a5)
   12400:	6794                	ld	a3,8(a5)
   12402:	6f7080ef          	jal	ra,1b2f8 <__multf3>
   12406:	4601                	li	a2,0
   12408:	4681                	li	a3,0
   1240a:	f02a                	sd	a0,32(sp)
   1240c:	e42e                	sd	a1,8(sp)
   1240e:	507080ef          	jal	ra,1b114 <__eqtf2>
   12412:	62a2                	ld	t0,8(sp)
   12414:	7702                	ld	a4,32(sp)
   12416:	7ec2                	ld	t4,48(sp)
   12418:	7362                	ld	t1,56(sp)
   1241a:	e119                	bnez	a0,12420 <_vfprintf_r+0x1b42>
   1241c:	4785                	li	a5,1
   1241e:	d5be                	sw	a5,232(sp)
   12420:	0000a797          	auipc	a5,0xa
   12424:	28878793          	addi	a5,a5,648 # 1c6a8 <__clzdi2+0x1be>
   12428:	e8be                	sd	a5,80(sp)
   1242a:	bce1                	j	11f02 <_vfprintf_r+0x1624>
   1242c:	0f210713          	addi	a4,sp,242
   12430:	e699                	bnez	a3,1243e <_vfprintf_r+0x1b60>
   12432:	03000713          	li	a4,48
   12436:	0ee10923          	sb	a4,242(sp)
   1243a:	0f310713          	addi	a4,sp,243
   1243e:	0c14                	addi	a3,sp,528
   12440:	0307879b          	addiw	a5,a5,48
   12444:	40d706b3          	sub	a3,a4,a3
   12448:	00f70023          	sb	a5,0(a4)
   1244c:	1216879b          	addiw	a5,a3,289
   12450:	e13e                	sd	a5,128(sp)
   12452:	a65fe06f          	j	10eb6 <_vfprintf_r+0x5d8>
   12456:	77c6                	ld	a5,112(sp)
   12458:	06600d93          	li	s11,102
   1245c:	00e78c3b          	addw	s8,a5,a4
   12460:	01dc0c3b          	addw	s8,s8,t4
   12464:	bb81                	j	121b4 <_vfprintf_r+0x18d6>
   12466:	676a                	ld	a4,152(sp)
   12468:	8b05                	andi	a4,a4,1
   1246a:	e319                	bnez	a4,12470 <_vfprintf_r+0x1b92>
   1246c:	a65fe06f          	j	10ed0 <_vfprintf_r+0x5f2>
   12470:	a5bfe06f          	j	10eca <_vfprintf_r+0x5ec>
   12474:	40ec07bb          	subw	a5,s8,a4
   12478:	2785                	addiw	a5,a5,1
   1247a:	00078c1b          	sext.w	s8,a5
   1247e:	fffc4993          	not	s3,s8
   12482:	43f9d993          	srai	s3,s3,0x3f
   12486:	0137f7b3          	and	a5,a5,s3
   1248a:	0007899b          	sext.w	s3,a5
   1248e:	bef1                	j	1206a <_vfprintf_r+0x178c>
   12490:	e791                	bnez	a5,1249c <_vfprintf_r+0x1bbe>
   12492:	4985                	li	s3,1
   12494:	06600d93          	li	s11,102
   12498:	4c05                	li	s8,1
   1249a:	bec1                	j	1206a <_vfprintf_r+0x178c>
   1249c:	77c6                	ld	a5,112(sp)
   1249e:	06600d93          	li	s11,102
   124a2:	2785                	addiw	a5,a5,1
   124a4:	01d78ebb          	addw	t4,a5,t4
   124a8:	000e8c1b          	sext.w	s8,t4
   124ac:	fffc4993          	not	s3,s8
   124b0:	43f9d993          	srai	s3,s3,0x3f
   124b4:	013efeb3          	and	t4,t4,s3
   124b8:	000e899b          	sext.w	s3,t4
   124bc:	b67d                	j	1206a <_vfprintf_r+0x178c>
   124be:	871a                	mv	a4,t1
   124c0:	c9aff06f          	j	1195a <_vfprintf_r+0x107c>
   124c4:	66c2                	ld	a3,16(sp)
   124c6:	4298                	lw	a4,0(a3)
   124c8:	06a1                	addi	a3,a3,8
   124ca:	00070e9b          	sext.w	t4,a4
   124ce:	00075363          	bgez	a4,124d4 <_vfprintf_r+0x1bf6>
   124d2:	5efd                	li	t4,-1
   124d4:	00144f03          	lbu	t5,1(s0)
   124d8:	e836                	sd	a3,16(sp)
   124da:	843e                	mv	s0,a5
   124dc:	d36fe06f          	j	10a12 <_vfprintf_r+0x134>
   124e0:	4789                	li	a5,2
   124e2:	e13e                	sd	a5,128(sp)
   124e4:	9d3fe06f          	j	10eb6 <_vfprintf_r+0x5d8>
   124e8:	010a5783          	lhu	a5,16(s4)
   124ec:	0407e793          	ori	a5,a5,64
   124f0:	00fa1823          	sh	a5,16(s4)
   124f4:	e8cfe06f          	j	10b80 <_vfprintf_r+0x2a2>

00000000000124f8 <vfprintf>:
   124f8:	86b2                	mv	a3,a2
   124fa:	862e                	mv	a2,a1
   124fc:	85aa                	mv	a1,a0
   124fe:	8601b503          	ld	a0,-1952(gp) # 1f588 <_impure_ptr>
   12502:	bdcfe06f          	j	108de <_vfprintf_r>

0000000000012506 <__sbprintf>:
   12506:	0105d783          	lhu	a5,16(a1)
   1250a:	0ac5ae03          	lw	t3,172(a1)
   1250e:	0125d303          	lhu	t1,18(a1)
   12512:	0305b883          	ld	a7,48(a1)
   12516:	0405b803          	ld	a6,64(a1)
   1251a:	b3010113          	addi	sp,sp,-1232
   1251e:	9bf5                	andi	a5,a5,-3
   12520:	40000713          	li	a4,1024
   12524:	4c813023          	sd	s0,1216(sp)
   12528:	00f11823          	sh	a5,16(sp)
   1252c:	842e                	mv	s0,a1
   1252e:	191c                	addi	a5,sp,176
   12530:	858a                	mv	a1,sp
   12532:	4a913c23          	sd	s1,1208(sp)
   12536:	4b213823          	sd	s2,1200(sp)
   1253a:	4c113423          	sd	ra,1224(sp)
   1253e:	892a                	mv	s2,a0
   12540:	d772                	sw	t3,172(sp)
   12542:	00611923          	sh	t1,18(sp)
   12546:	f846                	sd	a7,48(sp)
   12548:	e0c2                	sd	a6,64(sp)
   1254a:	e03e                	sd	a5,0(sp)
   1254c:	ec3e                	sd	a5,24(sp)
   1254e:	c63a                	sw	a4,12(sp)
   12550:	d03a                	sw	a4,32(sp)
   12552:	d402                	sw	zero,40(sp)
   12554:	b8afe0ef          	jal	ra,108de <_vfprintf_r>
   12558:	84aa                	mv	s1,a0
   1255a:	02055963          	bgez	a0,1258c <__sbprintf+0x86>
   1255e:	01015783          	lhu	a5,16(sp)
   12562:	0407f793          	andi	a5,a5,64
   12566:	c799                	beqz	a5,12574 <__sbprintf+0x6e>
   12568:	01045783          	lhu	a5,16(s0)
   1256c:	0407e793          	ori	a5,a5,64
   12570:	00f41823          	sh	a5,16(s0)
   12574:	4c813083          	ld	ra,1224(sp)
   12578:	4c013403          	ld	s0,1216(sp)
   1257c:	4b013903          	ld	s2,1200(sp)
   12580:	8526                	mv	a0,s1
   12582:	4b813483          	ld	s1,1208(sp)
   12586:	4d010113          	addi	sp,sp,1232
   1258a:	8082                	ret
   1258c:	858a                	mv	a1,sp
   1258e:	854a                	mv	a0,s2
   12590:	354000ef          	jal	ra,128e4 <_fflush_r>
   12594:	d569                	beqz	a0,1255e <__sbprintf+0x58>
   12596:	54fd                	li	s1,-1
   12598:	b7d9                	j	1255e <__sbprintf+0x58>

000000000001259a <__swsetup_r>:
   1259a:	1101                	addi	sp,sp,-32
   1259c:	e822                	sd	s0,16(sp)
   1259e:	e426                	sd	s1,8(sp)
   125a0:	ec06                	sd	ra,24(sp)
   125a2:	8601b783          	ld	a5,-1952(gp) # 1f588 <_impure_ptr>
   125a6:	84aa                	mv	s1,a0
   125a8:	842e                	mv	s0,a1
   125aa:	c399                	beqz	a5,125b0 <__swsetup_r+0x16>
   125ac:	4bb8                	lw	a4,80(a5)
   125ae:	cf49                	beqz	a4,12648 <__swsetup_r+0xae>
   125b0:	01041703          	lh	a4,16(s0)
   125b4:	03071793          	slli	a5,a4,0x30
   125b8:	00877693          	andi	a3,a4,8
   125bc:	93c1                	srli	a5,a5,0x30
   125be:	c29d                	beqz	a3,125e4 <__swsetup_r+0x4a>
   125c0:	6c14                	ld	a3,24(s0)
   125c2:	ce9d                	beqz	a3,12600 <__swsetup_r+0x66>
   125c4:	0017f613          	andi	a2,a5,1
   125c8:	ce39                	beqz	a2,12626 <__swsetup_r+0x8c>
   125ca:	5010                	lw	a2,32(s0)
   125cc:	00042623          	sw	zero,12(s0)
   125d0:	4501                	li	a0,0
   125d2:	40c0063b          	negw	a2,a2
   125d6:	d410                	sw	a2,40(s0)
   125d8:	ceb9                	beqz	a3,12636 <__swsetup_r+0x9c>
   125da:	60e2                	ld	ra,24(sp)
   125dc:	6442                	ld	s0,16(sp)
   125de:	64a2                	ld	s1,8(sp)
   125e0:	6105                	addi	sp,sp,32
   125e2:	8082                	ret
   125e4:	0107f693          	andi	a3,a5,16
   125e8:	cac1                	beqz	a3,12678 <__swsetup_r+0xde>
   125ea:	8b91                	andi	a5,a5,4
   125ec:	e3b5                	bnez	a5,12650 <__swsetup_r+0xb6>
   125ee:	6c14                	ld	a3,24(s0)
   125f0:	00876713          	ori	a4,a4,8
   125f4:	03071793          	slli	a5,a4,0x30
   125f8:	00e41823          	sh	a4,16(s0)
   125fc:	93c1                	srli	a5,a5,0x30
   125fe:	f2f9                	bnez	a3,125c4 <__swsetup_r+0x2a>
   12600:	2807f613          	andi	a2,a5,640
   12604:	20000593          	li	a1,512
   12608:	fab60ee3          	beq	a2,a1,125c4 <__swsetup_r+0x2a>
   1260c:	85a2                	mv	a1,s0
   1260e:	8526                	mv	a0,s1
   12610:	6d5020ef          	jal	ra,154e4 <__smakebuf_r>
   12614:	01041703          	lh	a4,16(s0)
   12618:	6c14                	ld	a3,24(s0)
   1261a:	03071793          	slli	a5,a4,0x30
   1261e:	93c1                	srli	a5,a5,0x30
   12620:	0017f613          	andi	a2,a5,1
   12624:	f25d                	bnez	a2,125ca <__swsetup_r+0x30>
   12626:	0027f613          	andi	a2,a5,2
   1262a:	4581                	li	a1,0
   1262c:	e211                	bnez	a2,12630 <__swsetup_r+0x96>
   1262e:	500c                	lw	a1,32(s0)
   12630:	c44c                	sw	a1,12(s0)
   12632:	4501                	li	a0,0
   12634:	f2dd                	bnez	a3,125da <__swsetup_r+0x40>
   12636:	0807f793          	andi	a5,a5,128
   1263a:	d3c5                	beqz	a5,125da <__swsetup_r+0x40>
   1263c:	04076713          	ori	a4,a4,64
   12640:	00e41823          	sh	a4,16(s0)
   12644:	557d                	li	a0,-1
   12646:	bf51                	j	125da <__swsetup_r+0x40>
   12648:	853e                	mv	a0,a5
   1264a:	530000ef          	jal	ra,12b7a <__sinit>
   1264e:	b78d                	j	125b0 <__swsetup_r+0x16>
   12650:	6c2c                	ld	a1,88(s0)
   12652:	cd81                	beqz	a1,1266a <__swsetup_r+0xd0>
   12654:	07440793          	addi	a5,s0,116
   12658:	00f58763          	beq	a1,a5,12666 <__swsetup_r+0xcc>
   1265c:	8526                	mv	a0,s1
   1265e:	64e000ef          	jal	ra,12cac <_free_r>
   12662:	01041703          	lh	a4,16(s0)
   12666:	04043c23          	sd	zero,88(s0)
   1266a:	6c14                	ld	a3,24(s0)
   1266c:	fdb77713          	andi	a4,a4,-37
   12670:	00042423          	sw	zero,8(s0)
   12674:	e014                	sd	a3,0(s0)
   12676:	bfad                	j	125f0 <__swsetup_r+0x56>
   12678:	47a5                	li	a5,9
   1267a:	c09c                	sw	a5,0(s1)
   1267c:	04076713          	ori	a4,a4,64
   12680:	00e41823          	sh	a4,16(s0)
   12684:	557d                	li	a0,-1
   12686:	bf91                	j	125da <__swsetup_r+0x40>

0000000000012688 <__call_exitprocs>:
   12688:	715d                	addi	sp,sp,-80
   1268a:	f052                	sd	s4,32(sp)
   1268c:	8301ba03          	ld	s4,-2000(gp) # 1f558 <_global_impure_ptr>
   12690:	f84a                	sd	s2,48(sp)
   12692:	1f8a3903          	ld	s2,504(s4)
   12696:	e486                	sd	ra,72(sp)
   12698:	e0a2                	sd	s0,64(sp)
   1269a:	fc26                	sd	s1,56(sp)
   1269c:	f44e                	sd	s3,40(sp)
   1269e:	ec56                	sd	s5,24(sp)
   126a0:	e85a                	sd	s6,16(sp)
   126a2:	e45e                	sd	s7,8(sp)
   126a4:	e062                	sd	s8,0(sp)
   126a6:	02090863          	beqz	s2,126d6 <__call_exitprocs+0x4e>
   126aa:	8b2a                	mv	s6,a0
   126ac:	8bae                	mv	s7,a1
   126ae:	4a85                	li	s5,1
   126b0:	59fd                	li	s3,-1
   126b2:	00892483          	lw	s1,8(s2)
   126b6:	fff4841b          	addiw	s0,s1,-1
   126ba:	00044e63          	bltz	s0,126d6 <__call_exitprocs+0x4e>
   126be:	048e                	slli	s1,s1,0x3
   126c0:	94ca                	add	s1,s1,s2
   126c2:	020b8663          	beqz	s7,126ee <__call_exitprocs+0x66>
   126c6:	2084b783          	ld	a5,520(s1)
   126ca:	03778263          	beq	a5,s7,126ee <__call_exitprocs+0x66>
   126ce:	347d                	addiw	s0,s0,-1
   126d0:	14e1                	addi	s1,s1,-8
   126d2:	ff3418e3          	bne	s0,s3,126c2 <__call_exitprocs+0x3a>
   126d6:	60a6                	ld	ra,72(sp)
   126d8:	6406                	ld	s0,64(sp)
   126da:	74e2                	ld	s1,56(sp)
   126dc:	7942                	ld	s2,48(sp)
   126de:	79a2                	ld	s3,40(sp)
   126e0:	7a02                	ld	s4,32(sp)
   126e2:	6ae2                	ld	s5,24(sp)
   126e4:	6b42                	ld	s6,16(sp)
   126e6:	6ba2                	ld	s7,8(sp)
   126e8:	6c02                	ld	s8,0(sp)
   126ea:	6161                	addi	sp,sp,80
   126ec:	8082                	ret
   126ee:	00892783          	lw	a5,8(s2)
   126f2:	6498                	ld	a4,8(s1)
   126f4:	37fd                	addiw	a5,a5,-1
   126f6:	04878463          	beq	a5,s0,1273e <__call_exitprocs+0xb6>
   126fa:	0004b423          	sd	zero,8(s1)
   126fe:	db61                	beqz	a4,126ce <__call_exitprocs+0x46>
   12700:	31092783          	lw	a5,784(s2)
   12704:	008a96bb          	sllw	a3,s5,s0
   12708:	00892c03          	lw	s8,8(s2)
   1270c:	8ff5                	and	a5,a5,a3
   1270e:	2781                	sext.w	a5,a5
   12710:	ef89                	bnez	a5,1272a <__call_exitprocs+0xa2>
   12712:	9702                	jalr	a4
   12714:	00892703          	lw	a4,8(s2)
   12718:	1f8a3783          	ld	a5,504(s4)
   1271c:	01871463          	bne	a4,s8,12724 <__call_exitprocs+0x9c>
   12720:	faf907e3          	beq	s2,a5,126ce <__call_exitprocs+0x46>
   12724:	dbcd                	beqz	a5,126d6 <__call_exitprocs+0x4e>
   12726:	893e                	mv	s2,a5
   12728:	b769                	j	126b2 <__call_exitprocs+0x2a>
   1272a:	31492783          	lw	a5,788(s2)
   1272e:	1084b583          	ld	a1,264(s1)
   12732:	8ff5                	and	a5,a5,a3
   12734:	2781                	sext.w	a5,a5
   12736:	e799                	bnez	a5,12744 <__call_exitprocs+0xbc>
   12738:	855a                	mv	a0,s6
   1273a:	9702                	jalr	a4
   1273c:	bfe1                	j	12714 <__call_exitprocs+0x8c>
   1273e:	00892423          	sw	s0,8(s2)
   12742:	bf75                	j	126fe <__call_exitprocs+0x76>
   12744:	852e                	mv	a0,a1
   12746:	9702                	jalr	a4
   12748:	b7f1                	j	12714 <__call_exitprocs+0x8c>

000000000001274a <__sflush_r>:
   1274a:	01059783          	lh	a5,16(a1)
   1274e:	7179                	addi	sp,sp,-48
   12750:	f022                	sd	s0,32(sp)
   12752:	e44e                	sd	s3,8(sp)
   12754:	f406                	sd	ra,40(sp)
   12756:	ec26                	sd	s1,24(sp)
   12758:	e84a                	sd	s2,16(sp)
   1275a:	0087f693          	andi	a3,a5,8
   1275e:	842e                	mv	s0,a1
   12760:	89aa                	mv	s3,a0
   12762:	eecd                	bnez	a3,1281c <__sflush_r+0xd2>
   12764:	6705                	lui	a4,0x1
   12766:	80070713          	addi	a4,a4,-2048 # 800 <register_fini-0xf8b0>
   1276a:	4594                	lw	a3,8(a1)
   1276c:	8fd9                	or	a5,a5,a4
   1276e:	00f59823          	sh	a5,16(a1)
   12772:	10d05363          	blez	a3,12878 <__sflush_r+0x12e>
   12776:	6438                	ld	a4,72(s0)
   12778:	cb51                	beqz	a4,1280c <__sflush_r+0xc2>
   1277a:	0009a483          	lw	s1,0(s3)
   1277e:	03079693          	slli	a3,a5,0x30
   12782:	0009a023          	sw	zero,0(s3)
   12786:	03379613          	slli	a2,a5,0x33
   1278a:	780c                	ld	a1,48(s0)
   1278c:	92c1                	srli	a3,a3,0x30
   1278e:	0e064963          	bltz	a2,12880 <__sflush_r+0x136>
   12792:	4601                	li	a2,0
   12794:	4685                	li	a3,1
   12796:	854e                	mv	a0,s3
   12798:	9702                	jalr	a4
   1279a:	57fd                	li	a5,-1
   1279c:	862a                	mv	a2,a0
   1279e:	10f50963          	beq	a0,a5,128b0 <__sflush_r+0x166>
   127a2:	01045683          	lhu	a3,16(s0)
   127a6:	6438                	ld	a4,72(s0)
   127a8:	780c                	ld	a1,48(s0)
   127aa:	8a91                	andi	a3,a3,4
   127ac:	c699                	beqz	a3,127ba <__sflush_r+0x70>
   127ae:	4414                	lw	a3,8(s0)
   127b0:	6c3c                	ld	a5,88(s0)
   127b2:	8e15                	sub	a2,a2,a3
   127b4:	c399                	beqz	a5,127ba <__sflush_r+0x70>
   127b6:	583c                	lw	a5,112(s0)
   127b8:	8e1d                	sub	a2,a2,a5
   127ba:	4681                	li	a3,0
   127bc:	854e                	mv	a0,s3
   127be:	9702                	jalr	a4
   127c0:	57fd                	li	a5,-1
   127c2:	0cf51163          	bne	a0,a5,12884 <__sflush_r+0x13a>
   127c6:	0009a703          	lw	a4,0(s3)
   127ca:	01041783          	lh	a5,16(s0)
   127ce:	0e070f63          	beqz	a4,128cc <__sflush_r+0x182>
   127d2:	46f5                	li	a3,29
   127d4:	00d70563          	beq	a4,a3,127de <__sflush_r+0x94>
   127d8:	46d9                	li	a3,22
   127da:	0ed71f63          	bne	a4,a3,128d8 <__sflush_r+0x18e>
   127de:	6c14                	ld	a3,24(s0)
   127e0:	777d                	lui	a4,0xfffff
   127e2:	7ff70713          	addi	a4,a4,2047 # fffffffffffff7ff <__BSS_END__+0xfffffffffffc7147>
   127e6:	8ff9                	and	a5,a5,a4
   127e8:	00f41823          	sh	a5,16(s0)
   127ec:	00042423          	sw	zero,8(s0)
   127f0:	e014                	sd	a3,0(s0)
   127f2:	6c2c                	ld	a1,88(s0)
   127f4:	0099a023          	sw	s1,0(s3)
   127f8:	c991                	beqz	a1,1280c <__sflush_r+0xc2>
   127fa:	07440793          	addi	a5,s0,116
   127fe:	00f58563          	beq	a1,a5,12808 <__sflush_r+0xbe>
   12802:	854e                	mv	a0,s3
   12804:	4a8000ef          	jal	ra,12cac <_free_r>
   12808:	04043c23          	sd	zero,88(s0)
   1280c:	4501                	li	a0,0
   1280e:	70a2                	ld	ra,40(sp)
   12810:	7402                	ld	s0,32(sp)
   12812:	64e2                	ld	s1,24(sp)
   12814:	6942                	ld	s2,16(sp)
   12816:	69a2                	ld	s3,8(sp)
   12818:	6145                	addi	sp,sp,48
   1281a:	8082                	ret
   1281c:	0185b903          	ld	s2,24(a1)
   12820:	fe0906e3          	beqz	s2,1280c <__sflush_r+0xc2>
   12824:	6184                	ld	s1,0(a1)
   12826:	03079713          	slli	a4,a5,0x30
   1282a:	9341                	srli	a4,a4,0x30
   1282c:	8b0d                	andi	a4,a4,3
   1282e:	0125b023          	sd	s2,0(a1)
   12832:	412484bb          	subw	s1,s1,s2
   12836:	4781                	li	a5,0
   12838:	e311                	bnez	a4,1283c <__sflush_r+0xf2>
   1283a:	519c                	lw	a5,32(a1)
   1283c:	c45c                	sw	a5,12(s0)
   1283e:	00904663          	bgtz	s1,1284a <__sflush_r+0x100>
   12842:	b7e9                	j	1280c <__sflush_r+0xc2>
   12844:	992a                	add	s2,s2,a0
   12846:	fc9053e3          	blez	s1,1280c <__sflush_r+0xc2>
   1284a:	603c                	ld	a5,64(s0)
   1284c:	780c                	ld	a1,48(s0)
   1284e:	86a6                	mv	a3,s1
   12850:	864a                	mv	a2,s2
   12852:	854e                	mv	a0,s3
   12854:	9782                	jalr	a5
   12856:	9c89                	subw	s1,s1,a0
   12858:	fea046e3          	bgtz	a0,12844 <__sflush_r+0xfa>
   1285c:	01045783          	lhu	a5,16(s0)
   12860:	70a2                	ld	ra,40(sp)
   12862:	64e2                	ld	s1,24(sp)
   12864:	0407e793          	ori	a5,a5,64
   12868:	00f41823          	sh	a5,16(s0)
   1286c:	7402                	ld	s0,32(sp)
   1286e:	6942                	ld	s2,16(sp)
   12870:	69a2                	ld	s3,8(sp)
   12872:	557d                	li	a0,-1
   12874:	6145                	addi	sp,sp,48
   12876:	8082                	ret
   12878:	59b8                	lw	a4,112(a1)
   1287a:	eee04ee3          	bgtz	a4,12776 <__sflush_r+0x2c>
   1287e:	b779                	j	1280c <__sflush_r+0xc2>
   12880:	6850                	ld	a2,144(s0)
   12882:	b725                	j	127aa <__sflush_r+0x60>
   12884:	01045783          	lhu	a5,16(s0)
   12888:	777d                	lui	a4,0xfffff
   1288a:	7ff70713          	addi	a4,a4,2047 # fffffffffffff7ff <__BSS_END__+0xfffffffffffc7147>
   1288e:	8ff9                	and	a5,a5,a4
   12890:	6c14                	ld	a3,24(s0)
   12892:	0107979b          	slliw	a5,a5,0x10
   12896:	4107d79b          	sraiw	a5,a5,0x10
   1289a:	00f41823          	sh	a5,16(s0)
   1289e:	00042423          	sw	zero,8(s0)
   128a2:	e014                	sd	a3,0(s0)
   128a4:	03379713          	slli	a4,a5,0x33
   128a8:	f40755e3          	bgez	a4,127f2 <__sflush_r+0xa8>
   128ac:	e848                	sd	a0,144(s0)
   128ae:	b791                	j	127f2 <__sflush_r+0xa8>
   128b0:	0009a783          	lw	a5,0(s3)
   128b4:	ee0787e3          	beqz	a5,127a2 <__sflush_r+0x58>
   128b8:	4775                	li	a4,29
   128ba:	00e78563          	beq	a5,a4,128c4 <__sflush_r+0x17a>
   128be:	4759                	li	a4,22
   128c0:	f8e79ee3          	bne	a5,a4,1285c <__sflush_r+0x112>
   128c4:	0099a023          	sw	s1,0(s3)
   128c8:	4501                	li	a0,0
   128ca:	b791                	j	1280e <__sflush_r+0xc4>
   128cc:	777d                	lui	a4,0xfffff
   128ce:	7ff70713          	addi	a4,a4,2047 # fffffffffffff7ff <__BSS_END__+0xfffffffffffc7147>
   128d2:	6c14                	ld	a3,24(s0)
   128d4:	8ff9                	and	a5,a5,a4
   128d6:	b7d1                	j	1289a <__sflush_r+0x150>
   128d8:	0407e793          	ori	a5,a5,64
   128dc:	00f41823          	sh	a5,16(s0)
   128e0:	557d                	li	a0,-1
   128e2:	b735                	j	1280e <__sflush_r+0xc4>

00000000000128e4 <_fflush_r>:
   128e4:	1101                	addi	sp,sp,-32
   128e6:	e822                	sd	s0,16(sp)
   128e8:	ec06                	sd	ra,24(sp)
   128ea:	842a                	mv	s0,a0
   128ec:	c119                	beqz	a0,128f2 <_fflush_r+0xe>
   128ee:	493c                	lw	a5,80(a0)
   128f0:	cb89                	beqz	a5,12902 <_fflush_r+0x1e>
   128f2:	01059783          	lh	a5,16(a1)
   128f6:	ef89                	bnez	a5,12910 <_fflush_r+0x2c>
   128f8:	60e2                	ld	ra,24(sp)
   128fa:	6442                	ld	s0,16(sp)
   128fc:	4501                	li	a0,0
   128fe:	6105                	addi	sp,sp,32
   12900:	8082                	ret
   12902:	e42e                	sd	a1,8(sp)
   12904:	276000ef          	jal	ra,12b7a <__sinit>
   12908:	65a2                	ld	a1,8(sp)
   1290a:	01059783          	lh	a5,16(a1)
   1290e:	d7ed                	beqz	a5,128f8 <_fflush_r+0x14>
   12910:	8522                	mv	a0,s0
   12912:	6442                	ld	s0,16(sp)
   12914:	60e2                	ld	ra,24(sp)
   12916:	6105                	addi	sp,sp,32
   12918:	bd0d                	j	1274a <__sflush_r>

000000000001291a <fflush>:
   1291a:	85aa                	mv	a1,a0
   1291c:	c501                	beqz	a0,12924 <fflush+0xa>
   1291e:	8601b503          	ld	a0,-1952(gp) # 1f588 <_impure_ptr>
   12922:	b7c9                	j	128e4 <_fflush_r>
   12924:	00000597          	auipc	a1,0x0
   12928:	fc058593          	addi	a1,a1,-64 # 128e4 <_fflush_r>
   1292c:	8301b503          	ld	a0,-2000(gp) # 1f558 <_global_impure_ptr>
   12930:	1790006f          	j	132a8 <_fwalk_reent>

0000000000012934 <__fp_lock>:
   12934:	4501                	li	a0,0
   12936:	8082                	ret

0000000000012938 <_cleanup_r>:
   12938:	00007597          	auipc	a1,0x7
   1293c:	37858593          	addi	a1,a1,888 # 19cb0 <_fclose_r>
   12940:	1690006f          	j	132a8 <_fwalk_reent>

0000000000012944 <__sinit.part.0>:
   12944:	7139                	addi	sp,sp,-64
   12946:	fc06                	sd	ra,56(sp)
   12948:	f822                	sd	s0,48(sp)
   1294a:	f426                	sd	s1,40(sp)
   1294c:	f04a                	sd	s2,32(sp)
   1294e:	ec4e                	sd	s3,24(sp)
   12950:	e852                	sd	s4,16(sp)
   12952:	e456                	sd	s5,8(sp)
   12954:	e05a                	sd	s6,0(sp)
   12956:	6500                	ld	s0,8(a0)
   12958:	00000717          	auipc	a4,0x0
   1295c:	fe070713          	addi	a4,a4,-32 # 12938 <_cleanup_r>
   12960:	ed38                	sd	a4,88(a0)
   12962:	53850793          	addi	a5,a0,1336
   12966:	470d                	li	a4,3
   12968:	52e52423          	sw	a4,1320(a0)
   1296c:	52f53823          	sd	a5,1328(a0)
   12970:	52053023          	sd	zero,1312(a0)
   12974:	4791                	li	a5,4
   12976:	892a                	mv	s2,a0
   12978:	c81c                	sw	a5,16(s0)
   1297a:	4621                	li	a2,8
   1297c:	4581                	li	a1,0
   1297e:	0a042623          	sw	zero,172(s0)
   12982:	00043023          	sd	zero,0(s0)
   12986:	00043423          	sd	zero,8(s0)
   1298a:	00043c23          	sd	zero,24(s0)
   1298e:	02042023          	sw	zero,32(s0)
   12992:	02042423          	sw	zero,40(s0)
   12996:	0a440513          	addi	a0,s0,164
   1299a:	d31fd0ef          	jal	ra,106ca <memset>
   1299e:	01093483          	ld	s1,16(s2)
   129a2:	00004b17          	auipc	s6,0x4
   129a6:	594b0b13          	addi	s6,s6,1428 # 16f36 <__sread>
   129aa:	00004a97          	auipc	s5,0x4
   129ae:	5c8a8a93          	addi	s5,s5,1480 # 16f72 <__swrite>
   129b2:	00004a17          	auipc	s4,0x4
   129b6:	614a0a13          	addi	s4,s4,1556 # 16fc6 <__sseek>
   129ba:	00004997          	auipc	s3,0x4
   129be:	64e98993          	addi	s3,s3,1614 # 17008 <__sclose>
   129c2:	67c1                	lui	a5,0x10
   129c4:	03643c23          	sd	s6,56(s0)
   129c8:	05543023          	sd	s5,64(s0)
   129cc:	05443423          	sd	s4,72(s0)
   129d0:	05343823          	sd	s3,80(s0)
   129d4:	f800                	sd	s0,48(s0)
   129d6:	07a5                	addi	a5,a5,9
   129d8:	c89c                	sw	a5,16(s1)
   129da:	4621                	li	a2,8
   129dc:	4581                	li	a1,0
   129de:	0a04a623          	sw	zero,172(s1)
   129e2:	0004b023          	sd	zero,0(s1)
   129e6:	0004b423          	sd	zero,8(s1)
   129ea:	0004bc23          	sd	zero,24(s1)
   129ee:	0204a023          	sw	zero,32(s1)
   129f2:	0204a423          	sw	zero,40(s1)
   129f6:	0a448513          	addi	a0,s1,164
   129fa:	cd1fd0ef          	jal	ra,106ca <memset>
   129fe:	01893403          	ld	s0,24(s2)
   12a02:	000207b7          	lui	a5,0x20
   12a06:	0364bc23          	sd	s6,56(s1)
   12a0a:	0554b023          	sd	s5,64(s1)
   12a0e:	0544b423          	sd	s4,72(s1)
   12a12:	0534b823          	sd	s3,80(s1)
   12a16:	f884                	sd	s1,48(s1)
   12a18:	07c9                	addi	a5,a5,18
   12a1a:	c81c                	sw	a5,16(s0)
   12a1c:	0a042623          	sw	zero,172(s0)
   12a20:	00043023          	sd	zero,0(s0)
   12a24:	00043423          	sd	zero,8(s0)
   12a28:	00043c23          	sd	zero,24(s0)
   12a2c:	02042023          	sw	zero,32(s0)
   12a30:	02042423          	sw	zero,40(s0)
   12a34:	0a440513          	addi	a0,s0,164
   12a38:	4621                	li	a2,8
   12a3a:	4581                	li	a1,0
   12a3c:	c8ffd0ef          	jal	ra,106ca <memset>
   12a40:	70e2                	ld	ra,56(sp)
   12a42:	03643c23          	sd	s6,56(s0)
   12a46:	05543023          	sd	s5,64(s0)
   12a4a:	05443423          	sd	s4,72(s0)
   12a4e:	05343823          	sd	s3,80(s0)
   12a52:	f800                	sd	s0,48(s0)
   12a54:	7442                	ld	s0,48(sp)
   12a56:	4785                	li	a5,1
   12a58:	04f92823          	sw	a5,80(s2)
   12a5c:	74a2                	ld	s1,40(sp)
   12a5e:	7902                	ld	s2,32(sp)
   12a60:	69e2                	ld	s3,24(sp)
   12a62:	6a42                	ld	s4,16(sp)
   12a64:	6aa2                	ld	s5,8(sp)
   12a66:	6b02                	ld	s6,0(sp)
   12a68:	6121                	addi	sp,sp,64
   12a6a:	8082                	ret

0000000000012a6c <__fp_unlock>:
   12a6c:	4501                	li	a0,0
   12a6e:	8082                	ret

0000000000012a70 <__sfmoreglue>:
   12a70:	1101                	addi	sp,sp,-32
   12a72:	e426                	sd	s1,8(sp)
   12a74:	0b000613          	li	a2,176
   12a78:	fff5849b          	addiw	s1,a1,-1
   12a7c:	02c484b3          	mul	s1,s1,a2
   12a80:	e04a                	sd	s2,0(sp)
   12a82:	892e                	mv	s2,a1
   12a84:	e822                	sd	s0,16(sp)
   12a86:	ec06                	sd	ra,24(sp)
   12a88:	0c848593          	addi	a1,s1,200
   12a8c:	315020ef          	jal	ra,155a0 <_malloc_r>
   12a90:	842a                	mv	s0,a0
   12a92:	cd01                	beqz	a0,12aaa <__sfmoreglue+0x3a>
   12a94:	0561                	addi	a0,a0,24
   12a96:	00043023          	sd	zero,0(s0)
   12a9a:	01242423          	sw	s2,8(s0)
   12a9e:	e808                	sd	a0,16(s0)
   12aa0:	0b048613          	addi	a2,s1,176
   12aa4:	4581                	li	a1,0
   12aa6:	c25fd0ef          	jal	ra,106ca <memset>
   12aaa:	60e2                	ld	ra,24(sp)
   12aac:	8522                	mv	a0,s0
   12aae:	6442                	ld	s0,16(sp)
   12ab0:	64a2                	ld	s1,8(sp)
   12ab2:	6902                	ld	s2,0(sp)
   12ab4:	6105                	addi	sp,sp,32
   12ab6:	8082                	ret

0000000000012ab8 <__sfp>:
   12ab8:	7179                	addi	sp,sp,-48
   12aba:	ec26                	sd	s1,24(sp)
   12abc:	8301b483          	ld	s1,-2000(gp) # 1f558 <_global_impure_ptr>
   12ac0:	48bc                	lw	a5,80(s1)
   12ac2:	e84a                	sd	s2,16(sp)
   12ac4:	f406                	sd	ra,40(sp)
   12ac6:	f022                	sd	s0,32(sp)
   12ac8:	e44e                	sd	s3,8(sp)
   12aca:	892a                	mv	s2,a0
   12acc:	c3c9                	beqz	a5,12b4e <__sfp+0x96>
   12ace:	52048493          	addi	s1,s1,1312
   12ad2:	0b000993          	li	s3,176
   12ad6:	449c                	lw	a5,8(s1)
   12ad8:	6880                	ld	s0,16(s1)
   12ada:	06f05663          	blez	a5,12b46 <__sfp+0x8e>
   12ade:	37fd                	addiw	a5,a5,-1
   12ae0:	1782                	slli	a5,a5,0x20
   12ae2:	9381                	srli	a5,a5,0x20
   12ae4:	0785                	addi	a5,a5,1
   12ae6:	033787b3          	mul	a5,a5,s3
   12aea:	97a2                	add	a5,a5,s0
   12aec:	a029                	j	12af6 <__sfp+0x3e>
   12aee:	0b040413          	addi	s0,s0,176
   12af2:	04878a63          	beq	a5,s0,12b46 <__sfp+0x8e>
   12af6:	01041703          	lh	a4,16(s0)
   12afa:	fb75                	bnez	a4,12aee <__sfp+0x36>
   12afc:	77c1                	lui	a5,0xffff0
   12afe:	0785                	addi	a5,a5,1
   12b00:	0a042623          	sw	zero,172(s0)
   12b04:	00043023          	sd	zero,0(s0)
   12b08:	00043423          	sd	zero,8(s0)
   12b0c:	c81c                	sw	a5,16(s0)
   12b0e:	00043c23          	sd	zero,24(s0)
   12b12:	02042023          	sw	zero,32(s0)
   12b16:	02042423          	sw	zero,40(s0)
   12b1a:	4621                	li	a2,8
   12b1c:	4581                	li	a1,0
   12b1e:	0a440513          	addi	a0,s0,164
   12b22:	ba9fd0ef          	jal	ra,106ca <memset>
   12b26:	04043c23          	sd	zero,88(s0)
   12b2a:	06042023          	sw	zero,96(s0)
   12b2e:	06043c23          	sd	zero,120(s0)
   12b32:	08042023          	sw	zero,128(s0)
   12b36:	70a2                	ld	ra,40(sp)
   12b38:	8522                	mv	a0,s0
   12b3a:	7402                	ld	s0,32(sp)
   12b3c:	64e2                	ld	s1,24(sp)
   12b3e:	6942                	ld	s2,16(sp)
   12b40:	69a2                	ld	s3,8(sp)
   12b42:	6145                	addi	sp,sp,48
   12b44:	8082                	ret
   12b46:	6080                	ld	s0,0(s1)
   12b48:	c419                	beqz	s0,12b56 <__sfp+0x9e>
   12b4a:	84a2                	mv	s1,s0
   12b4c:	b769                	j	12ad6 <__sfp+0x1e>
   12b4e:	8526                	mv	a0,s1
   12b50:	df5ff0ef          	jal	ra,12944 <__sinit.part.0>
   12b54:	bfad                	j	12ace <__sfp+0x16>
   12b56:	4591                	li	a1,4
   12b58:	854a                	mv	a0,s2
   12b5a:	f17ff0ef          	jal	ra,12a70 <__sfmoreglue>
   12b5e:	e088                	sd	a0,0(s1)
   12b60:	842a                	mv	s0,a0
   12b62:	f565                	bnez	a0,12b4a <__sfp+0x92>
   12b64:	47b1                	li	a5,12
   12b66:	00f92023          	sw	a5,0(s2)
   12b6a:	b7f1                	j	12b36 <__sfp+0x7e>

0000000000012b6c <_cleanup>:
   12b6c:	00007597          	auipc	a1,0x7
   12b70:	14458593          	addi	a1,a1,324 # 19cb0 <_fclose_r>
   12b74:	8301b503          	ld	a0,-2000(gp) # 1f558 <_global_impure_ptr>
   12b78:	af05                	j	132a8 <_fwalk_reent>

0000000000012b7a <__sinit>:
   12b7a:	493c                	lw	a5,80(a0)
   12b7c:	c391                	beqz	a5,12b80 <__sinit+0x6>
   12b7e:	8082                	ret
   12b80:	b3d1                	j	12944 <__sinit.part.0>

0000000000012b82 <__sfp_lock_acquire>:
   12b82:	8082                	ret

0000000000012b84 <__sfp_lock_release>:
   12b84:	8082                	ret

0000000000012b86 <__sinit_lock_acquire>:
   12b86:	8082                	ret

0000000000012b88 <__sinit_lock_release>:
   12b88:	8082                	ret

0000000000012b8a <__fp_lock_all>:
   12b8a:	00000597          	auipc	a1,0x0
   12b8e:	daa58593          	addi	a1,a1,-598 # 12934 <__fp_lock>
   12b92:	8601b503          	ld	a0,-1952(gp) # 1f588 <_impure_ptr>
   12b96:	ad41                	j	13226 <_fwalk>

0000000000012b98 <__fp_unlock_all>:
   12b98:	00000597          	auipc	a1,0x0
   12b9c:	ed458593          	addi	a1,a1,-300 # 12a6c <__fp_unlock>
   12ba0:	8601b503          	ld	a0,-1952(gp) # 1f588 <_impure_ptr>
   12ba4:	a549                	j	13226 <_fwalk>

0000000000012ba6 <__libc_fini_array>:
   12ba6:	1101                	addi	sp,sp,-32
   12ba8:	e822                	sd	s0,16(sp)
   12baa:	0000b797          	auipc	a5,0xb
   12bae:	7de78793          	addi	a5,a5,2014 # 1e388 <__fini_array_end>
   12bb2:	0000b417          	auipc	s0,0xb
   12bb6:	7ce40413          	addi	s0,s0,1998 # 1e380 <__init_array_end>
   12bba:	8f81                	sub	a5,a5,s0
   12bbc:	e426                	sd	s1,8(sp)
   12bbe:	ec06                	sd	ra,24(sp)
   12bc0:	4037d493          	srai	s1,a5,0x3
   12bc4:	c881                	beqz	s1,12bd4 <__libc_fini_array+0x2e>
   12bc6:	17e1                	addi	a5,a5,-8
   12bc8:	943e                	add	s0,s0,a5
   12bca:	601c                	ld	a5,0(s0)
   12bcc:	14fd                	addi	s1,s1,-1
   12bce:	1461                	addi	s0,s0,-8
   12bd0:	9782                	jalr	a5
   12bd2:	fce5                	bnez	s1,12bca <__libc_fini_array+0x24>
   12bd4:	60e2                	ld	ra,24(sp)
   12bd6:	6442                	ld	s0,16(sp)
   12bd8:	64a2                	ld	s1,8(sp)
   12bda:	6105                	addi	sp,sp,32
   12bdc:	8082                	ret

0000000000012bde <_malloc_trim_r>:
   12bde:	7179                	addi	sp,sp,-48
   12be0:	f022                	sd	s0,32(sp)
   12be2:	ec26                	sd	s1,24(sp)
   12be4:	e84a                	sd	s2,16(sp)
   12be6:	e44e                	sd	s3,8(sp)
   12be8:	e052                	sd	s4,0(sp)
   12bea:	89ae                	mv	s3,a1
   12bec:	f406                	sd	ra,40(sp)
   12bee:	0000ca17          	auipc	s4,0xc
   12bf2:	12aa0a13          	addi	s4,s4,298 # 1ed18 <__malloc_av_>
   12bf6:	892a                	mv	s2,a0
   12bf8:	26a030ef          	jal	ra,15e62 <__malloc_lock>
   12bfc:	010a3703          	ld	a4,16(s4)
   12c00:	6785                	lui	a5,0x1
   12c02:	fdf78413          	addi	s0,a5,-33 # fdf <register_fini-0xf0d1>
   12c06:	6704                	ld	s1,8(a4)
   12c08:	41340433          	sub	s0,s0,s3
   12c0c:	98f1                	andi	s1,s1,-4
   12c0e:	9426                	add	s0,s0,s1
   12c10:	8031                	srli	s0,s0,0xc
   12c12:	147d                	addi	s0,s0,-1
   12c14:	0432                	slli	s0,s0,0xc
   12c16:	00f44b63          	blt	s0,a5,12c2c <_malloc_trim_r+0x4e>
   12c1a:	4581                	li	a1,0
   12c1c:	854a                	mv	a0,s2
   12c1e:	1d4040ef          	jal	ra,16df2 <_sbrk_r>
   12c22:	010a3783          	ld	a5,16(s4)
   12c26:	97a6                	add	a5,a5,s1
   12c28:	00f50e63          	beq	a0,a5,12c44 <_malloc_trim_r+0x66>
   12c2c:	854a                	mv	a0,s2
   12c2e:	236030ef          	jal	ra,15e64 <__malloc_unlock>
   12c32:	70a2                	ld	ra,40(sp)
   12c34:	7402                	ld	s0,32(sp)
   12c36:	64e2                	ld	s1,24(sp)
   12c38:	6942                	ld	s2,16(sp)
   12c3a:	69a2                	ld	s3,8(sp)
   12c3c:	6a02                	ld	s4,0(sp)
   12c3e:	4501                	li	a0,0
   12c40:	6145                	addi	sp,sp,48
   12c42:	8082                	ret
   12c44:	408005b3          	neg	a1,s0
   12c48:	854a                	mv	a0,s2
   12c4a:	1a8040ef          	jal	ra,16df2 <_sbrk_r>
   12c4e:	57fd                	li	a5,-1
   12c50:	02f50a63          	beq	a0,a5,12c84 <_malloc_trim_r+0xa6>
   12c54:	0e018713          	addi	a4,gp,224 # 1fe08 <__malloc_current_mallinfo>
   12c58:	431c                	lw	a5,0(a4)
   12c5a:	010a3683          	ld	a3,16(s4)
   12c5e:	8c81                	sub	s1,s1,s0
   12c60:	0014e493          	ori	s1,s1,1
   12c64:	4087843b          	subw	s0,a5,s0
   12c68:	854a                	mv	a0,s2
   12c6a:	e684                	sd	s1,8(a3)
   12c6c:	c300                	sw	s0,0(a4)
   12c6e:	1f6030ef          	jal	ra,15e64 <__malloc_unlock>
   12c72:	70a2                	ld	ra,40(sp)
   12c74:	7402                	ld	s0,32(sp)
   12c76:	64e2                	ld	s1,24(sp)
   12c78:	6942                	ld	s2,16(sp)
   12c7a:	69a2                	ld	s3,8(sp)
   12c7c:	6a02                	ld	s4,0(sp)
   12c7e:	4505                	li	a0,1
   12c80:	6145                	addi	sp,sp,48
   12c82:	8082                	ret
   12c84:	4581                	li	a1,0
   12c86:	854a                	mv	a0,s2
   12c88:	16a040ef          	jal	ra,16df2 <_sbrk_r>
   12c8c:	010a3703          	ld	a4,16(s4)
   12c90:	46fd                	li	a3,31
   12c92:	40e507b3          	sub	a5,a0,a4
   12c96:	f8f6dbe3          	bge	a3,a5,12c2c <_malloc_trim_r+0x4e>
   12c9a:	8681b683          	ld	a3,-1944(gp) # 1f590 <__malloc_sbrk_base>
   12c9e:	8d15                	sub	a0,a0,a3
   12ca0:	0017e793          	ori	a5,a5,1
   12ca4:	0ea1a023          	sw	a0,224(gp) # 1fe08 <__malloc_current_mallinfo>
   12ca8:	e71c                	sd	a5,8(a4)
   12caa:	b749                	j	12c2c <_malloc_trim_r+0x4e>

0000000000012cac <_free_r>:
   12cac:	c5f5                	beqz	a1,12d98 <_free_r+0xec>
   12cae:	1101                	addi	sp,sp,-32
   12cb0:	e822                	sd	s0,16(sp)
   12cb2:	e426                	sd	s1,8(sp)
   12cb4:	842e                	mv	s0,a1
   12cb6:	84aa                	mv	s1,a0
   12cb8:	ec06                	sd	ra,24(sp)
   12cba:	1a8030ef          	jal	ra,15e62 <__malloc_lock>
   12cbe:	ff843583          	ld	a1,-8(s0)
   12cc2:	ff040713          	addi	a4,s0,-16
   12cc6:	0000c517          	auipc	a0,0xc
   12cca:	05250513          	addi	a0,a0,82 # 1ed18 <__malloc_av_>
   12cce:	ffe5f793          	andi	a5,a1,-2
   12cd2:	00f70633          	add	a2,a4,a5
   12cd6:	6614                	ld	a3,8(a2)
   12cd8:	01053803          	ld	a6,16(a0)
   12cdc:	9af1                	andi	a3,a3,-4
   12cde:	14c80063          	beq	a6,a2,12e1e <_free_r+0x172>
   12ce2:	e614                	sd	a3,8(a2)
   12ce4:	8985                	andi	a1,a1,1
   12ce6:	00d60833          	add	a6,a2,a3
   12cea:	e1c1                	bnez	a1,12d6a <_free_r+0xbe>
   12cec:	ff043303          	ld	t1,-16(s0)
   12cf0:	00883583          	ld	a1,8(a6)
   12cf4:	0000c897          	auipc	a7,0xc
   12cf8:	03488893          	addi	a7,a7,52 # 1ed28 <__malloc_av_+0x10>
   12cfc:	40670733          	sub	a4,a4,t1
   12d00:	01073803          	ld	a6,16(a4)
   12d04:	979a                	add	a5,a5,t1
   12d06:	8985                	andi	a1,a1,1
   12d08:	0f180863          	beq	a6,a7,12df8 <_free_r+0x14c>
   12d0c:	01873303          	ld	t1,24(a4)
   12d10:	00683c23          	sd	t1,24(a6)
   12d14:	01033823          	sd	a6,16(t1)
   12d18:	14058d63          	beqz	a1,12e72 <_free_r+0x1c6>
   12d1c:	0017e693          	ori	a3,a5,1
   12d20:	e714                	sd	a3,8(a4)
   12d22:	e21c                	sd	a5,0(a2)
   12d24:	1ff00693          	li	a3,511
   12d28:	08f6e263          	bltu	a3,a5,12dac <_free_r+0x100>
   12d2c:	838d                	srli	a5,a5,0x3
   12d2e:	0017869b          	addiw	a3,a5,1
   12d32:	0016969b          	slliw	a3,a3,0x1
   12d36:	068e                	slli	a3,a3,0x3
   12d38:	00853803          	ld	a6,8(a0)
   12d3c:	96aa                	add	a3,a3,a0
   12d3e:	628c                	ld	a1,0(a3)
   12d40:	4027d61b          	sraiw	a2,a5,0x2
   12d44:	4785                	li	a5,1
   12d46:	00c797b3          	sll	a5,a5,a2
   12d4a:	0107e7b3          	or	a5,a5,a6
   12d4e:	ff068613          	addi	a2,a3,-16
   12d52:	ef10                	sd	a2,24(a4)
   12d54:	eb0c                	sd	a1,16(a4)
   12d56:	e51c                	sd	a5,8(a0)
   12d58:	e298                	sd	a4,0(a3)
   12d5a:	ed98                	sd	a4,24(a1)
   12d5c:	6442                	ld	s0,16(sp)
   12d5e:	60e2                	ld	ra,24(sp)
   12d60:	8526                	mv	a0,s1
   12d62:	64a2                	ld	s1,8(sp)
   12d64:	6105                	addi	sp,sp,32
   12d66:	0fe0306f          	j	15e64 <__malloc_unlock>
   12d6a:	00883583          	ld	a1,8(a6)
   12d6e:	8985                	andi	a1,a1,1
   12d70:	e58d                	bnez	a1,12d9a <_free_r+0xee>
   12d72:	97b6                	add	a5,a5,a3
   12d74:	0000c897          	auipc	a7,0xc
   12d78:	fb488893          	addi	a7,a7,-76 # 1ed28 <__malloc_av_+0x10>
   12d7c:	6a14                	ld	a3,16(a2)
   12d7e:	0017e813          	ori	a6,a5,1
   12d82:	00f705b3          	add	a1,a4,a5
   12d86:	11168063          	beq	a3,a7,12e86 <_free_r+0x1da>
   12d8a:	6e10                	ld	a2,24(a2)
   12d8c:	ee90                	sd	a2,24(a3)
   12d8e:	ea14                	sd	a3,16(a2)
   12d90:	01073423          	sd	a6,8(a4)
   12d94:	e19c                	sd	a5,0(a1)
   12d96:	b779                	j	12d24 <_free_r+0x78>
   12d98:	8082                	ret
   12d9a:	0017e693          	ori	a3,a5,1
   12d9e:	fed43c23          	sd	a3,-8(s0)
   12da2:	e21c                	sd	a5,0(a2)
   12da4:	1ff00693          	li	a3,511
   12da8:	f8f6f2e3          	bgeu	a3,a5,12d2c <_free_r+0x80>
   12dac:	0097d693          	srli	a3,a5,0x9
   12db0:	4611                	li	a2,4
   12db2:	08d66f63          	bltu	a2,a3,12e50 <_free_r+0x1a4>
   12db6:	0067d693          	srli	a3,a5,0x6
   12dba:	0396859b          	addiw	a1,a3,57
   12dbe:	0015959b          	slliw	a1,a1,0x1
   12dc2:	0386861b          	addiw	a2,a3,56
   12dc6:	058e                	slli	a1,a1,0x3
   12dc8:	95aa                	add	a1,a1,a0
   12dca:	6194                	ld	a3,0(a1)
   12dcc:	15c1                	addi	a1,a1,-16
   12dce:	0cd58663          	beq	a1,a3,12e9a <_free_r+0x1ee>
   12dd2:	6690                	ld	a2,8(a3)
   12dd4:	9a71                	andi	a2,a2,-4
   12dd6:	00c7f563          	bgeu	a5,a2,12de0 <_free_r+0x134>
   12dda:	6a94                	ld	a3,16(a3)
   12ddc:	fed59be3          	bne	a1,a3,12dd2 <_free_r+0x126>
   12de0:	6e8c                	ld	a1,24(a3)
   12de2:	ef0c                	sd	a1,24(a4)
   12de4:	eb14                	sd	a3,16(a4)
   12de6:	6442                	ld	s0,16(sp)
   12de8:	60e2                	ld	ra,24(sp)
   12dea:	e998                	sd	a4,16(a1)
   12dec:	8526                	mv	a0,s1
   12dee:	64a2                	ld	s1,8(sp)
   12df0:	ee98                	sd	a4,24(a3)
   12df2:	6105                	addi	sp,sp,32
   12df4:	0700306f          	j	15e64 <__malloc_unlock>
   12df8:	0e059d63          	bnez	a1,12ef2 <_free_r+0x246>
   12dfc:	6e0c                	ld	a1,24(a2)
   12dfe:	6a10                	ld	a2,16(a2)
   12e00:	97b6                	add	a5,a5,a3
   12e02:	6442                	ld	s0,16(sp)
   12e04:	ee0c                	sd	a1,24(a2)
   12e06:	e990                	sd	a2,16(a1)
   12e08:	0017e693          	ori	a3,a5,1
   12e0c:	60e2                	ld	ra,24(sp)
   12e0e:	e714                	sd	a3,8(a4)
   12e10:	8526                	mv	a0,s1
   12e12:	973e                	add	a4,a4,a5
   12e14:	64a2                	ld	s1,8(sp)
   12e16:	e31c                	sd	a5,0(a4)
   12e18:	6105                	addi	sp,sp,32
   12e1a:	04a0306f          	j	15e64 <__malloc_unlock>
   12e1e:	8985                	andi	a1,a1,1
   12e20:	97b6                	add	a5,a5,a3
   12e22:	e989                	bnez	a1,12e34 <_free_r+0x188>
   12e24:	ff043583          	ld	a1,-16(s0)
   12e28:	8f0d                	sub	a4,a4,a1
   12e2a:	6f14                	ld	a3,24(a4)
   12e2c:	6b10                	ld	a2,16(a4)
   12e2e:	97ae                	add	a5,a5,a1
   12e30:	ee14                	sd	a3,24(a2)
   12e32:	ea90                	sd	a2,16(a3)
   12e34:	0017e693          	ori	a3,a5,1
   12e38:	e714                	sd	a3,8(a4)
   12e3a:	e918                	sd	a4,16(a0)
   12e3c:	8701b703          	ld	a4,-1936(gp) # 1f598 <__malloc_trim_threshold>
   12e40:	f0e7eee3          	bltu	a5,a4,12d5c <_free_r+0xb0>
   12e44:	8981b583          	ld	a1,-1896(gp) # 1f5c0 <__malloc_top_pad>
   12e48:	8526                	mv	a0,s1
   12e4a:	d95ff0ef          	jal	ra,12bde <_malloc_trim_r>
   12e4e:	b739                	j	12d5c <_free_r+0xb0>
   12e50:	4651                	li	a2,20
   12e52:	02d67263          	bgeu	a2,a3,12e76 <_free_r+0x1ca>
   12e56:	05400613          	li	a2,84
   12e5a:	04d66b63          	bltu	a2,a3,12eb0 <_free_r+0x204>
   12e5e:	00c7d693          	srli	a3,a5,0xc
   12e62:	06f6859b          	addiw	a1,a3,111
   12e66:	0015959b          	slliw	a1,a1,0x1
   12e6a:	06e6861b          	addiw	a2,a3,110
   12e6e:	058e                	slli	a1,a1,0x3
   12e70:	bfa1                	j	12dc8 <_free_r+0x11c>
   12e72:	97b6                	add	a5,a5,a3
   12e74:	b721                	j	12d7c <_free_r+0xd0>
   12e76:	05c6859b          	addiw	a1,a3,92
   12e7a:	0015959b          	slliw	a1,a1,0x1
   12e7e:	05b6861b          	addiw	a2,a3,91
   12e82:	058e                	slli	a1,a1,0x3
   12e84:	b791                	j	12dc8 <_free_r+0x11c>
   12e86:	f518                	sd	a4,40(a0)
   12e88:	f118                	sd	a4,32(a0)
   12e8a:	01173c23          	sd	a7,24(a4)
   12e8e:	01173823          	sd	a7,16(a4)
   12e92:	01073423          	sd	a6,8(a4)
   12e96:	e19c                	sd	a5,0(a1)
   12e98:	b5d1                	j	12d5c <_free_r+0xb0>
   12e9a:	00853803          	ld	a6,8(a0)
   12e9e:	4026561b          	sraiw	a2,a2,0x2
   12ea2:	4785                	li	a5,1
   12ea4:	00c79633          	sll	a2,a5,a2
   12ea8:	01066633          	or	a2,a2,a6
   12eac:	e510                	sd	a2,8(a0)
   12eae:	bf15                	j	12de2 <_free_r+0x136>
   12eb0:	15400613          	li	a2,340
   12eb4:	00d66c63          	bltu	a2,a3,12ecc <_free_r+0x220>
   12eb8:	00f7d693          	srli	a3,a5,0xf
   12ebc:	0786859b          	addiw	a1,a3,120
   12ec0:	0015959b          	slliw	a1,a1,0x1
   12ec4:	0776861b          	addiw	a2,a3,119
   12ec8:	058e                	slli	a1,a1,0x3
   12eca:	bdfd                	j	12dc8 <_free_r+0x11c>
   12ecc:	55400613          	li	a2,1364
   12ed0:	00d66c63          	bltu	a2,a3,12ee8 <_free_r+0x23c>
   12ed4:	0127d693          	srli	a3,a5,0x12
   12ed8:	07d6859b          	addiw	a1,a3,125
   12edc:	0015959b          	slliw	a1,a1,0x1
   12ee0:	07c6861b          	addiw	a2,a3,124
   12ee4:	058e                	slli	a1,a1,0x3
   12ee6:	b5cd                	j	12dc8 <_free_r+0x11c>
   12ee8:	7f000593          	li	a1,2032
   12eec:	07e00613          	li	a2,126
   12ef0:	bde1                	j	12dc8 <_free_r+0x11c>
   12ef2:	0017e693          	ori	a3,a5,1
   12ef6:	e714                	sd	a3,8(a4)
   12ef8:	e21c                	sd	a5,0(a2)
   12efa:	b58d                	j	12d5c <_free_r+0xb0>

0000000000012efc <__sfvwrite_r>:
   12efc:	6a1c                	ld	a5,16(a2)
   12efe:	1a078c63          	beqz	a5,130b6 <__sfvwrite_r+0x1ba>
   12f02:	0105d783          	lhu	a5,16(a1)
   12f06:	711d                	addi	sp,sp,-96
   12f08:	e8a2                	sd	s0,80(sp)
   12f0a:	f852                	sd	s4,48(sp)
   12f0c:	f456                	sd	s5,40(sp)
   12f0e:	ec86                	sd	ra,88(sp)
   12f10:	e4a6                	sd	s1,72(sp)
   12f12:	e0ca                	sd	s2,64(sp)
   12f14:	fc4e                	sd	s3,56(sp)
   12f16:	f05a                	sd	s6,32(sp)
   12f18:	ec5e                	sd	s7,24(sp)
   12f1a:	e862                	sd	s8,16(sp)
   12f1c:	e466                	sd	s9,8(sp)
   12f1e:	e06a                	sd	s10,0(sp)
   12f20:	0087f713          	andi	a4,a5,8
   12f24:	8a32                	mv	s4,a2
   12f26:	8aaa                	mv	s5,a0
   12f28:	842e                	mv	s0,a1
   12f2a:	c325                	beqz	a4,12f8a <__sfvwrite_r+0x8e>
   12f2c:	6d98                	ld	a4,24(a1)
   12f2e:	cf31                	beqz	a4,12f8a <__sfvwrite_r+0x8e>
   12f30:	0027f713          	andi	a4,a5,2
   12f34:	000a3903          	ld	s2,0(s4)
   12f38:	c735                	beqz	a4,12fa4 <__sfvwrite_r+0xa8>
   12f3a:	603c                	ld	a5,64(s0)
   12f3c:	780c                	ld	a1,48(s0)
   12f3e:	80000b37          	lui	s6,0x80000
   12f42:	4981                	li	s3,0
   12f44:	4481                	li	s1,0
   12f46:	c00b4b13          	xori	s6,s6,-1024
   12f4a:	864e                	mv	a2,s3
   12f4c:	8556                	mv	a0,s5
   12f4e:	c885                	beqz	s1,12f7e <__sfvwrite_r+0x82>
   12f50:	86a6                	mv	a3,s1
   12f52:	009b7363          	bgeu	s6,s1,12f58 <__sfvwrite_r+0x5c>
   12f56:	86da                	mv	a3,s6
   12f58:	2681                	sext.w	a3,a3
   12f5a:	9782                	jalr	a5
   12f5c:	14a05563          	blez	a0,130a6 <__sfvwrite_r+0x1aa>
   12f60:	010a3783          	ld	a5,16(s4)
   12f64:	99aa                	add	s3,s3,a0
   12f66:	8c89                	sub	s1,s1,a0
   12f68:	40a78533          	sub	a0,a5,a0
   12f6c:	00aa3823          	sd	a0,16(s4)
   12f70:	10050763          	beqz	a0,1307e <__sfvwrite_r+0x182>
   12f74:	603c                	ld	a5,64(s0)
   12f76:	780c                	ld	a1,48(s0)
   12f78:	864e                	mv	a2,s3
   12f7a:	8556                	mv	a0,s5
   12f7c:	f8f1                	bnez	s1,12f50 <__sfvwrite_r+0x54>
   12f7e:	00093983          	ld	s3,0(s2)
   12f82:	00893483          	ld	s1,8(s2)
   12f86:	0941                	addi	s2,s2,16
   12f88:	b7c9                	j	12f4a <__sfvwrite_r+0x4e>
   12f8a:	85a2                	mv	a1,s0
   12f8c:	8556                	mv	a0,s5
   12f8e:	e0cff0ef          	jal	ra,1259a <__swsetup_r>
   12f92:	28051863          	bnez	a0,13222 <__sfvwrite_r+0x326>
   12f96:	01045783          	lhu	a5,16(s0)
   12f9a:	000a3903          	ld	s2,0(s4)
   12f9e:	0027f713          	andi	a4,a5,2
   12fa2:	ff41                	bnez	a4,12f3a <__sfvwrite_r+0x3e>
   12fa4:	0017f713          	andi	a4,a5,1
   12fa8:	eb35                	bnez	a4,1301c <__sfvwrite_r+0x120>
   12faa:	4444                	lw	s1,12(s0)
   12fac:	6008                	ld	a0,0(s0)
   12fae:	80000b37          	lui	s6,0x80000
   12fb2:	ffeb4b93          	xori	s7,s6,-2
   12fb6:	4c01                	li	s8,0
   12fb8:	4981                	li	s3,0
   12fba:	fffb4b13          	not	s6,s6
   12fbe:	8ca6                	mv	s9,s1
   12fc0:	04098863          	beqz	s3,13010 <__sfvwrite_r+0x114>
   12fc4:	2007f713          	andi	a4,a5,512
   12fc8:	12070a63          	beqz	a4,130fc <__sfvwrite_r+0x200>
   12fcc:	8d26                	mv	s10,s1
   12fce:	1899f763          	bgeu	s3,s1,1315c <__sfvwrite_r+0x260>
   12fd2:	8cce                	mv	s9,s3
   12fd4:	8d4e                	mv	s10,s3
   12fd6:	866a                	mv	a2,s10
   12fd8:	85e2                	mv	a1,s8
   12fda:	5b3020ef          	jal	ra,15d8c <memmove>
   12fde:	4458                	lw	a4,12(s0)
   12fe0:	601c                	ld	a5,0(s0)
   12fe2:	84ce                	mv	s1,s3
   12fe4:	41970cbb          	subw	s9,a4,s9
   12fe8:	97ea                	add	a5,a5,s10
   12fea:	01942623          	sw	s9,12(s0)
   12fee:	e01c                	sd	a5,0(s0)
   12ff0:	4981                	li	s3,0
   12ff2:	010a3603          	ld	a2,16(s4)
   12ff6:	9c26                	add	s8,s8,s1
   12ff8:	409604b3          	sub	s1,a2,s1
   12ffc:	009a3823          	sd	s1,16(s4)
   13000:	ccbd                	beqz	s1,1307e <__sfvwrite_r+0x182>
   13002:	4444                	lw	s1,12(s0)
   13004:	6008                	ld	a0,0(s0)
   13006:	01045783          	lhu	a5,16(s0)
   1300a:	8ca6                	mv	s9,s1
   1300c:	fa099ce3          	bnez	s3,12fc4 <__sfvwrite_r+0xc8>
   13010:	00093c03          	ld	s8,0(s2)
   13014:	00893983          	ld	s3,8(s2)
   13018:	0941                	addi	s2,s2,16
   1301a:	b755                	j	12fbe <__sfvwrite_r+0xc2>
   1301c:	4981                	li	s3,0
   1301e:	4501                	li	a0,0
   13020:	4c81                	li	s9,0
   13022:	4c01                	li	s8,0
   13024:	080c0b63          	beqz	s8,130ba <__sfvwrite_r+0x1be>
   13028:	c145                	beqz	a0,130c8 <__sfvwrite_r+0x1cc>
   1302a:	8bce                	mv	s7,s3
   1302c:	013c7363          	bgeu	s8,s3,13032 <__sfvwrite_r+0x136>
   13030:	8be2                	mv	s7,s8
   13032:	6008                	ld	a0,0(s0)
   13034:	6c1c                	ld	a5,24(s0)
   13036:	5014                	lw	a3,32(s0)
   13038:	84de                	mv	s1,s7
   1303a:	00a7f763          	bgeu	a5,a0,13048 <__sfvwrite_r+0x14c>
   1303e:	445c                	lw	a5,12(s0)
   13040:	00d78b3b          	addw	s6,a5,a3
   13044:	097b4d63          	blt	s6,s7,130de <__sfvwrite_r+0x1e2>
   13048:	18dbc463          	blt	s7,a3,131d0 <__sfvwrite_r+0x2d4>
   1304c:	603c                	ld	a5,64(s0)
   1304e:	780c                	ld	a1,48(s0)
   13050:	8666                	mv	a2,s9
   13052:	8556                	mv	a0,s5
   13054:	9782                	jalr	a5
   13056:	84aa                	mv	s1,a0
   13058:	04a05763          	blez	a0,130a6 <__sfvwrite_r+0x1aa>
   1305c:	0005079b          	sext.w	a5,a0
   13060:	40f989bb          	subw	s3,s3,a5
   13064:	4505                	li	a0,1
   13066:	02098b63          	beqz	s3,1309c <__sfvwrite_r+0x1a0>
   1306a:	010a3783          	ld	a5,16(s4)
   1306e:	9ca6                	add	s9,s9,s1
   13070:	409c0c33          	sub	s8,s8,s1
   13074:	409784b3          	sub	s1,a5,s1
   13078:	009a3823          	sd	s1,16(s4)
   1307c:	f4c5                	bnez	s1,13024 <__sfvwrite_r+0x128>
   1307e:	4501                	li	a0,0
   13080:	60e6                	ld	ra,88(sp)
   13082:	6446                	ld	s0,80(sp)
   13084:	64a6                	ld	s1,72(sp)
   13086:	6906                	ld	s2,64(sp)
   13088:	79e2                	ld	s3,56(sp)
   1308a:	7a42                	ld	s4,48(sp)
   1308c:	7aa2                	ld	s5,40(sp)
   1308e:	7b02                	ld	s6,32(sp)
   13090:	6be2                	ld	s7,24(sp)
   13092:	6c42                	ld	s8,16(sp)
   13094:	6ca2                	ld	s9,8(sp)
   13096:	6d02                	ld	s10,0(sp)
   13098:	6125                	addi	sp,sp,96
   1309a:	8082                	ret
   1309c:	85a2                	mv	a1,s0
   1309e:	8556                	mv	a0,s5
   130a0:	845ff0ef          	jal	ra,128e4 <_fflush_r>
   130a4:	d179                	beqz	a0,1306a <__sfvwrite_r+0x16e>
   130a6:	01041783          	lh	a5,16(s0)
   130aa:	0407e793          	ori	a5,a5,64
   130ae:	00f41823          	sh	a5,16(s0)
   130b2:	557d                	li	a0,-1
   130b4:	b7f1                	j	13080 <__sfvwrite_r+0x184>
   130b6:	4501                	li	a0,0
   130b8:	8082                	ret
   130ba:	00893c03          	ld	s8,8(s2)
   130be:	00093c83          	ld	s9,0(s2)
   130c2:	0941                	addi	s2,s2,16
   130c4:	fe0c0be3          	beqz	s8,130ba <__sfvwrite_r+0x1be>
   130c8:	8662                	mv	a2,s8
   130ca:	45a9                	li	a1,10
   130cc:	8566                	mv	a0,s9
   130ce:	343020ef          	jal	ra,15c10 <memchr>
   130d2:	12050f63          	beqz	a0,13210 <__sfvwrite_r+0x314>
   130d6:	0505                	addi	a0,a0,1
   130d8:	419509bb          	subw	s3,a0,s9
   130dc:	b7b9                	j	1302a <__sfvwrite_r+0x12e>
   130de:	85e6                	mv	a1,s9
   130e0:	865a                	mv	a2,s6
   130e2:	4ab020ef          	jal	ra,15d8c <memmove>
   130e6:	601c                	ld	a5,0(s0)
   130e8:	85a2                	mv	a1,s0
   130ea:	8556                	mv	a0,s5
   130ec:	97da                	add	a5,a5,s6
   130ee:	e01c                	sd	a5,0(s0)
   130f0:	ff4ff0ef          	jal	ra,128e4 <_fflush_r>
   130f4:	f94d                	bnez	a0,130a6 <__sfvwrite_r+0x1aa>
   130f6:	87da                	mv	a5,s6
   130f8:	84da                	mv	s1,s6
   130fa:	b79d                	j	13060 <__sfvwrite_r+0x164>
   130fc:	6c1c                	ld	a5,24(s0)
   130fe:	02a7e863          	bltu	a5,a0,1312e <__sfvwrite_r+0x232>
   13102:	501c                	lw	a5,32(s0)
   13104:	02f9e563          	bltu	s3,a5,1312e <__sfvwrite_r+0x232>
   13108:	86ce                	mv	a3,s3
   1310a:	013bf363          	bgeu	s7,s3,13110 <__sfvwrite_r+0x214>
   1310e:	86da                	mv	a3,s6
   13110:	02f6c6bb          	divw	a3,a3,a5
   13114:	6038                	ld	a4,64(s0)
   13116:	780c                	ld	a1,48(s0)
   13118:	8662                	mv	a2,s8
   1311a:	8556                	mv	a0,s5
   1311c:	02f686bb          	mulw	a3,a3,a5
   13120:	9702                	jalr	a4
   13122:	84aa                	mv	s1,a0
   13124:	f8a051e3          	blez	a0,130a6 <__sfvwrite_r+0x1aa>
   13128:	409989b3          	sub	s3,s3,s1
   1312c:	b5d9                	j	12ff2 <__sfvwrite_r+0xf6>
   1312e:	0099f363          	bgeu	s3,s1,13134 <__sfvwrite_r+0x238>
   13132:	84ce                	mv	s1,s3
   13134:	8626                	mv	a2,s1
   13136:	85e2                	mv	a1,s8
   13138:	455020ef          	jal	ra,15d8c <memmove>
   1313c:	445c                	lw	a5,12(s0)
   1313e:	6018                	ld	a4,0(s0)
   13140:	409786bb          	subw	a3,a5,s1
   13144:	9726                	add	a4,a4,s1
   13146:	c454                	sw	a3,12(s0)
   13148:	e018                	sd	a4,0(s0)
   1314a:	fef9                	bnez	a3,13128 <__sfvwrite_r+0x22c>
   1314c:	85a2                	mv	a1,s0
   1314e:	8556                	mv	a0,s5
   13150:	f94ff0ef          	jal	ra,128e4 <_fflush_r>
   13154:	f929                	bnez	a0,130a6 <__sfvwrite_r+0x1aa>
   13156:	409989b3          	sub	s3,s3,s1
   1315a:	bd61                	j	12ff2 <__sfvwrite_r+0xf6>
   1315c:	4807f713          	andi	a4,a5,1152
   13160:	e6070be3          	beqz	a4,12fd6 <__sfvwrite_r+0xda>
   13164:	5004                	lw	s1,32(s0)
   13166:	6c0c                	ld	a1,24(s0)
   13168:	00198713          	addi	a4,s3,1
   1316c:	0014969b          	slliw	a3,s1,0x1
   13170:	9ea5                	addw	a3,a3,s1
   13172:	8d0d                	sub	a0,a0,a1
   13174:	01f6d49b          	srliw	s1,a3,0x1f
   13178:	00050d1b          	sext.w	s10,a0
   1317c:	9cb5                	addw	s1,s1,a3
   1317e:	4014d49b          	sraiw	s1,s1,0x1
   13182:	976a                	add	a4,a4,s10
   13184:	00e4f563          	bgeu	s1,a4,1318e <__sfvwrite_r+0x292>
   13188:	0019849b          	addiw	s1,s3,1
   1318c:	9ca9                	addw	s1,s1,a0
   1318e:	4007f793          	andi	a5,a5,1024
   13192:	cfa9                	beqz	a5,131ec <__sfvwrite_r+0x2f0>
   13194:	85a6                	mv	a1,s1
   13196:	8556                	mv	a0,s5
   13198:	408020ef          	jal	ra,155a0 <_malloc_r>
   1319c:	8caa                	mv	s9,a0
   1319e:	cd25                	beqz	a0,13216 <__sfvwrite_r+0x31a>
   131a0:	6c0c                	ld	a1,24(s0)
   131a2:	866a                	mv	a2,s10
   131a4:	30b020ef          	jal	ra,15cae <memcpy>
   131a8:	01045783          	lhu	a5,16(s0)
   131ac:	b7f7f793          	andi	a5,a5,-1153
   131b0:	0807e793          	ori	a5,a5,128
   131b4:	00f41823          	sh	a5,16(s0)
   131b8:	01ac8533          	add	a0,s9,s10
   131bc:	41a487bb          	subw	a5,s1,s10
   131c0:	01943c23          	sd	s9,24(s0)
   131c4:	e008                	sd	a0,0(s0)
   131c6:	d004                	sw	s1,32(s0)
   131c8:	8cce                	mv	s9,s3
   131ca:	c45c                	sw	a5,12(s0)
   131cc:	8d4e                	mv	s10,s3
   131ce:	b521                	j	12fd6 <__sfvwrite_r+0xda>
   131d0:	865e                	mv	a2,s7
   131d2:	85e6                	mv	a1,s9
   131d4:	3b9020ef          	jal	ra,15d8c <memmove>
   131d8:	4458                	lw	a4,12(s0)
   131da:	6010                	ld	a2,0(s0)
   131dc:	000b879b          	sext.w	a5,s7
   131e0:	4177073b          	subw	a4,a4,s7
   131e4:	965e                	add	a2,a2,s7
   131e6:	c458                	sw	a4,12(s0)
   131e8:	e010                	sd	a2,0(s0)
   131ea:	bd9d                	j	13060 <__sfvwrite_r+0x164>
   131ec:	8626                	mv	a2,s1
   131ee:	8556                	mv	a0,s5
   131f0:	7f4030ef          	jal	ra,169e4 <_realloc_r>
   131f4:	8caa                	mv	s9,a0
   131f6:	f169                	bnez	a0,131b8 <__sfvwrite_r+0x2bc>
   131f8:	6c0c                	ld	a1,24(s0)
   131fa:	8556                	mv	a0,s5
   131fc:	ab1ff0ef          	jal	ra,12cac <_free_r>
   13200:	01041783          	lh	a5,16(s0)
   13204:	4731                	li	a4,12
   13206:	00eaa023          	sw	a4,0(s5)
   1320a:	f7f7f793          	andi	a5,a5,-129
   1320e:	bd71                	j	130aa <__sfvwrite_r+0x1ae>
   13210:	001c099b          	addiw	s3,s8,1
   13214:	bd19                	j	1302a <__sfvwrite_r+0x12e>
   13216:	4731                	li	a4,12
   13218:	01041783          	lh	a5,16(s0)
   1321c:	00eaa023          	sw	a4,0(s5)
   13220:	b569                	j	130aa <__sfvwrite_r+0x1ae>
   13222:	557d                	li	a0,-1
   13224:	bdb1                	j	13080 <__sfvwrite_r+0x184>

0000000000013226 <_fwalk>:
   13226:	715d                	addi	sp,sp,-80
   13228:	f84a                	sd	s2,48(sp)
   1322a:	f44e                	sd	s3,40(sp)
   1322c:	f052                	sd	s4,32(sp)
   1322e:	ec56                	sd	s5,24(sp)
   13230:	e85a                	sd	s6,16(sp)
   13232:	e45e                	sd	s7,8(sp)
   13234:	e486                	sd	ra,72(sp)
   13236:	e0a2                	sd	s0,64(sp)
   13238:	fc26                	sd	s1,56(sp)
   1323a:	8a2e                	mv	s4,a1
   1323c:	52050913          	addi	s2,a0,1312
   13240:	4b01                	li	s6,0
   13242:	0b000a93          	li	s5,176
   13246:	4b85                	li	s7,1
   13248:	59fd                	li	s3,-1
   1324a:	00892783          	lw	a5,8(s2)
   1324e:	01093403          	ld	s0,16(s2)
   13252:	02f05b63          	blez	a5,13288 <_fwalk+0x62>
   13256:	fff7849b          	addiw	s1,a5,-1
   1325a:	1482                	slli	s1,s1,0x20
   1325c:	9081                	srli	s1,s1,0x20
   1325e:	0485                	addi	s1,s1,1
   13260:	035484b3          	mul	s1,s1,s5
   13264:	94a2                	add	s1,s1,s0
   13266:	01045783          	lhu	a5,16(s0)
   1326a:	00fbfb63          	bgeu	s7,a5,13280 <_fwalk+0x5a>
   1326e:	01241783          	lh	a5,18(s0)
   13272:	8522                	mv	a0,s0
   13274:	01378663          	beq	a5,s3,13280 <_fwalk+0x5a>
   13278:	9a02                	jalr	s4
   1327a:	01656b33          	or	s6,a0,s6
   1327e:	2b01                	sext.w	s6,s6
   13280:	0b040413          	addi	s0,s0,176
   13284:	fe8491e3          	bne	s1,s0,13266 <_fwalk+0x40>
   13288:	00093903          	ld	s2,0(s2)
   1328c:	fa091fe3          	bnez	s2,1324a <_fwalk+0x24>
   13290:	60a6                	ld	ra,72(sp)
   13292:	6406                	ld	s0,64(sp)
   13294:	74e2                	ld	s1,56(sp)
   13296:	7942                	ld	s2,48(sp)
   13298:	79a2                	ld	s3,40(sp)
   1329a:	7a02                	ld	s4,32(sp)
   1329c:	6ae2                	ld	s5,24(sp)
   1329e:	6ba2                	ld	s7,8(sp)
   132a0:	855a                	mv	a0,s6
   132a2:	6b42                	ld	s6,16(sp)
   132a4:	6161                	addi	sp,sp,80
   132a6:	8082                	ret

00000000000132a8 <_fwalk_reent>:
   132a8:	715d                	addi	sp,sp,-80
   132aa:	f84a                	sd	s2,48(sp)
   132ac:	f44e                	sd	s3,40(sp)
   132ae:	f052                	sd	s4,32(sp)
   132b0:	ec56                	sd	s5,24(sp)
   132b2:	e85a                	sd	s6,16(sp)
   132b4:	e45e                	sd	s7,8(sp)
   132b6:	e062                	sd	s8,0(sp)
   132b8:	e486                	sd	ra,72(sp)
   132ba:	e0a2                	sd	s0,64(sp)
   132bc:	fc26                	sd	s1,56(sp)
   132be:	8c2a                	mv	s8,a0
   132c0:	8a2e                	mv	s4,a1
   132c2:	52050913          	addi	s2,a0,1312
   132c6:	4b01                	li	s6,0
   132c8:	0b000a93          	li	s5,176
   132cc:	4b85                	li	s7,1
   132ce:	59fd                	li	s3,-1
   132d0:	00892783          	lw	a5,8(s2)
   132d4:	01093403          	ld	s0,16(s2)
   132d8:	02f05c63          	blez	a5,13310 <_fwalk_reent+0x68>
   132dc:	fff7849b          	addiw	s1,a5,-1
   132e0:	1482                	slli	s1,s1,0x20
   132e2:	9081                	srli	s1,s1,0x20
   132e4:	0485                	addi	s1,s1,1
   132e6:	035484b3          	mul	s1,s1,s5
   132ea:	94a2                	add	s1,s1,s0
   132ec:	01045783          	lhu	a5,16(s0)
   132f0:	00fbfc63          	bgeu	s7,a5,13308 <_fwalk_reent+0x60>
   132f4:	01241783          	lh	a5,18(s0)
   132f8:	85a2                	mv	a1,s0
   132fa:	8562                	mv	a0,s8
   132fc:	01378663          	beq	a5,s3,13308 <_fwalk_reent+0x60>
   13300:	9a02                	jalr	s4
   13302:	01656b33          	or	s6,a0,s6
   13306:	2b01                	sext.w	s6,s6
   13308:	0b040413          	addi	s0,s0,176
   1330c:	fe8490e3          	bne	s1,s0,132ec <_fwalk_reent+0x44>
   13310:	00093903          	ld	s2,0(s2)
   13314:	fa091ee3          	bnez	s2,132d0 <_fwalk_reent+0x28>
   13318:	60a6                	ld	ra,72(sp)
   1331a:	6406                	ld	s0,64(sp)
   1331c:	74e2                	ld	s1,56(sp)
   1331e:	7942                	ld	s2,48(sp)
   13320:	79a2                	ld	s3,40(sp)
   13322:	7a02                	ld	s4,32(sp)
   13324:	6ae2                	ld	s5,24(sp)
   13326:	6ba2                	ld	s7,8(sp)
   13328:	6c02                	ld	s8,0(sp)
   1332a:	855a                	mv	a0,s6
   1332c:	6b42                	ld	s6,16(sp)
   1332e:	6161                	addi	sp,sp,80
   13330:	8082                	ret

0000000000013332 <eshdn1>:
   13332:	00450693          	addi	a3,a0,4
   13336:	4781                	li	a5,0
   13338:	0569                	addi	a0,a0,26
   1333a:	7861                	lui	a6,0xffff8
   1333c:	a811                	j	13350 <eshdn1+0x1e>
   1333e:	0017979b          	slliw	a5,a5,0x1
   13342:	00e69023          	sh	a4,0(a3)
   13346:	17c2                	slli	a5,a5,0x30
   13348:	0689                	addi	a3,a3,2
   1334a:	93c1                	srli	a5,a5,0x30
   1334c:	02d50863          	beq	a0,a3,1337c <eshdn1+0x4a>
   13350:	0006d703          	lhu	a4,0(a3)
   13354:	00177613          	andi	a2,a4,1
   13358:	c219                	beqz	a2,1335e <eshdn1+0x2c>
   1335a:	0017e793          	ori	a5,a5,1
   1335e:	8305                	srli	a4,a4,0x1
   13360:	0027f613          	andi	a2,a5,2
   13364:	010765b3          	or	a1,a4,a6
   13368:	da79                	beqz	a2,1333e <eshdn1+0xc>
   1336a:	0017979b          	slliw	a5,a5,0x1
   1336e:	00b69023          	sh	a1,0(a3)
   13372:	17c2                	slli	a5,a5,0x30
   13374:	0689                	addi	a3,a3,2
   13376:	93c1                	srli	a5,a5,0x30
   13378:	fcd51ce3          	bne	a0,a3,13350 <eshdn1+0x1e>
   1337c:	8082                	ret

000000000001337e <eshup1>:
   1337e:	01850693          	addi	a3,a0,24
   13382:	4701                	li	a4,0
   13384:	0509                	addi	a0,a0,2
   13386:	a811                	j	1339a <eshup1+0x1c>
   13388:	0017171b          	slliw	a4,a4,0x1
   1338c:	00f69023          	sh	a5,0(a3)
   13390:	1742                	slli	a4,a4,0x30
   13392:	16f9                	addi	a3,a3,-2
   13394:	9341                	srli	a4,a4,0x30
   13396:	04d50063          	beq	a0,a3,133d6 <eshup1+0x58>
   1339a:	0006d783          	lhu	a5,0(a3)
   1339e:	0107961b          	slliw	a2,a5,0x10
   133a2:	4106561b          	sraiw	a2,a2,0x10
   133a6:	02061593          	slli	a1,a2,0x20
   133aa:	0017979b          	slliw	a5,a5,0x1
   133ae:	0005d463          	bgez	a1,133b6 <eshup1+0x38>
   133b2:	00176713          	ori	a4,a4,1
   133b6:	17c2                	slli	a5,a5,0x30
   133b8:	93c1                	srli	a5,a5,0x30
   133ba:	00277613          	andi	a2,a4,2
   133be:	0017e593          	ori	a1,a5,1
   133c2:	d279                	beqz	a2,13388 <eshup1+0xa>
   133c4:	0017171b          	slliw	a4,a4,0x1
   133c8:	00b69023          	sh	a1,0(a3)
   133cc:	1742                	slli	a4,a4,0x30
   133ce:	16f9                	addi	a3,a3,-2
   133d0:	9341                	srli	a4,a4,0x30
   133d2:	fcd514e3          	bne	a0,a3,1339a <eshup1+0x1c>
   133d6:	8082                	ret

00000000000133d8 <m16m>:
   133d8:	1101                	addi	sp,sp,-32
   133da:	6e41                	lui	t3,0x10
   133dc:	00011b23          	sh	zero,22(sp)
   133e0:	00011c23          	sh	zero,24(sp)
   133e4:	05e1                	addi	a1,a1,24
   133e6:	083c                	addi	a5,sp,24
   133e8:	00410813          	addi	a6,sp,4
   133ec:	1e7d                	addi	t3,t3,-1
   133ee:	0005d703          	lhu	a4,0(a1)
   133f2:	17f9                	addi	a5,a5,-2
   133f4:	15f9                	addi	a1,a1,-2
   133f6:	e315                	bnez	a4,1341a <m16m+0x42>
   133f8:	fe079f23          	sh	zero,-2(a5)
   133fc:	ff0799e3          	bne	a5,a6,133ee <m16m+0x16>
   13400:	0611                	addi	a2,a2,4
   13402:	01a10693          	addi	a3,sp,26
   13406:	0007d703          	lhu	a4,0(a5)
   1340a:	0789                	addi	a5,a5,2
   1340c:	0609                	addi	a2,a2,2
   1340e:	fee61f23          	sh	a4,-2(a2)
   13412:	fed79ae3          	bne	a5,a3,13406 <m16m+0x2e>
   13416:	6105                	addi	sp,sp,32
   13418:	8082                	ret
   1341a:	02a70733          	mul	a4,a4,a0
   1341e:	0027d883          	lhu	a7,2(a5)
   13422:	0007d303          	lhu	t1,0(a5)
   13426:	01c776b3          	and	a3,a4,t3
   1342a:	96c6                	add	a3,a3,a7
   1342c:	8341                	srli	a4,a4,0x10
   1342e:	0106d893          	srli	a7,a3,0x10
   13432:	971a                	add	a4,a4,t1
   13434:	9746                	add	a4,a4,a7
   13436:	01075893          	srli	a7,a4,0x10
   1343a:	00d79123          	sh	a3,2(a5)
   1343e:	00e79023          	sh	a4,0(a5)
   13442:	ff179f23          	sh	a7,-2(a5)
   13446:	fb0794e3          	bne	a5,a6,133ee <m16m+0x16>
   1344a:	bf5d                	j	13400 <m16m+0x28>

000000000001344c <eisnan.part.0>:
   1344c:	01250713          	addi	a4,a0,18
   13450:	00055783          	lhu	a5,0(a0)
   13454:	0509                	addi	a0,a0,2
   13456:	e789                	bnez	a5,13460 <eisnan.part.0+0x14>
   13458:	fee51ce3          	bne	a0,a4,13450 <eisnan.part.0+0x4>
   1345c:	4501                	li	a0,0
   1345e:	8082                	ret
   13460:	4505                	li	a0,1
   13462:	8082                	ret

0000000000013464 <eneg>:
   13464:	1101                	addi	sp,sp,-32
   13466:	e426                	sd	s1,8(sp)
   13468:	01255483          	lhu	s1,18(a0)
   1346c:	e822                	sd	s0,16(sp)
   1346e:	ec06                	sd	ra,24(sp)
   13470:	fff4c793          	not	a5,s1
   13474:	03179713          	slli	a4,a5,0x31
   13478:	842a                	mv	s0,a0
   1347a:	e701                	bnez	a4,13482 <eneg+0x1e>
   1347c:	fd1ff0ef          	jal	ra,1344c <eisnan.part.0>
   13480:	e509                	bnez	a0,1348a <eneg+0x26>
   13482:	77e1                	lui	a5,0xffff8
   13484:	8cbd                	xor	s1,s1,a5
   13486:	00941923          	sh	s1,18(s0)
   1348a:	60e2                	ld	ra,24(sp)
   1348c:	6442                	ld	s0,16(sp)
   1348e:	64a2                	ld	s1,8(sp)
   13490:	6105                	addi	sp,sp,32
   13492:	8082                	ret

0000000000013494 <eisneg>:
   13494:	1141                	addi	sp,sp,-16
   13496:	e022                	sd	s0,0(sp)
   13498:	01255403          	lhu	s0,18(a0)
   1349c:	e406                	sd	ra,8(sp)
   1349e:	fff44793          	not	a5,s0
   134a2:	03179713          	slli	a4,a5,0x31
   134a6:	e711                	bnez	a4,134b2 <eisneg+0x1e>
   134a8:	fa5ff0ef          	jal	ra,1344c <eisnan.part.0>
   134ac:	87aa                	mv	a5,a0
   134ae:	4501                	li	a0,0
   134b0:	e399                	bnez	a5,134b6 <eisneg+0x22>
   134b2:	00f45513          	srli	a0,s0,0xf
   134b6:	60a2                	ld	ra,8(sp)
   134b8:	6402                	ld	s0,0(sp)
   134ba:	0141                	addi	sp,sp,16
   134bc:	8082                	ret

00000000000134be <emovi>:
   134be:	01255783          	lhu	a5,18(a0)
   134c2:	7139                	addi	sp,sp,-64
   134c4:	f822                	sd	s0,48(sp)
   134c6:	00f7d79b          	srliw	a5,a5,0xf
   134ca:	f426                	sd	s1,40(sp)
   134cc:	fc06                	sd	ra,56(sp)
   134ce:	f04a                	sd	s2,32(sp)
   134d0:	ec4e                	sd	s3,24(sp)
   134d2:	40f007bb          	negw	a5,a5
   134d6:	00f59023          	sh	a5,0(a1)
   134da:	01255783          	lhu	a5,18(a0)
   134de:	6721                	lui	a4,0x8
   134e0:	177d                	addi	a4,a4,-1
   134e2:	8ff9                	and	a5,a5,a4
   134e4:	00f59123          	sh	a5,2(a1)
   134e8:	84aa                	mv	s1,a0
   134ea:	01050413          	addi	s0,a0,16
   134ee:	02e78863          	beq	a5,a4,1351e <emovi+0x60>
   134f2:	00658793          	addi	a5,a1,6
   134f6:	00059223          	sh	zero,4(a1)
   134fa:	1579                	addi	a0,a0,-2
   134fc:	00045703          	lhu	a4,0(s0)
   13500:	1479                	addi	s0,s0,-2
   13502:	0789                	addi	a5,a5,2
   13504:	fee79f23          	sh	a4,-2(a5) # ffffffffffff7ffe <__BSS_END__+0xfffffffffffbf946>
   13508:	fe851ae3          	bne	a0,s0,134fc <emovi+0x3e>
   1350c:	00059c23          	sh	zero,24(a1)
   13510:	70e2                	ld	ra,56(sp)
   13512:	7442                	ld	s0,48(sp)
   13514:	74a2                	ld	s1,40(sp)
   13516:	7902                	ld	s2,32(sp)
   13518:	69e2                	ld	s3,24(sp)
   1351a:	6121                	addi	sp,sp,64
   1351c:	8082                	ret
   1351e:	0007869b          	sext.w	a3,a5
   13522:	01255783          	lhu	a5,18(a0)
   13526:	00458913          	addi	s2,a1,4
   1352a:	8ff5                	and	a5,a5,a3
   1352c:	02d79663          	bne	a5,a3,13558 <emovi+0x9a>
   13530:	e42e                	sd	a1,8(sp)
   13532:	f1bff0ef          	jal	ra,1344c <eisnan.part.0>
   13536:	65a2                	ld	a1,8(sp)
   13538:	c105                	beqz	a0,13558 <emovi+0x9a>
   1353a:	00658793          	addi	a5,a1,6
   1353e:	00059223          	sh	zero,4(a1)
   13542:	ffc48513          	addi	a0,s1,-4
   13546:	00045703          	lhu	a4,0(s0)
   1354a:	1479                	addi	s0,s0,-2
   1354c:	0789                	addi	a5,a5,2
   1354e:	fee79f23          	sh	a4,-2(a5)
   13552:	fe851ae3          	bne	a0,s0,13546 <emovi+0x88>
   13556:	bf6d                	j	13510 <emovi+0x52>
   13558:	01a58993          	addi	s3,a1,26
   1355c:	0909                	addi	s2,s2,2
   1355e:	fe091f23          	sh	zero,-2(s2)
   13562:	ff299de3          	bne	s3,s2,1355c <emovi+0x9e>
   13566:	70e2                	ld	ra,56(sp)
   13568:	7442                	ld	s0,48(sp)
   1356a:	74a2                	ld	s1,40(sp)
   1356c:	7902                	ld	s2,32(sp)
   1356e:	69e2                	ld	s3,24(sp)
   13570:	6121                	addi	sp,sp,64
   13572:	8082                	ret

0000000000013574 <ecmp>:
   13574:	01255783          	lhu	a5,18(a0)
   13578:	711d                	addi	sp,sp,-96
   1357a:	e8a2                	sd	s0,80(sp)
   1357c:	fff7c793          	not	a5,a5
   13580:	e4a6                	sd	s1,72(sp)
   13582:	ec86                	sd	ra,88(sp)
   13584:	03179713          	slli	a4,a5,0x31
   13588:	84aa                	mv	s1,a0
   1358a:	842e                	mv	s0,a1
   1358c:	e701                	bnez	a4,13594 <ecmp+0x20>
   1358e:	ebfff0ef          	jal	ra,1344c <eisnan.part.0>
   13592:	ed39                	bnez	a0,135f0 <ecmp+0x7c>
   13594:	01245783          	lhu	a5,18(s0)
   13598:	fff7c793          	not	a5,a5
   1359c:	03179713          	slli	a4,a5,0x31
   135a0:	c721                	beqz	a4,135e8 <ecmp+0x74>
   135a2:	858a                	mv	a1,sp
   135a4:	8526                	mv	a0,s1
   135a6:	f19ff0ef          	jal	ra,134be <emovi>
   135aa:	100c                	addi	a1,sp,32
   135ac:	8522                	mv	a0,s0
   135ae:	f11ff0ef          	jal	ra,134be <emovi>
   135b2:	00015583          	lhu	a1,0(sp)
   135b6:	02015783          	lhu	a5,32(sp)
   135ba:	02b78d63          	beq	a5,a1,135f4 <ecmp+0x80>
   135be:	00210793          	addi	a5,sp,2
   135c2:	02210713          	addi	a4,sp,34
   135c6:	0830                	addi	a2,sp,24
   135c8:	0007d683          	lhu	a3,0(a5)
   135cc:	0789                	addi	a5,a5,2
   135ce:	e2ad                	bnez	a3,13630 <ecmp+0xbc>
   135d0:	00075683          	lhu	a3,0(a4) # 8000 <register_fini-0x80b0>
   135d4:	0709                	addi	a4,a4,2
   135d6:	eea9                	bnez	a3,13630 <ecmp+0xbc>
   135d8:	fec798e3          	bne	a5,a2,135c8 <ecmp+0x54>
   135dc:	4501                	li	a0,0
   135de:	60e6                	ld	ra,88(sp)
   135e0:	6446                	ld	s0,80(sp)
   135e2:	64a6                	ld	s1,72(sp)
   135e4:	6125                	addi	sp,sp,96
   135e6:	8082                	ret
   135e8:	8522                	mv	a0,s0
   135ea:	e63ff0ef          	jal	ra,1344c <eisnan.part.0>
   135ee:	d955                	beqz	a0,135a2 <ecmp+0x2e>
   135f0:	5579                	li	a0,-2
   135f2:	b7f5                	j	135de <ecmp+0x6a>
   135f4:	4505                	li	a0,1
   135f6:	e1a9                	bnez	a1,13638 <ecmp+0xc4>
   135f8:	00215603          	lhu	a2,2(sp)
   135fc:	02215683          	lhu	a3,34(sp)
   13600:	00210713          	addi	a4,sp,2
   13604:	02210793          	addi	a5,sp,34
   13608:	182c                	addi	a1,sp,56
   1360a:	0789                	addi	a5,a5,2
   1360c:	0709                	addi	a4,a4,2
   1360e:	00d61c63          	bne	a2,a3,13626 <ecmp+0xb2>
   13612:	fcb785e3          	beq	a5,a1,135dc <ecmp+0x68>
   13616:	00075603          	lhu	a2,0(a4)
   1361a:	0007d683          	lhu	a3,0(a5)
   1361e:	0709                	addi	a4,a4,2
   13620:	0789                	addi	a5,a5,2
   13622:	fed608e3          	beq	a2,a3,13612 <ecmp+0x9e>
   13626:	fac6ece3          	bltu	a3,a2,135de <ecmp+0x6a>
   1362a:	40a0053b          	negw	a0,a0
   1362e:	bf45                	j	135de <ecmp+0x6a>
   13630:	4505                	li	a0,1
   13632:	d5d5                	beqz	a1,135de <ecmp+0x6a>
   13634:	557d                	li	a0,-1
   13636:	b765                	j	135de <ecmp+0x6a>
   13638:	557d                	li	a0,-1
   1363a:	bf7d                	j	135f8 <ecmp+0x84>

000000000001363c <eisinf.part.0>:
   1363c:	1141                	addi	sp,sp,-16
   1363e:	e406                	sd	ra,8(sp)
   13640:	e0dff0ef          	jal	ra,1344c <eisnan.part.0>
   13644:	60a2                	ld	ra,8(sp)
   13646:	00153513          	seqz	a0,a0
   1364a:	0141                	addi	sp,sp,16
   1364c:	8082                	ret

000000000001364e <eshift.part.0>:
   1364e:	7179                	addi	sp,sp,-48
   13650:	f022                	sd	s0,32(sp)
   13652:	ec26                	sd	s1,24(sp)
   13654:	f406                	sd	ra,40(sp)
   13656:	e84a                	sd	s2,16(sp)
   13658:	e44e                	sd	s3,8(sp)
   1365a:	84ae                	mv	s1,a1
   1365c:	842a                	mv	s0,a0
   1365e:	0605cb63          	bltz	a1,136d4 <eshift.part.0+0x86>
   13662:	47bd                	li	a5,15
   13664:	862e                	mv	a2,a1
   13666:	0511                	addi	a0,a0,4
   13668:	01840693          	addi	a3,s0,24
   1366c:	45bd                	li	a1,15
   1366e:	0297d063          	bge	a5,s1,1368e <eshift.part.0+0x40>
   13672:	87aa                	mv	a5,a0
   13674:	0027d703          	lhu	a4,2(a5)
   13678:	0789                	addi	a5,a5,2
   1367a:	fee79f23          	sh	a4,-2(a5)
   1367e:	fed79be3          	bne	a5,a3,13674 <eshift.part.0+0x26>
   13682:	00041c23          	sh	zero,24(s0)
   13686:	3641                	addiw	a2,a2,-16
   13688:	fec5c5e3          	blt	a1,a2,13672 <eshift.part.0+0x24>
   1368c:	88bd                	andi	s1,s1,15
   1368e:	479d                	li	a5,7
   13690:	0297d463          	bge	a5,s1,136b8 <eshift.part.0+0x6a>
   13694:	01840713          	addi	a4,s0,24
   13698:	00240593          	addi	a1,s0,2
   1369c:	4781                	li	a5,0
   1369e:	00075683          	lhu	a3,0(a4)
   136a2:	1779                	addi	a4,a4,-2
   136a4:	00869613          	slli	a2,a3,0x8
   136a8:	8fd1                	or	a5,a5,a2
   136aa:	00f71123          	sh	a5,2(a4)
   136ae:	0086d793          	srli	a5,a3,0x8
   136b2:	feb716e3          	bne	a4,a1,1369e <eshift.part.0+0x50>
   136b6:	34e1                	addiw	s1,s1,-8
   136b8:	c491                	beqz	s1,136c4 <eshift.part.0+0x76>
   136ba:	34fd                	addiw	s1,s1,-1
   136bc:	8522                	mv	a0,s0
   136be:	cc1ff0ef          	jal	ra,1337e <eshup1>
   136c2:	fce5                	bnez	s1,136ba <eshift.part.0+0x6c>
   136c4:	4501                	li	a0,0
   136c6:	70a2                	ld	ra,40(sp)
   136c8:	7402                	ld	s0,32(sp)
   136ca:	64e2                	ld	s1,24(sp)
   136cc:	6942                	ld	s2,16(sp)
   136ce:	69a2                	ld	s3,8(sp)
   136d0:	6145                	addi	sp,sp,48
   136d2:	8082                	ret
   136d4:	57c5                	li	a5,-15
   136d6:	40b0093b          	negw	s2,a1
   136da:	0ef5d463          	bge	a1,a5,137c2 <eshift.part.0+0x174>
   136de:	01850593          	addi	a1,a0,24
   136e2:	4981                	li	s3,0
   136e4:	00450693          	addi	a3,a0,4
   136e8:	463d                	li	a2,15
   136ea:	01845703          	lhu	a4,24(s0)
   136ee:	87ae                	mv	a5,a1
   136f0:	00e9e9b3          	or	s3,s3,a4
   136f4:	ffe7d703          	lhu	a4,-2(a5)
   136f8:	17f9                	addi	a5,a5,-2
   136fa:	00e79123          	sh	a4,2(a5)
   136fe:	fed79be3          	bne	a5,a3,136f4 <eshift.part.0+0xa6>
   13702:	00041223          	sh	zero,4(s0)
   13706:	3941                	addiw	s2,s2,-16
   13708:	ff2641e3          	blt	a2,s2,136ea <eshift.part.0+0x9c>
   1370c:	57c1                	li	a5,-16
   1370e:	5745                	li	a4,-15
   13710:	9f85                	subw	a5,a5,s1
   13712:	4901                	li	s2,0
   13714:	08e4c063          	blt	s1,a4,13794 <eshift.part.0+0x146>
   13718:	00f9093b          	addw	s2,s2,a5
   1371c:	479d                	li	a5,7
   1371e:	0327df63          	bge	a5,s2,1375c <eshift.part.0+0x10e>
   13722:	0109999b          	slliw	s3,s3,0x10
   13726:	4109d99b          	sraiw	s3,s3,0x10
   1372a:	01844783          	lbu	a5,24(s0)
   1372e:	01a40593          	addi	a1,s0,26
   13732:	00f9e9b3          	or	s3,s3,a5
   13736:	19c2                	slli	s3,s3,0x30
   13738:	0309d993          	srli	s3,s3,0x30
   1373c:	4781                	li	a5,0
   1373e:	0006d603          	lhu	a2,0(a3)
   13742:	0689                	addi	a3,a3,2
   13744:	0086571b          	srliw	a4,a2,0x8
   13748:	8f5d                	or	a4,a4,a5
   1374a:	0086179b          	slliw	a5,a2,0x8
   1374e:	17c2                	slli	a5,a5,0x30
   13750:	fee69f23          	sh	a4,-2(a3)
   13754:	93c1                	srli	a5,a5,0x30
   13756:	feb694e3          	bne	a3,a1,1373e <eshift.part.0+0xf0>
   1375a:	3961                	addiw	s2,s2,-8
   1375c:	04090b63          	beqz	s2,137b2 <eshift.part.0+0x164>
   13760:	01845783          	lhu	a5,24(s0)
   13764:	397d                	addiw	s2,s2,-1
   13766:	8522                	mv	a0,s0
   13768:	8b85                	andi	a5,a5,1
   1376a:	0137e9b3          	or	s3,a5,s3
   1376e:	bc5ff0ef          	jal	ra,13332 <eshdn1>
   13772:	fe0917e3          	bnez	s2,13760 <eshift.part.0+0x112>
   13776:	0109979b          	slliw	a5,s3,0x10
   1377a:	4107d79b          	sraiw	a5,a5,0x10
   1377e:	e78d                	bnez	a5,137a8 <eshift.part.0+0x15a>
   13780:	03099513          	slli	a0,s3,0x30
   13784:	9141                	srli	a0,a0,0x30
   13786:	70a2                	ld	ra,40(sp)
   13788:	7402                	ld	s0,32(sp)
   1378a:	64e2                	ld	s1,24(sp)
   1378c:	6942                	ld	s2,16(sp)
   1378e:	69a2                	ld	s3,8(sp)
   13790:	6145                	addi	sp,sp,48
   13792:	8082                	ret
   13794:	ff07f913          	andi	s2,a5,-16
   13798:	4120093b          	negw	s2,s2
   1379c:	00f9093b          	addw	s2,s2,a5
   137a0:	479d                	li	a5,7
   137a2:	fb27dde3          	bge	a5,s2,1375c <eshift.part.0+0x10e>
   137a6:	bfb5                	j	13722 <eshift.part.0+0xd4>
   137a8:	4985                	li	s3,1
   137aa:	03099513          	slli	a0,s3,0x30
   137ae:	9141                	srli	a0,a0,0x30
   137b0:	bfd9                	j	13786 <eshift.part.0+0x138>
   137b2:	854e                	mv	a0,s3
   137b4:	00099563          	bnez	s3,137be <eshift.part.0+0x170>
   137b8:	1542                	slli	a0,a0,0x30
   137ba:	9141                	srli	a0,a0,0x30
   137bc:	b729                	j	136c6 <eshift.part.0+0x78>
   137be:	4505                	li	a0,1
   137c0:	bfe5                	j	137b8 <eshift.part.0+0x16a>
   137c2:	57e5                	li	a5,-7
   137c4:	4981                	li	s3,0
   137c6:	f8f5dde3          	bge	a1,a5,13760 <eshift.part.0+0x112>
   137ca:	00440693          	addi	a3,s0,4
   137ce:	bfb1                	j	1372a <eshift.part.0+0xdc>

00000000000137d0 <enormlz>:
   137d0:	00455783          	lhu	a5,4(a0)
   137d4:	1101                	addi	sp,sp,-32
   137d6:	e426                	sd	s1,8(sp)
   137d8:	ec06                	sd	ra,24(sp)
   137da:	e822                	sd	s0,16(sp)
   137dc:	e04a                	sd	s2,0(sp)
   137de:	84aa                	mv	s1,a0
   137e0:	ebc5                	bnez	a5,13890 <enormlz+0xc0>
   137e2:	00655703          	lhu	a4,6(a0)
   137e6:	4401                	li	s0,0
   137e8:	0107179b          	slliw	a5,a4,0x10
   137ec:	4107d79b          	sraiw	a5,a5,0x10
   137f0:	02079693          	slli	a3,a5,0x20
   137f4:	0806c763          	bltz	a3,13882 <enormlz+0xb2>
   137f8:	01a50693          	addi	a3,a0,26
   137fc:	0a000613          	li	a2,160
   13800:	e31d                	bnez	a4,13826 <enormlz+0x56>
   13802:	00648793          	addi	a5,s1,6
   13806:	a019                	j	1380c <enormlz+0x3c>
   13808:	0007d703          	lhu	a4,0(a5)
   1380c:	0789                	addi	a5,a5,2
   1380e:	fee79e23          	sh	a4,-4(a5)
   13812:	fef69be3          	bne	a3,a5,13808 <enormlz+0x38>
   13816:	00049c23          	sh	zero,24(s1)
   1381a:	2441                	addiw	s0,s0,16
   1381c:	06c40363          	beq	s0,a2,13882 <enormlz+0xb2>
   13820:	0064d703          	lhu	a4,6(s1)
   13824:	df79                	beqz	a4,13802 <enormlz+0x32>
   13826:	f0077793          	andi	a5,a4,-256
   1382a:	eb8d                	bnez	a5,1385c <enormlz+0x8c>
   1382c:	01848513          	addi	a0,s1,24
   13830:	00248593          	addi	a1,s1,2
   13834:	4781                	li	a5,0
   13836:	872a                	mv	a4,a0
   13838:	00075683          	lhu	a3,0(a4)
   1383c:	1779                	addi	a4,a4,-2
   1383e:	00869613          	slli	a2,a3,0x8
   13842:	8fd1                	or	a5,a5,a2
   13844:	00f71123          	sh	a5,2(a4)
   13848:	0086d793          	srli	a5,a3,0x8
   1384c:	fee596e3          	bne	a1,a4,13838 <enormlz+0x68>
   13850:	0064d703          	lhu	a4,6(s1)
   13854:	2421                	addiw	s0,s0,8
   13856:	f0077793          	andi	a5,a4,-256
   1385a:	dfe9                	beqz	a5,13834 <enormlz+0x64>
   1385c:	0a000913          	li	s2,160
   13860:	a801                	j	13870 <enormlz+0xa0>
   13862:	2405                	addiw	s0,s0,1
   13864:	b1bff0ef          	jal	ra,1337e <eshup1>
   13868:	00894d63          	blt	s2,s0,13882 <enormlz+0xb2>
   1386c:	0064d703          	lhu	a4,6(s1)
   13870:	0107171b          	slliw	a4,a4,0x10
   13874:	4107571b          	sraiw	a4,a4,0x10
   13878:	02071793          	slli	a5,a4,0x20
   1387c:	8526                	mv	a0,s1
   1387e:	fe07d2e3          	bgez	a5,13862 <enormlz+0x92>
   13882:	60e2                	ld	ra,24(sp)
   13884:	8522                	mv	a0,s0
   13886:	6442                	ld	s0,16(sp)
   13888:	64a2                	ld	s1,8(sp)
   1388a:	6902                	ld	s2,0(sp)
   1388c:	6105                	addi	sp,sp,32
   1388e:	8082                	ret
   13890:	f007f713          	andi	a4,a5,-256
   13894:	4401                	li	s0,0
   13896:	e705                	bnez	a4,138be <enormlz+0xee>
   13898:	f6f00913          	li	s2,-145
   1389c:	a801                	j	138ac <enormlz+0xdc>
   1389e:	347d                	addiw	s0,s0,-1
   138a0:	a93ff0ef          	jal	ra,13332 <eshdn1>
   138a4:	fd240fe3          	beq	s0,s2,13882 <enormlz+0xb2>
   138a8:	0044d783          	lhu	a5,4(s1)
   138ac:	8526                	mv	a0,s1
   138ae:	fbe5                	bnez	a5,1389e <enormlz+0xce>
   138b0:	60e2                	ld	ra,24(sp)
   138b2:	8522                	mv	a0,s0
   138b4:	6442                	ld	s0,16(sp)
   138b6:	64a2                	ld	s1,8(sp)
   138b8:	6902                	ld	s2,0(sp)
   138ba:	6105                	addi	sp,sp,32
   138bc:	8082                	ret
   138be:	00450693          	addi	a3,a0,4
   138c2:	01a50593          	addi	a1,a0,26
   138c6:	4701                	li	a4,0
   138c8:	a019                	j	138ce <enormlz+0xfe>
   138ca:	0006d783          	lhu	a5,0(a3)
   138ce:	0087d61b          	srliw	a2,a5,0x8
   138d2:	8f51                	or	a4,a4,a2
   138d4:	0087979b          	slliw	a5,a5,0x8
   138d8:	00e69023          	sh	a4,0(a3)
   138dc:	03079713          	slli	a4,a5,0x30
   138e0:	0689                	addi	a3,a3,2
   138e2:	9341                	srli	a4,a4,0x30
   138e4:	feb693e3          	bne	a3,a1,138ca <enormlz+0xfa>
   138e8:	0044d783          	lhu	a5,4(s1)
   138ec:	5461                	li	s0,-8
   138ee:	b76d                	j	13898 <enormlz+0xc8>

00000000000138f0 <emdnorm>:
   138f0:	7139                	addi	sp,sp,-64
   138f2:	f822                	sd	s0,48(sp)
   138f4:	f426                	sd	s1,40(sp)
   138f6:	f04a                	sd	s2,32(sp)
   138f8:	ec4e                	sd	s3,24(sp)
   138fa:	e852                	sd	s4,16(sp)
   138fc:	e456                	sd	s5,8(sp)
   138fe:	8936                	mv	s2,a3
   13900:	84be                	mv	s1,a5
   13902:	fc06                	sd	ra,56(sp)
   13904:	842a                	mv	s0,a0
   13906:	89ae                	mv	s3,a1
   13908:	8a32                	mv	s4,a2
   1390a:	8aba                	mv	s5,a4
   1390c:	ec5ff0ef          	jal	ra,137d0 <enormlz>
   13910:	09000793          	li	a5,144
   13914:	40a90933          	sub	s2,s2,a0
   13918:	12a7db63          	bge	a5,a0,13a4e <emdnorm+0x15e>
   1391c:	67a1                	lui	a5,0x8
   1391e:	17f9                	addi	a5,a5,-2
   13920:	1927dd63          	bge	a5,s2,13aba <emdnorm+0x1ca>
   13924:	160a8b63          	beqz	s5,13a9a <emdnorm+0x1aa>
   13928:	40c8                	lw	a0,4(s1)
   1392a:	409c                	lw	a5,0(s1)
   1392c:	04a78e63          	beq	a5,a0,13988 <emdnorm+0x98>
   13930:	01a48713          	addi	a4,s1,26
   13934:	03448793          	addi	a5,s1,52
   13938:	0709                	addi	a4,a4,2
   1393a:	fe071f23          	sh	zero,-2(a4)
   1393e:	fef71de3          	bne	a4,a5,13938 <emdnorm+0x48>
   13942:	03800793          	li	a5,56
   13946:	28f50263          	beq	a0,a5,13bca <emdnorm+0x2da>
   1394a:	12a7d163          	bge	a5,a0,13a6c <emdnorm+0x17c>
   1394e:	04000793          	li	a5,64
   13952:	24f50c63          	beq	a0,a5,13baa <emdnorm+0x2ba>
   13956:	07100793          	li	a5,113
   1395a:	28f51163          	bne	a0,a5,13bdc <emdnorm+0x2ec>
   1395e:	47a9                	li	a5,10
   13960:	40008737          	lui	a4,0x40008
   13964:	177d                	addi	a4,a4,-1
   13966:	1782                	slli	a5,a5,0x20
   13968:	07a9                	addi	a5,a5,10
   1396a:	c8d8                	sw	a4,20(s1)
   1396c:	7761                	lui	a4,0xffff8
   1396e:	00e49c23          	sh	a4,24(s1)
   13972:	e49c                	sd	a5,8(s1)
   13974:	6721                	lui	a4,0x8
   13976:	47a9                	li	a5,10
   13978:	07a1                	addi	a5,a5,8
   1397a:	0786                	slli	a5,a5,0x1
   1397c:	97a6                	add	a5,a5,s1
   1397e:	00e79523          	sh	a4,10(a5) # 800a <register_fini-0x80a6>
   13982:	c088                	sw	a0,0(s1)
   13984:	17205163          	blez	s2,13ae6 <emdnorm+0x1f6>
   13988:	4494                	lw	a3,8(s1)
   1398a:	0144d603          	lhu	a2,20(s1)
   1398e:	08f00793          	li	a5,143
   13992:	00169713          	slli	a4,a3,0x1
   13996:	00e40833          	add	a6,s0,a4
   1399a:	00085883          	lhu	a7,0(a6) # ffffffffffff8000 <__BSS_END__+0xfffffffffffbf948>
   1399e:	00c8f5b3          	and	a1,a7,a2
   139a2:	02a7ce63          	blt	a5,a0,139de <emdnorm+0xee>
   139a6:	47ad                	li	a5,11
   139a8:	02d7cb63          	blt	a5,a3,139de <emdnorm+0xee>
   139ac:	9f95                	subw	a5,a5,a3
   139ae:	1782                	slli	a5,a5,0x20
   139b0:	9381                	srli	a5,a5,0x20
   139b2:	97b6                	add	a5,a5,a3
   139b4:	00179693          	slli	a3,a5,0x1
   139b8:	0709                	addi	a4,a4,2
   139ba:	00440793          	addi	a5,s0,4
   139be:	9722                	add	a4,a4,s0
   139c0:	97b6                	add	a5,a5,a3
   139c2:	00075683          	lhu	a3,0(a4) # 8000 <register_fini-0x80b0>
   139c6:	c299                	beqz	a3,139cc <emdnorm+0xdc>
   139c8:	0015e593          	ori	a1,a1,1
   139cc:	00071023          	sh	zero,0(a4)
   139d0:	0709                	addi	a4,a4,2
   139d2:	fee798e3          	bne	a5,a4,139c2 <emdnorm+0xd2>
   139d6:	00085883          	lhu	a7,0(a6)
   139da:	0144d603          	lhu	a2,20(s1)
   139de:	fff64613          	not	a2,a2
   139e2:	01167633          	and	a2,a2,a7
   139e6:	00c81023          	sh	a2,0(a6)
   139ea:	0164d783          	lhu	a5,22(s1)
   139ee:	00b7f733          	and	a4,a5,a1
   139f2:	cb05                	beqz	a4,13a22 <emdnorm+0x132>
   139f4:	12b78f63          	beq	a5,a1,13b32 <emdnorm+0x242>
   139f8:	03248613          	addi	a2,s1,50
   139fc:	01840693          	addi	a3,s0,24
   13a00:	04f1                	addi	s1,s1,28
   13a02:	4701                	li	a4,0
   13a04:	00065783          	lhu	a5,0(a2)
   13a08:	0006d583          	lhu	a1,0(a3)
   13a0c:	16f9                	addi	a3,a3,-2
   13a0e:	1679                	addi	a2,a2,-2
   13a10:	97ae                	add	a5,a5,a1
   13a12:	97ba                	add	a5,a5,a4
   13a14:	0107d713          	srli	a4,a5,0x10
   13a18:	00f69123          	sh	a5,2(a3)
   13a1c:	8b05                	andi	a4,a4,1
   13a1e:	fe9613e3          	bne	a2,s1,13a04 <emdnorm+0x114>
   13a22:	13205663          	blez	s2,13b4e <emdnorm+0x25e>
   13a26:	00445783          	lhu	a5,4(s0)
   13a2a:	e7ed                	bnez	a5,13b14 <emdnorm+0x224>
   13a2c:	67a1                	lui	a5,0x8
   13a2e:	00041c23          	sh	zero,24(s0)
   13a32:	17f9                	addi	a5,a5,-2
   13a34:	0727c563          	blt	a5,s2,13a9e <emdnorm+0x1ae>
   13a38:	01241123          	sh	s2,2(s0)
   13a3c:	70e2                	ld	ra,56(sp)
   13a3e:	7442                	ld	s0,48(sp)
   13a40:	74a2                	ld	s1,40(sp)
   13a42:	7902                	ld	s2,32(sp)
   13a44:	69e2                	ld	s3,24(sp)
   13a46:	6a42                	ld	s4,16(sp)
   13a48:	6aa2                	ld	s5,8(sp)
   13a4a:	6121                	addi	sp,sp,64
   13a4c:	8082                	ret
   13a4e:	0a095a63          	bgez	s2,13b02 <emdnorm+0x212>
   13a52:	f7000793          	li	a5,-144
   13a56:	06f95b63          	bge	s2,a5,13acc <emdnorm+0x1dc>
   13a5a:	00240793          	addi	a5,s0,2
   13a5e:	0469                	addi	s0,s0,26
   13a60:	0789                	addi	a5,a5,2
   13a62:	fe079f23          	sh	zero,-2(a5) # 7ffe <register_fini-0x80b2>
   13a66:	fe879de3          	bne	a5,s0,13a60 <emdnorm+0x170>
   13a6a:	bfc9                	j	13a3c <emdnorm+0x14c>
   13a6c:	47e1                	li	a5,24
   13a6e:	10f50f63          	beq	a0,a5,13b8c <emdnorm+0x29c>
   13a72:	03500793          	li	a5,53
   13a76:	16f51363          	bne	a0,a5,13bdc <emdnorm+0x2ec>
   13a7a:	040006b7          	lui	a3,0x4000
   13a7e:	6705                	lui	a4,0x1
   13a80:	7ff68693          	addi	a3,a3,2047 # 40007ff <__BSS_END__+0x3fc8147>
   13a84:	4799                	li	a5,6
   13a86:	80070713          	addi	a4,a4,-2048 # 800 <register_fini-0xf8b0>
   13a8a:	c8d4                	sw	a3,20(s1)
   13a8c:	1782                	slli	a5,a5,0x20
   13a8e:	0799                	addi	a5,a5,6
   13a90:	e49c                	sd	a5,8(s1)
   13a92:	00e49c23          	sh	a4,24(s1)
   13a96:	4799                	li	a5,6
   13a98:	b5c5                	j	13978 <emdnorm+0x88>
   13a9a:	00041c23          	sh	zero,24(s0)
   13a9e:	77e1                	lui	a5,0xffff8
   13aa0:	fff7c793          	not	a5,a5
   13aa4:	00f41123          	sh	a5,2(s0)
   13aa8:	00440793          	addi	a5,s0,4
   13aac:	0461                	addi	s0,s0,24
   13aae:	00079023          	sh	zero,0(a5) # ffffffffffff8000 <__BSS_END__+0xfffffffffffbf948>
   13ab2:	0789                	addi	a5,a5,2
   13ab4:	fef41de3          	bne	s0,a5,13aae <emdnorm+0x1be>
   13ab8:	b751                	j	13a3c <emdnorm+0x14c>
   13aba:	00240793          	addi	a5,s0,2
   13abe:	0469                	addi	s0,s0,26
   13ac0:	0789                	addi	a5,a5,2
   13ac2:	fe079f23          	sh	zero,-2(a5)
   13ac6:	fe879de3          	bne	a5,s0,13ac0 <emdnorm+0x1d0>
   13aca:	bf8d                	j	13a3c <emdnorm+0x14c>
   13acc:	0009059b          	sext.w	a1,s2
   13ad0:	8522                	mv	a0,s0
   13ad2:	b7dff0ef          	jal	ra,1364e <eshift.part.0>
   13ad6:	c111                	beqz	a0,13ada <emdnorm+0x1ea>
   13ad8:	4985                	li	s3,1
   13ada:	0a0a8463          	beqz	s5,13b82 <emdnorm+0x292>
   13ade:	40c8                	lw	a0,4(s1)
   13ae0:	409c                	lw	a5,0(s1)
   13ae2:	e4a797e3          	bne	a5,a0,13930 <emdnorm+0x40>
   13ae6:	09000793          	li	a5,144
   13aea:	08f50163          	beq	a0,a5,13b6c <emdnorm+0x27c>
   13aee:	01845783          	lhu	a5,24(s0)
   13af2:	8522                	mv	a0,s0
   13af4:	8b85                	andi	a5,a5,1
   13af6:	00f9e9b3          	or	s3,s3,a5
   13afa:	839ff0ef          	jal	ra,13332 <eshdn1>
   13afe:	40c8                	lw	a0,4(s1)
   13b00:	b561                	j	13988 <emdnorm+0x98>
   13b02:	f20a85e3          	beqz	s5,13a2c <emdnorm+0x13c>
   13b06:	40c8                	lw	a0,4(s1)
   13b08:	409c                	lw	a5,0(s1)
   13b0a:	e2a793e3          	bne	a5,a0,13930 <emdnorm+0x40>
   13b0e:	e7204de3          	bgtz	s2,13988 <emdnorm+0x98>
   13b12:	bfd1                	j	13ae6 <emdnorm+0x1f6>
   13b14:	8522                	mv	a0,s0
   13b16:	81dff0ef          	jal	ra,13332 <eshdn1>
   13b1a:	67a1                	lui	a5,0x8
   13b1c:	0905                	addi	s2,s2,1
   13b1e:	00041c23          	sh	zero,24(s0)
   13b22:	17f9                	addi	a5,a5,-2
   13b24:	f727cde3          	blt	a5,s2,13a9e <emdnorm+0x1ae>
   13b28:	f00958e3          	bgez	s2,13a38 <emdnorm+0x148>
   13b2c:	00041123          	sh	zero,2(s0)
   13b30:	b731                	j	13a3c <emdnorm+0x14c>
   13b32:	08099963          	bnez	s3,13bc4 <emdnorm+0x2d4>
   13b36:	44dc                	lw	a5,12(s1)
   13b38:	0184d703          	lhu	a4,24(s1)
   13b3c:	0786                	slli	a5,a5,0x1
   13b3e:	97a2                	add	a5,a5,s0
   13b40:	0007d783          	lhu	a5,0(a5) # 8000 <register_fini-0x80b0>
   13b44:	8ff9                	and	a5,a5,a4
   13b46:	ea0799e3          	bnez	a5,139f8 <emdnorm+0x108>
   13b4a:	ed204ee3          	bgtz	s2,13a26 <emdnorm+0x136>
   13b4e:	09000793          	li	a5,144
   13b52:	00f50563          	beq	a0,a5,13b5c <emdnorm+0x26c>
   13b56:	8522                	mv	a0,s0
   13b58:	827ff0ef          	jal	ra,1337e <eshup1>
   13b5c:	00445783          	lhu	a5,4(s0)
   13b60:	fbd5                	bnez	a5,13b14 <emdnorm+0x224>
   13b62:	00041c23          	sh	zero,24(s0)
   13b66:	fc0943e3          	bltz	s2,13b2c <emdnorm+0x23c>
   13b6a:	b5f9                	j	13a38 <emdnorm+0x148>
   13b6c:	0084a803          	lw	a6,8(s1)
   13b70:	0144d603          	lhu	a2,20(s1)
   13b74:	0806                	slli	a6,a6,0x1
   13b76:	9822                	add	a6,a6,s0
   13b78:	00085883          	lhu	a7,0(a6)
   13b7c:	011675b3          	and	a1,a2,a7
   13b80:	bdb9                	j	139de <emdnorm+0xee>
   13b82:	00041c23          	sh	zero,24(s0)
   13b86:	00041123          	sh	zero,2(s0)
   13b8a:	bd4d                	j	13a3c <emdnorm+0x14c>
   13b8c:	4791                	li	a5,4
   13b8e:	00800737          	lui	a4,0x800
   13b92:	0ff70713          	addi	a4,a4,255 # 8000ff <__BSS_END__+0x7c7a47>
   13b96:	1782                	slli	a5,a5,0x20
   13b98:	0791                	addi	a5,a5,4
   13b9a:	c8d8                	sw	a4,20(s1)
   13b9c:	10000713          	li	a4,256
   13ba0:	e49c                	sd	a5,8(s1)
   13ba2:	00e49c23          	sh	a4,24(s1)
   13ba6:	4791                	li	a5,4
   13ba8:	bbc1                	j	13978 <emdnorm+0x88>
   13baa:	478d                	li	a5,3
   13bac:	80010737          	lui	a4,0x80010
   13bb0:	177d                	addi	a4,a4,-1
   13bb2:	1786                	slli	a5,a5,0x21
   13bb4:	079d                	addi	a5,a5,7
   13bb6:	c8d8                	sw	a4,20(s1)
   13bb8:	4705                	li	a4,1
   13bba:	e49c                	sd	a5,8(s1)
   13bbc:	00e49c23          	sh	a4,24(s1)
   13bc0:	4799                	li	a5,6
   13bc2:	bb5d                	j	13978 <emdnorm+0x88>
   13bc4:	e20a0ae3          	beqz	s4,139f8 <emdnorm+0x108>
   13bc8:	bda9                	j	13a22 <emdnorm+0x132>
   13bca:	00800737          	lui	a4,0x800
   13bce:	0ff70713          	addi	a4,a4,255 # 8000ff <__BSS_END__+0x7c7a47>
   13bd2:	c8d8                	sw	a4,20(s1)
   13bd4:	4799                	li	a5,6
   13bd6:	10000713          	li	a4,256
   13bda:	bd4d                	j	13a8c <emdnorm+0x19c>
   13bdc:	47ad                	li	a5,11
   13bde:	80010737          	lui	a4,0x80010
   13be2:	177d                	addi	a4,a4,-1
   13be4:	1782                	slli	a5,a5,0x20
   13be6:	07b1                	addi	a5,a5,12
   13be8:	c8d8                	sw	a4,20(s1)
   13bea:	4705                	li	a4,1
   13bec:	e49c                	sd	a5,8(s1)
   13bee:	00e49c23          	sh	a4,24(s1)
   13bf2:	47ad                	li	a5,11
   13bf4:	b351                	j	13978 <emdnorm+0x88>

0000000000013bf6 <eiremain>:
   13bf6:	711d                	addi	sp,sp,-96
   13bf8:	e4a6                	sd	s1,72(sp)
   13bfa:	fc4e                	sd	s3,56(sp)
   13bfc:	84ae                	mv	s1,a1
   13bfe:	00255983          	lhu	s3,2(a0)
   13c02:	ec86                	sd	ra,88(sp)
   13c04:	e8a2                	sd	s0,80(sp)
   13c06:	e0ca                	sd	s2,64(sp)
   13c08:	f852                	sd	s4,48(sp)
   13c0a:	8932                	mv	s2,a2
   13c0c:	f456                	sd	s5,40(sp)
   13c0e:	f05a                	sd	s6,32(sp)
   13c10:	ec5e                	sd	s7,24(sp)
   13c12:	e862                	sd	s8,16(sp)
   13c14:	e466                	sd	s9,8(sp)
   13c16:	e06a                	sd	s10,0(sp)
   13c18:	8a2a                	mv	s4,a0
   13c1a:	bb7ff0ef          	jal	ra,137d0 <enormlz>
   13c1e:	0024d403          	lhu	s0,2(s1)
   13c22:	87aa                	mv	a5,a0
   13c24:	8526                	mv	a0,s1
   13c26:	40f989b3          	sub	s3,s3,a5
   13c2a:	03490a93          	addi	s5,s2,52
   13c2e:	ba3ff0ef          	jal	ra,137d0 <enormlz>
   13c32:	8c09                	sub	s0,s0,a0
   13c34:	04e90713          	addi	a4,s2,78
   13c38:	87d6                	mv	a5,s5
   13c3a:	0789                	addi	a5,a5,2
   13c3c:	fe079f23          	sh	zero,-2(a5)
   13c40:	fee79de3          	bne	a5,a4,13c3a <eiremain+0x44>
   13c44:	07344b63          	blt	s0,s3,13cba <eiremain+0xc4>
   13c48:	004a0b93          	addi	s7,s4,4
   13c4c:	00448b13          	addi	s6,s1,4
   13c50:	19fd                	addi	s3,s3,-1
   13c52:	01aa0c93          	addi	s9,s4,26
   13c56:	00248c13          	addi	s8,s1,2
   13c5a:	875a                	mv	a4,s6
   13c5c:	87de                	mv	a5,s7
   13c5e:	0007d603          	lhu	a2,0(a5)
   13c62:	00075683          	lhu	a3,0(a4) # ffffffff80010000 <__BSS_END__+0xffffffff7ffd7948>
   13c66:	0789                	addi	a5,a5,2
   13c68:	0709                	addi	a4,a4,2
   13c6a:	06d61c63          	bne	a2,a3,13ce2 <eiremain+0xec>
   13c6e:	fefc98e3          	bne	s9,a5,13c5e <eiremain+0x68>
   13c72:	018a0613          	addi	a2,s4,24
   13c76:	01848713          	addi	a4,s1,24
   13c7a:	4681                	li	a3,0
   13c7c:	00075783          	lhu	a5,0(a4)
   13c80:	00065583          	lhu	a1,0(a2)
   13c84:	1779                	addi	a4,a4,-2
   13c86:	8f95                	sub	a5,a5,a3
   13c88:	8f8d                	sub	a5,a5,a1
   13c8a:	0107d693          	srli	a3,a5,0x10
   13c8e:	00f71123          	sh	a5,2(a4)
   13c92:	8a85                	andi	a3,a3,1
   13c94:	1679                	addi	a2,a2,-2
   13c96:	feec13e3          	bne	s8,a4,13c7c <eiremain+0x86>
   13c9a:	4d05                	li	s10,1
   13c9c:	8556                	mv	a0,s5
   13c9e:	ee0ff0ef          	jal	ra,1337e <eshup1>
   13ca2:	04c95783          	lhu	a5,76(s2)
   13ca6:	147d                	addi	s0,s0,-1
   13ca8:	8526                	mv	a0,s1
   13caa:	00fd6d33          	or	s10,s10,a5
