
bin/storeBypass.riscv：     文件格式 elf64-littleriscv


Disassembly of section .text:

00000000000100b0 <register_fini>:
   100b0:	ffff0797          	auipc	a5,0xffff0
   100b4:	f5078793          	addi	a5,a5,-176 # 0 <register_fini-0x100b0>
   100b8:	c799                	beqz	a5,100c6 <register_fini+0x16>
   100ba:	00003517          	auipc	a0,0x3
   100be:	ada50513          	addi	a0,a0,-1318 # 12b94 <__libc_fini_array>
   100c2:	3130906f          	j	19bd4 <atexit>
   100c6:	8082                	ret

00000000000100c8 <_start>:
   100c8:	00010197          	auipc	gp,0x10
   100cc:	c6018193          	addi	gp,gp,-928 # 1fd28 <__global_pointer$>
   100d0:	87818513          	addi	a0,gp,-1928 # 1f5a0 <_edata>
   100d4:	00028617          	auipc	a2,0x28
   100d8:	5e460613          	addi	a2,a2,1508 # 386b8 <__BSS_END__>
   100dc:	8e09                	sub	a2,a2,a0
   100de:	4581                	li	a1,0
   100e0:	5d8000ef          	jal	ra,106b8 <memset>
   100e4:	0000a517          	auipc	a0,0xa
   100e8:	af050513          	addi	a0,a0,-1296 # 19bd4 <atexit>
   100ec:	c519                	beqz	a0,100fa <_start+0x32>
   100ee:	00003517          	auipc	a0,0x3
   100f2:	aa650513          	addi	a0,a0,-1370 # 12b94 <__libc_fini_array>
   100f6:	2df090ef          	jal	ra,19bd4 <atexit>
   100fa:	554000ef          	jal	ra,1064e <__libc_init_array>
   100fe:	4502                	lw	a0,0(sp)
   10100:	002c                	addi	a1,sp,8
   10102:	4601                	li	a2,0
   10104:	2d4000ef          	jal	ra,103d8 <main>
   10108:	a325                	j	10630 <exit>

000000000001010a <__do_global_dtors_aux>:
   1010a:	8a818793          	addi	a5,gp,-1880 # 1f5d0 <completed.5527>
   1010e:	0007c703          	lbu	a4,0(a5)
   10112:	eb0d                	bnez	a4,10144 <__do_global_dtors_aux+0x3a>
   10114:	1141                	addi	sp,sp,-16
   10116:	e022                	sd	s0,0(sp)
   10118:	e406                	sd	ra,8(sp)
   1011a:	843e                	mv	s0,a5
   1011c:	ffff0797          	auipc	a5,0xffff0
   10120:	ee478793          	addi	a5,a5,-284 # 0 <register_fini-0x100b0>
   10124:	cb89                	beqz	a5,10136 <__do_global_dtors_aux+0x2c>
   10126:	0000e517          	auipc	a0,0xe
   1012a:	24250513          	addi	a0,a0,578 # 1e368 <__FRAME_END__>
   1012e:	00000097          	auipc	ra,0x0
   10132:	000000e7          	jalr	zero # 0 <register_fini-0x100b0>
   10136:	4785                	li	a5,1
   10138:	60a2                	ld	ra,8(sp)
   1013a:	00f40023          	sb	a5,0(s0)
   1013e:	6402                	ld	s0,0(sp)
   10140:	0141                	addi	sp,sp,16
   10142:	8082                	ret
   10144:	8082                	ret

0000000000010146 <frame_dummy>:
   10146:	ffff0797          	auipc	a5,0xffff0
   1014a:	eba78793          	addi	a5,a5,-326 # 0 <register_fini-0x100b0>
   1014e:	cb99                	beqz	a5,10164 <frame_dummy+0x1e>
   10150:	8b018593          	addi	a1,gp,-1872 # 1f5d8 <object.5532>
   10154:	0000e517          	auipc	a0,0xe
   10158:	21450513          	addi	a0,a0,532 # 1e368 <__FRAME_END__>
   1015c:	00000317          	auipc	t1,0x0
   10160:	00000067          	jr	zero # 0 <register_fini-0x100b0>
   10164:	8082                	ret

0000000000010166 <flushCache>:
   10166:	711d                	addi	sp,sp,-96
   10168:	eca2                	sd	s0,88(sp)
   1016a:	1080                	addi	s0,sp,96
   1016c:	faa43423          	sd	a0,-88(s0)
   10170:	fab43023          	sd	a1,-96(s0)
   10174:	fa043783          	ld	a5,-96(s0)
   10178:	8399                	srli	a5,a5,0x6
   1017a:	fef43423          	sd	a5,-24(s0)
   1017e:	fa043783          	ld	a5,-96(s0)
   10182:	03f7f793          	andi	a5,a5,63
   10186:	c791                	beqz	a5,10192 <flushCache+0x2c>
   10188:	fe843783          	ld	a5,-24(s0)
   1018c:	0785                	addi	a5,a5,1
   1018e:	fef43423          	sd	a5,-24(s0)
   10192:	fe843703          	ld	a4,-24(s0)
   10196:	04000793          	li	a5,64
   1019a:	00e7f663          	bgeu	a5,a4,101a6 <flushCache+0x40>
   1019e:	04000793          	li	a5,64
   101a2:	fef43423          	sd	a5,-24(s0)
   101a6:	fc040ba3          	sb	zero,-41(s0)
   101aa:	000207b7          	lui	a5,0x20
   101ae:	e3078713          	addi	a4,a5,-464 # 1fe30 <dummyMem>
   101b2:	6791                	lui	a5,0x4
   101b4:	973e                	add	a4,a4,a5
   101b6:	77fd                	lui	a5,0xfffff
   101b8:	8ff9                	and	a5,a5,a4
   101ba:	fcf43423          	sd	a5,-56(s0)
   101be:	fe043023          	sd	zero,-32(s0)
   101c2:	a8b9                	j	10220 <flushCache+0xba>
   101c4:	fa843783          	ld	a5,-88(s0)
   101c8:	8399                	srli	a5,a5,0x6
   101ca:	03f7f713          	andi	a4,a5,63
   101ce:	fe043783          	ld	a5,-32(s0)
   101d2:	97ba                	add	a5,a5,a4
   101d4:	079a                	slli	a5,a5,0x6
   101d6:	fcf43023          	sd	a5,-64(s0)
   101da:	fc043c23          	sd	zero,-40(s0)
   101de:	a03d                	j	1020c <flushCache+0xa6>
   101e0:	fd843783          	ld	a5,-40(s0)
   101e4:	07b2                	slli	a5,a5,0xc
   101e6:	faf43c23          	sd	a5,-72(s0)
   101ea:	fc843703          	ld	a4,-56(s0)
   101ee:	fc043783          	ld	a5,-64(s0)
   101f2:	973e                	add	a4,a4,a5
   101f4:	fb843783          	ld	a5,-72(s0)
   101f8:	97ba                	add	a5,a5,a4
   101fa:	0007c783          	lbu	a5,0(a5) # fffffffffffff000 <__BSS_END__+0xfffffffffffc6948>
   101fe:	fcf40ba3          	sb	a5,-41(s0)
   10202:	fd843783          	ld	a5,-40(s0)
   10206:	0785                	addi	a5,a5,1
   10208:	fcf43c23          	sd	a5,-40(s0)
   1020c:	fd843703          	ld	a4,-40(s0)
   10210:	47bd                	li	a5,15
   10212:	fce7f7e3          	bgeu	a5,a4,101e0 <flushCache+0x7a>
   10216:	fe043783          	ld	a5,-32(s0)
   1021a:	0785                	addi	a5,a5,1
   1021c:	fef43023          	sd	a5,-32(s0)
   10220:	fe043703          	ld	a4,-32(s0)
   10224:	fe843783          	ld	a5,-24(s0)
   10228:	f8f76ee3          	bltu	a4,a5,101c4 <flushCache+0x5e>
   1022c:	0001                	nop
   1022e:	0001                	nop
   10230:	6466                	ld	s0,88(sp)
   10232:	6125                	addi	sp,sp,96
   10234:	8082                	ret

0000000000010236 <topTwoIdx>:
   10236:	7139                	addi	sp,sp,-64
   10238:	fc22                	sd	s0,56(sp)
   1023a:	0080                	addi	s0,sp,64
   1023c:	fca43c23          	sd	a0,-40(s0)
   10240:	fcb43823          	sd	a1,-48(s0)
   10244:	fcc43423          	sd	a2,-56(s0)
   10248:	fcd43023          	sd	a3,-64(s0)
   1024c:	fc043783          	ld	a5,-64(s0)
   10250:	0007b023          	sd	zero,0(a5)
   10254:	fc043783          	ld	a5,-64(s0)
   10258:	07a1                	addi	a5,a5,8
   1025a:	0007b023          	sd	zero,0(a5)
   1025e:	fe043423          	sd	zero,-24(s0)
   10262:	a075                	j	1030e <topTwoIdx+0xd8>
   10264:	fe843783          	ld	a5,-24(s0)
   10268:	078e                	slli	a5,a5,0x3
   1026a:	fd843703          	ld	a4,-40(s0)
   1026e:	97ba                	add	a5,a5,a4
   10270:	6398                	ld	a4,0(a5)
   10272:	fc043783          	ld	a5,-64(s0)
   10276:	639c                	ld	a5,0(a5)
   10278:	04e7f563          	bgeu	a5,a4,102c2 <topTwoIdx+0x8c>
   1027c:	fc043783          	ld	a5,-64(s0)
   10280:	07a1                	addi	a5,a5,8
   10282:	fc043703          	ld	a4,-64(s0)
   10286:	6318                	ld	a4,0(a4)
   10288:	e398                	sd	a4,0(a5)
   1028a:	fe843783          	ld	a5,-24(s0)
   1028e:	078e                	slli	a5,a5,0x3
   10290:	fd843703          	ld	a4,-40(s0)
   10294:	97ba                	add	a5,a5,a4
   10296:	6398                	ld	a4,0(a5)
   10298:	fc043783          	ld	a5,-64(s0)
   1029c:	e398                	sd	a4,0(a5)
   1029e:	fc843783          	ld	a5,-56(s0)
   102a2:	0785                	addi	a5,a5,1
   102a4:	fc843703          	ld	a4,-56(s0)
   102a8:	00074703          	lbu	a4,0(a4)
   102ac:	00e78023          	sb	a4,0(a5)
   102b0:	fe843783          	ld	a5,-24(s0)
   102b4:	0ff7f713          	andi	a4,a5,255
   102b8:	fc843783          	ld	a5,-56(s0)
   102bc:	00e78023          	sb	a4,0(a5)
   102c0:	a091                	j	10304 <topTwoIdx+0xce>
   102c2:	fe843783          	ld	a5,-24(s0)
   102c6:	078e                	slli	a5,a5,0x3
   102c8:	fd843703          	ld	a4,-40(s0)
   102cc:	97ba                	add	a5,a5,a4
   102ce:	6398                	ld	a4,0(a5)
   102d0:	fc043783          	ld	a5,-64(s0)
   102d4:	07a1                	addi	a5,a5,8
   102d6:	639c                	ld	a5,0(a5)
   102d8:	02e7f663          	bgeu	a5,a4,10304 <topTwoIdx+0xce>
   102dc:	fe843783          	ld	a5,-24(s0)
   102e0:	078e                	slli	a5,a5,0x3
   102e2:	fd843703          	ld	a4,-40(s0)
   102e6:	973e                	add	a4,a4,a5
   102e8:	fc043783          	ld	a5,-64(s0)
   102ec:	07a1                	addi	a5,a5,8
   102ee:	6318                	ld	a4,0(a4)
   102f0:	e398                	sd	a4,0(a5)
   102f2:	fc843783          	ld	a5,-56(s0)
   102f6:	0785                	addi	a5,a5,1
   102f8:	fe843703          	ld	a4,-24(s0)
   102fc:	0ff77713          	andi	a4,a4,255
   10300:	00e78023          	sb	a4,0(a5)
   10304:	fe843783          	ld	a5,-24(s0)
   10308:	0785                	addi	a5,a5,1
   1030a:	fef43423          	sd	a5,-24(s0)
   1030e:	fe843703          	ld	a4,-24(s0)
   10312:	fd043783          	ld	a5,-48(s0)
   10316:	f4f767e3          	bltu	a4,a5,10264 <topTwoIdx+0x2e>
   1031a:	0001                	nop
   1031c:	0001                	nop
   1031e:	7462                	ld	s0,56(sp)
   10320:	6121                	addi	sp,sp,64
   10322:	8082                	ret

0000000000010324 <victim_function>:
   10324:	7179                	addi	sp,sp,-48
   10326:	f422                	sd	s0,40(sp)
   10328:	1800                	addi	s0,sp,48
   1032a:	fca43c23          	sd	a0,-40(s0)
   1032e:	000387b7          	lui	a5,0x38
   10332:	e7078793          	addi	a5,a5,-400 # 37e70 <str>
   10336:	fd843703          	ld	a4,-40(s0)
   1033a:	e798                	sd	a4,8(a5)
   1033c:	8501b783          	ld	a5,-1968(gp) # 1f578 <str_index>
   10340:	00479713          	slli	a4,a5,0x4
   10344:	84e1b823          	sd	a4,-1968(gp) # 1f578 <str_index>
   10348:	8501b783          	ld	a5,-1968(gp) # 1f578 <str_index>
   1034c:	8591c703          	lbu	a4,-1959(gp) # 1f581 <t>
   10350:	d0377753          	fcvt.s.lu	fa4,a4
   10354:	d037f7d3          	fcvt.s.lu	fa5,a5
   10358:	18e7f7d3          	fdiv.s	fa5,fa5,fa4
   1035c:	18e7f7d3          	fdiv.s	fa5,fa5,fa4
   10360:	18e7f7d3          	fdiv.s	fa5,fa5,fa4
   10364:	18e7f7d3          	fdiv.s	fa5,fa5,fa4
   10368:	c0379753          	fcvt.lu.s	a4,fa5,rtz
   1036c:	84e1b823          	sd	a4,-1968(gp) # 1f578 <str_index>
   10370:	8501b783          	ld	a5,-1968(gp) # 1f578 <str_index>
   10374:	00038737          	lui	a4,0x38
   10378:	e7070713          	addi	a4,a4,-400 # 37e70 <str>
   1037c:	078e                	slli	a5,a5,0x3
   1037e:	97ba                	add	a5,a5,a4
   10380:	0007b023          	sd	zero,0(a5)
   10384:	000387b7          	lui	a5,0x38
   10388:	e7078793          	addi	a5,a5,-400 # 37e70 <str>
   1038c:	679c                	ld	a5,8(a5)
   1038e:	6779                	lui	a4,0x1e
   10390:	38870713          	addi	a4,a4,904 # 1e388 <__fini_array_end>
   10394:	97ba                	add	a5,a5,a4
   10396:	0007c783          	lbu	a5,0(a5)
   1039a:	2781                	sext.w	a5,a5
   1039c:	0067979b          	slliw	a5,a5,0x6
   103a0:	2781                	sext.w	a5,a5
   103a2:	00034737          	lui	a4,0x34
   103a6:	e7070713          	addi	a4,a4,-400 # 33e70 <array2>
   103aa:	97ba                	add	a5,a5,a4
   103ac:	0007c783          	lbu	a5,0(a5)
   103b0:	873e                	mv	a4,a5
   103b2:	8781b783          	ld	a5,-1928(gp) # 1f5a0 <_edata>
   103b6:	8f7d                	and	a4,a4,a5
   103b8:	86e1bc23          	sd	a4,-1928(gp) # 1f5a0 <_edata>
   103bc:	c00027f3          	rdcycle	a5
   103c0:	fef43423          	sd	a5,-24(s0)
   103c4:	fe843783          	ld	a5,-24(s0)
   103c8:	0ff7f713          	andi	a4,a5,255
   103cc:	84e18c23          	sb	a4,-1960(gp) # 1f580 <dummy>
   103d0:	0001                	nop
   103d2:	7422                	ld	s0,40(sp)
   103d4:	6145                	addi	sp,sp,48
   103d6:	8082                	ret

00000000000103d8 <main>:
   103d8:	7175                	addi	sp,sp,-144
   103da:	e506                	sd	ra,136(sp)
   103dc:	e122                	sd	s0,128(sp)
   103de:	0900                	addi	s0,sp,144
   103e0:	8481b703          	ld	a4,-1976(gp) # 1f570 <secretString>
   103e4:	67f9                	lui	a5,0x1e
   103e6:	38878793          	addi	a5,a5,904 # 1e388 <__fini_array_end>
   103ea:	40f707b3          	sub	a5,a4,a5
   103ee:	fef43423          	sd	a5,-24(s0)
   103f2:	67f1                	lui	a5,0x1c
   103f4:	53078513          	addi	a0,a5,1328 # 1c530 <__clzdi2+0x58>
   103f8:	438000ef          	jal	ra,10830 <puts>
   103fc:	8481b783          	ld	a5,-1976(gp) # 1f570 <secretString>
   10400:	85be                	mv	a1,a5
   10402:	67f1                	lui	a5,0x1c
   10404:	58878513          	addi	a0,a5,1416 # 1c588 <__clzdi2+0xb0>
   10408:	37c000ef          	jal	ra,10784 <printf>
   1040c:	fe043023          	sd	zero,-32(s0)
   10410:	a429                	j	1061a <main+0x242>
   10412:	fc043c23          	sd	zero,-40(s0)
   10416:	a005                	j	10436 <main+0x5e>
   10418:	0001f7b7          	lui	a5,0x1f
   1041c:	60878713          	addi	a4,a5,1544 # 1f608 <results.2599>
   10420:	fd843783          	ld	a5,-40(s0)
   10424:	078e                	slli	a5,a5,0x3
   10426:	97ba                	add	a5,a5,a4
   10428:	0007b023          	sd	zero,0(a5)
   1042c:	fd843783          	ld	a5,-40(s0)
   10430:	0785                	addi	a5,a5,1
   10432:	fcf43c23          	sd	a5,-40(s0)
   10436:	fd843703          	ld	a4,-40(s0)
   1043a:	0ff00793          	li	a5,255
   1043e:	fce7fde3          	bgeu	a5,a4,10418 <main+0x40>
   10442:	fc043823          	sd	zero,-48(s0)
   10446:	a0c1                	j	10506 <main+0x12e>
   10448:	000347b7          	lui	a5,0x34
   1044c:	e7078793          	addi	a5,a5,-400 # 33e70 <array2>
   10450:	6591                	lui	a1,0x4
   10452:	853e                	mv	a0,a5
   10454:	d13ff0ef          	jal	ra,10166 <flushCache>
   10458:	fe843503          	ld	a0,-24(s0)
   1045c:	ec9ff0ef          	jal	ra,10324 <victim_function>
   10460:	fc043423          	sd	zero,-56(s0)
   10464:	a071                	j	104f0 <main+0x118>
   10466:	fc043023          	sd	zero,-64(s0)
   1046a:	c00027f3          	rdcycle	a5
   1046e:	faf43c23          	sd	a5,-72(s0)
   10472:	fb843783          	ld	a5,-72(s0)
   10476:	faf43823          	sd	a5,-80(s0)
   1047a:	fc843783          	ld	a5,-56(s0)
   1047e:	079a                	slli	a5,a5,0x6
   10480:	00034737          	lui	a4,0x34
   10484:	e7070713          	addi	a4,a4,-400 # 33e70 <array2>
   10488:	97ba                	add	a5,a5,a4
   1048a:	0007c703          	lbu	a4,0(a5)
   1048e:	8581c783          	lbu	a5,-1960(gp) # 1f580 <dummy>
   10492:	8ff9                	and	a5,a5,a4
   10494:	0ff7f713          	andi	a4,a5,255
   10498:	84e18c23          	sb	a4,-1960(gp) # 1f580 <dummy>
   1049c:	c00027f3          	rdcycle	a5
   104a0:	faf43423          	sd	a5,-88(s0)
   104a4:	fa843703          	ld	a4,-88(s0)
   104a8:	fb043783          	ld	a5,-80(s0)
   104ac:	40f707b3          	sub	a5,a4,a5
   104b0:	faf43023          	sd	a5,-96(s0)
   104b4:	fa043703          	ld	a4,-96(s0)
   104b8:	47f5                	li	a5,29
   104ba:	02e7e663          	bltu	a5,a4,104e6 <main+0x10e>
   104be:	0001f7b7          	lui	a5,0x1f
   104c2:	60878713          	addi	a4,a5,1544 # 1f608 <results.2599>
   104c6:	fc843783          	ld	a5,-56(s0)
   104ca:	078e                	slli	a5,a5,0x3
   104cc:	97ba                	add	a5,a5,a4
   104ce:	639c                	ld	a5,0(a5)
   104d0:	00178713          	addi	a4,a5,1
   104d4:	0001f7b7          	lui	a5,0x1f
   104d8:	60878693          	addi	a3,a5,1544 # 1f608 <results.2599>
   104dc:	fc843783          	ld	a5,-56(s0)
   104e0:	078e                	slli	a5,a5,0x3
   104e2:	97b6                	add	a5,a5,a3
   104e4:	e398                	sd	a4,0(a5)
   104e6:	fc843783          	ld	a5,-56(s0)
   104ea:	0785                	addi	a5,a5,1
   104ec:	fcf43423          	sd	a5,-56(s0)
   104f0:	fc843703          	ld	a4,-56(s0)
   104f4:	0ff00793          	li	a5,255
   104f8:	f6e7f7e3          	bgeu	a5,a4,10466 <main+0x8e>
   104fc:	fd043783          	ld	a5,-48(s0)
   10500:	0785                	addi	a5,a5,1
   10502:	fcf43823          	sd	a5,-48(s0)
   10506:	fd043703          	ld	a4,-48(s0)
   1050a:	47a5                	li	a5,9
   1050c:	f2e7fee3          	bgeu	a5,a4,10448 <main+0x70>
   10510:	f8840713          	addi	a4,s0,-120
   10514:	f9840793          	addi	a5,s0,-104
   10518:	86ba                	mv	a3,a4
   1051a:	863e                	mv	a2,a5
   1051c:	10000593          	li	a1,256
   10520:	0001f7b7          	lui	a5,0x1f
   10524:	60878513          	addi	a0,a5,1544 # 1f608 <results.2599>
   10528:	d0fff0ef          	jal	ra,10236 <topTwoIdx>
   1052c:	f9844683          	lbu	a3,-104(s0)
   10530:	8481b703          	ld	a4,-1976(gp) # 1f570 <secretString>
   10534:	fe043783          	ld	a5,-32(s0)
   10538:	97ba                	add	a5,a5,a4
   1053a:	0007c783          	lbu	a5,0(a5)
   1053e:	8736                	mv	a4,a3
   10540:	00f70e63          	beq	a4,a5,1055c <main+0x184>
   10544:	f9944683          	lbu	a3,-103(s0)
   10548:	8481b703          	ld	a4,-1976(gp) # 1f570 <secretString>
   1054c:	fe043783          	ld	a5,-32(s0)
   10550:	97ba                	add	a5,a5,a4
   10552:	0007c783          	lbu	a5,0(a5)
   10556:	8736                	mv	a4,a3
   10558:	04f71d63          	bne	a4,a5,105b2 <main+0x1da>
   1055c:	fe843703          	ld	a4,-24(s0)
   10560:	67f9                	lui	a5,0x1e
   10562:	38878793          	addi	a5,a5,904 # 1e388 <__fini_array_end>
   10566:	00f705b3          	add	a1,a4,a5
   1056a:	8481b703          	ld	a4,-1976(gp) # 1f570 <secretString>
   1056e:	fe043783          	ld	a5,-32(s0)
   10572:	97ba                	add	a5,a5,a4
   10574:	0007c783          	lbu	a5,0(a5)
   10578:	0007861b          	sext.w	a2,a5
   1057c:	f8843683          	ld	a3,-120(s0)
   10580:	f9844783          	lbu	a5,-104(s0)
   10584:	0007871b          	sext.w	a4,a5
   10588:	f9844783          	lbu	a5,-104(s0)
   1058c:	0007851b          	sext.w	a0,a5
   10590:	f9043803          	ld	a6,-112(s0)
   10594:	f9944783          	lbu	a5,-103(s0)
   10598:	0007889b          	sext.w	a7,a5
   1059c:	f9944783          	lbu	a5,-103(s0)
   105a0:	2781                	sext.w	a5,a5
   105a2:	e03e                	sd	a5,0(sp)
   105a4:	87aa                	mv	a5,a0
   105a6:	6571                	lui	a0,0x1c
   105a8:	5a050513          	addi	a0,a0,1440 # 1c5a0 <__clzdi2+0xc8>
   105ac:	1d8000ef          	jal	ra,10784 <printf>
   105b0:	a899                	j	10606 <main+0x22e>
   105b2:	fe843703          	ld	a4,-24(s0)
   105b6:	67f9                	lui	a5,0x1e
   105b8:	38878793          	addi	a5,a5,904 # 1e388 <__fini_array_end>
   105bc:	00f705b3          	add	a1,a4,a5
   105c0:	8481b703          	ld	a4,-1976(gp) # 1f570 <secretString>
   105c4:	fe043783          	ld	a5,-32(s0)
   105c8:	97ba                	add	a5,a5,a4
   105ca:	0007c783          	lbu	a5,0(a5)
   105ce:	0007861b          	sext.w	a2,a5
   105d2:	f8843683          	ld	a3,-120(s0)
   105d6:	f9844783          	lbu	a5,-104(s0)
   105da:	0007871b          	sext.w	a4,a5
   105de:	f9844783          	lbu	a5,-104(s0)
   105e2:	0007851b          	sext.w	a0,a5
   105e6:	f9043803          	ld	a6,-112(s0)
   105ea:	f9944783          	lbu	a5,-103(s0)
   105ee:	0007889b          	sext.w	a7,a5
   105f2:	f9944783          	lbu	a5,-103(s0)
   105f6:	2781                	sext.w	a5,a5
   105f8:	e03e                	sd	a5,0(sp)
   105fa:	87aa                	mv	a5,a0
   105fc:	6571                	lui	a0,0x1c
   105fe:	60050513          	addi	a0,a0,1536 # 1c600 <__clzdi2+0x128>
   10602:	182000ef          	jal	ra,10784 <printf>
   10606:	fe843783          	ld	a5,-24(s0)
   1060a:	0785                	addi	a5,a5,1
   1060c:	fef43423          	sd	a5,-24(s0)
   10610:	fe043783          	ld	a5,-32(s0)
   10614:	0785                	addi	a5,a5,1
   10616:	fef43023          	sd	a5,-32(s0)
   1061a:	fe043703          	ld	a4,-32(s0)
   1061e:	47e5                	li	a5,25
   10620:	dee7f9e3          	bgeu	a5,a4,10412 <main+0x3a>
   10624:	4781                	li	a5,0
   10626:	853e                	mv	a0,a5
   10628:	60aa                	ld	ra,136(sp)
   1062a:	640a                	ld	s0,128(sp)
   1062c:	6149                	addi	sp,sp,144
   1062e:	8082                	ret

0000000000010630 <exit>:
   10630:	1141                	addi	sp,sp,-16
   10632:	4581                	li	a1,0
   10634:	e022                	sd	s0,0(sp)
   10636:	e406                	sd	ra,8(sp)
   10638:	842a                	mv	s0,a0
   1063a:	03c020ef          	jal	ra,12676 <__call_exitprocs>
   1063e:	8301b503          	ld	a0,-2000(gp) # 1f558 <_global_impure_ptr>
   10642:	6d3c                	ld	a5,88(a0)
   10644:	c391                	beqz	a5,10648 <exit+0x18>
   10646:	9782                	jalr	a5
   10648:	8522                	mv	a0,s0
   1064a:	0bf0a0ef          	jal	ra,1af08 <_exit>

000000000001064e <__libc_init_array>:
   1064e:	1101                	addi	sp,sp,-32
   10650:	e822                	sd	s0,16(sp)
   10652:	e04a                	sd	s2,0(sp)
   10654:	0000e417          	auipc	s0,0xe
   10658:	d1840413          	addi	s0,s0,-744 # 1e36c <__preinit_array_end>
   1065c:	0000e917          	auipc	s2,0xe
   10660:	d1090913          	addi	s2,s2,-752 # 1e36c <__preinit_array_end>
   10664:	40890933          	sub	s2,s2,s0
   10668:	ec06                	sd	ra,24(sp)
   1066a:	e426                	sd	s1,8(sp)
   1066c:	40395913          	srai	s2,s2,0x3
   10670:	00090963          	beqz	s2,10682 <__libc_init_array+0x34>
   10674:	4481                	li	s1,0
   10676:	601c                	ld	a5,0(s0)
   10678:	0485                	addi	s1,s1,1
   1067a:	0421                	addi	s0,s0,8
   1067c:	9782                	jalr	a5
   1067e:	fe991ce3          	bne	s2,s1,10676 <__libc_init_array+0x28>
   10682:	0000e417          	auipc	s0,0xe
   10686:	cee40413          	addi	s0,s0,-786 # 1e370 <__init_array_start>
   1068a:	0000e917          	auipc	s2,0xe
   1068e:	cf690913          	addi	s2,s2,-778 # 1e380 <__init_array_end>
   10692:	40890933          	sub	s2,s2,s0
   10696:	40395913          	srai	s2,s2,0x3
   1069a:	00090963          	beqz	s2,106ac <__libc_init_array+0x5e>
   1069e:	4481                	li	s1,0
   106a0:	601c                	ld	a5,0(s0)
   106a2:	0485                	addi	s1,s1,1
   106a4:	0421                	addi	s0,s0,8
   106a6:	9782                	jalr	a5
   106a8:	fe991ce3          	bne	s2,s1,106a0 <__libc_init_array+0x52>
   106ac:	60e2                	ld	ra,24(sp)
   106ae:	6442                	ld	s0,16(sp)
   106b0:	64a2                	ld	s1,8(sp)
   106b2:	6902                	ld	s2,0(sp)
   106b4:	6105                	addi	sp,sp,32
   106b6:	8082                	ret

00000000000106b8 <memset>:
   106b8:	433d                	li	t1,15
   106ba:	872a                	mv	a4,a0
   106bc:	02c37163          	bgeu	t1,a2,106de <memset+0x26>
   106c0:	00f77793          	andi	a5,a4,15
   106c4:	e3c1                	bnez	a5,10744 <memset+0x8c>
   106c6:	e1bd                	bnez	a1,1072c <memset+0x74>
   106c8:	ff067693          	andi	a3,a2,-16
   106cc:	8a3d                	andi	a2,a2,15
   106ce:	96ba                	add	a3,a3,a4
   106d0:	e30c                	sd	a1,0(a4)
   106d2:	e70c                	sd	a1,8(a4)
   106d4:	0741                	addi	a4,a4,16
   106d6:	fed76de3          	bltu	a4,a3,106d0 <memset+0x18>
   106da:	e211                	bnez	a2,106de <memset+0x26>
   106dc:	8082                	ret
   106de:	40c306b3          	sub	a3,t1,a2
   106e2:	068a                	slli	a3,a3,0x2
   106e4:	00000297          	auipc	t0,0x0
   106e8:	9696                	add	a3,a3,t0
   106ea:	00a68067          	jr	10(a3)
   106ee:	00b70723          	sb	a1,14(a4)
   106f2:	00b706a3          	sb	a1,13(a4)
   106f6:	00b70623          	sb	a1,12(a4)
   106fa:	00b705a3          	sb	a1,11(a4)
   106fe:	00b70523          	sb	a1,10(a4)
   10702:	00b704a3          	sb	a1,9(a4)
   10706:	00b70423          	sb	a1,8(a4)
   1070a:	00b703a3          	sb	a1,7(a4)
   1070e:	00b70323          	sb	a1,6(a4)
   10712:	00b702a3          	sb	a1,5(a4)
   10716:	00b70223          	sb	a1,4(a4)
   1071a:	00b701a3          	sb	a1,3(a4)
   1071e:	00b70123          	sb	a1,2(a4)
   10722:	00b700a3          	sb	a1,1(a4)
   10726:	00b70023          	sb	a1,0(a4)
   1072a:	8082                	ret
   1072c:	0ff5f593          	andi	a1,a1,255
   10730:	00859693          	slli	a3,a1,0x8
   10734:	8dd5                	or	a1,a1,a3
   10736:	01059693          	slli	a3,a1,0x10
   1073a:	8dd5                	or	a1,a1,a3
   1073c:	02059693          	slli	a3,a1,0x20
   10740:	8dd5                	or	a1,a1,a3
   10742:	b759                	j	106c8 <memset+0x10>
   10744:	00279693          	slli	a3,a5,0x2
   10748:	00000297          	auipc	t0,0x0
   1074c:	9696                	add	a3,a3,t0
   1074e:	8286                	mv	t0,ra
   10750:	fa2680e7          	jalr	-94(a3)
   10754:	8096                	mv	ra,t0
   10756:	17c1                	addi	a5,a5,-16
   10758:	8f1d                	sub	a4,a4,a5
   1075a:	963e                	add	a2,a2,a5
   1075c:	f8c371e3          	bgeu	t1,a2,106de <memset+0x26>
   10760:	b79d                	j	106c6 <memset+0xe>

0000000000010762 <_printf_r>:
   10762:	715d                	addi	sp,sp,-80
   10764:	f032                	sd	a2,32(sp)
   10766:	f436                	sd	a3,40(sp)
   10768:	f83a                	sd	a4,48(sp)
   1076a:	fc3e                	sd	a5,56(sp)
   1076c:	e0c2                	sd	a6,64(sp)
   1076e:	e4c6                	sd	a7,72(sp)
   10770:	862e                	mv	a2,a1
   10772:	690c                	ld	a1,16(a0)
   10774:	1014                	addi	a3,sp,32
   10776:	ec06                	sd	ra,24(sp)
   10778:	e436                	sd	a3,8(sp)
   1077a:	152000ef          	jal	ra,108cc <_vfprintf_r>
   1077e:	60e2                	ld	ra,24(sp)
   10780:	6161                	addi	sp,sp,80
   10782:	8082                	ret

0000000000010784 <printf>:
   10784:	711d                	addi	sp,sp,-96
   10786:	f832                	sd	a2,48(sp)
   10788:	fc36                	sd	a3,56(sp)
   1078a:	8601b303          	ld	t1,-1952(gp) # 1f588 <_impure_ptr>
   1078e:	f42e                	sd	a1,40(sp)
   10790:	e0ba                	sd	a4,64(sp)
   10792:	e4be                	sd	a5,72(sp)
   10794:	e8c2                	sd	a6,80(sp)
   10796:	ecc6                	sd	a7,88(sp)
   10798:	01033583          	ld	a1,16(t1) # 1016c <flushCache+0x6>
   1079c:	1034                	addi	a3,sp,40
   1079e:	862a                	mv	a2,a0
   107a0:	851a                	mv	a0,t1
   107a2:	ec06                	sd	ra,24(sp)
   107a4:	e436                	sd	a3,8(sp)
   107a6:	126000ef          	jal	ra,108cc <_vfprintf_r>
   107aa:	60e2                	ld	ra,24(sp)
   107ac:	6125                	addi	sp,sp,96
   107ae:	8082                	ret

00000000000107b0 <_puts_r>:
   107b0:	7159                	addi	sp,sp,-112
   107b2:	f0a2                	sd	s0,96(sp)
   107b4:	842a                	mv	s0,a0
   107b6:	852e                	mv	a0,a1
   107b8:	eca6                	sd	s1,88(sp)
   107ba:	f486                	sd	ra,104(sp)
   107bc:	84ae                	mv	s1,a1
   107be:	07a000ef          	jal	ra,10838 <strlen>
   107c2:	00150713          	addi	a4,a0,1
   107c6:	0000c697          	auipc	a3,0xc
   107ca:	e9a68693          	addi	a3,a3,-358 # 1c660 <__clzdi2+0x188>
   107ce:	f43a                	sd	a4,40(sp)
   107d0:	483c                	lw	a5,80(s0)
   107d2:	1818                	addi	a4,sp,48
   107d4:	e0b6                	sd	a3,64(sp)
   107d6:	ec3a                	sd	a4,24(sp)
   107d8:	4685                	li	a3,1
   107da:	4709                	li	a4,2
   107dc:	f826                	sd	s1,48(sp)
   107de:	fc2a                	sd	a0,56(sp)
   107e0:	e4b6                	sd	a3,72(sp)
   107e2:	d03a                	sw	a4,32(sp)
   107e4:	680c                	ld	a1,16(s0)
   107e6:	cf8d                	beqz	a5,10820 <_puts_r+0x70>
   107e8:	01059783          	lh	a5,16(a1) # 4010 <register_fini-0xc0a0>
   107ec:	03279713          	slli	a4,a5,0x32
   107f0:	00074d63          	bltz	a4,1080a <_puts_r+0x5a>
   107f4:	0ac5a703          	lw	a4,172(a1)
   107f8:	6689                	lui	a3,0x2
   107fa:	8fd5                	or	a5,a5,a3
   107fc:	76f9                	lui	a3,0xffffe
   107fe:	16fd                	addi	a3,a3,-1
   10800:	8f75                	and	a4,a4,a3
   10802:	00f59823          	sh	a5,16(a1)
   10806:	0ae5a623          	sw	a4,172(a1)
   1080a:	0830                	addi	a2,sp,24
   1080c:	8522                	mv	a0,s0
   1080e:	6dc020ef          	jal	ra,12eea <__sfvwrite_r>
   10812:	ed09                	bnez	a0,1082c <_puts_r+0x7c>
   10814:	4529                	li	a0,10
   10816:	70a6                	ld	ra,104(sp)
   10818:	7406                	ld	s0,96(sp)
   1081a:	64e6                	ld	s1,88(sp)
   1081c:	6165                	addi	sp,sp,112
   1081e:	8082                	ret
   10820:	8522                	mv	a0,s0
   10822:	e42e                	sd	a1,8(sp)
   10824:	344020ef          	jal	ra,12b68 <__sinit>
   10828:	65a2                	ld	a1,8(sp)
   1082a:	bf7d                	j	107e8 <_puts_r+0x38>
   1082c:	557d                	li	a0,-1
   1082e:	b7e5                	j	10816 <_puts_r+0x66>

0000000000010830 <puts>:
   10830:	85aa                	mv	a1,a0
   10832:	8601b503          	ld	a0,-1952(gp) # 1f588 <_impure_ptr>
   10836:	bfad                	j	107b0 <_puts_r>

0000000000010838 <strlen>:
   10838:	00757793          	andi	a5,a0,7
   1083c:	872a                	mv	a4,a0
   1083e:	ebb9                	bnez	a5,10894 <strlen+0x5c>
   10840:	0000f697          	auipc	a3,0xf
   10844:	ce86b683          	ld	a3,-792(a3) # 1f528 <__SDATA_BEGIN__>
   10848:	55fd                	li	a1,-1
   1084a:	6310                	ld	a2,0(a4)
   1084c:	0721                	addi	a4,a4,8
   1084e:	00d677b3          	and	a5,a2,a3
   10852:	97b6                	add	a5,a5,a3
   10854:	8fd1                	or	a5,a5,a2
   10856:	8fd5                	or	a5,a5,a3
   10858:	feb789e3          	beq	a5,a1,1084a <strlen+0x12>
   1085c:	ff874683          	lbu	a3,-8(a4)
   10860:	40a707b3          	sub	a5,a4,a0
   10864:	c6a9                	beqz	a3,108ae <strlen+0x76>
   10866:	ff974683          	lbu	a3,-7(a4)
   1086a:	ce9d                	beqz	a3,108a8 <strlen+0x70>
   1086c:	ffa74683          	lbu	a3,-6(a4)
   10870:	c6a9                	beqz	a3,108ba <strlen+0x82>
   10872:	ffb74683          	lbu	a3,-5(a4)
   10876:	ce9d                	beqz	a3,108b4 <strlen+0x7c>
   10878:	ffc74683          	lbu	a3,-4(a4)
   1087c:	ffd74603          	lbu	a2,-3(a4)
   10880:	ffe74503          	lbu	a0,-2(a4)
   10884:	ce95                	beqz	a3,108c0 <strlen+0x88>
   10886:	c221                	beqz	a2,108c6 <strlen+0x8e>
   10888:	00a03533          	snez	a0,a0
   1088c:	953e                	add	a0,a0,a5
   1088e:	1579                	addi	a0,a0,-2
   10890:	8082                	ret
   10892:	d6dd                	beqz	a3,10840 <strlen+0x8>
   10894:	00074783          	lbu	a5,0(a4)
   10898:	0705                	addi	a4,a4,1
   1089a:	00777693          	andi	a3,a4,7
   1089e:	fbf5                	bnez	a5,10892 <strlen+0x5a>
   108a0:	8f09                	sub	a4,a4,a0
   108a2:	fff70513          	addi	a0,a4,-1
   108a6:	8082                	ret
   108a8:	ff978513          	addi	a0,a5,-7
   108ac:	8082                	ret
   108ae:	ff878513          	addi	a0,a5,-8
   108b2:	8082                	ret
   108b4:	ffb78513          	addi	a0,a5,-5
   108b8:	8082                	ret
   108ba:	ffa78513          	addi	a0,a5,-6
   108be:	8082                	ret
   108c0:	ffc78513          	addi	a0,a5,-4
   108c4:	8082                	ret
   108c6:	ffd78513          	addi	a0,a5,-3
   108ca:	8082                	ret

00000000000108cc <_vfprintf_r>:
   108cc:	d8010113          	addi	sp,sp,-640
   108d0:	26113c23          	sd	ra,632(sp)
   108d4:	25413823          	sd	s4,592(sp)
   108d8:	25513423          	sd	s5,584(sp)
   108dc:	23913423          	sd	s9,552(sp)
   108e0:	8a2e                	mv	s4,a1
   108e2:	8cb2                	mv	s9,a2
   108e4:	e836                	sd	a3,16(sp)
   108e6:	26813823          	sd	s0,624(sp)
   108ea:	26913423          	sd	s1,616(sp)
   108ee:	27213023          	sd	s2,608(sp)
   108f2:	25313c23          	sd	s3,600(sp)
   108f6:	25613023          	sd	s6,576(sp)
   108fa:	23713c23          	sd	s7,568(sp)
   108fe:	23813823          	sd	s8,560(sp)
   10902:	23a13023          	sd	s10,544(sp)
   10906:	21b13c23          	sd	s11,536(sp)
   1090a:	8aaa                	mv	s5,a0
   1090c:	2c5040ef          	jal	ra,153d0 <_localeconv_r>
   10910:	611c                	ld	a5,0(a0)
   10912:	853e                	mv	a0,a5
   10914:	fcbe                	sd	a5,120(sp)
   10916:	f23ff0ef          	jal	ra,10838 <strlen>
   1091a:	f8aa                	sd	a0,112(sp)
   1091c:	e202                	sd	zero,256(sp)
   1091e:	e602                	sd	zero,264(sp)
   10920:	000a8663          	beqz	s5,1092c <_vfprintf_r+0x60>
   10924:	050aa783          	lw	a5,80(s5)
   10928:	70078063          	beqz	a5,11028 <_vfprintf_r+0x75c>
   1092c:	010a1703          	lh	a4,16(s4)
   10930:	03071793          	slli	a5,a4,0x30
   10934:	03271693          	slli	a3,a4,0x32
   10938:	93c1                	srli	a5,a5,0x30
   1093a:	0006cf63          	bltz	a3,10958 <_vfprintf_r+0x8c>
   1093e:	0aca2683          	lw	a3,172(s4)
   10942:	6789                	lui	a5,0x2
   10944:	8fd9                	or	a5,a5,a4
   10946:	7779                	lui	a4,0xffffe
   10948:	177d                	addi	a4,a4,-1
   1094a:	8f75                	and	a4,a4,a3
   1094c:	00fa1823          	sh	a5,16(s4)
   10950:	17c2                	slli	a5,a5,0x30
   10952:	0aea2623          	sw	a4,172(s4)
   10956:	93c1                	srli	a5,a5,0x30
   10958:	0087f713          	andi	a4,a5,8
   1095c:	26070463          	beqz	a4,10bc4 <_vfprintf_r+0x2f8>
   10960:	018a3703          	ld	a4,24(s4)
   10964:	26070063          	beqz	a4,10bc4 <_vfprintf_r+0x2f8>
   10968:	8be9                	andi	a5,a5,26
   1096a:	4729                	li	a4,10
   1096c:	26e78963          	beq	a5,a4,10bde <_vfprintf_r+0x312>
   10970:	000cc783          	lbu	a5,0(s9)
   10974:	19010b93          	addi	s7,sp,400
   10978:	ea5e                	sd	s7,272(sp)
   1097a:	f202                	sd	zero,288(sp)
   1097c:	10012c23          	sw	zero,280(sp)
   10980:	f002                	sd	zero,32(sp)
   10982:	f402                	sd	zero,40(sp)
   10984:	e102                	sd	zero,128(sp)
   10986:	f482                	sd	zero,104(sp)
   10988:	e502                	sd	zero,136(sp)
   1098a:	e902                	sd	zero,144(sp)
   1098c:	e002                	sd	zero,0(sp)
   1098e:	835e                	mv	t1,s7
   10990:	4d41                	li	s10,16
   10992:	0000c917          	auipc	s2,0xc
   10996:	eb690913          	addi	s2,s2,-330 # 1c848 <zeroes.4521>
   1099a:	1c078663          	beqz	a5,10b66 <_vfprintf_r+0x29a>
   1099e:	8466                	mv	s0,s9
   109a0:	02500713          	li	a4,37
   109a4:	30e78463          	beq	a5,a4,10cac <_vfprintf_r+0x3e0>
   109a8:	00144783          	lbu	a5,1(s0)
   109ac:	0405                	addi	s0,s0,1
   109ae:	fbfd                	bnez	a5,109a4 <_vfprintf_r+0xd8>
   109b0:	419404bb          	subw	s1,s0,s9
   109b4:	1a048963          	beqz	s1,10b66 <_vfprintf_r+0x29a>
   109b8:	7712                	ld	a4,288(sp)
   109ba:	11812783          	lw	a5,280(sp)
   109be:	01933023          	sd	s9,0(t1)
   109c2:	9726                	add	a4,a4,s1
   109c4:	2785                	addiw	a5,a5,1
   109c6:	00933423          	sd	s1,8(t1)
   109ca:	f23a                	sd	a4,288(sp)
   109cc:	10f12c23          	sw	a5,280(sp)
   109d0:	0007871b          	sext.w	a4,a5
   109d4:	479d                	li	a5,7
   109d6:	0341                	addi	t1,t1,16
   109d8:	2ee7c163          	blt	a5,a4,10cba <_vfprintf_r+0x3ee>
   109dc:	6702                	ld	a4,0(sp)
   109de:	00044783          	lbu	a5,0(s0)
   109e2:	9f25                	addw	a4,a4,s1
   109e4:	e03a                	sd	a4,0(sp)
   109e6:	18078063          	beqz	a5,10b66 <_vfprintf_r+0x29a>
   109ea:	00144f03          	lbu	t5,1(s0)
   109ee:	0c010fa3          	sb	zero,223(sp)
   109f2:	0405                	addi	s0,s0,1
   109f4:	5efd                	li	t4,-1
   109f6:	4b01                	li	s6,0
   109f8:	4481                	li	s1,0
   109fa:	49a5                	li	s3,9
   109fc:	02a00c13          	li	s8,42
   10a00:	0405                	addi	s0,s0,1
   10a02:	000f0d9b          	sext.w	s11,t5
   10a06:	05a00693          	li	a3,90
   10a0a:	fe0d879b          	addiw	a5,s11,-32
   10a0e:	0007871b          	sext.w	a4,a5
   10a12:	04e6e663          	bltu	a3,a4,10a5e <_vfprintf_r+0x192>
   10a16:	1782                	slli	a5,a5,0x20
   10a18:	0000c717          	auipc	a4,0xc
   10a1c:	cb070713          	addi	a4,a4,-848 # 1c6c8 <__clzdi2+0x1f0>
   10a20:	83f9                	srli	a5,a5,0x1e
   10a22:	97ba                	add	a5,a5,a4
   10a24:	439c                	lw	a5,0(a5)
   10a26:	97ba                	add	a5,a5,a4
   10a28:	8782                	jr	a5
   10a2a:	4b01                	li	s6,0
   10a2c:	00044703          	lbu	a4,0(s0)
   10a30:	002b179b          	slliw	a5,s6,0x2
   10a34:	01678b3b          	addw	s6,a5,s6
   10a38:	fd0d8f1b          	addiw	t5,s11,-48
   10a3c:	001b1b1b          	slliw	s6,s6,0x1
   10a40:	fd07079b          	addiw	a5,a4,-48
   10a44:	0405                	addi	s0,s0,1
   10a46:	016f0b3b          	addw	s6,t5,s6
   10a4a:	00070d9b          	sext.w	s11,a4
   10a4e:	fcf9ffe3          	bgeu	s3,a5,10a2c <_vfprintf_r+0x160>
   10a52:	fe0d879b          	addiw	a5,s11,-32
   10a56:	0007871b          	sext.w	a4,a5
   10a5a:	fae6fee3          	bgeu	a3,a4,10a16 <_vfprintf_r+0x14a>
   10a5e:	100d8463          	beqz	s11,10b66 <_vfprintf_r+0x29a>
   10a62:	13b10423          	sb	s11,296(sp)
   10a66:	0c010fa3          	sb	zero,223(sp)
   10a6a:	4985                	li	s3,1
   10a6c:	4c05                	li	s8,1
   10a6e:	12810c93          	addi	s9,sp,296
   10a72:	ec02                	sd	zero,24(sp)
   10a74:	4e81                	li	t4,0
   10a76:	e882                	sd	zero,80(sp)
   10a78:	f082                	sd	zero,96(sp)
   10a7a:	ec82                	sd	zero,88(sp)
   10a7c:	0024f793          	andi	a5,s1,2
   10a80:	0007829b          	sext.w	t0,a5
   10a84:	c391                	beqz	a5,10a88 <_vfprintf_r+0x1bc>
   10a86:	2989                	addiw	s3,s3,2
   10a88:	0844ff93          	andi	t6,s1,132
   10a8c:	7792                	ld	a5,288(sp)
   10a8e:	000f9663          	bnez	t6,10a9a <_vfprintf_r+0x1ce>
   10a92:	413b06bb          	subw	a3,s6,s3
   10a96:	2cd046e3          	bgtz	a3,11562 <_vfprintf_r+0xc96>
   10a9a:	0df14703          	lbu	a4,223(sp)
   10a9e:	c70d                	beqz	a4,10ac8 <_vfprintf_r+0x1fc>
   10aa0:	11812703          	lw	a4,280(sp)
   10aa4:	0df10693          	addi	a3,sp,223
   10aa8:	00d33023          	sd	a3,0(t1)
   10aac:	2705                	addiw	a4,a4,1
   10aae:	4685                	li	a3,1
   10ab0:	0785                	addi	a5,a5,1
   10ab2:	00d33423          	sd	a3,8(t1)
   10ab6:	10e12c23          	sw	a4,280(sp)
   10aba:	0007069b          	sext.w	a3,a4
   10abe:	f23e                	sd	a5,288(sp)
   10ac0:	471d                	li	a4,7
   10ac2:	0341                	addi	t1,t1,16
   10ac4:	42d74863          	blt	a4,a3,10ef4 <_vfprintf_r+0x628>
   10ac8:	02028563          	beqz	t0,10af2 <_vfprintf_r+0x226>
   10acc:	11812703          	lw	a4,280(sp)
   10ad0:	1194                	addi	a3,sp,224
   10ad2:	00d33023          	sd	a3,0(t1)
   10ad6:	2705                	addiw	a4,a4,1
   10ad8:	4689                	li	a3,2
   10ada:	0789                	addi	a5,a5,2
   10adc:	00d33423          	sd	a3,8(t1)
   10ae0:	10e12c23          	sw	a4,280(sp)
   10ae4:	0007069b          	sext.w	a3,a4
   10ae8:	f23e                	sd	a5,288(sp)
   10aea:	471d                	li	a4,7
   10aec:	0341                	addi	t1,t1,16
   10aee:	30d74ce3          	blt	a4,a3,11606 <_vfprintf_r+0xd3a>
   10af2:	08000713          	li	a4,128
   10af6:	06ef81e3          	beq	t6,a4,11358 <_vfprintf_r+0xa8c>
   10afa:	418e8ebb          	subw	t4,t4,s8
   10afe:	0fd043e3          	bgtz	t4,113e4 <_vfprintf_r+0xb18>
   10b02:	1004f713          	andi	a4,s1,256
   10b06:	78071663          	bnez	a4,11292 <_vfprintf_r+0x9c6>
   10b0a:	11812703          	lw	a4,280(sp)
   10b0e:	97e2                	add	a5,a5,s8
   10b10:	01933023          	sd	s9,0(t1)
   10b14:	0017069b          	addiw	a3,a4,1
   10b18:	8736                	mv	a4,a3
   10b1a:	01833423          	sd	s8,8(t1)
   10b1e:	10e12c23          	sw	a4,280(sp)
   10b22:	f23e                	sd	a5,288(sp)
   10b24:	471d                	li	a4,7
   10b26:	44d74963          	blt	a4,a3,10f78 <_vfprintf_r+0x6ac>
   10b2a:	0341                	addi	t1,t1,16
   10b2c:	8891                	andi	s1,s1,4
   10b2e:	c489                	beqz	s1,10b38 <_vfprintf_r+0x26c>
   10b30:	413b04bb          	subw	s1,s6,s3
   10b34:	2e9048e3          	bgtz	s1,11624 <_vfprintf_r+0xd58>
   10b38:	875a                	mv	a4,s6
   10b3a:	013b5363          	bge	s6,s3,10b40 <_vfprintf_r+0x274>
   10b3e:	874e                	mv	a4,s3
   10b40:	6682                	ld	a3,0(sp)
   10b42:	9f35                	addw	a4,a4,a3
   10b44:	e03a                	sd	a4,0(sp)
   10b46:	10079ce3          	bnez	a5,1145e <_vfprintf_r+0xb92>
   10b4a:	67e2                	ld	a5,24(sp)
   10b4c:	10012c23          	sw	zero,280(sp)
   10b50:	c789                	beqz	a5,10b5a <_vfprintf_r+0x28e>
   10b52:	65e2                	ld	a1,24(sp)
   10b54:	8556                	mv	a0,s5
   10b56:	144020ef          	jal	ra,12c9a <_free_r>
   10b5a:	835e                	mv	t1,s7
   10b5c:	8ca2                	mv	s9,s0
   10b5e:	000cc783          	lbu	a5,0(s9)
   10b62:	e2079ee3          	bnez	a5,1099e <_vfprintf_r+0xd2>
   10b66:	7792                	ld	a5,288(sp)
   10b68:	c399                	beqz	a5,10b6e <_vfprintf_r+0x2a2>
   10b6a:	2de0106f          	j	11e48 <_vfprintf_r+0x157c>
   10b6e:	010a5783          	lhu	a5,16(s4)
   10b72:	0407f793          	andi	a5,a5,64
   10b76:	c399                	beqz	a5,10b7c <_vfprintf_r+0x2b0>
   10b78:	67c0106f          	j	121f4 <_vfprintf_r+0x1928>
   10b7c:	27813083          	ld	ra,632(sp)
   10b80:	27013403          	ld	s0,624(sp)
   10b84:	6502                	ld	a0,0(sp)
   10b86:	26813483          	ld	s1,616(sp)
   10b8a:	26013903          	ld	s2,608(sp)
   10b8e:	25813983          	ld	s3,600(sp)
   10b92:	25013a03          	ld	s4,592(sp)
   10b96:	24813a83          	ld	s5,584(sp)
   10b9a:	24013b03          	ld	s6,576(sp)
   10b9e:	23813b83          	ld	s7,568(sp)
   10ba2:	23013c03          	ld	s8,560(sp)
   10ba6:	22813c83          	ld	s9,552(sp)
   10baa:	22013d03          	ld	s10,544(sp)
   10bae:	21813d83          	ld	s11,536(sp)
   10bb2:	28010113          	addi	sp,sp,640
   10bb6:	8082                	ret
   10bb8:	0104e493          	ori	s1,s1,16
   10bbc:	00044f03          	lbu	t5,0(s0)
   10bc0:	2481                	sext.w	s1,s1
   10bc2:	bd3d                	j	10a00 <_vfprintf_r+0x134>
   10bc4:	85d2                	mv	a1,s4
   10bc6:	8556                	mv	a0,s5
   10bc8:	1c1010ef          	jal	ra,12588 <__swsetup_r>
   10bcc:	c119                	beqz	a0,10bd2 <_vfprintf_r+0x306>
   10bce:	6260106f          	j	121f4 <_vfprintf_r+0x1928>
   10bd2:	010a5783          	lhu	a5,16(s4)
   10bd6:	4729                	li	a4,10
   10bd8:	8be9                	andi	a5,a5,26
   10bda:	d8e79be3          	bne	a5,a4,10970 <_vfprintf_r+0xa4>
   10bde:	012a1783          	lh	a5,18(s4)
   10be2:	d807c7e3          	bltz	a5,10970 <_vfprintf_r+0xa4>
   10be6:	66c2                	ld	a3,16(sp)
   10be8:	8666                	mv	a2,s9
   10bea:	85d2                	mv	a1,s4
   10bec:	8556                	mv	a0,s5
   10bee:	107010ef          	jal	ra,124f4 <__sbprintf>
   10bf2:	e02a                	sd	a0,0(sp)
   10bf4:	b761                	j	10b7c <_vfprintf_r+0x2b0>
   10bf6:	0104e493          	ori	s1,s1,16
   10bfa:	2481                	sext.w	s1,s1
   10bfc:	66c2                	ld	a3,16(sp)
   10bfe:	0204f793          	andi	a5,s1,32
   10c02:	00868713          	addi	a4,a3,8
   10c06:	3a078263          	beqz	a5,10faa <_vfprintf_r+0x6de>
   10c0a:	629c                	ld	a5,0(a3)
   10c0c:	89be                	mv	s3,a5
   10c0e:	3a07cc63          	bltz	a5,10fc6 <_vfprintf_r+0x6fa>
   10c12:	57fd                	li	a5,-1
   10c14:	48fe87e3          	beq	t4,a5,118a2 <_vfprintf_r+0xfd6>
   10c18:	f7f4f493          	andi	s1,s1,-129
   10c1c:	e83a                	sd	a4,16(sp)
   10c1e:	0004881b          	sext.w	a6,s1
   10c22:	120993e3          	bnez	s3,11548 <_vfprintf_r+0xc7c>
   10c26:	120e94e3          	bnez	t4,1154e <_vfprintf_r+0xc82>
   10c2a:	84c2                	mv	s1,a6
   10c2c:	4e81                	li	t4,0
   10c2e:	4c01                	li	s8,0
   10c30:	18c10c93          	addi	s9,sp,396
   10c34:	000c099b          	sext.w	s3,s8
   10c38:	01dc5463          	bge	s8,t4,10c40 <_vfprintf_r+0x374>
   10c3c:	000e899b          	sext.w	s3,t4
   10c40:	0df14783          	lbu	a5,223(sp)
   10c44:	ec02                	sd	zero,24(sp)
   10c46:	e882                	sd	zero,80(sp)
   10c48:	f082                	sd	zero,96(sp)
   10c4a:	ec82                	sd	zero,88(sp)
   10c4c:	e20788e3          	beqz	a5,10a7c <_vfprintf_r+0x1b0>
   10c50:	2985                	addiw	s3,s3,1
   10c52:	b52d                	j	10a7c <_vfprintf_r+0x1b0>
   10c54:	0104e493          	ori	s1,s1,16
   10c58:	2481                	sext.w	s1,s1
   10c5a:	66c2                	ld	a3,16(sp)
   10c5c:	0204f793          	andi	a5,s1,32
   10c60:	00868713          	addi	a4,a3,8
   10c64:	32078463          	beqz	a5,10f8c <_vfprintf_r+0x6c0>
   10c68:	0006b983          	ld	s3,0(a3)
   10c6c:	bff4f493          	andi	s1,s1,-1025
   10c70:	0004881b          	sext.w	a6,s1
   10c74:	e83a                	sd	a4,16(sp)
   10c76:	4781                	li	a5,0
   10c78:	0c010fa3          	sb	zero,223(sp)
   10c7c:	577d                	li	a4,-1
   10c7e:	36ee8063          	beq	t4,a4,10fde <_vfprintf_r+0x712>
   10c82:	f7f87493          	andi	s1,a6,-129
   10c86:	2481                	sext.w	s1,s1
   10c88:	0a099ce3          	bnez	s3,11540 <_vfprintf_r+0xc74>
   10c8c:	5c0e9663          	bnez	t4,11258 <_vfprintf_r+0x98c>
   10c90:	ffd1                	bnez	a5,10c2c <_vfprintf_r+0x360>
   10c92:	00187c13          	andi	s8,a6,1
   10c96:	18c10c93          	addi	s9,sp,396
   10c9a:	f80c0de3          	beqz	s8,10c34 <_vfprintf_r+0x368>
   10c9e:	03000793          	li	a5,48
   10ca2:	18f105a3          	sb	a5,395(sp)
   10ca6:	18b10c93          	addi	s9,sp,395
   10caa:	b769                	j	10c34 <_vfprintf_r+0x368>
   10cac:	419404bb          	subw	s1,s0,s9
   10cb0:	d00494e3          	bnez	s1,109b8 <_vfprintf_r+0xec>
   10cb4:	00044783          	lbu	a5,0(s0)
   10cb8:	b33d                	j	109e6 <_vfprintf_r+0x11a>
   10cba:	0a10                	addi	a2,sp,272
   10cbc:	85d2                	mv	a1,s4
   10cbe:	8556                	mv	a0,s5
   10cc0:	1ca080ef          	jal	ra,18e8a <__sprint_r>
   10cc4:	ea0515e3          	bnez	a0,10b6e <_vfprintf_r+0x2a2>
   10cc8:	835e                	mv	t1,s7
   10cca:	bb09                	j	109dc <_vfprintf_r+0x110>
   10ccc:	0084f793          	andi	a5,s1,8
   10cd0:	3a079ee3          	bnez	a5,1188c <_vfprintf_r+0xfc0>
   10cd4:	67c2                	ld	a5,16(sp)
   10cd6:	ec1a                	sd	t1,24(sp)
   10cd8:	e476                	sd	t4,8(sp)
   10cda:	2388                	fld	fa0,0(a5)
   10cdc:	00878693          	addi	a3,a5,8 # 2008 <register_fini-0xe0a8>
   10ce0:	e836                	sd	a3,16(sp)
   10ce2:	5040b0ef          	jal	ra,1c1e6 <__extenddftf2>
   10ce6:	6362                	ld	t1,24(sp)
   10ce8:	6ea2                	ld	t4,8(sp)
   10cea:	e22a                	sd	a0,256(sp)
   10cec:	e62e                	sd	a1,264(sp)
   10cee:	0208                	addi	a0,sp,256
   10cf0:	ec1a                	sd	t1,24(sp)
   10cf2:	e476                	sd	t4,8(sp)
   10cf4:	6a0040ef          	jal	ra,15394 <_ldcheck>
   10cf8:	d5aa                	sw	a0,232(sp)
   10cfa:	4789                	li	a5,2
   10cfc:	6ea2                	ld	t4,8(sp)
   10cfe:	6362                	ld	t1,24(sp)
   10d00:	64f502e3          	beq	a0,a5,11b44 <_vfprintf_r+0x1278>
   10d04:	4785                	li	a5,1
   10d06:	6ef50ee3          	beq	a0,a5,11c02 <_vfprintf_r+0x1336>
   10d0a:	06100793          	li	a5,97
   10d0e:	00fd9463          	bne	s11,a5,10d16 <_vfprintf_r+0x44a>
   10d12:	5740106f          	j	12286 <_vfprintf_r+0x19ba>
   10d16:	04100793          	li	a5,65
   10d1a:	00fd9463          	bne	s11,a5,10d22 <_vfprintf_r+0x456>
   10d1e:	1380106f          	j	11e56 <_vfprintf_r+0x158a>
   10d22:	fdfdf713          	andi	a4,s11,-33
   10d26:	57fd                	li	a5,-1
   10d28:	f0ba                	sd	a4,96(sp)
   10d2a:	00fe9463          	bne	t4,a5,10d32 <_vfprintf_r+0x466>
   10d2e:	6140106f          	j	12342 <_vfprintf_r+0x1a76>
   10d32:	04700793          	li	a5,71
   10d36:	00f71463          	bne	a4,a5,10d3e <_vfprintf_r+0x472>
   10d3a:	5c40106f          	j	122fe <_vfprintf_r+0x1a32>
   10d3e:	69b2                	ld	s3,264(sp)
   10d40:	1004e793          	ori	a5,s1,256
   10d44:	ed26                	sd	s1,152(sp)
   10d46:	6c12                	ld	s8,256(sp)
   10d48:	2781                	sext.w	a5,a5
   10d4a:	0009d463          	bgez	s3,10d52 <_vfprintf_r+0x486>
   10d4e:	67a0106f          	j	123c8 <_vfprintf_r+0x1afc>
   10d52:	e582                	sd	zero,200(sp)
   10d54:	84be                	mv	s1,a5
   10d56:	ec02                	sd	zero,24(sp)
   10d58:	2701                	sext.w	a4,a4
   10d5a:	04600793          	li	a5,70
   10d5e:	00f71463          	bne	a4,a5,10d66 <_vfprintf_r+0x49a>
   10d62:	38a0106f          	j	120ec <_vfprintf_r+0x1820>
   10d66:	7706                	ld	a4,96(sp)
   10d68:	04500793          	li	a5,69
   10d6c:	00f70463          	beq	a4,a5,10d74 <_vfprintf_r+0x4a8>
   10d70:	33c0106f          	j	120ac <_vfprintf_r+0x17e0>
   10d74:	001e871b          	addiw	a4,t4,1
   10d78:	0f810893          	addi	a7,sp,248
   10d7c:	0ec10813          	addi	a6,sp,236
   10d80:	11bc                	addi	a5,sp,232
   10d82:	4689                	li	a3,2
   10d84:	85e2                	mv	a1,s8
   10d86:	864e                	mv	a2,s3
   10d88:	8556                	mv	a0,s5
   10d8a:	f81a                	sd	t1,48(sp)
   10d8c:	f076                	sd	t4,32(sp)
   10d8e:	e43a                	sd	a4,8(sp)
   10d90:	78c030ef          	jal	ra,1451c <_ldtoa_r>
   10d94:	6722                	ld	a4,8(sp)
   10d96:	7e82                	ld	t4,32(sp)
   10d98:	7342                	ld	t1,48(sp)
   10d9a:	8caa                	mv	s9,a0
   10d9c:	00e508b3          	add	a7,a0,a4
   10da0:	4601                	li	a2,0
   10da2:	4681                	li	a3,0
   10da4:	8562                	mv	a0,s8
   10da6:	85ce                	mv	a1,s3
   10da8:	f846                	sd	a7,48(sp)
   10daa:	f01a                	sd	t1,32(sp)
   10dac:	e476                	sd	t4,8(sp)
   10dae:	3540a0ef          	jal	ra,1b102 <__eqtf2>
   10db2:	78c2                	ld	a7,48(sp)
   10db4:	6ea2                	ld	t4,8(sp)
   10db6:	7302                	ld	t1,32(sp)
   10db8:	87c6                	mv	a5,a7
   10dba:	cd11                	beqz	a0,10dd6 <_vfprintf_r+0x50a>
   10dbc:	77ee                	ld	a5,248(sp)
   10dbe:	0117fc63          	bgeu	a5,a7,10dd6 <_vfprintf_r+0x50a>
   10dc2:	03000693          	li	a3,48
   10dc6:	00178713          	addi	a4,a5,1
   10dca:	fdba                	sd	a4,248(sp)
   10dcc:	00d78023          	sb	a3,0(a5)
   10dd0:	77ee                	ld	a5,248(sp)
   10dd2:	ff17eae3          	bltu	a5,a7,10dc6 <_vfprintf_r+0x4fa>
   10dd6:	419787bb          	subw	a5,a5,s9
   10dda:	f03e                	sd	a5,32(sp)
   10ddc:	572e                	lw	a4,232(sp)
   10dde:	04700793          	li	a5,71
   10de2:	ecba                	sd	a4,88(sp)
   10de4:	7706                	ld	a4,96(sp)
   10de6:	00f71463          	bne	a4,a5,10dee <_vfprintf_r+0x522>
   10dea:	2200106f          	j	1200a <_vfprintf_r+0x173e>
   10dee:	7706                	ld	a4,96(sp)
   10df0:	04600793          	li	a5,70
   10df4:	00f71463          	bne	a4,a5,10dfc <_vfprintf_r+0x530>
   10df8:	3c40106f          	j	121bc <_vfprintf_r+0x18f0>
   10dfc:	67e6                	ld	a5,88(sp)
   10dfe:	7586                	ld	a1,96(sp)
   10e00:	04100613          	li	a2,65
   10e04:	37fd                	addiw	a5,a5,-1
   10e06:	d5be                	sw	a5,232(sp)
   10e08:	0ffdf713          	andi	a4,s11,255
   10e0c:	4681                	li	a3,0
   10e0e:	00c59663          	bne	a1,a2,10e1a <_vfprintf_r+0x54e>
   10e12:	273d                	addiw	a4,a4,15
   10e14:	0ff77713          	andi	a4,a4,255
   10e18:	4685                	li	a3,1
   10e1a:	0ee10823          	sb	a4,240(sp)
   10e1e:	02b00713          	li	a4,43
   10e22:	0007d763          	bgez	a5,10e30 <_vfprintf_r+0x564>
   10e26:	6766                	ld	a4,88(sp)
   10e28:	4785                	li	a5,1
   10e2a:	9f99                	subw	a5,a5,a4
   10e2c:	02d00713          	li	a4,45
   10e30:	0ee108a3          	sb	a4,241(sp)
   10e34:	4725                	li	a4,9
   10e36:	00f74463          	blt	a4,a5,10e3e <_vfprintf_r+0x572>
   10e3a:	5e00106f          	j	1241a <_vfprintf_r+0x1b4e>
   10e3e:	0ff10513          	addi	a0,sp,255
   10e42:	85aa                	mv	a1,a0
   10e44:	46a9                	li	a3,10
   10e46:	06300e93          	li	t4,99
   10e4a:	02d7e73b          	remw	a4,a5,a3
   10e4e:	862e                	mv	a2,a1
   10e50:	88be                	mv	a7,a5
   10e52:	15fd                	addi	a1,a1,-1
   10e54:	0307071b          	addiw	a4,a4,48
   10e58:	fee60fa3          	sb	a4,-1(a2)
   10e5c:	02d7c7bb          	divw	a5,a5,a3
   10e60:	ff1ec5e3          	blt	t4,a7,10e4a <_vfprintf_r+0x57e>
   10e64:	0307879b          	addiw	a5,a5,48
   10e68:	0ff7f693          	andi	a3,a5,255
   10e6c:	fed58fa3          	sb	a3,-1(a1)
   10e70:	ffe60793          	addi	a5,a2,-2
   10e74:	00a7e463          	bltu	a5,a0,10e7c <_vfprintf_r+0x5b0>
   10e78:	6560106f          	j	124ce <_vfprintf_r+0x1c02>
   10e7c:	0f210713          	addi	a4,sp,242
   10e80:	a019                	j	10e86 <_vfprintf_r+0x5ba>
   10e82:	0007c683          	lbu	a3,0(a5)
   10e86:	00d70023          	sb	a3,0(a4)
   10e8a:	0785                	addi	a5,a5,1
   10e8c:	0705                	addi	a4,a4,1
   10e8e:	fea79ae3          	bne	a5,a0,10e82 <_vfprintf_r+0x5b6>
   10e92:	10110793          	addi	a5,sp,257
   10e96:	0f210713          	addi	a4,sp,242
   10e9a:	8f91                	sub	a5,a5,a2
   10e9c:	97ba                	add	a5,a5,a4
   10e9e:	1998                	addi	a4,sp,240
   10ea0:	9f99                	subw	a5,a5,a4
   10ea2:	e13e                	sd	a5,128(sp)
   10ea4:	678a                	ld	a5,128(sp)
   10ea6:	7682                	ld	a3,32(sp)
   10ea8:	4705                	li	a4,1
   10eaa:	00f68c3b          	addw	s8,a3,a5
   10eae:	87e2                	mv	a5,s8
   10eb0:	00d74463          	blt	a4,a3,10eb8 <_vfprintf_r+0x5ec>
   10eb4:	5a00106f          	j	12454 <_vfprintf_r+0x1b88>
   10eb8:	7746                	ld	a4,112(sp)
   10eba:	00e78c3b          	addw	s8,a5,a4
   10ebe:	67ea                	ld	a5,152(sp)
   10ec0:	fffc4993          	not	s3,s8
   10ec4:	43f9d993          	srai	s3,s3,0x3f
   10ec8:	bff7f493          	andi	s1,a5,-1025
   10ecc:	2481                	sext.w	s1,s1
   10ece:	013c79b3          	and	s3,s8,s3
   10ed2:	1004e493          	ori	s1,s1,256
   10ed6:	2981                	sext.w	s3,s3
   10ed8:	e882                	sd	zero,80(sp)
   10eda:	f082                	sd	zero,96(sp)
   10edc:	ec82                	sd	zero,88(sp)
   10ede:	67ae                	ld	a5,200(sp)
   10ee0:	e399                	bnez	a5,10ee6 <_vfprintf_r+0x61a>
   10ee2:	17e0106f          	j	12060 <_vfprintf_r+0x1794>
   10ee6:	02d00793          	li	a5,45
   10eea:	0cf10fa3          	sb	a5,223(sp)
   10eee:	4e81                	li	t4,0
   10ef0:	2985                	addiw	s3,s3,1
   10ef2:	b669                	j	10a7c <_vfprintf_r+0x1b0>
   10ef4:	0a10                	addi	a2,sp,272
   10ef6:	85d2                	mv	a1,s4
   10ef8:	8556                	mv	a0,s5
   10efa:	fc76                	sd	t4,56(sp)
   10efc:	f87e                	sd	t6,48(sp)
   10efe:	e416                	sd	t0,8(sp)
   10f00:	78b070ef          	jal	ra,18e8a <__sprint_r>
   10f04:	56051463          	bnez	a0,1146c <_vfprintf_r+0xba0>
   10f08:	7792                	ld	a5,288(sp)
   10f0a:	7ee2                	ld	t4,56(sp)
   10f0c:	7fc2                	ld	t6,48(sp)
   10f0e:	62a2                	ld	t0,8(sp)
   10f10:	835e                	mv	t1,s7
   10f12:	be5d                	j	10ac8 <_vfprintf_r+0x1fc>
   10f14:	76e6                	ld	a3,120(sp)
   10f16:	7746                	ld	a4,112(sp)
   10f18:	0341                	addi	t1,t1,16
   10f1a:	fed33823          	sd	a3,-16(t1)
   10f1e:	11812683          	lw	a3,280(sp)
   10f22:	97ba                	add	a5,a5,a4
   10f24:	fee33c23          	sd	a4,-8(t1)
   10f28:	2685                	addiw	a3,a3,1
   10f2a:	0006871b          	sext.w	a4,a3
   10f2e:	10d12c23          	sw	a3,280(sp)
   10f32:	f23e                	sd	a5,288(sp)
   10f34:	469d                	li	a3,7
   10f36:	00e6de63          	bge	a3,a4,10f52 <_vfprintf_r+0x686>
   10f3a:	0a10                	addi	a2,sp,272
   10f3c:	85d2                	mv	a1,s4
   10f3e:	8556                	mv	a0,s5
   10f40:	74b070ef          	jal	ra,18e8a <__sprint_r>
   10f44:	52051463          	bnez	a0,1146c <_vfprintf_r+0xba0>
   10f48:	562e                	lw	a2,232(sp)
   10f4a:	7792                	ld	a5,288(sp)
   10f4c:	11812703          	lw	a4,280(sp)
   10f50:	835e                	mv	t1,s7
   10f52:	00065463          	bgez	a2,10f5a <_vfprintf_r+0x68e>
   10f56:	2a60106f          	j	121fc <_vfprintf_r+0x1930>
   10f5a:	7682                	ld	a3,32(sp)
   10f5c:	2705                	addiw	a4,a4,1
   10f5e:	10e12c23          	sw	a4,280(sp)
   10f62:	97b6                	add	a5,a5,a3
   10f64:	00d33423          	sd	a3,8(t1)
   10f68:	01933023          	sd	s9,0(t1)
   10f6c:	0007069b          	sext.w	a3,a4
   10f70:	f23e                	sd	a5,288(sp)
   10f72:	471d                	li	a4,7
   10f74:	bad75be3          	bge	a4,a3,10b2a <_vfprintf_r+0x25e>
   10f78:	0a10                	addi	a2,sp,272
   10f7a:	85d2                	mv	a1,s4
   10f7c:	8556                	mv	a0,s5
   10f7e:	70d070ef          	jal	ra,18e8a <__sprint_r>
   10f82:	4e051563          	bnez	a0,1146c <_vfprintf_r+0xba0>
   10f86:	7792                	ld	a5,288(sp)
   10f88:	835e                	mv	t1,s7
   10f8a:	b64d                	j	10b2c <_vfprintf_r+0x260>
   10f8c:	0104f793          	andi	a5,s1,16
   10f90:	0e0799e3          	bnez	a5,11882 <_vfprintf_r+0xfb6>
   10f94:	66c2                	ld	a3,16(sp)
   10f96:	0404f793          	andi	a5,s1,64
   10f9a:	0006a983          	lw	s3,0(a3)
   10f9e:	44078ae3          	beqz	a5,11bf2 <_vfprintf_r+0x1326>
   10fa2:	19c2                	slli	s3,s3,0x30
   10fa4:	0309d993          	srli	s3,s3,0x30
   10fa8:	b1d1                	j	10c6c <_vfprintf_r+0x3a0>
   10faa:	0104f793          	andi	a5,s1,16
   10fae:	0c0795e3          	bnez	a5,11878 <_vfprintf_r+0xfac>
   10fb2:	0404f793          	andi	a5,s1,64
   10fb6:	40078de3          	beqz	a5,11bd0 <_vfprintf_r+0x1304>
   10fba:	67c2                	ld	a5,16(sp)
   10fbc:	00079983          	lh	s3,0(a5)
   10fc0:	87ce                	mv	a5,s3
   10fc2:	c407d8e3          	bgez	a5,10c12 <_vfprintf_r+0x346>
   10fc6:	02d00793          	li	a5,45
   10fca:	0cf10fa3          	sb	a5,223(sp)
   10fce:	e83a                	sd	a4,16(sp)
   10fd0:	577d                	li	a4,-1
   10fd2:	413009b3          	neg	s3,s3
   10fd6:	8826                	mv	a6,s1
   10fd8:	4785                	li	a5,1
   10fda:	caee94e3          	bne	t4,a4,10c82 <_vfprintf_r+0x3b6>
   10fde:	4705                	li	a4,1
   10fe0:	56e78463          	beq	a5,a4,11548 <_vfprintf_r+0xc7c>
   10fe4:	4709                	li	a4,2
   10fe6:	28e78263          	beq	a5,a4,1126a <_vfprintf_r+0x99e>
   10fea:	18c10c13          	addi	s8,sp,396
   10fee:	8ce2                	mv	s9,s8
   10ff0:	0079f793          	andi	a5,s3,7
   10ff4:	03078793          	addi	a5,a5,48
   10ff8:	fefc8fa3          	sb	a5,-1(s9)
   10ffc:	0039d993          	srli	s3,s3,0x3
   11000:	8766                	mv	a4,s9
   11002:	1cfd                	addi	s9,s9,-1
   11004:	fe0996e3          	bnez	s3,10ff0 <_vfprintf_r+0x724>
   11008:	00187693          	andi	a3,a6,1
   1100c:	26068f63          	beqz	a3,1128a <_vfprintf_r+0x9be>
   11010:	03000693          	li	a3,48
   11014:	26d78b63          	beq	a5,a3,1128a <_vfprintf_r+0x9be>
   11018:	1779                	addi	a4,a4,-2
   1101a:	fedc8fa3          	sb	a3,-1(s9)
   1101e:	40ec0c3b          	subw	s8,s8,a4
   11022:	84c2                	mv	s1,a6
   11024:	8cba                	mv	s9,a4
   11026:	b139                	j	10c34 <_vfprintf_r+0x368>
   11028:	8556                	mv	a0,s5
   1102a:	33f010ef          	jal	ra,12b68 <__sinit>
   1102e:	b8fd                	j	1092c <_vfprintf_r+0x60>
   11030:	67c2                	ld	a5,16(sp)
   11032:	0c010fa3          	sb	zero,223(sp)
   11036:	0007bc83          	ld	s9,0(a5)
   1103a:	00878693          	addi	a3,a5,8
   1103e:	1c0c85e3          	beqz	s9,11a08 <_vfprintf_r+0x113c>
   11042:	57fd                	li	a5,-1
   11044:	34fe82e3          	beq	t4,a5,11b88 <_vfprintf_r+0x12bc>
   11048:	8676                	mv	a2,t4
   1104a:	4581                	li	a1,0
   1104c:	8566                	mv	a0,s9
   1104e:	f836                	sd	a3,48(sp)
   11050:	e81a                	sd	t1,16(sp)
   11052:	e476                	sd	t4,8(sp)
   11054:	3ab040ef          	jal	ra,15bfe <memchr>
   11058:	ec2a                	sd	a0,24(sp)
   1105a:	6ea2                	ld	t4,8(sp)
   1105c:	6342                	ld	t1,16(sp)
   1105e:	76c2                	ld	a3,48(sp)
   11060:	e119                	bnez	a0,11066 <_vfprintf_r+0x79a>
   11062:	1120106f          	j	12174 <_vfprintf_r+0x18a8>
   11066:	67e2                	ld	a5,24(sp)
   11068:	e836                	sd	a3,16(sp)
   1106a:	ec02                	sd	zero,24(sp)
   1106c:	41978c3b          	subw	s8,a5,s9
   11070:	fffc4993          	not	s3,s8
   11074:	0df14783          	lbu	a5,223(sp)
   11078:	43f9d993          	srai	s3,s3,0x3f
   1107c:	013c79b3          	and	s3,s8,s3
   11080:	e882                	sd	zero,80(sp)
   11082:	f082                	sd	zero,96(sp)
   11084:	ec82                	sd	zero,88(sp)
   11086:	2981                	sext.w	s3,s3
   11088:	4e81                	li	t4,0
   1108a:	bc0793e3          	bnez	a5,10c50 <_vfprintf_r+0x384>
   1108e:	b2fd                	j	10a7c <_vfprintf_r+0x1b0>
   11090:	6742                	ld	a4,16(sp)
   11092:	0c010fa3          	sb	zero,223(sp)
   11096:	4985                	li	s3,1
   11098:	431c                	lw	a5,0(a4)
   1109a:	0721                	addi	a4,a4,8
   1109c:	e83a                	sd	a4,16(sp)
   1109e:	12f10423          	sb	a5,296(sp)
   110a2:	4c05                	li	s8,1
   110a4:	12810c93          	addi	s9,sp,296
   110a8:	b2e9                	j	10a72 <_vfprintf_r+0x1a6>
   110aa:	00044f03          	lbu	t5,0(s0)
   110ae:	0044e493          	ori	s1,s1,4
   110b2:	2481                	sext.w	s1,s1
   110b4:	b2b1                	j	10a00 <_vfprintf_r+0x134>
   110b6:	02b00793          	li	a5,43
   110ba:	00044f03          	lbu	t5,0(s0)
   110be:	0cf10fa3          	sb	a5,223(sp)
   110c2:	ba3d                	j	10a00 <_vfprintf_r+0x134>
   110c4:	0804e493          	ori	s1,s1,128
   110c8:	00044f03          	lbu	t5,0(s0)
   110cc:	2481                	sext.w	s1,s1
   110ce:	ba0d                	j	10a00 <_vfprintf_r+0x134>
   110d0:	00044703          	lbu	a4,0(s0)
   110d4:	00140793          	addi	a5,s0,1
   110d8:	00070d9b          	sext.w	s11,a4
   110dc:	00ec1463          	bne	s8,a4,110e4 <_vfprintf_r+0x818>
   110e0:	3d20106f          	j	124b2 <_vfprintf_r+0x1be6>
   110e4:	fd07071b          	addiw	a4,a4,-48
   110e8:	843e                	mv	s0,a5
   110ea:	4e81                	li	t4,0
   110ec:	90e9efe3          	bltu	s3,a4,10a0a <_vfprintf_r+0x13e>
   110f0:	00044d83          	lbu	s11,0(s0)
   110f4:	002e979b          	slliw	a5,t4,0x2
   110f8:	01d78ebb          	addw	t4,a5,t4
   110fc:	001e9e9b          	slliw	t4,t4,0x1
   11100:	00ee8ebb          	addw	t4,t4,a4
   11104:	fd0d871b          	addiw	a4,s11,-48
   11108:	0405                	addi	s0,s0,1
   1110a:	fee9f3e3          	bgeu	s3,a4,110f0 <_vfprintf_r+0x824>
   1110e:	b8f5                	j	10a0a <_vfprintf_r+0x13e>
   11110:	67c2                	ld	a5,16(sp)
   11112:	00044f03          	lbu	t5,0(s0)
   11116:	0007ab03          	lw	s6,0(a5)
   1111a:	07a1                	addi	a5,a5,8
   1111c:	e83e                	sd	a5,16(sp)
   1111e:	8e0b51e3          	bgez	s6,10a00 <_vfprintf_r+0x134>
   11122:	41600b3b          	negw	s6,s6
   11126:	b761                	j	110ae <_vfprintf_r+0x7e2>
   11128:	8556                	mv	a0,s5
   1112a:	ec1a                	sd	t1,24(sp)
   1112c:	e476                	sd	t4,8(sp)
   1112e:	2a2040ef          	jal	ra,153d0 <_localeconv_r>
   11132:	651c                	ld	a5,8(a0)
   11134:	853e                	mv	a0,a5
   11136:	e93e                	sd	a5,144(sp)
   11138:	f00ff0ef          	jal	ra,10838 <strlen>
   1113c:	87aa                	mv	a5,a0
   1113e:	8556                	mv	a0,s5
   11140:	8dbe                	mv	s11,a5
   11142:	e53e                	sd	a5,136(sp)
   11144:	28c040ef          	jal	ra,153d0 <_localeconv_r>
   11148:	6918                	ld	a4,16(a0)
   1114a:	6ea2                	ld	t4,8(sp)
   1114c:	6362                	ld	t1,24(sp)
   1114e:	f4ba                	sd	a4,104(sp)
   11150:	00044f03          	lbu	t5,0(s0)
   11154:	8a0d86e3          	beqz	s11,10a00 <_vfprintf_r+0x134>
   11158:	8a0704e3          	beqz	a4,10a00 <_vfprintf_r+0x134>
   1115c:	00074783          	lbu	a5,0(a4)
   11160:	8a0780e3          	beqz	a5,10a00 <_vfprintf_r+0x134>
   11164:	4004e493          	ori	s1,s1,1024
   11168:	2481                	sext.w	s1,s1
   1116a:	b859                	j	10a00 <_vfprintf_r+0x134>
   1116c:	0014e493          	ori	s1,s1,1
   11170:	00044f03          	lbu	t5,0(s0)
   11174:	2481                	sext.w	s1,s1
   11176:	b069                	j	10a00 <_vfprintf_r+0x134>
   11178:	0df14783          	lbu	a5,223(sp)
   1117c:	00044f03          	lbu	t5,0(s0)
   11180:	880790e3          	bnez	a5,10a00 <_vfprintf_r+0x134>
   11184:	02000793          	li	a5,32
   11188:	0cf10fa3          	sb	a5,223(sp)
   1118c:	b895                	j	10a00 <_vfprintf_r+0x134>
   1118e:	0084e493          	ori	s1,s1,8
   11192:	00044f03          	lbu	t5,0(s0)
   11196:	2481                	sext.w	s1,s1
   11198:	b0a5                	j	10a00 <_vfprintf_r+0x134>
   1119a:	0104e493          	ori	s1,s1,16
   1119e:	0004881b          	sext.w	a6,s1
   111a2:	66c2                	ld	a3,16(sp)
   111a4:	02087793          	andi	a5,a6,32
   111a8:	00868713          	addi	a4,a3,8
   111ac:	68078463          	beqz	a5,11834 <_vfprintf_r+0xf68>
   111b0:	0006b983          	ld	s3,0(a3)
   111b4:	4785                	li	a5,1
   111b6:	e83a                	sd	a4,16(sp)
   111b8:	b4c1                	j	10c78 <_vfprintf_r+0x3ac>
   111ba:	0204e493          	ori	s1,s1,32
   111be:	00044f03          	lbu	t5,0(s0)
   111c2:	2481                	sext.w	s1,s1
   111c4:	83dff06f          	j	10a00 <_vfprintf_r+0x134>
   111c8:	6742                	ld	a4,16(sp)
   111ca:	77e1                	lui	a5,0xffff8
   111cc:	8307c793          	xori	a5,a5,-2000
   111d0:	0ef11023          	sh	a5,224(sp)
   111d4:	00870793          	addi	a5,a4,8
   111d8:	0024e493          	ori	s1,s1,2
   111dc:	e83e                	sd	a5,16(sp)
   111de:	0000b797          	auipc	a5,0xb
   111e2:	4c278793          	addi	a5,a5,1218 # 1c6a0 <__clzdi2+0x1c8>
   111e6:	f43e                	sd	a5,40(sp)
   111e8:	00073983          	ld	s3,0(a4)
   111ec:	0004881b          	sext.w	a6,s1
   111f0:	4789                	li	a5,2
   111f2:	07800d93          	li	s11,120
   111f6:	b449                	j	10c78 <_vfprintf_r+0x3ac>
   111f8:	66c2                	ld	a3,16(sp)
   111fa:	0204f793          	andi	a5,s1,32
   111fe:	6298                	ld	a4,0(a3)
   11200:	06a1                	addi	a3,a3,8
   11202:	e836                	sd	a3,16(sp)
   11204:	64079e63          	bnez	a5,11860 <_vfprintf_r+0xf94>
   11208:	0104f793          	andi	a5,s1,16
   1120c:	64079a63          	bnez	a5,11860 <_vfprintf_r+0xf94>
   11210:	0404f793          	andi	a5,s1,64
   11214:	3e0799e3          	bnez	a5,11e06 <_vfprintf_r+0x153a>
   11218:	2004f493          	andi	s1,s1,512
   1121c:	6782                	ld	a5,0(sp)
   1121e:	e099                	bnez	s1,11224 <_vfprintf_r+0x958>
   11220:	1280106f          	j	12348 <_vfprintf_r+0x1a7c>
   11224:	00f70023          	sb	a5,0(a4)
   11228:	8ca2                	mv	s9,s0
   1122a:	ba15                	j	10b5e <_vfprintf_r+0x292>
   1122c:	00044f03          	lbu	t5,0(s0)
   11230:	06c00793          	li	a5,108
   11234:	7aff0263          	beq	t5,a5,119d8 <_vfprintf_r+0x110c>
   11238:	0104e493          	ori	s1,s1,16
   1123c:	2481                	sext.w	s1,s1
   1123e:	fc2ff06f          	j	10a00 <_vfprintf_r+0x134>
   11242:	00044f03          	lbu	t5,0(s0)
   11246:	06800793          	li	a5,104
   1124a:	76ff0f63          	beq	t5,a5,119c8 <_vfprintf_r+0x10fc>
   1124e:	0404e493          	ori	s1,s1,64
   11252:	2481                	sext.w	s1,s1
   11254:	facff06f          	j	10a00 <_vfprintf_r+0x134>
   11258:	4705                	li	a4,1
   1125a:	00e79463          	bne	a5,a4,11262 <_vfprintf_r+0x996>
   1125e:	0220106f          	j	12280 <_vfprintf_r+0x19b4>
   11262:	4709                	li	a4,2
   11264:	8826                	mv	a6,s1
   11266:	d8e792e3          	bne	a5,a4,10fea <_vfprintf_r+0x71e>
   1126a:	18c10c13          	addi	s8,sp,396
   1126e:	8ce2                	mv	s9,s8
   11270:	7722                	ld	a4,40(sp)
   11272:	00f9f793          	andi	a5,s3,15
   11276:	1cfd                	addi	s9,s9,-1
   11278:	97ba                	add	a5,a5,a4
   1127a:	0007c783          	lbu	a5,0(a5)
   1127e:	0049d993          	srli	s3,s3,0x4
   11282:	00fc8023          	sb	a5,0(s9)
   11286:	fe0995e3          	bnez	s3,11270 <_vfprintf_r+0x9a4>
   1128a:	419c0c3b          	subw	s8,s8,s9
   1128e:	84c2                	mv	s1,a6
   11290:	b255                	j	10c34 <_vfprintf_r+0x368>
   11292:	06500713          	li	a4,101
   11296:	1fb75463          	bge	a4,s11,1147e <_vfprintf_r+0xbb2>
   1129a:	6512                	ld	a0,256(sp)
   1129c:	65b2                	ld	a1,264(sp)
   1129e:	4601                	li	a2,0
   112a0:	4681                	li	a3,0
   112a2:	f83e                	sd	a5,48(sp)
   112a4:	e41a                	sd	t1,8(sp)
   112a6:	65d090ef          	jal	ra,1b102 <__eqtf2>
   112aa:	6322                	ld	t1,8(sp)
   112ac:	77c2                	ld	a5,48(sp)
   112ae:	3e051b63          	bnez	a0,116a4 <_vfprintf_r+0xdd8>
   112b2:	11812703          	lw	a4,280(sp)
   112b6:	0000b697          	auipc	a3,0xb
   112ba:	40a68693          	addi	a3,a3,1034 # 1c6c0 <__clzdi2+0x1e8>
   112be:	00d33023          	sd	a3,0(t1)
   112c2:	2705                	addiw	a4,a4,1
   112c4:	4685                	li	a3,1
   112c6:	0785                	addi	a5,a5,1
   112c8:	00d33423          	sd	a3,8(t1)
   112cc:	10e12c23          	sw	a4,280(sp)
   112d0:	0007069b          	sext.w	a3,a4
   112d4:	f23e                	sd	a5,288(sp)
   112d6:	471d                	li	a4,7
   112d8:	0341                	addi	t1,t1,16
   112da:	04d742e3          	blt	a4,a3,11b1e <_vfprintf_r+0x1252>
   112de:	572e                	lw	a4,232(sp)
   112e0:	7682                	ld	a3,32(sp)
   112e2:	56d75a63          	bge	a4,a3,11856 <_vfprintf_r+0xf8a>
   112e6:	7766                	ld	a4,120(sp)
   112e8:	76c6                	ld	a3,112(sp)
   112ea:	0341                	addi	t1,t1,16
   112ec:	fee33823          	sd	a4,-16(t1)
   112f0:	11812703          	lw	a4,280(sp)
   112f4:	97b6                	add	a5,a5,a3
   112f6:	fed33c23          	sd	a3,-8(t1)
   112fa:	2705                	addiw	a4,a4,1
   112fc:	0007069b          	sext.w	a3,a4
   11300:	10e12c23          	sw	a4,280(sp)
   11304:	f23e                	sd	a5,288(sp)
   11306:	471d                	li	a4,7
   11308:	6ed74063          	blt	a4,a3,119e8 <_vfprintf_r+0x111c>
   1130c:	7702                	ld	a4,32(sp)
   1130e:	fff70c1b          	addiw	s8,a4,-1
   11312:	81805de3          	blez	s8,10b2c <_vfprintf_r+0x260>
   11316:	11812703          	lw	a4,280(sp)
   1131a:	018d5de3          	bge	s10,s8,11b34 <_vfprintf_r+0x1268>
   1131e:	4c9d                	li	s9,7
   11320:	a021                	j	11328 <_vfprintf_r+0xa5c>
   11322:	3c41                	addiw	s8,s8,-16
   11324:	018d58e3          	bge	s10,s8,11b34 <_vfprintf_r+0x1268>
   11328:	2705                	addiw	a4,a4,1
   1132a:	07c1                	addi	a5,a5,16
   1132c:	01233023          	sd	s2,0(t1)
   11330:	01a33423          	sd	s10,8(t1)
   11334:	f23e                	sd	a5,288(sp)
   11336:	10e12c23          	sw	a4,280(sp)
   1133a:	0341                	addi	t1,t1,16
   1133c:	feecd3e3          	bge	s9,a4,11322 <_vfprintf_r+0xa56>
   11340:	0a10                	addi	a2,sp,272
   11342:	85d2                	mv	a1,s4
   11344:	8556                	mv	a0,s5
   11346:	345070ef          	jal	ra,18e8a <__sprint_r>
   1134a:	12051163          	bnez	a0,1146c <_vfprintf_r+0xba0>
   1134e:	7792                	ld	a5,288(sp)
   11350:	11812703          	lw	a4,280(sp)
   11354:	835e                	mv	t1,s7
   11356:	b7f1                	j	11322 <_vfprintf_r+0xa56>
   11358:	413b06bb          	subw	a3,s6,s3
   1135c:	f8d05f63          	blez	a3,10afa <_vfprintf_r+0x22e>
   11360:	11812703          	lw	a4,280(sp)
   11364:	04dd5563          	bge	s10,a3,113ae <_vfprintf_r+0xae2>
   11368:	489d                	li	a7,7
   1136a:	a021                	j	11372 <_vfprintf_r+0xaa6>
   1136c:	36c1                	addiw	a3,a3,-16
   1136e:	04dd5063          	bge	s10,a3,113ae <_vfprintf_r+0xae2>
   11372:	2705                	addiw	a4,a4,1
   11374:	07c1                	addi	a5,a5,16
   11376:	01233023          	sd	s2,0(t1)
   1137a:	01a33423          	sd	s10,8(t1)
   1137e:	f23e                	sd	a5,288(sp)
   11380:	10e12c23          	sw	a4,280(sp)
   11384:	0341                	addi	t1,t1,16
   11386:	fee8d3e3          	bge	a7,a4,1136c <_vfprintf_r+0xaa0>
   1138a:	0a10                	addi	a2,sp,272
   1138c:	85d2                	mv	a1,s4
   1138e:	8556                	mv	a0,s5
   11390:	f836                	sd	a3,48(sp)
   11392:	e476                	sd	t4,8(sp)
   11394:	2f7070ef          	jal	ra,18e8a <__sprint_r>
   11398:	e971                	bnez	a0,1146c <_vfprintf_r+0xba0>
   1139a:	76c2                	ld	a3,48(sp)
   1139c:	7792                	ld	a5,288(sp)
   1139e:	11812703          	lw	a4,280(sp)
   113a2:	36c1                	addiw	a3,a3,-16
   113a4:	6ea2                	ld	t4,8(sp)
   113a6:	835e                	mv	t1,s7
   113a8:	489d                	li	a7,7
   113aa:	fcdd44e3          	blt	s10,a3,11372 <_vfprintf_r+0xaa6>
   113ae:	2705                	addiw	a4,a4,1
   113b0:	97b6                	add	a5,a5,a3
   113b2:	00d33423          	sd	a3,8(t1)
   113b6:	01233023          	sd	s2,0(t1)
   113ba:	0007069b          	sext.w	a3,a4
   113be:	10e12c23          	sw	a4,280(sp)
   113c2:	f23e                	sd	a5,288(sp)
   113c4:	471d                	li	a4,7
   113c6:	0341                	addi	t1,t1,16
   113c8:	f2d75963          	bge	a4,a3,10afa <_vfprintf_r+0x22e>
   113cc:	0a10                	addi	a2,sp,272
   113ce:	85d2                	mv	a1,s4
   113d0:	8556                	mv	a0,s5
   113d2:	e476                	sd	t4,8(sp)
   113d4:	2b7070ef          	jal	ra,18e8a <__sprint_r>
   113d8:	e951                	bnez	a0,1146c <_vfprintf_r+0xba0>
   113da:	7792                	ld	a5,288(sp)
   113dc:	6ea2                	ld	t4,8(sp)
   113de:	835e                	mv	t1,s7
   113e0:	f1aff06f          	j	10afa <_vfprintf_r+0x22e>
   113e4:	11812703          	lw	a4,280(sp)
   113e8:	05dd5363          	bge	s10,t4,1142e <_vfprintf_r+0xb62>
   113ec:	489d                	li	a7,7
   113ee:	a021                	j	113f6 <_vfprintf_r+0xb2a>
   113f0:	3ec1                	addiw	t4,t4,-16
   113f2:	03dd5e63          	bge	s10,t4,1142e <_vfprintf_r+0xb62>
   113f6:	2705                	addiw	a4,a4,1
   113f8:	07c1                	addi	a5,a5,16
   113fa:	01233023          	sd	s2,0(t1)
   113fe:	01a33423          	sd	s10,8(t1)
   11402:	f23e                	sd	a5,288(sp)
   11404:	10e12c23          	sw	a4,280(sp)
   11408:	0341                	addi	t1,t1,16
   1140a:	fee8d3e3          	bge	a7,a4,113f0 <_vfprintf_r+0xb24>
   1140e:	0a10                	addi	a2,sp,272
   11410:	85d2                	mv	a1,s4
   11412:	8556                	mv	a0,s5
   11414:	e476                	sd	t4,8(sp)
   11416:	275070ef          	jal	ra,18e8a <__sprint_r>
   1141a:	e929                	bnez	a0,1146c <_vfprintf_r+0xba0>
   1141c:	6ea2                	ld	t4,8(sp)
   1141e:	7792                	ld	a5,288(sp)
   11420:	11812703          	lw	a4,280(sp)
   11424:	3ec1                	addiw	t4,t4,-16
   11426:	835e                	mv	t1,s7
   11428:	489d                	li	a7,7
   1142a:	fddd46e3          	blt	s10,t4,113f6 <_vfprintf_r+0xb2a>
   1142e:	0017069b          	addiw	a3,a4,1
   11432:	97f6                	add	a5,a5,t4
   11434:	01233023          	sd	s2,0(t1)
   11438:	01d33423          	sd	t4,8(t1)
   1143c:	f23e                	sd	a5,288(sp)
   1143e:	10d12c23          	sw	a3,280(sp)
   11442:	471d                	li	a4,7
   11444:	0341                	addi	t1,t1,16
   11446:	ead75e63          	bge	a4,a3,10b02 <_vfprintf_r+0x236>
   1144a:	0a10                	addi	a2,sp,272
   1144c:	85d2                	mv	a1,s4
   1144e:	8556                	mv	a0,s5
   11450:	23b070ef          	jal	ra,18e8a <__sprint_r>
   11454:	ed01                	bnez	a0,1146c <_vfprintf_r+0xba0>
   11456:	7792                	ld	a5,288(sp)
   11458:	835e                	mv	t1,s7
   1145a:	ea8ff06f          	j	10b02 <_vfprintf_r+0x236>
   1145e:	0a10                	addi	a2,sp,272
   11460:	85d2                	mv	a1,s4
   11462:	8556                	mv	a0,s5
   11464:	227070ef          	jal	ra,18e8a <__sprint_r>
   11468:	ee050163          	beqz	a0,10b4a <_vfprintf_r+0x27e>
   1146c:	67e2                	ld	a5,24(sp)
   1146e:	f0078063          	beqz	a5,10b6e <_vfprintf_r+0x2a2>
   11472:	85be                	mv	a1,a5
   11474:	8556                	mv	a0,s5
   11476:	025010ef          	jal	ra,12c9a <_free_r>
   1147a:	ef4ff06f          	j	10b6e <_vfprintf_r+0x2a2>
   1147e:	11812603          	lw	a2,280(sp)
   11482:	00178d93          	addi	s11,a5,1
   11486:	7782                	ld	a5,32(sp)
   11488:	0016071b          	addiw	a4,a2,1
   1148c:	4585                	li	a1,1
   1148e:	01933023          	sd	s9,0(t1)
   11492:	86ba                	mv	a3,a4
   11494:	01030c13          	addi	s8,t1,16
   11498:	32f5d863          	bge	a1,a5,117c8 <_vfprintf_r+0xefc>
   1149c:	4605                	li	a2,1
   1149e:	10d12c23          	sw	a3,280(sp)
   114a2:	00c33423          	sd	a2,8(t1)
   114a6:	f26e                	sd	s11,288(sp)
   114a8:	469d                	li	a3,7
   114aa:	5ce6c463          	blt	a3,a4,11a72 <_vfprintf_r+0x11a6>
   114ae:	77c6                	ld	a5,112(sp)
   114b0:	0017069b          	addiw	a3,a4,1
   114b4:	7766                	ld	a4,120(sp)
   114b6:	9dbe                	add	s11,s11,a5
   114b8:	00fc3423          	sd	a5,8(s8)
   114bc:	00ec3023          	sd	a4,0(s8)
   114c0:	10d12c23          	sw	a3,280(sp)
   114c4:	0006871b          	sext.w	a4,a3
   114c8:	f26e                	sd	s11,288(sp)
   114ca:	469d                	li	a3,7
   114cc:	0c41                	addi	s8,s8,16
   114ce:	5ae6ce63          	blt	a3,a4,11a8a <_vfprintf_r+0x11be>
   114d2:	6512                	ld	a0,256(sp)
   114d4:	65b2                	ld	a1,264(sp)
   114d6:	0017089b          	addiw	a7,a4,1
   114da:	4601                	li	a2,0
   114dc:	4681                	li	a3,0
   114de:	e446                	sd	a7,8(sp)
   114e0:	f83a                	sd	a4,48(sp)
   114e2:	421090ef          	jal	ra,1b102 <__eqtf2>
   114e6:	68a2                	ld	a7,8(sp)
   114e8:	7782                	ld	a5,32(sp)
   114ea:	010c0313          	addi	t1,s8,16
   114ee:	0008861b          	sext.w	a2,a7
   114f2:	fff7869b          	addiw	a3,a5,-1
   114f6:	2e050963          	beqz	a0,117e8 <_vfprintf_r+0xf1c>
   114fa:	9db6                	add	s11,s11,a3
   114fc:	001c8813          	addi	a6,s9,1
   11500:	00dc3423          	sd	a3,8(s8)
   11504:	010c3023          	sd	a6,0(s8)
   11508:	f26e                	sd	s11,288(sp)
   1150a:	11112c23          	sw	a7,280(sp)
   1150e:	469d                	li	a3,7
   11510:	44c6c763          	blt	a3,a2,1195e <_vfprintf_r+0x1092>
   11514:	7742                	ld	a4,48(sp)
   11516:	020c0693          	addi	a3,s8,32
   1151a:	8c1a                	mv	s8,t1
   1151c:	0027061b          	addiw	a2,a4,2
   11520:	8336                	mv	t1,a3
   11522:	668a                	ld	a3,128(sp)
   11524:	1998                	addi	a4,sp,240
   11526:	00ec3023          	sd	a4,0(s8)
   1152a:	00dd87b3          	add	a5,s11,a3
   1152e:	00dc3423          	sd	a3,8(s8)
   11532:	f23e                	sd	a5,288(sp)
   11534:	10c12c23          	sw	a2,280(sp)
   11538:	471d                	li	a4,7
   1153a:	dec75963          	bge	a4,a2,10b2c <_vfprintf_r+0x260>
   1153e:	bc2d                	j	10f78 <_vfprintf_r+0x6ac>
   11540:	4705                	li	a4,1
   11542:	8826                	mv	a6,s1
   11544:	aae790e3          	bne	a5,a4,10fe4 <_vfprintf_r+0x718>
   11548:	47a5                	li	a5,9
   1154a:	3737e163          	bltu	a5,s3,118ac <_vfprintf_r+0xfe0>
   1154e:	0309899b          	addiw	s3,s3,48
   11552:	193105a3          	sb	s3,395(sp)
   11556:	84c2                	mv	s1,a6
   11558:	4c05                	li	s8,1
   1155a:	18b10c93          	addi	s9,sp,395
   1155e:	ed6ff06f          	j	10c34 <_vfprintf_r+0x368>
   11562:	11812703          	lw	a4,280(sp)
   11566:	0000b897          	auipc	a7,0xb
   1156a:	2d288893          	addi	a7,a7,722 # 1c838 <blanks.4520>
   1156e:	439d                	li	t2,7
   11570:	00dd4663          	blt	s10,a3,1157c <_vfprintf_r+0xcb0>
   11574:	a889                	j	115c6 <_vfprintf_r+0xcfa>
   11576:	36c1                	addiw	a3,a3,-16
   11578:	04dd5763          	bge	s10,a3,115c6 <_vfprintf_r+0xcfa>
   1157c:	2705                	addiw	a4,a4,1
   1157e:	07c1                	addi	a5,a5,16
   11580:	01133023          	sd	a7,0(t1)
   11584:	01a33423          	sd	s10,8(t1)
   11588:	f23e                	sd	a5,288(sp)
   1158a:	10e12c23          	sw	a4,280(sp)
   1158e:	0341                	addi	t1,t1,16
   11590:	fee3d3e3          	bge	t2,a4,11576 <_vfprintf_r+0xcaa>
   11594:	0a10                	addi	a2,sp,272
   11596:	85d2                	mv	a1,s4
   11598:	8556                	mv	a0,s5
   1159a:	e4c6                	sd	a7,72(sp)
   1159c:	e0f6                	sd	t4,64(sp)
   1159e:	fc7e                	sd	t6,56(sp)
   115a0:	f816                	sd	t0,48(sp)
   115a2:	e436                	sd	a3,8(sp)
   115a4:	0e7070ef          	jal	ra,18e8a <__sprint_r>
   115a8:	ec0512e3          	bnez	a0,1146c <_vfprintf_r+0xba0>
   115ac:	66a2                	ld	a3,8(sp)
   115ae:	7792                	ld	a5,288(sp)
   115b0:	11812703          	lw	a4,280(sp)
   115b4:	36c1                	addiw	a3,a3,-16
   115b6:	68a6                	ld	a7,72(sp)
   115b8:	6e86                	ld	t4,64(sp)
   115ba:	7fe2                	ld	t6,56(sp)
   115bc:	72c2                	ld	t0,48(sp)
   115be:	835e                	mv	t1,s7
   115c0:	439d                	li	t2,7
   115c2:	fadd4de3          	blt	s10,a3,1157c <_vfprintf_r+0xcb0>
   115c6:	2705                	addiw	a4,a4,1
   115c8:	97b6                	add	a5,a5,a3
   115ca:	00d33423          	sd	a3,8(t1)
   115ce:	01133023          	sd	a7,0(t1)
   115d2:	0007069b          	sext.w	a3,a4
   115d6:	10e12c23          	sw	a4,280(sp)
   115da:	f23e                	sd	a5,288(sp)
   115dc:	471d                	li	a4,7
   115de:	0341                	addi	t1,t1,16
   115e0:	cad75d63          	bge	a4,a3,10a9a <_vfprintf_r+0x1ce>
   115e4:	0a10                	addi	a2,sp,272
   115e6:	85d2                	mv	a1,s4
   115e8:	8556                	mv	a0,s5
   115ea:	fc76                	sd	t4,56(sp)
   115ec:	f87e                	sd	t6,48(sp)
   115ee:	e416                	sd	t0,8(sp)
   115f0:	09b070ef          	jal	ra,18e8a <__sprint_r>
   115f4:	e6051ce3          	bnez	a0,1146c <_vfprintf_r+0xba0>
   115f8:	7792                	ld	a5,288(sp)
   115fa:	7ee2                	ld	t4,56(sp)
   115fc:	7fc2                	ld	t6,48(sp)
   115fe:	62a2                	ld	t0,8(sp)
   11600:	835e                	mv	t1,s7
   11602:	c98ff06f          	j	10a9a <_vfprintf_r+0x1ce>
   11606:	0a10                	addi	a2,sp,272
   11608:	85d2                	mv	a1,s4
   1160a:	8556                	mv	a0,s5
   1160c:	f876                	sd	t4,48(sp)
   1160e:	e47e                	sd	t6,8(sp)
   11610:	07b070ef          	jal	ra,18e8a <__sprint_r>
   11614:	e4051ce3          	bnez	a0,1146c <_vfprintf_r+0xba0>
   11618:	7792                	ld	a5,288(sp)
   1161a:	7ec2                	ld	t4,48(sp)
   1161c:	6fa2                	ld	t6,8(sp)
   1161e:	835e                	mv	t1,s7
   11620:	cd2ff06f          	j	10af2 <_vfprintf_r+0x226>
   11624:	11812703          	lw	a4,280(sp)
   11628:	0000b897          	auipc	a7,0xb
   1162c:	21088893          	addi	a7,a7,528 # 1c838 <blanks.4520>
   11630:	4c1d                	li	s8,7
   11632:	009d4663          	blt	s10,s1,1163e <_vfprintf_r+0xd72>
   11636:	a081                	j	11676 <_vfprintf_r+0xdaa>
   11638:	34c1                	addiw	s1,s1,-16
   1163a:	029d5e63          	bge	s10,s1,11676 <_vfprintf_r+0xdaa>
   1163e:	2705                	addiw	a4,a4,1
   11640:	07c1                	addi	a5,a5,16
   11642:	01133023          	sd	a7,0(t1)
   11646:	01a33423          	sd	s10,8(t1)
   1164a:	f23e                	sd	a5,288(sp)
   1164c:	10e12c23          	sw	a4,280(sp)
   11650:	0341                	addi	t1,t1,16
   11652:	feec53e3          	bge	s8,a4,11638 <_vfprintf_r+0xd6c>
   11656:	0a10                	addi	a2,sp,272
   11658:	85d2                	mv	a1,s4
   1165a:	8556                	mv	a0,s5
   1165c:	e446                	sd	a7,8(sp)
   1165e:	02d070ef          	jal	ra,18e8a <__sprint_r>
   11662:	e00515e3          	bnez	a0,1146c <_vfprintf_r+0xba0>
   11666:	34c1                	addiw	s1,s1,-16
   11668:	7792                	ld	a5,288(sp)
   1166a:	11812703          	lw	a4,280(sp)
   1166e:	68a2                	ld	a7,8(sp)
   11670:	835e                	mv	t1,s7
   11672:	fc9d46e3          	blt	s10,s1,1163e <_vfprintf_r+0xd72>
   11676:	0017069b          	addiw	a3,a4,1
   1167a:	97a6                	add	a5,a5,s1
   1167c:	01133023          	sd	a7,0(t1)
   11680:	00933423          	sd	s1,8(t1)
   11684:	f23e                	sd	a5,288(sp)
   11686:	10d12c23          	sw	a3,280(sp)
   1168a:	471d                	li	a4,7
   1168c:	cad75663          	bge	a4,a3,10b38 <_vfprintf_r+0x26c>
   11690:	0a10                	addi	a2,sp,272
   11692:	85d2                	mv	a1,s4
   11694:	8556                	mv	a0,s5
   11696:	7f4070ef          	jal	ra,18e8a <__sprint_r>
   1169a:	dc0519e3          	bnez	a0,1146c <_vfprintf_r+0xba0>
   1169e:	7792                	ld	a5,288(sp)
   116a0:	c98ff06f          	j	10b38 <_vfprintf_r+0x26c>
   116a4:	562e                	lw	a2,232(sp)
   116a6:	3ec05e63          	blez	a2,11aa2 <_vfprintf_r+0x11d6>
   116aa:	6766                	ld	a4,88(sp)
   116ac:	7682                	ld	a3,32(sp)
   116ae:	00070c1b          	sext.w	s8,a4
   116b2:	28e6c263          	blt	a3,a4,11936 <_vfprintf_r+0x106a>
   116b6:	03805263          	blez	s8,116da <_vfprintf_r+0xe0e>
   116ba:	11812703          	lw	a4,280(sp)
   116be:	97e2                	add	a5,a5,s8
   116c0:	01933023          	sd	s9,0(t1)
   116c4:	0017069b          	addiw	a3,a4,1
   116c8:	01833423          	sd	s8,8(t1)
   116cc:	f23e                	sd	a5,288(sp)
   116ce:	10d12c23          	sw	a3,280(sp)
   116d2:	471d                	li	a4,7
   116d4:	0341                	addi	t1,t1,16
   116d6:	6ed74d63          	blt	a4,a3,11dd0 <_vfprintf_r+0x1504>
   116da:	fffc4713          	not	a4,s8
   116de:	977d                	srai	a4,a4,0x3f
   116e0:	00ec7c33          	and	s8,s8,a4
   116e4:	6766                	ld	a4,88(sp)
   116e6:	41870c3b          	subw	s8,a4,s8
   116ea:	33804c63          	bgtz	s8,11a22 <_vfprintf_r+0x1156>
   116ee:	66e6                	ld	a3,88(sp)
   116f0:	4004f713          	andi	a4,s1,1024
   116f4:	00dc8db3          	add	s11,s9,a3
   116f8:	54071f63          	bnez	a4,11c56 <_vfprintf_r+0x138a>
   116fc:	572e                	lw	a4,232(sp)
   116fe:	7682                	ld	a3,32(sp)
   11700:	00d74663          	blt	a4,a3,1170c <_vfprintf_r+0xe40>
   11704:	0014f693          	andi	a3,s1,1
   11708:	6e068063          	beqz	a3,11de8 <_vfprintf_r+0x151c>
   1170c:	76e6                	ld	a3,120(sp)
   1170e:	7646                	ld	a2,112(sp)
   11710:	0341                	addi	t1,t1,16
   11712:	fed33823          	sd	a3,-16(t1)
   11716:	11812683          	lw	a3,280(sp)
   1171a:	97b2                	add	a5,a5,a2
   1171c:	fec33c23          	sd	a2,-8(t1)
   11720:	2685                	addiw	a3,a3,1
   11722:	0006861b          	sext.w	a2,a3
   11726:	10d12c23          	sw	a3,280(sp)
   1172a:	f23e                	sd	a5,288(sp)
   1172c:	469d                	li	a3,7
   1172e:	22c6c7e3          	blt	a3,a2,1215c <_vfprintf_r+0x1890>
   11732:	7682                	ld	a3,32(sp)
   11734:	00dc8633          	add	a2,s9,a3
   11738:	40e6873b          	subw	a4,a3,a4
   1173c:	41b6063b          	subw	a2,a2,s11
   11740:	0007069b          	sext.w	a3,a4
   11744:	00d65363          	bge	a2,a3,1174a <_vfprintf_r+0xe7e>
   11748:	8732                	mv	a4,a2
   1174a:	00070c9b          	sext.w	s9,a4
   1174e:	03905263          	blez	s9,11772 <_vfprintf_r+0xea6>
   11752:	11812603          	lw	a2,280(sp)
   11756:	97e6                	add	a5,a5,s9
   11758:	01b33023          	sd	s11,0(t1)
   1175c:	0016059b          	addiw	a1,a2,1
   11760:	01933423          	sd	s9,8(t1)
   11764:	f23e                	sd	a5,288(sp)
   11766:	10b12c23          	sw	a1,280(sp)
   1176a:	461d                	li	a2,7
   1176c:	0341                	addi	t1,t1,16
   1176e:	26b644e3          	blt	a2,a1,121d6 <_vfprintf_r+0x190a>
   11772:	fffccc13          	not	s8,s9
   11776:	43fc5c13          	srai	s8,s8,0x3f
   1177a:	018cfc33          	and	s8,s9,s8
   1177e:	41868c3b          	subw	s8,a3,s8
   11782:	bb805563          	blez	s8,10b2c <_vfprintf_r+0x260>
   11786:	11812703          	lw	a4,280(sp)
   1178a:	3b8d5563          	bge	s10,s8,11b34 <_vfprintf_r+0x1268>
   1178e:	4c9d                	li	s9,7
   11790:	a021                	j	11798 <_vfprintf_r+0xecc>
   11792:	3c41                	addiw	s8,s8,-16
   11794:	3b8d5063          	bge	s10,s8,11b34 <_vfprintf_r+0x1268>
   11798:	2705                	addiw	a4,a4,1
   1179a:	07c1                	addi	a5,a5,16
   1179c:	01233023          	sd	s2,0(t1)
   117a0:	01a33423          	sd	s10,8(t1)
   117a4:	f23e                	sd	a5,288(sp)
   117a6:	10e12c23          	sw	a4,280(sp)
   117aa:	0341                	addi	t1,t1,16
   117ac:	feecd3e3          	bge	s9,a4,11792 <_vfprintf_r+0xec6>
   117b0:	0a10                	addi	a2,sp,272
   117b2:	85d2                	mv	a1,s4
   117b4:	8556                	mv	a0,s5
   117b6:	6d4070ef          	jal	ra,18e8a <__sprint_r>
   117ba:	ca0519e3          	bnez	a0,1146c <_vfprintf_r+0xba0>
   117be:	7792                	ld	a5,288(sp)
   117c0:	11812703          	lw	a4,280(sp)
   117c4:	835e                	mv	t1,s7
   117c6:	b7f1                	j	11792 <_vfprintf_r+0xec6>
   117c8:	0014f513          	andi	a0,s1,1
   117cc:	cc0518e3          	bnez	a0,1149c <_vfprintf_r+0xbd0>
   117d0:	00b33423          	sd	a1,8(t1)
   117d4:	f26e                	sd	s11,288(sp)
   117d6:	10e12c23          	sw	a4,280(sp)
   117da:	469d                	li	a3,7
   117dc:	18e6c163          	blt	a3,a4,1195e <_vfprintf_r+0x1092>
   117e0:	2609                	addiw	a2,a2,2
   117e2:	02030313          	addi	t1,t1,32
   117e6:	bb35                	j	11522 <_vfprintf_r+0xc56>
   117e8:	d2d05de3          	blez	a3,11522 <_vfprintf_r+0xc56>
   117ec:	4cdd50e3          	bge	s10,a3,124ac <_vfprintf_r+0x1be0>
   117f0:	4c9d                	li	s9,7
   117f2:	a031                	j	117fe <_vfprintf_r+0xf32>
   117f4:	36c1                	addiw	a3,a3,-16
   117f6:	14dd5563          	bge	s10,a3,11940 <_vfprintf_r+0x1074>
   117fa:	0017089b          	addiw	a7,a4,1
   117fe:	0dc1                	addi	s11,s11,16
   11800:	012c3023          	sd	s2,0(s8)
   11804:	01ac3423          	sd	s10,8(s8)
   11808:	f26e                	sd	s11,288(sp)
   1180a:	0008871b          	sext.w	a4,a7
   1180e:	11112c23          	sw	a7,280(sp)
   11812:	0c41                	addi	s8,s8,16
   11814:	feecd0e3          	bge	s9,a4,117f4 <_vfprintf_r+0xf28>
   11818:	0a10                	addi	a2,sp,272
   1181a:	85d2                	mv	a1,s4
   1181c:	8556                	mv	a0,s5
   1181e:	e436                	sd	a3,8(sp)
   11820:	66a070ef          	jal	ra,18e8a <__sprint_r>
   11824:	c40514e3          	bnez	a0,1146c <_vfprintf_r+0xba0>
   11828:	7d92                	ld	s11,288(sp)
   1182a:	11812703          	lw	a4,280(sp)
   1182e:	66a2                	ld	a3,8(sp)
   11830:	8c5e                	mv	s8,s7
   11832:	b7c9                	j	117f4 <_vfprintf_r+0xf28>
   11834:	01087793          	andi	a5,a6,16
   11838:	eb8d                	bnez	a5,1186a <_vfprintf_r+0xf9e>
   1183a:	66c2                	ld	a3,16(sp)
   1183c:	04087793          	andi	a5,a6,64
   11840:	0006a983          	lw	s3,0(a3)
   11844:	36078c63          	beqz	a5,11bbc <_vfprintf_r+0x12f0>
   11848:	19c2                	slli	s3,s3,0x30
   1184a:	0309d993          	srli	s3,s3,0x30
   1184e:	e83a                	sd	a4,16(sp)
   11850:	4785                	li	a5,1
   11852:	c26ff06f          	j	10c78 <_vfprintf_r+0x3ac>
   11856:	0014f713          	andi	a4,s1,1
   1185a:	ac070963          	beqz	a4,10b2c <_vfprintf_r+0x260>
   1185e:	b461                	j	112e6 <_vfprintf_r+0xa1a>
   11860:	6782                	ld	a5,0(sp)
   11862:	8ca2                	mv	s9,s0
   11864:	e31c                	sd	a5,0(a4)
   11866:	af8ff06f          	j	10b5e <_vfprintf_r+0x292>
   1186a:	67c2                	ld	a5,16(sp)
   1186c:	e83a                	sd	a4,16(sp)
   1186e:	0007b983          	ld	s3,0(a5)
   11872:	4785                	li	a5,1
   11874:	c04ff06f          	j	10c78 <_vfprintf_r+0x3ac>
   11878:	67c2                	ld	a5,16(sp)
   1187a:	639c                	ld	a5,0(a5)
   1187c:	89be                	mv	s3,a5
   1187e:	b90ff06f          	j	10c0e <_vfprintf_r+0x342>
   11882:	67c2                	ld	a5,16(sp)
   11884:	0007b983          	ld	s3,0(a5)
   11888:	be4ff06f          	j	10c6c <_vfprintf_r+0x3a0>
   1188c:	67c2                	ld	a5,16(sp)
   1188e:	07bd                	addi	a5,a5,15
   11890:	9bc1                	andi	a5,a5,-16
   11892:	6394                	ld	a3,0(a5)
   11894:	6798                	ld	a4,8(a5)
   11896:	07c1                	addi	a5,a5,16
   11898:	e83e                	sd	a5,16(sp)
   1189a:	e236                	sd	a3,256(sp)
   1189c:	e63a                	sd	a4,264(sp)
   1189e:	c50ff06f          	j	10cee <_vfprintf_r+0x422>
   118a2:	e83a                	sd	a4,16(sp)
   118a4:	47a5                	li	a5,9
   118a6:	8826                	mv	a6,s1
   118a8:	cb37f3e3          	bgeu	a5,s3,1154e <_vfprintf_r+0xc82>
   118ac:	40087793          	andi	a5,a6,1024
   118b0:	18c10c13          	addi	s8,sp,396
   118b4:	2781                	sext.w	a5,a5
   118b6:	f002                	sd	zero,32(sp)
   118b8:	85e2                	mv	a1,s8
   118ba:	44a9                	li	s1,10
   118bc:	4725                	li	a4,9
   118be:	0ff00693          	li	a3,255
   118c2:	a039                	j	118d0 <_vfprintf_r+0x1004>
   118c4:	0299d633          	divu	a2,s3,s1
   118c8:	9d3771e3          	bgeu	a4,s3,1128a <_vfprintf_r+0x9be>
   118cc:	89b2                	mv	s3,a2
   118ce:	85e6                	mv	a1,s9
   118d0:	7502                	ld	a0,32(sp)
   118d2:	fff58c93          	addi	s9,a1,-1
   118d6:	2505                	addiw	a0,a0,1
   118d8:	f02a                	sd	a0,32(sp)
   118da:	0299f633          	remu	a2,s3,s1
   118de:	0306061b          	addiw	a2,a2,48
   118e2:	fec58fa3          	sb	a2,-1(a1)
   118e6:	dff9                	beqz	a5,118c4 <_vfprintf_r+0xff8>
   118e8:	7626                	ld	a2,104(sp)
   118ea:	00064603          	lbu	a2,0(a2)
   118ee:	fcc51be3          	bne	a0,a2,118c4 <_vfprintf_r+0xff8>
   118f2:	fcd609e3          	beq	a2,a3,118c4 <_vfprintf_r+0xff8>
   118f6:	99377ae3          	bgeu	a4,s3,1128a <_vfprintf_r+0x9be>
   118fa:	fc3e                	sd	a5,56(sp)
   118fc:	67aa                	ld	a5,136(sp)
   118fe:	65ca                	ld	a1,144(sp)
   11900:	f81a                	sd	t1,48(sp)
   11902:	40fc8cb3          	sub	s9,s9,a5
   11906:	863e                	mv	a2,a5
   11908:	8566                	mv	a0,s9
   1190a:	ec76                	sd	t4,24(sp)
   1190c:	e442                	sd	a6,8(sp)
   1190e:	07b050ef          	jal	ra,17188 <strncpy>
   11912:	77a6                	ld	a5,104(sp)
   11914:	0299d633          	divu	a2,s3,s1
   11918:	6822                	ld	a6,8(sp)
   1191a:	0017c583          	lbu	a1,1(a5)
   1191e:	6ee2                	ld	t4,24(sp)
   11920:	7342                	ld	t1,48(sp)
   11922:	00b035b3          	snez	a1,a1
   11926:	97ae                	add	a5,a5,a1
   11928:	f4be                	sd	a5,104(sp)
   1192a:	f002                	sd	zero,32(sp)
   1192c:	77e2                	ld	a5,56(sp)
   1192e:	4725                	li	a4,9
   11930:	0ff00693          	li	a3,255
   11934:	bf61                	j	118cc <_vfprintf_r+0x1000>
   11936:	00068c1b          	sext.w	s8,a3
   1193a:	d98040e3          	bgtz	s8,116ba <_vfprintf_r+0xdee>
   1193e:	bb71                	j	116da <_vfprintf_r+0xe0e>
   11940:	0017061b          	addiw	a2,a4,1
   11944:	010c0713          	addi	a4,s8,16
   11948:	9db6                	add	s11,s11,a3
   1194a:	00dc3423          	sd	a3,8(s8)
   1194e:	012c3023          	sd	s2,0(s8)
   11952:	f26e                	sd	s11,288(sp)
   11954:	10c12c23          	sw	a2,280(sp)
   11958:	469d                	li	a3,7
   1195a:	44c6d563          	bge	a3,a2,11da4 <_vfprintf_r+0x14d8>
   1195e:	0a10                	addi	a2,sp,272
   11960:	85d2                	mv	a1,s4
   11962:	8556                	mv	a0,s5
   11964:	526070ef          	jal	ra,18e8a <__sprint_r>
   11968:	b00512e3          	bnez	a0,1146c <_vfprintf_r+0xba0>
   1196c:	11812603          	lw	a2,280(sp)
   11970:	7d92                	ld	s11,288(sp)
   11972:	1a010313          	addi	t1,sp,416
   11976:	2605                	addiw	a2,a2,1
   11978:	8c5e                	mv	s8,s7
   1197a:	b665                	j	11522 <_vfprintf_r+0xc56>
   1197c:	8826                	mv	a6,s1
   1197e:	825ff06f          	j	111a2 <_vfprintf_r+0x8d6>
   11982:	0000b797          	auipc	a5,0xb
   11986:	d1e78793          	addi	a5,a5,-738 # 1c6a0 <__clzdi2+0x1c8>
   1198a:	f43e                	sd	a5,40(sp)
   1198c:	66c2                	ld	a3,16(sp)
   1198e:	0204f793          	andi	a5,s1,32
   11992:	00868713          	addi	a4,a3,8
   11996:	c7f9                	beqz	a5,11a64 <_vfprintf_r+0x1198>
   11998:	0006b983          	ld	s3,0(a3)
   1199c:	0014f793          	andi	a5,s1,1
   119a0:	cf81                	beqz	a5,119b8 <_vfprintf_r+0x10ec>
   119a2:	00098b63          	beqz	s3,119b8 <_vfprintf_r+0x10ec>
   119a6:	0024e493          	ori	s1,s1,2
   119aa:	03000793          	li	a5,48
   119ae:	0ef10023          	sb	a5,224(sp)
   119b2:	0fb100a3          	sb	s11,225(sp)
   119b6:	2481                	sext.w	s1,s1
   119b8:	bff4f493          	andi	s1,s1,-1025
   119bc:	0004881b          	sext.w	a6,s1
   119c0:	e83a                	sd	a4,16(sp)
   119c2:	4789                	li	a5,2
   119c4:	ab4ff06f          	j	10c78 <_vfprintf_r+0x3ac>
   119c8:	2004e493          	ori	s1,s1,512
   119cc:	00144f03          	lbu	t5,1(s0)
   119d0:	2481                	sext.w	s1,s1
   119d2:	0405                	addi	s0,s0,1
   119d4:	82cff06f          	j	10a00 <_vfprintf_r+0x134>
   119d8:	0204e493          	ori	s1,s1,32
   119dc:	00144f03          	lbu	t5,1(s0)
   119e0:	2481                	sext.w	s1,s1
   119e2:	0405                	addi	s0,s0,1
   119e4:	81cff06f          	j	10a00 <_vfprintf_r+0x134>
   119e8:	0a10                	addi	a2,sp,272
   119ea:	85d2                	mv	a1,s4
   119ec:	8556                	mv	a0,s5
   119ee:	49c070ef          	jal	ra,18e8a <__sprint_r>
   119f2:	a6051de3          	bnez	a0,1146c <_vfprintf_r+0xba0>
   119f6:	7792                	ld	a5,288(sp)
   119f8:	835e                	mv	t1,s7
   119fa:	ba09                	j	1130c <_vfprintf_r+0xa40>
   119fc:	0000b797          	auipc	a5,0xb
   11a00:	c8c78793          	addi	a5,a5,-884 # 1c688 <__clzdi2+0x1b0>
   11a04:	f43e                	sd	a5,40(sp)
   11a06:	b759                	j	1198c <_vfprintf_r+0x10c0>
   11a08:	4799                	li	a5,6
   11a0a:	000e8c1b          	sext.w	s8,t4
   11a0e:	3dd7eb63          	bltu	a5,t4,11de4 <_vfprintf_r+0x1518>
   11a12:	89e2                	mv	s3,s8
   11a14:	e836                	sd	a3,16(sp)
   11a16:	0000bc97          	auipc	s9,0xb
   11a1a:	ca2c8c93          	addi	s9,s9,-862 # 1c6b8 <__clzdi2+0x1e0>
   11a1e:	854ff06f          	j	10a72 <_vfprintf_r+0x1a6>
   11a22:	11812703          	lw	a4,280(sp)
   11a26:	218d5063          	bge	s10,s8,11c26 <_vfprintf_r+0x135a>
   11a2a:	4d9d                	li	s11,7
   11a2c:	a021                	j	11a34 <_vfprintf_r+0x1168>
   11a2e:	3c41                	addiw	s8,s8,-16
   11a30:	1f8d5b63          	bge	s10,s8,11c26 <_vfprintf_r+0x135a>
   11a34:	2705                	addiw	a4,a4,1
   11a36:	07c1                	addi	a5,a5,16
   11a38:	01233023          	sd	s2,0(t1)
   11a3c:	01a33423          	sd	s10,8(t1)
   11a40:	f23e                	sd	a5,288(sp)
   11a42:	10e12c23          	sw	a4,280(sp)
   11a46:	0341                	addi	t1,t1,16
   11a48:	feedd3e3          	bge	s11,a4,11a2e <_vfprintf_r+0x1162>
   11a4c:	0a10                	addi	a2,sp,272
   11a4e:	85d2                	mv	a1,s4
   11a50:	8556                	mv	a0,s5
   11a52:	438070ef          	jal	ra,18e8a <__sprint_r>
   11a56:	a0051be3          	bnez	a0,1146c <_vfprintf_r+0xba0>
   11a5a:	7792                	ld	a5,288(sp)
   11a5c:	11812703          	lw	a4,280(sp)
   11a60:	835e                	mv	t1,s7
   11a62:	b7f1                	j	11a2e <_vfprintf_r+0x1162>
   11a64:	0104f793          	andi	a5,s1,16
   11a68:	c3cd                	beqz	a5,11b0a <_vfprintf_r+0x123e>
   11a6a:	67c2                	ld	a5,16(sp)
   11a6c:	0007b983          	ld	s3,0(a5)
   11a70:	b735                	j	1199c <_vfprintf_r+0x10d0>
   11a72:	0a10                	addi	a2,sp,272
   11a74:	85d2                	mv	a1,s4
   11a76:	8556                	mv	a0,s5
   11a78:	412070ef          	jal	ra,18e8a <__sprint_r>
   11a7c:	9e0518e3          	bnez	a0,1146c <_vfprintf_r+0xba0>
   11a80:	7d92                	ld	s11,288(sp)
   11a82:	11812703          	lw	a4,280(sp)
   11a86:	8c5e                	mv	s8,s7
   11a88:	b41d                	j	114ae <_vfprintf_r+0xbe2>
   11a8a:	0a10                	addi	a2,sp,272
   11a8c:	85d2                	mv	a1,s4
   11a8e:	8556                	mv	a0,s5
   11a90:	3fa070ef          	jal	ra,18e8a <__sprint_r>
   11a94:	9c051ce3          	bnez	a0,1146c <_vfprintf_r+0xba0>
   11a98:	7d92                	ld	s11,288(sp)
   11a9a:	11812703          	lw	a4,280(sp)
   11a9e:	8c5e                	mv	s8,s7
   11aa0:	bc0d                	j	114d2 <_vfprintf_r+0xc06>
   11aa2:	11812703          	lw	a4,280(sp)
   11aa6:	0000b697          	auipc	a3,0xb
   11aaa:	c1a68693          	addi	a3,a3,-998 # 1c6c0 <__clzdi2+0x1e8>
   11aae:	00d33023          	sd	a3,0(t1)
   11ab2:	2705                	addiw	a4,a4,1
   11ab4:	4685                	li	a3,1
   11ab6:	0785                	addi	a5,a5,1
   11ab8:	00d33423          	sd	a3,8(t1)
   11abc:	10e12c23          	sw	a4,280(sp)
   11ac0:	0007069b          	sext.w	a3,a4
   11ac4:	f23e                	sd	a5,288(sp)
   11ac6:	471d                	li	a4,7
   11ac8:	0341                	addi	t1,t1,16
   11aca:	2ed74363          	blt	a4,a3,11db0 <_vfprintf_r+0x14e4>
   11ace:	c4061363          	bnez	a2,10f14 <_vfprintf_r+0x648>
   11ad2:	7682                	ld	a3,32(sp)
   11ad4:	0014f713          	andi	a4,s1,1
   11ad8:	8f55                	or	a4,a4,a3
   11ada:	e319                	bnez	a4,11ae0 <_vfprintf_r+0x1214>
   11adc:	850ff06f          	j	10b2c <_vfprintf_r+0x260>
   11ae0:	76e6                	ld	a3,120(sp)
   11ae2:	7746                	ld	a4,112(sp)
   11ae4:	00d33023          	sd	a3,0(t1)
   11ae8:	11812683          	lw	a3,280(sp)
   11aec:	97ba                	add	a5,a5,a4
   11aee:	00e33423          	sd	a4,8(t1)
   11af2:	2685                	addiw	a3,a3,1
   11af4:	0006871b          	sext.w	a4,a3
   11af8:	10d12c23          	sw	a3,280(sp)
   11afc:	f23e                	sd	a5,288(sp)
   11afe:	469d                	li	a3,7
   11b00:	c2e6cd63          	blt	a3,a4,10f3a <_vfprintf_r+0x66e>
   11b04:	0341                	addi	t1,t1,16
   11b06:	c54ff06f          	j	10f5a <_vfprintf_r+0x68e>
   11b0a:	66c2                	ld	a3,16(sp)
   11b0c:	0404f793          	andi	a5,s1,64
   11b10:	0006a983          	lw	s3,0(a3)
   11b14:	cbe1                	beqz	a5,11be4 <_vfprintf_r+0x1318>
   11b16:	19c2                	slli	s3,s3,0x30
   11b18:	0309d993          	srli	s3,s3,0x30
   11b1c:	b541                	j	1199c <_vfprintf_r+0x10d0>
   11b1e:	0a10                	addi	a2,sp,272
   11b20:	85d2                	mv	a1,s4
   11b22:	8556                	mv	a0,s5
   11b24:	366070ef          	jal	ra,18e8a <__sprint_r>
   11b28:	940512e3          	bnez	a0,1146c <_vfprintf_r+0xba0>
   11b2c:	7792                	ld	a5,288(sp)
   11b2e:	835e                	mv	t1,s7
   11b30:	faeff06f          	j	112de <_vfprintf_r+0xa12>
   11b34:	0017069b          	addiw	a3,a4,1
   11b38:	8736                	mv	a4,a3
   11b3a:	97e2                	add	a5,a5,s8
   11b3c:	01233023          	sd	s2,0(t1)
   11b40:	fdbfe06f          	j	10b1a <_vfprintf_r+0x24e>
   11b44:	6512                	ld	a0,256(sp)
   11b46:	65b2                	ld	a1,264(sp)
   11b48:	4601                	li	a2,0
   11b4a:	4681                	li	a3,0
   11b4c:	e41a                	sd	t1,8(sp)
   11b4e:	6f0090ef          	jal	ra,1b23e <__letf2>
   11b52:	6322                	ld	t1,8(sp)
   11b54:	54054763          	bltz	a0,120a2 <_vfprintf_r+0x17d6>
   11b58:	0df14783          	lbu	a5,223(sp)
   11b5c:	04700713          	li	a4,71
   11b60:	0000bc97          	auipc	s9,0xb
   11b64:	b08c8c93          	addi	s9,s9,-1272 # 1c668 <__clzdi2+0x190>
   11b68:	25b74f63          	blt	a4,s11,11dc6 <_vfprintf_r+0x14fa>
   11b6c:	f7f4f493          	andi	s1,s1,-129
   11b70:	ec02                	sd	zero,24(sp)
   11b72:	e882                	sd	zero,80(sp)
   11b74:	f082                	sd	zero,96(sp)
   11b76:	ec82                	sd	zero,88(sp)
   11b78:	2481                	sext.w	s1,s1
   11b7a:	498d                	li	s3,3
   11b7c:	4c0d                	li	s8,3
   11b7e:	4e81                	li	t4,0
   11b80:	8c079863          	bnez	a5,10c50 <_vfprintf_r+0x384>
   11b84:	ef9fe06f          	j	10a7c <_vfprintf_r+0x1b0>
   11b88:	8566                	mv	a0,s9
   11b8a:	e41a                	sd	t1,8(sp)
   11b8c:	e836                	sd	a3,16(sp)
   11b8e:	cabfe0ef          	jal	ra,10838 <strlen>
   11b92:	00050c1b          	sext.w	s8,a0
   11b96:	fffc4993          	not	s3,s8
   11b9a:	0df14783          	lbu	a5,223(sp)
   11b9e:	43f9d993          	srai	s3,s3,0x3f
   11ba2:	013c79b3          	and	s3,s8,s3
   11ba6:	ec02                	sd	zero,24(sp)
   11ba8:	e882                	sd	zero,80(sp)
   11baa:	f082                	sd	zero,96(sp)
   11bac:	ec82                	sd	zero,88(sp)
   11bae:	6322                	ld	t1,8(sp)
   11bb0:	2981                	sext.w	s3,s3
   11bb2:	4e81                	li	t4,0
   11bb4:	88079e63          	bnez	a5,10c50 <_vfprintf_r+0x384>
   11bb8:	ec5fe06f          	j	10a7c <_vfprintf_r+0x1b0>
   11bbc:	20087793          	andi	a5,a6,512
   11bc0:	26078463          	beqz	a5,11e28 <_vfprintf_r+0x155c>
   11bc4:	0ff9f993          	andi	s3,s3,255
   11bc8:	e83a                	sd	a4,16(sp)
   11bca:	4785                	li	a5,1
   11bcc:	8acff06f          	j	10c78 <_vfprintf_r+0x3ac>
   11bd0:	2004f793          	andi	a5,s1,512
   11bd4:	24078463          	beqz	a5,11e1c <_vfprintf_r+0x1550>
   11bd8:	67c2                	ld	a5,16(sp)
   11bda:	00078983          	lb	s3,0(a5)
   11bde:	87ce                	mv	a5,s3
   11be0:	82eff06f          	j	10c0e <_vfprintf_r+0x342>
   11be4:	2004f793          	andi	a5,s1,512
   11be8:	24078763          	beqz	a5,11e36 <_vfprintf_r+0x156a>
   11bec:	0ff9f993          	andi	s3,s3,255
   11bf0:	b375                	j	1199c <_vfprintf_r+0x10d0>
   11bf2:	2004f793          	andi	a5,s1,512
   11bf6:	20078e63          	beqz	a5,11e12 <_vfprintf_r+0x1546>
   11bfa:	0ff9f993          	andi	s3,s3,255
   11bfe:	86eff06f          	j	10c6c <_vfprintf_r+0x3a0>
   11c02:	67b2                	ld	a5,264(sp)
   11c04:	2207cd63          	bltz	a5,11e3e <_vfprintf_r+0x1572>
   11c08:	0df14783          	lbu	a5,223(sp)
   11c0c:	04700713          	li	a4,71
   11c10:	0000bc97          	auipc	s9,0xb
   11c14:	a68c8c93          	addi	s9,s9,-1432 # 1c678 <__clzdi2+0x1a0>
   11c18:	f5b75ae3          	bge	a4,s11,11b6c <_vfprintf_r+0x12a0>
   11c1c:	0000bc97          	auipc	s9,0xb
   11c20:	a64c8c93          	addi	s9,s9,-1436 # 1c680 <__clzdi2+0x1a8>
   11c24:	b7a1                	j	11b6c <_vfprintf_r+0x12a0>
   11c26:	0017069b          	addiw	a3,a4,1
   11c2a:	97e2                	add	a5,a5,s8
   11c2c:	01233023          	sd	s2,0(t1)
   11c30:	01833423          	sd	s8,8(t1)
   11c34:	f23e                	sd	a5,288(sp)
   11c36:	10d12c23          	sw	a3,280(sp)
   11c3a:	471d                	li	a4,7
   11c3c:	0341                	addi	t1,t1,16
   11c3e:	aad758e3          	bge	a4,a3,116ee <_vfprintf_r+0xe22>
   11c42:	0a10                	addi	a2,sp,272
   11c44:	85d2                	mv	a1,s4
   11c46:	8556                	mv	a0,s5
   11c48:	242070ef          	jal	ra,18e8a <__sprint_r>
   11c4c:	820510e3          	bnez	a0,1146c <_vfprintf_r+0xba0>
   11c50:	7792                	ld	a5,288(sp)
   11c52:	835e                	mv	t1,s7
   11c54:	bc69                	j	116ee <_vfprintf_r+0xe22>
   11c56:	7702                	ld	a4,32(sp)
   11c58:	4c1d                	li	s8,7
   11c5a:	9766                	add	a4,a4,s9
   11c5c:	f83a                	sd	a4,48(sp)
   11c5e:	7706                	ld	a4,96(sp)
   11c60:	cb49                	beqz	a4,11cf2 <_vfprintf_r+0x1426>
   11c62:	6746                	ld	a4,80(sp)
   11c64:	eb51                	bnez	a4,11cf8 <_vfprintf_r+0x142c>
   11c66:	7726                	ld	a4,104(sp)
   11c68:	177d                	addi	a4,a4,-1
   11c6a:	f4ba                	sd	a4,104(sp)
   11c6c:	7706                	ld	a4,96(sp)
   11c6e:	377d                	addiw	a4,a4,-1
   11c70:	f0ba                	sd	a4,96(sp)
   11c72:	674a                	ld	a4,144(sp)
   11c74:	66aa                	ld	a3,136(sp)
   11c76:	0341                	addi	t1,t1,16
   11c78:	fee33823          	sd	a4,-16(t1)
   11c7c:	11812703          	lw	a4,280(sp)
   11c80:	97b6                	add	a5,a5,a3
   11c82:	fed33c23          	sd	a3,-8(t1)
   11c86:	2705                	addiw	a4,a4,1
   11c88:	f23e                	sd	a5,288(sp)
   11c8a:	0007069b          	sext.w	a3,a4
   11c8e:	10e12c23          	sw	a4,280(sp)
   11c92:	0cdc4e63          	blt	s8,a3,11d6e <_vfprintf_r+0x14a2>
   11c96:	7726                	ld	a4,104(sp)
   11c98:	00074603          	lbu	a2,0(a4)
   11c9c:	7742                	ld	a4,48(sp)
   11c9e:	41b705bb          	subw	a1,a4,s11
   11ca2:	0006071b          	sext.w	a4,a2
   11ca6:	0007069b          	sext.w	a3,a4
   11caa:	00e5d463          	bge	a1,a4,11cb2 <_vfprintf_r+0x13e6>
   11cae:	0005869b          	sext.w	a3,a1
   11cb2:	02d05663          	blez	a3,11cde <_vfprintf_r+0x1412>
   11cb6:	11812703          	lw	a4,280(sp)
   11cba:	97b6                	add	a5,a5,a3
   11cbc:	01b33023          	sd	s11,0(t1)
   11cc0:	0017061b          	addiw	a2,a4,1
   11cc4:	00d33423          	sd	a3,8(t1)
   11cc8:	f23e                	sd	a5,288(sp)
   11cca:	10c12c23          	sw	a2,280(sp)
   11cce:	0acc4a63          	blt	s8,a2,11d82 <_vfprintf_r+0x14b6>
   11cd2:	7726                	ld	a4,104(sp)
   11cd4:	0341                	addi	t1,t1,16
   11cd6:	00074603          	lbu	a2,0(a4)
   11cda:	0006071b          	sext.w	a4,a2
   11cde:	fff6c593          	not	a1,a3
   11ce2:	95fd                	srai	a1,a1,0x3f
   11ce4:	8eed                	and	a3,a3,a1
   11ce6:	9f15                	subw	a4,a4,a3
   11ce8:	00e04c63          	bgtz	a4,11d00 <_vfprintf_r+0x1434>
   11cec:	9db2                	add	s11,s11,a2
   11cee:	7706                	ld	a4,96(sp)
   11cf0:	fb2d                	bnez	a4,11c62 <_vfprintf_r+0x1396>
   11cf2:	6746                	ld	a4,80(sp)
   11cf4:	30070463          	beqz	a4,11ffc <_vfprintf_r+0x1730>
   11cf8:	6746                	ld	a4,80(sp)
   11cfa:	377d                	addiw	a4,a4,-1
   11cfc:	e8ba                	sd	a4,80(sp)
   11cfe:	bf95                	j	11c72 <_vfprintf_r+0x13a6>
   11d00:	11812683          	lw	a3,280(sp)
   11d04:	00ed4663          	blt	s10,a4,11d10 <_vfprintf_r+0x1444>
   11d08:	a081                	j	11d48 <_vfprintf_r+0x147c>
   11d0a:	3741                	addiw	a4,a4,-16
   11d0c:	02ed5e63          	bge	s10,a4,11d48 <_vfprintf_r+0x147c>
   11d10:	2685                	addiw	a3,a3,1
   11d12:	07c1                	addi	a5,a5,16
   11d14:	01233023          	sd	s2,0(t1)
   11d18:	01a33423          	sd	s10,8(t1)
   11d1c:	f23e                	sd	a5,288(sp)
   11d1e:	10d12c23          	sw	a3,280(sp)
   11d22:	0341                	addi	t1,t1,16
   11d24:	fedc53e3          	bge	s8,a3,11d0a <_vfprintf_r+0x143e>
   11d28:	0a10                	addi	a2,sp,272
   11d2a:	85d2                	mv	a1,s4
   11d2c:	8556                	mv	a0,s5
   11d2e:	e43a                	sd	a4,8(sp)
   11d30:	15a070ef          	jal	ra,18e8a <__sprint_r>
   11d34:	f2051c63          	bnez	a0,1146c <_vfprintf_r+0xba0>
   11d38:	6722                	ld	a4,8(sp)
   11d3a:	7792                	ld	a5,288(sp)
   11d3c:	11812683          	lw	a3,280(sp)
   11d40:	3741                	addiw	a4,a4,-16
   11d42:	835e                	mv	t1,s7
   11d44:	fced46e3          	blt	s10,a4,11d10 <_vfprintf_r+0x1444>
   11d48:	2685                	addiw	a3,a3,1
   11d4a:	97ba                	add	a5,a5,a4
   11d4c:	00e33423          	sd	a4,8(t1)
   11d50:	01233023          	sd	s2,0(t1)
   11d54:	f23e                	sd	a5,288(sp)
   11d56:	0006871b          	sext.w	a4,a3
   11d5a:	10d12c23          	sw	a3,280(sp)
   11d5e:	32ec4463          	blt	s8,a4,12086 <_vfprintf_r+0x17ba>
   11d62:	7726                	ld	a4,104(sp)
   11d64:	0341                	addi	t1,t1,16
   11d66:	00074603          	lbu	a2,0(a4)
   11d6a:	9db2                	add	s11,s11,a2
   11d6c:	b749                	j	11cee <_vfprintf_r+0x1422>
   11d6e:	0a10                	addi	a2,sp,272
   11d70:	85d2                	mv	a1,s4
   11d72:	8556                	mv	a0,s5
   11d74:	116070ef          	jal	ra,18e8a <__sprint_r>
   11d78:	ee051a63          	bnez	a0,1146c <_vfprintf_r+0xba0>
   11d7c:	7792                	ld	a5,288(sp)
   11d7e:	835e                	mv	t1,s7
   11d80:	bf19                	j	11c96 <_vfprintf_r+0x13ca>
   11d82:	0a10                	addi	a2,sp,272
   11d84:	85d2                	mv	a1,s4
   11d86:	8556                	mv	a0,s5
   11d88:	e436                	sd	a3,8(sp)
   11d8a:	100070ef          	jal	ra,18e8a <__sprint_r>
   11d8e:	ec051f63          	bnez	a0,1146c <_vfprintf_r+0xba0>
   11d92:	77a6                	ld	a5,104(sp)
   11d94:	66a2                	ld	a3,8(sp)
   11d96:	835e                	mv	t1,s7
   11d98:	0007c603          	lbu	a2,0(a5)
   11d9c:	7792                	ld	a5,288(sp)
   11d9e:	0006071b          	sext.w	a4,a2
   11da2:	bf35                	j	11cde <_vfprintf_r+0x1412>
   11da4:	2605                	addiw	a2,a2,1
   11da6:	01070313          	addi	t1,a4,16
   11daa:	8c3a                	mv	s8,a4
   11dac:	f76ff06f          	j	11522 <_vfprintf_r+0xc56>
   11db0:	0a10                	addi	a2,sp,272
   11db2:	85d2                	mv	a1,s4
   11db4:	8556                	mv	a0,s5
   11db6:	0d4070ef          	jal	ra,18e8a <__sprint_r>
   11dba:	ea051963          	bnez	a0,1146c <_vfprintf_r+0xba0>
   11dbe:	562e                	lw	a2,232(sp)
   11dc0:	7792                	ld	a5,288(sp)
   11dc2:	835e                	mv	t1,s7
   11dc4:	b329                	j	11ace <_vfprintf_r+0x1202>
   11dc6:	0000bc97          	auipc	s9,0xb
   11dca:	8aac8c93          	addi	s9,s9,-1878 # 1c670 <__clzdi2+0x198>
   11dce:	bb79                	j	11b6c <_vfprintf_r+0x12a0>
   11dd0:	0a10                	addi	a2,sp,272
   11dd2:	85d2                	mv	a1,s4
   11dd4:	8556                	mv	a0,s5
   11dd6:	0b4070ef          	jal	ra,18e8a <__sprint_r>
   11dda:	e8051963          	bnez	a0,1146c <_vfprintf_r+0xba0>
   11dde:	7792                	ld	a5,288(sp)
   11de0:	835e                	mv	t1,s7
   11de2:	b8e5                	j	116da <_vfprintf_r+0xe0e>
   11de4:	4c19                	li	s8,6
   11de6:	b135                	j	11a12 <_vfprintf_r+0x1146>
   11de8:	7682                	ld	a3,32(sp)
   11dea:	00dc8833          	add	a6,s9,a3
   11dee:	40e6873b          	subw	a4,a3,a4
   11df2:	41b80ebb          	subw	t4,a6,s11
   11df6:	0007069b          	sext.w	a3,a4
   11dfa:	00ded363          	bge	t4,a3,11e00 <_vfprintf_r+0x1534>
   11dfe:	8776                	mv	a4,t4
   11e00:	00070c9b          	sext.w	s9,a4
   11e04:	b2bd                	j	11772 <_vfprintf_r+0xea6>
   11e06:	6782                	ld	a5,0(sp)
   11e08:	8ca2                	mv	s9,s0
   11e0a:	00f71023          	sh	a5,0(a4)
   11e0e:	d51fe06f          	j	10b5e <_vfprintf_r+0x292>
   11e12:	1982                	slli	s3,s3,0x20
   11e14:	0209d993          	srli	s3,s3,0x20
   11e18:	e55fe06f          	j	10c6c <_vfprintf_r+0x3a0>
   11e1c:	67c2                	ld	a5,16(sp)
   11e1e:	0007a983          	lw	s3,0(a5)
   11e22:	87ce                	mv	a5,s3
   11e24:	debfe06f          	j	10c0e <_vfprintf_r+0x342>
   11e28:	1982                	slli	s3,s3,0x20
   11e2a:	0209d993          	srli	s3,s3,0x20
   11e2e:	e83a                	sd	a4,16(sp)
   11e30:	4785                	li	a5,1
   11e32:	e47fe06f          	j	10c78 <_vfprintf_r+0x3ac>
   11e36:	1982                	slli	s3,s3,0x20
   11e38:	0209d993          	srli	s3,s3,0x20
   11e3c:	b685                	j	1199c <_vfprintf_r+0x10d0>
   11e3e:	02d00793          	li	a5,45
   11e42:	0cf10fa3          	sb	a5,223(sp)
   11e46:	b3d9                	j	11c0c <_vfprintf_r+0x1340>
   11e48:	0a10                	addi	a2,sp,272
   11e4a:	85d2                	mv	a1,s4
   11e4c:	8556                	mv	a0,s5
   11e4e:	03c070ef          	jal	ra,18e8a <__sprint_r>
   11e52:	d1dfe06f          	j	10b6e <_vfprintf_r+0x2a2>
   11e56:	03000793          	li	a5,48
   11e5a:	0ef10023          	sb	a5,224(sp)
   11e5e:	05800713          	li	a4,88
   11e62:	0024e793          	ori	a5,s1,2
   11e66:	2781                	sext.w	a5,a5
   11e68:	0ee100a3          	sb	a4,225(sp)
   11e6c:	ed3e                	sd	a5,152(sp)
   11e6e:	06300713          	li	a4,99
   11e72:	ec02                	sd	zero,24(sp)
   11e74:	12810c93          	addi	s9,sp,296
   11e78:	47d74563          	blt	a4,t4,122e2 <_vfprintf_r+0x1a16>
   11e7c:	69b2                	ld	s3,264(sp)
   11e7e:	fdfdf713          	andi	a4,s11,-33
   11e82:	1024e493          	ori	s1,s1,258
   11e86:	f0ba                	sd	a4,96(sp)
   11e88:	e582                	sd	zero,200(sp)
   11e8a:	6c12                	ld	s8,256(sp)
   11e8c:	2481                	sext.w	s1,s1
   11e8e:	1e09c463          	bltz	s3,12076 <_vfprintf_r+0x17aa>
   11e92:	06100793          	li	a5,97
   11e96:	52fd8c63          	beq	s11,a5,123ce <_vfprintf_r+0x1b02>
   11e9a:	04100793          	li	a5,65
   11e9e:	00fd8463          	beq	s11,a5,11ea6 <_vfprintf_r+0x15da>
   11ea2:	eb7fe06f          	j	10d58 <_vfprintf_r+0x48c>
   11ea6:	85ce                	mv	a1,s3
   11ea8:	8562                	mv	a0,s8
   11eaa:	fc1a                	sd	t1,56(sp)
   11eac:	f876                	sd	t4,48(sp)
   11eae:	3f80a0ef          	jal	ra,1c2a6 <__trunctfdf2>
   11eb2:	11a8                	addi	a0,sp,232
   11eb4:	765040ef          	jal	ra,16e18 <frexp>
   11eb8:	32e0a0ef          	jal	ra,1c1e6 <__extenddftf2>
   11ebc:	0000b797          	auipc	a5,0xb
   11ec0:	9c478793          	addi	a5,a5,-1596 # 1c880 <zeroes.4521+0x38>
   11ec4:	6390                	ld	a2,0(a5)
   11ec6:	6794                	ld	a3,8(a5)
   11ec8:	41e090ef          	jal	ra,1b2e6 <__multf3>
   11ecc:	4601                	li	a2,0
   11ece:	4681                	li	a3,0
   11ed0:	f02a                	sd	a0,32(sp)
   11ed2:	e42e                	sd	a1,8(sp)
   11ed4:	22e090ef          	jal	ra,1b102 <__eqtf2>
   11ed8:	62a2                	ld	t0,8(sp)
   11eda:	7702                	ld	a4,32(sp)
   11edc:	7ec2                	ld	t4,48(sp)
   11ede:	7362                	ld	t1,56(sp)
   11ee0:	e119                	bnez	a0,11ee6 <_vfprintf_r+0x161a>
   11ee2:	4785                	li	a5,1
   11ee4:	d5be                	sw	a5,232(sp)
   11ee6:	0000a797          	auipc	a5,0xa
   11eea:	7a278793          	addi	a5,a5,1954 # 1c688 <__clzdi2+0x1b0>
   11eee:	e8be                	sd	a5,80(sp)
   11ef0:	020e9793          	slli	a5,t4,0x20
   11ef4:	0000b697          	auipc	a3,0xb
   11ef8:	96c68693          	addi	a3,a3,-1684 # 1c860 <zeroes.4521+0x18>
   11efc:	9381                	srli	a5,a5,0x20
   11efe:	6290                	ld	a2,0(a3)
   11f00:	0785                	addi	a5,a5,1
   11f02:	6694                	ld	a3,8(a3)
   11f04:	97e6                	add	a5,a5,s9
   11f06:	f13e                	sd	a5,160(sp)
   11f08:	01dc87bb          	addw	a5,s9,t4
   11f0c:	fd32                	sd	a2,184(sp)
   11f0e:	e1b6                	sd	a3,192(sp)
   11f10:	8c66                	mv	s8,s9
   11f12:	db3e                	sw	a5,180(sp)
   11f14:	a831                	j	11f30 <_vfprintf_r+0x1664>
   11f16:	4601                	li	a2,0
   11f18:	4681                	li	a3,0
   11f1a:	e4ae                	sd	a1,72(sp)
   11f1c:	e0aa                	sd	a0,64(sp)
   11f1e:	1e4090ef          	jal	ra,1b102 <__eqtf2>
   11f22:	7ec2                	ld	t4,48(sp)
   11f24:	7362                	ld	t1,56(sp)
   11f26:	6f86                	ld	t6,64(sp)
   11f28:	68a6                	ld	a7,72(sp)
   11f2a:	62a2                	ld	t0,8(sp)
   11f2c:	7702                	ld	a4,32(sp)
   11f2e:	c135                	beqz	a0,11f92 <_vfprintf_r+0x16c6>
   11f30:	766a                	ld	a2,184(sp)
   11f32:	668e                	ld	a3,192(sp)
   11f34:	853a                	mv	a0,a4
   11f36:	8596                	mv	a1,t0
   11f38:	fc1a                	sd	t1,56(sp)
   11f3a:	f876                	sd	t4,48(sp)
   11f3c:	3aa090ef          	jal	ra,1b2e6 <__multf3>
   11f40:	e42e                	sd	a1,8(sp)
   11f42:	f02a                	sd	a0,32(sp)
   11f44:	1b00a0ef          	jal	ra,1c0f4 <__fixtfsi>
   11f48:	0005099b          	sext.w	s3,a0
   11f4c:	854e                	mv	a0,s3
   11f4e:	23c0a0ef          	jal	ra,1c18a <__floatsitf>
   11f52:	7882                	ld	a7,32(sp)
   11f54:	6722                	ld	a4,8(sp)
   11f56:	862a                	mv	a2,a0
   11f58:	86ae                	mv	a3,a1
   11f5a:	8546                	mv	a0,a7
   11f5c:	85ba                	mv	a1,a4
   11f5e:	19b090ef          	jal	ra,1b8f8 <__subtf3>
   11f62:	67c6                	ld	a5,80(sp)
   11f64:	f562                	sd	s8,168(sp)
   11f66:	0c05                	addi	s8,s8,1
   11f68:	01378733          	add	a4,a5,s3
   11f6c:	57da                	lw	a5,180(sp)
   11f6e:	00074703          	lbu	a4,0(a4)
   11f72:	f02a                	sd	a0,32(sp)
   11f74:	418787bb          	subw	a5,a5,s8
   11f78:	ecbe                	sd	a5,88(sp)
   11f7a:	778a                	ld	a5,160(sp)
   11f7c:	feec0fa3          	sb	a4,-1(s8)
   11f80:	e42e                	sd	a1,8(sp)
   11f82:	7ec2                	ld	t4,48(sp)
   11f84:	7362                	ld	t1,56(sp)
   11f86:	8faa                	mv	t6,a0
   11f88:	88ae                	mv	a7,a1
   11f8a:	f98796e3          	bne	a5,s8,11f16 <_vfprintf_r+0x164a>
   11f8e:	57fd                	li	a5,-1
   11f90:	ecbe                	sd	a5,88(sp)
   11f92:	0000b717          	auipc	a4,0xb
   11f96:	8de70713          	addi	a4,a4,-1826 # 1c870 <zeroes.4521+0x28>
   11f9a:	6310                	ld	a2,0(a4)
   11f9c:	6714                	ld	a3,8(a4)
   11f9e:	857e                	mv	a0,t6
   11fa0:	85c6                	mv	a1,a7
   11fa2:	f01a                	sd	t1,32(sp)
   11fa4:	e476                	sd	t4,8(sp)
   11fa6:	e4fe                	sd	t6,72(sp)
   11fa8:	e0b2                	sd	a2,64(sp)
   11faa:	fc36                	sd	a3,56(sp)
   11fac:	f846                	sd	a7,48(sp)
   11fae:	1e8090ef          	jal	ra,1b196 <__getf2>
   11fb2:	6ea2                	ld	t4,8(sp)
   11fb4:	7302                	ld	t1,32(sp)
   11fb6:	2ca04f63          	bgtz	a0,12294 <_vfprintf_r+0x19c8>
   11fba:	6fa6                	ld	t6,72(sp)
   11fbc:	78c2                	ld	a7,48(sp)
   11fbe:	6606                	ld	a2,64(sp)
   11fc0:	76e2                	ld	a3,56(sp)
   11fc2:	857e                	mv	a0,t6
   11fc4:	85c6                	mv	a1,a7
   11fc6:	13c090ef          	jal	ra,1b102 <__eqtf2>
   11fca:	6ea2                	ld	t4,8(sp)
   11fcc:	7302                	ld	t1,32(sp)
   11fce:	e509                	bnez	a0,11fd8 <_vfprintf_r+0x170c>
   11fd0:	0019f993          	andi	s3,s3,1
   11fd4:	2c099063          	bnez	s3,12294 <_vfprintf_r+0x19c8>
   11fd8:	67e6                	ld	a5,88(sp)
   11fda:	03000693          	li	a3,48
   11fde:	00178713          	addi	a4,a5,1
   11fe2:	9762                	add	a4,a4,s8
   11fe4:	0007c763          	bltz	a5,11ff2 <_vfprintf_r+0x1726>
   11fe8:	0c05                	addi	s8,s8,1
   11fea:	fedc0fa3          	sb	a3,-1(s8)
   11fee:	ff871de3          	bne	a4,s8,11fe8 <_vfprintf_r+0x171c>
   11ff2:	419c07bb          	subw	a5,s8,s9
   11ff6:	f03e                	sd	a5,32(sp)
   11ff8:	de5fe06f          	j	10ddc <_vfprintf_r+0x510>
   11ffc:	7702                	ld	a4,32(sp)
   11ffe:	9766                	add	a4,a4,s9
   12000:	efb77e63          	bgeu	a4,s11,116fc <_vfprintf_r+0xe30>
   12004:	8dba                	mv	s11,a4
   12006:	ef6ff06f          	j	116fc <_vfprintf_r+0xe30>
   1200a:	6766                	ld	a4,88(sp)
   1200c:	57f5                	li	a5,-3
   1200e:	00f74463          	blt	a4,a5,12016 <_vfprintf_r+0x174a>
   12012:	00eed863          	bge	t4,a4,12022 <_vfprintf_r+0x1756>
   12016:	3df9                	addiw	s11,s11,-2
   12018:	fdfdf793          	andi	a5,s11,-33
   1201c:	f0be                	sd	a5,96(sp)
   1201e:	ddffe06f          	j	10dfc <_vfprintf_r+0x530>
   12022:	7782                	ld	a5,32(sp)
   12024:	6766                	ld	a4,88(sp)
   12026:	16f74563          	blt	a4,a5,12190 <_vfprintf_r+0x18c4>
   1202a:	67ea                	ld	a5,152(sp)
   1202c:	8c3a                	mv	s8,a4
   1202e:	8b85                	andi	a5,a5,1
   12030:	c781                	beqz	a5,12038 <_vfprintf_r+0x176c>
   12032:	77c6                	ld	a5,112(sp)
   12034:	00e78c3b          	addw	s8,a5,a4
   12038:	67ea                	ld	a5,152(sp)
   1203a:	4007f793          	andi	a5,a5,1024
   1203e:	c781                	beqz	a5,12046 <_vfprintf_r+0x177a>
   12040:	67e6                	ld	a5,88(sp)
   12042:	30f04763          	bgtz	a5,12350 <_vfprintf_r+0x1a84>
   12046:	fffc4993          	not	s3,s8
   1204a:	43f9d993          	srai	s3,s3,0x3f
   1204e:	013c79b3          	and	s3,s8,s3
   12052:	2981                	sext.w	s3,s3
   12054:	06700d93          	li	s11,103
   12058:	e882                	sd	zero,80(sp)
   1205a:	f082                	sd	zero,96(sp)
   1205c:	e83fe06f          	j	10ede <_vfprintf_r+0x612>
   12060:	0df14783          	lbu	a5,223(sp)
   12064:	4e81                	li	t4,0
   12066:	c399                	beqz	a5,1206c <_vfprintf_r+0x17a0>
   12068:	be9fe06f          	j	10c50 <_vfprintf_r+0x384>
   1206c:	a11fe06f          	j	10a7c <_vfprintf_r+0x1b0>
   12070:	ed26                	sd	s1,152(sp)
   12072:	ec02                	sd	zero,24(sp)
   12074:	84fe                	mv	s1,t6
   12076:	57fd                	li	a5,-1
   12078:	17fe                	slli	a5,a5,0x3f
   1207a:	00f9c9b3          	xor	s3,s3,a5
   1207e:	02d00793          	li	a5,45
   12082:	e5be                	sd	a5,200(sp)
   12084:	b539                	j	11e92 <_vfprintf_r+0x15c6>
   12086:	0a10                	addi	a2,sp,272
   12088:	85d2                	mv	a1,s4
   1208a:	8556                	mv	a0,s5
   1208c:	5ff060ef          	jal	ra,18e8a <__sprint_r>
   12090:	bc051e63          	bnez	a0,1146c <_vfprintf_r+0xba0>
   12094:	77a6                	ld	a5,104(sp)
   12096:	835e                	mv	t1,s7
   12098:	0007c603          	lbu	a2,0(a5)
   1209c:	7792                	ld	a5,288(sp)
   1209e:	9db2                	add	s11,s11,a2
   120a0:	b1b9                	j	11cee <_vfprintf_r+0x1422>
   120a2:	02d00793          	li	a5,45
   120a6:	0cf10fa3          	sb	a5,223(sp)
   120aa:	bc4d                	j	11b5c <_vfprintf_r+0x1290>
   120ac:	8776                	mv	a4,t4
   120ae:	11bc                	addi	a5,sp,232
   120b0:	0f810893          	addi	a7,sp,248
   120b4:	0ec10813          	addi	a6,sp,236
   120b8:	4689                	li	a3,2
   120ba:	85e2                	mv	a1,s8
   120bc:	864e                	mv	a2,s3
   120be:	8556                	mv	a0,s5
   120c0:	f01a                	sd	t1,32(sp)
   120c2:	e476                	sd	t4,8(sp)
   120c4:	458020ef          	jal	ra,1451c <_ldtoa_r>
   120c8:	7706                	ld	a4,96(sp)
   120ca:	04700793          	li	a5,71
   120ce:	6ea2                	ld	t4,8(sp)
   120d0:	7302                	ld	t1,32(sp)
   120d2:	8caa                	mv	s9,a0
   120d4:	02f71d63          	bne	a4,a5,1210e <_vfprintf_r+0x1842>
   120d8:	67ea                	ld	a5,152(sp)
   120da:	8b85                	andi	a5,a5,1
   120dc:	18079b63          	bnez	a5,12272 <_vfprintf_r+0x19a6>
   120e0:	04700713          	li	a4,71
   120e4:	77ee                	ld	a5,248(sp)
   120e6:	f0ba                	sd	a4,96(sp)
   120e8:	ceffe06f          	j	10dd6 <_vfprintf_r+0x50a>
   120ec:	8776                	mv	a4,t4
   120ee:	0f810893          	addi	a7,sp,248
   120f2:	0ec10813          	addi	a6,sp,236
   120f6:	11bc                	addi	a5,sp,232
   120f8:	468d                	li	a3,3
   120fa:	85e2                	mv	a1,s8
   120fc:	864e                	mv	a2,s3
   120fe:	8556                	mv	a0,s5
   12100:	f01a                	sd	t1,32(sp)
   12102:	e476                	sd	t4,8(sp)
   12104:	418020ef          	jal	ra,1451c <_ldtoa_r>
   12108:	6ea2                	ld	t4,8(sp)
   1210a:	7302                	ld	t1,32(sp)
   1210c:	8caa                	mv	s9,a0
   1210e:	7706                	ld	a4,96(sp)
   12110:	04600793          	li	a5,70
   12114:	01dc88b3          	add	a7,s9,t4
   12118:	00f70463          	beq	a4,a5,12120 <_vfprintf_r+0x1854>
   1211c:	c85fe06f          	j	10da0 <_vfprintf_r+0x4d4>
   12120:	000cc703          	lbu	a4,0(s9)
   12124:	03000793          	li	a5,48
   12128:	00f70663          	beq	a4,a5,12134 <_vfprintf_r+0x1868>
   1212c:	572e                	lw	a4,232(sp)
   1212e:	98ba                	add	a7,a7,a4
   12130:	c71fe06f          	j	10da0 <_vfprintf_r+0x4d4>
   12134:	4601                	li	a2,0
   12136:	4681                	li	a3,0
   12138:	8562                	mv	a0,s8
   1213a:	85ce                	mv	a1,s3
   1213c:	f846                	sd	a7,48(sp)
   1213e:	f01a                	sd	t1,32(sp)
   12140:	e476                	sd	t4,8(sp)
   12142:	7c1080ef          	jal	ra,1b102 <__eqtf2>
   12146:	6ea2                	ld	t4,8(sp)
   12148:	7302                	ld	t1,32(sp)
   1214a:	78c2                	ld	a7,48(sp)
   1214c:	d165                	beqz	a0,1212c <_vfprintf_r+0x1860>
   1214e:	4785                	li	a5,1
   12150:	41d7873b          	subw	a4,a5,t4
   12154:	d5ba                	sw	a4,232(sp)
   12156:	98ba                	add	a7,a7,a4
   12158:	c49fe06f          	j	10da0 <_vfprintf_r+0x4d4>
   1215c:	0a10                	addi	a2,sp,272
   1215e:	85d2                	mv	a1,s4
   12160:	8556                	mv	a0,s5
   12162:	529060ef          	jal	ra,18e8a <__sprint_r>
   12166:	b0051363          	bnez	a0,1146c <_vfprintf_r+0xba0>
   1216a:	572e                	lw	a4,232(sp)
   1216c:	7792                	ld	a5,288(sp)
   1216e:	835e                	mv	t1,s7
   12170:	dc2ff06f          	j	11732 <_vfprintf_r+0xe66>
   12174:	0df14783          	lbu	a5,223(sp)
   12178:	e836                	sd	a3,16(sp)
   1217a:	e882                	sd	zero,80(sp)
   1217c:	f082                	sd	zero,96(sp)
   1217e:	ec82                	sd	zero,88(sp)
   12180:	89f6                	mv	s3,t4
   12182:	8c76                	mv	s8,t4
   12184:	4e81                	li	t4,0
   12186:	c399                	beqz	a5,1218c <_vfprintf_r+0x18c0>
   12188:	ac9fe06f          	j	10c50 <_vfprintf_r+0x384>
   1218c:	8f1fe06f          	j	10a7c <_vfprintf_r+0x1b0>
   12190:	7702                	ld	a4,32(sp)
   12192:	77c6                	ld	a5,112(sp)
   12194:	06700d93          	li	s11,103
   12198:	00e78c3b          	addw	s8,a5,a4
   1219c:	6766                	ld	a4,88(sp)
   1219e:	2ce05263          	blez	a4,12462 <_vfprintf_r+0x1b96>
   121a2:	67ea                	ld	a5,152(sp)
   121a4:	4007f793          	andi	a5,a5,1024
   121a8:	1a079663          	bnez	a5,12354 <_vfprintf_r+0x1a88>
   121ac:	fffc4993          	not	s3,s8
   121b0:	43f9d993          	srai	s3,s3,0x3f
   121b4:	013c79b3          	and	s3,s8,s3
   121b8:	2981                	sext.w	s3,s3
   121ba:	bd79                	j	12058 <_vfprintf_r+0x178c>
   121bc:	67ea                	ld	a5,152(sp)
   121be:	6766                	ld	a4,88(sp)
   121c0:	8b85                	andi	a5,a5,1
   121c2:	00fee7b3          	or	a5,t4,a5
   121c6:	2ae05c63          	blez	a4,1247e <_vfprintf_r+0x1bb2>
   121ca:	26079d63          	bnez	a5,12444 <_vfprintf_r+0x1b78>
   121ce:	6c66                	ld	s8,88(sp)
   121d0:	06600d93          	li	s11,102
   121d4:	b7f9                	j	121a2 <_vfprintf_r+0x18d6>
   121d6:	0a10                	addi	a2,sp,272
   121d8:	85d2                	mv	a1,s4
   121da:	8556                	mv	a0,s5
   121dc:	4af060ef          	jal	ra,18e8a <__sprint_r>
   121e0:	a8051663          	bnez	a0,1146c <_vfprintf_r+0xba0>
   121e4:	56ae                	lw	a3,232(sp)
   121e6:	7702                	ld	a4,32(sp)
   121e8:	7792                	ld	a5,288(sp)
   121ea:	835e                	mv	t1,s7
   121ec:	40d706bb          	subw	a3,a4,a3
   121f0:	d82ff06f          	j	11772 <_vfprintf_r+0xea6>
   121f4:	57fd                	li	a5,-1
   121f6:	e03e                	sd	a5,0(sp)
   121f8:	985fe06f          	j	10b7c <_vfprintf_r+0x2b0>
   121fc:	56c1                	li	a3,-16
   121fe:	40c00c3b          	negw	s8,a2
   12202:	02d65f63          	bge	a2,a3,12240 <_vfprintf_r+0x1974>
   12206:	4d9d                	li	s11,7
   12208:	a021                	j	12210 <_vfprintf_r+0x1944>
   1220a:	3c41                	addiw	s8,s8,-16
   1220c:	038d5a63          	bge	s10,s8,12240 <_vfprintf_r+0x1974>
   12210:	2705                	addiw	a4,a4,1
   12212:	07c1                	addi	a5,a5,16
   12214:	01233023          	sd	s2,0(t1)
   12218:	01a33423          	sd	s10,8(t1)
   1221c:	f23e                	sd	a5,288(sp)
   1221e:	10e12c23          	sw	a4,280(sp)
   12222:	0341                	addi	t1,t1,16
   12224:	feedd3e3          	bge	s11,a4,1220a <_vfprintf_r+0x193e>
   12228:	0a10                	addi	a2,sp,272
   1222a:	85d2                	mv	a1,s4
   1222c:	8556                	mv	a0,s5
   1222e:	45d060ef          	jal	ra,18e8a <__sprint_r>
   12232:	a2051d63          	bnez	a0,1146c <_vfprintf_r+0xba0>
   12236:	7792                	ld	a5,288(sp)
   12238:	11812703          	lw	a4,280(sp)
   1223c:	835e                	mv	t1,s7
   1223e:	b7f1                	j	1220a <_vfprintf_r+0x193e>
   12240:	2705                	addiw	a4,a4,1
   12242:	97e2                	add	a5,a5,s8
   12244:	01233023          	sd	s2,0(t1)
   12248:	01833423          	sd	s8,8(t1)
   1224c:	f23e                	sd	a5,288(sp)
   1224e:	10e12c23          	sw	a4,280(sp)
   12252:	469d                	li	a3,7
   12254:	8ae6d8e3          	bge	a3,a4,11b04 <_vfprintf_r+0x1238>
   12258:	0a10                	addi	a2,sp,272
   1225a:	85d2                	mv	a1,s4
   1225c:	8556                	mv	a0,s5
   1225e:	42d060ef          	jal	ra,18e8a <__sprint_r>
   12262:	a0051563          	bnez	a0,1146c <_vfprintf_r+0xba0>
   12266:	7792                	ld	a5,288(sp)
   12268:	11812703          	lw	a4,280(sp)
   1226c:	835e                	mv	t1,s7
   1226e:	cedfe06f          	j	10f5a <_vfprintf_r+0x68e>
   12272:	04700793          	li	a5,71
   12276:	01dc88b3          	add	a7,s9,t4
   1227a:	f0be                	sd	a5,96(sp)
   1227c:	b25fe06f          	j	10da0 <_vfprintf_r+0x4d4>
   12280:	8826                	mv	a6,s1
   12282:	accff06f          	j	1154e <_vfprintf_r+0xc82>
   12286:	03000793          	li	a5,48
   1228a:	0ef10023          	sb	a5,224(sp)
   1228e:	07800713          	li	a4,120
   12292:	bec1                	j	11e62 <_vfprintf_r+0x1596>
   12294:	77aa                	ld	a5,168(sp)
   12296:	8762                	mv	a4,s8
   12298:	fdbe                	sd	a5,248(sp)
   1229a:	67c6                	ld	a5,80(sp)
   1229c:	fffc4683          	lbu	a3,-1(s8)
   122a0:	00f7c603          	lbu	a2,15(a5)
   122a4:	00d61e63          	bne	a2,a3,122c0 <_vfprintf_r+0x19f4>
   122a8:	03000593          	li	a1,48
   122ac:	feb70fa3          	sb	a1,-1(a4)
   122b0:	776e                	ld	a4,248(sp)
   122b2:	fff70693          	addi	a3,a4,-1
   122b6:	fdb6                	sd	a3,248(sp)
   122b8:	fff74683          	lbu	a3,-1(a4)
   122bc:	fed608e3          	beq	a2,a3,122ac <_vfprintf_r+0x19e0>
   122c0:	0016861b          	addiw	a2,a3,1
   122c4:	03900593          	li	a1,57
   122c8:	0ff67613          	andi	a2,a2,255
   122cc:	00b68563          	beq	a3,a1,122d6 <_vfprintf_r+0x1a0a>
   122d0:	fec70fa3          	sb	a2,-1(a4)
   122d4:	bb39                	j	11ff2 <_vfprintf_r+0x1726>
   122d6:	67c6                	ld	a5,80(sp)
   122d8:	00a7c603          	lbu	a2,10(a5)
   122dc:	fec70fa3          	sb	a2,-1(a4)
   122e0:	bb09                	j	11ff2 <_vfprintf_r+0x1726>
   122e2:	001e859b          	addiw	a1,t4,1
   122e6:	8556                	mv	a0,s5
   122e8:	ec1a                	sd	t1,24(sp)
   122ea:	e476                	sd	t4,8(sp)
   122ec:	2a2030ef          	jal	ra,1558e <_malloc_r>
   122f0:	6ea2                	ld	t4,8(sp)
   122f2:	6362                	ld	t1,24(sp)
   122f4:	8caa                	mv	s9,a0
   122f6:	1e050063          	beqz	a0,124d6 <_vfprintf_r+0x1c0a>
   122fa:	ec2a                	sd	a0,24(sp)
   122fc:	b641                	j	11e7c <_vfprintf_r+0x15b0>
   122fe:	000e9363          	bnez	t4,12304 <_vfprintf_r+0x1a38>
   12302:	4e85                	li	t4,1
   12304:	69b2                	ld	s3,264(sp)
   12306:	1004ef93          	ori	t6,s1,256
   1230a:	6c12                	ld	s8,256(sp)
   1230c:	2f81                	sext.w	t6,t6
   1230e:	d609c1e3          	bltz	s3,12070 <_vfprintf_r+0x17a4>
   12312:	8776                	mv	a4,t4
   12314:	0f810893          	addi	a7,sp,248
   12318:	0ec10813          	addi	a6,sp,236
   1231c:	11bc                	addi	a5,sp,232
   1231e:	4689                	li	a3,2
   12320:	85e2                	mv	a1,s8
   12322:	864e                	mv	a2,s3
   12324:	8556                	mv	a0,s5
   12326:	ec7e                	sd	t6,24(sp)
   12328:	f01a                	sd	t1,32(sp)
   1232a:	e476                	sd	t4,8(sp)
   1232c:	1f0020ef          	jal	ra,1451c <_ldtoa_r>
   12330:	6fe2                	ld	t6,24(sp)
   12332:	ed26                	sd	s1,152(sp)
   12334:	6ea2                	ld	t4,8(sp)
   12336:	7302                	ld	t1,32(sp)
   12338:	8caa                	mv	s9,a0
   1233a:	84fe                	mv	s1,t6
   1233c:	ec02                	sd	zero,24(sp)
   1233e:	e582                	sd	zero,200(sp)
   12340:	bb61                	j	120d8 <_vfprintf_r+0x180c>
   12342:	4e99                	li	t4,6
   12344:	9fbfe06f          	j	10d3e <_vfprintf_r+0x472>
   12348:	c31c                	sw	a5,0(a4)
   1234a:	8ca2                	mv	s9,s0
   1234c:	813fe06f          	j	10b5e <_vfprintf_r+0x292>
   12350:	06700d93          	li	s11,103
   12354:	77a6                	ld	a5,104(sp)
   12356:	0ff00713          	li	a4,255
   1235a:	e882                	sd	zero,80(sp)
   1235c:	0007c783          	lbu	a5,0(a5)
   12360:	f082                	sd	zero,96(sp)
   12362:	02e78863          	beq	a5,a4,12392 <_vfprintf_r+0x1ac6>
   12366:	0ff00693          	li	a3,255
   1236a:	6666                	ld	a2,88(sp)
   1236c:	0007871b          	sext.w	a4,a5
   12370:	02c7d163          	bge	a5,a2,12392 <_vfprintf_r+0x1ac6>
   12374:	75a6                	ld	a1,104(sp)
   12376:	40e6073b          	subw	a4,a2,a4
   1237a:	ecba                	sd	a4,88(sp)
   1237c:	0015c783          	lbu	a5,1(a1)
   12380:	cf8d                	beqz	a5,123ba <_vfprintf_r+0x1aee>
   12382:	7706                	ld	a4,96(sp)
   12384:	2705                	addiw	a4,a4,1
   12386:	f0ba                	sd	a4,96(sp)
   12388:	00158713          	addi	a4,a1,1
   1238c:	f4ba                	sd	a4,104(sp)
   1238e:	fcd79ee3          	bne	a5,a3,1236a <_vfprintf_r+0x1a9e>
   12392:	7706                	ld	a4,96(sp)
   12394:	67c6                	ld	a5,80(sp)
   12396:	9fb9                	addw	a5,a5,a4
   12398:	672a                	ld	a4,136(sp)
   1239a:	02e787bb          	mulw	a5,a5,a4
   1239e:	018787bb          	addw	a5,a5,s8
   123a2:	00078c1b          	sext.w	s8,a5
   123a6:	fffc4993          	not	s3,s8
   123aa:	43f9d993          	srai	s3,s3,0x3f
   123ae:	0137f7b3          	and	a5,a5,s3
   123b2:	0007899b          	sext.w	s3,a5
   123b6:	b29fe06f          	j	10ede <_vfprintf_r+0x612>
   123ba:	6746                	ld	a4,80(sp)
   123bc:	77a6                	ld	a5,104(sp)
   123be:	2705                	addiw	a4,a4,1
   123c0:	0007c783          	lbu	a5,0(a5)
   123c4:	e8ba                	sd	a4,80(sp)
   123c6:	b7e1                	j	1238e <_vfprintf_r+0x1ac2>
   123c8:	ec02                	sd	zero,24(sp)
   123ca:	84be                	mv	s1,a5
   123cc:	b16d                	j	12076 <_vfprintf_r+0x17aa>
   123ce:	85ce                	mv	a1,s3
   123d0:	8562                	mv	a0,s8
   123d2:	fc1a                	sd	t1,56(sp)
   123d4:	f876                	sd	t4,48(sp)
   123d6:	6d1090ef          	jal	ra,1c2a6 <__trunctfdf2>
   123da:	11a8                	addi	a0,sp,232
   123dc:	23d040ef          	jal	ra,16e18 <frexp>
   123e0:	607090ef          	jal	ra,1c1e6 <__extenddftf2>
   123e4:	0000a797          	auipc	a5,0xa
   123e8:	49c78793          	addi	a5,a5,1180 # 1c880 <zeroes.4521+0x38>
   123ec:	6390                	ld	a2,0(a5)
   123ee:	6794                	ld	a3,8(a5)
   123f0:	6f7080ef          	jal	ra,1b2e6 <__multf3>
   123f4:	4601                	li	a2,0
   123f6:	4681                	li	a3,0
   123f8:	f02a                	sd	a0,32(sp)
   123fa:	e42e                	sd	a1,8(sp)
   123fc:	507080ef          	jal	ra,1b102 <__eqtf2>
   12400:	62a2                	ld	t0,8(sp)
   12402:	7702                	ld	a4,32(sp)
   12404:	7ec2                	ld	t4,48(sp)
   12406:	7362                	ld	t1,56(sp)
   12408:	e119                	bnez	a0,1240e <_vfprintf_r+0x1b42>
   1240a:	4785                	li	a5,1
   1240c:	d5be                	sw	a5,232(sp)
   1240e:	0000a797          	auipc	a5,0xa
   12412:	29278793          	addi	a5,a5,658 # 1c6a0 <__clzdi2+0x1c8>
   12416:	e8be                	sd	a5,80(sp)
   12418:	bce1                	j	11ef0 <_vfprintf_r+0x1624>
   1241a:	0f210713          	addi	a4,sp,242
   1241e:	e699                	bnez	a3,1242c <_vfprintf_r+0x1b60>
   12420:	03000713          	li	a4,48
   12424:	0ee10923          	sb	a4,242(sp)
   12428:	0f310713          	addi	a4,sp,243
   1242c:	0c14                	addi	a3,sp,528
   1242e:	0307879b          	addiw	a5,a5,48
   12432:	40d706b3          	sub	a3,a4,a3
   12436:	00f70023          	sb	a5,0(a4)
   1243a:	1216879b          	addiw	a5,a3,289
   1243e:	e13e                	sd	a5,128(sp)
   12440:	a65fe06f          	j	10ea4 <_vfprintf_r+0x5d8>
   12444:	77c6                	ld	a5,112(sp)
   12446:	06600d93          	li	s11,102
   1244a:	00e78c3b          	addw	s8,a5,a4
   1244e:	01dc0c3b          	addw	s8,s8,t4
   12452:	bb81                	j	121a2 <_vfprintf_r+0x18d6>
   12454:	676a                	ld	a4,152(sp)
   12456:	8b05                	andi	a4,a4,1
   12458:	e319                	bnez	a4,1245e <_vfprintf_r+0x1b92>
   1245a:	a65fe06f          	j	10ebe <_vfprintf_r+0x5f2>
   1245e:	a5bfe06f          	j	10eb8 <_vfprintf_r+0x5ec>
   12462:	40ec07bb          	subw	a5,s8,a4
   12466:	2785                	addiw	a5,a5,1
   12468:	00078c1b          	sext.w	s8,a5
   1246c:	fffc4993          	not	s3,s8
   12470:	43f9d993          	srai	s3,s3,0x3f
   12474:	0137f7b3          	and	a5,a5,s3
   12478:	0007899b          	sext.w	s3,a5
   1247c:	bef1                	j	12058 <_vfprintf_r+0x178c>
   1247e:	e791                	bnez	a5,1248a <_vfprintf_r+0x1bbe>
   12480:	4985                	li	s3,1
   12482:	06600d93          	li	s11,102
   12486:	4c05                	li	s8,1
   12488:	bec1                	j	12058 <_vfprintf_r+0x178c>
   1248a:	77c6                	ld	a5,112(sp)
   1248c:	06600d93          	li	s11,102
   12490:	2785                	addiw	a5,a5,1
   12492:	01d78ebb          	addw	t4,a5,t4
   12496:	000e8c1b          	sext.w	s8,t4
   1249a:	fffc4993          	not	s3,s8
   1249e:	43f9d993          	srai	s3,s3,0x3f
   124a2:	013efeb3          	and	t4,t4,s3
   124a6:	000e899b          	sext.w	s3,t4
   124aa:	b67d                	j	12058 <_vfprintf_r+0x178c>
   124ac:	871a                	mv	a4,t1
   124ae:	c9aff06f          	j	11948 <_vfprintf_r+0x107c>
   124b2:	66c2                	ld	a3,16(sp)
   124b4:	4298                	lw	a4,0(a3)
   124b6:	06a1                	addi	a3,a3,8
   124b8:	00070e9b          	sext.w	t4,a4
   124bc:	00075363          	bgez	a4,124c2 <_vfprintf_r+0x1bf6>
   124c0:	5efd                	li	t4,-1
   124c2:	00144f03          	lbu	t5,1(s0)
   124c6:	e836                	sd	a3,16(sp)
   124c8:	843e                	mv	s0,a5
   124ca:	d36fe06f          	j	10a00 <_vfprintf_r+0x134>
   124ce:	4789                	li	a5,2
   124d0:	e13e                	sd	a5,128(sp)
   124d2:	9d3fe06f          	j	10ea4 <_vfprintf_r+0x5d8>
   124d6:	010a5783          	lhu	a5,16(s4)
   124da:	0407e793          	ori	a5,a5,64
   124de:	00fa1823          	sh	a5,16(s4)
   124e2:	e8cfe06f          	j	10b6e <_vfprintf_r+0x2a2>

00000000000124e6 <vfprintf>:
   124e6:	86b2                	mv	a3,a2
   124e8:	862e                	mv	a2,a1
   124ea:	85aa                	mv	a1,a0
   124ec:	8601b503          	ld	a0,-1952(gp) # 1f588 <_impure_ptr>
   124f0:	bdcfe06f          	j	108cc <_vfprintf_r>

00000000000124f4 <__sbprintf>:
   124f4:	0105d783          	lhu	a5,16(a1)
   124f8:	0ac5ae03          	lw	t3,172(a1)
   124fc:	0125d303          	lhu	t1,18(a1)
   12500:	0305b883          	ld	a7,48(a1)
   12504:	0405b803          	ld	a6,64(a1)
   12508:	b3010113          	addi	sp,sp,-1232
   1250c:	9bf5                	andi	a5,a5,-3
   1250e:	40000713          	li	a4,1024
   12512:	4c813023          	sd	s0,1216(sp)
   12516:	00f11823          	sh	a5,16(sp)
   1251a:	842e                	mv	s0,a1
   1251c:	191c                	addi	a5,sp,176
   1251e:	858a                	mv	a1,sp
   12520:	4a913c23          	sd	s1,1208(sp)
   12524:	4b213823          	sd	s2,1200(sp)
   12528:	4c113423          	sd	ra,1224(sp)
   1252c:	892a                	mv	s2,a0
   1252e:	d772                	sw	t3,172(sp)
   12530:	00611923          	sh	t1,18(sp)
   12534:	f846                	sd	a7,48(sp)
   12536:	e0c2                	sd	a6,64(sp)
   12538:	e03e                	sd	a5,0(sp)
   1253a:	ec3e                	sd	a5,24(sp)
   1253c:	c63a                	sw	a4,12(sp)
   1253e:	d03a                	sw	a4,32(sp)
   12540:	d402                	sw	zero,40(sp)
   12542:	b8afe0ef          	jal	ra,108cc <_vfprintf_r>
   12546:	84aa                	mv	s1,a0
   12548:	02055963          	bgez	a0,1257a <__sbprintf+0x86>
   1254c:	01015783          	lhu	a5,16(sp)
   12550:	0407f793          	andi	a5,a5,64
   12554:	c799                	beqz	a5,12562 <__sbprintf+0x6e>
   12556:	01045783          	lhu	a5,16(s0)
   1255a:	0407e793          	ori	a5,a5,64
   1255e:	00f41823          	sh	a5,16(s0)
   12562:	4c813083          	ld	ra,1224(sp)
   12566:	4c013403          	ld	s0,1216(sp)
   1256a:	4b013903          	ld	s2,1200(sp)
   1256e:	8526                	mv	a0,s1
   12570:	4b813483          	ld	s1,1208(sp)
   12574:	4d010113          	addi	sp,sp,1232
   12578:	8082                	ret
   1257a:	858a                	mv	a1,sp
   1257c:	854a                	mv	a0,s2
   1257e:	354000ef          	jal	ra,128d2 <_fflush_r>
   12582:	d569                	beqz	a0,1254c <__sbprintf+0x58>
   12584:	54fd                	li	s1,-1
   12586:	b7d9                	j	1254c <__sbprintf+0x58>

0000000000012588 <__swsetup_r>:
   12588:	1101                	addi	sp,sp,-32
   1258a:	e822                	sd	s0,16(sp)
   1258c:	e426                	sd	s1,8(sp)
   1258e:	ec06                	sd	ra,24(sp)
   12590:	8601b783          	ld	a5,-1952(gp) # 1f588 <_impure_ptr>
   12594:	84aa                	mv	s1,a0
   12596:	842e                	mv	s0,a1
   12598:	c399                	beqz	a5,1259e <__swsetup_r+0x16>
   1259a:	4bb8                	lw	a4,80(a5)
   1259c:	cf49                	beqz	a4,12636 <__swsetup_r+0xae>
   1259e:	01041703          	lh	a4,16(s0)
   125a2:	03071793          	slli	a5,a4,0x30
   125a6:	00877693          	andi	a3,a4,8
   125aa:	93c1                	srli	a5,a5,0x30
   125ac:	c29d                	beqz	a3,125d2 <__swsetup_r+0x4a>
   125ae:	6c14                	ld	a3,24(s0)
   125b0:	ce9d                	beqz	a3,125ee <__swsetup_r+0x66>
   125b2:	0017f613          	andi	a2,a5,1
   125b6:	ce39                	beqz	a2,12614 <__swsetup_r+0x8c>
   125b8:	5010                	lw	a2,32(s0)
   125ba:	00042623          	sw	zero,12(s0)
   125be:	4501                	li	a0,0
   125c0:	40c0063b          	negw	a2,a2
   125c4:	d410                	sw	a2,40(s0)
   125c6:	ceb9                	beqz	a3,12624 <__swsetup_r+0x9c>
   125c8:	60e2                	ld	ra,24(sp)
   125ca:	6442                	ld	s0,16(sp)
   125cc:	64a2                	ld	s1,8(sp)
   125ce:	6105                	addi	sp,sp,32
   125d0:	8082                	ret
   125d2:	0107f693          	andi	a3,a5,16
   125d6:	cac1                	beqz	a3,12666 <__swsetup_r+0xde>
   125d8:	8b91                	andi	a5,a5,4
   125da:	e3b5                	bnez	a5,1263e <__swsetup_r+0xb6>
   125dc:	6c14                	ld	a3,24(s0)
   125de:	00876713          	ori	a4,a4,8
   125e2:	03071793          	slli	a5,a4,0x30
   125e6:	00e41823          	sh	a4,16(s0)
   125ea:	93c1                	srli	a5,a5,0x30
   125ec:	f2f9                	bnez	a3,125b2 <__swsetup_r+0x2a>
   125ee:	2807f613          	andi	a2,a5,640
   125f2:	20000593          	li	a1,512
   125f6:	fab60ee3          	beq	a2,a1,125b2 <__swsetup_r+0x2a>
   125fa:	85a2                	mv	a1,s0
   125fc:	8526                	mv	a0,s1
   125fe:	6d5020ef          	jal	ra,154d2 <__smakebuf_r>
   12602:	01041703          	lh	a4,16(s0)
   12606:	6c14                	ld	a3,24(s0)
   12608:	03071793          	slli	a5,a4,0x30
   1260c:	93c1                	srli	a5,a5,0x30
   1260e:	0017f613          	andi	a2,a5,1
   12612:	f25d                	bnez	a2,125b8 <__swsetup_r+0x30>
   12614:	0027f613          	andi	a2,a5,2
   12618:	4581                	li	a1,0
   1261a:	e211                	bnez	a2,1261e <__swsetup_r+0x96>
   1261c:	500c                	lw	a1,32(s0)
   1261e:	c44c                	sw	a1,12(s0)
   12620:	4501                	li	a0,0
   12622:	f2dd                	bnez	a3,125c8 <__swsetup_r+0x40>
   12624:	0807f793          	andi	a5,a5,128
   12628:	d3c5                	beqz	a5,125c8 <__swsetup_r+0x40>
   1262a:	04076713          	ori	a4,a4,64
   1262e:	00e41823          	sh	a4,16(s0)
   12632:	557d                	li	a0,-1
   12634:	bf51                	j	125c8 <__swsetup_r+0x40>
   12636:	853e                	mv	a0,a5
   12638:	530000ef          	jal	ra,12b68 <__sinit>
   1263c:	b78d                	j	1259e <__swsetup_r+0x16>
   1263e:	6c2c                	ld	a1,88(s0)
   12640:	cd81                	beqz	a1,12658 <__swsetup_r+0xd0>
   12642:	07440793          	addi	a5,s0,116
   12646:	00f58763          	beq	a1,a5,12654 <__swsetup_r+0xcc>
   1264a:	8526                	mv	a0,s1
   1264c:	64e000ef          	jal	ra,12c9a <_free_r>
   12650:	01041703          	lh	a4,16(s0)
   12654:	04043c23          	sd	zero,88(s0)
   12658:	6c14                	ld	a3,24(s0)
   1265a:	fdb77713          	andi	a4,a4,-37
   1265e:	00042423          	sw	zero,8(s0)
   12662:	e014                	sd	a3,0(s0)
   12664:	bfad                	j	125de <__swsetup_r+0x56>
   12666:	47a5                	li	a5,9
   12668:	c09c                	sw	a5,0(s1)
   1266a:	04076713          	ori	a4,a4,64
   1266e:	00e41823          	sh	a4,16(s0)
   12672:	557d                	li	a0,-1
   12674:	bf91                	j	125c8 <__swsetup_r+0x40>

0000000000012676 <__call_exitprocs>:
   12676:	715d                	addi	sp,sp,-80
   12678:	f052                	sd	s4,32(sp)
   1267a:	8301ba03          	ld	s4,-2000(gp) # 1f558 <_global_impure_ptr>
   1267e:	f84a                	sd	s2,48(sp)
   12680:	1f8a3903          	ld	s2,504(s4)
   12684:	e486                	sd	ra,72(sp)
   12686:	e0a2                	sd	s0,64(sp)
   12688:	fc26                	sd	s1,56(sp)
   1268a:	f44e                	sd	s3,40(sp)
   1268c:	ec56                	sd	s5,24(sp)
   1268e:	e85a                	sd	s6,16(sp)
   12690:	e45e                	sd	s7,8(sp)
   12692:	e062                	sd	s8,0(sp)
   12694:	02090863          	beqz	s2,126c4 <__call_exitprocs+0x4e>
   12698:	8b2a                	mv	s6,a0
   1269a:	8bae                	mv	s7,a1
   1269c:	4a85                	li	s5,1
   1269e:	59fd                	li	s3,-1
   126a0:	00892483          	lw	s1,8(s2)
   126a4:	fff4841b          	addiw	s0,s1,-1
   126a8:	00044e63          	bltz	s0,126c4 <__call_exitprocs+0x4e>
   126ac:	048e                	slli	s1,s1,0x3
   126ae:	94ca                	add	s1,s1,s2
   126b0:	020b8663          	beqz	s7,126dc <__call_exitprocs+0x66>
   126b4:	2084b783          	ld	a5,520(s1)
   126b8:	03778263          	beq	a5,s7,126dc <__call_exitprocs+0x66>
   126bc:	347d                	addiw	s0,s0,-1
   126be:	14e1                	addi	s1,s1,-8
   126c0:	ff3418e3          	bne	s0,s3,126b0 <__call_exitprocs+0x3a>
   126c4:	60a6                	ld	ra,72(sp)
   126c6:	6406                	ld	s0,64(sp)
   126c8:	74e2                	ld	s1,56(sp)
   126ca:	7942                	ld	s2,48(sp)
   126cc:	79a2                	ld	s3,40(sp)
   126ce:	7a02                	ld	s4,32(sp)
   126d0:	6ae2                	ld	s5,24(sp)
   126d2:	6b42                	ld	s6,16(sp)
   126d4:	6ba2                	ld	s7,8(sp)
   126d6:	6c02                	ld	s8,0(sp)
   126d8:	6161                	addi	sp,sp,80
   126da:	8082                	ret
   126dc:	00892783          	lw	a5,8(s2)
   126e0:	6498                	ld	a4,8(s1)
   126e2:	37fd                	addiw	a5,a5,-1
   126e4:	04878463          	beq	a5,s0,1272c <__call_exitprocs+0xb6>
   126e8:	0004b423          	sd	zero,8(s1)
   126ec:	db61                	beqz	a4,126bc <__call_exitprocs+0x46>
   126ee:	31092783          	lw	a5,784(s2)
   126f2:	008a96bb          	sllw	a3,s5,s0
   126f6:	00892c03          	lw	s8,8(s2)
   126fa:	8ff5                	and	a5,a5,a3
   126fc:	2781                	sext.w	a5,a5
   126fe:	ef89                	bnez	a5,12718 <__call_exitprocs+0xa2>
   12700:	9702                	jalr	a4
   12702:	00892703          	lw	a4,8(s2)
   12706:	1f8a3783          	ld	a5,504(s4)
   1270a:	01871463          	bne	a4,s8,12712 <__call_exitprocs+0x9c>
   1270e:	faf907e3          	beq	s2,a5,126bc <__call_exitprocs+0x46>
   12712:	dbcd                	beqz	a5,126c4 <__call_exitprocs+0x4e>
   12714:	893e                	mv	s2,a5
   12716:	b769                	j	126a0 <__call_exitprocs+0x2a>
   12718:	31492783          	lw	a5,788(s2)
   1271c:	1084b583          	ld	a1,264(s1)
   12720:	8ff5                	and	a5,a5,a3
   12722:	2781                	sext.w	a5,a5
   12724:	e799                	bnez	a5,12732 <__call_exitprocs+0xbc>
   12726:	855a                	mv	a0,s6
   12728:	9702                	jalr	a4
   1272a:	bfe1                	j	12702 <__call_exitprocs+0x8c>
   1272c:	00892423          	sw	s0,8(s2)
   12730:	bf75                	j	126ec <__call_exitprocs+0x76>
   12732:	852e                	mv	a0,a1
   12734:	9702                	jalr	a4
   12736:	b7f1                	j	12702 <__call_exitprocs+0x8c>

0000000000012738 <__sflush_r>:
   12738:	01059783          	lh	a5,16(a1)
   1273c:	7179                	addi	sp,sp,-48
   1273e:	f022                	sd	s0,32(sp)
   12740:	e44e                	sd	s3,8(sp)
   12742:	f406                	sd	ra,40(sp)
   12744:	ec26                	sd	s1,24(sp)
   12746:	e84a                	sd	s2,16(sp)
   12748:	0087f693          	andi	a3,a5,8
   1274c:	842e                	mv	s0,a1
   1274e:	89aa                	mv	s3,a0
   12750:	eecd                	bnez	a3,1280a <__sflush_r+0xd2>
   12752:	6705                	lui	a4,0x1
   12754:	80070713          	addi	a4,a4,-2048 # 800 <register_fini-0xf8b0>
   12758:	4594                	lw	a3,8(a1)
   1275a:	8fd9                	or	a5,a5,a4
   1275c:	00f59823          	sh	a5,16(a1)
   12760:	10d05363          	blez	a3,12866 <__sflush_r+0x12e>
   12764:	6438                	ld	a4,72(s0)
   12766:	cb51                	beqz	a4,127fa <__sflush_r+0xc2>
   12768:	0009a483          	lw	s1,0(s3)
   1276c:	03079693          	slli	a3,a5,0x30
   12770:	0009a023          	sw	zero,0(s3)
   12774:	03379613          	slli	a2,a5,0x33
   12778:	780c                	ld	a1,48(s0)
   1277a:	92c1                	srli	a3,a3,0x30
   1277c:	0e064963          	bltz	a2,1286e <__sflush_r+0x136>
   12780:	4601                	li	a2,0
   12782:	4685                	li	a3,1
   12784:	854e                	mv	a0,s3
   12786:	9702                	jalr	a4
   12788:	57fd                	li	a5,-1
   1278a:	862a                	mv	a2,a0
   1278c:	10f50963          	beq	a0,a5,1289e <__sflush_r+0x166>
   12790:	01045683          	lhu	a3,16(s0)
   12794:	6438                	ld	a4,72(s0)
   12796:	780c                	ld	a1,48(s0)
   12798:	8a91                	andi	a3,a3,4
   1279a:	c699                	beqz	a3,127a8 <__sflush_r+0x70>
   1279c:	4414                	lw	a3,8(s0)
   1279e:	6c3c                	ld	a5,88(s0)
   127a0:	8e15                	sub	a2,a2,a3
   127a2:	c399                	beqz	a5,127a8 <__sflush_r+0x70>
   127a4:	583c                	lw	a5,112(s0)
   127a6:	8e1d                	sub	a2,a2,a5
   127a8:	4681                	li	a3,0
   127aa:	854e                	mv	a0,s3
   127ac:	9702                	jalr	a4
   127ae:	57fd                	li	a5,-1
   127b0:	0cf51163          	bne	a0,a5,12872 <__sflush_r+0x13a>
   127b4:	0009a703          	lw	a4,0(s3)
   127b8:	01041783          	lh	a5,16(s0)
   127bc:	0e070f63          	beqz	a4,128ba <__sflush_r+0x182>
   127c0:	46f5                	li	a3,29
   127c2:	00d70563          	beq	a4,a3,127cc <__sflush_r+0x94>
   127c6:	46d9                	li	a3,22
   127c8:	0ed71f63          	bne	a4,a3,128c6 <__sflush_r+0x18e>
   127cc:	6c14                	ld	a3,24(s0)
   127ce:	777d                	lui	a4,0xfffff
   127d0:	7ff70713          	addi	a4,a4,2047 # fffffffffffff7ff <__BSS_END__+0xfffffffffffc7147>
   127d4:	8ff9                	and	a5,a5,a4
   127d6:	00f41823          	sh	a5,16(s0)
   127da:	00042423          	sw	zero,8(s0)
   127de:	e014                	sd	a3,0(s0)
   127e0:	6c2c                	ld	a1,88(s0)
   127e2:	0099a023          	sw	s1,0(s3)
   127e6:	c991                	beqz	a1,127fa <__sflush_r+0xc2>
   127e8:	07440793          	addi	a5,s0,116
   127ec:	00f58563          	beq	a1,a5,127f6 <__sflush_r+0xbe>
   127f0:	854e                	mv	a0,s3
   127f2:	4a8000ef          	jal	ra,12c9a <_free_r>
   127f6:	04043c23          	sd	zero,88(s0)
   127fa:	4501                	li	a0,0
   127fc:	70a2                	ld	ra,40(sp)
   127fe:	7402                	ld	s0,32(sp)
   12800:	64e2                	ld	s1,24(sp)
   12802:	6942                	ld	s2,16(sp)
   12804:	69a2                	ld	s3,8(sp)
   12806:	6145                	addi	sp,sp,48
   12808:	8082                	ret
   1280a:	0185b903          	ld	s2,24(a1)
   1280e:	fe0906e3          	beqz	s2,127fa <__sflush_r+0xc2>
   12812:	6184                	ld	s1,0(a1)
   12814:	03079713          	slli	a4,a5,0x30
   12818:	9341                	srli	a4,a4,0x30
   1281a:	8b0d                	andi	a4,a4,3
   1281c:	0125b023          	sd	s2,0(a1)
   12820:	412484bb          	subw	s1,s1,s2
   12824:	4781                	li	a5,0
   12826:	e311                	bnez	a4,1282a <__sflush_r+0xf2>
   12828:	519c                	lw	a5,32(a1)
   1282a:	c45c                	sw	a5,12(s0)
   1282c:	00904663          	bgtz	s1,12838 <__sflush_r+0x100>
   12830:	b7e9                	j	127fa <__sflush_r+0xc2>
   12832:	992a                	add	s2,s2,a0
   12834:	fc9053e3          	blez	s1,127fa <__sflush_r+0xc2>
   12838:	603c                	ld	a5,64(s0)
   1283a:	780c                	ld	a1,48(s0)
   1283c:	86a6                	mv	a3,s1
   1283e:	864a                	mv	a2,s2
   12840:	854e                	mv	a0,s3
   12842:	9782                	jalr	a5
   12844:	9c89                	subw	s1,s1,a0
   12846:	fea046e3          	bgtz	a0,12832 <__sflush_r+0xfa>
   1284a:	01045783          	lhu	a5,16(s0)
   1284e:	70a2                	ld	ra,40(sp)
   12850:	64e2                	ld	s1,24(sp)
   12852:	0407e793          	ori	a5,a5,64
   12856:	00f41823          	sh	a5,16(s0)
   1285a:	7402                	ld	s0,32(sp)
   1285c:	6942                	ld	s2,16(sp)
   1285e:	69a2                	ld	s3,8(sp)
   12860:	557d                	li	a0,-1
   12862:	6145                	addi	sp,sp,48
   12864:	8082                	ret
   12866:	59b8                	lw	a4,112(a1)
   12868:	eee04ee3          	bgtz	a4,12764 <__sflush_r+0x2c>
   1286c:	b779                	j	127fa <__sflush_r+0xc2>
   1286e:	6850                	ld	a2,144(s0)
   12870:	b725                	j	12798 <__sflush_r+0x60>
   12872:	01045783          	lhu	a5,16(s0)
   12876:	777d                	lui	a4,0xfffff
   12878:	7ff70713          	addi	a4,a4,2047 # fffffffffffff7ff <__BSS_END__+0xfffffffffffc7147>
   1287c:	8ff9                	and	a5,a5,a4
   1287e:	6c14                	ld	a3,24(s0)
   12880:	0107979b          	slliw	a5,a5,0x10
   12884:	4107d79b          	sraiw	a5,a5,0x10
   12888:	00f41823          	sh	a5,16(s0)
   1288c:	00042423          	sw	zero,8(s0)
   12890:	e014                	sd	a3,0(s0)
   12892:	03379713          	slli	a4,a5,0x33
   12896:	f40755e3          	bgez	a4,127e0 <__sflush_r+0xa8>
   1289a:	e848                	sd	a0,144(s0)
   1289c:	b791                	j	127e0 <__sflush_r+0xa8>
   1289e:	0009a783          	lw	a5,0(s3)
   128a2:	ee0787e3          	beqz	a5,12790 <__sflush_r+0x58>
   128a6:	4775                	li	a4,29
   128a8:	00e78563          	beq	a5,a4,128b2 <__sflush_r+0x17a>
   128ac:	4759                	li	a4,22
   128ae:	f8e79ee3          	bne	a5,a4,1284a <__sflush_r+0x112>
   128b2:	0099a023          	sw	s1,0(s3)
   128b6:	4501                	li	a0,0
   128b8:	b791                	j	127fc <__sflush_r+0xc4>
   128ba:	777d                	lui	a4,0xfffff
   128bc:	7ff70713          	addi	a4,a4,2047 # fffffffffffff7ff <__BSS_END__+0xfffffffffffc7147>
   128c0:	6c14                	ld	a3,24(s0)
   128c2:	8ff9                	and	a5,a5,a4
   128c4:	b7d1                	j	12888 <__sflush_r+0x150>
   128c6:	0407e793          	ori	a5,a5,64
   128ca:	00f41823          	sh	a5,16(s0)
   128ce:	557d                	li	a0,-1
   128d0:	b735                	j	127fc <__sflush_r+0xc4>

00000000000128d2 <_fflush_r>:
   128d2:	1101                	addi	sp,sp,-32
   128d4:	e822                	sd	s0,16(sp)
   128d6:	ec06                	sd	ra,24(sp)
   128d8:	842a                	mv	s0,a0
   128da:	c119                	beqz	a0,128e0 <_fflush_r+0xe>
   128dc:	493c                	lw	a5,80(a0)
   128de:	cb89                	beqz	a5,128f0 <_fflush_r+0x1e>
   128e0:	01059783          	lh	a5,16(a1)
   128e4:	ef89                	bnez	a5,128fe <_fflush_r+0x2c>
   128e6:	60e2                	ld	ra,24(sp)
   128e8:	6442                	ld	s0,16(sp)
   128ea:	4501                	li	a0,0
   128ec:	6105                	addi	sp,sp,32
   128ee:	8082                	ret
   128f0:	e42e                	sd	a1,8(sp)
   128f2:	276000ef          	jal	ra,12b68 <__sinit>
   128f6:	65a2                	ld	a1,8(sp)
   128f8:	01059783          	lh	a5,16(a1)
   128fc:	d7ed                	beqz	a5,128e6 <_fflush_r+0x14>
   128fe:	8522                	mv	a0,s0
   12900:	6442                	ld	s0,16(sp)
   12902:	60e2                	ld	ra,24(sp)
   12904:	6105                	addi	sp,sp,32
   12906:	bd0d                	j	12738 <__sflush_r>

0000000000012908 <fflush>:
   12908:	85aa                	mv	a1,a0
   1290a:	c501                	beqz	a0,12912 <fflush+0xa>
   1290c:	8601b503          	ld	a0,-1952(gp) # 1f588 <_impure_ptr>
   12910:	b7c9                	j	128d2 <_fflush_r>
   12912:	00000597          	auipc	a1,0x0
   12916:	fc058593          	addi	a1,a1,-64 # 128d2 <_fflush_r>
   1291a:	8301b503          	ld	a0,-2000(gp) # 1f558 <_global_impure_ptr>
   1291e:	1790006f          	j	13296 <_fwalk_reent>

0000000000012922 <__fp_lock>:
   12922:	4501                	li	a0,0
   12924:	8082                	ret

0000000000012926 <_cleanup_r>:
   12926:	00007597          	auipc	a1,0x7
   1292a:	37858593          	addi	a1,a1,888 # 19c9e <_fclose_r>
   1292e:	1690006f          	j	13296 <_fwalk_reent>

0000000000012932 <__sinit.part.0>:
   12932:	7139                	addi	sp,sp,-64
   12934:	fc06                	sd	ra,56(sp)
   12936:	f822                	sd	s0,48(sp)
   12938:	f426                	sd	s1,40(sp)
   1293a:	f04a                	sd	s2,32(sp)
   1293c:	ec4e                	sd	s3,24(sp)
   1293e:	e852                	sd	s4,16(sp)
   12940:	e456                	sd	s5,8(sp)
   12942:	e05a                	sd	s6,0(sp)
   12944:	6500                	ld	s0,8(a0)
   12946:	00000717          	auipc	a4,0x0
   1294a:	fe070713          	addi	a4,a4,-32 # 12926 <_cleanup_r>
   1294e:	ed38                	sd	a4,88(a0)
   12950:	53850793          	addi	a5,a0,1336
   12954:	470d                	li	a4,3
   12956:	52e52423          	sw	a4,1320(a0)
   1295a:	52f53823          	sd	a5,1328(a0)
   1295e:	52053023          	sd	zero,1312(a0)
   12962:	4791                	li	a5,4
   12964:	892a                	mv	s2,a0
   12966:	c81c                	sw	a5,16(s0)
   12968:	4621                	li	a2,8
   1296a:	4581                	li	a1,0
   1296c:	0a042623          	sw	zero,172(s0)
   12970:	00043023          	sd	zero,0(s0)
   12974:	00043423          	sd	zero,8(s0)
   12978:	00043c23          	sd	zero,24(s0)
   1297c:	02042023          	sw	zero,32(s0)
   12980:	02042423          	sw	zero,40(s0)
   12984:	0a440513          	addi	a0,s0,164
   12988:	d31fd0ef          	jal	ra,106b8 <memset>
   1298c:	01093483          	ld	s1,16(s2)
   12990:	00004b17          	auipc	s6,0x4
   12994:	594b0b13          	addi	s6,s6,1428 # 16f24 <__sread>
   12998:	00004a97          	auipc	s5,0x4
   1299c:	5c8a8a93          	addi	s5,s5,1480 # 16f60 <__swrite>
   129a0:	00004a17          	auipc	s4,0x4
   129a4:	614a0a13          	addi	s4,s4,1556 # 16fb4 <__sseek>
   129a8:	00004997          	auipc	s3,0x4
   129ac:	64e98993          	addi	s3,s3,1614 # 16ff6 <__sclose>
   129b0:	67c1                	lui	a5,0x10
   129b2:	03643c23          	sd	s6,56(s0)
   129b6:	05543023          	sd	s5,64(s0)
   129ba:	05443423          	sd	s4,72(s0)
   129be:	05343823          	sd	s3,80(s0)
   129c2:	f800                	sd	s0,48(s0)
   129c4:	07a5                	addi	a5,a5,9
   129c6:	c89c                	sw	a5,16(s1)
   129c8:	4621                	li	a2,8
   129ca:	4581                	li	a1,0
   129cc:	0a04a623          	sw	zero,172(s1)
   129d0:	0004b023          	sd	zero,0(s1)
   129d4:	0004b423          	sd	zero,8(s1)
   129d8:	0004bc23          	sd	zero,24(s1)
   129dc:	0204a023          	sw	zero,32(s1)
   129e0:	0204a423          	sw	zero,40(s1)
   129e4:	0a448513          	addi	a0,s1,164
   129e8:	cd1fd0ef          	jal	ra,106b8 <memset>
   129ec:	01893403          	ld	s0,24(s2)
   129f0:	000207b7          	lui	a5,0x20
   129f4:	0364bc23          	sd	s6,56(s1)
   129f8:	0554b023          	sd	s5,64(s1)
   129fc:	0544b423          	sd	s4,72(s1)
   12a00:	0534b823          	sd	s3,80(s1)
   12a04:	f884                	sd	s1,48(s1)
   12a06:	07c9                	addi	a5,a5,18
   12a08:	c81c                	sw	a5,16(s0)
   12a0a:	0a042623          	sw	zero,172(s0)
   12a0e:	00043023          	sd	zero,0(s0)
   12a12:	00043423          	sd	zero,8(s0)
   12a16:	00043c23          	sd	zero,24(s0)
   12a1a:	02042023          	sw	zero,32(s0)
   12a1e:	02042423          	sw	zero,40(s0)
   12a22:	0a440513          	addi	a0,s0,164
   12a26:	4621                	li	a2,8
   12a28:	4581                	li	a1,0
   12a2a:	c8ffd0ef          	jal	ra,106b8 <memset>
   12a2e:	70e2                	ld	ra,56(sp)
   12a30:	03643c23          	sd	s6,56(s0)
   12a34:	05543023          	sd	s5,64(s0)
   12a38:	05443423          	sd	s4,72(s0)
   12a3c:	05343823          	sd	s3,80(s0)
   12a40:	f800                	sd	s0,48(s0)
   12a42:	7442                	ld	s0,48(sp)
   12a44:	4785                	li	a5,1
   12a46:	04f92823          	sw	a5,80(s2)
   12a4a:	74a2                	ld	s1,40(sp)
   12a4c:	7902                	ld	s2,32(sp)
   12a4e:	69e2                	ld	s3,24(sp)
   12a50:	6a42                	ld	s4,16(sp)
   12a52:	6aa2                	ld	s5,8(sp)
   12a54:	6b02                	ld	s6,0(sp)
   12a56:	6121                	addi	sp,sp,64
   12a58:	8082                	ret

0000000000012a5a <__fp_unlock>:
   12a5a:	4501                	li	a0,0
   12a5c:	8082                	ret

0000000000012a5e <__sfmoreglue>:
   12a5e:	1101                	addi	sp,sp,-32
   12a60:	e426                	sd	s1,8(sp)
   12a62:	0b000613          	li	a2,176
   12a66:	fff5849b          	addiw	s1,a1,-1
   12a6a:	02c484b3          	mul	s1,s1,a2
   12a6e:	e04a                	sd	s2,0(sp)
   12a70:	892e                	mv	s2,a1
   12a72:	e822                	sd	s0,16(sp)
   12a74:	ec06                	sd	ra,24(sp)
   12a76:	0c848593          	addi	a1,s1,200
   12a7a:	315020ef          	jal	ra,1558e <_malloc_r>
   12a7e:	842a                	mv	s0,a0
   12a80:	cd01                	beqz	a0,12a98 <__sfmoreglue+0x3a>
   12a82:	0561                	addi	a0,a0,24
   12a84:	00043023          	sd	zero,0(s0)
   12a88:	01242423          	sw	s2,8(s0)
   12a8c:	e808                	sd	a0,16(s0)
   12a8e:	0b048613          	addi	a2,s1,176
   12a92:	4581                	li	a1,0
   12a94:	c25fd0ef          	jal	ra,106b8 <memset>
   12a98:	60e2                	ld	ra,24(sp)
   12a9a:	8522                	mv	a0,s0
   12a9c:	6442                	ld	s0,16(sp)
   12a9e:	64a2                	ld	s1,8(sp)
   12aa0:	6902                	ld	s2,0(sp)
   12aa2:	6105                	addi	sp,sp,32
   12aa4:	8082                	ret

0000000000012aa6 <__sfp>:
   12aa6:	7179                	addi	sp,sp,-48
   12aa8:	ec26                	sd	s1,24(sp)
   12aaa:	8301b483          	ld	s1,-2000(gp) # 1f558 <_global_impure_ptr>
   12aae:	48bc                	lw	a5,80(s1)
   12ab0:	e84a                	sd	s2,16(sp)
   12ab2:	f406                	sd	ra,40(sp)
   12ab4:	f022                	sd	s0,32(sp)
   12ab6:	e44e                	sd	s3,8(sp)
   12ab8:	892a                	mv	s2,a0
   12aba:	c3c9                	beqz	a5,12b3c <__sfp+0x96>
   12abc:	52048493          	addi	s1,s1,1312
   12ac0:	0b000993          	li	s3,176
   12ac4:	449c                	lw	a5,8(s1)
   12ac6:	6880                	ld	s0,16(s1)
   12ac8:	06f05663          	blez	a5,12b34 <__sfp+0x8e>
   12acc:	37fd                	addiw	a5,a5,-1
   12ace:	1782                	slli	a5,a5,0x20
   12ad0:	9381                	srli	a5,a5,0x20
   12ad2:	0785                	addi	a5,a5,1
   12ad4:	033787b3          	mul	a5,a5,s3
   12ad8:	97a2                	add	a5,a5,s0
   12ada:	a029                	j	12ae4 <__sfp+0x3e>
   12adc:	0b040413          	addi	s0,s0,176
   12ae0:	04878a63          	beq	a5,s0,12b34 <__sfp+0x8e>
   12ae4:	01041703          	lh	a4,16(s0)
   12ae8:	fb75                	bnez	a4,12adc <__sfp+0x36>
   12aea:	77c1                	lui	a5,0xffff0
   12aec:	0785                	addi	a5,a5,1
   12aee:	0a042623          	sw	zero,172(s0)
   12af2:	00043023          	sd	zero,0(s0)
   12af6:	00043423          	sd	zero,8(s0)
   12afa:	c81c                	sw	a5,16(s0)
   12afc:	00043c23          	sd	zero,24(s0)
   12b00:	02042023          	sw	zero,32(s0)
   12b04:	02042423          	sw	zero,40(s0)
   12b08:	4621                	li	a2,8
   12b0a:	4581                	li	a1,0
   12b0c:	0a440513          	addi	a0,s0,164
   12b10:	ba9fd0ef          	jal	ra,106b8 <memset>
   12b14:	04043c23          	sd	zero,88(s0)
   12b18:	06042023          	sw	zero,96(s0)
   12b1c:	06043c23          	sd	zero,120(s0)
   12b20:	08042023          	sw	zero,128(s0)
   12b24:	70a2                	ld	ra,40(sp)
   12b26:	8522                	mv	a0,s0
   12b28:	7402                	ld	s0,32(sp)
   12b2a:	64e2                	ld	s1,24(sp)
   12b2c:	6942                	ld	s2,16(sp)
   12b2e:	69a2                	ld	s3,8(sp)
   12b30:	6145                	addi	sp,sp,48
   12b32:	8082                	ret
   12b34:	6080                	ld	s0,0(s1)
   12b36:	c419                	beqz	s0,12b44 <__sfp+0x9e>
   12b38:	84a2                	mv	s1,s0
   12b3a:	b769                	j	12ac4 <__sfp+0x1e>
   12b3c:	8526                	mv	a0,s1
   12b3e:	df5ff0ef          	jal	ra,12932 <__sinit.part.0>
   12b42:	bfad                	j	12abc <__sfp+0x16>
   12b44:	4591                	li	a1,4
   12b46:	854a                	mv	a0,s2
   12b48:	f17ff0ef          	jal	ra,12a5e <__sfmoreglue>
   12b4c:	e088                	sd	a0,0(s1)
   12b4e:	842a                	mv	s0,a0
   12b50:	f565                	bnez	a0,12b38 <__sfp+0x92>
   12b52:	47b1                	li	a5,12
   12b54:	00f92023          	sw	a5,0(s2)
   12b58:	b7f1                	j	12b24 <__sfp+0x7e>

0000000000012b5a <_cleanup>:
   12b5a:	00007597          	auipc	a1,0x7
   12b5e:	14458593          	addi	a1,a1,324 # 19c9e <_fclose_r>
   12b62:	8301b503          	ld	a0,-2000(gp) # 1f558 <_global_impure_ptr>
   12b66:	af05                	j	13296 <_fwalk_reent>

0000000000012b68 <__sinit>:
   12b68:	493c                	lw	a5,80(a0)
   12b6a:	c391                	beqz	a5,12b6e <__sinit+0x6>
   12b6c:	8082                	ret
   12b6e:	b3d1                	j	12932 <__sinit.part.0>

0000000000012b70 <__sfp_lock_acquire>:
   12b70:	8082                	ret

0000000000012b72 <__sfp_lock_release>:
   12b72:	8082                	ret

0000000000012b74 <__sinit_lock_acquire>:
   12b74:	8082                	ret

0000000000012b76 <__sinit_lock_release>:
   12b76:	8082                	ret

0000000000012b78 <__fp_lock_all>:
   12b78:	00000597          	auipc	a1,0x0
   12b7c:	daa58593          	addi	a1,a1,-598 # 12922 <__fp_lock>
   12b80:	8601b503          	ld	a0,-1952(gp) # 1f588 <_impure_ptr>
   12b84:	ad41                	j	13214 <_fwalk>

0000000000012b86 <__fp_unlock_all>:
   12b86:	00000597          	auipc	a1,0x0
   12b8a:	ed458593          	addi	a1,a1,-300 # 12a5a <__fp_unlock>
   12b8e:	8601b503          	ld	a0,-1952(gp) # 1f588 <_impure_ptr>
   12b92:	a549                	j	13214 <_fwalk>

0000000000012b94 <__libc_fini_array>:
   12b94:	1101                	addi	sp,sp,-32
   12b96:	e822                	sd	s0,16(sp)
   12b98:	0000b797          	auipc	a5,0xb
   12b9c:	7f078793          	addi	a5,a5,2032 # 1e388 <__fini_array_end>
   12ba0:	0000b417          	auipc	s0,0xb
   12ba4:	7e040413          	addi	s0,s0,2016 # 1e380 <__init_array_end>
   12ba8:	8f81                	sub	a5,a5,s0
   12baa:	e426                	sd	s1,8(sp)
   12bac:	ec06                	sd	ra,24(sp)
   12bae:	4037d493          	srai	s1,a5,0x3
   12bb2:	c881                	beqz	s1,12bc2 <__libc_fini_array+0x2e>
   12bb4:	17e1                	addi	a5,a5,-8
   12bb6:	943e                	add	s0,s0,a5
   12bb8:	601c                	ld	a5,0(s0)
   12bba:	14fd                	addi	s1,s1,-1
   12bbc:	1461                	addi	s0,s0,-8
   12bbe:	9782                	jalr	a5
   12bc0:	fce5                	bnez	s1,12bb8 <__libc_fini_array+0x24>
   12bc2:	60e2                	ld	ra,24(sp)
   12bc4:	6442                	ld	s0,16(sp)
   12bc6:	64a2                	ld	s1,8(sp)
   12bc8:	6105                	addi	sp,sp,32
   12bca:	8082                	ret

0000000000012bcc <_malloc_trim_r>:
   12bcc:	7179                	addi	sp,sp,-48
   12bce:	f022                	sd	s0,32(sp)
   12bd0:	ec26                	sd	s1,24(sp)
   12bd2:	e84a                	sd	s2,16(sp)
   12bd4:	e44e                	sd	s3,8(sp)
   12bd6:	e052                	sd	s4,0(sp)
   12bd8:	89ae                	mv	s3,a1
   12bda:	f406                	sd	ra,40(sp)
   12bdc:	0000ca17          	auipc	s4,0xc
   12be0:	13ca0a13          	addi	s4,s4,316 # 1ed18 <__malloc_av_>
   12be4:	892a                	mv	s2,a0
   12be6:	26a030ef          	jal	ra,15e50 <__malloc_lock>
   12bea:	010a3703          	ld	a4,16(s4)
   12bee:	6785                	lui	a5,0x1
   12bf0:	fdf78413          	addi	s0,a5,-33 # fdf <register_fini-0xf0d1>
   12bf4:	6704                	ld	s1,8(a4)
   12bf6:	41340433          	sub	s0,s0,s3
   12bfa:	98f1                	andi	s1,s1,-4
   12bfc:	9426                	add	s0,s0,s1
   12bfe:	8031                	srli	s0,s0,0xc
   12c00:	147d                	addi	s0,s0,-1
   12c02:	0432                	slli	s0,s0,0xc
   12c04:	00f44b63          	blt	s0,a5,12c1a <_malloc_trim_r+0x4e>
   12c08:	4581                	li	a1,0
   12c0a:	854a                	mv	a0,s2
   12c0c:	1d4040ef          	jal	ra,16de0 <_sbrk_r>
   12c10:	010a3783          	ld	a5,16(s4)
   12c14:	97a6                	add	a5,a5,s1
   12c16:	00f50e63          	beq	a0,a5,12c32 <_malloc_trim_r+0x66>
   12c1a:	854a                	mv	a0,s2
   12c1c:	236030ef          	jal	ra,15e52 <__malloc_unlock>
   12c20:	70a2                	ld	ra,40(sp)
   12c22:	7402                	ld	s0,32(sp)
   12c24:	64e2                	ld	s1,24(sp)
   12c26:	6942                	ld	s2,16(sp)
   12c28:	69a2                	ld	s3,8(sp)
   12c2a:	6a02                	ld	s4,0(sp)
   12c2c:	4501                	li	a0,0
   12c2e:	6145                	addi	sp,sp,48
   12c30:	8082                	ret
   12c32:	408005b3          	neg	a1,s0
   12c36:	854a                	mv	a0,s2
   12c38:	1a8040ef          	jal	ra,16de0 <_sbrk_r>
   12c3c:	57fd                	li	a5,-1
   12c3e:	02f50a63          	beq	a0,a5,12c72 <_malloc_trim_r+0xa6>
   12c42:	0e018713          	addi	a4,gp,224 # 1fe08 <__malloc_current_mallinfo>
   12c46:	431c                	lw	a5,0(a4)
   12c48:	010a3683          	ld	a3,16(s4)
   12c4c:	8c81                	sub	s1,s1,s0
   12c4e:	0014e493          	ori	s1,s1,1
   12c52:	4087843b          	subw	s0,a5,s0
   12c56:	854a                	mv	a0,s2
   12c58:	e684                	sd	s1,8(a3)
   12c5a:	c300                	sw	s0,0(a4)
   12c5c:	1f6030ef          	jal	ra,15e52 <__malloc_unlock>
   12c60:	70a2                	ld	ra,40(sp)
   12c62:	7402                	ld	s0,32(sp)
   12c64:	64e2                	ld	s1,24(sp)
   12c66:	6942                	ld	s2,16(sp)
   12c68:	69a2                	ld	s3,8(sp)
   12c6a:	6a02                	ld	s4,0(sp)
   12c6c:	4505                	li	a0,1
   12c6e:	6145                	addi	sp,sp,48
   12c70:	8082                	ret
   12c72:	4581                	li	a1,0
   12c74:	854a                	mv	a0,s2
   12c76:	16a040ef          	jal	ra,16de0 <_sbrk_r>
   12c7a:	010a3703          	ld	a4,16(s4)
   12c7e:	46fd                	li	a3,31
   12c80:	40e507b3          	sub	a5,a0,a4
   12c84:	f8f6dbe3          	bge	a3,a5,12c1a <_malloc_trim_r+0x4e>
   12c88:	8681b683          	ld	a3,-1944(gp) # 1f590 <__malloc_sbrk_base>
   12c8c:	8d15                	sub	a0,a0,a3
   12c8e:	0017e793          	ori	a5,a5,1
   12c92:	0ea1a023          	sw	a0,224(gp) # 1fe08 <__malloc_current_mallinfo>
   12c96:	e71c                	sd	a5,8(a4)
   12c98:	b749                	j	12c1a <_malloc_trim_r+0x4e>

0000000000012c9a <_free_r>:
   12c9a:	c5f5                	beqz	a1,12d86 <_free_r+0xec>
   12c9c:	1101                	addi	sp,sp,-32
   12c9e:	e822                	sd	s0,16(sp)
   12ca0:	e426                	sd	s1,8(sp)
   12ca2:	842e                	mv	s0,a1
   12ca4:	84aa                	mv	s1,a0
   12ca6:	ec06                	sd	ra,24(sp)
   12ca8:	1a8030ef          	jal	ra,15e50 <__malloc_lock>
   12cac:	ff843583          	ld	a1,-8(s0)
   12cb0:	ff040713          	addi	a4,s0,-16
   12cb4:	0000c517          	auipc	a0,0xc
   12cb8:	06450513          	addi	a0,a0,100 # 1ed18 <__malloc_av_>
   12cbc:	ffe5f793          	andi	a5,a1,-2
   12cc0:	00f70633          	add	a2,a4,a5
   12cc4:	6614                	ld	a3,8(a2)
   12cc6:	01053803          	ld	a6,16(a0)
   12cca:	9af1                	andi	a3,a3,-4
   12ccc:	14c80063          	beq	a6,a2,12e0c <_free_r+0x172>
   12cd0:	e614                	sd	a3,8(a2)
   12cd2:	8985                	andi	a1,a1,1
   12cd4:	00d60833          	add	a6,a2,a3
   12cd8:	e1c1                	bnez	a1,12d58 <_free_r+0xbe>
   12cda:	ff043303          	ld	t1,-16(s0)
   12cde:	00883583          	ld	a1,8(a6)
   12ce2:	0000c897          	auipc	a7,0xc
   12ce6:	04688893          	addi	a7,a7,70 # 1ed28 <__malloc_av_+0x10>
   12cea:	40670733          	sub	a4,a4,t1
   12cee:	01073803          	ld	a6,16(a4)
   12cf2:	979a                	add	a5,a5,t1
   12cf4:	8985                	andi	a1,a1,1
   12cf6:	0f180863          	beq	a6,a7,12de6 <_free_r+0x14c>
   12cfa:	01873303          	ld	t1,24(a4)
   12cfe:	00683c23          	sd	t1,24(a6)
   12d02:	01033823          	sd	a6,16(t1)
   12d06:	14058d63          	beqz	a1,12e60 <_free_r+0x1c6>
   12d0a:	0017e693          	ori	a3,a5,1
   12d0e:	e714                	sd	a3,8(a4)
   12d10:	e21c                	sd	a5,0(a2)
   12d12:	1ff00693          	li	a3,511
   12d16:	08f6e263          	bltu	a3,a5,12d9a <_free_r+0x100>
   12d1a:	838d                	srli	a5,a5,0x3
   12d1c:	0017869b          	addiw	a3,a5,1
   12d20:	0016969b          	slliw	a3,a3,0x1
   12d24:	068e                	slli	a3,a3,0x3
   12d26:	00853803          	ld	a6,8(a0)
   12d2a:	96aa                	add	a3,a3,a0
   12d2c:	628c                	ld	a1,0(a3)
   12d2e:	4027d61b          	sraiw	a2,a5,0x2
   12d32:	4785                	li	a5,1
   12d34:	00c797b3          	sll	a5,a5,a2
   12d38:	0107e7b3          	or	a5,a5,a6
   12d3c:	ff068613          	addi	a2,a3,-16
   12d40:	ef10                	sd	a2,24(a4)
   12d42:	eb0c                	sd	a1,16(a4)
   12d44:	e51c                	sd	a5,8(a0)
   12d46:	e298                	sd	a4,0(a3)
   12d48:	ed98                	sd	a4,24(a1)
   12d4a:	6442                	ld	s0,16(sp)
   12d4c:	60e2                	ld	ra,24(sp)
   12d4e:	8526                	mv	a0,s1
   12d50:	64a2                	ld	s1,8(sp)
   12d52:	6105                	addi	sp,sp,32
   12d54:	0fe0306f          	j	15e52 <__malloc_unlock>
   12d58:	00883583          	ld	a1,8(a6)
   12d5c:	8985                	andi	a1,a1,1
   12d5e:	e58d                	bnez	a1,12d88 <_free_r+0xee>
   12d60:	97b6                	add	a5,a5,a3
   12d62:	0000c897          	auipc	a7,0xc
   12d66:	fc688893          	addi	a7,a7,-58 # 1ed28 <__malloc_av_+0x10>
   12d6a:	6a14                	ld	a3,16(a2)
   12d6c:	0017e813          	ori	a6,a5,1
   12d70:	00f705b3          	add	a1,a4,a5
   12d74:	11168063          	beq	a3,a7,12e74 <_free_r+0x1da>
   12d78:	6e10                	ld	a2,24(a2)
   12d7a:	ee90                	sd	a2,24(a3)
   12d7c:	ea14                	sd	a3,16(a2)
   12d7e:	01073423          	sd	a6,8(a4)
   12d82:	e19c                	sd	a5,0(a1)
   12d84:	b779                	j	12d12 <_free_r+0x78>
   12d86:	8082                	ret
   12d88:	0017e693          	ori	a3,a5,1
   12d8c:	fed43c23          	sd	a3,-8(s0)
   12d90:	e21c                	sd	a5,0(a2)
   12d92:	1ff00693          	li	a3,511
   12d96:	f8f6f2e3          	bgeu	a3,a5,12d1a <_free_r+0x80>
   12d9a:	0097d693          	srli	a3,a5,0x9
   12d9e:	4611                	li	a2,4
   12da0:	08d66f63          	bltu	a2,a3,12e3e <_free_r+0x1a4>
   12da4:	0067d693          	srli	a3,a5,0x6
   12da8:	0396859b          	addiw	a1,a3,57
   12dac:	0015959b          	slliw	a1,a1,0x1
   12db0:	0386861b          	addiw	a2,a3,56
   12db4:	058e                	slli	a1,a1,0x3
   12db6:	95aa                	add	a1,a1,a0
   12db8:	6194                	ld	a3,0(a1)
   12dba:	15c1                	addi	a1,a1,-16
   12dbc:	0cd58663          	beq	a1,a3,12e88 <_free_r+0x1ee>
   12dc0:	6690                	ld	a2,8(a3)
   12dc2:	9a71                	andi	a2,a2,-4
   12dc4:	00c7f563          	bgeu	a5,a2,12dce <_free_r+0x134>
   12dc8:	6a94                	ld	a3,16(a3)
   12dca:	fed59be3          	bne	a1,a3,12dc0 <_free_r+0x126>
   12dce:	6e8c                	ld	a1,24(a3)
   12dd0:	ef0c                	sd	a1,24(a4)
   12dd2:	eb14                	sd	a3,16(a4)
   12dd4:	6442                	ld	s0,16(sp)
   12dd6:	60e2                	ld	ra,24(sp)
   12dd8:	e998                	sd	a4,16(a1)
   12dda:	8526                	mv	a0,s1
   12ddc:	64a2                	ld	s1,8(sp)
   12dde:	ee98                	sd	a4,24(a3)
   12de0:	6105                	addi	sp,sp,32
   12de2:	0700306f          	j	15e52 <__malloc_unlock>
   12de6:	0e059d63          	bnez	a1,12ee0 <_free_r+0x246>
   12dea:	6e0c                	ld	a1,24(a2)
   12dec:	6a10                	ld	a2,16(a2)
   12dee:	97b6                	add	a5,a5,a3
   12df0:	6442                	ld	s0,16(sp)
   12df2:	ee0c                	sd	a1,24(a2)
   12df4:	e990                	sd	a2,16(a1)
   12df6:	0017e693          	ori	a3,a5,1
   12dfa:	60e2                	ld	ra,24(sp)
   12dfc:	e714                	sd	a3,8(a4)
   12dfe:	8526                	mv	a0,s1
   12e00:	973e                	add	a4,a4,a5
   12e02:	64a2                	ld	s1,8(sp)
   12e04:	e31c                	sd	a5,0(a4)
   12e06:	6105                	addi	sp,sp,32
   12e08:	04a0306f          	j	15e52 <__malloc_unlock>
   12e0c:	8985                	andi	a1,a1,1
   12e0e:	97b6                	add	a5,a5,a3
   12e10:	e989                	bnez	a1,12e22 <_free_r+0x188>
   12e12:	ff043583          	ld	a1,-16(s0)
   12e16:	8f0d                	sub	a4,a4,a1
   12e18:	6f14                	ld	a3,24(a4)
   12e1a:	6b10                	ld	a2,16(a4)
   12e1c:	97ae                	add	a5,a5,a1
   12e1e:	ee14                	sd	a3,24(a2)
   12e20:	ea90                	sd	a2,16(a3)
   12e22:	0017e693          	ori	a3,a5,1
   12e26:	e714                	sd	a3,8(a4)
   12e28:	e918                	sd	a4,16(a0)
   12e2a:	8701b703          	ld	a4,-1936(gp) # 1f598 <__malloc_trim_threshold>
   12e2e:	f0e7eee3          	bltu	a5,a4,12d4a <_free_r+0xb0>
   12e32:	8981b583          	ld	a1,-1896(gp) # 1f5c0 <__malloc_top_pad>
   12e36:	8526                	mv	a0,s1
   12e38:	d95ff0ef          	jal	ra,12bcc <_malloc_trim_r>
   12e3c:	b739                	j	12d4a <_free_r+0xb0>
   12e3e:	4651                	li	a2,20
   12e40:	02d67263          	bgeu	a2,a3,12e64 <_free_r+0x1ca>
   12e44:	05400613          	li	a2,84
   12e48:	04d66b63          	bltu	a2,a3,12e9e <_free_r+0x204>
   12e4c:	00c7d693          	srli	a3,a5,0xc
   12e50:	06f6859b          	addiw	a1,a3,111
   12e54:	0015959b          	slliw	a1,a1,0x1
   12e58:	06e6861b          	addiw	a2,a3,110
   12e5c:	058e                	slli	a1,a1,0x3
   12e5e:	bfa1                	j	12db6 <_free_r+0x11c>
   12e60:	97b6                	add	a5,a5,a3
   12e62:	b721                	j	12d6a <_free_r+0xd0>
   12e64:	05c6859b          	addiw	a1,a3,92
   12e68:	0015959b          	slliw	a1,a1,0x1
   12e6c:	05b6861b          	addiw	a2,a3,91
   12e70:	058e                	slli	a1,a1,0x3
   12e72:	b791                	j	12db6 <_free_r+0x11c>
   12e74:	f518                	sd	a4,40(a0)
   12e76:	f118                	sd	a4,32(a0)
   12e78:	01173c23          	sd	a7,24(a4)
   12e7c:	01173823          	sd	a7,16(a4)
   12e80:	01073423          	sd	a6,8(a4)
   12e84:	e19c                	sd	a5,0(a1)
   12e86:	b5d1                	j	12d4a <_free_r+0xb0>
   12e88:	00853803          	ld	a6,8(a0)
   12e8c:	4026561b          	sraiw	a2,a2,0x2
   12e90:	4785                	li	a5,1
   12e92:	00c79633          	sll	a2,a5,a2
   12e96:	01066633          	or	a2,a2,a6
   12e9a:	e510                	sd	a2,8(a0)
   12e9c:	bf15                	j	12dd0 <_free_r+0x136>
   12e9e:	15400613          	li	a2,340
   12ea2:	00d66c63          	bltu	a2,a3,12eba <_free_r+0x220>
   12ea6:	00f7d693          	srli	a3,a5,0xf
   12eaa:	0786859b          	addiw	a1,a3,120
   12eae:	0015959b          	slliw	a1,a1,0x1
   12eb2:	0776861b          	addiw	a2,a3,119
   12eb6:	058e                	slli	a1,a1,0x3
   12eb8:	bdfd                	j	12db6 <_free_r+0x11c>
   12eba:	55400613          	li	a2,1364
   12ebe:	00d66c63          	bltu	a2,a3,12ed6 <_free_r+0x23c>
   12ec2:	0127d693          	srli	a3,a5,0x12
   12ec6:	07d6859b          	addiw	a1,a3,125
   12eca:	0015959b          	slliw	a1,a1,0x1
   12ece:	07c6861b          	addiw	a2,a3,124
   12ed2:	058e                	slli	a1,a1,0x3
   12ed4:	b5cd                	j	12db6 <_free_r+0x11c>
   12ed6:	7f000593          	li	a1,2032
   12eda:	07e00613          	li	a2,126
   12ede:	bde1                	j	12db6 <_free_r+0x11c>
   12ee0:	0017e693          	ori	a3,a5,1
   12ee4:	e714                	sd	a3,8(a4)
   12ee6:	e21c                	sd	a5,0(a2)
   12ee8:	b58d                	j	12d4a <_free_r+0xb0>

0000000000012eea <__sfvwrite_r>:
   12eea:	6a1c                	ld	a5,16(a2)
   12eec:	1a078c63          	beqz	a5,130a4 <__sfvwrite_r+0x1ba>
   12ef0:	0105d783          	lhu	a5,16(a1)
   12ef4:	711d                	addi	sp,sp,-96
   12ef6:	e8a2                	sd	s0,80(sp)
   12ef8:	f852                	sd	s4,48(sp)
   12efa:	f456                	sd	s5,40(sp)
   12efc:	ec86                	sd	ra,88(sp)
   12efe:	e4a6                	sd	s1,72(sp)
   12f00:	e0ca                	sd	s2,64(sp)
   12f02:	fc4e                	sd	s3,56(sp)
   12f04:	f05a                	sd	s6,32(sp)
   12f06:	ec5e                	sd	s7,24(sp)
   12f08:	e862                	sd	s8,16(sp)
   12f0a:	e466                	sd	s9,8(sp)
   12f0c:	e06a                	sd	s10,0(sp)
   12f0e:	0087f713          	andi	a4,a5,8
   12f12:	8a32                	mv	s4,a2
   12f14:	8aaa                	mv	s5,a0
   12f16:	842e                	mv	s0,a1
   12f18:	c325                	beqz	a4,12f78 <__sfvwrite_r+0x8e>
   12f1a:	6d98                	ld	a4,24(a1)
   12f1c:	cf31                	beqz	a4,12f78 <__sfvwrite_r+0x8e>
   12f1e:	0027f713          	andi	a4,a5,2
   12f22:	000a3903          	ld	s2,0(s4)
   12f26:	c735                	beqz	a4,12f92 <__sfvwrite_r+0xa8>
   12f28:	603c                	ld	a5,64(s0)
   12f2a:	780c                	ld	a1,48(s0)
   12f2c:	80000b37          	lui	s6,0x80000
   12f30:	4981                	li	s3,0
   12f32:	4481                	li	s1,0
   12f34:	c00b4b13          	xori	s6,s6,-1024
   12f38:	864e                	mv	a2,s3
   12f3a:	8556                	mv	a0,s5
   12f3c:	c885                	beqz	s1,12f6c <__sfvwrite_r+0x82>
   12f3e:	86a6                	mv	a3,s1
   12f40:	009b7363          	bgeu	s6,s1,12f46 <__sfvwrite_r+0x5c>
   12f44:	86da                	mv	a3,s6
   12f46:	2681                	sext.w	a3,a3
   12f48:	9782                	jalr	a5
   12f4a:	14a05563          	blez	a0,13094 <__sfvwrite_r+0x1aa>
   12f4e:	010a3783          	ld	a5,16(s4)
   12f52:	99aa                	add	s3,s3,a0
   12f54:	8c89                	sub	s1,s1,a0
   12f56:	40a78533          	sub	a0,a5,a0
   12f5a:	00aa3823          	sd	a0,16(s4)
   12f5e:	10050763          	beqz	a0,1306c <__sfvwrite_r+0x182>
   12f62:	603c                	ld	a5,64(s0)
   12f64:	780c                	ld	a1,48(s0)
   12f66:	864e                	mv	a2,s3
   12f68:	8556                	mv	a0,s5
   12f6a:	f8f1                	bnez	s1,12f3e <__sfvwrite_r+0x54>
   12f6c:	00093983          	ld	s3,0(s2)
   12f70:	00893483          	ld	s1,8(s2)
   12f74:	0941                	addi	s2,s2,16
   12f76:	b7c9                	j	12f38 <__sfvwrite_r+0x4e>
   12f78:	85a2                	mv	a1,s0
   12f7a:	8556                	mv	a0,s5
   12f7c:	e0cff0ef          	jal	ra,12588 <__swsetup_r>
   12f80:	28051863          	bnez	a0,13210 <__sfvwrite_r+0x326>
   12f84:	01045783          	lhu	a5,16(s0)
   12f88:	000a3903          	ld	s2,0(s4)
   12f8c:	0027f713          	andi	a4,a5,2
   12f90:	ff41                	bnez	a4,12f28 <__sfvwrite_r+0x3e>
   12f92:	0017f713          	andi	a4,a5,1
   12f96:	eb35                	bnez	a4,1300a <__sfvwrite_r+0x120>
   12f98:	4444                	lw	s1,12(s0)
   12f9a:	6008                	ld	a0,0(s0)
   12f9c:	80000b37          	lui	s6,0x80000
   12fa0:	ffeb4b93          	xori	s7,s6,-2
   12fa4:	4c01                	li	s8,0
   12fa6:	4981                	li	s3,0
   12fa8:	fffb4b13          	not	s6,s6
   12fac:	8ca6                	mv	s9,s1
   12fae:	04098863          	beqz	s3,12ffe <__sfvwrite_r+0x114>
   12fb2:	2007f713          	andi	a4,a5,512
   12fb6:	12070a63          	beqz	a4,130ea <__sfvwrite_r+0x200>
   12fba:	8d26                	mv	s10,s1
   12fbc:	1899f763          	bgeu	s3,s1,1314a <__sfvwrite_r+0x260>
   12fc0:	8cce                	mv	s9,s3
   12fc2:	8d4e                	mv	s10,s3
   12fc4:	866a                	mv	a2,s10
   12fc6:	85e2                	mv	a1,s8
   12fc8:	5b3020ef          	jal	ra,15d7a <memmove>
   12fcc:	4458                	lw	a4,12(s0)
   12fce:	601c                	ld	a5,0(s0)
   12fd0:	84ce                	mv	s1,s3
   12fd2:	41970cbb          	subw	s9,a4,s9
   12fd6:	97ea                	add	a5,a5,s10
   12fd8:	01942623          	sw	s9,12(s0)
   12fdc:	e01c                	sd	a5,0(s0)
   12fde:	4981                	li	s3,0
   12fe0:	010a3603          	ld	a2,16(s4)
   12fe4:	9c26                	add	s8,s8,s1
   12fe6:	409604b3          	sub	s1,a2,s1
   12fea:	009a3823          	sd	s1,16(s4)
   12fee:	ccbd                	beqz	s1,1306c <__sfvwrite_r+0x182>
   12ff0:	4444                	lw	s1,12(s0)
   12ff2:	6008                	ld	a0,0(s0)
   12ff4:	01045783          	lhu	a5,16(s0)
   12ff8:	8ca6                	mv	s9,s1
   12ffa:	fa099ce3          	bnez	s3,12fb2 <__sfvwrite_r+0xc8>
   12ffe:	00093c03          	ld	s8,0(s2)
   13002:	00893983          	ld	s3,8(s2)
   13006:	0941                	addi	s2,s2,16
   13008:	b755                	j	12fac <__sfvwrite_r+0xc2>
   1300a:	4981                	li	s3,0
   1300c:	4501                	li	a0,0
   1300e:	4c81                	li	s9,0
   13010:	4c01                	li	s8,0
   13012:	080c0b63          	beqz	s8,130a8 <__sfvwrite_r+0x1be>
   13016:	c145                	beqz	a0,130b6 <__sfvwrite_r+0x1cc>
   13018:	8bce                	mv	s7,s3
   1301a:	013c7363          	bgeu	s8,s3,13020 <__sfvwrite_r+0x136>
   1301e:	8be2                	mv	s7,s8
   13020:	6008                	ld	a0,0(s0)
   13022:	6c1c                	ld	a5,24(s0)
   13024:	5014                	lw	a3,32(s0)
   13026:	84de                	mv	s1,s7
   13028:	00a7f763          	bgeu	a5,a0,13036 <__sfvwrite_r+0x14c>
   1302c:	445c                	lw	a5,12(s0)
   1302e:	00d78b3b          	addw	s6,a5,a3
   13032:	097b4d63          	blt	s6,s7,130cc <__sfvwrite_r+0x1e2>
   13036:	18dbc463          	blt	s7,a3,131be <__sfvwrite_r+0x2d4>
   1303a:	603c                	ld	a5,64(s0)
   1303c:	780c                	ld	a1,48(s0)
   1303e:	8666                	mv	a2,s9
   13040:	8556                	mv	a0,s5
   13042:	9782                	jalr	a5
   13044:	84aa                	mv	s1,a0
   13046:	04a05763          	blez	a0,13094 <__sfvwrite_r+0x1aa>
   1304a:	0005079b          	sext.w	a5,a0
   1304e:	40f989bb          	subw	s3,s3,a5
   13052:	4505                	li	a0,1
   13054:	02098b63          	beqz	s3,1308a <__sfvwrite_r+0x1a0>
   13058:	010a3783          	ld	a5,16(s4)
   1305c:	9ca6                	add	s9,s9,s1
   1305e:	409c0c33          	sub	s8,s8,s1
   13062:	409784b3          	sub	s1,a5,s1
   13066:	009a3823          	sd	s1,16(s4)
   1306a:	f4c5                	bnez	s1,13012 <__sfvwrite_r+0x128>
   1306c:	4501                	li	a0,0
   1306e:	60e6                	ld	ra,88(sp)
   13070:	6446                	ld	s0,80(sp)
   13072:	64a6                	ld	s1,72(sp)
   13074:	6906                	ld	s2,64(sp)
   13076:	79e2                	ld	s3,56(sp)
   13078:	7a42                	ld	s4,48(sp)
   1307a:	7aa2                	ld	s5,40(sp)
   1307c:	7b02                	ld	s6,32(sp)
   1307e:	6be2                	ld	s7,24(sp)
   13080:	6c42                	ld	s8,16(sp)
   13082:	6ca2                	ld	s9,8(sp)
   13084:	6d02                	ld	s10,0(sp)
   13086:	6125                	addi	sp,sp,96
   13088:	8082                	ret
   1308a:	85a2                	mv	a1,s0
   1308c:	8556                	mv	a0,s5
   1308e:	845ff0ef          	jal	ra,128d2 <_fflush_r>
   13092:	d179                	beqz	a0,13058 <__sfvwrite_r+0x16e>
   13094:	01041783          	lh	a5,16(s0)
   13098:	0407e793          	ori	a5,a5,64
   1309c:	00f41823          	sh	a5,16(s0)
   130a0:	557d                	li	a0,-1
   130a2:	b7f1                	j	1306e <__sfvwrite_r+0x184>
   130a4:	4501                	li	a0,0
   130a6:	8082                	ret
   130a8:	00893c03          	ld	s8,8(s2)
   130ac:	00093c83          	ld	s9,0(s2)
   130b0:	0941                	addi	s2,s2,16
   130b2:	fe0c0be3          	beqz	s8,130a8 <__sfvwrite_r+0x1be>
   130b6:	8662                	mv	a2,s8
   130b8:	45a9                	li	a1,10
   130ba:	8566                	mv	a0,s9
   130bc:	343020ef          	jal	ra,15bfe <memchr>
   130c0:	12050f63          	beqz	a0,131fe <__sfvwrite_r+0x314>
   130c4:	0505                	addi	a0,a0,1
   130c6:	419509bb          	subw	s3,a0,s9
   130ca:	b7b9                	j	13018 <__sfvwrite_r+0x12e>
   130cc:	85e6                	mv	a1,s9
   130ce:	865a                	mv	a2,s6
   130d0:	4ab020ef          	jal	ra,15d7a <memmove>
   130d4:	601c                	ld	a5,0(s0)
   130d6:	85a2                	mv	a1,s0
   130d8:	8556                	mv	a0,s5
   130da:	97da                	add	a5,a5,s6
   130dc:	e01c                	sd	a5,0(s0)
   130de:	ff4ff0ef          	jal	ra,128d2 <_fflush_r>
   130e2:	f94d                	bnez	a0,13094 <__sfvwrite_r+0x1aa>
   130e4:	87da                	mv	a5,s6
   130e6:	84da                	mv	s1,s6
   130e8:	b79d                	j	1304e <__sfvwrite_r+0x164>
   130ea:	6c1c                	ld	a5,24(s0)
   130ec:	02a7e863          	bltu	a5,a0,1311c <__sfvwrite_r+0x232>
   130f0:	501c                	lw	a5,32(s0)
   130f2:	02f9e563          	bltu	s3,a5,1311c <__sfvwrite_r+0x232>
   130f6:	86ce                	mv	a3,s3
   130f8:	013bf363          	bgeu	s7,s3,130fe <__sfvwrite_r+0x214>
   130fc:	86da                	mv	a3,s6
   130fe:	02f6c6bb          	divw	a3,a3,a5
   13102:	6038                	ld	a4,64(s0)
   13104:	780c                	ld	a1,48(s0)
   13106:	8662                	mv	a2,s8
   13108:	8556                	mv	a0,s5
   1310a:	02f686bb          	mulw	a3,a3,a5
   1310e:	9702                	jalr	a4
   13110:	84aa                	mv	s1,a0
   13112:	f8a051e3          	blez	a0,13094 <__sfvwrite_r+0x1aa>
   13116:	409989b3          	sub	s3,s3,s1
   1311a:	b5d9                	j	12fe0 <__sfvwrite_r+0xf6>
   1311c:	0099f363          	bgeu	s3,s1,13122 <__sfvwrite_r+0x238>
   13120:	84ce                	mv	s1,s3
   13122:	8626                	mv	a2,s1
   13124:	85e2                	mv	a1,s8
   13126:	455020ef          	jal	ra,15d7a <memmove>
   1312a:	445c                	lw	a5,12(s0)
   1312c:	6018                	ld	a4,0(s0)
   1312e:	409786bb          	subw	a3,a5,s1
   13132:	9726                	add	a4,a4,s1
   13134:	c454                	sw	a3,12(s0)
   13136:	e018                	sd	a4,0(s0)
   13138:	fef9                	bnez	a3,13116 <__sfvwrite_r+0x22c>
   1313a:	85a2                	mv	a1,s0
   1313c:	8556                	mv	a0,s5
   1313e:	f94ff0ef          	jal	ra,128d2 <_fflush_r>
   13142:	f929                	bnez	a0,13094 <__sfvwrite_r+0x1aa>
   13144:	409989b3          	sub	s3,s3,s1
   13148:	bd61                	j	12fe0 <__sfvwrite_r+0xf6>
   1314a:	4807f713          	andi	a4,a5,1152
   1314e:	e6070be3          	beqz	a4,12fc4 <__sfvwrite_r+0xda>
   13152:	5004                	lw	s1,32(s0)
   13154:	6c0c                	ld	a1,24(s0)
   13156:	00198713          	addi	a4,s3,1
   1315a:	0014969b          	slliw	a3,s1,0x1
   1315e:	9ea5                	addw	a3,a3,s1
   13160:	8d0d                	sub	a0,a0,a1
   13162:	01f6d49b          	srliw	s1,a3,0x1f
   13166:	00050d1b          	sext.w	s10,a0
   1316a:	9cb5                	addw	s1,s1,a3
   1316c:	4014d49b          	sraiw	s1,s1,0x1
   13170:	976a                	add	a4,a4,s10
   13172:	00e4f563          	bgeu	s1,a4,1317c <__sfvwrite_r+0x292>
   13176:	0019849b          	addiw	s1,s3,1
   1317a:	9ca9                	addw	s1,s1,a0
   1317c:	4007f793          	andi	a5,a5,1024
   13180:	cfa9                	beqz	a5,131da <__sfvwrite_r+0x2f0>
   13182:	85a6                	mv	a1,s1
   13184:	8556                	mv	a0,s5
   13186:	408020ef          	jal	ra,1558e <_malloc_r>
   1318a:	8caa                	mv	s9,a0
   1318c:	cd25                	beqz	a0,13204 <__sfvwrite_r+0x31a>
   1318e:	6c0c                	ld	a1,24(s0)
   13190:	866a                	mv	a2,s10
   13192:	30b020ef          	jal	ra,15c9c <memcpy>
   13196:	01045783          	lhu	a5,16(s0)
   1319a:	b7f7f793          	andi	a5,a5,-1153
   1319e:	0807e793          	ori	a5,a5,128
   131a2:	00f41823          	sh	a5,16(s0)
   131a6:	01ac8533          	add	a0,s9,s10
   131aa:	41a487bb          	subw	a5,s1,s10
   131ae:	01943c23          	sd	s9,24(s0)
   131b2:	e008                	sd	a0,0(s0)
   131b4:	d004                	sw	s1,32(s0)
   131b6:	8cce                	mv	s9,s3
   131b8:	c45c                	sw	a5,12(s0)
   131ba:	8d4e                	mv	s10,s3
   131bc:	b521                	j	12fc4 <__sfvwrite_r+0xda>
   131be:	865e                	mv	a2,s7
   131c0:	85e6                	mv	a1,s9
   131c2:	3b9020ef          	jal	ra,15d7a <memmove>
   131c6:	4458                	lw	a4,12(s0)
   131c8:	6010                	ld	a2,0(s0)
   131ca:	000b879b          	sext.w	a5,s7
   131ce:	4177073b          	subw	a4,a4,s7
   131d2:	965e                	add	a2,a2,s7
   131d4:	c458                	sw	a4,12(s0)
   131d6:	e010                	sd	a2,0(s0)
   131d8:	bd9d                	j	1304e <__sfvwrite_r+0x164>
   131da:	8626                	mv	a2,s1
   131dc:	8556                	mv	a0,s5
   131de:	7f4030ef          	jal	ra,169d2 <_realloc_r>
   131e2:	8caa                	mv	s9,a0
   131e4:	f169                	bnez	a0,131a6 <__sfvwrite_r+0x2bc>
   131e6:	6c0c                	ld	a1,24(s0)
   131e8:	8556                	mv	a0,s5
   131ea:	ab1ff0ef          	jal	ra,12c9a <_free_r>
   131ee:	01041783          	lh	a5,16(s0)
   131f2:	4731                	li	a4,12
   131f4:	00eaa023          	sw	a4,0(s5)
   131f8:	f7f7f793          	andi	a5,a5,-129
   131fc:	bd71                	j	13098 <__sfvwrite_r+0x1ae>
   131fe:	001c099b          	addiw	s3,s8,1
   13202:	bd19                	j	13018 <__sfvwrite_r+0x12e>
   13204:	4731                	li	a4,12
   13206:	01041783          	lh	a5,16(s0)
   1320a:	00eaa023          	sw	a4,0(s5)
   1320e:	b569                	j	13098 <__sfvwrite_r+0x1ae>
   13210:	557d                	li	a0,-1
   13212:	bdb1                	j	1306e <__sfvwrite_r+0x184>

0000000000013214 <_fwalk>:
   13214:	715d                	addi	sp,sp,-80
   13216:	f84a                	sd	s2,48(sp)
   13218:	f44e                	sd	s3,40(sp)
   1321a:	f052                	sd	s4,32(sp)
   1321c:	ec56                	sd	s5,24(sp)
   1321e:	e85a                	sd	s6,16(sp)
   13220:	e45e                	sd	s7,8(sp)
   13222:	e486                	sd	ra,72(sp)
   13224:	e0a2                	sd	s0,64(sp)
   13226:	fc26                	sd	s1,56(sp)
   13228:	8a2e                	mv	s4,a1
   1322a:	52050913          	addi	s2,a0,1312
   1322e:	4b01                	li	s6,0
   13230:	0b000a93          	li	s5,176
   13234:	4b85                	li	s7,1
   13236:	59fd                	li	s3,-1
   13238:	00892783          	lw	a5,8(s2)
   1323c:	01093403          	ld	s0,16(s2)
   13240:	02f05b63          	blez	a5,13276 <_fwalk+0x62>
   13244:	fff7849b          	addiw	s1,a5,-1
   13248:	1482                	slli	s1,s1,0x20
   1324a:	9081                	srli	s1,s1,0x20
   1324c:	0485                	addi	s1,s1,1
   1324e:	035484b3          	mul	s1,s1,s5
   13252:	94a2                	add	s1,s1,s0
   13254:	01045783          	lhu	a5,16(s0)
   13258:	00fbfb63          	bgeu	s7,a5,1326e <_fwalk+0x5a>
   1325c:	01241783          	lh	a5,18(s0)
   13260:	8522                	mv	a0,s0
   13262:	01378663          	beq	a5,s3,1326e <_fwalk+0x5a>
   13266:	9a02                	jalr	s4
   13268:	01656b33          	or	s6,a0,s6
   1326c:	2b01                	sext.w	s6,s6
   1326e:	0b040413          	addi	s0,s0,176
   13272:	fe8491e3          	bne	s1,s0,13254 <_fwalk+0x40>
   13276:	00093903          	ld	s2,0(s2)
   1327a:	fa091fe3          	bnez	s2,13238 <_fwalk+0x24>
   1327e:	60a6                	ld	ra,72(sp)
   13280:	6406                	ld	s0,64(sp)
   13282:	74e2                	ld	s1,56(sp)
   13284:	7942                	ld	s2,48(sp)
   13286:	79a2                	ld	s3,40(sp)
   13288:	7a02                	ld	s4,32(sp)
   1328a:	6ae2                	ld	s5,24(sp)
   1328c:	6ba2                	ld	s7,8(sp)
   1328e:	855a                	mv	a0,s6
   13290:	6b42                	ld	s6,16(sp)
   13292:	6161                	addi	sp,sp,80
   13294:	8082                	ret

0000000000013296 <_fwalk_reent>:
   13296:	715d                	addi	sp,sp,-80
   13298:	f84a                	sd	s2,48(sp)
   1329a:	f44e                	sd	s3,40(sp)
   1329c:	f052                	sd	s4,32(sp)
   1329e:	ec56                	sd	s5,24(sp)
   132a0:	e85a                	sd	s6,16(sp)
   132a2:	e45e                	sd	s7,8(sp)
   132a4:	e062                	sd	s8,0(sp)
   132a6:	e486                	sd	ra,72(sp)
   132a8:	e0a2                	sd	s0,64(sp)
   132aa:	fc26                	sd	s1,56(sp)
   132ac:	8c2a                	mv	s8,a0
   132ae:	8a2e                	mv	s4,a1
   132b0:	52050913          	addi	s2,a0,1312
   132b4:	4b01                	li	s6,0
   132b6:	0b000a93          	li	s5,176
   132ba:	4b85                	li	s7,1
   132bc:	59fd                	li	s3,-1
   132be:	00892783          	lw	a5,8(s2)
   132c2:	01093403          	ld	s0,16(s2)
   132c6:	02f05c63          	blez	a5,132fe <_fwalk_reent+0x68>
   132ca:	fff7849b          	addiw	s1,a5,-1
   132ce:	1482                	slli	s1,s1,0x20
   132d0:	9081                	srli	s1,s1,0x20
   132d2:	0485                	addi	s1,s1,1
   132d4:	035484b3          	mul	s1,s1,s5
   132d8:	94a2                	add	s1,s1,s0
   132da:	01045783          	lhu	a5,16(s0)
   132de:	00fbfc63          	bgeu	s7,a5,132f6 <_fwalk_reent+0x60>
   132e2:	01241783          	lh	a5,18(s0)
   132e6:	85a2                	mv	a1,s0
   132e8:	8562                	mv	a0,s8
   132ea:	01378663          	beq	a5,s3,132f6 <_fwalk_reent+0x60>
   132ee:	9a02                	jalr	s4
   132f0:	01656b33          	or	s6,a0,s6
   132f4:	2b01                	sext.w	s6,s6
   132f6:	0b040413          	addi	s0,s0,176
   132fa:	fe8490e3          	bne	s1,s0,132da <_fwalk_reent+0x44>
   132fe:	00093903          	ld	s2,0(s2)
   13302:	fa091ee3          	bnez	s2,132be <_fwalk_reent+0x28>
   13306:	60a6                	ld	ra,72(sp)
   13308:	6406                	ld	s0,64(sp)
   1330a:	74e2                	ld	s1,56(sp)
   1330c:	7942                	ld	s2,48(sp)
   1330e:	79a2                	ld	s3,40(sp)
   13310:	7a02                	ld	s4,32(sp)
   13312:	6ae2                	ld	s5,24(sp)
   13314:	6ba2                	ld	s7,8(sp)
   13316:	6c02                	ld	s8,0(sp)
   13318:	855a                	mv	a0,s6
   1331a:	6b42                	ld	s6,16(sp)
   1331c:	6161                	addi	sp,sp,80
   1331e:	8082                	ret

0000000000013320 <eshdn1>:
   13320:	00450693          	addi	a3,a0,4
   13324:	4781                	li	a5,0
   13326:	0569                	addi	a0,a0,26
   13328:	7861                	lui	a6,0xffff8
   1332a:	a811                	j	1333e <eshdn1+0x1e>
   1332c:	0017979b          	slliw	a5,a5,0x1
   13330:	00e69023          	sh	a4,0(a3)
   13334:	17c2                	slli	a5,a5,0x30
   13336:	0689                	addi	a3,a3,2
   13338:	93c1                	srli	a5,a5,0x30
   1333a:	02d50863          	beq	a0,a3,1336a <eshdn1+0x4a>
   1333e:	0006d703          	lhu	a4,0(a3)
   13342:	00177613          	andi	a2,a4,1
   13346:	c219                	beqz	a2,1334c <eshdn1+0x2c>
   13348:	0017e793          	ori	a5,a5,1
   1334c:	8305                	srli	a4,a4,0x1
   1334e:	0027f613          	andi	a2,a5,2
   13352:	010765b3          	or	a1,a4,a6
   13356:	da79                	beqz	a2,1332c <eshdn1+0xc>
   13358:	0017979b          	slliw	a5,a5,0x1
   1335c:	00b69023          	sh	a1,0(a3)
   13360:	17c2                	slli	a5,a5,0x30
   13362:	0689                	addi	a3,a3,2
   13364:	93c1                	srli	a5,a5,0x30
   13366:	fcd51ce3          	bne	a0,a3,1333e <eshdn1+0x1e>
   1336a:	8082                	ret

000000000001336c <eshup1>:
   1336c:	01850693          	addi	a3,a0,24
   13370:	4701                	li	a4,0
   13372:	0509                	addi	a0,a0,2
   13374:	a811                	j	13388 <eshup1+0x1c>
   13376:	0017171b          	slliw	a4,a4,0x1
   1337a:	00f69023          	sh	a5,0(a3)
   1337e:	1742                	slli	a4,a4,0x30
   13380:	16f9                	addi	a3,a3,-2
   13382:	9341                	srli	a4,a4,0x30
   13384:	04d50063          	beq	a0,a3,133c4 <eshup1+0x58>
   13388:	0006d783          	lhu	a5,0(a3)
   1338c:	0107961b          	slliw	a2,a5,0x10
   13390:	4106561b          	sraiw	a2,a2,0x10
   13394:	02061593          	slli	a1,a2,0x20
   13398:	0017979b          	slliw	a5,a5,0x1
   1339c:	0005d463          	bgez	a1,133a4 <eshup1+0x38>
   133a0:	00176713          	ori	a4,a4,1
   133a4:	17c2                	slli	a5,a5,0x30
   133a6:	93c1                	srli	a5,a5,0x30
   133a8:	00277613          	andi	a2,a4,2
   133ac:	0017e593          	ori	a1,a5,1
   133b0:	d279                	beqz	a2,13376 <eshup1+0xa>
   133b2:	0017171b          	slliw	a4,a4,0x1
   133b6:	00b69023          	sh	a1,0(a3)
   133ba:	1742                	slli	a4,a4,0x30
   133bc:	16f9                	addi	a3,a3,-2
   133be:	9341                	srli	a4,a4,0x30
   133c0:	fcd514e3          	bne	a0,a3,13388 <eshup1+0x1c>
   133c4:	8082                	ret

00000000000133c6 <m16m>:
   133c6:	1101                	addi	sp,sp,-32
   133c8:	6e41                	lui	t3,0x10
   133ca:	00011b23          	sh	zero,22(sp)
   133ce:	00011c23          	sh	zero,24(sp)
   133d2:	05e1                	addi	a1,a1,24
   133d4:	083c                	addi	a5,sp,24
   133d6:	00410813          	addi	a6,sp,4
   133da:	1e7d                	addi	t3,t3,-1
   133dc:	0005d703          	lhu	a4,0(a1)
   133e0:	17f9                	addi	a5,a5,-2
   133e2:	15f9                	addi	a1,a1,-2
   133e4:	e315                	bnez	a4,13408 <m16m+0x42>
   133e6:	fe079f23          	sh	zero,-2(a5)
   133ea:	ff0799e3          	bne	a5,a6,133dc <m16m+0x16>
   133ee:	0611                	addi	a2,a2,4
   133f0:	01a10693          	addi	a3,sp,26
   133f4:	0007d703          	lhu	a4,0(a5)
   133f8:	0789                	addi	a5,a5,2
   133fa:	0609                	addi	a2,a2,2
   133fc:	fee61f23          	sh	a4,-2(a2)
   13400:	fed79ae3          	bne	a5,a3,133f4 <m16m+0x2e>
   13404:	6105                	addi	sp,sp,32
   13406:	8082                	ret
   13408:	02a70733          	mul	a4,a4,a0
   1340c:	0027d883          	lhu	a7,2(a5)
   13410:	0007d303          	lhu	t1,0(a5)
   13414:	01c776b3          	and	a3,a4,t3
   13418:	96c6                	add	a3,a3,a7
   1341a:	8341                	srli	a4,a4,0x10
   1341c:	0106d893          	srli	a7,a3,0x10
   13420:	971a                	add	a4,a4,t1
   13422:	9746                	add	a4,a4,a7
   13424:	01075893          	srli	a7,a4,0x10
   13428:	00d79123          	sh	a3,2(a5)
   1342c:	00e79023          	sh	a4,0(a5)
   13430:	ff179f23          	sh	a7,-2(a5)
   13434:	fb0794e3          	bne	a5,a6,133dc <m16m+0x16>
   13438:	bf5d                	j	133ee <m16m+0x28>

000000000001343a <eisnan.part.0>:
   1343a:	01250713          	addi	a4,a0,18
   1343e:	00055783          	lhu	a5,0(a0)
   13442:	0509                	addi	a0,a0,2
   13444:	e789                	bnez	a5,1344e <eisnan.part.0+0x14>
   13446:	fee51ce3          	bne	a0,a4,1343e <eisnan.part.0+0x4>
   1344a:	4501                	li	a0,0
   1344c:	8082                	ret
   1344e:	4505                	li	a0,1
   13450:	8082                	ret

0000000000013452 <eneg>:
   13452:	1101                	addi	sp,sp,-32
   13454:	e426                	sd	s1,8(sp)
   13456:	01255483          	lhu	s1,18(a0)
   1345a:	e822                	sd	s0,16(sp)
   1345c:	ec06                	sd	ra,24(sp)
   1345e:	fff4c793          	not	a5,s1
   13462:	03179713          	slli	a4,a5,0x31
   13466:	842a                	mv	s0,a0
   13468:	e701                	bnez	a4,13470 <eneg+0x1e>
   1346a:	fd1ff0ef          	jal	ra,1343a <eisnan.part.0>
   1346e:	e509                	bnez	a0,13478 <eneg+0x26>
   13470:	77e1                	lui	a5,0xffff8
   13472:	8cbd                	xor	s1,s1,a5
   13474:	00941923          	sh	s1,18(s0)
   13478:	60e2                	ld	ra,24(sp)
   1347a:	6442                	ld	s0,16(sp)
   1347c:	64a2                	ld	s1,8(sp)
   1347e:	6105                	addi	sp,sp,32
   13480:	8082                	ret

0000000000013482 <eisneg>:
   13482:	1141                	addi	sp,sp,-16
   13484:	e022                	sd	s0,0(sp)
   13486:	01255403          	lhu	s0,18(a0)
   1348a:	e406                	sd	ra,8(sp)
   1348c:	fff44793          	not	a5,s0
   13490:	03179713          	slli	a4,a5,0x31
   13494:	e711                	bnez	a4,134a0 <eisneg+0x1e>
   13496:	fa5ff0ef          	jal	ra,1343a <eisnan.part.0>
   1349a:	87aa                	mv	a5,a0
   1349c:	4501                	li	a0,0
   1349e:	e399                	bnez	a5,134a4 <eisneg+0x22>
   134a0:	00f45513          	srli	a0,s0,0xf
   134a4:	60a2                	ld	ra,8(sp)
   134a6:	6402                	ld	s0,0(sp)
   134a8:	0141                	addi	sp,sp,16
   134aa:	8082                	ret

00000000000134ac <emovi>:
   134ac:	01255783          	lhu	a5,18(a0)
   134b0:	7139                	addi	sp,sp,-64
   134b2:	f822                	sd	s0,48(sp)
   134b4:	00f7d79b          	srliw	a5,a5,0xf
   134b8:	f426                	sd	s1,40(sp)
   134ba:	fc06                	sd	ra,56(sp)
   134bc:	f04a                	sd	s2,32(sp)
   134be:	ec4e                	sd	s3,24(sp)
   134c0:	40f007bb          	negw	a5,a5
   134c4:	00f59023          	sh	a5,0(a1)
   134c8:	01255783          	lhu	a5,18(a0)
   134cc:	6721                	lui	a4,0x8
   134ce:	177d                	addi	a4,a4,-1
   134d0:	8ff9                	and	a5,a5,a4
   134d2:	00f59123          	sh	a5,2(a1)
   134d6:	84aa                	mv	s1,a0
   134d8:	01050413          	addi	s0,a0,16
   134dc:	02e78863          	beq	a5,a4,1350c <emovi+0x60>
   134e0:	00658793          	addi	a5,a1,6
   134e4:	00059223          	sh	zero,4(a1)
   134e8:	1579                	addi	a0,a0,-2
   134ea:	00045703          	lhu	a4,0(s0)
   134ee:	1479                	addi	s0,s0,-2
   134f0:	0789                	addi	a5,a5,2
   134f2:	fee79f23          	sh	a4,-2(a5) # ffffffffffff7ffe <__BSS_END__+0xfffffffffffbf946>
   134f6:	fe851ae3          	bne	a0,s0,134ea <emovi+0x3e>
   134fa:	00059c23          	sh	zero,24(a1)
   134fe:	70e2                	ld	ra,56(sp)
   13500:	7442                	ld	s0,48(sp)
   13502:	74a2                	ld	s1,40(sp)
   13504:	7902                	ld	s2,32(sp)
   13506:	69e2                	ld	s3,24(sp)
   13508:	6121                	addi	sp,sp,64
   1350a:	8082                	ret
   1350c:	0007869b          	sext.w	a3,a5
   13510:	01255783          	lhu	a5,18(a0)
   13514:	00458913          	addi	s2,a1,4
   13518:	8ff5                	and	a5,a5,a3
   1351a:	02d79663          	bne	a5,a3,13546 <emovi+0x9a>
   1351e:	e42e                	sd	a1,8(sp)
   13520:	f1bff0ef          	jal	ra,1343a <eisnan.part.0>
   13524:	65a2                	ld	a1,8(sp)
   13526:	c105                	beqz	a0,13546 <emovi+0x9a>
   13528:	00658793          	addi	a5,a1,6
   1352c:	00059223          	sh	zero,4(a1)
   13530:	ffc48513          	addi	a0,s1,-4
   13534:	00045703          	lhu	a4,0(s0)
   13538:	1479                	addi	s0,s0,-2
   1353a:	0789                	addi	a5,a5,2
   1353c:	fee79f23          	sh	a4,-2(a5)
   13540:	fe851ae3          	bne	a0,s0,13534 <emovi+0x88>
   13544:	bf6d                	j	134fe <emovi+0x52>
   13546:	01a58993          	addi	s3,a1,26
   1354a:	0909                	addi	s2,s2,2
   1354c:	fe091f23          	sh	zero,-2(s2)
   13550:	ff299de3          	bne	s3,s2,1354a <emovi+0x9e>
   13554:	70e2                	ld	ra,56(sp)
   13556:	7442                	ld	s0,48(sp)
   13558:	74a2                	ld	s1,40(sp)
   1355a:	7902                	ld	s2,32(sp)
   1355c:	69e2                	ld	s3,24(sp)
   1355e:	6121                	addi	sp,sp,64
   13560:	8082                	ret

0000000000013562 <ecmp>:
   13562:	01255783          	lhu	a5,18(a0)
   13566:	711d                	addi	sp,sp,-96
   13568:	e8a2                	sd	s0,80(sp)
   1356a:	fff7c793          	not	a5,a5
   1356e:	e4a6                	sd	s1,72(sp)
   13570:	ec86                	sd	ra,88(sp)
   13572:	03179713          	slli	a4,a5,0x31
   13576:	84aa                	mv	s1,a0
   13578:	842e                	mv	s0,a1
   1357a:	e701                	bnez	a4,13582 <ecmp+0x20>
   1357c:	ebfff0ef          	jal	ra,1343a <eisnan.part.0>
   13580:	ed39                	bnez	a0,135de <ecmp+0x7c>
   13582:	01245783          	lhu	a5,18(s0)
   13586:	fff7c793          	not	a5,a5
   1358a:	03179713          	slli	a4,a5,0x31
   1358e:	c721                	beqz	a4,135d6 <ecmp+0x74>
   13590:	858a                	mv	a1,sp
   13592:	8526                	mv	a0,s1
   13594:	f19ff0ef          	jal	ra,134ac <emovi>
   13598:	100c                	addi	a1,sp,32
   1359a:	8522                	mv	a0,s0
   1359c:	f11ff0ef          	jal	ra,134ac <emovi>
   135a0:	00015583          	lhu	a1,0(sp)
   135a4:	02015783          	lhu	a5,32(sp)
   135a8:	02b78d63          	beq	a5,a1,135e2 <ecmp+0x80>
   135ac:	00210793          	addi	a5,sp,2
   135b0:	02210713          	addi	a4,sp,34
   135b4:	0830                	addi	a2,sp,24
   135b6:	0007d683          	lhu	a3,0(a5)
   135ba:	0789                	addi	a5,a5,2
   135bc:	e2ad                	bnez	a3,1361e <ecmp+0xbc>
   135be:	00075683          	lhu	a3,0(a4) # 8000 <register_fini-0x80b0>
   135c2:	0709                	addi	a4,a4,2
   135c4:	eea9                	bnez	a3,1361e <ecmp+0xbc>
   135c6:	fec798e3          	bne	a5,a2,135b6 <ecmp+0x54>
   135ca:	4501                	li	a0,0
   135cc:	60e6                	ld	ra,88(sp)
   135ce:	6446                	ld	s0,80(sp)
   135d0:	64a6                	ld	s1,72(sp)
   135d2:	6125                	addi	sp,sp,96
   135d4:	8082                	ret
   135d6:	8522                	mv	a0,s0
   135d8:	e63ff0ef          	jal	ra,1343a <eisnan.part.0>
   135dc:	d955                	beqz	a0,13590 <ecmp+0x2e>
   135de:	5579                	li	a0,-2
   135e0:	b7f5                	j	135cc <ecmp+0x6a>
   135e2:	4505                	li	a0,1
   135e4:	e1a9                	bnez	a1,13626 <ecmp+0xc4>
   135e6:	00215603          	lhu	a2,2(sp)
   135ea:	02215683          	lhu	a3,34(sp)
   135ee:	00210713          	addi	a4,sp,2
   135f2:	02210793          	addi	a5,sp,34
   135f6:	182c                	addi	a1,sp,56
   135f8:	0789                	addi	a5,a5,2
   135fa:	0709                	addi	a4,a4,2
   135fc:	00d61c63          	bne	a2,a3,13614 <ecmp+0xb2>
   13600:	fcb785e3          	beq	a5,a1,135ca <ecmp+0x68>
   13604:	00075603          	lhu	a2,0(a4)
   13608:	0007d683          	lhu	a3,0(a5)
   1360c:	0709                	addi	a4,a4,2
   1360e:	0789                	addi	a5,a5,2
   13610:	fed608e3          	beq	a2,a3,13600 <ecmp+0x9e>
   13614:	fac6ece3          	bltu	a3,a2,135cc <ecmp+0x6a>
   13618:	40a0053b          	negw	a0,a0
   1361c:	bf45                	j	135cc <ecmp+0x6a>
   1361e:	4505                	li	a0,1
   13620:	d5d5                	beqz	a1,135cc <ecmp+0x6a>
   13622:	557d                	li	a0,-1
   13624:	b765                	j	135cc <ecmp+0x6a>
   13626:	557d                	li	a0,-1
   13628:	bf7d                	j	135e6 <ecmp+0x84>

000000000001362a <eisinf.part.0>:
   1362a:	1141                	addi	sp,sp,-16
   1362c:	e406                	sd	ra,8(sp)
   1362e:	e0dff0ef          	jal	ra,1343a <eisnan.part.0>
   13632:	60a2                	ld	ra,8(sp)
   13634:	00153513          	seqz	a0,a0
   13638:	0141                	addi	sp,sp,16
   1363a:	8082                	ret

000000000001363c <eshift.part.0>:
   1363c:	7179                	addi	sp,sp,-48
   1363e:	f022                	sd	s0,32(sp)
   13640:	ec26                	sd	s1,24(sp)
   13642:	f406                	sd	ra,40(sp)
   13644:	e84a                	sd	s2,16(sp)
   13646:	e44e                	sd	s3,8(sp)
   13648:	84ae                	mv	s1,a1
   1364a:	842a                	mv	s0,a0
   1364c:	0605cb63          	bltz	a1,136c2 <eshift.part.0+0x86>
   13650:	47bd                	li	a5,15
   13652:	862e                	mv	a2,a1
   13654:	0511                	addi	a0,a0,4
   13656:	01840693          	addi	a3,s0,24
   1365a:	45bd                	li	a1,15
   1365c:	0297d063          	bge	a5,s1,1367c <eshift.part.0+0x40>
   13660:	87aa                	mv	a5,a0
   13662:	0027d703          	lhu	a4,2(a5)
   13666:	0789                	addi	a5,a5,2
   13668:	fee79f23          	sh	a4,-2(a5)
   1366c:	fed79be3          	bne	a5,a3,13662 <eshift.part.0+0x26>
   13670:	00041c23          	sh	zero,24(s0)
   13674:	3641                	addiw	a2,a2,-16
   13676:	fec5c5e3          	blt	a1,a2,13660 <eshift.part.0+0x24>
   1367a:	88bd                	andi	s1,s1,15
   1367c:	479d                	li	a5,7
   1367e:	0297d463          	bge	a5,s1,136a6 <eshift.part.0+0x6a>
   13682:	01840713          	addi	a4,s0,24
   13686:	00240593          	addi	a1,s0,2
   1368a:	4781                	li	a5,0
   1368c:	00075683          	lhu	a3,0(a4)
   13690:	1779                	addi	a4,a4,-2
   13692:	00869613          	slli	a2,a3,0x8
   13696:	8fd1                	or	a5,a5,a2
   13698:	00f71123          	sh	a5,2(a4)
   1369c:	0086d793          	srli	a5,a3,0x8
   136a0:	feb716e3          	bne	a4,a1,1368c <eshift.part.0+0x50>
   136a4:	34e1                	addiw	s1,s1,-8
   136a6:	c491                	beqz	s1,136b2 <eshift.part.0+0x76>
   136a8:	34fd                	addiw	s1,s1,-1
   136aa:	8522                	mv	a0,s0
   136ac:	cc1ff0ef          	jal	ra,1336c <eshup1>
   136b0:	fce5                	bnez	s1,136a8 <eshift.part.0+0x6c>
   136b2:	4501                	li	a0,0
   136b4:	70a2                	ld	ra,40(sp)
   136b6:	7402                	ld	s0,32(sp)
   136b8:	64e2                	ld	s1,24(sp)
   136ba:	6942                	ld	s2,16(sp)
   136bc:	69a2                	ld	s3,8(sp)
   136be:	6145                	addi	sp,sp,48
   136c0:	8082                	ret
   136c2:	57c5                	li	a5,-15
   136c4:	40b0093b          	negw	s2,a1
   136c8:	0ef5d463          	bge	a1,a5,137b0 <eshift.part.0+0x174>
   136cc:	01850593          	addi	a1,a0,24
   136d0:	4981                	li	s3,0
   136d2:	00450693          	addi	a3,a0,4
   136d6:	463d                	li	a2,15
   136d8:	01845703          	lhu	a4,24(s0)
   136dc:	87ae                	mv	a5,a1
   136de:	00e9e9b3          	or	s3,s3,a4
   136e2:	ffe7d703          	lhu	a4,-2(a5)
   136e6:	17f9                	addi	a5,a5,-2
   136e8:	00e79123          	sh	a4,2(a5)
   136ec:	fed79be3          	bne	a5,a3,136e2 <eshift.part.0+0xa6>
   136f0:	00041223          	sh	zero,4(s0)
   136f4:	3941                	addiw	s2,s2,-16
   136f6:	ff2641e3          	blt	a2,s2,136d8 <eshift.part.0+0x9c>
   136fa:	57c1                	li	a5,-16
   136fc:	5745                	li	a4,-15
   136fe:	9f85                	subw	a5,a5,s1
   13700:	4901                	li	s2,0
   13702:	08e4c063          	blt	s1,a4,13782 <eshift.part.0+0x146>
   13706:	00f9093b          	addw	s2,s2,a5
   1370a:	479d                	li	a5,7
   1370c:	0327df63          	bge	a5,s2,1374a <eshift.part.0+0x10e>
   13710:	0109999b          	slliw	s3,s3,0x10
   13714:	4109d99b          	sraiw	s3,s3,0x10
   13718:	01844783          	lbu	a5,24(s0)
   1371c:	01a40593          	addi	a1,s0,26
   13720:	00f9e9b3          	or	s3,s3,a5
   13724:	19c2                	slli	s3,s3,0x30
   13726:	0309d993          	srli	s3,s3,0x30
   1372a:	4781                	li	a5,0
   1372c:	0006d603          	lhu	a2,0(a3)
   13730:	0689                	addi	a3,a3,2
   13732:	0086571b          	srliw	a4,a2,0x8
   13736:	8f5d                	or	a4,a4,a5
   13738:	0086179b          	slliw	a5,a2,0x8
   1373c:	17c2                	slli	a5,a5,0x30
   1373e:	fee69f23          	sh	a4,-2(a3)
   13742:	93c1                	srli	a5,a5,0x30
   13744:	feb694e3          	bne	a3,a1,1372c <eshift.part.0+0xf0>
   13748:	3961                	addiw	s2,s2,-8
   1374a:	04090b63          	beqz	s2,137a0 <eshift.part.0+0x164>
   1374e:	01845783          	lhu	a5,24(s0)
   13752:	397d                	addiw	s2,s2,-1
   13754:	8522                	mv	a0,s0
   13756:	8b85                	andi	a5,a5,1
   13758:	0137e9b3          	or	s3,a5,s3
   1375c:	bc5ff0ef          	jal	ra,13320 <eshdn1>
   13760:	fe0917e3          	bnez	s2,1374e <eshift.part.0+0x112>
   13764:	0109979b          	slliw	a5,s3,0x10
   13768:	4107d79b          	sraiw	a5,a5,0x10
   1376c:	e78d                	bnez	a5,13796 <eshift.part.0+0x15a>
   1376e:	03099513          	slli	a0,s3,0x30
   13772:	9141                	srli	a0,a0,0x30
   13774:	70a2                	ld	ra,40(sp)
   13776:	7402                	ld	s0,32(sp)
   13778:	64e2                	ld	s1,24(sp)
   1377a:	6942                	ld	s2,16(sp)
   1377c:	69a2                	ld	s3,8(sp)
   1377e:	6145                	addi	sp,sp,48
   13780:	8082                	ret
   13782:	ff07f913          	andi	s2,a5,-16
   13786:	4120093b          	negw	s2,s2
   1378a:	00f9093b          	addw	s2,s2,a5
   1378e:	479d                	li	a5,7
   13790:	fb27dde3          	bge	a5,s2,1374a <eshift.part.0+0x10e>
   13794:	bfb5                	j	13710 <eshift.part.0+0xd4>
   13796:	4985                	li	s3,1
   13798:	03099513          	slli	a0,s3,0x30
   1379c:	9141                	srli	a0,a0,0x30
   1379e:	bfd9                	j	13774 <eshift.part.0+0x138>
   137a0:	854e                	mv	a0,s3
   137a2:	00099563          	bnez	s3,137ac <eshift.part.0+0x170>
   137a6:	1542                	slli	a0,a0,0x30
   137a8:	9141                	srli	a0,a0,0x30
   137aa:	b729                	j	136b4 <eshift.part.0+0x78>
   137ac:	4505                	li	a0,1
   137ae:	bfe5                	j	137a6 <eshift.part.0+0x16a>
   137b0:	57e5                	li	a5,-7
   137b2:	4981                	li	s3,0
   137b4:	f8f5dde3          	bge	a1,a5,1374e <eshift.part.0+0x112>
   137b8:	00440693          	addi	a3,s0,4
   137bc:	bfb1                	j	13718 <eshift.part.0+0xdc>

00000000000137be <enormlz>:
   137be:	00455783          	lhu	a5,4(a0)
   137c2:	1101                	addi	sp,sp,-32
   137c4:	e426                	sd	s1,8(sp)
   137c6:	ec06                	sd	ra,24(sp)
   137c8:	e822                	sd	s0,16(sp)
   137ca:	e04a                	sd	s2,0(sp)
   137cc:	84aa                	mv	s1,a0
   137ce:	ebc5                	bnez	a5,1387e <enormlz+0xc0>
   137d0:	00655703          	lhu	a4,6(a0)
   137d4:	4401                	li	s0,0
   137d6:	0107179b          	slliw	a5,a4,0x10
   137da:	4107d79b          	sraiw	a5,a5,0x10
   137de:	02079693          	slli	a3,a5,0x20
   137e2:	0806c763          	bltz	a3,13870 <enormlz+0xb2>
   137e6:	01a50693          	addi	a3,a0,26
   137ea:	0a000613          	li	a2,160
   137ee:	e31d                	bnez	a4,13814 <enormlz+0x56>
   137f0:	00648793          	addi	a5,s1,6
   137f4:	a019                	j	137fa <enormlz+0x3c>
   137f6:	0007d703          	lhu	a4,0(a5)
   137fa:	0789                	addi	a5,a5,2
   137fc:	fee79e23          	sh	a4,-4(a5)
   13800:	fef69be3          	bne	a3,a5,137f6 <enormlz+0x38>
   13804:	00049c23          	sh	zero,24(s1)
   13808:	2441                	addiw	s0,s0,16
   1380a:	06c40363          	beq	s0,a2,13870 <enormlz+0xb2>
   1380e:	0064d703          	lhu	a4,6(s1)
   13812:	df79                	beqz	a4,137f0 <enormlz+0x32>
   13814:	f0077793          	andi	a5,a4,-256
   13818:	eb8d                	bnez	a5,1384a <enormlz+0x8c>
   1381a:	01848513          	addi	a0,s1,24
   1381e:	00248593          	addi	a1,s1,2
   13822:	4781                	li	a5,0
   13824:	872a                	mv	a4,a0
   13826:	00075683          	lhu	a3,0(a4)
   1382a:	1779                	addi	a4,a4,-2
   1382c:	00869613          	slli	a2,a3,0x8
   13830:	8fd1                	or	a5,a5,a2
   13832:	00f71123          	sh	a5,2(a4)
   13836:	0086d793          	srli	a5,a3,0x8
   1383a:	fee596e3          	bne	a1,a4,13826 <enormlz+0x68>
   1383e:	0064d703          	lhu	a4,6(s1)
   13842:	2421                	addiw	s0,s0,8
   13844:	f0077793          	andi	a5,a4,-256
   13848:	dfe9                	beqz	a5,13822 <enormlz+0x64>
   1384a:	0a000913          	li	s2,160
   1384e:	a801                	j	1385e <enormlz+0xa0>
   13850:	2405                	addiw	s0,s0,1
   13852:	b1bff0ef          	jal	ra,1336c <eshup1>
   13856:	00894d63          	blt	s2,s0,13870 <enormlz+0xb2>
   1385a:	0064d703          	lhu	a4,6(s1)
   1385e:	0107171b          	slliw	a4,a4,0x10
   13862:	4107571b          	sraiw	a4,a4,0x10
   13866:	02071793          	slli	a5,a4,0x20
   1386a:	8526                	mv	a0,s1
   1386c:	fe07d2e3          	bgez	a5,13850 <enormlz+0x92>
   13870:	60e2                	ld	ra,24(sp)
   13872:	8522                	mv	a0,s0
   13874:	6442                	ld	s0,16(sp)
   13876:	64a2                	ld	s1,8(sp)
   13878:	6902                	ld	s2,0(sp)
   1387a:	6105                	addi	sp,sp,32
   1387c:	8082                	ret
   1387e:	f007f713          	andi	a4,a5,-256
   13882:	4401                	li	s0,0
   13884:	e705                	bnez	a4,138ac <enormlz+0xee>
   13886:	f6f00913          	li	s2,-145
   1388a:	a801                	j	1389a <enormlz+0xdc>
   1388c:	347d                	addiw	s0,s0,-1
   1388e:	a93ff0ef          	jal	ra,13320 <eshdn1>
   13892:	fd240fe3          	beq	s0,s2,13870 <enormlz+0xb2>
   13896:	0044d783          	lhu	a5,4(s1)
   1389a:	8526                	mv	a0,s1
   1389c:	fbe5                	bnez	a5,1388c <enormlz+0xce>
   1389e:	60e2                	ld	ra,24(sp)
   138a0:	8522                	mv	a0,s0
   138a2:	6442                	ld	s0,16(sp)
   138a4:	64a2                	ld	s1,8(sp)
   138a6:	6902                	ld	s2,0(sp)
   138a8:	6105                	addi	sp,sp,32
   138aa:	8082                	ret
   138ac:	00450693          	addi	a3,a0,4
   138b0:	01a50593          	addi	a1,a0,26
   138b4:	4701                	li	a4,0
   138b6:	a019                	j	138bc <enormlz+0xfe>
   138b8:	0006d783          	lhu	a5,0(a3)
   138bc:	0087d61b          	srliw	a2,a5,0x8
   138c0:	8f51                	or	a4,a4,a2
   138c2:	0087979b          	slliw	a5,a5,0x8
   138c6:	00e69023          	sh	a4,0(a3)
   138ca:	03079713          	slli	a4,a5,0x30
   138ce:	0689                	addi	a3,a3,2
   138d0:	9341                	srli	a4,a4,0x30
   138d2:	feb693e3          	bne	a3,a1,138b8 <enormlz+0xfa>
   138d6:	0044d783          	lhu	a5,4(s1)
   138da:	5461                	li	s0,-8
   138dc:	b76d                	j	13886 <enormlz+0xc8>

00000000000138de <emdnorm>:
   138de:	7139                	addi	sp,sp,-64
   138e0:	f822                	sd	s0,48(sp)
   138e2:	f426                	sd	s1,40(sp)
   138e4:	f04a                	sd	s2,32(sp)
   138e6:	ec4e                	sd	s3,24(sp)
   138e8:	e852                	sd	s4,16(sp)
   138ea:	e456                	sd	s5,8(sp)
   138ec:	8936                	mv	s2,a3
   138ee:	84be                	mv	s1,a5
   138f0:	fc06                	sd	ra,56(sp)
   138f2:	842a                	mv	s0,a0
   138f4:	89ae                	mv	s3,a1
   138f6:	8a32                	mv	s4,a2
   138f8:	8aba                	mv	s5,a4
   138fa:	ec5ff0ef          	jal	ra,137be <enormlz>
   138fe:	09000793          	li	a5,144
   13902:	40a90933          	sub	s2,s2,a0
   13906:	12a7db63          	bge	a5,a0,13a3c <emdnorm+0x15e>
   1390a:	67a1                	lui	a5,0x8
   1390c:	17f9                	addi	a5,a5,-2
   1390e:	1927dd63          	bge	a5,s2,13aa8 <emdnorm+0x1ca>
   13912:	160a8b63          	beqz	s5,13a88 <emdnorm+0x1aa>
   13916:	40c8                	lw	a0,4(s1)
   13918:	409c                	lw	a5,0(s1)
   1391a:	04a78e63          	beq	a5,a0,13976 <emdnorm+0x98>
   1391e:	01a48713          	addi	a4,s1,26
   13922:	03448793          	addi	a5,s1,52
   13926:	0709                	addi	a4,a4,2
   13928:	fe071f23          	sh	zero,-2(a4)
   1392c:	fef71de3          	bne	a4,a5,13926 <emdnorm+0x48>
   13930:	03800793          	li	a5,56
   13934:	28f50263          	beq	a0,a5,13bb8 <emdnorm+0x2da>
   13938:	12a7d163          	bge	a5,a0,13a5a <emdnorm+0x17c>
   1393c:	04000793          	li	a5,64
   13940:	24f50c63          	beq	a0,a5,13b98 <emdnorm+0x2ba>
   13944:	07100793          	li	a5,113
   13948:	28f51163          	bne	a0,a5,13bca <emdnorm+0x2ec>
   1394c:	47a9                	li	a5,10
   1394e:	40008737          	lui	a4,0x40008
   13952:	177d                	addi	a4,a4,-1
   13954:	1782                	slli	a5,a5,0x20
   13956:	07a9                	addi	a5,a5,10
   13958:	c8d8                	sw	a4,20(s1)
   1395a:	7761                	lui	a4,0xffff8
   1395c:	00e49c23          	sh	a4,24(s1)
   13960:	e49c                	sd	a5,8(s1)
   13962:	6721                	lui	a4,0x8
   13964:	47a9                	li	a5,10
   13966:	07a1                	addi	a5,a5,8
   13968:	0786                	slli	a5,a5,0x1
   1396a:	97a6                	add	a5,a5,s1
   1396c:	00e79523          	sh	a4,10(a5) # 800a <register_fini-0x80a6>
   13970:	c088                	sw	a0,0(s1)
   13972:	17205163          	blez	s2,13ad4 <emdnorm+0x1f6>
   13976:	4494                	lw	a3,8(s1)
   13978:	0144d603          	lhu	a2,20(s1)
   1397c:	08f00793          	li	a5,143
   13980:	00169713          	slli	a4,a3,0x1
   13984:	00e40833          	add	a6,s0,a4
   13988:	00085883          	lhu	a7,0(a6) # ffffffffffff8000 <__BSS_END__+0xfffffffffffbf948>
   1398c:	00c8f5b3          	and	a1,a7,a2
   13990:	02a7ce63          	blt	a5,a0,139cc <emdnorm+0xee>
   13994:	47ad                	li	a5,11
   13996:	02d7cb63          	blt	a5,a3,139cc <emdnorm+0xee>
   1399a:	9f95                	subw	a5,a5,a3
   1399c:	1782                	slli	a5,a5,0x20
   1399e:	9381                	srli	a5,a5,0x20
   139a0:	97b6                	add	a5,a5,a3
   139a2:	00179693          	slli	a3,a5,0x1
   139a6:	0709                	addi	a4,a4,2
   139a8:	00440793          	addi	a5,s0,4
   139ac:	9722                	add	a4,a4,s0
   139ae:	97b6                	add	a5,a5,a3
   139b0:	00075683          	lhu	a3,0(a4) # 8000 <register_fini-0x80b0>
   139b4:	c299                	beqz	a3,139ba <emdnorm+0xdc>
   139b6:	0015e593          	ori	a1,a1,1
   139ba:	00071023          	sh	zero,0(a4)
   139be:	0709                	addi	a4,a4,2
   139c0:	fee798e3          	bne	a5,a4,139b0 <emdnorm+0xd2>
   139c4:	00085883          	lhu	a7,0(a6)
   139c8:	0144d603          	lhu	a2,20(s1)
   139cc:	fff64613          	not	a2,a2
   139d0:	01167633          	and	a2,a2,a7
   139d4:	00c81023          	sh	a2,0(a6)
   139d8:	0164d783          	lhu	a5,22(s1)
   139dc:	00b7f733          	and	a4,a5,a1
   139e0:	cb05                	beqz	a4,13a10 <emdnorm+0x132>
   139e2:	12b78f63          	beq	a5,a1,13b20 <emdnorm+0x242>
   139e6:	03248613          	addi	a2,s1,50
   139ea:	01840693          	addi	a3,s0,24
   139ee:	04f1                	addi	s1,s1,28
   139f0:	4701                	li	a4,0
   139f2:	00065783          	lhu	a5,0(a2)
   139f6:	0006d583          	lhu	a1,0(a3)
   139fa:	16f9                	addi	a3,a3,-2
   139fc:	1679                	addi	a2,a2,-2
   139fe:	97ae                	add	a5,a5,a1
   13a00:	97ba                	add	a5,a5,a4
   13a02:	0107d713          	srli	a4,a5,0x10
   13a06:	00f69123          	sh	a5,2(a3)
   13a0a:	8b05                	andi	a4,a4,1
   13a0c:	fe9613e3          	bne	a2,s1,139f2 <emdnorm+0x114>
   13a10:	13205663          	blez	s2,13b3c <emdnorm+0x25e>
   13a14:	00445783          	lhu	a5,4(s0)
   13a18:	e7ed                	bnez	a5,13b02 <emdnorm+0x224>
   13a1a:	67a1                	lui	a5,0x8
   13a1c:	00041c23          	sh	zero,24(s0)
   13a20:	17f9                	addi	a5,a5,-2
   13a22:	0727c563          	blt	a5,s2,13a8c <emdnorm+0x1ae>
   13a26:	01241123          	sh	s2,2(s0)
   13a2a:	70e2                	ld	ra,56(sp)
   13a2c:	7442                	ld	s0,48(sp)
   13a2e:	74a2                	ld	s1,40(sp)
   13a30:	7902                	ld	s2,32(sp)
   13a32:	69e2                	ld	s3,24(sp)
   13a34:	6a42                	ld	s4,16(sp)
   13a36:	6aa2                	ld	s5,8(sp)
   13a38:	6121                	addi	sp,sp,64
   13a3a:	8082                	ret
   13a3c:	0a095a63          	bgez	s2,13af0 <emdnorm+0x212>
   13a40:	f7000793          	li	a5,-144
   13a44:	06f95b63          	bge	s2,a5,13aba <emdnorm+0x1dc>
   13a48:	00240793          	addi	a5,s0,2
   13a4c:	0469                	addi	s0,s0,26
   13a4e:	0789                	addi	a5,a5,2
   13a50:	fe079f23          	sh	zero,-2(a5) # 7ffe <register_fini-0x80b2>
   13a54:	fe879de3          	bne	a5,s0,13a4e <emdnorm+0x170>
   13a58:	bfc9                	j	13a2a <emdnorm+0x14c>
   13a5a:	47e1                	li	a5,24
   13a5c:	10f50f63          	beq	a0,a5,13b7a <emdnorm+0x29c>
   13a60:	03500793          	li	a5,53
   13a64:	16f51363          	bne	a0,a5,13bca <emdnorm+0x2ec>
   13a68:	040006b7          	lui	a3,0x4000
   13a6c:	6705                	lui	a4,0x1
   13a6e:	7ff68693          	addi	a3,a3,2047 # 40007ff <__BSS_END__+0x3fc8147>
   13a72:	4799                	li	a5,6
   13a74:	80070713          	addi	a4,a4,-2048 # 800 <register_fini-0xf8b0>
   13a78:	c8d4                	sw	a3,20(s1)
   13a7a:	1782                	slli	a5,a5,0x20
   13a7c:	0799                	addi	a5,a5,6
   13a7e:	e49c                	sd	a5,8(s1)
   13a80:	00e49c23          	sh	a4,24(s1)
   13a84:	4799                	li	a5,6
   13a86:	b5c5                	j	13966 <emdnorm+0x88>
   13a88:	00041c23          	sh	zero,24(s0)
   13a8c:	77e1                	lui	a5,0xffff8
   13a8e:	fff7c793          	not	a5,a5
   13a92:	00f41123          	sh	a5,2(s0)
   13a96:	00440793          	addi	a5,s0,4
   13a9a:	0461                	addi	s0,s0,24
   13a9c:	00079023          	sh	zero,0(a5) # ffffffffffff8000 <__BSS_END__+0xfffffffffffbf948>
   13aa0:	0789                	addi	a5,a5,2
   13aa2:	fef41de3          	bne	s0,a5,13a9c <emdnorm+0x1be>
   13aa6:	b751                	j	13a2a <emdnorm+0x14c>
   13aa8:	00240793          	addi	a5,s0,2
   13aac:	0469                	addi	s0,s0,26
   13aae:	0789                	addi	a5,a5,2
   13ab0:	fe079f23          	sh	zero,-2(a5)
   13ab4:	fe879de3          	bne	a5,s0,13aae <emdnorm+0x1d0>
   13ab8:	bf8d                	j	13a2a <emdnorm+0x14c>
   13aba:	0009059b          	sext.w	a1,s2
   13abe:	8522                	mv	a0,s0
   13ac0:	b7dff0ef          	jal	ra,1363c <eshift.part.0>
   13ac4:	c111                	beqz	a0,13ac8 <emdnorm+0x1ea>
   13ac6:	4985                	li	s3,1
   13ac8:	0a0a8463          	beqz	s5,13b70 <emdnorm+0x292>
   13acc:	40c8                	lw	a0,4(s1)
   13ace:	409c                	lw	a5,0(s1)
   13ad0:	e4a797e3          	bne	a5,a0,1391e <emdnorm+0x40>
   13ad4:	09000793          	li	a5,144
   13ad8:	08f50163          	beq	a0,a5,13b5a <emdnorm+0x27c>
   13adc:	01845783          	lhu	a5,24(s0)
   13ae0:	8522                	mv	a0,s0
   13ae2:	8b85                	andi	a5,a5,1
   13ae4:	00f9e9b3          	or	s3,s3,a5
   13ae8:	839ff0ef          	jal	ra,13320 <eshdn1>
   13aec:	40c8                	lw	a0,4(s1)
   13aee:	b561                	j	13976 <emdnorm+0x98>
   13af0:	f20a85e3          	beqz	s5,13a1a <emdnorm+0x13c>
   13af4:	40c8                	lw	a0,4(s1)
   13af6:	409c                	lw	a5,0(s1)
   13af8:	e2a793e3          	bne	a5,a0,1391e <emdnorm+0x40>
   13afc:	e7204de3          	bgtz	s2,13976 <emdnorm+0x98>
   13b00:	bfd1                	j	13ad4 <emdnorm+0x1f6>
   13b02:	8522                	mv	a0,s0
   13b04:	81dff0ef          	jal	ra,13320 <eshdn1>
   13b08:	67a1                	lui	a5,0x8
   13b0a:	0905                	addi	s2,s2,1
   13b0c:	00041c23          	sh	zero,24(s0)
   13b10:	17f9                	addi	a5,a5,-2
   13b12:	f727cde3          	blt	a5,s2,13a8c <emdnorm+0x1ae>
   13b16:	f00958e3          	bgez	s2,13a26 <emdnorm+0x148>
   13b1a:	00041123          	sh	zero,2(s0)
   13b1e:	b731                	j	13a2a <emdnorm+0x14c>
   13b20:	08099963          	bnez	s3,13bb2 <emdnorm+0x2d4>
   13b24:	44dc                	lw	a5,12(s1)
   13b26:	0184d703          	lhu	a4,24(s1)
   13b2a:	0786                	slli	a5,a5,0x1
   13b2c:	97a2                	add	a5,a5,s0
   13b2e:	0007d783          	lhu	a5,0(a5) # 8000 <register_fini-0x80b0>
   13b32:	8ff9                	and	a5,a5,a4
   13b34:	ea0799e3          	bnez	a5,139e6 <emdnorm+0x108>
   13b38:	ed204ee3          	bgtz	s2,13a14 <emdnorm+0x136>
   13b3c:	09000793          	li	a5,144
   13b40:	00f50563          	beq	a0,a5,13b4a <emdnorm+0x26c>
   13b44:	8522                	mv	a0,s0
   13b46:	827ff0ef          	jal	ra,1336c <eshup1>
   13b4a:	00445783          	lhu	a5,4(s0)
   13b4e:	fbd5                	bnez	a5,13b02 <emdnorm+0x224>
   13b50:	00041c23          	sh	zero,24(s0)
   13b54:	fc0943e3          	bltz	s2,13b1a <emdnorm+0x23c>
   13b58:	b5f9                	j	13a26 <emdnorm+0x148>
   13b5a:	0084a803          	lw	a6,8(s1)
   13b5e:	0144d603          	lhu	a2,20(s1)
   13b62:	0806                	slli	a6,a6,0x1
   13b64:	9822                	add	a6,a6,s0
   13b66:	00085883          	lhu	a7,0(a6)
   13b6a:	011675b3          	and	a1,a2,a7
   13b6e:	bdb9                	j	139cc <emdnorm+0xee>
   13b70:	00041c23          	sh	zero,24(s0)
   13b74:	00041123          	sh	zero,2(s0)
   13b78:	bd4d                	j	13a2a <emdnorm+0x14c>
   13b7a:	4791                	li	a5,4
   13b7c:	00800737          	lui	a4,0x800
   13b80:	0ff70713          	addi	a4,a4,255 # 8000ff <__BSS_END__+0x7c7a47>
   13b84:	1782                	slli	a5,a5,0x20
   13b86:	0791                	addi	a5,a5,4
   13b88:	c8d8                	sw	a4,20(s1)
   13b8a:	10000713          	li	a4,256
   13b8e:	e49c                	sd	a5,8(s1)
   13b90:	00e49c23          	sh	a4,24(s1)
   13b94:	4791                	li	a5,4
   13b96:	bbc1                	j	13966 <emdnorm+0x88>
   13b98:	478d                	li	a5,3
   13b9a:	80010737          	lui	a4,0x80010
   13b9e:	177d                	addi	a4,a4,-1
   13ba0:	1786                	slli	a5,a5,0x21
   13ba2:	079d                	addi	a5,a5,7
   13ba4:	c8d8                	sw	a4,20(s1)
   13ba6:	4705                	li	a4,1
   13ba8:	e49c                	sd	a5,8(s1)
   13baa:	00e49c23          	sh	a4,24(s1)
   13bae:	4799                	li	a5,6
   13bb0:	bb5d                	j	13966 <emdnorm+0x88>
   13bb2:	e20a0ae3          	beqz	s4,139e6 <emdnorm+0x108>
   13bb6:	bda9                	j	13a10 <emdnorm+0x132>
   13bb8:	00800737          	lui	a4,0x800
   13bbc:	0ff70713          	addi	a4,a4,255 # 8000ff <__BSS_END__+0x7c7a47>
   13bc0:	c8d8                	sw	a4,20(s1)
   13bc2:	4799                	li	a5,6
   13bc4:	10000713          	li	a4,256
   13bc8:	bd4d                	j	13a7a <emdnorm+0x19c>
   13bca:	47ad                	li	a5,11
   13bcc:	80010737          	lui	a4,0x80010
   13bd0:	177d                	addi	a4,a4,-1
   13bd2:	1782                	slli	a5,a5,0x20
   13bd4:	07b1                	addi	a5,a5,12
   13bd6:	c8d8                	sw	a4,20(s1)
   13bd8:	4705                	li	a4,1
   13bda:	e49c                	sd	a5,8(s1)
   13bdc:	00e49c23          	sh	a4,24(s1)
   13be0:	47ad                	li	a5,11
   13be2:	b351                	j	13966 <emdnorm+0x88>

0000000000013be4 <eiremain>:
   13be4:	711d                	addi	sp,sp,-96
   13be6:	e4a6                	sd	s1,72(sp)
   13be8:	fc4e                	sd	s3,56(sp)
   13bea:	84ae                	mv	s1,a1
   13bec:	00255983          	lhu	s3,2(a0)
   13bf0:	ec86                	sd	ra,88(sp)
   13bf2:	e8a2                	sd	s0,80(sp)
   13bf4:	e0ca                	sd	s2,64(sp)
   13bf6:	f852                	sd	s4,48(sp)
   13bf8:	8932                	mv	s2,a2
   13bfa:	f456                	sd	s5,40(sp)
   13bfc:	f05a                	sd	s6,32(sp)
   13bfe:	ec5e                	sd	s7,24(sp)
   13c00:	e862                	sd	s8,16(sp)
   13c02:	e466                	sd	s9,8(sp)
   13c04:	e06a                	sd	s10,0(sp)
   13c06:	8a2a                	mv	s4,a0
   13c08:	bb7ff0ef          	jal	ra,137be <enormlz>
   13c0c:	0024d403          	lhu	s0,2(s1)
   13c10:	87aa                	mv	a5,a0
   13c12:	8526                	mv	a0,s1
   13c14:	40f989b3          	sub	s3,s3,a5
   13c18:	03490a93          	addi	s5,s2,52
   13c1c:	ba3ff0ef          	jal	ra,137be <enormlz>
   13c20:	8c09                	sub	s0,s0,a0
   13c22:	04e90713          	addi	a4,s2,78
   13c26:	87d6                	mv	a5,s5
   13c28:	0789                	addi	a5,a5,2
   13c2a:	fe079f23          	sh	zero,-2(a5)
   13c2e:	fee79de3          	bne	a5,a4,13c28 <eiremain+0x44>
   13c32:	07344b63          	blt	s0,s3,13ca8 <eiremain+0xc4>
   13c36:	004a0b93          	addi	s7,s4,4
   13c3a:	00448b13          	addi	s6,s1,4
   13c3e:	19fd                	addi	s3,s3,-1
   13c40:	01aa0c93          	addi	s9,s4,26
   13c44:	00248c13          	addi	s8,s1,2
   13c48:	875a                	mv	a4,s6
   13c4a:	87de                	mv	a5,s7
   13c4c:	0007d603          	lhu	a2,0(a5)
   13c50:	00075683          	lhu	a3,0(a4) # ffffffff80010000 <__BSS_END__+0xffffffff7ffd7948>
   13c54:	0789                	addi	a5,a5,2
   13c56:	0709                	addi	a4,a4,2
   13c58:	06d61c63          	bne	a2,a3,13cd0 <eiremain+0xec>
   13c5c:	fefc98e3          	bne	s9,a5,13c4c <eiremain+0x68>
   13c60:	018a0613          	addi	a2,s4,24
   13c64:	01848713          	addi	a4,s1,24
   13c68:	4681                	li	a3,0
   13c6a:	00075783          	lhu	a5,0(a4)
   13c6e:	00065583          	lhu	a1,0(a2)
   13c72:	1779                	addi	a4,a4,-2
   13c74:	8f95                	sub	a5,a5,a3
   13c76:	8f8d                	sub	a5,a5,a1
   13c78:	0107d693          	srli	a3,a5,0x10
   13c7c:	00f71123          	sh	a5,2(a4)
   13c80:	8a85                	andi	a3,a3,1
   13c82:	1679                	addi	a2,a2,-2
   13c84:	feec13e3          	bne	s8,a4,13c6a <eiremain+0x86>
   13c88:	4d05                	li	s10,1
   13c8a:	8556                	mv	a0,s5
   13c8c:	ee0ff0ef          	jal	ra,1336c <eshup1>
   13c90:	04c95783          	lhu	a5,76(s2)
   13c94:	147d                	addi	s0,s0,-1
   13c96:	8526                	mv	a0,s1
   13c98:	00fd6d33          	or	s10,s10,a5
   13c9c:	05a91623          	sh	s10,76(s2)
   13ca0:	eccff0ef          	jal	ra,1336c <eshup1>
   13ca4:	fb3412e3          	bne	s0,s3,13c48 <eiremain+0x64>
   13ca8:	86a2                	mv	a3,s0
   13caa:	6446                	ld	s0,80(sp)
   13cac:	60e6                	ld	ra,88(sp)
