
bin/dcacheTest.riscv:     file format elf64-littleriscv


Disassembly of section .text:

00000000000100e8 <exit>:
   100e8:	1141                	addi	sp,sp,-16
   100ea:	4581                	li	a1,0
   100ec:	e022                	sd	s0,0(sp)
   100ee:	e406                	sd	ra,8(sp)
   100f0:	842a                	mv	s0,a0
   100f2:	3ad000ef          	jal	10c9e <__call_exitprocs>
   100f6:	8901b783          	ld	a5,-1904(gp) # 1b300 <__stdio_exit_handler>
   100fa:	c391                	beqz	a5,100fe <exit+0x16>
   100fc:	9782                	jalr	a5
   100fe:	8522                	mv	a0,s0
   10100:	0ef070ef          	jal	179ee <_exit>

0000000000010104 <register_fini>:
   10104:	00000793          	li	a5,0
   10108:	c791                	beqz	a5,10114 <register_fini+0x10>
   1010a:	6551                	lui	a0,0x14
   1010c:	b5450513          	addi	a0,a0,-1196 # 13b54 <__libc_fini_array>
   10110:	4610006f          	j	10d70 <atexit>
   10114:	8082                	ret

0000000000010116 <_start>:
   10116:	0000c197          	auipc	gp,0xc
   1011a:	95a18193          	addi	gp,gp,-1702 # 1ba70 <__global_pointer$>
   1011e:	89018513          	addi	a0,gp,-1904 # 1b300 <__stdio_exit_handler>
   10122:	00023617          	auipc	a2,0x23
   10126:	7a660613          	addi	a2,a2,1958 # 338c8 <__BSS_END__>
   1012a:	8e09                	sub	a2,a2,a0
   1012c:	4581                	li	a1,0
   1012e:	225000ef          	jal	10b52 <memset>
   10132:	00001517          	auipc	a0,0x1
   10136:	c3e50513          	addi	a0,a0,-962 # 10d70 <atexit>
   1013a:	c519                	beqz	a0,10148 <_start+0x32>
   1013c:	00004517          	auipc	a0,0x4
   10140:	a1850513          	addi	a0,a0,-1512 # 13b54 <__libc_fini_array>
   10144:	42d000ef          	jal	10d70 <atexit>
   10148:	1a1000ef          	jal	10ae8 <__libc_init_array>
   1014c:	4502                	lw	a0,0(sp)
   1014e:	002c                	addi	a1,sp,8
   10150:	4601                	li	a2,0
   10152:	152000ef          	jal	102a4 <main>
   10156:	bf49                	j	100e8 <exit>

0000000000010158 <__do_global_dtors_aux>:
   10158:	1141                	addi	sp,sp,-16
   1015a:	e022                	sd	s0,0(sp)
   1015c:	8d01c783          	lbu	a5,-1840(gp) # 1b340 <completed.1>
   10160:	e406                	sd	ra,8(sp)
   10162:	ef91                	bnez	a5,1017e <__do_global_dtors_aux+0x26>
   10164:	00000793          	li	a5,0
   10168:	cb81                	beqz	a5,10178 <__do_global_dtors_aux+0x20>
   1016a:	6569                	lui	a0,0x1a
   1016c:	72850513          	addi	a0,a0,1832 # 1a728 <__EH_FRAME_BEGIN__>
   10170:	00000097          	auipc	ra,0x0
   10174:	000000e7          	jalr	zero # 0 <exit-0x100e8>
   10178:	4785                	li	a5,1
   1017a:	8cf18823          	sb	a5,-1840(gp) # 1b340 <completed.1>
   1017e:	60a2                	ld	ra,8(sp)
   10180:	6402                	ld	s0,0(sp)
   10182:	0141                	addi	sp,sp,16
   10184:	8082                	ret

0000000000010186 <frame_dummy>:
   10186:	00000793          	li	a5,0
   1018a:	cb91                	beqz	a5,1019e <frame_dummy+0x18>
   1018c:	6569                	lui	a0,0x1a
   1018e:	8d818593          	addi	a1,gp,-1832 # 1b348 <object.0>
   10192:	72850513          	addi	a0,a0,1832 # 1a728 <__EH_FRAME_BEGIN__>
   10196:	00000317          	auipc	t1,0x0
   1019a:	00000067          	jr	zero # 0 <exit-0x100e8>
   1019e:	8082                	ret

00000000000101a0 <flushCache>:
   101a0:	fa010113          	addi	sp,sp,-96
   101a4:	04813c23          	sd	s0,88(sp)
   101a8:	06010413          	addi	s0,sp,96
   101ac:	faa43423          	sd	a0,-88(s0)
   101b0:	fab43023          	sd	a1,-96(s0)
   101b4:	fa043783          	ld	a5,-96(s0)
   101b8:	0067d793          	srli	a5,a5,0x6
   101bc:	fef43423          	sd	a5,-24(s0)
   101c0:	fa043783          	ld	a5,-96(s0)
   101c4:	03f7f793          	andi	a5,a5,63
   101c8:	00078863          	beqz	a5,101d8 <flushCache+0x38>
   101cc:	fe843783          	ld	a5,-24(s0)
   101d0:	00178793          	addi	a5,a5,1
   101d4:	fef43423          	sd	a5,-24(s0)
   101d8:	fe843703          	ld	a4,-24(s0)
   101dc:	04000793          	li	a5,64
   101e0:	00e7f663          	bgeu	a5,a4,101ec <flushCache+0x4c>
   101e4:	04000793          	li	a5,64
   101e8:	fef43423          	sd	a5,-24(s0)
   101ec:	fc040ba3          	sb	zero,-41(s0)
   101f0:	0001b7b7          	lui	a5,0x1b
   101f4:	37878713          	addi	a4,a5,888 # 1b378 <dummyMem>
   101f8:	000047b7          	lui	a5,0x4
   101fc:	00f70733          	add	a4,a4,a5
   10200:	fffff7b7          	lui	a5,0xfffff
   10204:	00f777b3          	and	a5,a4,a5
   10208:	fcf43423          	sd	a5,-56(s0)
   1020c:	fe043023          	sd	zero,-32(s0)
   10210:	0740006f          	j	10284 <flushCache+0xe4>
   10214:	fa843783          	ld	a5,-88(s0)
   10218:	0067d793          	srli	a5,a5,0x6
   1021c:	03f7f713          	andi	a4,a5,63
   10220:	fe043783          	ld	a5,-32(s0)
   10224:	00f707b3          	add	a5,a4,a5
   10228:	00679793          	slli	a5,a5,0x6
   1022c:	fcf43023          	sd	a5,-64(s0)
   10230:	fc043c23          	sd	zero,-40(s0)
   10234:	0380006f          	j	1026c <flushCache+0xcc>
   10238:	fd843783          	ld	a5,-40(s0)
   1023c:	00c79793          	slli	a5,a5,0xc
   10240:	faf43c23          	sd	a5,-72(s0)
   10244:	fc843703          	ld	a4,-56(s0)
   10248:	fc043783          	ld	a5,-64(s0)
   1024c:	00f70733          	add	a4,a4,a5
   10250:	fb843783          	ld	a5,-72(s0)
   10254:	00f707b3          	add	a5,a4,a5
   10258:	0007c783          	lbu	a5,0(a5) # fffffffffffff000 <__BSS_END__+0xfffffffffffcb738>
   1025c:	fcf40ba3          	sb	a5,-41(s0)
   10260:	fd843783          	ld	a5,-40(s0)
   10264:	00178793          	addi	a5,a5,1
   10268:	fcf43c23          	sd	a5,-40(s0)
   1026c:	fd843703          	ld	a4,-40(s0)
   10270:	00f00793          	li	a5,15
   10274:	fce7f2e3          	bgeu	a5,a4,10238 <flushCache+0x98>
   10278:	fe043783          	ld	a5,-32(s0)
   1027c:	00178793          	addi	a5,a5,1
   10280:	fef43023          	sd	a5,-32(s0)
   10284:	fe043703          	ld	a4,-32(s0)
   10288:	fe843783          	ld	a5,-24(s0)
   1028c:	f8f764e3          	bltu	a4,a5,10214 <flushCache+0x74>
   10290:	00000013          	nop
   10294:	00000013          	nop
   10298:	05813403          	ld	s0,88(sp)
   1029c:	06010113          	addi	sp,sp,96
   102a0:	00008067          	ret

00000000000102a4 <main>:
   102a4:	f9010113          	addi	sp,sp,-112
   102a8:	06113423          	sd	ra,104(sp)
   102ac:	06813023          	sd	s0,96(sp)
   102b0:	07010413          	addi	s0,sp,112
   102b4:	fe0405a3          	sb	zero,-21(s0)
   102b8:	fe043023          	sd	zero,-32(s0)
   102bc:	fc043c23          	sd	zero,-40(s0)
   102c0:	000197b7          	lui	a5,0x19
   102c4:	dc078513          	addi	a0,a5,-576 # 18dc0 <__clzdi2+0x3e>
   102c8:	5c2000ef          	jal	1088a <puts>
   102cc:	fe042623          	sw	zero,-20(s0)
   102d0:	1ac0006f          	j	1047c <main+0x1d8>
   102d4:	0002f7b7          	lui	a5,0x2f
   102d8:	37878793          	addi	a5,a5,888 # 2f378 <array2>
   102dc:	000045b7          	lui	a1,0x4
   102e0:	00078513          	mv	a0,a5
   102e4:	ebdff0ef          	jal	101a0 <flushCache>
   102e8:	c00027f3          	rdcycle	a5
   102ec:	fcf43823          	sd	a5,-48(s0)
   102f0:	fd043783          	ld	a5,-48(s0)
   102f4:	fef43023          	sd	a5,-32(s0)
   102f8:	0002f7b7          	lui	a5,0x2f
   102fc:	37878793          	addi	a5,a5,888 # 2f378 <array2>
   10300:	0007c783          	lbu	a5,0(a5)
   10304:	fef405a3          	sb	a5,-21(s0)
   10308:	c00027f3          	rdcycle	a5
   1030c:	fcf43423          	sd	a5,-56(s0)
   10310:	fc843703          	ld	a4,-56(s0)
   10314:	fe043783          	ld	a5,-32(s0)
   10318:	40f707b3          	sub	a5,a4,a5
   1031c:	fcf43c23          	sd	a5,-40(s0)
   10320:	fec42783          	lw	a5,-20(s0)
   10324:	fd843603          	ld	a2,-40(s0)
   10328:	00078593          	mv	a1,a5
   1032c:	000197b7          	lui	a5,0x19
   10330:	e0078513          	addi	a0,a5,-512 # 18e00 <__clzdi2+0x7e>
   10334:	4a4000ef          	jal	107d8 <printf>
   10338:	0002f7b7          	lui	a5,0x2f
   1033c:	37878793          	addi	a5,a5,888 # 2f378 <array2>
   10340:	1007c783          	lbu	a5,256(a5)
   10344:	fef405a3          	sb	a5,-21(s0)
   10348:	c00027f3          	rdcycle	a5
   1034c:	fcf43023          	sd	a5,-64(s0)
   10350:	fc043783          	ld	a5,-64(s0)
   10354:	fef43023          	sd	a5,-32(s0)
   10358:	0002f7b7          	lui	a5,0x2f
   1035c:	37878793          	addi	a5,a5,888 # 2f378 <array2>
   10360:	1007c783          	lbu	a5,256(a5)
   10364:	fef405a3          	sb	a5,-21(s0)
   10368:	c00027f3          	rdcycle	a5
   1036c:	faf43c23          	sd	a5,-72(s0)
   10370:	fb843703          	ld	a4,-72(s0)
   10374:	fe043783          	ld	a5,-32(s0)
   10378:	40f707b3          	sub	a5,a4,a5
   1037c:	fcf43c23          	sd	a5,-40(s0)
   10380:	fec42783          	lw	a5,-20(s0)
   10384:	fd843603          	ld	a2,-40(s0)
   10388:	00078593          	mv	a1,a5
   1038c:	000197b7          	lui	a5,0x19
   10390:	e3078513          	addi	a0,a5,-464 # 18e30 <__clzdi2+0xae>
   10394:	444000ef          	jal	107d8 <printf>
   10398:	0002f7b7          	lui	a5,0x2f
   1039c:	37878793          	addi	a5,a5,888 # 2f378 <array2>
   103a0:	10078793          	addi	a5,a5,256
   103a4:	faf43823          	sd	a5,-80(s0)
   103a8:	0002f7b7          	lui	a5,0x2f
   103ac:	37878793          	addi	a5,a5,888 # 2f378 <array2>
   103b0:	00078613          	mv	a2,a5
   103b4:	fb043583          	ld	a1,-80(s0)
   103b8:	000197b7          	lui	a5,0x19
   103bc:	e6878513          	addi	a0,a5,-408 # 18e68 <__clzdi2+0xe6>
   103c0:	418000ef          	jal	107d8 <printf>
   103c4:	00100593          	li	a1,1
   103c8:	fb043503          	ld	a0,-80(s0)
   103cc:	dd5ff0ef          	jal	101a0 <flushCache>
   103d0:	c00027f3          	rdcycle	a5
   103d4:	faf43423          	sd	a5,-88(s0)
   103d8:	fa843783          	ld	a5,-88(s0)
   103dc:	fef43023          	sd	a5,-32(s0)
   103e0:	0002f7b7          	lui	a5,0x2f
   103e4:	37878793          	addi	a5,a5,888 # 2f378 <array2>
   103e8:	1007c783          	lbu	a5,256(a5)
   103ec:	fef405a3          	sb	a5,-21(s0)
   103f0:	c00027f3          	rdcycle	a5
   103f4:	faf43023          	sd	a5,-96(s0)
   103f8:	fa043703          	ld	a4,-96(s0)
   103fc:	fe043783          	ld	a5,-32(s0)
   10400:	40f707b3          	sub	a5,a4,a5
   10404:	fcf43c23          	sd	a5,-40(s0)
   10408:	fec42783          	lw	a5,-20(s0)
   1040c:	fd843603          	ld	a2,-40(s0)
   10410:	00078593          	mv	a1,a5
   10414:	000197b7          	lui	a5,0x19
   10418:	e9078513          	addi	a0,a5,-368 # 18e90 <__clzdi2+0x10e>
   1041c:	3bc000ef          	jal	107d8 <printf>
   10420:	c00027f3          	rdcycle	a5
   10424:	f8f43c23          	sd	a5,-104(s0)
   10428:	f9843783          	ld	a5,-104(s0)
   1042c:	fef43023          	sd	a5,-32(s0)
   10430:	0002f7b7          	lui	a5,0x2f
   10434:	37878793          	addi	a5,a5,888 # 2f378 <array2>
   10438:	1007c783          	lbu	a5,256(a5)
   1043c:	fef405a3          	sb	a5,-21(s0)
   10440:	c00027f3          	rdcycle	a5
   10444:	f8f43823          	sd	a5,-112(s0)
   10448:	f9043703          	ld	a4,-112(s0)
   1044c:	fe043783          	ld	a5,-32(s0)
   10450:	40f707b3          	sub	a5,a4,a5
   10454:	fcf43c23          	sd	a5,-40(s0)
   10458:	fec42783          	lw	a5,-20(s0)
   1045c:	fd843603          	ld	a2,-40(s0)
   10460:	00078593          	mv	a1,a5
   10464:	000197b7          	lui	a5,0x19
   10468:	ed078513          	addi	a0,a5,-304 # 18ed0 <__clzdi2+0x14e>
   1046c:	36c000ef          	jal	107d8 <printf>
   10470:	fec42783          	lw	a5,-20(s0)
   10474:	0017879b          	addiw	a5,a5,1
   10478:	fef42623          	sw	a5,-20(s0)
   1047c:	fec42783          	lw	a5,-20(s0)
   10480:	0007871b          	sext.w	a4,a5
   10484:	00400793          	li	a5,4
   10488:	e4e7d6e3          	bge	a5,a4,102d4 <main+0x30>
   1048c:	00000793          	li	a5,0
   10490:	00078513          	mv	a0,a5
   10494:	06813083          	ld	ra,104(sp)
   10498:	06013403          	ld	s0,96(sp)
   1049c:	07010113          	addi	sp,sp,112
   104a0:	00008067          	ret

00000000000104a4 <__fp_lock>:
   104a4:	4501                	li	a0,0
   104a6:	8082                	ret

00000000000104a8 <stdio_exit_handler>:
   104a8:	6669                	lui	a2,0x1a
   104aa:	65cd                	lui	a1,0x13
   104ac:	6569                	lui	a0,0x1a
   104ae:	74860613          	addi	a2,a2,1864 # 1a748 <__sglue>
   104b2:	2bc58593          	addi	a1,a1,700 # 132bc <_fclose_r>
   104b6:	76050513          	addi	a0,a0,1888 # 1a760 <_impure_data>
   104ba:	acad                	j	10734 <_fwalk_sglue>

00000000000104bc <cleanup_stdio>:
   104bc:	650c                	ld	a1,8(a0)
   104be:	1141                	addi	sp,sp,-16
   104c0:	000337b7          	lui	a5,0x33
   104c4:	e022                	sd	s0,0(sp)
   104c6:	e406                	sd	ra,8(sp)
   104c8:	37878793          	addi	a5,a5,888 # 33378 <__sf>
   104cc:	842a                	mv	s0,a0
   104ce:	00f58463          	beq	a1,a5,104d6 <cleanup_stdio+0x1a>
   104d2:	5eb020ef          	jal	132bc <_fclose_r>
   104d6:	680c                	ld	a1,16(s0)
   104d8:	000337b7          	lui	a5,0x33
   104dc:	42878793          	addi	a5,a5,1064 # 33428 <__sf+0xb0>
   104e0:	00f58563          	beq	a1,a5,104ea <cleanup_stdio+0x2e>
   104e4:	8522                	mv	a0,s0
   104e6:	5d7020ef          	jal	132bc <_fclose_r>
   104ea:	6c0c                	ld	a1,24(s0)
   104ec:	000337b7          	lui	a5,0x33
   104f0:	4d878793          	addi	a5,a5,1240 # 334d8 <__sf+0x160>
   104f4:	00f58863          	beq	a1,a5,10504 <cleanup_stdio+0x48>
   104f8:	8522                	mv	a0,s0
   104fa:	6402                	ld	s0,0(sp)
   104fc:	60a2                	ld	ra,8(sp)
   104fe:	0141                	addi	sp,sp,16
   10500:	5bd0206f          	j	132bc <_fclose_r>
   10504:	60a2                	ld	ra,8(sp)
   10506:	6402                	ld	s0,0(sp)
   10508:	0141                	addi	sp,sp,16
   1050a:	8082                	ret

000000000001050c <__fp_unlock>:
   1050c:	4501                	li	a0,0
   1050e:	8082                	ret

0000000000010510 <global_stdio_init.part.0>:
   10510:	7179                	addi	sp,sp,-48
   10512:	67c1                	lui	a5,0x10
   10514:	f022                	sd	s0,32(sp)
   10516:	4a878793          	addi	a5,a5,1192 # 104a8 <stdio_exit_handler>
   1051a:	00033437          	lui	s0,0x33
   1051e:	00033537          	lui	a0,0x33
   10522:	37840413          	addi	s0,s0,888 # 33378 <__sf>
   10526:	f406                	sd	ra,40(sp)
   10528:	ec26                	sd	s1,24(sp)
   1052a:	e84a                	sd	s2,16(sp)
   1052c:	e44e                	sd	s3,8(sp)
   1052e:	e052                	sd	s4,0(sp)
   10530:	88f1b823          	sd	a5,-1904(gp) # 1b300 <__stdio_exit_handler>
   10534:	4621                	li	a2,8
   10536:	4791                	li	a5,4
   10538:	4581                	li	a1,0
   1053a:	41c50513          	addi	a0,a0,1052 # 3341c <__sf+0xa4>
   1053e:	c81c                	sw	a5,16(s0)
   10540:	00043023          	sd	zero,0(s0)
   10544:	00043423          	sd	zero,8(s0)
   10548:	0a042623          	sw	zero,172(s0)
   1054c:	00043c23          	sd	zero,24(s0)
   10550:	02042023          	sw	zero,32(s0)
   10554:	02042423          	sw	zero,40(s0)
   10558:	5fa000ef          	jal	10b52 <memset>
   1055c:	67c1                	lui	a5,0x10
   1055e:	6a45                	lui	s4,0x11
   10560:	69c5                	lui	s3,0x11
   10562:	6945                	lui	s2,0x11
   10564:	64c5                	lui	s1,0x11
   10566:	00033537          	lui	a0,0x33
   1056a:	892a0a13          	addi	s4,s4,-1902 # 10892 <__sread>
   1056e:	8ce98993          	addi	s3,s3,-1842 # 108ce <__swrite>
   10572:	92090913          	addi	s2,s2,-1760 # 10920 <__sseek>
   10576:	97248493          	addi	s1,s1,-1678 # 10972 <__sclose>
   1057a:	07a5                	addi	a5,a5,9 # 10009 <exit-0xdf>
   1057c:	4621                	li	a2,8
   1057e:	4581                	li	a1,0
   10580:	4cc50513          	addi	a0,a0,1228 # 334cc <__sf+0x154>
   10584:	03443c23          	sd	s4,56(s0)
   10588:	05343023          	sd	s3,64(s0)
   1058c:	05243423          	sd	s2,72(s0)
   10590:	e824                	sd	s1,80(s0)
   10592:	0cf42023          	sw	a5,192(s0)
   10596:	f800                	sd	s0,48(s0)
   10598:	0a043823          	sd	zero,176(s0)
   1059c:	0a043c23          	sd	zero,184(s0)
   105a0:	14042e23          	sw	zero,348(s0)
   105a4:	0c043423          	sd	zero,200(s0)
   105a8:	0c042823          	sw	zero,208(s0)
   105ac:	0c042c23          	sw	zero,216(s0)
   105b0:	5a2000ef          	jal	10b52 <memset>
   105b4:	000207b7          	lui	a5,0x20
   105b8:	00033537          	lui	a0,0x33
   105bc:	00033737          	lui	a4,0x33
   105c0:	07c9                	addi	a5,a5,18 # 20012 <__global_pointer$+0x45a2>
   105c2:	42870713          	addi	a4,a4,1064 # 33428 <__sf+0xb0>
   105c6:	4621                	li	a2,8
   105c8:	4581                	li	a1,0
   105ca:	57c50513          	addi	a0,a0,1404 # 3357c <__sf+0x204>
   105ce:	0f443423          	sd	s4,232(s0)
   105d2:	0f343823          	sd	s3,240(s0)
   105d6:	0f243c23          	sd	s2,248(s0)
   105da:	10943023          	sd	s1,256(s0)
   105de:	16f42823          	sw	a5,368(s0)
   105e2:	f078                	sd	a4,224(s0)
   105e4:	16043023          	sd	zero,352(s0)
   105e8:	16043423          	sd	zero,360(s0)
   105ec:	20042623          	sw	zero,524(s0)
   105f0:	16043c23          	sd	zero,376(s0)
   105f4:	18042023          	sw	zero,384(s0)
   105f8:	18042423          	sw	zero,392(s0)
   105fc:	556000ef          	jal	10b52 <memset>
   10600:	000337b7          	lui	a5,0x33
   10604:	4d878793          	addi	a5,a5,1240 # 334d8 <__sf+0x160>
   10608:	19443c23          	sd	s4,408(s0)
   1060c:	1b343023          	sd	s3,416(s0)
   10610:	1b243423          	sd	s2,424(s0)
   10614:	1a943823          	sd	s1,432(s0)
   10618:	70a2                	ld	ra,40(sp)
   1061a:	18f43823          	sd	a5,400(s0)
   1061e:	7402                	ld	s0,32(sp)
   10620:	64e2                	ld	s1,24(sp)
   10622:	6942                	ld	s2,16(sp)
   10624:	69a2                	ld	s3,8(sp)
   10626:	6a02                	ld	s4,0(sp)
   10628:	6145                	addi	sp,sp,48
   1062a:	8082                	ret

000000000001062c <__sfp>:
   1062c:	8901b783          	ld	a5,-1904(gp) # 1b300 <__stdio_exit_handler>
   10630:	7179                	addi	sp,sp,-48
   10632:	e84a                	sd	s2,16(sp)
   10634:	f406                	sd	ra,40(sp)
   10636:	f022                	sd	s0,32(sp)
   10638:	ec26                	sd	s1,24(sp)
   1063a:	e44e                	sd	s3,8(sp)
   1063c:	892a                	mv	s2,a0
   1063e:	c7cd                	beqz	a5,106e8 <__sfp+0xbc>
   10640:	64e9                	lui	s1,0x1a
   10642:	74848493          	addi	s1,s1,1864 # 1a748 <__sglue>
   10646:	0b000993          	li	s3,176
   1064a:	4498                	lw	a4,8(s1)
   1064c:	6880                	ld	s0,16(s1)
   1064e:	06e05463          	blez	a4,106b6 <__sfp+0x8a>
   10652:	1702                	slli	a4,a4,0x20
   10654:	9301                	srli	a4,a4,0x20
   10656:	03370733          	mul	a4,a4,s3
   1065a:	9722                	add	a4,a4,s0
   1065c:	a029                	j	10666 <__sfp+0x3a>
   1065e:	0b040413          	addi	s0,s0,176
   10662:	04870a63          	beq	a4,s0,106b6 <__sfp+0x8a>
   10666:	01041783          	lh	a5,16(s0)
   1066a:	fbf5                	bnez	a5,1065e <__sfp+0x32>
   1066c:	77c1                	lui	a5,0xffff0
   1066e:	0785                	addi	a5,a5,1 # ffffffffffff0001 <__BSS_END__+0xfffffffffffbc739>
   10670:	c81c                	sw	a5,16(s0)
   10672:	0a042623          	sw	zero,172(s0)
   10676:	00043023          	sd	zero,0(s0)
   1067a:	00043423          	sd	zero,8(s0)
   1067e:	00043c23          	sd	zero,24(s0)
   10682:	02042023          	sw	zero,32(s0)
   10686:	02042423          	sw	zero,40(s0)
   1068a:	4621                	li	a2,8
   1068c:	4581                	li	a1,0
   1068e:	0a440513          	addi	a0,s0,164
   10692:	4c0000ef          	jal	10b52 <memset>
   10696:	04043c23          	sd	zero,88(s0)
   1069a:	06042023          	sw	zero,96(s0)
   1069e:	06043c23          	sd	zero,120(s0)
   106a2:	08042023          	sw	zero,128(s0)
   106a6:	70a2                	ld	ra,40(sp)
   106a8:	8522                	mv	a0,s0
   106aa:	7402                	ld	s0,32(sp)
   106ac:	64e2                	ld	s1,24(sp)
   106ae:	6942                	ld	s2,16(sp)
   106b0:	69a2                	ld	s3,8(sp)
   106b2:	6145                	addi	sp,sp,48
   106b4:	8082                	ret
   106b6:	6080                	ld	s0,0(s1)
   106b8:	c019                	beqz	s0,106be <__sfp+0x92>
   106ba:	84a2                	mv	s1,s0
   106bc:	b779                	j	1064a <__sfp+0x1e>
   106be:	2d800593          	li	a1,728
   106c2:	854a                	mv	a0,s2
   106c4:	1d3000ef          	jal	11096 <_malloc_r>
   106c8:	842a                	mv	s0,a0
   106ca:	c115                	beqz	a0,106ee <__sfp+0xc2>
   106cc:	0561                	addi	a0,a0,24
   106ce:	4791                	li	a5,4
   106d0:	00043023          	sd	zero,0(s0)
   106d4:	c41c                	sw	a5,8(s0)
   106d6:	e808                	sd	a0,16(s0)
   106d8:	2c000613          	li	a2,704
   106dc:	4581                	li	a1,0
   106de:	474000ef          	jal	10b52 <memset>
   106e2:	e080                	sd	s0,0(s1)
   106e4:	84a2                	mv	s1,s0
   106e6:	b795                	j	1064a <__sfp+0x1e>
   106e8:	e29ff0ef          	jal	10510 <global_stdio_init.part.0>
   106ec:	bf91                	j	10640 <__sfp+0x14>
   106ee:	0004b023          	sd	zero,0(s1)
   106f2:	47b1                	li	a5,12
   106f4:	00f92023          	sw	a5,0(s2)
   106f8:	b77d                	j	106a6 <__sfp+0x7a>

00000000000106fa <__sinit>:
   106fa:	653c                	ld	a5,72(a0)
   106fc:	c391                	beqz	a5,10700 <__sinit+0x6>
   106fe:	8082                	ret
   10700:	8901b703          	ld	a4,-1904(gp) # 1b300 <__stdio_exit_handler>
   10704:	67c1                	lui	a5,0x10
   10706:	4bc78793          	addi	a5,a5,1212 # 104bc <cleanup_stdio>
   1070a:	e53c                	sd	a5,72(a0)
   1070c:	fb6d                	bnez	a4,106fe <__sinit+0x4>
   1070e:	b509                	j	10510 <global_stdio_init.part.0>

0000000000010710 <__sfp_lock_acquire>:
   10710:	8082                	ret

0000000000010712 <__sfp_lock_release>:
   10712:	8082                	ret

0000000000010714 <__fp_lock_all>:
   10714:	6669                	lui	a2,0x1a
   10716:	65c1                	lui	a1,0x10
   10718:	74860613          	addi	a2,a2,1864 # 1a748 <__sglue>
   1071c:	4a458593          	addi	a1,a1,1188 # 104a4 <__fp_lock>
   10720:	4501                	li	a0,0
   10722:	a809                	j	10734 <_fwalk_sglue>

0000000000010724 <__fp_unlock_all>:
   10724:	6669                	lui	a2,0x1a
   10726:	65c1                	lui	a1,0x10
   10728:	74860613          	addi	a2,a2,1864 # 1a748 <__sglue>
   1072c:	50c58593          	addi	a1,a1,1292 # 1050c <__fp_unlock>
   10730:	4501                	li	a0,0
   10732:	a009                	j	10734 <_fwalk_sglue>

0000000000010734 <_fwalk_sglue>:
   10734:	715d                	addi	sp,sp,-80
   10736:	f84a                	sd	s2,48(sp)
   10738:	f44e                	sd	s3,40(sp)
   1073a:	f052                	sd	s4,32(sp)
   1073c:	ec56                	sd	s5,24(sp)
   1073e:	e85a                	sd	s6,16(sp)
   10740:	e45e                	sd	s7,8(sp)
   10742:	e062                	sd	s8,0(sp)
   10744:	e486                	sd	ra,72(sp)
   10746:	e0a2                	sd	s0,64(sp)
   10748:	fc26                	sd	s1,56(sp)
   1074a:	8a2a                	mv	s4,a0
   1074c:	8b2e                	mv	s6,a1
   1074e:	89b2                	mv	s3,a2
   10750:	4901                	li	s2,0
   10752:	0b000b93          	li	s7,176
   10756:	4c05                	li	s8,1
   10758:	5afd                	li	s5,-1
   1075a:	0089a483          	lw	s1,8(s3)
   1075e:	0109b403          	ld	s0,16(s3)
   10762:	02905963          	blez	s1,10794 <_fwalk_sglue+0x60>
   10766:	1482                	slli	s1,s1,0x20
   10768:	9081                	srli	s1,s1,0x20
   1076a:	037484b3          	mul	s1,s1,s7
   1076e:	94a2                	add	s1,s1,s0
   10770:	01045783          	lhu	a5,16(s0)
   10774:	00fc7c63          	bgeu	s8,a5,1078c <_fwalk_sglue+0x58>
   10778:	01241783          	lh	a5,18(s0)
   1077c:	85a2                	mv	a1,s0
   1077e:	8552                	mv	a0,s4
   10780:	01578663          	beq	a5,s5,1078c <_fwalk_sglue+0x58>
   10784:	9b02                	jalr	s6
   10786:	01256933          	or	s2,a0,s2
   1078a:	2901                	sext.w	s2,s2
   1078c:	0b040413          	addi	s0,s0,176
   10790:	fe9410e3          	bne	s0,s1,10770 <_fwalk_sglue+0x3c>
   10794:	0009b983          	ld	s3,0(s3)
   10798:	fc0991e3          	bnez	s3,1075a <_fwalk_sglue+0x26>
   1079c:	60a6                	ld	ra,72(sp)
   1079e:	6406                	ld	s0,64(sp)
   107a0:	74e2                	ld	s1,56(sp)
   107a2:	79a2                	ld	s3,40(sp)
   107a4:	7a02                	ld	s4,32(sp)
   107a6:	6ae2                	ld	s5,24(sp)
   107a8:	6b42                	ld	s6,16(sp)
   107aa:	6ba2                	ld	s7,8(sp)
   107ac:	6c02                	ld	s8,0(sp)
   107ae:	854a                	mv	a0,s2
   107b0:	7942                	ld	s2,48(sp)
   107b2:	6161                	addi	sp,sp,80
   107b4:	8082                	ret

00000000000107b6 <_printf_r>:
   107b6:	715d                	addi	sp,sp,-80
   107b8:	f032                	sd	a2,32(sp)
   107ba:	f436                	sd	a3,40(sp)
   107bc:	f83a                	sd	a4,48(sp)
   107be:	fc3e                	sd	a5,56(sp)
   107c0:	e0c2                	sd	a6,64(sp)
   107c2:	e4c6                	sd	a7,72(sp)
   107c4:	862e                	mv	a2,a1
   107c6:	690c                	ld	a1,16(a0)
   107c8:	1014                	addi	a3,sp,32
   107ca:	ec06                	sd	ra,24(sp)
   107cc:	e436                	sd	a3,8(sp)
   107ce:	6d7000ef          	jal	116a4 <_vfprintf_r>
   107d2:	60e2                	ld	ra,24(sp)
   107d4:	6161                	addi	sp,sp,80
   107d6:	8082                	ret

00000000000107d8 <printf>:
   107d8:	8781b303          	ld	t1,-1928(gp) # 1b2e8 <_impure_ptr>
   107dc:	711d                	addi	sp,sp,-96
   107de:	f832                	sd	a2,48(sp)
   107e0:	fc36                	sd	a3,56(sp)
   107e2:	f42e                	sd	a1,40(sp)
   107e4:	e0ba                	sd	a4,64(sp)
   107e6:	e4be                	sd	a5,72(sp)
   107e8:	e8c2                	sd	a6,80(sp)
   107ea:	ecc6                	sd	a7,88(sp)
   107ec:	01033583          	ld	a1,16(t1) # 101a6 <flushCache+0x6>
   107f0:	1034                	addi	a3,sp,40
   107f2:	862a                	mv	a2,a0
   107f4:	851a                	mv	a0,t1
   107f6:	ec06                	sd	ra,24(sp)
   107f8:	e436                	sd	a3,8(sp)
   107fa:	6ab000ef          	jal	116a4 <_vfprintf_r>
   107fe:	60e2                	ld	ra,24(sp)
   10800:	6125                	addi	sp,sp,96
   10802:	8082                	ret

0000000000010804 <_puts_r>:
   10804:	7159                	addi	sp,sp,-112
   10806:	f0a2                	sd	s0,96(sp)
   10808:	842a                	mv	s0,a0
   1080a:	852e                	mv	a0,a1
   1080c:	eca6                	sd	s1,88(sp)
   1080e:	f486                	sd	ra,104(sp)
   10810:	84ae                	mv	s1,a1
   10812:	3ea000ef          	jal	10bfc <strlen>
   10816:	67e5                	lui	a5,0x19
   10818:	f1078793          	addi	a5,a5,-240 # 18f10 <__clzdi2+0x18e>
   1081c:	e0be                	sd	a5,64(sp)
   1081e:	4785                	li	a5,1
   10820:	e4be                	sd	a5,72(sp)
   10822:	6438                	ld	a4,72(s0)
   10824:	181c                	addi	a5,sp,48
   10826:	00150693          	addi	a3,a0,1
   1082a:	ec3e                	sd	a5,24(sp)
   1082c:	4789                	li	a5,2
   1082e:	f826                	sd	s1,48(sp)
   10830:	fc2a                	sd	a0,56(sp)
   10832:	f436                	sd	a3,40(sp)
   10834:	d03e                	sw	a5,32(sp)
   10836:	680c                	ld	a1,16(s0)
   10838:	c329                	beqz	a4,1087a <_puts_r+0x76>
   1083a:	01059703          	lh	a4,16(a1)
   1083e:	0ac5a783          	lw	a5,172(a1)
   10842:	03271693          	slli	a3,a4,0x32
   10846:	0006cb63          	bltz	a3,1085c <_puts_r+0x58>
   1084a:	76f9                	lui	a3,0xffffe
   1084c:	16fd                	addi	a3,a3,-1 # ffffffffffffdfff <__BSS_END__+0xfffffffffffca737>
   1084e:	6609                	lui	a2,0x2
   10850:	8f51                	or	a4,a4,a2
   10852:	8ff5                	and	a5,a5,a3
   10854:	00e59823          	sh	a4,16(a1)
   10858:	0af5a623          	sw	a5,172(a1)
   1085c:	03279713          	slli	a4,a5,0x32
   10860:	02074363          	bltz	a4,10886 <_puts_r+0x82>
   10864:	0830                	addi	a2,sp,24
   10866:	8522                	mv	a0,s0
   10868:	523020ef          	jal	1358a <__sfvwrite_r>
   1086c:	ed09                	bnez	a0,10886 <_puts_r+0x82>
   1086e:	4529                	li	a0,10
   10870:	70a6                	ld	ra,104(sp)
   10872:	7406                	ld	s0,96(sp)
   10874:	64e6                	ld	s1,88(sp)
   10876:	6165                	addi	sp,sp,112
   10878:	8082                	ret
   1087a:	8522                	mv	a0,s0
   1087c:	e42e                	sd	a1,8(sp)
   1087e:	e7dff0ef          	jal	106fa <__sinit>
   10882:	65a2                	ld	a1,8(sp)
   10884:	bf5d                	j	1083a <_puts_r+0x36>
   10886:	557d                	li	a0,-1
   10888:	b7e5                	j	10870 <_puts_r+0x6c>

000000000001088a <puts>:
   1088a:	85aa                	mv	a1,a0
   1088c:	8781b503          	ld	a0,-1928(gp) # 1b2e8 <_impure_ptr>
   10890:	bf95                	j	10804 <_puts_r>

0000000000010892 <__sread>:
   10892:	1141                	addi	sp,sp,-16
   10894:	e022                	sd	s0,0(sp)
   10896:	842e                	mv	s0,a1
   10898:	01259583          	lh	a1,18(a1)
   1089c:	e406                	sd	ra,8(sp)
   1089e:	1d2000ef          	jal	10a70 <_read_r>
   108a2:	00054963          	bltz	a0,108b4 <__sread+0x22>
   108a6:	685c                	ld	a5,144(s0)
   108a8:	60a2                	ld	ra,8(sp)
   108aa:	97aa                	add	a5,a5,a0
   108ac:	e85c                	sd	a5,144(s0)
   108ae:	6402                	ld	s0,0(sp)
   108b0:	0141                	addi	sp,sp,16
   108b2:	8082                	ret
   108b4:	01045783          	lhu	a5,16(s0)
   108b8:	777d                	lui	a4,0xfffff
   108ba:	177d                	addi	a4,a4,-1 # ffffffffffffefff <__BSS_END__+0xfffffffffffcb737>
   108bc:	8ff9                	and	a5,a5,a4
   108be:	60a2                	ld	ra,8(sp)
   108c0:	00f41823          	sh	a5,16(s0)
   108c4:	6402                	ld	s0,0(sp)
   108c6:	0141                	addi	sp,sp,16
   108c8:	8082                	ret

00000000000108ca <__seofread>:
   108ca:	4501                	li	a0,0
   108cc:	8082                	ret

00000000000108ce <__swrite>:
   108ce:	01059783          	lh	a5,16(a1)
   108d2:	7179                	addi	sp,sp,-48
   108d4:	f022                	sd	s0,32(sp)
   108d6:	ec26                	sd	s1,24(sp)
   108d8:	e84a                	sd	s2,16(sp)
   108da:	e44e                	sd	s3,8(sp)
   108dc:	f406                	sd	ra,40(sp)
   108de:	1007f713          	andi	a4,a5,256
   108e2:	842e                	mv	s0,a1
   108e4:	84aa                	mv	s1,a0
   108e6:	8932                	mv	s2,a2
   108e8:	89b6                	mv	s3,a3
   108ea:	e315                	bnez	a4,1090e <__swrite+0x40>
   108ec:	777d                	lui	a4,0xfffff
   108ee:	177d                	addi	a4,a4,-1 # ffffffffffffefff <__BSS_END__+0xfffffffffffcb737>
   108f0:	8ff9                	and	a5,a5,a4
   108f2:	01241583          	lh	a1,18(s0)
   108f6:	00f41823          	sh	a5,16(s0)
   108fa:	7402                	ld	s0,32(sp)
   108fc:	70a2                	ld	ra,40(sp)
   108fe:	86ce                	mv	a3,s3
   10900:	864a                	mv	a2,s2
   10902:	69a2                	ld	s3,8(sp)
   10904:	6942                	ld	s2,16(sp)
   10906:	8526                	mv	a0,s1
   10908:	64e2                	ld	s1,24(sp)
   1090a:	6145                	addi	sp,sp,48
   1090c:	a245                	j	10aac <_write_r>
   1090e:	01259583          	lh	a1,18(a1)
   10912:	4689                	li	a3,2
   10914:	4601                	li	a2,0
   10916:	11e000ef          	jal	10a34 <_lseek_r>
   1091a:	01041783          	lh	a5,16(s0)
   1091e:	b7f9                	j	108ec <__swrite+0x1e>

0000000000010920 <__sseek>:
   10920:	1141                	addi	sp,sp,-16
   10922:	e022                	sd	s0,0(sp)
   10924:	842e                	mv	s0,a1
   10926:	01259583          	lh	a1,18(a1)
   1092a:	e406                	sd	ra,8(sp)
   1092c:	108000ef          	jal	10a34 <_lseek_r>
   10930:	57fd                	li	a5,-1
   10932:	02f50163          	beq	a0,a5,10954 <__sseek+0x34>
   10936:	01045783          	lhu	a5,16(s0)
   1093a:	6705                	lui	a4,0x1
   1093c:	60a2                	ld	ra,8(sp)
   1093e:	8fd9                	or	a5,a5,a4
   10940:	0107979b          	slliw	a5,a5,0x10
   10944:	4107d79b          	sraiw	a5,a5,0x10
   10948:	e848                	sd	a0,144(s0)
   1094a:	00f41823          	sh	a5,16(s0)
   1094e:	6402                	ld	s0,0(sp)
   10950:	0141                	addi	sp,sp,16
   10952:	8082                	ret
   10954:	01045783          	lhu	a5,16(s0)
   10958:	777d                	lui	a4,0xfffff
   1095a:	177d                	addi	a4,a4,-1 # ffffffffffffefff <__BSS_END__+0xfffffffffffcb737>
   1095c:	8ff9                	and	a5,a5,a4
   1095e:	0107979b          	slliw	a5,a5,0x10
   10962:	4107d79b          	sraiw	a5,a5,0x10
   10966:	60a2                	ld	ra,8(sp)
   10968:	00f41823          	sh	a5,16(s0)
   1096c:	6402                	ld	s0,0(sp)
   1096e:	0141                	addi	sp,sp,16
   10970:	8082                	ret

0000000000010972 <__sclose>:
   10972:	01259583          	lh	a1,18(a1)
   10976:	a009                	j	10978 <_close_r>

0000000000010978 <_close_r>:
   10978:	1101                	addi	sp,sp,-32
   1097a:	e822                	sd	s0,16(sp)
   1097c:	e426                	sd	s1,8(sp)
   1097e:	842a                	mv	s0,a0
   10980:	852e                	mv	a0,a1
   10982:	ec06                	sd	ra,24(sp)
   10984:	8801ac23          	sw	zero,-1896(gp) # 1b308 <errno>
   10988:	03a070ef          	jal	179c2 <_close>
   1098c:	57fd                	li	a5,-1
   1098e:	00f50763          	beq	a0,a5,1099c <_close_r+0x24>
   10992:	60e2                	ld	ra,24(sp)
   10994:	6442                	ld	s0,16(sp)
   10996:	64a2                	ld	s1,8(sp)
   10998:	6105                	addi	sp,sp,32
   1099a:	8082                	ret
   1099c:	8981a783          	lw	a5,-1896(gp) # 1b308 <errno>
   109a0:	dbed                	beqz	a5,10992 <_close_r+0x1a>
   109a2:	60e2                	ld	ra,24(sp)
   109a4:	c01c                	sw	a5,0(s0)
   109a6:	6442                	ld	s0,16(sp)
   109a8:	64a2                	ld	s1,8(sp)
   109aa:	6105                	addi	sp,sp,32
   109ac:	8082                	ret

00000000000109ae <_reclaim_reent>:
   109ae:	8781b783          	ld	a5,-1928(gp) # 1b2e8 <_impure_ptr>
   109b2:	08a78063          	beq	a5,a0,10a32 <_reclaim_reent+0x84>
   109b6:	752c                	ld	a1,104(a0)
   109b8:	7179                	addi	sp,sp,-48
   109ba:	ec26                	sd	s1,24(sp)
   109bc:	f406                	sd	ra,40(sp)
   109be:	f022                	sd	s0,32(sp)
   109c0:	84aa                	mv	s1,a0
   109c2:	c98d                	beqz	a1,109f4 <_reclaim_reent+0x46>
   109c4:	e84a                	sd	s2,16(sp)
   109c6:	e44e                	sd	s3,8(sp)
   109c8:	4901                	li	s2,0
   109ca:	20000993          	li	s3,512
   109ce:	012587b3          	add	a5,a1,s2
   109d2:	6380                	ld	s0,0(a5)
   109d4:	c801                	beqz	s0,109e4 <_reclaim_reent+0x36>
   109d6:	85a2                	mv	a1,s0
   109d8:	6000                	ld	s0,0(s0)
   109da:	8526                	mv	a0,s1
   109dc:	476000ef          	jal	10e52 <_free_r>
   109e0:	f87d                	bnez	s0,109d6 <_reclaim_reent+0x28>
   109e2:	74ac                	ld	a1,104(s1)
   109e4:	0921                	addi	s2,s2,8
   109e6:	ff3914e3          	bne	s2,s3,109ce <_reclaim_reent+0x20>
   109ea:	8526                	mv	a0,s1
   109ec:	466000ef          	jal	10e52 <_free_r>
   109f0:	6942                	ld	s2,16(sp)
   109f2:	69a2                	ld	s3,8(sp)
   109f4:	68ac                	ld	a1,80(s1)
   109f6:	c581                	beqz	a1,109fe <_reclaim_reent+0x50>
   109f8:	8526                	mv	a0,s1
   109fa:	458000ef          	jal	10e52 <_free_r>
   109fe:	70a0                	ld	s0,96(s1)
   10a00:	c419                	beqz	s0,10a0e <_reclaim_reent+0x60>
   10a02:	85a2                	mv	a1,s0
   10a04:	6000                	ld	s0,0(s0)
   10a06:	8526                	mv	a0,s1
   10a08:	44a000ef          	jal	10e52 <_free_r>
   10a0c:	f87d                	bnez	s0,10a02 <_reclaim_reent+0x54>
   10a0e:	7cac                	ld	a1,120(s1)
   10a10:	c581                	beqz	a1,10a18 <_reclaim_reent+0x6a>
   10a12:	8526                	mv	a0,s1
   10a14:	43e000ef          	jal	10e52 <_free_r>
   10a18:	64bc                	ld	a5,72(s1)
   10a1a:	c799                	beqz	a5,10a28 <_reclaim_reent+0x7a>
   10a1c:	7402                	ld	s0,32(sp)
   10a1e:	70a2                	ld	ra,40(sp)
   10a20:	8526                	mv	a0,s1
   10a22:	64e2                	ld	s1,24(sp)
   10a24:	6145                	addi	sp,sp,48
   10a26:	8782                	jr	a5
   10a28:	70a2                	ld	ra,40(sp)
   10a2a:	7402                	ld	s0,32(sp)
   10a2c:	64e2                	ld	s1,24(sp)
   10a2e:	6145                	addi	sp,sp,48
   10a30:	8082                	ret
   10a32:	8082                	ret

0000000000010a34 <_lseek_r>:
   10a34:	1101                	addi	sp,sp,-32
   10a36:	872e                	mv	a4,a1
   10a38:	e822                	sd	s0,16(sp)
   10a3a:	e426                	sd	s1,8(sp)
   10a3c:	85b2                	mv	a1,a2
   10a3e:	842a                	mv	s0,a0
   10a40:	8636                	mv	a2,a3
   10a42:	853a                	mv	a0,a4
   10a44:	ec06                	sd	ra,24(sp)
   10a46:	8801ac23          	sw	zero,-1896(gp) # 1b308 <errno>
   10a4a:	044070ef          	jal	17a8e <_lseek>
   10a4e:	57fd                	li	a5,-1
   10a50:	00f50763          	beq	a0,a5,10a5e <_lseek_r+0x2a>
   10a54:	60e2                	ld	ra,24(sp)
   10a56:	6442                	ld	s0,16(sp)
   10a58:	64a2                	ld	s1,8(sp)
   10a5a:	6105                	addi	sp,sp,32
   10a5c:	8082                	ret
   10a5e:	8981a783          	lw	a5,-1896(gp) # 1b308 <errno>
   10a62:	dbed                	beqz	a5,10a54 <_lseek_r+0x20>
   10a64:	60e2                	ld	ra,24(sp)
   10a66:	c01c                	sw	a5,0(s0)
   10a68:	6442                	ld	s0,16(sp)
   10a6a:	64a2                	ld	s1,8(sp)
   10a6c:	6105                	addi	sp,sp,32
   10a6e:	8082                	ret

0000000000010a70 <_read_r>:
   10a70:	1101                	addi	sp,sp,-32
   10a72:	872e                	mv	a4,a1
   10a74:	e822                	sd	s0,16(sp)
   10a76:	e426                	sd	s1,8(sp)
   10a78:	85b2                	mv	a1,a2
   10a7a:	842a                	mv	s0,a0
   10a7c:	8636                	mv	a2,a3
   10a7e:	853a                	mv	a0,a4
   10a80:	ec06                	sd	ra,24(sp)
   10a82:	8801ac23          	sw	zero,-1896(gp) # 1b308 <errno>
   10a86:	034070ef          	jal	17aba <_read>
   10a8a:	57fd                	li	a5,-1
   10a8c:	00f50763          	beq	a0,a5,10a9a <_read_r+0x2a>
   10a90:	60e2                	ld	ra,24(sp)
   10a92:	6442                	ld	s0,16(sp)
   10a94:	64a2                	ld	s1,8(sp)
   10a96:	6105                	addi	sp,sp,32
   10a98:	8082                	ret
   10a9a:	8981a783          	lw	a5,-1896(gp) # 1b308 <errno>
   10a9e:	dbed                	beqz	a5,10a90 <_read_r+0x20>
   10aa0:	60e2                	ld	ra,24(sp)
   10aa2:	c01c                	sw	a5,0(s0)
   10aa4:	6442                	ld	s0,16(sp)
   10aa6:	64a2                	ld	s1,8(sp)
   10aa8:	6105                	addi	sp,sp,32
   10aaa:	8082                	ret

0000000000010aac <_write_r>:
   10aac:	1101                	addi	sp,sp,-32
   10aae:	872e                	mv	a4,a1
   10ab0:	e822                	sd	s0,16(sp)
   10ab2:	e426                	sd	s1,8(sp)
   10ab4:	85b2                	mv	a1,a2
   10ab6:	842a                	mv	s0,a0
   10ab8:	8636                	mv	a2,a3
   10aba:	853a                	mv	a0,a4
   10abc:	ec06                	sd	ra,24(sp)
   10abe:	8801ac23          	sw	zero,-1896(gp) # 1b308 <errno>
   10ac2:	078070ef          	jal	17b3a <_write>
   10ac6:	57fd                	li	a5,-1
   10ac8:	00f50763          	beq	a0,a5,10ad6 <_write_r+0x2a>
   10acc:	60e2                	ld	ra,24(sp)
   10ace:	6442                	ld	s0,16(sp)
   10ad0:	64a2                	ld	s1,8(sp)
   10ad2:	6105                	addi	sp,sp,32
   10ad4:	8082                	ret
   10ad6:	8981a783          	lw	a5,-1896(gp) # 1b308 <errno>
   10ada:	dbed                	beqz	a5,10acc <_write_r+0x20>
   10adc:	60e2                	ld	ra,24(sp)
   10ade:	c01c                	sw	a5,0(s0)
   10ae0:	6442                	ld	s0,16(sp)
   10ae2:	64a2                	ld	s1,8(sp)
   10ae4:	6105                	addi	sp,sp,32
   10ae6:	8082                	ret

0000000000010ae8 <__libc_init_array>:
   10ae8:	1101                	addi	sp,sp,-32
   10aea:	e822                	sd	s0,16(sp)
   10aec:	67e9                	lui	a5,0x1a
   10aee:	6469                	lui	s0,0x1a
   10af0:	e04a                	sd	s2,0(sp)
   10af2:	72c78793          	addi	a5,a5,1836 # 1a72c <__preinit_array_end>
   10af6:	72c40713          	addi	a4,s0,1836 # 1a72c <__preinit_array_end>
   10afa:	ec06                	sd	ra,24(sp)
   10afc:	e426                	sd	s1,8(sp)
   10afe:	40e78933          	sub	s2,a5,a4
   10b02:	00e78d63          	beq	a5,a4,10b1c <__libc_init_array+0x34>
   10b06:	40395913          	srai	s2,s2,0x3
   10b0a:	72c40413          	addi	s0,s0,1836
   10b0e:	4481                	li	s1,0
   10b10:	601c                	ld	a5,0(s0)
   10b12:	0485                	addi	s1,s1,1
   10b14:	0421                	addi	s0,s0,8
   10b16:	9782                	jalr	a5
   10b18:	ff24ece3          	bltu	s1,s2,10b10 <__libc_init_array+0x28>
   10b1c:	6469                	lui	s0,0x1a
   10b1e:	67e9                	lui	a5,0x1a
   10b20:	74078793          	addi	a5,a5,1856 # 1a740 <__do_global_dtors_aux_fini_array_entry>
   10b24:	73040713          	addi	a4,s0,1840 # 1a730 <__init_array_start>
   10b28:	40e78933          	sub	s2,a5,a4
   10b2c:	40395913          	srai	s2,s2,0x3
   10b30:	00e78b63          	beq	a5,a4,10b46 <__libc_init_array+0x5e>
   10b34:	73040413          	addi	s0,s0,1840
   10b38:	4481                	li	s1,0
   10b3a:	601c                	ld	a5,0(s0)
   10b3c:	0485                	addi	s1,s1,1
   10b3e:	0421                	addi	s0,s0,8
   10b40:	9782                	jalr	a5
   10b42:	ff24ece3          	bltu	s1,s2,10b3a <__libc_init_array+0x52>
   10b46:	60e2                	ld	ra,24(sp)
   10b48:	6442                	ld	s0,16(sp)
   10b4a:	64a2                	ld	s1,8(sp)
   10b4c:	6902                	ld	s2,0(sp)
   10b4e:	6105                	addi	sp,sp,32
   10b50:	8082                	ret

0000000000010b52 <memset>:
   10b52:	433d                	li	t1,15
   10b54:	872a                	mv	a4,a0
   10b56:	02c37163          	bgeu	t1,a2,10b78 <memset+0x26>
   10b5a:	00f77793          	andi	a5,a4,15
   10b5e:	e3c1                	bnez	a5,10bde <memset+0x8c>
   10b60:	e1bd                	bnez	a1,10bc6 <memset+0x74>
   10b62:	ff067693          	andi	a3,a2,-16
   10b66:	8a3d                	andi	a2,a2,15
   10b68:	96ba                	add	a3,a3,a4
   10b6a:	e30c                	sd	a1,0(a4)
   10b6c:	e70c                	sd	a1,8(a4)
   10b6e:	0741                	addi	a4,a4,16
   10b70:	fed76de3          	bltu	a4,a3,10b6a <memset+0x18>
   10b74:	e211                	bnez	a2,10b78 <memset+0x26>
   10b76:	8082                	ret
   10b78:	40c306b3          	sub	a3,t1,a2
   10b7c:	068a                	slli	a3,a3,0x2
   10b7e:	00000297          	auipc	t0,0x0
   10b82:	9696                	add	a3,a3,t0
   10b84:	00a68067          	jr	10(a3)
   10b88:	00b70723          	sb	a1,14(a4)
   10b8c:	00b706a3          	sb	a1,13(a4)
   10b90:	00b70623          	sb	a1,12(a4)
   10b94:	00b705a3          	sb	a1,11(a4)
   10b98:	00b70523          	sb	a1,10(a4)
   10b9c:	00b704a3          	sb	a1,9(a4)
   10ba0:	00b70423          	sb	a1,8(a4)
   10ba4:	00b703a3          	sb	a1,7(a4)
   10ba8:	00b70323          	sb	a1,6(a4)
   10bac:	00b702a3          	sb	a1,5(a4)
   10bb0:	00b70223          	sb	a1,4(a4)
   10bb4:	00b701a3          	sb	a1,3(a4)
   10bb8:	00b70123          	sb	a1,2(a4)
   10bbc:	00b700a3          	sb	a1,1(a4)
   10bc0:	00b70023          	sb	a1,0(a4)
   10bc4:	8082                	ret
   10bc6:	0ff5f593          	zext.b	a1,a1
   10bca:	00859693          	slli	a3,a1,0x8
   10bce:	8dd5                	or	a1,a1,a3
   10bd0:	01059693          	slli	a3,a1,0x10
   10bd4:	8dd5                	or	a1,a1,a3
   10bd6:	02059693          	slli	a3,a1,0x20
   10bda:	8dd5                	or	a1,a1,a3
   10bdc:	b759                	j	10b62 <memset+0x10>
   10bde:	00279693          	slli	a3,a5,0x2
   10be2:	00000297          	auipc	t0,0x0
   10be6:	9696                	add	a3,a3,t0
   10be8:	8286                	mv	t0,ra
   10bea:	fa2680e7          	jalr	-94(a3)
   10bee:	8096                	mv	ra,t0
   10bf0:	17c1                	addi	a5,a5,-16
   10bf2:	8f1d                	sub	a4,a4,a5
   10bf4:	963e                	add	a2,a2,a5
   10bf6:	f8c371e3          	bgeu	t1,a2,10b78 <memset+0x26>
   10bfa:	b79d                	j	10b60 <memset+0xe>

0000000000010bfc <strlen>:
   10bfc:	00757793          	andi	a5,a0,7
   10c00:	872a                	mv	a4,a0
   10c02:	e3b5                	bnez	a5,10c66 <strlen+0x6a>
   10c04:	0feff6b7          	lui	a3,0xfeff
   10c08:	0692                	slli	a3,a3,0x4
   10c0a:	eff68693          	addi	a3,a3,-257 # fefeeff <__BSS_END__+0xfecb637>
   10c0e:	06c2                	slli	a3,a3,0x10
   10c10:	eff68693          	addi	a3,a3,-257
   10c14:	06be                	slli	a3,a3,0xf
   10c16:	f7f68693          	addi	a3,a3,-129
   10c1a:	55fd                	li	a1,-1
   10c1c:	6310                	ld	a2,0(a4)
   10c1e:	0721                	addi	a4,a4,8
   10c20:	00d677b3          	and	a5,a2,a3
   10c24:	97b6                	add	a5,a5,a3
   10c26:	8fd1                	or	a5,a5,a2
   10c28:	8fd5                	or	a5,a5,a3
   10c2a:	feb789e3          	beq	a5,a1,10c1c <strlen+0x20>
   10c2e:	ff874683          	lbu	a3,-8(a4)
   10c32:	40a707b3          	sub	a5,a4,a0
   10c36:	c6a9                	beqz	a3,10c80 <strlen+0x84>
   10c38:	ff974683          	lbu	a3,-7(a4)
   10c3c:	ce9d                	beqz	a3,10c7a <strlen+0x7e>
   10c3e:	ffa74683          	lbu	a3,-6(a4)
   10c42:	c6a9                	beqz	a3,10c8c <strlen+0x90>
   10c44:	ffb74683          	lbu	a3,-5(a4)
   10c48:	ce9d                	beqz	a3,10c86 <strlen+0x8a>
   10c4a:	ffc74683          	lbu	a3,-4(a4)
   10c4e:	c2b1                	beqz	a3,10c92 <strlen+0x96>
   10c50:	ffd74683          	lbu	a3,-3(a4)
   10c54:	c2b1                	beqz	a3,10c98 <strlen+0x9c>
   10c56:	ffe74503          	lbu	a0,-2(a4)
   10c5a:	00a03533          	snez	a0,a0
   10c5e:	953e                	add	a0,a0,a5
   10c60:	1579                	addi	a0,a0,-2
   10c62:	8082                	ret
   10c64:	d2c5                	beqz	a3,10c04 <strlen+0x8>
   10c66:	00074783          	lbu	a5,0(a4)
   10c6a:	0705                	addi	a4,a4,1
   10c6c:	00777693          	andi	a3,a4,7
   10c70:	fbf5                	bnez	a5,10c64 <strlen+0x68>
   10c72:	8f09                	sub	a4,a4,a0
   10c74:	fff70513          	addi	a0,a4,-1
   10c78:	8082                	ret
   10c7a:	ff978513          	addi	a0,a5,-7
   10c7e:	8082                	ret
   10c80:	ff878513          	addi	a0,a5,-8
   10c84:	8082                	ret
   10c86:	ffb78513          	addi	a0,a5,-5
   10c8a:	8082                	ret
   10c8c:	ffa78513          	addi	a0,a5,-6
   10c90:	8082                	ret
   10c92:	ffc78513          	addi	a0,a5,-4
   10c96:	8082                	ret
   10c98:	ffd78513          	addi	a0,a5,-3
   10c9c:	8082                	ret

0000000000010c9e <__call_exitprocs>:
   10c9e:	715d                	addi	sp,sp,-80
   10ca0:	f052                	sd	s4,32(sp)
   10ca2:	f84a                	sd	s2,48(sp)
   10ca4:	8a01b903          	ld	s2,-1888(gp) # 1b310 <__atexit>
   10ca8:	e486                	sd	ra,72(sp)
   10caa:	06090d63          	beqz	s2,10d24 <__call_exitprocs+0x86>
   10cae:	f44e                	sd	s3,40(sp)
   10cb0:	ec56                	sd	s5,24(sp)
   10cb2:	e85a                	sd	s6,16(sp)
   10cb4:	e45e                	sd	s7,8(sp)
   10cb6:	e0a2                	sd	s0,64(sp)
   10cb8:	fc26                	sd	s1,56(sp)
   10cba:	e062                	sd	s8,0(sp)
   10cbc:	8b2a                	mv	s6,a0
   10cbe:	8bae                	mv	s7,a1
   10cc0:	59fd                	li	s3,-1
   10cc2:	4a85                	li	s5,1
   10cc4:	00892483          	lw	s1,8(s2)
   10cc8:	fff4841b          	addiw	s0,s1,-1
   10ccc:	04044563          	bltz	s0,10d16 <__call_exitprocs+0x78>
   10cd0:	048e                	slli	s1,s1,0x3
   10cd2:	94ca                	add	s1,s1,s2
   10cd4:	040b9d63          	bnez	s7,10d2e <__call_exitprocs+0x90>
   10cd8:	00892783          	lw	a5,8(s2)
   10cdc:	6498                	ld	a4,8(s1)
   10cde:	37fd                	addiw	a5,a5,-1
   10ce0:	08878263          	beq	a5,s0,10d64 <__call_exitprocs+0xc6>
   10ce4:	0004b423          	sd	zero,8(s1)
   10ce8:	c31d                	beqz	a4,10d0e <__call_exitprocs+0x70>
   10cea:	31092783          	lw	a5,784(s2)
   10cee:	008a96bb          	sllw	a3,s5,s0
   10cf2:	00892c03          	lw	s8,8(s2)
   10cf6:	8ff5                	and	a5,a5,a3
   10cf8:	2781                	sext.w	a5,a5
   10cfa:	e3b9                	bnez	a5,10d40 <__call_exitprocs+0xa2>
   10cfc:	9702                	jalr	a4
   10cfe:	00892703          	lw	a4,8(s2)
   10d02:	8a01b783          	ld	a5,-1888(gp) # 1b310 <__atexit>
   10d06:	05871c63          	bne	a4,s8,10d5e <__call_exitprocs+0xc0>
   10d0a:	05279a63          	bne	a5,s2,10d5e <__call_exitprocs+0xc0>
   10d0e:	347d                	addiw	s0,s0,-1
   10d10:	14e1                	addi	s1,s1,-8
   10d12:	fd3411e3          	bne	s0,s3,10cd4 <__call_exitprocs+0x36>
   10d16:	6406                	ld	s0,64(sp)
   10d18:	74e2                	ld	s1,56(sp)
   10d1a:	79a2                	ld	s3,40(sp)
   10d1c:	6ae2                	ld	s5,24(sp)
   10d1e:	6b42                	ld	s6,16(sp)
   10d20:	6ba2                	ld	s7,8(sp)
   10d22:	6c02                	ld	s8,0(sp)
   10d24:	60a6                	ld	ra,72(sp)
   10d26:	7942                	ld	s2,48(sp)
   10d28:	7a02                	ld	s4,32(sp)
   10d2a:	6161                	addi	sp,sp,80
   10d2c:	8082                	ret
   10d2e:	2084b783          	ld	a5,520(s1)
   10d32:	fb7783e3          	beq	a5,s7,10cd8 <__call_exitprocs+0x3a>
   10d36:	347d                	addiw	s0,s0,-1
   10d38:	14e1                	addi	s1,s1,-8
   10d3a:	ff341ae3          	bne	s0,s3,10d2e <__call_exitprocs+0x90>
   10d3e:	bfe1                	j	10d16 <__call_exitprocs+0x78>
   10d40:	31492783          	lw	a5,788(s2)
   10d44:	1084b583          	ld	a1,264(s1)
   10d48:	8ff5                	and	a5,a5,a3
   10d4a:	2781                	sext.w	a5,a5
   10d4c:	ef99                	bnez	a5,10d6a <__call_exitprocs+0xcc>
   10d4e:	855a                	mv	a0,s6
   10d50:	9702                	jalr	a4
   10d52:	00892703          	lw	a4,8(s2)
   10d56:	8a01b783          	ld	a5,-1888(gp) # 1b310 <__atexit>
   10d5a:	fb8708e3          	beq	a4,s8,10d0a <__call_exitprocs+0x6c>
   10d5e:	dfc5                	beqz	a5,10d16 <__call_exitprocs+0x78>
   10d60:	893e                	mv	s2,a5
   10d62:	b78d                	j	10cc4 <__call_exitprocs+0x26>
   10d64:	00892423          	sw	s0,8(s2)
   10d68:	b741                	j	10ce8 <__call_exitprocs+0x4a>
   10d6a:	852e                	mv	a0,a1
   10d6c:	9702                	jalr	a4
   10d6e:	bf41                	j	10cfe <__call_exitprocs+0x60>

0000000000010d70 <atexit>:
   10d70:	85aa                	mv	a1,a0
   10d72:	4681                	li	a3,0
   10d74:	4601                	li	a2,0
   10d76:	4501                	li	a0,0
   10d78:	0d80306f          	j	13e50 <__register_exitproc>

0000000000010d7c <_malloc_trim_r>:
   10d7c:	7179                	addi	sp,sp,-48
   10d7e:	e44e                	sd	s3,8(sp)
   10d80:	69ed                	lui	s3,0x1b
   10d82:	f022                	sd	s0,32(sp)
   10d84:	ec26                	sd	s1,24(sp)
   10d86:	e84a                	sd	s2,16(sp)
   10d88:	e052                	sd	s4,0(sp)
   10d8a:	f406                	sd	ra,40(sp)
   10d8c:	8a2e                	mv	s4,a1
   10d8e:	892a                	mv	s2,a0
   10d90:	8b898993          	addi	s3,s3,-1864 # 1a8b8 <__malloc_av_>
   10d94:	10d000ef          	jal	116a0 <__malloc_lock>
   10d98:	0109b703          	ld	a4,16(s3)
   10d9c:	6785                	lui	a5,0x1
   10d9e:	fdf78793          	addi	a5,a5,-33 # fdf <exit-0xf109>
   10da2:	6704                	ld	s1,8(a4)
   10da4:	6705                	lui	a4,0x1
   10da6:	98f1                	andi	s1,s1,-4
   10da8:	00f48433          	add	s0,s1,a5
   10dac:	41440433          	sub	s0,s0,s4
   10db0:	8031                	srli	s0,s0,0xc
   10db2:	147d                	addi	s0,s0,-1
   10db4:	0432                	slli	s0,s0,0xc
   10db6:	00e44b63          	blt	s0,a4,10dcc <_malloc_trim_r+0x50>
   10dba:	4581                	li	a1,0
   10dbc:	854a                	mv	a0,s2
   10dbe:	561020ef          	jal	13b1e <_sbrk_r>
   10dc2:	0109b783          	ld	a5,16(s3)
   10dc6:	97a6                	add	a5,a5,s1
   10dc8:	00f50e63          	beq	a0,a5,10de4 <_malloc_trim_r+0x68>
   10dcc:	854a                	mv	a0,s2
   10dce:	0d5000ef          	jal	116a2 <__malloc_unlock>
   10dd2:	70a2                	ld	ra,40(sp)
   10dd4:	7402                	ld	s0,32(sp)
   10dd6:	64e2                	ld	s1,24(sp)
   10dd8:	6942                	ld	s2,16(sp)
   10dda:	69a2                	ld	s3,8(sp)
   10ddc:	6a02                	ld	s4,0(sp)
   10dde:	4501                	li	a0,0
   10de0:	6145                	addi	sp,sp,48
   10de2:	8082                	ret
   10de4:	408005b3          	neg	a1,s0
   10de8:	854a                	mv	a0,s2
   10dea:	535020ef          	jal	13b1e <_sbrk_r>
   10dee:	57fd                	li	a5,-1
   10df0:	02f50b63          	beq	a0,a5,10e26 <_malloc_trim_r+0xaa>
   10df4:	000337b7          	lui	a5,0x33
   10df8:	58878793          	addi	a5,a5,1416 # 33588 <__malloc_current_mallinfo>
   10dfc:	4398                	lw	a4,0(a5)
   10dfe:	0109b683          	ld	a3,16(s3)
   10e02:	8c81                	sub	s1,s1,s0
   10e04:	0014e493          	ori	s1,s1,1
   10e08:	9f01                	subw	a4,a4,s0
   10e0a:	854a                	mv	a0,s2
   10e0c:	e684                	sd	s1,8(a3)
   10e0e:	c398                	sw	a4,0(a5)
   10e10:	093000ef          	jal	116a2 <__malloc_unlock>
   10e14:	70a2                	ld	ra,40(sp)
   10e16:	7402                	ld	s0,32(sp)
   10e18:	64e2                	ld	s1,24(sp)
   10e1a:	6942                	ld	s2,16(sp)
   10e1c:	69a2                	ld	s3,8(sp)
   10e1e:	6a02                	ld	s4,0(sp)
   10e20:	4505                	li	a0,1
   10e22:	6145                	addi	sp,sp,48
   10e24:	8082                	ret
   10e26:	4581                	li	a1,0
   10e28:	854a                	mv	a0,s2
   10e2a:	4f5020ef          	jal	13b1e <_sbrk_r>
   10e2e:	0109b703          	ld	a4,16(s3)
   10e32:	46fd                	li	a3,31
   10e34:	40e507b3          	sub	a5,a0,a4
   10e38:	f8f6dae3          	bge	a3,a5,10dcc <_malloc_trim_r+0x50>
   10e3c:	8801b683          	ld	a3,-1920(gp) # 1b2f0 <__malloc_sbrk_base>
   10e40:	0017e793          	ori	a5,a5,1
   10e44:	e71c                	sd	a5,8(a4)
   10e46:	8d15                	sub	a0,a0,a3
   10e48:	000336b7          	lui	a3,0x33
   10e4c:	58a6a423          	sw	a0,1416(a3) # 33588 <__malloc_current_mallinfo>
   10e50:	bfb5                	j	10dcc <_malloc_trim_r+0x50>

0000000000010e52 <_free_r>:
   10e52:	12058163          	beqz	a1,10f74 <_free_r+0x122>
   10e56:	1101                	addi	sp,sp,-32
   10e58:	e822                	sd	s0,16(sp)
   10e5a:	e426                	sd	s1,8(sp)
   10e5c:	842e                	mv	s0,a1
   10e5e:	84aa                	mv	s1,a0
   10e60:	ec06                	sd	ra,24(sp)
   10e62:	03f000ef          	jal	116a0 <__malloc_lock>
   10e66:	ff843503          	ld	a0,-8(s0)
   10e6a:	ff040713          	addi	a4,s0,-16
   10e6e:	65ed                	lui	a1,0x1b
   10e70:	ffe57793          	andi	a5,a0,-2
   10e74:	00f70633          	add	a2,a4,a5
   10e78:	8b858593          	addi	a1,a1,-1864 # 1a8b8 <__malloc_av_>
   10e7c:	6614                	ld	a3,8(a2)
   10e7e:	0105b803          	ld	a6,16(a1)
   10e82:	9af1                	andi	a3,a3,-4
   10e84:	12c80a63          	beq	a6,a2,10fb8 <_free_r+0x166>
   10e88:	e614                	sd	a3,8(a2)
   10e8a:	8905                	andi	a0,a0,1
   10e8c:	00d60833          	add	a6,a2,a3
   10e90:	ed3d                	bnez	a0,10f0e <_free_r+0xbc>
   10e92:	ff043303          	ld	t1,-16(s0)
   10e96:	00883803          	ld	a6,8(a6)
   10e9a:	656d                	lui	a0,0x1b
   10e9c:	40670733          	sub	a4,a4,t1
   10ea0:	01073883          	ld	a7,16(a4) # 1010 <exit-0xf0d8>
   10ea4:	8c850513          	addi	a0,a0,-1848 # 1a8c8 <__malloc_av_+0x10>
   10ea8:	979a                	add	a5,a5,t1
   10eaa:	00187813          	andi	a6,a6,1
   10eae:	0ea88863          	beq	a7,a0,10f9e <_free_r+0x14c>
   10eb2:	01873303          	ld	t1,24(a4)
   10eb6:	0068bc23          	sd	t1,24(a7)
   10eba:	01133823          	sd	a7,16(t1)
   10ebe:	12080663          	beqz	a6,10fea <_free_r+0x198>
   10ec2:	0017e693          	ori	a3,a5,1
   10ec6:	e714                	sd	a3,8(a4)
   10ec8:	e21c                	sd	a5,0(a2)
   10eca:	1ff00693          	li	a3,511
   10ece:	04f6ed63          	bltu	a3,a5,10f28 <_free_r+0xd6>
   10ed2:	838d                	srli	a5,a5,0x3
   10ed4:	0017869b          	addiw	a3,a5,1
   10ed8:	0016969b          	slliw	a3,a3,0x1
   10edc:	068e                	slli	a3,a3,0x3
   10ede:	0085b803          	ld	a6,8(a1)
   10ee2:	96ae                	add	a3,a3,a1
   10ee4:	6288                	ld	a0,0(a3)
   10ee6:	4027d61b          	sraiw	a2,a5,0x2
   10eea:	4785                	li	a5,1
   10eec:	00c797b3          	sll	a5,a5,a2
   10ef0:	0107e7b3          	or	a5,a5,a6
   10ef4:	ff068613          	addi	a2,a3,-16
   10ef8:	ef10                	sd	a2,24(a4)
   10efa:	eb08                	sd	a0,16(a4)
   10efc:	e59c                	sd	a5,8(a1)
   10efe:	e298                	sd	a4,0(a3)
   10f00:	ed18                	sd	a4,24(a0)
   10f02:	6442                	ld	s0,16(sp)
   10f04:	60e2                	ld	ra,24(sp)
   10f06:	8526                	mv	a0,s1
   10f08:	64a2                	ld	s1,8(sp)
   10f0a:	6105                	addi	sp,sp,32
   10f0c:	af59                	j	116a2 <__malloc_unlock>
   10f0e:	00883503          	ld	a0,8(a6)
   10f12:	8905                	andi	a0,a0,1
   10f14:	c12d                	beqz	a0,10f76 <_free_r+0x124>
   10f16:	0017e693          	ori	a3,a5,1
   10f1a:	fed43c23          	sd	a3,-8(s0)
   10f1e:	e21c                	sd	a5,0(a2)
   10f20:	1ff00693          	li	a3,511
   10f24:	faf6f7e3          	bgeu	a3,a5,10ed2 <_free_r+0x80>
   10f28:	0097d693          	srli	a3,a5,0x9
   10f2c:	4611                	li	a2,4
   10f2e:	0cd66063          	bltu	a2,a3,10fee <_free_r+0x19c>
   10f32:	0067d693          	srli	a3,a5,0x6
   10f36:	0396851b          	addiw	a0,a3,57
   10f3a:	0015151b          	slliw	a0,a0,0x1
   10f3e:	0386861b          	addiw	a2,a3,56
   10f42:	050e                	slli	a0,a0,0x3
   10f44:	952e                	add	a0,a0,a1
   10f46:	6114                	ld	a3,0(a0)
   10f48:	1541                	addi	a0,a0,-16
   10f4a:	00d51663          	bne	a0,a3,10f56 <_free_r+0x104>
   10f4e:	a0dd                	j	11034 <_free_r+0x1e2>
   10f50:	6a94                	ld	a3,16(a3)
   10f52:	00d50663          	beq	a0,a3,10f5e <_free_r+0x10c>
   10f56:	6690                	ld	a2,8(a3)
   10f58:	9a71                	andi	a2,a2,-4
   10f5a:	fec7ebe3          	bltu	a5,a2,10f50 <_free_r+0xfe>
   10f5e:	6e88                	ld	a0,24(a3)
   10f60:	ef08                	sd	a0,24(a4)
   10f62:	eb14                	sd	a3,16(a4)
   10f64:	6442                	ld	s0,16(sp)
   10f66:	e918                	sd	a4,16(a0)
   10f68:	60e2                	ld	ra,24(sp)
   10f6a:	8526                	mv	a0,s1
   10f6c:	64a2                	ld	s1,8(sp)
   10f6e:	ee98                	sd	a4,24(a3)
   10f70:	6105                	addi	sp,sp,32
   10f72:	af05                	j	116a2 <__malloc_unlock>
   10f74:	8082                	ret
   10f76:	656d                	lui	a0,0x1b
   10f78:	97b6                	add	a5,a5,a3
   10f7a:	8c850513          	addi	a0,a0,-1848 # 1a8c8 <__malloc_av_+0x10>
   10f7e:	6a14                	ld	a3,16(a2)
   10f80:	0aa68063          	beq	a3,a0,11020 <_free_r+0x1ce>
   10f84:	01863803          	ld	a6,24(a2) # 2018 <exit-0xe0d0>
   10f88:	0017e513          	ori	a0,a5,1
   10f8c:	00f70633          	add	a2,a4,a5
   10f90:	0106bc23          	sd	a6,24(a3)
   10f94:	00d83823          	sd	a3,16(a6)
   10f98:	e708                	sd	a0,8(a4)
   10f9a:	e21c                	sd	a5,0(a2)
   10f9c:	b73d                	j	10eca <_free_r+0x78>
   10f9e:	0e081763          	bnez	a6,1108c <_free_r+0x23a>
   10fa2:	6a0c                	ld	a1,16(a2)
   10fa4:	6e10                	ld	a2,24(a2)
   10fa6:	96be                	add	a3,a3,a5
   10fa8:	0016e793          	ori	a5,a3,1
   10fac:	ed90                	sd	a2,24(a1)
   10fae:	ea0c                	sd	a1,16(a2)
   10fb0:	e71c                	sd	a5,8(a4)
   10fb2:	9736                	add	a4,a4,a3
   10fb4:	e314                	sd	a3,0(a4)
   10fb6:	b7b1                	j	10f02 <_free_r+0xb0>
   10fb8:	8905                	andi	a0,a0,1
   10fba:	96be                	add	a3,a3,a5
   10fbc:	e909                	bnez	a0,10fce <_free_r+0x17c>
   10fbe:	ff043503          	ld	a0,-16(s0)
   10fc2:	8f09                	sub	a4,a4,a0
   10fc4:	6f1c                	ld	a5,24(a4)
   10fc6:	6b10                	ld	a2,16(a4)
   10fc8:	96aa                	add	a3,a3,a0
   10fca:	ee1c                	sd	a5,24(a2)
   10fcc:	eb90                	sd	a2,16(a5)
   10fce:	0016e613          	ori	a2,a3,1
   10fd2:	8881b783          	ld	a5,-1912(gp) # 1b2f8 <__malloc_trim_threshold>
   10fd6:	e710                	sd	a2,8(a4)
   10fd8:	e998                	sd	a4,16(a1)
   10fda:	f2f6e4e3          	bltu	a3,a5,10f02 <_free_r+0xb0>
   10fde:	8b81b583          	ld	a1,-1864(gp) # 1b328 <__malloc_top_pad>
   10fe2:	8526                	mv	a0,s1
   10fe4:	d99ff0ef          	jal	10d7c <_malloc_trim_r>
   10fe8:	bf29                	j	10f02 <_free_r+0xb0>
   10fea:	97b6                	add	a5,a5,a3
   10fec:	bf49                	j	10f7e <_free_r+0x12c>
   10fee:	4651                	li	a2,20
   10ff0:	02d67063          	bgeu	a2,a3,11010 <_free_r+0x1be>
   10ff4:	05400613          	li	a2,84
   10ff8:	04d66963          	bltu	a2,a3,1104a <_free_r+0x1f8>
   10ffc:	00c7d693          	srli	a3,a5,0xc
   11000:	06f6851b          	addiw	a0,a3,111
   11004:	0015151b          	slliw	a0,a0,0x1
   11008:	06e6861b          	addiw	a2,a3,110
   1100c:	050e                	slli	a0,a0,0x3
   1100e:	bf1d                	j	10f44 <_free_r+0xf2>
   11010:	05c6851b          	addiw	a0,a3,92
   11014:	0015151b          	slliw	a0,a0,0x1
   11018:	05b6861b          	addiw	a2,a3,91
   1101c:	050e                	slli	a0,a0,0x3
   1101e:	b71d                	j	10f44 <_free_r+0xf2>
   11020:	f598                	sd	a4,40(a1)
   11022:	f198                	sd	a4,32(a1)
   11024:	0017e693          	ori	a3,a5,1
   11028:	ef08                	sd	a0,24(a4)
   1102a:	eb08                	sd	a0,16(a4)
   1102c:	e714                	sd	a3,8(a4)
   1102e:	973e                	add	a4,a4,a5
   11030:	e31c                	sd	a5,0(a4)
   11032:	bdc1                	j	10f02 <_free_r+0xb0>
   11034:	0085b803          	ld	a6,8(a1)
   11038:	4026561b          	sraiw	a2,a2,0x2
   1103c:	4785                	li	a5,1
   1103e:	00c797b3          	sll	a5,a5,a2
   11042:	0107e7b3          	or	a5,a5,a6
   11046:	e59c                	sd	a5,8(a1)
   11048:	bf21                	j	10f60 <_free_r+0x10e>
   1104a:	15400613          	li	a2,340
   1104e:	00d66c63          	bltu	a2,a3,11066 <_free_r+0x214>
   11052:	00f7d693          	srli	a3,a5,0xf
   11056:	0786851b          	addiw	a0,a3,120
   1105a:	0015151b          	slliw	a0,a0,0x1
   1105e:	0776861b          	addiw	a2,a3,119
   11062:	050e                	slli	a0,a0,0x3
   11064:	b5c5                	j	10f44 <_free_r+0xf2>
   11066:	55400613          	li	a2,1364
   1106a:	00d66c63          	bltu	a2,a3,11082 <_free_r+0x230>
   1106e:	0127d693          	srli	a3,a5,0x12
   11072:	07d6851b          	addiw	a0,a3,125
   11076:	0015151b          	slliw	a0,a0,0x1
   1107a:	07c6861b          	addiw	a2,a3,124
   1107e:	050e                	slli	a0,a0,0x3
   11080:	b5d1                	j	10f44 <_free_r+0xf2>
   11082:	7f000513          	li	a0,2032
   11086:	07e00613          	li	a2,126
   1108a:	bd6d                	j	10f44 <_free_r+0xf2>
   1108c:	0017e693          	ori	a3,a5,1
   11090:	e714                	sd	a3,8(a4)
   11092:	e21c                	sd	a5,0(a2)
   11094:	b5bd                	j	10f02 <_free_r+0xb0>

0000000000011096 <_malloc_r>:
   11096:	711d                	addi	sp,sp,-96
   11098:	e4a6                	sd	s1,72(sp)
   1109a:	e0ca                	sd	s2,64(sp)
   1109c:	ec86                	sd	ra,88(sp)
   1109e:	e8a2                	sd	s0,80(sp)
   110a0:	fc4e                	sd	s3,56(sp)
   110a2:	01758493          	addi	s1,a1,23
   110a6:	02e00793          	li	a5,46
   110aa:	892a                	mv	s2,a0
   110ac:	0497ed63          	bltu	a5,s1,11106 <_malloc_r+0x70>
   110b0:	02000793          	li	a5,32
   110b4:	18b7e963          	bltu	a5,a1,11246 <_malloc_r+0x1b0>
   110b8:	5e8000ef          	jal	116a0 <__malloc_lock>
   110bc:	05000793          	li	a5,80
   110c0:	4591                	li	a1,4
   110c2:	02000493          	li	s1,32
   110c6:	69ed                	lui	s3,0x1b
   110c8:	8b898993          	addi	s3,s3,-1864 # 1a8b8 <__malloc_av_>
   110cc:	97ce                	add	a5,a5,s3
   110ce:	6780                	ld	s0,8(a5)
   110d0:	ff078713          	addi	a4,a5,-16
   110d4:	26e40f63          	beq	s0,a4,11352 <_malloc_r+0x2bc>
   110d8:	641c                	ld	a5,8(s0)
   110da:	6c14                	ld	a3,24(s0)
   110dc:	6810                	ld	a2,16(s0)
   110de:	9bf1                	andi	a5,a5,-4
   110e0:	97a2                	add	a5,a5,s0
   110e2:	6798                	ld	a4,8(a5)
   110e4:	ee14                	sd	a3,24(a2)
   110e6:	ea90                	sd	a2,16(a3)
   110e8:	00176713          	ori	a4,a4,1
   110ec:	854a                	mv	a0,s2
   110ee:	e798                	sd	a4,8(a5)
   110f0:	5b2000ef          	jal	116a2 <__malloc_unlock>
   110f4:	01040513          	addi	a0,s0,16
   110f8:	60e6                	ld	ra,88(sp)
   110fa:	6446                	ld	s0,80(sp)
   110fc:	64a6                	ld	s1,72(sp)
   110fe:	6906                	ld	s2,64(sp)
   11100:	79e2                	ld	s3,56(sp)
   11102:	6125                	addi	sp,sp,96
   11104:	8082                	ret
   11106:	800007b7          	lui	a5,0x80000
   1110a:	98c1                	andi	s1,s1,-16
   1110c:	fff7c793          	not	a5,a5
   11110:	1297eb63          	bltu	a5,s1,11246 <_malloc_r+0x1b0>
   11114:	12b4e963          	bltu	s1,a1,11246 <_malloc_r+0x1b0>
   11118:	588000ef          	jal	116a0 <__malloc_lock>
   1111c:	1f700793          	li	a5,503
   11120:	3297f463          	bgeu	a5,s1,11448 <_malloc_r+0x3b2>
   11124:	0094d793          	srli	a5,s1,0x9
   11128:	12078463          	beqz	a5,11250 <_malloc_r+0x1ba>
   1112c:	4711                	li	a4,4
   1112e:	26f76963          	bltu	a4,a5,113a0 <_malloc_r+0x30a>
   11132:	0064d793          	srli	a5,s1,0x6
   11136:	0397859b          	addiw	a1,a5,57 # ffffffff80000039 <__BSS_END__+0xffffffff7ffcc771>
   1113a:	0015961b          	slliw	a2,a1,0x1
   1113e:	0387881b          	addiw	a6,a5,56
   11142:	060e                	slli	a2,a2,0x3
   11144:	69ed                	lui	s3,0x1b
   11146:	8b898993          	addi	s3,s3,-1864 # 1a8b8 <__malloc_av_>
   1114a:	964e                	add	a2,a2,s3
   1114c:	6600                	ld	s0,8(a2)
   1114e:	1641                	addi	a2,a2,-16
   11150:	02860163          	beq	a2,s0,11172 <_malloc_r+0xdc>
   11154:	457d                	li	a0,31
   11156:	a039                	j	11164 <_malloc_r+0xce>
   11158:	6c14                	ld	a3,24(s0)
   1115a:	1e075a63          	bgez	a4,1134e <_malloc_r+0x2b8>
   1115e:	00d60a63          	beq	a2,a3,11172 <_malloc_r+0xdc>
   11162:	8436                	mv	s0,a3
   11164:	641c                	ld	a5,8(s0)
   11166:	9bf1                	andi	a5,a5,-4
   11168:	40978733          	sub	a4,a5,s1
   1116c:	fee556e3          	bge	a0,a4,11158 <_malloc_r+0xc2>
   11170:	85c2                	mv	a1,a6
   11172:	0209b403          	ld	s0,32(s3)
   11176:	686d                	lui	a6,0x1b
   11178:	8c880813          	addi	a6,a6,-1848 # 1a8c8 <__malloc_av_+0x10>
   1117c:	1d040663          	beq	s0,a6,11348 <_malloc_r+0x2b2>
   11180:	641c                	ld	a5,8(s0)
   11182:	46fd                	li	a3,31
   11184:	9bf1                	andi	a5,a5,-4
   11186:	40978733          	sub	a4,a5,s1
   1118a:	28e6c863          	blt	a3,a4,1141a <_malloc_r+0x384>
   1118e:	0309b423          	sd	a6,40(s3)
   11192:	0309b023          	sd	a6,32(s3)
   11196:	26075763          	bgez	a4,11404 <_malloc_r+0x36e>
   1119a:	1ff00713          	li	a4,511
   1119e:	0089b503          	ld	a0,8(s3)
   111a2:	1af76d63          	bltu	a4,a5,1135c <_malloc_r+0x2c6>
   111a6:	838d                	srli	a5,a5,0x3
   111a8:	0017871b          	addiw	a4,a5,1
   111ac:	0017171b          	slliw	a4,a4,0x1
   111b0:	070e                	slli	a4,a4,0x3
   111b2:	974e                	add	a4,a4,s3
   111b4:	6310                	ld	a2,0(a4)
   111b6:	4027d79b          	sraiw	a5,a5,0x2
   111ba:	4685                	li	a3,1
   111bc:	00f697b3          	sll	a5,a3,a5
   111c0:	8d5d                	or	a0,a0,a5
   111c2:	ff070793          	addi	a5,a4,-16
   111c6:	ec1c                	sd	a5,24(s0)
   111c8:	e810                	sd	a2,16(s0)
   111ca:	00a9b423          	sd	a0,8(s3)
   111ce:	e300                	sd	s0,0(a4)
   111d0:	ee00                	sd	s0,24(a2)
   111d2:	4025d79b          	sraiw	a5,a1,0x2
   111d6:	4605                	li	a2,1
   111d8:	00f61633          	sll	a2,a2,a5
   111dc:	08c56163          	bltu	a0,a2,1125e <_malloc_r+0x1c8>
   111e0:	00a677b3          	and	a5,a2,a0
   111e4:	ef81                	bnez	a5,111fc <_malloc_r+0x166>
   111e6:	0606                	slli	a2,a2,0x1
   111e8:	99f1                	andi	a1,a1,-4
   111ea:	00a677b3          	and	a5,a2,a0
   111ee:	2591                	addiw	a1,a1,4
   111f0:	e791                	bnez	a5,111fc <_malloc_r+0x166>
   111f2:	0606                	slli	a2,a2,0x1
   111f4:	00a677b3          	and	a5,a2,a0
   111f8:	2591                	addiw	a1,a1,4
   111fa:	dfe5                	beqz	a5,111f2 <_malloc_r+0x15c>
   111fc:	48fd                	li	a7,31
   111fe:	0015831b          	addiw	t1,a1,1
   11202:	0013131b          	slliw	t1,t1,0x1
   11206:	030e                	slli	t1,t1,0x3
   11208:	1341                	addi	t1,t1,-16
   1120a:	934e                	add	t1,t1,s3
   1120c:	851a                	mv	a0,t1
   1120e:	6d1c                	ld	a5,24(a0)
   11210:	8e2e                	mv	t3,a1
   11212:	1af50863          	beq	a0,a5,113c2 <_malloc_r+0x32c>
   11216:	6798                	ld	a4,8(a5)
   11218:	843e                	mv	s0,a5
   1121a:	6f9c                	ld	a5,24(a5)
   1121c:	9b71                	andi	a4,a4,-4
   1121e:	409706b3          	sub	a3,a4,s1
   11222:	1ad8c763          	blt	a7,a3,113d0 <_malloc_r+0x33a>
   11226:	fe06c6e3          	bltz	a3,11212 <_malloc_r+0x17c>
   1122a:	9722                	add	a4,a4,s0
   1122c:	6714                	ld	a3,8(a4)
   1122e:	6810                	ld	a2,16(s0)
   11230:	854a                	mv	a0,s2
   11232:	0016e693          	ori	a3,a3,1
   11236:	e714                	sd	a3,8(a4)
   11238:	ee1c                	sd	a5,24(a2)
   1123a:	eb90                	sd	a2,16(a5)
   1123c:	466000ef          	jal	116a2 <__malloc_unlock>
   11240:	01040513          	addi	a0,s0,16
   11244:	bd55                	j	110f8 <_malloc_r+0x62>
   11246:	47b1                	li	a5,12
   11248:	00f92023          	sw	a5,0(s2)
   1124c:	4501                	li	a0,0
   1124e:	b56d                	j	110f8 <_malloc_r+0x62>
   11250:	40000613          	li	a2,1024
   11254:	04000593          	li	a1,64
   11258:	03f00813          	li	a6,63
   1125c:	b5e5                	j	11144 <_malloc_r+0xae>
   1125e:	0109b403          	ld	s0,16(s3)
   11262:	f456                	sd	s5,40(sp)
   11264:	641c                	ld	a5,8(s0)
   11266:	ffc7fa93          	andi	s5,a5,-4
   1126a:	009ae763          	bltu	s5,s1,11278 <_malloc_r+0x1e2>
   1126e:	409a8733          	sub	a4,s5,s1
   11272:	47fd                	li	a5,31
   11274:	0ae7c463          	blt	a5,a4,1131c <_malloc_r+0x286>
   11278:	e466                	sd	s9,8(sp)
   1127a:	f852                	sd	s4,48(sp)
   1127c:	8801b703          	ld	a4,-1920(gp) # 1b2f0 <__malloc_sbrk_base>
   11280:	8b81ba03          	ld	s4,-1864(gp) # 1b328 <__malloc_top_pad>
   11284:	e862                	sd	s8,16(sp)
   11286:	f05a                	sd	s6,32(sp)
   11288:	57fd                	li	a5,-1
   1128a:	01540c33          	add	s8,s0,s5
   1128e:	9a26                	add	s4,s4,s1
   11290:	2ef70c63          	beq	a4,a5,11588 <_malloc_r+0x4f2>
   11294:	6785                	lui	a5,0x1
   11296:	07fd                	addi	a5,a5,31 # 101f <exit-0xf0c9>
   11298:	9a3e                	add	s4,s4,a5
   1129a:	77fd                	lui	a5,0xfffff
   1129c:	00fa7a33          	and	s4,s4,a5
   112a0:	85d2                	mv	a1,s4
   112a2:	854a                	mv	a0,s2
   112a4:	07b020ef          	jal	13b1e <_sbrk_r>
   112a8:	57fd                	li	a5,-1
   112aa:	8b2a                	mv	s6,a0
   112ac:	36f50463          	beq	a0,a5,11614 <_malloc_r+0x57e>
   112b0:	ec5e                	sd	s7,24(sp)
   112b2:	1b856e63          	bltu	a0,s8,1146e <_malloc_r+0x3d8>
   112b6:	00033bb7          	lui	s7,0x33
   112ba:	588b8b93          	addi	s7,s7,1416 # 33588 <__malloc_current_mallinfo>
   112be:	000ba783          	lw	a5,0(s7)
   112c2:	0147873b          	addw	a4,a5,s4
   112c6:	00eba023          	sw	a4,0(s7)
   112ca:	86ba                	mv	a3,a4
   112cc:	20ac1963          	bne	s8,a0,114de <_malloc_r+0x448>
   112d0:	03451793          	slli	a5,a0,0x34
   112d4:	20079563          	bnez	a5,114de <_malloc_r+0x448>
   112d8:	0109bb03          	ld	s6,16(s3)
   112dc:	014a87b3          	add	a5,s5,s4
   112e0:	0017e793          	ori	a5,a5,1
   112e4:	00fb3423          	sd	a5,8(s6)
   112e8:	8b01b603          	ld	a2,-1872(gp) # 1b320 <__malloc_max_sbrked_mem>
   112ec:	00e67463          	bgeu	a2,a4,112f4 <_malloc_r+0x25e>
   112f0:	8ae1b823          	sd	a4,-1872(gp) # 1b320 <__malloc_max_sbrked_mem>
   112f4:	8a81b603          	ld	a2,-1880(gp) # 1b318 <__malloc_max_total_mem>
   112f8:	00e67463          	bgeu	a2,a4,11300 <_malloc_r+0x26a>
   112fc:	8ae1b423          	sd	a4,-1880(gp) # 1b318 <__malloc_max_total_mem>
   11300:	6be2                	ld	s7,24(sp)
   11302:	845a                	mv	s0,s6
   11304:	9bf1                	andi	a5,a5,-4
   11306:	40978733          	sub	a4,a5,s1
   1130a:	2a97ef63          	bltu	a5,s1,115c8 <_malloc_r+0x532>
   1130e:	47fd                	li	a5,31
   11310:	2ae7dc63          	bge	a5,a4,115c8 <_malloc_r+0x532>
   11314:	7a42                	ld	s4,48(sp)
   11316:	7b02                	ld	s6,32(sp)
   11318:	6c42                	ld	s8,16(sp)
   1131a:	6ca2                	ld	s9,8(sp)
   1131c:	0014e793          	ori	a5,s1,1
   11320:	e41c                	sd	a5,8(s0)
   11322:	94a2                	add	s1,s1,s0
   11324:	0099b823          	sd	s1,16(s3)
   11328:	00176713          	ori	a4,a4,1
   1132c:	854a                	mv	a0,s2
   1132e:	e498                	sd	a4,8(s1)
   11330:	372000ef          	jal	116a2 <__malloc_unlock>
   11334:	60e6                	ld	ra,88(sp)
   11336:	01040513          	addi	a0,s0,16
   1133a:	6446                	ld	s0,80(sp)
   1133c:	7aa2                	ld	s5,40(sp)
   1133e:	64a6                	ld	s1,72(sp)
   11340:	6906                	ld	s2,64(sp)
   11342:	79e2                	ld	s3,56(sp)
   11344:	6125                	addi	sp,sp,96
   11346:	8082                	ret
   11348:	0089b503          	ld	a0,8(s3)
   1134c:	b559                	j	111d2 <_malloc_r+0x13c>
   1134e:	6810                	ld	a2,16(s0)
   11350:	bb41                	j	110e0 <_malloc_r+0x4a>
   11352:	6f80                	ld	s0,24(a5)
   11354:	2589                	addiw	a1,a1,2
   11356:	e0878ee3          	beq	a5,s0,11172 <_malloc_r+0xdc>
   1135a:	bbbd                	j	110d8 <_malloc_r+0x42>
   1135c:	0097d713          	srli	a4,a5,0x9
   11360:	4691                	li	a3,4
   11362:	0ee6fc63          	bgeu	a3,a4,1145a <_malloc_r+0x3c4>
   11366:	46d1                	li	a3,20
   11368:	26e6ea63          	bltu	a3,a4,115dc <_malloc_r+0x546>
   1136c:	05c7061b          	addiw	a2,a4,92
   11370:	0016161b          	slliw	a2,a2,0x1
   11374:	05b7069b          	addiw	a3,a4,91
   11378:	060e                	slli	a2,a2,0x3
   1137a:	964e                	add	a2,a2,s3
   1137c:	6218                	ld	a4,0(a2)
   1137e:	1641                	addi	a2,a2,-16
   11380:	00e61663          	bne	a2,a4,1138c <_malloc_r+0x2f6>
   11384:	a429                	j	1158e <_malloc_r+0x4f8>
   11386:	6b18                	ld	a4,16(a4)
   11388:	00e60663          	beq	a2,a4,11394 <_malloc_r+0x2fe>
   1138c:	6714                	ld	a3,8(a4)
   1138e:	9af1                	andi	a3,a3,-4
   11390:	fed7ebe3          	bltu	a5,a3,11386 <_malloc_r+0x2f0>
   11394:	6f10                	ld	a2,24(a4)
   11396:	ec10                	sd	a2,24(s0)
   11398:	e818                	sd	a4,16(s0)
   1139a:	ea00                	sd	s0,16(a2)
   1139c:	ef00                	sd	s0,24(a4)
   1139e:	bd15                	j	111d2 <_malloc_r+0x13c>
   113a0:	4751                	li	a4,20
   113a2:	0cf77d63          	bgeu	a4,a5,1147c <_malloc_r+0x3e6>
   113a6:	05400713          	li	a4,84
   113aa:	24f76763          	bltu	a4,a5,115f8 <_malloc_r+0x562>
   113ae:	00c4d793          	srli	a5,s1,0xc
   113b2:	06f7859b          	addiw	a1,a5,111 # fffffffffffff06f <__BSS_END__+0xfffffffffffcb7a7>
   113b6:	0015961b          	slliw	a2,a1,0x1
   113ba:	06e7881b          	addiw	a6,a5,110
   113be:	060e                	slli	a2,a2,0x3
   113c0:	b351                	j	11144 <_malloc_r+0xae>
   113c2:	2e05                	addiw	t3,t3,1
   113c4:	003e7793          	andi	a5,t3,3
   113c8:	0541                	addi	a0,a0,16
   113ca:	c7f1                	beqz	a5,11496 <_malloc_r+0x400>
   113cc:	6d1c                	ld	a5,24(a0)
   113ce:	b591                	j	11212 <_malloc_r+0x17c>
   113d0:	6810                	ld	a2,16(s0)
   113d2:	0014e593          	ori	a1,s1,1
   113d6:	e40c                	sd	a1,8(s0)
   113d8:	ee1c                	sd	a5,24(a2)
   113da:	eb90                	sd	a2,16(a5)
   113dc:	94a2                	add	s1,s1,s0
   113de:	0299b423          	sd	s1,40(s3)
   113e2:	0299b023          	sd	s1,32(s3)
   113e6:	0016e793          	ori	a5,a3,1
   113ea:	0104bc23          	sd	a6,24(s1)
   113ee:	0104b823          	sd	a6,16(s1)
   113f2:	e49c                	sd	a5,8(s1)
   113f4:	9722                	add	a4,a4,s0
   113f6:	854a                	mv	a0,s2
   113f8:	e314                	sd	a3,0(a4)
   113fa:	2a8000ef          	jal	116a2 <__malloc_unlock>
   113fe:	01040513          	addi	a0,s0,16
   11402:	b9dd                	j	110f8 <_malloc_r+0x62>
   11404:	97a2                	add	a5,a5,s0
   11406:	6798                	ld	a4,8(a5)
   11408:	854a                	mv	a0,s2
   1140a:	00176713          	ori	a4,a4,1
   1140e:	e798                	sd	a4,8(a5)
   11410:	292000ef          	jal	116a2 <__malloc_unlock>
   11414:	01040513          	addi	a0,s0,16
   11418:	b1c5                	j	110f8 <_malloc_r+0x62>
   1141a:	0014e693          	ori	a3,s1,1
   1141e:	e414                	sd	a3,8(s0)
   11420:	94a2                	add	s1,s1,s0
   11422:	0299b423          	sd	s1,40(s3)
   11426:	0299b023          	sd	s1,32(s3)
   1142a:	00176693          	ori	a3,a4,1
   1142e:	0104bc23          	sd	a6,24(s1)
   11432:	0104b823          	sd	a6,16(s1)
   11436:	e494                	sd	a3,8(s1)
   11438:	97a2                	add	a5,a5,s0
   1143a:	854a                	mv	a0,s2
   1143c:	e398                	sd	a4,0(a5)
   1143e:	264000ef          	jal	116a2 <__malloc_unlock>
   11442:	01040513          	addi	a0,s0,16
   11446:	b94d                	j	110f8 <_malloc_r+0x62>
   11448:	0034d593          	srli	a1,s1,0x3
   1144c:	0015879b          	addiw	a5,a1,1
   11450:	0017979b          	slliw	a5,a5,0x1
   11454:	2581                	sext.w	a1,a1
   11456:	078e                	slli	a5,a5,0x3
   11458:	b1bd                	j	110c6 <_malloc_r+0x30>
   1145a:	0067d713          	srli	a4,a5,0x6
   1145e:	0397061b          	addiw	a2,a4,57
   11462:	0016161b          	slliw	a2,a2,0x1
   11466:	0387069b          	addiw	a3,a4,56
   1146a:	060e                	slli	a2,a2,0x3
   1146c:	b739                	j	1137a <_malloc_r+0x2e4>
   1146e:	05340e63          	beq	s0,s3,114ca <_malloc_r+0x434>
   11472:	0109b403          	ld	s0,16(s3)
   11476:	6be2                	ld	s7,24(sp)
   11478:	641c                	ld	a5,8(s0)
   1147a:	b569                	j	11304 <_malloc_r+0x26e>
   1147c:	05c7859b          	addiw	a1,a5,92
   11480:	0015961b          	slliw	a2,a1,0x1
   11484:	05b7881b          	addiw	a6,a5,91
   11488:	060e                	slli	a2,a2,0x3
   1148a:	b96d                	j	11144 <_malloc_r+0xae>
   1148c:	01033783          	ld	a5,16(t1)
   11490:	35fd                	addiw	a1,a1,-1
   11492:	20679463          	bne	a5,t1,1169a <_malloc_r+0x604>
   11496:	0035f793          	andi	a5,a1,3
   1149a:	1341                	addi	t1,t1,-16
   1149c:	fbe5                	bnez	a5,1148c <_malloc_r+0x3f6>
   1149e:	0089b703          	ld	a4,8(s3)
   114a2:	fff64793          	not	a5,a2
   114a6:	8ff9                	and	a5,a5,a4
   114a8:	00f9b423          	sd	a5,8(s3)
   114ac:	0606                	slli	a2,a2,0x1
   114ae:	dac7e8e3          	bltu	a5,a2,1125e <_malloc_r+0x1c8>
   114b2:	da0606e3          	beqz	a2,1125e <_malloc_r+0x1c8>
   114b6:	00f67733          	and	a4,a2,a5
   114ba:	e711                	bnez	a4,114c6 <_malloc_r+0x430>
   114bc:	0606                	slli	a2,a2,0x1
   114be:	00f67733          	and	a4,a2,a5
   114c2:	2e11                	addiw	t3,t3,4
   114c4:	df65                	beqz	a4,114bc <_malloc_r+0x426>
   114c6:	85f2                	mv	a1,t3
   114c8:	bb1d                	j	111fe <_malloc_r+0x168>
   114ca:	00033bb7          	lui	s7,0x33
   114ce:	588b8b93          	addi	s7,s7,1416 # 33588 <__malloc_current_mallinfo>
   114d2:	000ba783          	lw	a5,0(s7)
   114d6:	014786bb          	addw	a3,a5,s4
   114da:	00dba023          	sw	a3,0(s7)
   114de:	8801b703          	ld	a4,-1920(gp) # 1b2f0 <__malloc_sbrk_base>
   114e2:	57fd                	li	a5,-1
   114e4:	12f70c63          	beq	a4,a5,1161c <_malloc_r+0x586>
   114e8:	418b07b3          	sub	a5,s6,s8
   114ec:	9fb5                	addw	a5,a5,a3
   114ee:	00fba023          	sw	a5,0(s7)
   114f2:	00fb7c93          	andi	s9,s6,15
   114f6:	0a0c8563          	beqz	s9,115a0 <_malloc_r+0x50a>
   114fa:	419b0b33          	sub	s6,s6,s9
   114fe:	6705                	lui	a4,0x1
   11500:	0741                	addi	a4,a4,16 # 1010 <exit-0xf0d8>
   11502:	0b41                	addi	s6,s6,16
   11504:	41970c33          	sub	s8,a4,s9
   11508:	9a5a                	add	s4,s4,s6
   1150a:	414c0c33          	sub	s8,s8,s4
   1150e:	1c52                	slli	s8,s8,0x34
   11510:	034c5c13          	srli	s8,s8,0x34
   11514:	85e2                	mv	a1,s8
   11516:	854a                	mv	a0,s2
   11518:	606020ef          	jal	13b1e <_sbrk_r>
   1151c:	57fd                	li	a5,-1
   1151e:	12f50e63          	beq	a0,a5,1165a <_malloc_r+0x5c4>
   11522:	41650533          	sub	a0,a0,s6
   11526:	000c069b          	sext.w	a3,s8
   1152a:	01850a33          	add	s4,a0,s8
   1152e:	000ba703          	lw	a4,0(s7)
   11532:	0169b823          	sd	s6,16(s3)
   11536:	001a6793          	ori	a5,s4,1
   1153a:	9f35                	addw	a4,a4,a3
   1153c:	00eba023          	sw	a4,0(s7)
   11540:	00fb3423          	sd	a5,8(s6)
   11544:	db3402e3          	beq	s0,s3,112e8 <_malloc_r+0x252>
   11548:	467d                	li	a2,31
   1154a:	07567b63          	bgeu	a2,s5,115c0 <_malloc_r+0x52a>
   1154e:	6414                	ld	a3,8(s0)
   11550:	fe8a8793          	addi	a5,s5,-24
   11554:	9bc1                	andi	a5,a5,-16
   11556:	8a85                	andi	a3,a3,1
   11558:	8edd                	or	a3,a3,a5
   1155a:	e414                	sd	a3,8(s0)
   1155c:	45a5                	li	a1,9
   1155e:	00f406b3          	add	a3,s0,a5
   11562:	e68c                	sd	a1,8(a3)
   11564:	ea8c                	sd	a1,16(a3)
   11566:	00f66563          	bltu	a2,a5,11570 <_malloc_r+0x4da>
   1156a:	008b3783          	ld	a5,8(s6)
   1156e:	bbad                	j	112e8 <_malloc_r+0x252>
   11570:	01040593          	addi	a1,s0,16
   11574:	854a                	mv	a0,s2
   11576:	8ddff0ef          	jal	10e52 <_free_r>
   1157a:	0109bb03          	ld	s6,16(s3)
   1157e:	000ba703          	lw	a4,0(s7)
   11582:	008b3783          	ld	a5,8(s6)
   11586:	b38d                	j	112e8 <_malloc_r+0x252>
   11588:	020a0a13          	addi	s4,s4,32
   1158c:	bb11                	j	112a0 <_malloc_r+0x20a>
   1158e:	4026d69b          	sraiw	a3,a3,0x2
   11592:	4785                	li	a5,1
   11594:	00d797b3          	sll	a5,a5,a3
   11598:	8d5d                	or	a0,a0,a5
   1159a:	00a9b423          	sd	a0,8(s3)
   1159e:	bbe5                	j	11396 <_malloc_r+0x300>
   115a0:	014b0c33          	add	s8,s6,s4
   115a4:	41800c33          	neg	s8,s8
   115a8:	1c52                	slli	s8,s8,0x34
   115aa:	034c5c13          	srli	s8,s8,0x34
   115ae:	85e2                	mv	a1,s8
   115b0:	854a                	mv	a0,s2
   115b2:	56c020ef          	jal	13b1e <_sbrk_r>
   115b6:	57fd                	li	a5,-1
   115b8:	4681                	li	a3,0
   115ba:	f6f514e3          	bne	a0,a5,11522 <_malloc_r+0x48c>
   115be:	bf85                	j	1152e <_malloc_r+0x498>
   115c0:	6be2                	ld	s7,24(sp)
   115c2:	4785                	li	a5,1
   115c4:	00fb3423          	sd	a5,8(s6)
   115c8:	854a                	mv	a0,s2
   115ca:	0d8000ef          	jal	116a2 <__malloc_unlock>
   115ce:	4501                	li	a0,0
   115d0:	7a42                	ld	s4,48(sp)
   115d2:	7aa2                	ld	s5,40(sp)
   115d4:	7b02                	ld	s6,32(sp)
   115d6:	6c42                	ld	s8,16(sp)
   115d8:	6ca2                	ld	s9,8(sp)
   115da:	be39                	j	110f8 <_malloc_r+0x62>
   115dc:	05400693          	li	a3,84
   115e0:	04e6e163          	bltu	a3,a4,11622 <_malloc_r+0x58c>
   115e4:	00c7d713          	srli	a4,a5,0xc
   115e8:	06f7061b          	addiw	a2,a4,111
   115ec:	0016161b          	slliw	a2,a2,0x1
   115f0:	06e7069b          	addiw	a3,a4,110
   115f4:	060e                	slli	a2,a2,0x3
   115f6:	b351                	j	1137a <_malloc_r+0x2e4>
   115f8:	15400713          	li	a4,340
   115fc:	04f76163          	bltu	a4,a5,1163e <_malloc_r+0x5a8>
   11600:	00f4d793          	srli	a5,s1,0xf
   11604:	0787859b          	addiw	a1,a5,120
   11608:	0015961b          	slliw	a2,a1,0x1
   1160c:	0777881b          	addiw	a6,a5,119
   11610:	060e                	slli	a2,a2,0x3
   11612:	be0d                	j	11144 <_malloc_r+0xae>
   11614:	0109b403          	ld	s0,16(s3)
   11618:	641c                	ld	a5,8(s0)
   1161a:	b1ed                	j	11304 <_malloc_r+0x26e>
   1161c:	8961b023          	sd	s6,-1920(gp) # 1b2f0 <__malloc_sbrk_base>
   11620:	bdc9                	j	114f2 <_malloc_r+0x45c>
   11622:	15400693          	li	a3,340
   11626:	04e6e063          	bltu	a3,a4,11666 <_malloc_r+0x5d0>
   1162a:	00f7d713          	srli	a4,a5,0xf
   1162e:	0787061b          	addiw	a2,a4,120
   11632:	0016161b          	slliw	a2,a2,0x1
   11636:	0777069b          	addiw	a3,a4,119
   1163a:	060e                	slli	a2,a2,0x3
   1163c:	bb3d                	j	1137a <_malloc_r+0x2e4>
   1163e:	55400713          	li	a4,1364
   11642:	04f76063          	bltu	a4,a5,11682 <_malloc_r+0x5ec>
   11646:	0124d793          	srli	a5,s1,0x12
   1164a:	07d7859b          	addiw	a1,a5,125
   1164e:	0015961b          	slliw	a2,a1,0x1
   11652:	07c7881b          	addiw	a6,a5,124
   11656:	060e                	slli	a2,a2,0x3
   11658:	b4f5                	j	11144 <_malloc_r+0xae>
   1165a:	1cc1                	addi	s9,s9,-16
   1165c:	9a66                	add	s4,s4,s9
   1165e:	416a0a33          	sub	s4,s4,s6
   11662:	4681                	li	a3,0
   11664:	b5e9                	j	1152e <_malloc_r+0x498>
   11666:	55400693          	li	a3,1364
   1166a:	02e6e363          	bltu	a3,a4,11690 <_malloc_r+0x5fa>
   1166e:	0127d713          	srli	a4,a5,0x12
   11672:	07d7061b          	addiw	a2,a4,125
   11676:	0016161b          	slliw	a2,a2,0x1
   1167a:	07c7069b          	addiw	a3,a4,124
   1167e:	060e                	slli	a2,a2,0x3
   11680:	b9ed                	j	1137a <_malloc_r+0x2e4>
   11682:	7f000613          	li	a2,2032
   11686:	07f00593          	li	a1,127
   1168a:	07e00813          	li	a6,126
   1168e:	bc5d                	j	11144 <_malloc_r+0xae>
   11690:	7f000613          	li	a2,2032
   11694:	07e00693          	li	a3,126
   11698:	b1cd                	j	1137a <_malloc_r+0x2e4>
   1169a:	0089b783          	ld	a5,8(s3)
   1169e:	b539                	j	114ac <_malloc_r+0x416>

00000000000116a0 <__malloc_lock>:
   116a0:	8082                	ret

00000000000116a2 <__malloc_unlock>:
   116a2:	8082                	ret

00000000000116a4 <_vfprintf_r>:
   116a4:	db010113          	addi	sp,sp,-592
   116a8:	24113423          	sd	ra,584(sp)
   116ac:	24813023          	sd	s0,576(sp)
   116b0:	23213823          	sd	s2,560(sp)
   116b4:	ffe6                	sd	s9,504(sp)
   116b6:	892e                	mv	s2,a1
   116b8:	8cb2                	mv	s9,a2
   116ba:	f036                	sd	a3,32(sp)
   116bc:	842a                	mv	s0,a0
   116be:	e42a                	sd	a0,8(sp)
   116c0:	44e020ef          	jal	13b0e <_localeconv_r>
   116c4:	611c                	ld	a5,0(a0)
   116c6:	853e                	mv	a0,a5
   116c8:	ecbe                	sd	a5,88(sp)
   116ca:	d32ff0ef          	jal	10bfc <strlen>
   116ce:	e8aa                	sd	a0,80(sp)
   116d0:	e982                	sd	zero,208(sp)
   116d2:	ed82                	sd	zero,216(sp)
   116d4:	c409                	beqz	s0,116de <_vfprintf_r+0x3a>
   116d6:	6438                	ld	a4,72(s0)
   116d8:	e319                	bnez	a4,116de <_vfprintf_r+0x3a>
   116da:	2240106f          	j	128fe <_vfprintf_r+0x125a>
   116de:	01091683          	lh	a3,16(s2)
   116e2:	0ac92703          	lw	a4,172(s2)
   116e6:	03269613          	slli	a2,a3,0x32
   116ea:	00064b63          	bltz	a2,11700 <_vfprintf_r+0x5c>
   116ee:	7679                	lui	a2,0xffffe
   116f0:	167d                	addi	a2,a2,-1 # ffffffffffffdfff <__BSS_END__+0xfffffffffffca737>
   116f2:	6589                	lui	a1,0x2
   116f4:	8ecd                	or	a3,a3,a1
   116f6:	8f71                	and	a4,a4,a2
   116f8:	00d91823          	sh	a3,16(s2)
   116fc:	0ae92623          	sw	a4,172(s2)
   11700:	03271693          	slli	a3,a4,0x32
   11704:	0006d463          	bgez	a3,1170c <_vfprintf_r+0x68>
   11708:	7a20106f          	j	12eaa <_vfprintf_r+0x1806>
   1170c:	01091703          	lh	a4,16(s2)
   11710:	00877693          	andi	a3,a4,8
   11714:	24068e63          	beqz	a3,11970 <_vfprintf_r+0x2cc>
   11718:	01893683          	ld	a3,24(s2)
   1171c:	24068a63          	beqz	a3,11970 <_vfprintf_r+0x2cc>
   11720:	8b69                	andi	a4,a4,26
   11722:	46a9                	li	a3,10
   11724:	26d70363          	beq	a4,a3,1198a <_vfprintf_r+0x2e6>
   11728:	23413023          	sd	s4,544(sp)
   1172c:	21513c23          	sd	s5,536(sp)
   11730:	fbea                	sd	s10,496(sp)
   11732:	6765                	lui	a4,0x19
   11734:	22913c23          	sd	s1,568(sp)
   11738:	23313423          	sd	s3,552(sp)
   1173c:	21613823          	sd	s6,528(sp)
   11740:	21713423          	sd	s7,520(sp)
   11744:	21813023          	sd	s8,512(sp)
   11748:	f7ee                	sd	s11,488(sp)
   1174a:	8d66                	mv	s10,s9
   1174c:	0c870793          	addi	a5,a4,200 # 190c8 <__clzdi2+0x346>
   11750:	000d4703          	lbu	a4,0(s10)
   11754:	16010a13          	addi	s4,sp,352
   11758:	6ae5                	lui	s5,0x19
   1175a:	f1d2                	sd	s4,224(sp)
   1175c:	f982                	sd	zero,240(sp)
   1175e:	d582                	sw	zero,232(sp)
   11760:	fc02                	sd	zero,56(sp)
   11762:	f082                	sd	zero,96(sp)
   11764:	f882                	sd	zero,112(sp)
   11766:	e102                	sd	zero,128(sp)
   11768:	e502                	sd	zero,136(sp)
   1176a:	fc82                	sd	zero,120(sp)
   1176c:	e802                	sd	zero,16(sp)
   1176e:	f43e                	sd	a5,40(sp)
   11770:	8452                	mv	s0,s4
   11772:	238a8a93          	addi	s5,s5,568 # 19238 <zeroes.0>
   11776:	1a070163          	beqz	a4,11918 <_vfprintf_r+0x274>
   1177a:	89ea                	mv	s3,s10
   1177c:	02500693          	li	a3,37
   11780:	2cd70d63          	beq	a4,a3,11a5a <_vfprintf_r+0x3b6>
   11784:	0019c703          	lbu	a4,1(s3)
   11788:	0985                	addi	s3,s3,1
   1178a:	fb7d                	bnez	a4,11780 <_vfprintf_r+0xdc>
   1178c:	41a984bb          	subw	s1,s3,s10
   11790:	18048463          	beqz	s1,11918 <_vfprintf_r+0x274>
   11794:	572e                	lw	a4,232(sp)
   11796:	76ce                	ld	a3,240(sp)
   11798:	01a43023          	sd	s10,0(s0)
   1179c:	2705                	addiw	a4,a4,1
   1179e:	96a6                	add	a3,a3,s1
   117a0:	e404                	sd	s1,8(s0)
   117a2:	f9b6                	sd	a3,240(sp)
   117a4:	d5ba                	sw	a4,232(sp)
   117a6:	0007069b          	sext.w	a3,a4
   117aa:	471d                	li	a4,7
   117ac:	0441                	addi	s0,s0,16
   117ae:	2ad74d63          	blt	a4,a3,11a68 <_vfprintf_r+0x3c4>
   117b2:	67c2                	ld	a5,16(sp)
   117b4:	0009c703          	lbu	a4,0(s3)
   117b8:	9fa5                	addw	a5,a5,s1
   117ba:	e83e                	sd	a5,16(sp)
   117bc:	14070e63          	beqz	a4,11918 <_vfprintf_r+0x274>
   117c0:	0019c303          	lbu	t1,1(s3)
   117c4:	0a0107a3          	sb	zero,175(sp)
   117c8:	0985                	addi	s3,s3,1
   117ca:	5b7d                	li	s6,-1
   117cc:	4b81                	li	s7,0
   117ce:	4d81                	li	s11,0
   117d0:	05a00493          	li	s1,90
   117d4:	0985                	addi	s3,s3,1
   117d6:	2301                	sext.w	t1,t1
   117d8:	fe03079b          	addiw	a5,t1,-32
   117dc:	0007871b          	sext.w	a4,a5
   117e0:	04e4e563          	bltu	s1,a4,1182a <_vfprintf_r+0x186>
   117e4:	02079713          	slli	a4,a5,0x20
   117e8:	01e75793          	srli	a5,a4,0x1e
   117ec:	7722                	ld	a4,40(sp)
   117ee:	97ba                	add	a5,a5,a4
   117f0:	439c                	lw	a5,0(a5)
   117f2:	8782                	jr	a5
   117f4:	4b81                	li	s7,0
   117f6:	46a5                	li	a3,9
   117f8:	0009c703          	lbu	a4,0(s3)
   117fc:	002b979b          	slliw	a5,s7,0x2
   11800:	01778bbb          	addw	s7,a5,s7
   11804:	fd03031b          	addiw	t1,t1,-48
   11808:	001b9b9b          	slliw	s7,s7,0x1
   1180c:	fd07079b          	addiw	a5,a4,-48
   11810:	01730bbb          	addw	s7,t1,s7
   11814:	0985                	addi	s3,s3,1
   11816:	0007031b          	sext.w	t1,a4
   1181a:	fcf6ffe3          	bgeu	a3,a5,117f8 <_vfprintf_r+0x154>
   1181e:	fe03079b          	addiw	a5,t1,-32
   11822:	0007871b          	sext.w	a4,a5
   11826:	fae4ffe3          	bgeu	s1,a4,117e4 <_vfprintf_r+0x140>
   1182a:	0e030763          	beqz	t1,11918 <_vfprintf_r+0x274>
   1182e:	0e610c23          	sb	t1,248(sp)
   11832:	0a0107a3          	sb	zero,175(sp)
   11836:	4c05                	li	s8,1
   11838:	4685                	li	a3,1
   1183a:	0f810d13          	addi	s10,sp,248
   1183e:	ec02                	sd	zero,24(sp)
   11840:	4b01                	li	s6,0
   11842:	e482                	sd	zero,72(sp)
   11844:	e082                	sd	zero,64(sp)
   11846:	f802                	sd	zero,48(sp)
   11848:	002df293          	andi	t0,s11,2
   1184c:	00028363          	beqz	t0,11852 <_vfprintf_r+0x1ae>
   11850:	2c09                	addiw	s8,s8,2
   11852:	084dfc93          	andi	s9,s11,132
   11856:	74ce                	ld	s1,240(sp)
   11858:	000c9663          	bnez	s9,11864 <_vfprintf_r+0x1c0>
   1185c:	418b873b          	subw	a4,s7,s8
   11860:	2ee044e3          	bgtz	a4,12348 <_vfprintf_r+0xca4>
   11864:	0af14703          	lbu	a4,175(sp)
   11868:	c30d                	beqz	a4,1188a <_vfprintf_r+0x1e6>
   1186a:	572e                	lw	a4,232(sp)
   1186c:	0af10613          	addi	a2,sp,175
   11870:	e010                	sd	a2,0(s0)
   11872:	2705                	addiw	a4,a4,1
   11874:	4605                	li	a2,1
   11876:	0485                	addi	s1,s1,1
   11878:	e410                	sd	a2,8(s0)
   1187a:	d5ba                	sw	a4,232(sp)
   1187c:	0007061b          	sext.w	a2,a4
   11880:	f9a6                	sd	s1,240(sp)
   11882:	471d                	li	a4,7
   11884:	0441                	addi	s0,s0,16
   11886:	4ec74b63          	blt	a4,a2,11d7c <_vfprintf_r+0x6d8>
   1188a:	02028163          	beqz	t0,118ac <_vfprintf_r+0x208>
   1188e:	572e                	lw	a4,232(sp)
   11890:	4609                	li	a2,2
   11892:	0489                	addi	s1,s1,2
   11894:	2705                	addiw	a4,a4,1
   11896:	191c                	addi	a5,sp,176
   11898:	e410                	sd	a2,8(s0)
   1189a:	e01c                	sd	a5,0(s0)
   1189c:	0007061b          	sext.w	a2,a4
   118a0:	d5ba                	sw	a4,232(sp)
   118a2:	f9a6                	sd	s1,240(sp)
   118a4:	471d                	li	a4,7
   118a6:	0441                	addi	s0,s0,16
   118a8:	32c74fe3          	blt	a4,a2,123e6 <_vfprintf_r+0xd42>
   118ac:	08000713          	li	a4,128
   118b0:	10ec8ce3          	beq	s9,a4,121c8 <_vfprintf_r+0xb24>
   118b4:	40db0b3b          	subw	s6,s6,a3
   118b8:	1b604be3          	bgtz	s6,1226e <_vfprintf_r+0xbca>
   118bc:	100df713          	andi	a4,s11,256
   118c0:	020710e3          	bnez	a4,120e0 <_vfprintf_r+0xa3c>
   118c4:	572e                	lw	a4,232(sp)
   118c6:	94b6                	add	s1,s1,a3
   118c8:	01a43023          	sd	s10,0(s0)
   118cc:	2705                	addiw	a4,a4,1
   118ce:	e414                	sd	a3,8(s0)
   118d0:	f9a6                	sd	s1,240(sp)
   118d2:	d5ba                	sw	a4,232(sp)
   118d4:	479d                	li	a5,7
   118d6:	54e7cf63          	blt	a5,a4,11e34 <_vfprintf_r+0x790>
   118da:	0441                	addi	s0,s0,16
   118dc:	004dfe13          	andi	t3,s11,4
   118e0:	000e0663          	beqz	t3,118ec <_vfprintf_r+0x248>
   118e4:	418b8b3b          	subw	s6,s7,s8
   118e8:	31604de3          	bgtz	s6,12402 <_vfprintf_r+0xd5e>
   118ec:	87de                	mv	a5,s7
   118ee:	018bd363          	bge	s7,s8,118f4 <_vfprintf_r+0x250>
   118f2:	87e2                	mv	a5,s8
   118f4:	6742                	ld	a4,16(sp)
   118f6:	9fb9                	addw	a5,a5,a4
   118f8:	e83e                	sd	a5,16(sp)
   118fa:	200497e3          	bnez	s1,12308 <_vfprintf_r+0xc64>
   118fe:	67e2                	ld	a5,24(sp)
   11900:	d582                	sw	zero,232(sp)
   11902:	c789                	beqz	a5,1190c <_vfprintf_r+0x268>
   11904:	65e2                	ld	a1,24(sp)
   11906:	6522                	ld	a0,8(sp)
   11908:	d4aff0ef          	jal	10e52 <_free_r>
   1190c:	8452                	mv	s0,s4
   1190e:	8d4e                	mv	s10,s3
   11910:	000d4703          	lbu	a4,0(s10)
   11914:	e60713e3          	bnez	a4,1177a <_vfprintf_r+0xd6>
   11918:	77ce                	ld	a5,240(sp)
   1191a:	c399                	beqz	a5,11920 <_vfprintf_r+0x27c>
   1191c:	3a20106f          	j	12cbe <_vfprintf_r+0x161a>
   11920:	01095783          	lhu	a5,16(s2)
   11924:	23813483          	ld	s1,568(sp)
   11928:	22813983          	ld	s3,552(sp)
   1192c:	0407f793          	andi	a5,a5,64
   11930:	22013a03          	ld	s4,544(sp)
   11934:	21813a83          	ld	s5,536(sp)
   11938:	21013b03          	ld	s6,528(sp)
   1193c:	20813b83          	ld	s7,520(sp)
   11940:	20013c03          	ld	s8,512(sp)
   11944:	7d5e                	ld	s10,496(sp)
   11946:	7dbe                	ld	s11,488(sp)
   11948:	c399                	beqz	a5,1194e <_vfprintf_r+0x2aa>
   1194a:	5600106f          	j	12eaa <_vfprintf_r+0x1806>
   1194e:	24813083          	ld	ra,584(sp)
   11952:	24013403          	ld	s0,576(sp)
   11956:	6542                	ld	a0,16(sp)
   11958:	23013903          	ld	s2,560(sp)
   1195c:	7cfe                	ld	s9,504(sp)
   1195e:	25010113          	addi	sp,sp,592
   11962:	8082                	ret
   11964:	010ded93          	ori	s11,s11,16
   11968:	0009c303          	lbu	t1,0(s3)
   1196c:	2d81                	sext.w	s11,s11
   1196e:	b59d                	j	117d4 <_vfprintf_r+0x130>
   11970:	6522                	ld	a0,8(sp)
   11972:	85ca                	mv	a1,s2
   11974:	779010ef          	jal	138ec <__swsetup_r>
   11978:	c119                	beqz	a0,1197e <_vfprintf_r+0x2da>
   1197a:	5300106f          	j	12eaa <_vfprintf_r+0x1806>
   1197e:	01091703          	lh	a4,16(s2)
   11982:	46a9                	li	a3,10
   11984:	8b69                	andi	a4,a4,26
   11986:	dad711e3          	bne	a4,a3,11728 <_vfprintf_r+0x84>
   1198a:	01291703          	lh	a4,18(s2)
   1198e:	d8074de3          	bltz	a4,11728 <_vfprintf_r+0x84>
   11992:	7682                	ld	a3,32(sp)
   11994:	6522                	ld	a0,8(sp)
   11996:	8666                	mv	a2,s9
   11998:	85ca                	mv	a1,s2
   1199a:	05d010ef          	jal	131f6 <__sbprintf>
   1199e:	e82a                	sd	a0,16(sp)
   119a0:	b77d                	j	1194e <_vfprintf_r+0x2aa>
   119a2:	010dee13          	ori	t3,s11,16
   119a6:	000e0d9b          	sext.w	s11,t3
   119aa:	7682                	ld	a3,32(sp)
   119ac:	020df793          	andi	a5,s11,32
   119b0:	00868713          	addi	a4,a3,8
   119b4:	4a078763          	beqz	a5,11e62 <_vfprintf_r+0x7be>
   119b8:	629c                	ld	a5,0(a3)
   119ba:	84be                	mv	s1,a5
   119bc:	4c07c463          	bltz	a5,11e84 <_vfprintf_r+0x7e0>
   119c0:	4c0b45e3          	bltz	s6,1268a <_vfprintf_r+0xfe6>
   119c4:	f7fdfc93          	andi	s9,s11,-129
   119c8:	2c81                	sext.w	s9,s9
   119ca:	c099                	beqz	s1,119d0 <_vfprintf_r+0x32c>
   119cc:	7790006f          	j	12944 <_vfprintf_r+0x12a0>
   119d0:	000b0463          	beqz	s6,119d8 <_vfprintf_r+0x334>
   119d4:	6740106f          	j	13048 <_vfprintf_r+0x19a4>
   119d8:	4681                	li	a3,0
   119da:	f03a                	sd	a4,32(sp)
   119dc:	8de6                	mv	s11,s9
   119de:	15c10d13          	addi	s10,sp,348
   119e2:	0af14703          	lbu	a4,175(sp)
   119e6:	885a                	mv	a6,s6
   119e8:	00db5363          	bge	s6,a3,119ee <_vfprintf_r+0x34a>
   119ec:	8836                	mv	a6,a3
   119ee:	ec02                	sd	zero,24(sp)
   119f0:	e482                	sd	zero,72(sp)
   119f2:	e082                	sd	zero,64(sp)
   119f4:	f802                	sd	zero,48(sp)
   119f6:	00080c1b          	sext.w	s8,a6
   119fa:	e40707e3          	beqz	a4,11848 <_vfprintf_r+0x1a4>
   119fe:	2c05                	addiw	s8,s8,1
   11a00:	b5a1                	j	11848 <_vfprintf_r+0x1a4>
   11a02:	010dee13          	ori	t3,s11,16
   11a06:	000e0d9b          	sext.w	s11,t3
   11a0a:	7682                	ld	a3,32(sp)
   11a0c:	020df793          	andi	a5,s11,32
   11a10:	00868713          	addi	a4,a3,8
   11a14:	42078a63          	beqz	a5,11e48 <_vfprintf_r+0x7a4>
   11a18:	6284                	ld	s1,0(a3)
   11a1a:	bffdfc93          	andi	s9,s11,-1025
   11a1e:	2c81                	sext.w	s9,s9
   11a20:	f03a                	sd	a4,32(sp)
   11a22:	4781                	li	a5,0
   11a24:	4701                	li	a4,0
   11a26:	0ae107a3          	sb	a4,175(sp)
   11a2a:	460b4863          	bltz	s6,11e9a <_vfprintf_r+0x7f6>
   11a2e:	f7fcfe13          	andi	t3,s9,-129
   11a32:	000e0d9b          	sext.w	s11,t3
   11a36:	0e0498e3          	bnez	s1,12326 <_vfprintf_r+0xc82>
   11a3a:	740b1e63          	bnez	s6,12196 <_vfprintf_r+0xaf2>
   11a3e:	3c079ae3          	bnez	a5,12612 <_vfprintf_r+0xf6e>
   11a42:	001cf693          	andi	a3,s9,1
   11a46:	15c10d13          	addi	s10,sp,348
   11a4a:	dec1                	beqz	a3,119e2 <_vfprintf_r+0x33e>
   11a4c:	03000793          	li	a5,48
   11a50:	14f10da3          	sb	a5,347(sp)
   11a54:	15b10d13          	addi	s10,sp,347
   11a58:	b769                	j	119e2 <_vfprintf_r+0x33e>
   11a5a:	41a984bb          	subw	s1,s3,s10
   11a5e:	d2049be3          	bnez	s1,11794 <_vfprintf_r+0xf0>
   11a62:	0009c703          	lbu	a4,0(s3)
   11a66:	bb99                	j	117bc <_vfprintf_r+0x118>
   11a68:	6522                	ld	a0,8(sp)
   11a6a:	1190                	addi	a2,sp,224
   11a6c:	85ca                	mv	a1,s2
   11a6e:	021010ef          	jal	1328e <__sprint_r>
   11a72:	ea0517e3          	bnez	a0,11920 <_vfprintf_r+0x27c>
   11a76:	8452                	mv	s0,s4
   11a78:	bb2d                	j	117b2 <_vfprintf_r+0x10e>
   11a7a:	008df713          	andi	a4,s11,8
   11a7e:	3e0713e3          	bnez	a4,12664 <_vfprintf_r+0xfc0>
   11a82:	7782                	ld	a5,32(sp)
   11a84:	ec1a                	sd	t1,24(sp)
   11a86:	2388                	fld	fa0,0(a5)
   11a88:	00878c13          	addi	s8,a5,8
   11a8c:	236070ef          	jal	18cc2 <__extenddftf2>
   11a90:	6362                	ld	t1,24(sp)
   11a92:	872a                	mv	a4,a0
   11a94:	f062                	sd	s8,32(sp)
   11a96:	0988                	addi	a0,sp,208
   11a98:	ec1a                	sd	t1,24(sp)
   11a9a:	e9ba                	sd	a4,208(sp)
   11a9c:	edae                	sd	a1,216(sp)
   11a9e:	58c020ef          	jal	1402a <_ldcheck>
   11aa2:	dd2a                	sw	a0,184(sp)
   11aa4:	4709                	li	a4,2
   11aa6:	6362                	ld	t1,24(sp)
   11aa8:	6ae500e3          	beq	a0,a4,12948 <_vfprintf_r+0x12a4>
   11aac:	4705                	li	a4,1
   11aae:	00e51463          	bne	a0,a4,11ab6 <_vfprintf_r+0x412>
   11ab2:	7bb0006f          	j	12a6c <_vfprintf_r+0x13c8>
   11ab6:	06100713          	li	a4,97
   11aba:	56e300e3          	beq	t1,a4,1281a <_vfprintf_r+0x1176>
   11abe:	04100713          	li	a4,65
   11ac2:	05800793          	li	a5,88
   11ac6:	54e30ce3          	beq	t1,a4,1281e <_vfprintf_r+0x117a>
   11aca:	577d                	li	a4,-1
   11acc:	00eb1463          	bne	s6,a4,11ad4 <_vfprintf_r+0x430>
   11ad0:	5700106f          	j	13040 <_vfprintf_r+0x199c>
   11ad4:	fdf37713          	andi	a4,t1,-33
   11ad8:	04700693          	li	a3,71
   11adc:	ec02                	sd	zero,24(sp)
   11ade:	00d71463          	bne	a4,a3,11ae6 <_vfprintf_r+0x442>
   11ae2:	5720106f          	j	13054 <_vfprintf_r+0x19b0>
   11ae6:	67ce                	ld	a5,208(sp)
   11ae8:	6cee                	ld	s9,216(sp)
   11aea:	100de713          	ori	a4,s11,256
   11aee:	f83e                	sd	a5,48(sp)
   11af0:	f482                	sd	zero,104(sp)
   11af2:	0007049b          	sext.w	s1,a4
   11af6:	000cd463          	bgez	s9,11afe <_vfprintf_r+0x45a>
   11afa:	3720106f          	j	12e6c <_vfprintf_r+0x17c8>
   11afe:	fbf3069b          	addiw	a3,t1,-65
   11b02:	02500713          	li	a4,37
   11b06:	00d77463          	bgeu	a4,a3,11b0e <_vfprintf_r+0x46a>
   11b0a:	3ce0106f          	j	12ed8 <_vfprintf_r+0x1834>
   11b0e:	4705                	li	a4,1
   11b10:	4c05                	li	s8,1
   11b12:	1716                	slli	a4,a4,0x25
   11b14:	00dc16b3          	sll	a3,s8,a3
   11b18:	02070713          	addi	a4,a4,32
   11b1c:	8f75                	and	a4,a4,a3
   11b1e:	c319                	beqz	a4,11b24 <_vfprintf_r+0x480>
   11b20:	2680106f          	j	12d88 <_vfprintf_r+0x16e4>
   11b24:	4705                	li	a4,1
   11b26:	1712                	slli	a4,a4,0x24
   11b28:	0741                	addi	a4,a4,16
   11b2a:	8f75                	and	a4,a4,a3
   11b2c:	c319                	beqz	a4,11b32 <_vfprintf_r+0x48e>
   11b2e:	4d20106f          	j	13000 <_vfprintf_r+0x195c>
   11b32:	4705                	li	a4,1
   11b34:	1702                	slli	a4,a4,0x20
   11b36:	0705                	addi	a4,a4,1
   11b38:	8ef9                	and	a3,a3,a4
   11b3a:	fc1a                	sd	t1,56(sp)
   11b3c:	e299                	bnez	a3,11b42 <_vfprintf_r+0x49e>
   11b3e:	1d40106f          	j	12d12 <_vfprintf_r+0x166e>
   11b42:	7542                	ld	a0,48(sp)
   11b44:	1930                	addi	a2,sp,184
   11b46:	85e6                	mv	a1,s9
   11b48:	258020ef          	jal	13da0 <frexpl>
   11b4c:	00fff6b7          	lui	a3,0xfff
   11b50:	4601                	li	a2,0
   11b52:	169a                	slli	a3,a3,0x26
   11b54:	244060ef          	jal	17d98 <__multf3>
   11b58:	4601                	li	a2,0
   11b5a:	4681                	li	a3,0
   11b5c:	8caa                	mv	s9,a0
   11b5e:	84ae                	mv	s1,a1
   11b60:	054060ef          	jal	17bb4 <__eqtf2>
   11b64:	7362                	ld	t1,56(sp)
   11b66:	e111                	bnez	a0,11b6a <_vfprintf_r+0x4c6>
   11b68:	dd62                	sw	s8,184(sp)
   11b6a:	06100713          	li	a4,97
   11b6e:	00e31463          	bne	t1,a4,11b76 <_vfprintf_r+0x4d2>
   11b72:	5ea0106f          	j	1315c <_vfprintf_r+0x1ab8>
   11b76:	6765                	lui	a4,0x19
   11b78:	f5070793          	addi	a5,a4,-176 # 18f50 <__clzdi2+0x1ce>
   11b7c:	f83e                	sd	a5,48(sp)
   11b7e:	020b1713          	slli	a4,s6,0x20
   11b82:	9301                	srli	a4,a4,0x20
   11b84:	0705                	addi	a4,a4,1
   11b86:	040036b7          	lui	a3,0x4003
   11b8a:	000b081b          	sext.w	a6,s6
   11b8e:	00ed07b3          	add	a5,s10,a4
   11b92:	1692                	slli	a3,a3,0x24
   11b94:	fc4e                	sd	s3,56(sp)
   11b96:	f8a2                	sd	s0,112(sp)
   11b98:	8c4a                	mv	s8,s2
   11b9a:	7b42                	ld	s6,48(sp)
   11b9c:	e942                	sd	a6,144(sp)
   11b9e:	e09a                	sd	t1,64(sp)
   11ba0:	e4de                	sd	s7,72(sp)
   11ba2:	89ea                	mv	s3,s10
   11ba4:	893e                	mv	s2,a5
   11ba6:	8436                	mv	s0,a3
   11ba8:	a801                	j	11bb8 <_vfprintf_r+0x514>
   11baa:	4601                	li	a2,0
   11bac:	4681                	li	a3,0
   11bae:	006060ef          	jal	17bb4 <__eqtf2>
   11bb2:	e119                	bnez	a0,11bb8 <_vfprintf_r+0x514>
   11bb4:	5400106f          	j	130f4 <_vfprintf_r+0x1a50>
   11bb8:	4601                	li	a2,0
   11bba:	86a2                	mv	a3,s0
   11bbc:	8566                	mv	a0,s9
   11bbe:	85a6                	mv	a1,s1
   11bc0:	1d8060ef          	jal	17d98 <__multf3>
   11bc4:	84ae                	mv	s1,a1
   11bc6:	8caa                	mv	s9,a0
   11bc8:	00e070ef          	jal	18bd6 <__fixtfsi>
   11bcc:	00050b9b          	sext.w	s7,a0
   11bd0:	09c070ef          	jal	18c6c <__floatsitf>
   11bd4:	86ae                	mv	a3,a1
   11bd6:	862a                	mv	a2,a0
   11bd8:	85a6                	mv	a1,s1
   11bda:	8566                	mv	a0,s9
   11bdc:	7b2060ef          	jal	1838e <__subtf3>
   11be0:	017b06b3          	add	a3,s6,s7
   11be4:	0006c683          	lbu	a3,0(a3) # 4003000 <__BSS_END__+0x3fcf738>
   11be8:	88ce                	mv	a7,s3
   11bea:	0985                	addi	s3,s3,1
   11bec:	fed98fa3          	sb	a3,-1(s3)
   11bf0:	8caa                	mv	s9,a0
   11bf2:	84ae                	mv	s1,a1
   11bf4:	fb391be3          	bne	s2,s3,11baa <_vfprintf_r+0x506>
   11bf8:	6306                	ld	t1,64(sp)
   11bfa:	01fff6b7          	lui	a3,0x1fff
   11bfe:	1696                	slli	a3,a3,0x25
   11c00:	4601                	li	a2,0
   11c02:	e91a                	sd	t1,144(sp)
   11c04:	e0c6                	sd	a7,64(sp)
   11c06:	8b5e                	mv	s6,s7
   11c08:	6ba6                	ld	s7,72(sp)
   11c0a:	e4b6                	sd	a3,72(sp)
   11c0c:	050060ef          	jal	17c5c <__getf2>
   11c10:	8962                	mv	s2,s8
   11c12:	7446                	ld	s0,112(sp)
   11c14:	8c4e                	mv	s8,s3
   11c16:	6886                	ld	a7,64(sp)
   11c18:	79e2                	ld	s3,56(sp)
   11c1a:	634a                	ld	t1,144(sp)
   11c1c:	02a04063          	bgtz	a0,11c3c <_vfprintf_r+0x598>
   11c20:	66a6                	ld	a3,72(sp)
   11c22:	4601                	li	a2,0
   11c24:	8566                	mv	a0,s9
   11c26:	85a6                	mv	a1,s1
   11c28:	fc1a                	sd	t1,56(sp)
   11c2a:	78b050ef          	jal	17bb4 <__eqtf2>
   11c2e:	7362                	ld	t1,56(sp)
   11c30:	e539                	bnez	a0,11c7e <_vfprintf_r+0x5da>
   11c32:	001b7b13          	andi	s6,s6,1
   11c36:	6886                	ld	a7,64(sp)
   11c38:	040b0363          	beqz	s6,11c7e <_vfprintf_r+0x5da>
   11c3c:	77c2                	ld	a5,48(sp)
   11c3e:	e5c6                	sd	a7,200(sp)
   11c40:	fffc4603          	lbu	a2,-1(s8)
   11c44:	00f7c583          	lbu	a1,15(a5)
   11c48:	86e2                	mv	a3,s8
   11c4a:	00c59e63          	bne	a1,a2,11c66 <_vfprintf_r+0x5c2>
   11c4e:	03000513          	li	a0,48
   11c52:	fea68fa3          	sb	a0,-1(a3) # 1ffefff <__BSS_END__+0x1fcb737>
   11c56:	66ae                	ld	a3,200(sp)
   11c58:	fff68793          	addi	a5,a3,-1
   11c5c:	e5be                	sd	a5,200(sp)
   11c5e:	fff6c603          	lbu	a2,-1(a3)
   11c62:	fec588e3          	beq	a1,a2,11c52 <_vfprintf_r+0x5ae>
   11c66:	0016059b          	addiw	a1,a2,1
   11c6a:	03900513          	li	a0,57
   11c6e:	0ff5f593          	zext.b	a1,a1
   11c72:	00a61463          	bne	a2,a0,11c7a <_vfprintf_r+0x5d6>
   11c76:	0f40106f          	j	12d6a <_vfprintf_r+0x16c6>
   11c7a:	feb68fa3          	sb	a1,-1(a3)
   11c7e:	86e2                	mv	a3,s8
   11c80:	57ea                	lw	a5,184(sp)
   11c82:	41a6873b          	subw	a4,a3,s10
   11c86:	fc3a                	sd	a4,56(sp)
   11c88:	fff7871b          	addiw	a4,a5,-1
   11c8c:	f83e                	sd	a5,48(sp)
   11c8e:	06100613          	li	a2,97
   11c92:	dd3a                	sw	a4,184(sp)
   11c94:	00c31463          	bne	t1,a2,11c9c <_vfprintf_r+0x5f8>
   11c98:	4d80106f          	j	13170 <_vfprintf_r+0x1acc>
   11c9c:	04100613          	li	a2,65
   11ca0:	05000693          	li	a3,80
   11ca4:	00c30463          	beq	t1,a2,11cac <_vfprintf_r+0x608>
   11ca8:	0b80106f          	j	12d60 <_vfprintf_r+0x16bc>
   11cac:	4605                	li	a2,1
   11cae:	0cd10023          	sb	a3,192(sp)
   11cb2:	02b00693          	li	a3,43
   11cb6:	00075763          	bgez	a4,11cc4 <_vfprintf_r+0x620>
   11cba:	77c2                	ld	a5,48(sp)
   11cbc:	4705                	li	a4,1
   11cbe:	02d00693          	li	a3,45
   11cc2:	9f1d                	subw	a4,a4,a5
   11cc4:	0cd100a3          	sb	a3,193(sp)
   11cc8:	46a5                	li	a3,9
   11cca:	00e6c463          	blt	a3,a4,11cd2 <_vfprintf_r+0x62e>
   11cce:	33a0106f          	j	13008 <_vfprintf_r+0x1964>
   11cd2:	0cf10893          	addi	a7,sp,207
   11cd6:	8546                	mv	a0,a7
   11cd8:	4829                	li	a6,10
   11cda:	06300f13          	li	t5,99
   11cde:	030767bb          	remw	a5,a4,a6
   11ce2:	86aa                	mv	a3,a0
   11ce4:	863a                	mv	a2,a4
   11ce6:	157d                	addi	a0,a0,-1
   11ce8:	0307879b          	addiw	a5,a5,48
   11cec:	fef68fa3          	sb	a5,-1(a3)
   11cf0:	0307473b          	divw	a4,a4,a6
   11cf4:	fecf45e3          	blt	t5,a2,11cde <_vfprintf_r+0x63a>
   11cf8:	0307059b          	addiw	a1,a4,48
   11cfc:	feb50fa3          	sb	a1,-1(a0)
   11d00:	ffe68713          	addi	a4,a3,-2
   11d04:	01176463          	bltu	a4,a7,11d0c <_vfprintf_r+0x668>
   11d08:	4a00106f          	j	131a8 <_vfprintf_r+0x1b04>
   11d0c:	0c210613          	addi	a2,sp,194
   11d10:	00074783          	lbu	a5,0(a4)
   11d14:	0705                	addi	a4,a4,1
   11d16:	0605                	addi	a2,a2,1
   11d18:	fef60fa3          	sb	a5,-1(a2)
   11d1c:	ff171ae3          	bne	a4,a7,11d10 <_vfprintf_r+0x66c>
   11d20:	139c                	addi	a5,sp,480
   11d22:	40d786b3          	sub	a3,a5,a3
   11d26:	ef36879b          	addiw	a5,a3,-269
   11d2a:	f8be                	sd	a5,112(sp)
   11d2c:	7746                	ld	a4,112(sp)
   11d2e:	77e2                	ld	a5,56(sp)
   11d30:	4605                	li	a2,1
   11d32:	00e786bb          	addw	a3,a5,a4
   11d36:	8736                	mv	a4,a3
   11d38:	00f64463          	blt	a2,a5,11d40 <_vfprintf_r+0x69c>
   11d3c:	2f60106f          	j	13032 <_vfprintf_r+0x198e>
   11d40:	67c6                	ld	a5,80(sp)
   11d42:	00f706bb          	addw	a3,a4,a5
   11d46:	fff6c813          	not	a6,a3
   11d4a:	bffdfe13          	andi	t3,s11,-1025
   11d4e:	43f85813          	srai	a6,a6,0x3f
   11d52:	2e01                	sext.w	t3,t3
   11d54:	0106f833          	and	a6,a3,a6
   11d58:	100e6d93          	ori	s11,t3,256
   11d5c:	00080c1b          	sext.w	s8,a6
   11d60:	e482                	sd	zero,72(sp)
   11d62:	e082                	sd	zero,64(sp)
   11d64:	f802                	sd	zero,48(sp)
   11d66:	77a6                	ld	a5,104(sp)
   11d68:	e399                	bnez	a5,11d6e <_vfprintf_r+0x6ca>
   11d6a:	00e0106f          	j	12d78 <_vfprintf_r+0x16d4>
   11d6e:	02d00713          	li	a4,45
   11d72:	0ae107a3          	sb	a4,175(sp)
   11d76:	4b01                	li	s6,0
   11d78:	2c05                	addiw	s8,s8,1
   11d7a:	b4f9                	j	11848 <_vfprintf_r+0x1a4>
   11d7c:	6522                	ld	a0,8(sp)
   11d7e:	1190                	addi	a2,sp,224
   11d80:	85ca                	mv	a1,s2
   11d82:	ed36                	sd	a3,152(sp)
   11d84:	e91a                	sd	t1,144(sp)
   11d86:	f496                	sd	t0,104(sp)
   11d88:	506010ef          	jal	1328e <__sprint_r>
   11d8c:	58051563          	bnez	a0,12316 <_vfprintf_r+0xc72>
   11d90:	74ce                	ld	s1,240(sp)
   11d92:	66ea                	ld	a3,152(sp)
   11d94:	634a                	ld	t1,144(sp)
   11d96:	72a6                	ld	t0,104(sp)
   11d98:	8452                	mv	s0,s4
   11d9a:	bcc5                	j	1188a <_vfprintf_r+0x1e6>
   11d9c:	572e                	lw	a4,232(sp)
   11d9e:	77e2                	ld	a5,56(sp)
   11da0:	4685                	li	a3,1
   11da2:	00170b1b          	addiw	s6,a4,1
   11da6:	01a43023          	sd	s10,0(s0)
   11daa:	0485                	addi	s1,s1,1
   11dac:	875a                	mv	a4,s6
   11dae:	01040c93          	addi	s9,s0,16
   11db2:	7cf6d363          	bge	a3,a5,12578 <_vfprintf_r+0xed4>
   11db6:	4685                	li	a3,1
   11db8:	d5ba                	sw	a4,232(sp)
   11dba:	e414                	sd	a3,8(s0)
   11dbc:	f9a6                	sd	s1,240(sp)
   11dbe:	471d                	li	a4,7
   11dc0:	2b6744e3          	blt	a4,s6,12868 <_vfprintf_r+0x11c4>
   11dc4:	67c6                	ld	a5,80(sp)
   11dc6:	66e6                	ld	a3,88(sp)
   11dc8:	2b05                	addiw	s6,s6,1
   11dca:	94be                	add	s1,s1,a5
   11dcc:	00dcb023          	sd	a3,0(s9)
   11dd0:	00fcb423          	sd	a5,8(s9)
   11dd4:	f9a6                	sd	s1,240(sp)
   11dd6:	d5da                	sw	s6,232(sp)
   11dd8:	471d                	li	a4,7
   11dda:	0cc1                	addi	s9,s9,16
   11ddc:	2b6742e3          	blt	a4,s6,12880 <_vfprintf_r+0x11dc>
   11de0:	77e2                	ld	a5,56(sp)
   11de2:	654e                	ld	a0,208(sp)
   11de4:	65ee                	ld	a1,216(sp)
   11de6:	4601                	li	a2,0
   11de8:	4681                	li	a3,0
   11dea:	fff7841b          	addiw	s0,a5,-1
   11dee:	5c7050ef          	jal	17bb4 <__eqtf2>
   11df2:	7a050863          	beqz	a0,125a2 <_vfprintf_r+0xefe>
   11df6:	001d0793          	addi	a5,s10,1
   11dfa:	2b05                	addiw	s6,s6,1
   11dfc:	94a2                	add	s1,s1,s0
   11dfe:	00fcb023          	sd	a5,0(s9)
   11e02:	008cb423          	sd	s0,8(s9)
   11e06:	f9a6                	sd	s1,240(sp)
   11e08:	d5da                	sw	s6,232(sp)
   11e0a:	479d                	li	a5,7
   11e0c:	7967c063          	blt	a5,s6,1258c <_vfprintf_r+0xee8>
   11e10:	0cc1                	addi	s9,s9,16
   11e12:	7746                	ld	a4,112(sp)
   11e14:	2b05                	addiw	s6,s6,1
   11e16:	019c                	addi	a5,sp,192
   11e18:	94ba                	add	s1,s1,a4
   11e1a:	00fcb023          	sd	a5,0(s9)
   11e1e:	00ecb423          	sd	a4,8(s9)
   11e22:	f9a6                	sd	s1,240(sp)
   11e24:	000b071b          	sext.w	a4,s6
   11e28:	d5da                	sw	s6,232(sp)
   11e2a:	479d                	li	a5,7
   11e2c:	010c8413          	addi	s0,s9,16
   11e30:	aae7d6e3          	bge	a5,a4,118dc <_vfprintf_r+0x238>
   11e34:	6522                	ld	a0,8(sp)
   11e36:	1190                	addi	a2,sp,224
   11e38:	85ca                	mv	a1,s2
   11e3a:	454010ef          	jal	1328e <__sprint_r>
   11e3e:	4c051c63          	bnez	a0,12316 <_vfprintf_r+0xc72>
   11e42:	74ce                	ld	s1,240(sp)
   11e44:	8452                	mv	s0,s4
   11e46:	bc59                	j	118dc <_vfprintf_r+0x238>
   11e48:	010df793          	andi	a5,s11,16
   11e4c:	7e079263          	bnez	a5,12630 <_vfprintf_r+0xf8c>
   11e50:	7682                	ld	a3,32(sp)
   11e52:	040df793          	andi	a5,s11,64
   11e56:	4284                	lw	s1,0(a3)
   11e58:	3e0780e3          	beqz	a5,12a38 <_vfprintf_r+0x1394>
   11e5c:	14c2                	slli	s1,s1,0x30
   11e5e:	90c1                	srli	s1,s1,0x30
   11e60:	be6d                	j	11a1a <_vfprintf_r+0x376>
   11e62:	010df793          	andi	a5,s11,16
   11e66:	00079de3          	bnez	a5,12680 <_vfprintf_r+0xfdc>
   11e6a:	7682                	ld	a3,32(sp)
   11e6c:	040df793          	andi	a5,s11,64
   11e70:	4284                	lw	s1,0(a3)
   11e72:	3c078be3          	beqz	a5,12a48 <_vfprintf_r+0x13a4>
   11e76:	0104949b          	slliw	s1,s1,0x10
   11e7a:	4104d49b          	sraiw	s1,s1,0x10
   11e7e:	87a6                	mv	a5,s1
   11e80:	b407d0e3          	bgez	a5,119c0 <_vfprintf_r+0x31c>
   11e84:	f03a                	sd	a4,32(sp)
   11e86:	02d00713          	li	a4,45
   11e8a:	0ae107a3          	sb	a4,175(sp)
   11e8e:	409004b3          	neg	s1,s1
   11e92:	8cee                	mv	s9,s11
   11e94:	4785                	li	a5,1
   11e96:	b80b5ce3          	bgez	s6,11a2e <_vfprintf_r+0x38a>
   11e9a:	4705                	li	a4,1
   11e9c:	48e78963          	beq	a5,a4,1232e <_vfprintf_r+0xc8a>
   11ea0:	4709                	li	a4,2
   11ea2:	30e78163          	beq	a5,a4,121a4 <_vfprintf_r+0xb00>
   11ea6:	0af4                	addi	a3,sp,348
   11ea8:	8d36                	mv	s10,a3
   11eaa:	0074f713          	andi	a4,s1,7
   11eae:	03070713          	addi	a4,a4,48
   11eb2:	feed0fa3          	sb	a4,-1(s10)
   11eb6:	808d                	srli	s1,s1,0x3
   11eb8:	866a                	mv	a2,s10
   11eba:	1d7d                	addi	s10,s10,-1
   11ebc:	f4fd                	bnez	s1,11eaa <_vfprintf_r+0x806>
   11ebe:	001cf593          	andi	a1,s9,1
   11ec2:	2e058e63          	beqz	a1,121be <_vfprintf_r+0xb1a>
   11ec6:	03000593          	li	a1,48
   11eca:	2eb70a63          	beq	a4,a1,121be <_vfprintf_r+0xb1a>
   11ece:	1679                	addi	a2,a2,-2
   11ed0:	febd0fa3          	sb	a1,-1(s10)
   11ed4:	9e91                	subw	a3,a3,a2
   11ed6:	8de6                	mv	s11,s9
   11ed8:	8d32                	mv	s10,a2
   11eda:	b621                	j	119e2 <_vfprintf_r+0x33e>
   11edc:	7782                	ld	a5,32(sp)
   11ede:	0a0107a3          	sb	zero,175(sp)
   11ee2:	0007bd03          	ld	s10,0(a5)
   11ee6:	00878493          	addi	s1,a5,8
   11eea:	080d0ae3          	beqz	s10,1277e <_vfprintf_r+0x10da>
   11eee:	280b4fe3          	bltz	s6,1298c <_vfprintf_r+0x12e8>
   11ef2:	865a                	mv	a2,s6
   11ef4:	4581                	li	a1,0
   11ef6:	856a                	mv	a0,s10
   11ef8:	f01a                	sd	t1,32(sp)
   11efa:	2cd010ef          	jal	139c6 <memchr>
   11efe:	ec2a                	sd	a0,24(sp)
   11f00:	7302                	ld	t1,32(sp)
   11f02:	e119                	bnez	a0,11f08 <_vfprintf_r+0x864>
   11f04:	7b90006f          	j	12ebc <_vfprintf_r+0x1818>
   11f08:	67e2                	ld	a5,24(sp)
   11f0a:	0af14703          	lbu	a4,175(sp)
   11f0e:	f026                	sd	s1,32(sp)
   11f10:	41a786bb          	subw	a3,a5,s10
   11f14:	fff6c813          	not	a6,a3
   11f18:	43f85813          	srai	a6,a6,0x3f
   11f1c:	ec02                	sd	zero,24(sp)
   11f1e:	e482                	sd	zero,72(sp)
   11f20:	e082                	sd	zero,64(sp)
   11f22:	f802                	sd	zero,48(sp)
   11f24:	00d87c33          	and	s8,a6,a3
   11f28:	4b01                	li	s6,0
   11f2a:	ac071ae3          	bnez	a4,119fe <_vfprintf_r+0x35a>
   11f2e:	ba29                	j	11848 <_vfprintf_r+0x1a4>
   11f30:	7702                	ld	a4,32(sp)
   11f32:	0a0107a3          	sb	zero,175(sp)
   11f36:	4c05                	li	s8,1
   11f38:	431c                	lw	a5,0(a4)
   11f3a:	0721                	addi	a4,a4,8
   11f3c:	f03a                	sd	a4,32(sp)
   11f3e:	0ef10c23          	sb	a5,248(sp)
   11f42:	4685                	li	a3,1
   11f44:	0f810d13          	addi	s10,sp,248
   11f48:	b8dd                	j	1183e <_vfprintf_r+0x19a>
   11f4a:	7782                	ld	a5,32(sp)
   11f4c:	0007ab83          	lw	s7,0(a5)
   11f50:	07a1                	addi	a5,a5,8
   11f52:	6c0bda63          	bgez	s7,12626 <_vfprintf_r+0xf82>
   11f56:	41700bbb          	negw	s7,s7
   11f5a:	f03e                	sd	a5,32(sp)
   11f5c:	004ded93          	ori	s11,s11,4
   11f60:	0009c303          	lbu	t1,0(s3)
   11f64:	2d81                	sext.w	s11,s11
   11f66:	b0bd                	j	117d4 <_vfprintf_r+0x130>
   11f68:	02b00793          	li	a5,43
   11f6c:	0009c303          	lbu	t1,0(s3)
   11f70:	0af107a3          	sb	a5,175(sp)
   11f74:	b085                	j	117d4 <_vfprintf_r+0x130>
   11f76:	080ded93          	ori	s11,s11,128
   11f7a:	0009c303          	lbu	t1,0(s3)
   11f7e:	2d81                	sext.w	s11,s11
   11f80:	b891                	j	117d4 <_vfprintf_r+0x130>
   11f82:	0009c303          	lbu	t1,0(s3)
   11f86:	02a00693          	li	a3,42
   11f8a:	00198713          	addi	a4,s3,1
   11f8e:	00d31463          	bne	t1,a3,11f96 <_vfprintf_r+0x8f2>
   11f92:	21e0106f          	j	131b0 <_vfprintf_r+0x1b0c>
   11f96:	fd03079b          	addiw	a5,t1,-48
   11f9a:	45a5                	li	a1,9
   11f9c:	4681                	li	a3,0
   11f9e:	4625                	li	a2,9
   11fa0:	89ba                	mv	s3,a4
   11fa2:	4b01                	li	s6,0
   11fa4:	82f5eae3          	bltu	a1,a5,117d8 <_vfprintf_r+0x134>
   11fa8:	00074303          	lbu	t1,0(a4)
   11fac:	00269b1b          	slliw	s6,a3,0x2
   11fb0:	00db0b3b          	addw	s6,s6,a3
   11fb4:	001b1b1b          	slliw	s6,s6,0x1
   11fb8:	00fb06bb          	addw	a3,s6,a5
   11fbc:	fd03079b          	addiw	a5,t1,-48
   11fc0:	8b36                	mv	s6,a3
   11fc2:	0705                	addi	a4,a4,1
   11fc4:	fef672e3          	bgeu	a2,a5,11fa8 <_vfprintf_r+0x904>
   11fc8:	7206c563          	bltz	a3,126f2 <_vfprintf_r+0x104e>
   11fcc:	89ba                	mv	s3,a4
   11fce:	80bff06f          	j	117d8 <_vfprintf_r+0x134>
   11fd2:	010dec93          	ori	s9,s11,16
   11fd6:	2c81                	sext.w	s9,s9
   11fd8:	7682                	ld	a3,32(sp)
   11fda:	020cf793          	andi	a5,s9,32
   11fde:	00868713          	addi	a4,a3,8
   11fe2:	60078963          	beqz	a5,125f4 <_vfprintf_r+0xf50>
   11fe6:	6284                	ld	s1,0(a3)
   11fe8:	4785                	li	a5,1
   11fea:	f03a                	sd	a4,32(sp)
   11fec:	bc25                	j	11a24 <_vfprintf_r+0x380>
   11fee:	001ded93          	ori	s11,s11,1
   11ff2:	0009c303          	lbu	t1,0(s3)
   11ff6:	2d81                	sext.w	s11,s11
   11ff8:	fdcff06f          	j	117d4 <_vfprintf_r+0x130>
   11ffc:	0af14783          	lbu	a5,175(sp)
   12000:	0009c303          	lbu	t1,0(s3)
   12004:	fc079863          	bnez	a5,117d4 <_vfprintf_r+0x130>
   12008:	02000793          	li	a5,32
   1200c:	0af107a3          	sb	a5,175(sp)
   12010:	fc4ff06f          	j	117d4 <_vfprintf_r+0x130>
   12014:	6c22                	ld	s8,8(sp)
   12016:	8562                	mv	a0,s8
   12018:	2f7010ef          	jal	13b0e <_localeconv_r>
   1201c:	651c                	ld	a5,8(a0)
   1201e:	853e                	mv	a0,a5
   12020:	fcbe                	sd	a5,120(sp)
   12022:	bdbfe0ef          	jal	10bfc <strlen>
   12026:	87aa                	mv	a5,a0
   12028:	8562                	mv	a0,s8
   1202a:	e53e                	sd	a5,136(sp)
   1202c:	8c3e                	mv	s8,a5
   1202e:	2e1010ef          	jal	13b0e <_localeconv_r>
   12032:	691c                	ld	a5,16(a0)
   12034:	0009c303          	lbu	t1,0(s3)
   12038:	e13e                	sd	a5,128(sp)
   1203a:	f80c0d63          	beqz	s8,117d4 <_vfprintf_r+0x130>
   1203e:	f8078b63          	beqz	a5,117d4 <_vfprintf_r+0x130>
   12042:	0007c783          	lbu	a5,0(a5)
   12046:	f8078763          	beqz	a5,117d4 <_vfprintf_r+0x130>
   1204a:	400ded93          	ori	s11,s11,1024
   1204e:	2d81                	sext.w	s11,s11
   12050:	f84ff06f          	j	117d4 <_vfprintf_r+0x130>
   12054:	008ded93          	ori	s11,s11,8
   12058:	0009c303          	lbu	t1,0(s3)
   1205c:	2d81                	sext.w	s11,s11
   1205e:	f76ff06f          	j	117d4 <_vfprintf_r+0x130>
   12062:	020ded93          	ori	s11,s11,32
   12066:	0009c303          	lbu	t1,0(s3)
   1206a:	2d81                	sext.w	s11,s11
   1206c:	f68ff06f          	j	117d4 <_vfprintf_r+0x130>
   12070:	7702                	ld	a4,32(sp)
   12072:	67a1                	lui	a5,0x8
   12074:	83078793          	addi	a5,a5,-2000 # 7830 <exit-0x88b8>
   12078:	0af11823          	sh	a5,176(sp)
   1207c:	00870793          	addi	a5,a4,8
   12080:	f03e                	sd	a5,32(sp)
   12082:	67e5                	lui	a5,0x19
   12084:	f3878793          	addi	a5,a5,-200 # 18f38 <__clzdi2+0x1b6>
   12088:	002dec93          	ori	s9,s11,2
   1208c:	f0be                	sd	a5,96(sp)
   1208e:	6304                	ld	s1,0(a4)
   12090:	2c81                	sext.w	s9,s9
   12092:	4789                	li	a5,2
   12094:	07800313          	li	t1,120
   12098:	b271                	j	11a24 <_vfprintf_r+0x380>
   1209a:	7702                	ld	a4,32(sp)
   1209c:	020df793          	andi	a5,s11,32
   120a0:	6318                	ld	a4,0(a4)
   120a2:	5a078163          	beqz	a5,12644 <_vfprintf_r+0xfa0>
   120a6:	67c2                	ld	a5,16(sp)
   120a8:	e31c                	sd	a5,0(a4)
   120aa:	7782                	ld	a5,32(sp)
   120ac:	8d4e                	mv	s10,s3
   120ae:	07a1                	addi	a5,a5,8
   120b0:	f03e                	sd	a5,32(sp)
   120b2:	b8b9                	j	11910 <_vfprintf_r+0x26c>
   120b4:	0009c303          	lbu	t1,0(s3)
   120b8:	06c00793          	li	a5,108
   120bc:	68f30f63          	beq	t1,a5,1275a <_vfprintf_r+0x10b6>
   120c0:	010ded93          	ori	s11,s11,16
   120c4:	2d81                	sext.w	s11,s11
   120c6:	f0eff06f          	j	117d4 <_vfprintf_r+0x130>
   120ca:	0009c303          	lbu	t1,0(s3)
   120ce:	06800793          	li	a5,104
   120d2:	66f30c63          	beq	t1,a5,1274a <_vfprintf_r+0x10a6>
   120d6:	040ded93          	ori	s11,s11,64
   120da:	2d81                	sext.w	s11,s11
   120dc:	ef8ff06f          	j	117d4 <_vfprintf_r+0x130>
   120e0:	06500713          	li	a4,101
   120e4:	ca675ce3          	bge	a4,t1,11d9c <_vfprintf_r+0x6f8>
   120e8:	654e                	ld	a0,208(sp)
   120ea:	65ee                	ld	a1,216(sp)
   120ec:	4601                	li	a2,0
   120ee:	4681                	li	a3,0
   120f0:	2c5050ef          	jal	17bb4 <__eqtf2>
   120f4:	38051463          	bnez	a0,1247c <_vfprintf_r+0xdd8>
   120f8:	57ae                	lw	a5,232(sp)
   120fa:	6765                	lui	a4,0x19
   120fc:	f7070713          	addi	a4,a4,-144 # 18f70 <__clzdi2+0x1ee>
   12100:	2785                	addiw	a5,a5,1
   12102:	e018                	sd	a4,0(s0)
   12104:	0485                	addi	s1,s1,1
   12106:	4705                	li	a4,1
   12108:	e418                	sd	a4,8(s0)
   1210a:	d5be                	sw	a5,232(sp)
   1210c:	0007871b          	sext.w	a4,a5
   12110:	f9a6                	sd	s1,240(sp)
   12112:	479d                	li	a5,7
   12114:	0441                	addi	s0,s0,16
   12116:	7ee7c963          	blt	a5,a4,12908 <_vfprintf_r+0x1264>
   1211a:	57ea                	lw	a5,184(sp)
   1211c:	7762                	ld	a4,56(sp)
   1211e:	4ee7df63          	bge	a5,a4,1261c <_vfprintf_r+0xf78>
   12122:	6746                	ld	a4,80(sp)
   12124:	57ae                	lw	a5,232(sp)
   12126:	66e6                	ld	a3,88(sp)
   12128:	94ba                	add	s1,s1,a4
   1212a:	2785                	addiw	a5,a5,1
   1212c:	e418                	sd	a4,8(s0)
   1212e:	e014                	sd	a3,0(s0)
   12130:	0007871b          	sext.w	a4,a5
   12134:	d5be                	sw	a5,232(sp)
   12136:	f9a6                	sd	s1,240(sp)
   12138:	479d                	li	a5,7
   1213a:	0441                	addi	s0,s0,16
   1213c:	62e7c763          	blt	a5,a4,1276a <_vfprintf_r+0x10c6>
   12140:	77e2                	ld	a5,56(sp)
   12142:	fff78b1b          	addiw	s6,a5,-1
   12146:	f9605b63          	blez	s6,118dc <_vfprintf_r+0x238>
   1214a:	68e5                	lui	a7,0x19
   1214c:	4741                	li	a4,16
   1214e:	57ae                	lw	a5,232(sp)
   12150:	23888893          	addi	a7,a7,568 # 19238 <zeroes.0>
   12154:	7d675863          	bge	a4,s6,12924 <_vfprintf_r+0x1280>
   12158:	f84e                	sd	s3,48(sp)
   1215a:	4cc1                	li	s9,16
   1215c:	89da                	mv	s3,s6
   1215e:	4d1d                	li	s10,7
   12160:	8b46                	mv	s6,a7
   12162:	a021                	j	1216a <_vfprintf_r+0xac6>
   12164:	39c1                	addiw	s3,s3,-16
   12166:	7b3cdc63          	bge	s9,s3,1291e <_vfprintf_r+0x127a>
   1216a:	2785                	addiw	a5,a5,1
   1216c:	04c1                	addi	s1,s1,16
   1216e:	01643023          	sd	s6,0(s0)
   12172:	01943423          	sd	s9,8(s0)
   12176:	f9a6                	sd	s1,240(sp)
   12178:	d5be                	sw	a5,232(sp)
   1217a:	0441                	addi	s0,s0,16
   1217c:	fefd54e3          	bge	s10,a5,12164 <_vfprintf_r+0xac0>
   12180:	6522                	ld	a0,8(sp)
   12182:	1190                	addi	a2,sp,224
   12184:	85ca                	mv	a1,s2
   12186:	108010ef          	jal	1328e <__sprint_r>
   1218a:	18051663          	bnez	a0,12316 <_vfprintf_r+0xc72>
   1218e:	74ce                	ld	s1,240(sp)
   12190:	57ae                	lw	a5,232(sp)
   12192:	8452                	mv	s0,s4
   12194:	bfc1                	j	12164 <_vfprintf_r+0xac0>
   12196:	4705                	li	a4,1
   12198:	58e78fe3          	beq	a5,a4,12f36 <_vfprintf_r+0x1892>
   1219c:	4709                	li	a4,2
   1219e:	8cee                	mv	s9,s11
   121a0:	d0e793e3          	bne	a5,a4,11ea6 <_vfprintf_r+0x802>
   121a4:	7706                	ld	a4,96(sp)
   121a6:	0af4                	addi	a3,sp,348
   121a8:	8d36                	mv	s10,a3
   121aa:	00f4f793          	andi	a5,s1,15
   121ae:	97ba                	add	a5,a5,a4
   121b0:	0007c783          	lbu	a5,0(a5)
   121b4:	8091                	srli	s1,s1,0x4
   121b6:	1d7d                	addi	s10,s10,-1
   121b8:	00fd0023          	sb	a5,0(s10)
   121bc:	f4fd                	bnez	s1,121aa <_vfprintf_r+0xb06>
   121be:	41a686bb          	subw	a3,a3,s10
   121c2:	8de6                	mv	s11,s9
   121c4:	81fff06f          	j	119e2 <_vfprintf_r+0x33e>
   121c8:	418b8cbb          	subw	s9,s7,s8
   121cc:	ef905463          	blez	s9,118b4 <_vfprintf_r+0x210>
   121d0:	68e5                	lui	a7,0x19
   121d2:	45c1                	li	a1,16
   121d4:	562e                	lw	a2,232(sp)
   121d6:	23888893          	addi	a7,a7,568 # 19238 <zeroes.0>
   121da:	0595df63          	bge	a1,s9,12238 <_vfprintf_r+0xb94>
   121de:	87a2                	mv	a5,s0
   121e0:	8726                	mv	a4,s1
   121e2:	8466                	mv	s0,s9
   121e4:	4f41                	li	t5,16
   121e6:	8ce2                	mv	s9,s8
   121e8:	4f9d                	li	t6,7
   121ea:	f49a                	sd	t1,104(sp)
   121ec:	8c36                	mv	s8,a3
   121ee:	84c6                	mv	s1,a7
   121f0:	a021                	j	121f8 <_vfprintf_r+0xb54>
   121f2:	3441                	addiw	s0,s0,-16
   121f4:	028f5b63          	bge	t5,s0,1222a <_vfprintf_r+0xb86>
   121f8:	2605                	addiw	a2,a2,1
   121fa:	0741                	addi	a4,a4,16
   121fc:	e384                	sd	s1,0(a5)
   121fe:	01e7b423          	sd	t5,8(a5)
   12202:	f9ba                	sd	a4,240(sp)
   12204:	d5b2                	sw	a2,232(sp)
   12206:	07c1                	addi	a5,a5,16
   12208:	fecfd5e3          	bge	t6,a2,121f2 <_vfprintf_r+0xb4e>
   1220c:	6522                	ld	a0,8(sp)
   1220e:	1190                	addi	a2,sp,224
   12210:	85ca                	mv	a1,s2
   12212:	07c010ef          	jal	1328e <__sprint_r>
   12216:	10051063          	bnez	a0,12316 <_vfprintf_r+0xc72>
   1221a:	4f41                	li	t5,16
   1221c:	3441                	addiw	s0,s0,-16
   1221e:	774e                	ld	a4,240(sp)
   12220:	562e                	lw	a2,232(sp)
   12222:	87d2                	mv	a5,s4
   12224:	4f9d                	li	t6,7
   12226:	fc8f49e3          	blt	t5,s0,121f8 <_vfprintf_r+0xb54>
   1222a:	7326                	ld	t1,104(sp)
   1222c:	86e2                	mv	a3,s8
   1222e:	88a6                	mv	a7,s1
   12230:	8c66                	mv	s8,s9
   12232:	84ba                	mv	s1,a4
   12234:	8ca2                	mv	s9,s0
   12236:	843e                	mv	s0,a5
   12238:	0016059b          	addiw	a1,a2,1
   1223c:	94e6                	add	s1,s1,s9
   1223e:	01143023          	sd	a7,0(s0)
   12242:	01943423          	sd	s9,8(s0)
   12246:	f9a6                	sd	s1,240(sp)
   12248:	d5ae                	sw	a1,232(sp)
   1224a:	471d                	li	a4,7
   1224c:	0441                	addi	s0,s0,16
   1224e:	e6b75363          	bge	a4,a1,118b4 <_vfprintf_r+0x210>
   12252:	6522                	ld	a0,8(sp)
   12254:	1190                	addi	a2,sp,224
   12256:	85ca                	mv	a1,s2
   12258:	e936                	sd	a3,144(sp)
   1225a:	f49a                	sd	t1,104(sp)
   1225c:	032010ef          	jal	1328e <__sprint_r>
   12260:	e95d                	bnez	a0,12316 <_vfprintf_r+0xc72>
   12262:	74ce                	ld	s1,240(sp)
   12264:	66ca                	ld	a3,144(sp)
   12266:	7326                	ld	t1,104(sp)
   12268:	8452                	mv	s0,s4
   1226a:	e4aff06f          	j	118b4 <_vfprintf_r+0x210>
   1226e:	68e5                	lui	a7,0x19
   12270:	4741                	li	a4,16
   12272:	562e                	lw	a2,232(sp)
   12274:	23888893          	addi	a7,a7,568 # 19238 <zeroes.0>
   12278:	05675d63          	bge	a4,s6,122d2 <_vfprintf_r+0xc2e>
   1227c:	85a6                	mv	a1,s1
   1227e:	87a2                	mv	a5,s0
   12280:	84b6                	mv	s1,a3
   12282:	845a                	mv	s0,s6
   12284:	4741                	li	a4,16
   12286:	4c9d                	li	s9,7
   12288:	f49a                	sd	t1,104(sp)
   1228a:	8b56                	mv	s6,s5
   1228c:	86ae                	mv	a3,a1
   1228e:	a021                	j	12296 <_vfprintf_r+0xbf2>
   12290:	3441                	addiw	s0,s0,-16
   12292:	02875963          	bge	a4,s0,122c4 <_vfprintf_r+0xc20>
   12296:	2605                	addiw	a2,a2,1
   12298:	06c1                	addi	a3,a3,16
   1229a:	0157b023          	sd	s5,0(a5)
   1229e:	e798                	sd	a4,8(a5)
   122a0:	f9b6                	sd	a3,240(sp)
   122a2:	d5b2                	sw	a2,232(sp)
   122a4:	07c1                	addi	a5,a5,16
   122a6:	feccd5e3          	bge	s9,a2,12290 <_vfprintf_r+0xbec>
   122aa:	6522                	ld	a0,8(sp)
   122ac:	1190                	addi	a2,sp,224
   122ae:	85ca                	mv	a1,s2
   122b0:	7df000ef          	jal	1328e <__sprint_r>
   122b4:	e12d                	bnez	a0,12316 <_vfprintf_r+0xc72>
   122b6:	4741                	li	a4,16
   122b8:	3441                	addiw	s0,s0,-16
   122ba:	76ce                	ld	a3,240(sp)
   122bc:	562e                	lw	a2,232(sp)
   122be:	87d2                	mv	a5,s4
   122c0:	fc874be3          	blt	a4,s0,12296 <_vfprintf_r+0xbf2>
   122c4:	7326                	ld	t1,104(sp)
   122c6:	8736                	mv	a4,a3
   122c8:	88da                	mv	a7,s6
   122ca:	86a6                	mv	a3,s1
   122cc:	8b22                	mv	s6,s0
   122ce:	84ba                	mv	s1,a4
   122d0:	843e                	mv	s0,a5
   122d2:	0016059b          	addiw	a1,a2,1
   122d6:	94da                	add	s1,s1,s6
   122d8:	01143023          	sd	a7,0(s0)
   122dc:	01643423          	sd	s6,8(s0)
   122e0:	f9a6                	sd	s1,240(sp)
   122e2:	d5ae                	sw	a1,232(sp)
   122e4:	471d                	li	a4,7
   122e6:	0441                	addi	s0,s0,16
   122e8:	dcb75a63          	bge	a4,a1,118bc <_vfprintf_r+0x218>
   122ec:	6522                	ld	a0,8(sp)
   122ee:	1190                	addi	a2,sp,224
   122f0:	85ca                	mv	a1,s2
   122f2:	e936                	sd	a3,144(sp)
   122f4:	f49a                	sd	t1,104(sp)
   122f6:	799000ef          	jal	1328e <__sprint_r>
   122fa:	ed11                	bnez	a0,12316 <_vfprintf_r+0xc72>
   122fc:	74ce                	ld	s1,240(sp)
   122fe:	66ca                	ld	a3,144(sp)
   12300:	7326                	ld	t1,104(sp)
   12302:	8452                	mv	s0,s4
   12304:	db8ff06f          	j	118bc <_vfprintf_r+0x218>
   12308:	6522                	ld	a0,8(sp)
   1230a:	1190                	addi	a2,sp,224
   1230c:	85ca                	mv	a1,s2
   1230e:	781000ef          	jal	1328e <__sprint_r>
   12312:	de050663          	beqz	a0,118fe <_vfprintf_r+0x25a>
   12316:	65e2                	ld	a1,24(sp)
   12318:	e0058463          	beqz	a1,11920 <_vfprintf_r+0x27c>
   1231c:	6522                	ld	a0,8(sp)
   1231e:	b35fe0ef          	jal	10e52 <_free_r>
   12322:	dfeff06f          	j	11920 <_vfprintf_r+0x27c>
   12326:	4705                	li	a4,1
   12328:	8cee                	mv	s9,s11
   1232a:	b6e79be3          	bne	a5,a4,11ea0 <_vfprintf_r+0x7fc>
   1232e:	47a5                	li	a5,9
   12330:	3697e263          	bltu	a5,s1,12694 <_vfprintf_r+0xff0>
   12334:	0304849b          	addiw	s1,s1,48
   12338:	14910da3          	sb	s1,347(sp)
   1233c:	8de6                	mv	s11,s9
   1233e:	4685                	li	a3,1
   12340:	15b10d13          	addi	s10,sp,347
   12344:	e9eff06f          	j	119e2 <_vfprintf_r+0x33e>
   12348:	68e5                	lui	a7,0x19
   1234a:	45c1                	li	a1,16
   1234c:	562e                	lw	a2,232(sp)
   1234e:	24888893          	addi	a7,a7,584 # 19248 <blanks.1>
   12352:	04e5de63          	bge	a1,a4,123ae <_vfprintf_r+0xd0a>
   12356:	ed36                	sd	a3,152(sp)
   12358:	87a2                	mv	a5,s0
   1235a:	86a6                	mv	a3,s1
   1235c:	4f41                	li	t5,16
   1235e:	439d                	li	t2,7
   12360:	f496                	sd	t0,104(sp)
   12362:	e91a                	sd	t1,144(sp)
   12364:	843a                	mv	s0,a4
   12366:	84c6                	mv	s1,a7
   12368:	a021                	j	12370 <_vfprintf_r+0xccc>
   1236a:	3441                	addiw	s0,s0,-16
   1236c:	028f5a63          	bge	t5,s0,123a0 <_vfprintf_r+0xcfc>
   12370:	2605                	addiw	a2,a2,1
   12372:	06c1                	addi	a3,a3,16
   12374:	e384                	sd	s1,0(a5)
   12376:	01e7b423          	sd	t5,8(a5)
   1237a:	f9b6                	sd	a3,240(sp)
   1237c:	d5b2                	sw	a2,232(sp)
   1237e:	07c1                	addi	a5,a5,16
   12380:	fec3d5e3          	bge	t2,a2,1236a <_vfprintf_r+0xcc6>
   12384:	6522                	ld	a0,8(sp)
   12386:	1190                	addi	a2,sp,224
   12388:	85ca                	mv	a1,s2
   1238a:	705000ef          	jal	1328e <__sprint_r>
   1238e:	f541                	bnez	a0,12316 <_vfprintf_r+0xc72>
   12390:	4f41                	li	t5,16
   12392:	3441                	addiw	s0,s0,-16
   12394:	76ce                	ld	a3,240(sp)
   12396:	562e                	lw	a2,232(sp)
   12398:	87d2                	mv	a5,s4
   1239a:	439d                	li	t2,7
   1239c:	fc8f4ae3          	blt	t5,s0,12370 <_vfprintf_r+0xccc>
   123a0:	88a6                	mv	a7,s1
   123a2:	72a6                	ld	t0,104(sp)
   123a4:	84b6                	mv	s1,a3
   123a6:	634a                	ld	t1,144(sp)
   123a8:	66ea                	ld	a3,152(sp)
   123aa:	8722                	mv	a4,s0
   123ac:	843e                	mv	s0,a5
   123ae:	94ba                	add	s1,s1,a4
   123b0:	0016059b          	addiw	a1,a2,1
   123b4:	e418                	sd	a4,8(s0)
   123b6:	01143023          	sd	a7,0(s0)
   123ba:	f9a6                	sd	s1,240(sp)
   123bc:	d5ae                	sw	a1,232(sp)
   123be:	471d                	li	a4,7
   123c0:	0441                	addi	s0,s0,16
   123c2:	cab75163          	bge	a4,a1,11864 <_vfprintf_r+0x1c0>
   123c6:	6522                	ld	a0,8(sp)
   123c8:	1190                	addi	a2,sp,224
   123ca:	85ca                	mv	a1,s2
   123cc:	ed36                	sd	a3,152(sp)
   123ce:	e91a                	sd	t1,144(sp)
   123d0:	f496                	sd	t0,104(sp)
   123d2:	6bd000ef          	jal	1328e <__sprint_r>
   123d6:	f121                	bnez	a0,12316 <_vfprintf_r+0xc72>
   123d8:	74ce                	ld	s1,240(sp)
   123da:	66ea                	ld	a3,152(sp)
   123dc:	634a                	ld	t1,144(sp)
   123de:	72a6                	ld	t0,104(sp)
   123e0:	8452                	mv	s0,s4
   123e2:	c82ff06f          	j	11864 <_vfprintf_r+0x1c0>
   123e6:	6522                	ld	a0,8(sp)
   123e8:	1190                	addi	a2,sp,224
   123ea:	85ca                	mv	a1,s2
   123ec:	e936                	sd	a3,144(sp)
   123ee:	f49a                	sd	t1,104(sp)
   123f0:	69f000ef          	jal	1328e <__sprint_r>
   123f4:	f10d                	bnez	a0,12316 <_vfprintf_r+0xc72>
   123f6:	74ce                	ld	s1,240(sp)
   123f8:	66ca                	ld	a3,144(sp)
   123fa:	7326                	ld	t1,104(sp)
   123fc:	8452                	mv	s0,s4
   123fe:	caeff06f          	j	118ac <_vfprintf_r+0x208>
   12402:	68e5                	lui	a7,0x19
   12404:	24888893          	addi	a7,a7,584 # 19248 <blanks.1>
   12408:	4741                	li	a4,16
   1240a:	57ae                	lw	a5,232(sp)
   1240c:	4cc1                	li	s9,16
   1240e:	4d1d                	li	s10,7
   12410:	8dc6                	mv	s11,a7
   12412:	01674663          	blt	a4,s6,1241e <_vfprintf_r+0xd7a>
   12416:	a82d                	j	12450 <_vfprintf_r+0xdac>
   12418:	3b41                	addiw	s6,s6,-16
   1241a:	036cda63          	bge	s9,s6,1244e <_vfprintf_r+0xdaa>
   1241e:	2785                	addiw	a5,a5,1
   12420:	04c1                	addi	s1,s1,16
   12422:	01b43023          	sd	s11,0(s0)
   12426:	01943423          	sd	s9,8(s0)
   1242a:	f9a6                	sd	s1,240(sp)
   1242c:	d5be                	sw	a5,232(sp)
   1242e:	0441                	addi	s0,s0,16
   12430:	fefd54e3          	bge	s10,a5,12418 <_vfprintf_r+0xd74>
   12434:	6522                	ld	a0,8(sp)
   12436:	1190                	addi	a2,sp,224
   12438:	85ca                	mv	a1,s2
   1243a:	655000ef          	jal	1328e <__sprint_r>
   1243e:	ec051ce3          	bnez	a0,12316 <_vfprintf_r+0xc72>
   12442:	3b41                	addiw	s6,s6,-16
   12444:	74ce                	ld	s1,240(sp)
   12446:	57ae                	lw	a5,232(sp)
   12448:	8452                	mv	s0,s4
   1244a:	fd6ccae3          	blt	s9,s6,1241e <_vfprintf_r+0xd7a>
   1244e:	88ee                	mv	a7,s11
   12450:	0017871b          	addiw	a4,a5,1
   12454:	94da                	add	s1,s1,s6
   12456:	01143023          	sd	a7,0(s0)
   1245a:	01643423          	sd	s6,8(s0)
   1245e:	f9a6                	sd	s1,240(sp)
   12460:	d5ba                	sw	a4,232(sp)
   12462:	479d                	li	a5,7
   12464:	c8e7d463          	bge	a5,a4,118ec <_vfprintf_r+0x248>
   12468:	6522                	ld	a0,8(sp)
   1246a:	1190                	addi	a2,sp,224
   1246c:	85ca                	mv	a1,s2
   1246e:	621000ef          	jal	1328e <__sprint_r>
   12472:	ea0512e3          	bnez	a0,12316 <_vfprintf_r+0xc72>
   12476:	74ce                	ld	s1,240(sp)
   12478:	c74ff06f          	j	118ec <_vfprintf_r+0x248>
   1247c:	576a                	lw	a4,184(sp)
   1247e:	40e05d63          	blez	a4,12898 <_vfprintf_r+0x11f4>
   12482:	77c2                	ld	a5,48(sp)
   12484:	7762                	ld	a4,56(sp)
   12486:	00078b1b          	sext.w	s6,a5
   1248a:	24f74f63          	blt	a4,a5,126e8 <_vfprintf_r+0x1044>
   1248e:	03605063          	blez	s6,124ae <_vfprintf_r+0xe0a>
   12492:	572e                	lw	a4,232(sp)
   12494:	94da                	add	s1,s1,s6
   12496:	01a43023          	sd	s10,0(s0)
   1249a:	0017069b          	addiw	a3,a4,1
   1249e:	01643423          	sd	s6,8(s0)
   124a2:	f9a6                	sd	s1,240(sp)
   124a4:	d5b6                	sw	a3,232(sp)
   124a6:	471d                	li	a4,7
   124a8:	0441                	addi	s0,s0,16
   124aa:	7cd74863          	blt	a4,a3,12c7a <_vfprintf_r+0x15d6>
   124ae:	fffb4713          	not	a4,s6
   124b2:	77c2                	ld	a5,48(sp)
   124b4:	977d                	srai	a4,a4,0x3f
   124b6:	00eb7b33          	and	s6,s6,a4
   124ba:	41678b3b          	subw	s6,a5,s6
   124be:	2d604c63          	bgtz	s6,12796 <_vfprintf_r+0x10f2>
   124c2:	77c2                	ld	a5,48(sp)
   124c4:	400df713          	andi	a4,s11,1024
   124c8:	00fd0333          	add	t1,s10,a5
   124cc:	62071063          	bnez	a4,12aec <_vfprintf_r+0x1448>
   124d0:	576a                	lw	a4,184(sp)
   124d2:	77e2                	ld	a5,56(sp)
   124d4:	30f74663          	blt	a4,a5,127e0 <_vfprintf_r+0x113c>
   124d8:	001df693          	andi	a3,s11,1
   124dc:	30069263          	bnez	a3,127e0 <_vfprintf_r+0x113c>
   124e0:	76e2                	ld	a3,56(sp)
   124e2:	00dd07b3          	add	a5,s10,a3
   124e6:	40678b33          	sub	s6,a5,t1
   124ea:	9e99                	subw	a3,a3,a4
   124ec:	000b079b          	sext.w	a5,s6
   124f0:	00f6d363          	bge	a3,a5,124f6 <_vfprintf_r+0xe52>
   124f4:	8b36                	mv	s6,a3
   124f6:	2b01                	sext.w	s6,s6
   124f8:	03605063          	blez	s6,12518 <_vfprintf_r+0xe74>
   124fc:	57ae                	lw	a5,232(sp)
   124fe:	94da                	add	s1,s1,s6
   12500:	00643023          	sd	t1,0(s0)
   12504:	0017871b          	addiw	a4,a5,1
   12508:	01643423          	sd	s6,8(s0)
   1250c:	f9a6                	sd	s1,240(sp)
   1250e:	d5ba                	sw	a4,232(sp)
   12510:	479d                	li	a5,7
   12512:	0441                	addi	s0,s0,16
   12514:	1ee7cee3          	blt	a5,a4,12f10 <_vfprintf_r+0x186c>
   12518:	fffb4793          	not	a5,s6
   1251c:	97fd                	srai	a5,a5,0x3f
   1251e:	00fb7b33          	and	s6,s6,a5
   12522:	41668b3b          	subw	s6,a3,s6
   12526:	bb605b63          	blez	s6,118dc <_vfprintf_r+0x238>
   1252a:	68e5                	lui	a7,0x19
   1252c:	4741                	li	a4,16
   1252e:	57ae                	lw	a5,232(sp)
   12530:	23888893          	addi	a7,a7,568 # 19238 <zeroes.0>
   12534:	3f675863          	bge	a4,s6,12924 <_vfprintf_r+0x1280>
   12538:	f84e                	sd	s3,48(sp)
   1253a:	4cc1                	li	s9,16
   1253c:	89ca                	mv	s3,s2
   1253e:	4d1d                	li	s10,7
   12540:	895a                	mv	s2,s6
   12542:	8b46                	mv	s6,a7
   12544:	a021                	j	1254c <_vfprintf_r+0xea8>
   12546:	3941                	addiw	s2,s2,-16
   12548:	172cd5e3          	bge	s9,s2,12eb2 <_vfprintf_r+0x180e>
   1254c:	2785                	addiw	a5,a5,1
   1254e:	04c1                	addi	s1,s1,16
   12550:	01643023          	sd	s6,0(s0)
   12554:	01943423          	sd	s9,8(s0)
   12558:	f9a6                	sd	s1,240(sp)
   1255a:	d5be                	sw	a5,232(sp)
   1255c:	0441                	addi	s0,s0,16
   1255e:	fefd54e3          	bge	s10,a5,12546 <_vfprintf_r+0xea2>
   12562:	6522                	ld	a0,8(sp)
   12564:	1190                	addi	a2,sp,224
   12566:	85ce                	mv	a1,s3
   12568:	527000ef          	jal	1328e <__sprint_r>
   1256c:	3c0510e3          	bnez	a0,1312c <_vfprintf_r+0x1a88>
   12570:	74ce                	ld	s1,240(sp)
   12572:	57ae                	lw	a5,232(sp)
   12574:	8452                	mv	s0,s4
   12576:	bfc1                	j	12546 <_vfprintf_r+0xea2>
   12578:	001df613          	andi	a2,s11,1
   1257c:	82061de3          	bnez	a2,11db6 <_vfprintf_r+0x712>
   12580:	e414                	sd	a3,8(s0)
   12582:	f9a6                	sd	s1,240(sp)
   12584:	d5da                	sw	s6,232(sp)
   12586:	479d                	li	a5,7
   12588:	8967d5e3          	bge	a5,s6,11e12 <_vfprintf_r+0x76e>
   1258c:	6522                	ld	a0,8(sp)
   1258e:	1190                	addi	a2,sp,224
   12590:	85ca                	mv	a1,s2
   12592:	4fd000ef          	jal	1328e <__sprint_r>
   12596:	d80510e3          	bnez	a0,12316 <_vfprintf_r+0xc72>
   1259a:	74ce                	ld	s1,240(sp)
   1259c:	5b2e                	lw	s6,232(sp)
   1259e:	8cd2                	mv	s9,s4
   125a0:	b88d                	j	11e12 <_vfprintf_r+0x76e>
   125a2:	7762                	ld	a4,56(sp)
   125a4:	4785                	li	a5,1
   125a6:	86e7d6e3          	bge	a5,a4,11e12 <_vfprintf_r+0x76e>
   125aa:	68e5                	lui	a7,0x19
   125ac:	47c5                	li	a5,17
   125ae:	23888893          	addi	a7,a7,568 # 19238 <zeroes.0>
   125b2:	44e7dd63          	bge	a5,a4,12a0c <_vfprintf_r+0x1368>
   125b6:	f84e                	sd	s3,48(sp)
   125b8:	4741                	li	a4,16
   125ba:	4d1d                	li	s10,7
   125bc:	89c6                	mv	s3,a7
   125be:	a021                	j	125c6 <_vfprintf_r+0xf22>
   125c0:	3441                	addiw	s0,s0,-16
   125c2:	44875363          	bge	a4,s0,12a08 <_vfprintf_r+0x1364>
   125c6:	2b05                	addiw	s6,s6,1
   125c8:	04c1                	addi	s1,s1,16
   125ca:	013cb023          	sd	s3,0(s9)
   125ce:	00ecb423          	sd	a4,8(s9)
   125d2:	f9a6                	sd	s1,240(sp)
   125d4:	d5da                	sw	s6,232(sp)
   125d6:	0cc1                	addi	s9,s9,16
   125d8:	ff6d54e3          	bge	s10,s6,125c0 <_vfprintf_r+0xf1c>
   125dc:	6522                	ld	a0,8(sp)
   125de:	1190                	addi	a2,sp,224
   125e0:	85ca                	mv	a1,s2
   125e2:	4ad000ef          	jal	1328e <__sprint_r>
   125e6:	d20518e3          	bnez	a0,12316 <_vfprintf_r+0xc72>
   125ea:	74ce                	ld	s1,240(sp)
   125ec:	5b2e                	lw	s6,232(sp)
   125ee:	8cd2                	mv	s9,s4
   125f0:	4741                	li	a4,16
   125f2:	b7f9                	j	125c0 <_vfprintf_r+0xf1c>
   125f4:	010cf793          	andi	a5,s9,16
   125f8:	e3a1                	bnez	a5,12638 <_vfprintf_r+0xf94>
   125fa:	7682                	ld	a3,32(sp)
   125fc:	040cf793          	andi	a5,s9,64
   12600:	4284                	lw	s1,0(a3)
   12602:	42078163          	beqz	a5,12a24 <_vfprintf_r+0x1380>
   12606:	14c2                	slli	s1,s1,0x30
   12608:	90c1                	srli	s1,s1,0x30
   1260a:	f03a                	sd	a4,32(sp)
   1260c:	4785                	li	a5,1
   1260e:	c16ff06f          	j	11a24 <_vfprintf_r+0x380>
   12612:	4681                	li	a3,0
   12614:	15c10d13          	addi	s10,sp,348
   12618:	bcaff06f          	j	119e2 <_vfprintf_r+0x33e>
   1261c:	001df793          	andi	a5,s11,1
   12620:	aa078e63          	beqz	a5,118dc <_vfprintf_r+0x238>
   12624:	bcfd                	j	12122 <_vfprintf_r+0xa7e>
   12626:	0009c303          	lbu	t1,0(s3)
   1262a:	f03e                	sd	a5,32(sp)
   1262c:	9a8ff06f          	j	117d4 <_vfprintf_r+0x130>
   12630:	7782                	ld	a5,32(sp)
   12632:	6384                	ld	s1,0(a5)
   12634:	be6ff06f          	j	11a1a <_vfprintf_r+0x376>
   12638:	7782                	ld	a5,32(sp)
   1263a:	f03a                	sd	a4,32(sp)
   1263c:	6384                	ld	s1,0(a5)
   1263e:	4785                	li	a5,1
   12640:	be4ff06f          	j	11a24 <_vfprintf_r+0x380>
   12644:	010df793          	andi	a5,s11,16
   12648:	a4079fe3          	bnez	a5,120a6 <_vfprintf_r+0xa02>
   1264c:	040df793          	andi	a5,s11,64
   12650:	66079263          	bnez	a5,12cb4 <_vfprintf_r+0x1610>
   12654:	200dfe13          	andi	t3,s11,512
   12658:	67c2                	ld	a5,16(sp)
   1265a:	1e0e0ae3          	beqz	t3,1304e <_vfprintf_r+0x19aa>
   1265e:	00f70023          	sb	a5,0(a4)
   12662:	b4a1                	j	120aa <_vfprintf_r+0xa06>
   12664:	7782                	ld	a5,32(sp)
   12666:	00f78c13          	addi	s8,a5,15
   1266a:	ff0c7c13          	andi	s8,s8,-16
   1266e:	010c0793          	addi	a5,s8,16
   12672:	000c3703          	ld	a4,0(s8)
   12676:	008c3583          	ld	a1,8(s8)
   1267a:	f03e                	sd	a5,32(sp)
   1267c:	c1aff06f          	j	11a96 <_vfprintf_r+0x3f2>
   12680:	7782                	ld	a5,32(sp)
   12682:	639c                	ld	a5,0(a5)
   12684:	84be                	mv	s1,a5
   12686:	b36ff06f          	j	119bc <_vfprintf_r+0x318>
   1268a:	f03a                	sd	a4,32(sp)
   1268c:	47a5                	li	a5,9
   1268e:	8cee                	mv	s9,s11
   12690:	ca97f2e3          	bgeu	a5,s1,12334 <_vfprintf_r+0xc90>
   12694:	0af4                	addi	a3,sp,348
   12696:	688a                	ld	a7,128(sp)
   12698:	400cf713          	andi	a4,s9,1024
   1269c:	4601                	li	a2,0
   1269e:	85b6                	mv	a1,a3
   126a0:	4da9                	li	s11,10
   126a2:	4825                	li	a6,9
   126a4:	0ff00c13          	li	s8,255
   126a8:	a039                	j	126b6 <_vfprintf_r+0x1012>
   126aa:	03b4d7b3          	divu	a5,s1,s11
   126ae:	02987663          	bgeu	a6,s1,126da <_vfprintf_r+0x1036>
   126b2:	84be                	mv	s1,a5
   126b4:	85ea                	mv	a1,s10
   126b6:	fff58d13          	addi	s10,a1,-1 # 1fff <exit-0xe0e9>
   126ba:	2605                	addiw	a2,a2,1
   126bc:	03b4f7b3          	remu	a5,s1,s11
   126c0:	0307879b          	addiw	a5,a5,48
   126c4:	fef58fa3          	sb	a5,-1(a1)
   126c8:	d36d                	beqz	a4,126aa <_vfprintf_r+0x1006>
   126ca:	0008c783          	lbu	a5,0(a7)
   126ce:	fcf61ee3          	bne	a2,a5,126aa <_vfprintf_r+0x1006>
   126d2:	fd878ce3          	beq	a5,s8,126aa <_vfprintf_r+0x1006>
   126d6:	3e986063          	bltu	a6,s1,12ab6 <_vfprintf_r+0x1412>
   126da:	fc32                	sd	a2,56(sp)
   126dc:	e146                	sd	a7,128(sp)
   126de:	41a686bb          	subw	a3,a3,s10
   126e2:	8de6                	mv	s11,s9
   126e4:	afeff06f          	j	119e2 <_vfprintf_r+0x33e>
   126e8:	00070b1b          	sext.w	s6,a4
   126ec:	db6043e3          	bgtz	s6,12492 <_vfprintf_r+0xdee>
   126f0:	bb7d                	j	124ae <_vfprintf_r+0xe0a>
   126f2:	5b7d                	li	s6,-1
   126f4:	89ba                	mv	s3,a4
   126f6:	8e2ff06f          	j	117d8 <_vfprintf_r+0x134>
   126fa:	67e5                	lui	a5,0x19
   126fc:	f5078793          	addi	a5,a5,-176 # 18f50 <__clzdi2+0x1ce>
   12700:	f0be                	sd	a5,96(sp)
   12702:	7682                	ld	a3,32(sp)
   12704:	020df793          	andi	a5,s11,32
   12708:	00868713          	addi	a4,a3,8
   1270c:	14078863          	beqz	a5,1285c <_vfprintf_r+0x11b8>
   12710:	6284                	ld	s1,0(a3)
   12712:	001df793          	andi	a5,s11,1
   12716:	cf81                	beqz	a5,1272e <_vfprintf_r+0x108a>
   12718:	c899                	beqz	s1,1272e <_vfprintf_r+0x108a>
   1271a:	002dee13          	ori	t3,s11,2
   1271e:	03000793          	li	a5,48
   12722:	0af10823          	sb	a5,176(sp)
   12726:	0a6108a3          	sb	t1,177(sp)
   1272a:	000e0d9b          	sext.w	s11,t3
   1272e:	bffdfc93          	andi	s9,s11,-1025
   12732:	2c81                	sext.w	s9,s9
   12734:	f03a                	sd	a4,32(sp)
   12736:	4789                	li	a5,2
   12738:	aecff06f          	j	11a24 <_vfprintf_r+0x380>
   1273c:	8cee                	mv	s9,s11
   1273e:	b869                	j	11fd8 <_vfprintf_r+0x934>
   12740:	67e5                	lui	a5,0x19
   12742:	f3878793          	addi	a5,a5,-200 # 18f38 <__clzdi2+0x1b6>
   12746:	f0be                	sd	a5,96(sp)
   12748:	bf6d                	j	12702 <_vfprintf_r+0x105e>
   1274a:	200ded93          	ori	s11,s11,512
   1274e:	0019c303          	lbu	t1,1(s3)
   12752:	2d81                	sext.w	s11,s11
   12754:	0985                	addi	s3,s3,1
   12756:	87eff06f          	j	117d4 <_vfprintf_r+0x130>
   1275a:	020ded93          	ori	s11,s11,32
   1275e:	0019c303          	lbu	t1,1(s3)
   12762:	2d81                	sext.w	s11,s11
   12764:	0985                	addi	s3,s3,1
   12766:	86eff06f          	j	117d4 <_vfprintf_r+0x130>
   1276a:	6522                	ld	a0,8(sp)
   1276c:	1190                	addi	a2,sp,224
   1276e:	85ca                	mv	a1,s2
   12770:	31f000ef          	jal	1328e <__sprint_r>
   12774:	ba0511e3          	bnez	a0,12316 <_vfprintf_r+0xc72>
   12778:	74ce                	ld	s1,240(sp)
   1277a:	8452                	mv	s0,s4
   1277c:	b2d1                	j	12140 <_vfprintf_r+0xa9c>
   1277e:	4799                	li	a5,6
   12780:	000b069b          	sext.w	a3,s6
   12784:	5167e663          	bltu	a5,s6,12c90 <_vfprintf_r+0x15ec>
   12788:	67e5                	lui	a5,0x19
   1278a:	8c36                	mv	s8,a3
   1278c:	f026                	sd	s1,32(sp)
   1278e:	f6878d13          	addi	s10,a5,-152 # 18f68 <__clzdi2+0x1e6>
   12792:	8acff06f          	j	1183e <_vfprintf_r+0x19a>
   12796:	68e5                	lui	a7,0x19
   12798:	46c1                	li	a3,16
   1279a:	572e                	lw	a4,232(sp)
   1279c:	23888893          	addi	a7,a7,568 # 19238 <zeroes.0>
   127a0:	2f66d463          	bge	a3,s6,12a88 <_vfprintf_r+0x13e4>
   127a4:	46c1                	li	a3,16
   127a6:	431d                	li	t1,7
   127a8:	8cc6                	mv	s9,a7
   127aa:	a021                	j	127b2 <_vfprintf_r+0x110e>
   127ac:	3b41                	addiw	s6,s6,-16
   127ae:	2d66dc63          	bge	a3,s6,12a86 <_vfprintf_r+0x13e2>
   127b2:	2705                	addiw	a4,a4,1
   127b4:	04c1                	addi	s1,s1,16
   127b6:	01943023          	sd	s9,0(s0)
   127ba:	e414                	sd	a3,8(s0)
   127bc:	f9a6                	sd	s1,240(sp)
   127be:	d5ba                	sw	a4,232(sp)
   127c0:	0441                	addi	s0,s0,16
   127c2:	fee355e3          	bge	t1,a4,127ac <_vfprintf_r+0x1108>
   127c6:	6522                	ld	a0,8(sp)
   127c8:	1190                	addi	a2,sp,224
   127ca:	85ca                	mv	a1,s2
   127cc:	2c3000ef          	jal	1328e <__sprint_r>
   127d0:	b40513e3          	bnez	a0,12316 <_vfprintf_r+0xc72>
   127d4:	74ce                	ld	s1,240(sp)
   127d6:	572e                	lw	a4,232(sp)
   127d8:	8452                	mv	s0,s4
   127da:	431d                	li	t1,7
   127dc:	46c1                	li	a3,16
   127de:	b7f9                	j	127ac <_vfprintf_r+0x1108>
   127e0:	56ae                	lw	a3,232(sp)
   127e2:	67c6                	ld	a5,80(sp)
   127e4:	6666                	ld	a2,88(sp)
   127e6:	0441                	addi	s0,s0,16
   127e8:	94be                	add	s1,s1,a5
   127ea:	fec43823          	sd	a2,-16(s0)
   127ee:	0016861b          	addiw	a2,a3,1
   127f2:	fef43c23          	sd	a5,-8(s0)
   127f6:	f9a6                	sd	s1,240(sp)
   127f8:	d5b2                	sw	a2,232(sp)
   127fa:	469d                	li	a3,7
   127fc:	cec6d2e3          	bge	a3,a2,124e0 <_vfprintf_r+0xe3c>
   12800:	6522                	ld	a0,8(sp)
   12802:	1190                	addi	a2,sp,224
   12804:	85ca                	mv	a1,s2
   12806:	f81a                	sd	t1,48(sp)
   12808:	287000ef          	jal	1328e <__sprint_r>
   1280c:	b00515e3          	bnez	a0,12316 <_vfprintf_r+0xc72>
   12810:	576a                	lw	a4,184(sp)
   12812:	74ce                	ld	s1,240(sp)
   12814:	7342                	ld	t1,48(sp)
   12816:	8452                	mv	s0,s4
   12818:	b1e1                	j	124e0 <_vfprintf_r+0xe3c>
   1281a:	07800793          	li	a5,120
   1281e:	03000693          	li	a3,48
   12822:	002de713          	ori	a4,s11,2
   12826:	0af108a3          	sb	a5,177(sp)
   1282a:	0ad10823          	sb	a3,176(sp)
   1282e:	06300793          	li	a5,99
   12832:	2701                	sext.w	a4,a4
   12834:	4b67cf63          	blt	a5,s6,12cf2 <_vfprintf_r+0x164e>
   12838:	67ce                	ld	a5,208(sp)
   1283a:	6cee                	ld	s9,216(sp)
   1283c:	102dee13          	ori	t3,s11,258
   12840:	f83e                	sd	a5,48(sp)
   12842:	000e049b          	sext.w	s1,t3
   12846:	600ccf63          	bltz	s9,12e64 <_vfprintf_r+0x17c0>
   1284a:	fbf3069b          	addiw	a3,t1,-65
   1284e:	8dba                	mv	s11,a4
   12850:	f482                	sd	zero,104(sp)
   12852:	ec02                	sd	zero,24(sp)
   12854:	0f810d13          	addi	s10,sp,248
   12858:	ab6ff06f          	j	11b0e <_vfprintf_r+0x46a>
   1285c:	010df793          	andi	a5,s11,16
   12860:	c7d1                	beqz	a5,128ec <_vfprintf_r+0x1248>
   12862:	7782                	ld	a5,32(sp)
   12864:	6384                	ld	s1,0(a5)
   12866:	b575                	j	12712 <_vfprintf_r+0x106e>
   12868:	6522                	ld	a0,8(sp)
   1286a:	1190                	addi	a2,sp,224
   1286c:	85ca                	mv	a1,s2
   1286e:	221000ef          	jal	1328e <__sprint_r>
   12872:	aa0512e3          	bnez	a0,12316 <_vfprintf_r+0xc72>
   12876:	74ce                	ld	s1,240(sp)
   12878:	5b2e                	lw	s6,232(sp)
   1287a:	8cd2                	mv	s9,s4
   1287c:	d48ff06f          	j	11dc4 <_vfprintf_r+0x720>
   12880:	6522                	ld	a0,8(sp)
   12882:	1190                	addi	a2,sp,224
   12884:	85ca                	mv	a1,s2
   12886:	209000ef          	jal	1328e <__sprint_r>
   1288a:	a80516e3          	bnez	a0,12316 <_vfprintf_r+0xc72>
   1288e:	74ce                	ld	s1,240(sp)
   12890:	5b2e                	lw	s6,232(sp)
   12892:	8cd2                	mv	s9,s4
   12894:	d4cff06f          	j	11de0 <_vfprintf_r+0x73c>
   12898:	56ae                	lw	a3,232(sp)
   1289a:	6665                	lui	a2,0x19
   1289c:	f7060613          	addi	a2,a2,-144 # 18f70 <__clzdi2+0x1ee>
   128a0:	2685                	addiw	a3,a3,1
   128a2:	e010                	sd	a2,0(s0)
   128a4:	0485                	addi	s1,s1,1
   128a6:	4605                	li	a2,1
   128a8:	e410                	sd	a2,8(s0)
   128aa:	d5b6                	sw	a3,232(sp)
   128ac:	0006861b          	sext.w	a2,a3
   128b0:	f9a6                	sd	s1,240(sp)
   128b2:	469d                	li	a3,7
   128b4:	0441                	addi	s0,s0,16
   128b6:	3ac6c363          	blt	a3,a2,12c5c <_vfprintf_r+0x15b8>
   128ba:	10071363          	bnez	a4,129c0 <_vfprintf_r+0x131c>
   128be:	77e2                	ld	a5,56(sp)
   128c0:	001df713          	andi	a4,s11,1
   128c4:	8f5d                	or	a4,a4,a5
   128c6:	e319                	bnez	a4,128cc <_vfprintf_r+0x1228>
   128c8:	814ff06f          	j	118dc <_vfprintf_r+0x238>
   128cc:	572e                	lw	a4,232(sp)
   128ce:	67c6                	ld	a5,80(sp)
   128d0:	66e6                	ld	a3,88(sp)
   128d2:	00978633          	add	a2,a5,s1
   128d6:	e014                	sd	a3,0(s0)
   128d8:	0017069b          	addiw	a3,a4,1
   128dc:	e41c                	sd	a5,8(s0)
   128de:	f9b2                	sd	a2,240(sp)
   128e0:	d5b6                	sw	a3,232(sp)
   128e2:	471d                	li	a4,7
   128e4:	3ed74b63          	blt	a4,a3,12cda <_vfprintf_r+0x1636>
   128e8:	0441                	addi	s0,s0,16
   128ea:	a8f5                	j	129e6 <_vfprintf_r+0x1342>
   128ec:	7682                	ld	a3,32(sp)
   128ee:	040df793          	andi	a5,s11,64
   128f2:	4284                	lw	s1,0(a3)
   128f4:	16078563          	beqz	a5,12a5e <_vfprintf_r+0x13ba>
   128f8:	14c2                	slli	s1,s1,0x30
   128fa:	90c1                	srli	s1,s1,0x30
   128fc:	bd19                	j	12712 <_vfprintf_r+0x106e>
   128fe:	6522                	ld	a0,8(sp)
   12900:	dfbfd0ef          	jal	106fa <__sinit>
   12904:	ddbfe06f          	j	116de <_vfprintf_r+0x3a>
   12908:	6522                	ld	a0,8(sp)
   1290a:	1190                	addi	a2,sp,224
   1290c:	85ca                	mv	a1,s2
   1290e:	181000ef          	jal	1328e <__sprint_r>
   12912:	a00512e3          	bnez	a0,12316 <_vfprintf_r+0xc72>
   12916:	74ce                	ld	s1,240(sp)
   12918:	8452                	mv	s0,s4
   1291a:	801ff06f          	j	1211a <_vfprintf_r+0xa76>
   1291e:	88da                	mv	a7,s6
   12920:	8b4e                	mv	s6,s3
   12922:	79c2                	ld	s3,48(sp)
   12924:	0017871b          	addiw	a4,a5,1
   12928:	01143023          	sd	a7,0(s0)
   1292c:	01643423          	sd	s6,8(s0)
   12930:	94da                	add	s1,s1,s6
   12932:	f9a6                	sd	s1,240(sp)
   12934:	d5ba                	sw	a4,232(sp)
   12936:	479d                	li	a5,7
   12938:	00e7c463          	blt	a5,a4,12940 <_vfprintf_r+0x129c>
   1293c:	f9ffe06f          	j	118da <_vfprintf_r+0x236>
   12940:	cf4ff06f          	j	11e34 <_vfprintf_r+0x790>
   12944:	f03a                	sd	a4,32(sp)
   12946:	b2e5                	j	1232e <_vfprintf_r+0xc8a>
   12948:	654e                	ld	a0,208(sp)
   1294a:	65ee                	ld	a1,216(sp)
   1294c:	4601                	li	a2,0
   1294e:	4681                	li	a3,0
   12950:	3aa050ef          	jal	17cfa <__letf2>
   12954:	6362                	ld	t1,24(sp)
   12956:	54054363          	bltz	a0,12e9c <_vfprintf_r+0x17f8>
   1295a:	0af14703          	lbu	a4,175(sp)
   1295e:	04700793          	li	a5,71
   12962:	3067d863          	bge	a5,t1,12c72 <_vfprintf_r+0x15ce>
   12966:	67e5                	lui	a5,0x19
   12968:	f2078d13          	addi	s10,a5,-224 # 18f20 <__clzdi2+0x19e>
   1296c:	f7fdfe13          	andi	t3,s11,-129
   12970:	ec02                	sd	zero,24(sp)
   12972:	e482                	sd	zero,72(sp)
   12974:	e082                	sd	zero,64(sp)
   12976:	f802                	sd	zero,48(sp)
   12978:	000e0d9b          	sext.w	s11,t3
   1297c:	4c0d                	li	s8,3
   1297e:	468d                	li	a3,3
   12980:	4b01                	li	s6,0
   12982:	c319                	beqz	a4,12988 <_vfprintf_r+0x12e4>
   12984:	87aff06f          	j	119fe <_vfprintf_r+0x35a>
   12988:	ec1fe06f          	j	11848 <_vfprintf_r+0x1a4>
   1298c:	856a                	mv	a0,s10
   1298e:	f49a                	sd	t1,104(sp)
   12990:	a6cfe0ef          	jal	10bfc <strlen>
   12994:	0005069b          	sext.w	a3,a0
   12998:	0af14703          	lbu	a4,175(sp)
   1299c:	fff6c813          	not	a6,a3
   129a0:	43f85813          	srai	a6,a6,0x3f
   129a4:	f026                	sd	s1,32(sp)
   129a6:	ec02                	sd	zero,24(sp)
   129a8:	e482                	sd	zero,72(sp)
   129aa:	e082                	sd	zero,64(sp)
   129ac:	f802                	sd	zero,48(sp)
   129ae:	7326                	ld	t1,104(sp)
   129b0:	00d87c33          	and	s8,a6,a3
   129b4:	4b01                	li	s6,0
   129b6:	c319                	beqz	a4,129bc <_vfprintf_r+0x1318>
   129b8:	846ff06f          	j	119fe <_vfprintf_r+0x35a>
   129bc:	e8dfe06f          	j	11848 <_vfprintf_r+0x1a4>
   129c0:	55ae                	lw	a1,232(sp)
   129c2:	67c6                	ld	a5,80(sp)
   129c4:	66e6                	ld	a3,88(sp)
   129c6:	0441                	addi	s0,s0,16
   129c8:	00978633          	add	a2,a5,s1
   129cc:	fed43823          	sd	a3,-16(s0)
   129d0:	0015869b          	addiw	a3,a1,1
   129d4:	fef43c23          	sd	a5,-8(s0)
   129d8:	f9b2                	sd	a2,240(sp)
   129da:	d5b6                	sw	a3,232(sp)
   129dc:	459d                	li	a1,7
   129de:	2ed5ce63          	blt	a1,a3,12cda <_vfprintf_r+0x1636>
   129e2:	5a074163          	bltz	a4,12f84 <_vfprintf_r+0x18e0>
   129e6:	77e2                	ld	a5,56(sp)
   129e8:	0016871b          	addiw	a4,a3,1
   129ec:	01a43023          	sd	s10,0(s0)
   129f0:	00c784b3          	add	s1,a5,a2
   129f4:	e41c                	sd	a5,8(s0)
   129f6:	f9a6                	sd	s1,240(sp)
   129f8:	d5ba                	sw	a4,232(sp)
   129fa:	479d                	li	a5,7
   129fc:	00e7c463          	blt	a5,a4,12a04 <_vfprintf_r+0x1360>
   12a00:	edbfe06f          	j	118da <_vfprintf_r+0x236>
   12a04:	c30ff06f          	j	11e34 <_vfprintf_r+0x790>
   12a08:	88ce                	mv	a7,s3
   12a0a:	79c2                	ld	s3,48(sp)
   12a0c:	2b05                	addiw	s6,s6,1
   12a0e:	94a2                	add	s1,s1,s0
   12a10:	011cb023          	sd	a7,0(s9)
   12a14:	008cb423          	sd	s0,8(s9)
   12a18:	f9a6                	sd	s1,240(sp)
   12a1a:	d5da                	sw	s6,232(sp)
   12a1c:	479d                	li	a5,7
   12a1e:	bf67d963          	bge	a5,s6,11e10 <_vfprintf_r+0x76c>
   12a22:	b6ad                	j	1258c <_vfprintf_r+0xee8>
   12a24:	200cf793          	andi	a5,s9,512
   12a28:	28078063          	beqz	a5,12ca8 <_vfprintf_r+0x1604>
   12a2c:	0ff4f493          	zext.b	s1,s1
   12a30:	f03a                	sd	a4,32(sp)
   12a32:	4785                	li	a5,1
   12a34:	ff1fe06f          	j	11a24 <_vfprintf_r+0x380>
   12a38:	200df793          	andi	a5,s11,512
   12a3c:	26078263          	beqz	a5,12ca0 <_vfprintf_r+0x15fc>
   12a40:	0ff4f493          	zext.b	s1,s1
   12a44:	fd7fe06f          	j	11a1a <_vfprintf_r+0x376>
   12a48:	200df793          	andi	a5,s11,512
   12a4c:	24078763          	beqz	a5,12c9a <_vfprintf_r+0x15f6>
   12a50:	0184949b          	slliw	s1,s1,0x18
   12a54:	4184d49b          	sraiw	s1,s1,0x18
   12a58:	87a6                	mv	a5,s1
   12a5a:	f63fe06f          	j	119bc <_vfprintf_r+0x318>
   12a5e:	200df793          	andi	a5,s11,512
   12a62:	22078963          	beqz	a5,12c94 <_vfprintf_r+0x15f0>
   12a66:	0ff4f493          	zext.b	s1,s1
   12a6a:	b165                	j	12712 <_vfprintf_r+0x106e>
   12a6c:	67ee                	ld	a5,216(sp)
   12a6e:	2407cf63          	bltz	a5,12ccc <_vfprintf_r+0x1628>
   12a72:	0af14703          	lbu	a4,175(sp)
   12a76:	04700793          	li	a5,71
   12a7a:	4a67ca63          	blt	a5,t1,12f2e <_vfprintf_r+0x188a>
   12a7e:	67e5                	lui	a5,0x19
   12a80:	f2878d13          	addi	s10,a5,-216 # 18f28 <__clzdi2+0x1a6>
   12a84:	b5e5                	j	1296c <_vfprintf_r+0x12c8>
   12a86:	88e6                	mv	a7,s9
   12a88:	0017069b          	addiw	a3,a4,1
   12a8c:	94da                	add	s1,s1,s6
   12a8e:	01143023          	sd	a7,0(s0)
   12a92:	01643423          	sd	s6,8(s0)
   12a96:	f9a6                	sd	s1,240(sp)
   12a98:	d5b6                	sw	a3,232(sp)
   12a9a:	471d                	li	a4,7
   12a9c:	0441                	addi	s0,s0,16
   12a9e:	a2d752e3          	bge	a4,a3,124c2 <_vfprintf_r+0xe1e>
   12aa2:	6522                	ld	a0,8(sp)
   12aa4:	1190                	addi	a2,sp,224
   12aa6:	85ca                	mv	a1,s2
   12aa8:	7e6000ef          	jal	1328e <__sprint_r>
   12aac:	860515e3          	bnez	a0,12316 <_vfprintf_r+0xc72>
   12ab0:	74ce                	ld	s1,240(sp)
   12ab2:	8452                	mv	s0,s4
   12ab4:	b439                	j	124c2 <_vfprintf_r+0xe1e>
   12ab6:	67aa                	ld	a5,136(sp)
   12ab8:	75e6                	ld	a1,120(sp)
   12aba:	e0b6                	sd	a3,64(sp)
   12abc:	40fd0d33          	sub	s10,s10,a5
   12ac0:	863e                	mv	a2,a5
   12ac2:	856a                	mv	a0,s10
   12ac4:	fc3a                	sd	a4,56(sp)
   12ac6:	f81a                	sd	t1,48(sp)
   12ac8:	ec46                	sd	a7,24(sp)
   12aca:	7ab000ef          	jal	13a74 <strncpy>
   12ace:	68e2                	ld	a7,24(sp)
   12ad0:	47a9                	li	a5,10
   12ad2:	02f4d7b3          	divu	a5,s1,a5
   12ad6:	0018c603          	lbu	a2,1(a7)
   12ada:	7342                	ld	t1,48(sp)
   12adc:	7762                	ld	a4,56(sp)
   12ade:	00c03633          	snez	a2,a2
   12ae2:	98b2                	add	a7,a7,a2
   12ae4:	6686                	ld	a3,64(sp)
   12ae6:	4601                	li	a2,0
   12ae8:	4825                	li	a6,9
   12aea:	b6e1                	j	126b2 <_vfprintf_r+0x100e>
   12aec:	77e2                	ld	a5,56(sp)
   12aee:	6c86                	ld	s9,64(sp)
   12af0:	68e5                	lui	a7,0x19
   12af2:	00fd05b3          	add	a1,s10,a5
   12af6:	f4ce                	sd	s3,104(sp)
   12af8:	e96e                	sd	s11,144(sp)
   12afa:	ed5e                	sd	s7,152(sp)
   12afc:	6da6                	ld	s11,72(sp)
   12afe:	e0e2                	sd	s8,64(sp)
   12b00:	e4ea                	sd	s10,72(sp)
   12b02:	8626                	mv	a2,s1
   12b04:	6baa                	ld	s7,136(sp)
   12b06:	6c0a                	ld	s8,128(sp)
   12b08:	69a2                	ld	s3,8(sp)
   12b0a:	469d                	li	a3,7
   12b0c:	4741                	li	a4,16
   12b0e:	23888b13          	addi	s6,a7,568 # 19238 <zeroes.0>
   12b12:	87a2                	mv	a5,s0
   12b14:	8d1a                	mv	s10,t1
   12b16:	84ae                	mv	s1,a1
   12b18:	07905d63          	blez	s9,12b92 <_vfprintf_r+0x14ee>
   12b1c:	11b05163          	blez	s11,12c1e <_vfprintf_r+0x157a>
   12b20:	3dfd                	addiw	s11,s11,-1
   12b22:	55ae                	lw	a1,232(sp)
   12b24:	7566                	ld	a0,120(sp)
   12b26:	965e                	add	a2,a2,s7
   12b28:	0177b423          	sd	s7,8(a5)
   12b2c:	e388                	sd	a0,0(a5)
   12b2e:	0015851b          	addiw	a0,a1,1
   12b32:	f9b2                	sd	a2,240(sp)
   12b34:	d5aa                	sw	a0,232(sp)
   12b36:	07c1                	addi	a5,a5,16
   12b38:	0ea6c663          	blt	a3,a0,12c24 <_vfprintf_r+0x1580>
   12b3c:	000c4583          	lbu	a1,0(s8)
   12b40:	41a48f33          	sub	t5,s1,s10
   12b44:	000f051b          	sext.w	a0,t5
   12b48:	0005881b          	sext.w	a6,a1
   12b4c:	00a5d363          	bge	a1,a0,12b52 <_vfprintf_r+0x14ae>
   12b50:	8f42                	mv	t5,a6
   12b52:	000f041b          	sext.w	s0,t5
   12b56:	02805263          	blez	s0,12b7a <_vfprintf_r+0x14d6>
   12b5a:	55ae                	lw	a1,232(sp)
   12b5c:	9622                	add	a2,a2,s0
   12b5e:	01a7b023          	sd	s10,0(a5)
   12b62:	0015851b          	addiw	a0,a1,1
   12b66:	e780                	sd	s0,8(a5)
   12b68:	f9b2                	sd	a2,240(sp)
   12b6a:	d5aa                	sw	a0,232(sp)
   12b6c:	0ca6c863          	blt	a3,a0,12c3c <_vfprintf_r+0x1598>
   12b70:	000c4583          	lbu	a1,0(s8)
   12b74:	07c1                	addi	a5,a5,16
   12b76:	0005881b          	sext.w	a6,a1
   12b7a:	fff44513          	not	a0,s0
   12b7e:	957d                	srai	a0,a0,0x3f
   12b80:	00a47f33          	and	t5,s0,a0
   12b84:	41e8043b          	subw	s0,a6,t5
   12b88:	02804763          	bgtz	s0,12bb6 <_vfprintf_r+0x1512>
   12b8c:	9d2e                	add	s10,s10,a1
   12b8e:	f99047e3          	bgtz	s9,12b1c <_vfprintf_r+0x1478>
   12b92:	f9b047e3          	bgtz	s11,12b20 <_vfprintf_r+0x147c>
   12b96:	836a                	mv	t1,s10
   12b98:	843e                	mv	s0,a5
   12b9a:	6d26                	ld	s10,72(sp)
   12b9c:	77e2                	ld	a5,56(sp)
   12b9e:	e162                	sd	s8,128(sp)
   12ba0:	79a6                	ld	s3,104(sp)
   12ba2:	00fd0733          	add	a4,s10,a5
   12ba6:	6dca                	ld	s11,144(sp)
   12ba8:	6bea                	ld	s7,152(sp)
   12baa:	6c06                	ld	s8,64(sp)
   12bac:	84b2                	mv	s1,a2
   12bae:	926771e3          	bgeu	a4,t1,124d0 <_vfprintf_r+0xe2c>
   12bb2:	833a                	mv	t1,a4
   12bb4:	ba31                	j	124d0 <_vfprintf_r+0xe2c>
   12bb6:	6f65                	lui	t5,0x19
   12bb8:	55ae                	lw	a1,232(sp)
   12bba:	238f0f13          	addi	t5,t5,568 # 19238 <zeroes.0>
   12bbe:	04875163          	bge	a4,s0,12c00 <_vfprintf_r+0x155c>
   12bc2:	f85a                	sd	s6,48(sp)
   12bc4:	a021                	j	12bcc <_vfprintf_r+0x1528>
   12bc6:	3441                	addiw	s0,s0,-16
   12bc8:	02875b63          	bge	a4,s0,12bfe <_vfprintf_r+0x155a>
   12bcc:	2585                	addiw	a1,a1,1
   12bce:	0641                	addi	a2,a2,16
   12bd0:	0167b023          	sd	s6,0(a5)
   12bd4:	e798                	sd	a4,8(a5)
   12bd6:	f9b2                	sd	a2,240(sp)
   12bd8:	d5ae                	sw	a1,232(sp)
   12bda:	07c1                	addi	a5,a5,16
   12bdc:	feb6d5e3          	bge	a3,a1,12bc6 <_vfprintf_r+0x1522>
   12be0:	1190                	addi	a2,sp,224
   12be2:	85ca                	mv	a1,s2
   12be4:	854e                	mv	a0,s3
   12be6:	6a8000ef          	jal	1328e <__sprint_r>
   12bea:	f2051663          	bnez	a0,12316 <_vfprintf_r+0xc72>
   12bee:	4741                	li	a4,16
   12bf0:	3441                	addiw	s0,s0,-16
   12bf2:	764e                	ld	a2,240(sp)
   12bf4:	55ae                	lw	a1,232(sp)
   12bf6:	87d2                	mv	a5,s4
   12bf8:	469d                	li	a3,7
   12bfa:	fc8749e3          	blt	a4,s0,12bcc <_vfprintf_r+0x1528>
   12bfe:	7f42                	ld	t5,48(sp)
   12c00:	0015851b          	addiw	a0,a1,1
   12c04:	9622                	add	a2,a2,s0
   12c06:	01e7b023          	sd	t5,0(a5)
   12c0a:	e780                	sd	s0,8(a5)
   12c0c:	f9b2                	sd	a2,240(sp)
   12c0e:	d5aa                	sw	a0,232(sp)
   12c10:	26a6c763          	blt	a3,a0,12e7e <_vfprintf_r+0x17da>
   12c14:	000c4583          	lbu	a1,0(s8)
   12c18:	07c1                	addi	a5,a5,16
   12c1a:	9d2e                	add	s10,s10,a1
   12c1c:	bf8d                	j	12b8e <_vfprintf_r+0x14ea>
   12c1e:	1c7d                	addi	s8,s8,-1
   12c20:	3cfd                	addiw	s9,s9,-1
   12c22:	b701                	j	12b22 <_vfprintf_r+0x147e>
   12c24:	1190                	addi	a2,sp,224
   12c26:	85ca                	mv	a1,s2
   12c28:	854e                	mv	a0,s3
   12c2a:	664000ef          	jal	1328e <__sprint_r>
   12c2e:	ee051463          	bnez	a0,12316 <_vfprintf_r+0xc72>
   12c32:	764e                	ld	a2,240(sp)
   12c34:	87d2                	mv	a5,s4
   12c36:	4741                	li	a4,16
   12c38:	469d                	li	a3,7
   12c3a:	b709                	j	12b3c <_vfprintf_r+0x1498>
   12c3c:	1190                	addi	a2,sp,224
   12c3e:	85ca                	mv	a1,s2
   12c40:	854e                	mv	a0,s3
   12c42:	64c000ef          	jal	1328e <__sprint_r>
   12c46:	ec051863          	bnez	a0,12316 <_vfprintf_r+0xc72>
   12c4a:	000c4583          	lbu	a1,0(s8)
   12c4e:	764e                	ld	a2,240(sp)
   12c50:	87d2                	mv	a5,s4
   12c52:	0005881b          	sext.w	a6,a1
   12c56:	4741                	li	a4,16
   12c58:	469d                	li	a3,7
   12c5a:	b705                	j	12b7a <_vfprintf_r+0x14d6>
   12c5c:	6522                	ld	a0,8(sp)
   12c5e:	1190                	addi	a2,sp,224
   12c60:	85ca                	mv	a1,s2
   12c62:	62c000ef          	jal	1328e <__sprint_r>
   12c66:	ea051863          	bnez	a0,12316 <_vfprintf_r+0xc72>
   12c6a:	576a                	lw	a4,184(sp)
   12c6c:	74ce                	ld	s1,240(sp)
   12c6e:	8452                	mv	s0,s4
   12c70:	b1a9                	j	128ba <_vfprintf_r+0x1216>
   12c72:	67e5                	lui	a5,0x19
   12c74:	f1878d13          	addi	s10,a5,-232 # 18f18 <__clzdi2+0x196>
   12c78:	b9d5                	j	1296c <_vfprintf_r+0x12c8>
   12c7a:	6522                	ld	a0,8(sp)
   12c7c:	1190                	addi	a2,sp,224
   12c7e:	85ca                	mv	a1,s2
   12c80:	60e000ef          	jal	1328e <__sprint_r>
   12c84:	e8051963          	bnez	a0,12316 <_vfprintf_r+0xc72>
   12c88:	74ce                	ld	s1,240(sp)
   12c8a:	8452                	mv	s0,s4
   12c8c:	823ff06f          	j	124ae <_vfprintf_r+0xe0a>
   12c90:	4699                	li	a3,6
   12c92:	bcdd                	j	12788 <_vfprintf_r+0x10e4>
   12c94:	1482                	slli	s1,s1,0x20
   12c96:	9081                	srli	s1,s1,0x20
   12c98:	bcad                	j	12712 <_vfprintf_r+0x106e>
   12c9a:	87a6                	mv	a5,s1
   12c9c:	d21fe06f          	j	119bc <_vfprintf_r+0x318>
   12ca0:	1482                	slli	s1,s1,0x20
   12ca2:	9081                	srli	s1,s1,0x20
   12ca4:	d77fe06f          	j	11a1a <_vfprintf_r+0x376>
   12ca8:	1482                	slli	s1,s1,0x20
   12caa:	9081                	srli	s1,s1,0x20
   12cac:	f03a                	sd	a4,32(sp)
   12cae:	4785                	li	a5,1
   12cb0:	d75fe06f          	j	11a24 <_vfprintf_r+0x380>
   12cb4:	67c2                	ld	a5,16(sp)
   12cb6:	00f71023          	sh	a5,0(a4)
   12cba:	bf0ff06f          	j	120aa <_vfprintf_r+0xa06>
   12cbe:	6522                	ld	a0,8(sp)
   12cc0:	1190                	addi	a2,sp,224
   12cc2:	85ca                	mv	a1,s2
   12cc4:	5ca000ef          	jal	1328e <__sprint_r>
   12cc8:	c59fe06f          	j	11920 <_vfprintf_r+0x27c>
   12ccc:	02d00793          	li	a5,45
   12cd0:	0af107a3          	sb	a5,175(sp)
   12cd4:	02d00713          	li	a4,45
   12cd8:	bb79                	j	12a76 <_vfprintf_r+0x13d2>
   12cda:	6522                	ld	a0,8(sp)
   12cdc:	1190                	addi	a2,sp,224
   12cde:	85ca                	mv	a1,s2
   12ce0:	5ae000ef          	jal	1328e <__sprint_r>
   12ce4:	e2051963          	bnez	a0,12316 <_vfprintf_r+0xc72>
   12ce8:	576a                	lw	a4,184(sp)
   12cea:	764e                	ld	a2,240(sp)
   12cec:	56ae                	lw	a3,232(sp)
   12cee:	8452                	mv	s0,s4
   12cf0:	b9cd                	j	129e2 <_vfprintf_r+0x133e>
   12cf2:	6522                	ld	a0,8(sp)
   12cf4:	001b059b          	addiw	a1,s6,1
   12cf8:	f83a                	sd	a4,48(sp)
   12cfa:	ec1a                	sd	t1,24(sp)
   12cfc:	b9afe0ef          	jal	11096 <_malloc_r>
   12d00:	6362                	ld	t1,24(sp)
   12d02:	7742                	ld	a4,48(sp)
   12d04:	8d2a                	mv	s10,a0
   12d06:	4c050563          	beqz	a0,131d0 <_vfprintf_r+0x1b2c>
   12d0a:	ec2a                	sd	a0,24(sp)
   12d0c:	8dba                	mv	s11,a4
   12d0e:	dd9fe06f          	j	11ae6 <_vfprintf_r+0x442>
   12d12:	75c2                	ld	a1,48(sp)
   12d14:	6522                	ld	a0,8(sp)
   12d16:	875a                	mv	a4,s6
   12d18:	0c810893          	addi	a7,sp,200
   12d1c:	0bc10813          	addi	a6,sp,188
   12d20:	193c                	addi	a5,sp,184
   12d22:	4689                	li	a3,2
   12d24:	8666                	mv	a2,s9
   12d26:	1a4010ef          	jal	13eca <_ldtoa_r>
   12d2a:	7362                	ld	t1,56(sp)
   12d2c:	04700713          	li	a4,71
   12d30:	8d2a                	mv	s10,a0
   12d32:	48e31d63          	bne	t1,a4,131cc <_vfprintf_r+0x1b28>
   12d36:	001df713          	andi	a4,s11,1
   12d3a:	1c071263          	bnez	a4,12efe <_vfprintf_r+0x185a>
   12d3e:	57ea                	lw	a5,184(sp)
   12d40:	f83e                	sd	a5,48(sp)
   12d42:	67ae                	ld	a5,200(sp)
   12d44:	41a787bb          	subw	a5,a5,s10
   12d48:	fc3e                	sd	a5,56(sp)
   12d4a:	77c2                	ld	a5,48(sp)
   12d4c:	5775                	li	a4,-3
   12d4e:	00e7c463          	blt	a5,a4,12d56 <_vfprintf_r+0x16b2>
   12d52:	0cfb5763          	bge	s6,a5,12e20 <_vfprintf_r+0x177c>
   12d56:	77c2                	ld	a5,48(sp)
   12d58:	3379                	addiw	t1,t1,-2
   12d5a:	fff7871b          	addiw	a4,a5,-1
   12d5e:	dd3a                	sw	a4,184(sp)
   12d60:	0ff37693          	zext.b	a3,t1
   12d64:	4601                	li	a2,0
   12d66:	f49fe06f          	j	11cae <_vfprintf_r+0x60a>
   12d6a:	77c2                	ld	a5,48(sp)
   12d6c:	00a7c583          	lbu	a1,10(a5)
   12d70:	feb68fa3          	sb	a1,-1(a3)
   12d74:	f0bfe06f          	j	11c7e <_vfprintf_r+0x5da>
   12d78:	0af14703          	lbu	a4,175(sp)
   12d7c:	4b01                	li	s6,0
   12d7e:	c319                	beqz	a4,12d84 <_vfprintf_r+0x16e0>
   12d80:	c7ffe06f          	j	119fe <_vfprintf_r+0x35a>
   12d84:	ac5fe06f          	j	11848 <_vfprintf_r+0x1a4>
   12d88:	875a                	mv	a4,s6
   12d8a:	468d                	li	a3,3
   12d8c:	75c2                	ld	a1,48(sp)
   12d8e:	6522                	ld	a0,8(sp)
   12d90:	0c810893          	addi	a7,sp,200
   12d94:	0bc10813          	addi	a6,sp,188
   12d98:	193c                	addi	a5,sp,184
   12d9a:	8666                	mv	a2,s9
   12d9c:	e09a                	sd	t1,64(sp)
   12d9e:	fc3a                	sd	a4,56(sp)
   12da0:	12a010ef          	jal	13eca <_ldtoa_r>
   12da4:	7762                	ld	a4,56(sp)
   12da6:	6306                	ld	t1,64(sp)
   12da8:	8d2a                	mv	s10,a0
   12daa:	fdf37c13          	andi	s8,t1,-33
   12dae:	04600693          	li	a3,70
   12db2:	00ed0833          	add	a6,s10,a4
   12db6:	00dc1a63          	bne	s8,a3,12dca <_vfprintf_r+0x1726>
   12dba:	000d4603          	lbu	a2,0(s10)
   12dbe:	03000693          	li	a3,48
   12dc2:	2ad60063          	beq	a2,a3,13062 <_vfprintf_r+0x19be>
   12dc6:	56ea                	lw	a3,184(sp)
   12dc8:	9836                	add	a6,a6,a3
   12dca:	7542                	ld	a0,48(sp)
   12dcc:	4601                	li	a2,0
   12dce:	4681                	li	a3,0
   12dd0:	85e6                	mv	a1,s9
   12dd2:	e0c2                	sd	a6,64(sp)
   12dd4:	fc1a                	sd	t1,56(sp)
   12dd6:	5df040ef          	jal	17bb4 <__eqtf2>
   12dda:	7362                	ld	t1,56(sp)
   12ddc:	6806                	ld	a6,64(sp)
   12dde:	12050563          	beqz	a0,12f08 <_vfprintf_r+0x1864>
   12de2:	67ae                	ld	a5,200(sp)
   12de4:	0107fc63          	bgeu	a5,a6,12dfc <_vfprintf_r+0x1758>
   12de8:	03000693          	li	a3,48
   12dec:	00178713          	addi	a4,a5,1
   12df0:	e5ba                	sd	a4,200(sp)
   12df2:	00d78023          	sb	a3,0(a5)
   12df6:	67ae                	ld	a5,200(sp)
   12df8:	ff07eae3          	bltu	a5,a6,12dec <_vfprintf_r+0x1748>
   12dfc:	576a                	lw	a4,184(sp)
   12dfe:	f83a                	sd	a4,48(sp)
   12e00:	41a787bb          	subw	a5,a5,s10
   12e04:	04700713          	li	a4,71
   12e08:	fc3e                	sd	a5,56(sp)
   12e0a:	f4ec00e3          	beq	s8,a4,12d4a <_vfprintf_r+0x16a6>
   12e0e:	04600713          	li	a4,70
   12e12:	14ec0c63          	beq	s8,a4,12f6a <_vfprintf_r+0x18c6>
   12e16:	77c2                	ld	a5,48(sp)
   12e18:	fff7871b          	addiw	a4,a5,-1
   12e1c:	dd3a                	sw	a4,184(sp)
   12e1e:	b789                	j	12d60 <_vfprintf_r+0x16bc>
   12e20:	77e2                	ld	a5,56(sp)
   12e22:	7742                	ld	a4,48(sp)
   12e24:	10f74c63          	blt	a4,a5,12f3c <_vfprintf_r+0x1898>
   12e28:	77c2                	ld	a5,48(sp)
   12e2a:	001df713          	andi	a4,s11,1
   12e2e:	86be                	mv	a3,a5
   12e30:	c701                	beqz	a4,12e38 <_vfprintf_r+0x1794>
   12e32:	6746                	ld	a4,80(sp)
   12e34:	00f706bb          	addw	a3,a4,a5
   12e38:	400dfe13          	andi	t3,s11,1024
   12e3c:	000e0563          	beqz	t3,12e46 <_vfprintf_r+0x17a2>
   12e40:	77c2                	ld	a5,48(sp)
   12e42:	24f04463          	bgtz	a5,1308a <_vfprintf_r+0x19e6>
   12e46:	fff6c813          	not	a6,a3
   12e4a:	43f85813          	srai	a6,a6,0x3f
   12e4e:	0106f833          	and	a6,a3,a6
   12e52:	00080c1b          	sext.w	s8,a6
   12e56:	8da6                	mv	s11,s1
   12e58:	06700313          	li	t1,103
   12e5c:	e482                	sd	zero,72(sp)
   12e5e:	e082                	sd	zero,64(sp)
   12e60:	f07fe06f          	j	11d66 <_vfprintf_r+0x6c2>
   12e64:	8dba                	mv	s11,a4
   12e66:	ec02                	sd	zero,24(sp)
   12e68:	0f810d13          	addi	s10,sp,248
   12e6c:	577d                	li	a4,-1
   12e6e:	177e                	slli	a4,a4,0x3f
   12e70:	02d00793          	li	a5,45
   12e74:	00ecccb3          	xor	s9,s9,a4
   12e78:	f4be                	sd	a5,104(sp)
   12e7a:	c85fe06f          	j	11afe <_vfprintf_r+0x45a>
   12e7e:	1190                	addi	a2,sp,224
   12e80:	85ca                	mv	a1,s2
   12e82:	854e                	mv	a0,s3
   12e84:	40a000ef          	jal	1328e <__sprint_r>
   12e88:	c8051763          	bnez	a0,12316 <_vfprintf_r+0xc72>
   12e8c:	000c4583          	lbu	a1,0(s8)
   12e90:	764e                	ld	a2,240(sp)
   12e92:	87d2                	mv	a5,s4
   12e94:	4741                	li	a4,16
   12e96:	469d                	li	a3,7
   12e98:	9d2e                	add	s10,s10,a1
   12e9a:	b9d5                	j	12b8e <_vfprintf_r+0x14ea>
   12e9c:	02d00793          	li	a5,45
   12ea0:	0af107a3          	sb	a5,175(sp)
   12ea4:	02d00713          	li	a4,45
   12ea8:	bc5d                	j	1295e <_vfprintf_r+0x12ba>
   12eaa:	57fd                	li	a5,-1
   12eac:	e83e                	sd	a5,16(sp)
   12eae:	aa1fe06f          	j	1194e <_vfprintf_r+0x2aa>
   12eb2:	88da                	mv	a7,s6
   12eb4:	8b4a                	mv	s6,s2
   12eb6:	894e                	mv	s2,s3
   12eb8:	79c2                	ld	s3,48(sp)
   12eba:	b4ad                	j	12924 <_vfprintf_r+0x1280>
   12ebc:	0af14703          	lbu	a4,175(sp)
   12ec0:	f026                	sd	s1,32(sp)
   12ec2:	e482                	sd	zero,72(sp)
   12ec4:	e082                	sd	zero,64(sp)
   12ec6:	f802                	sd	zero,48(sp)
   12ec8:	8c5a                	mv	s8,s6
   12eca:	86da                	mv	a3,s6
   12ecc:	4b01                	li	s6,0
   12ece:	c319                	beqz	a4,12ed4 <_vfprintf_r+0x1830>
   12ed0:	b2ffe06f          	j	119fe <_vfprintf_r+0x35a>
   12ed4:	975fe06f          	j	11848 <_vfprintf_r+0x1a4>
   12ed8:	75c2                	ld	a1,48(sp)
   12eda:	6522                	ld	a0,8(sp)
   12edc:	875a                	mv	a4,s6
   12ede:	0c810893          	addi	a7,sp,200
   12ee2:	0bc10813          	addi	a6,sp,188
   12ee6:	193c                	addi	a5,sp,184
   12ee8:	4689                	li	a3,2
   12eea:	8666                	mv	a2,s9
   12eec:	fc1a                	sd	t1,56(sp)
   12eee:	7dd000ef          	jal	13eca <_ldtoa_r>
   12ef2:	001df713          	andi	a4,s11,1
   12ef6:	7362                	ld	t1,56(sp)
   12ef8:	8d2a                	mv	s10,a0
   12efa:	e40702e3          	beqz	a4,12d3e <_vfprintf_r+0x169a>
   12efe:	016d0833          	add	a6,s10,s6
   12f02:	04700c13          	li	s8,71
   12f06:	b5d1                	j	12dca <_vfprintf_r+0x1726>
   12f08:	57ea                	lw	a5,184(sp)
   12f0a:	f83e                	sd	a5,48(sp)
   12f0c:	87c2                	mv	a5,a6
   12f0e:	bdcd                	j	12e00 <_vfprintf_r+0x175c>
   12f10:	6522                	ld	a0,8(sp)
   12f12:	1190                	addi	a2,sp,224
   12f14:	85ca                	mv	a1,s2
   12f16:	378000ef          	jal	1328e <__sprint_r>
   12f1a:	be051e63          	bnez	a0,12316 <_vfprintf_r+0xc72>
   12f1e:	56ea                	lw	a3,184(sp)
   12f20:	77e2                	ld	a5,56(sp)
   12f22:	74ce                	ld	s1,240(sp)
   12f24:	8452                	mv	s0,s4
   12f26:	40d786bb          	subw	a3,a5,a3
   12f2a:	deeff06f          	j	12518 <_vfprintf_r+0xe74>
   12f2e:	67e5                	lui	a5,0x19
   12f30:	f3078d13          	addi	s10,a5,-208 # 18f30 <__clzdi2+0x1ae>
   12f34:	bc25                	j	1296c <_vfprintf_r+0x12c8>
   12f36:	8cee                	mv	s9,s11
   12f38:	bfcff06f          	j	12334 <_vfprintf_r+0xc90>
   12f3c:	67c6                	ld	a5,80(sp)
   12f3e:	7762                	ld	a4,56(sp)
   12f40:	06700313          	li	t1,103
   12f44:	00e786bb          	addw	a3,a5,a4
   12f48:	77c2                	ld	a5,48(sp)
   12f4a:	1ef05c63          	blez	a5,13142 <_vfprintf_r+0x1a9e>
   12f4e:	400dfe13          	andi	t3,s11,1024
   12f52:	120e1e63          	bnez	t3,1308e <_vfprintf_r+0x19ea>
   12f56:	fff6c813          	not	a6,a3
   12f5a:	43f85813          	srai	a6,a6,0x3f
   12f5e:	0106f833          	and	a6,a3,a6
   12f62:	00080c1b          	sext.w	s8,a6
   12f66:	8da6                	mv	s11,s1
   12f68:	bdd5                	j	12e5c <_vfprintf_r+0x17b8>
   12f6a:	77c2                	ld	a5,48(sp)
   12f6c:	001df713          	andi	a4,s11,1
   12f70:	00eb6733          	or	a4,s6,a4
   12f74:	20f05263          	blez	a5,13178 <_vfprintf_r+0x1ad4>
   12f78:	1a071e63          	bnez	a4,13134 <_vfprintf_r+0x1a90>
   12f7c:	76c2                	ld	a3,48(sp)
   12f7e:	06600313          	li	t1,102
   12f82:	b7f1                	j	12f4e <_vfprintf_r+0x18aa>
   12f84:	68e5                	lui	a7,0x19
   12f86:	55c1                	li	a1,-16
   12f88:	40e00b3b          	negw	s6,a4
   12f8c:	23888893          	addi	a7,a7,568 # 19238 <zeroes.0>
   12f90:	04b75263          	bge	a4,a1,12fd4 <_vfprintf_r+0x1930>
   12f94:	f84e                	sd	s3,48(sp)
   12f96:	4cc1                	li	s9,16
   12f98:	449d                	li	s1,7
   12f9a:	89c6                	mv	s3,a7
   12f9c:	a021                	j	12fa4 <_vfprintf_r+0x1900>
   12f9e:	3b41                	addiw	s6,s6,-16
   12fa0:	036cd863          	bge	s9,s6,12fd0 <_vfprintf_r+0x192c>
   12fa4:	2685                	addiw	a3,a3,1
   12fa6:	0641                	addi	a2,a2,16
   12fa8:	01343023          	sd	s3,0(s0)
   12fac:	01943423          	sd	s9,8(s0)
   12fb0:	f9b2                	sd	a2,240(sp)
   12fb2:	d5b6                	sw	a3,232(sp)
   12fb4:	0441                	addi	s0,s0,16
   12fb6:	fed4d4e3          	bge	s1,a3,12f9e <_vfprintf_r+0x18fa>
   12fba:	6522                	ld	a0,8(sp)
   12fbc:	1190                	addi	a2,sp,224
   12fbe:	85ca                	mv	a1,s2
   12fc0:	2ce000ef          	jal	1328e <__sprint_r>
   12fc4:	b4051963          	bnez	a0,12316 <_vfprintf_r+0xc72>
   12fc8:	764e                	ld	a2,240(sp)
   12fca:	56ae                	lw	a3,232(sp)
   12fcc:	8452                	mv	s0,s4
   12fce:	bfc1                	j	12f9e <_vfprintf_r+0x18fa>
   12fd0:	88ce                	mv	a7,s3
   12fd2:	79c2                	ld	s3,48(sp)
   12fd4:	2685                	addiw	a3,a3,1
   12fd6:	965a                	add	a2,a2,s6
   12fd8:	01143023          	sd	a7,0(s0)
   12fdc:	01643423          	sd	s6,8(s0)
   12fe0:	f9b2                	sd	a2,240(sp)
   12fe2:	d5b6                	sw	a3,232(sp)
   12fe4:	471d                	li	a4,7
   12fe6:	90d751e3          	bge	a4,a3,128e8 <_vfprintf_r+0x1244>
   12fea:	6522                	ld	a0,8(sp)
   12fec:	1190                	addi	a2,sp,224
   12fee:	85ca                	mv	a1,s2
   12ff0:	29e000ef          	jal	1328e <__sprint_r>
   12ff4:	b2051163          	bnez	a0,12316 <_vfprintf_r+0xc72>
   12ff8:	764e                	ld	a2,240(sp)
   12ffa:	56ae                	lw	a3,232(sp)
   12ffc:	8452                	mv	s0,s4
   12ffe:	b2e5                	j	129e6 <_vfprintf_r+0x1342>
   13000:	001b071b          	addiw	a4,s6,1
   13004:	4689                	li	a3,2
   13006:	b359                	j	12d8c <_vfprintf_r+0x16e8>
   13008:	0c210693          	addi	a3,sp,194
   1300c:	e619                	bnez	a2,1301a <_vfprintf_r+0x1976>
   1300e:	03000693          	li	a3,48
   13012:	0cd10123          	sb	a3,194(sp)
   13016:	0c310693          	addi	a3,sp,195
   1301a:	139c                	addi	a5,sp,480
   1301c:	40f68633          	sub	a2,a3,a5
   13020:	0307071b          	addiw	a4,a4,48
   13024:	1216079b          	addiw	a5,a2,289
   13028:	00e68023          	sb	a4,0(a3)
   1302c:	f8be                	sd	a5,112(sp)
   1302e:	cfffe06f          	j	11d2c <_vfprintf_r+0x688>
   13032:	001df613          	andi	a2,s11,1
   13036:	e219                	bnez	a2,1303c <_vfprintf_r+0x1998>
   13038:	d0ffe06f          	j	11d46 <_vfprintf_r+0x6a2>
   1303c:	d05fe06f          	j	11d40 <_vfprintf_r+0x69c>
   13040:	ec02                	sd	zero,24(sp)
   13042:	4b19                	li	s6,6
   13044:	aa3fe06f          	j	11ae6 <_vfprintf_r+0x442>
   13048:	f03a                	sd	a4,32(sp)
   1304a:	aeaff06f          	j	12334 <_vfprintf_r+0xc90>
   1304e:	c31c                	sw	a5,0(a4)
   13050:	85aff06f          	j	120aa <_vfprintf_r+0xa06>
   13054:	000b0463          	beqz	s6,1305c <_vfprintf_r+0x19b8>
   13058:	a8ffe06f          	j	11ae6 <_vfprintf_r+0x442>
   1305c:	4b05                	li	s6,1
   1305e:	a89fe06f          	j	11ae6 <_vfprintf_r+0x442>
   13062:	7542                	ld	a0,48(sp)
   13064:	4601                	li	a2,0
   13066:	4681                	li	a3,0
   13068:	85e6                	mv	a1,s9
   1306a:	e4c2                	sd	a6,72(sp)
   1306c:	e09a                	sd	t1,64(sp)
   1306e:	fc3a                	sd	a4,56(sp)
   13070:	345040ef          	jal	17bb4 <__eqtf2>
   13074:	7762                	ld	a4,56(sp)
   13076:	6306                	ld	t1,64(sp)
   13078:	6826                	ld	a6,72(sp)
   1307a:	e57d                	bnez	a0,13168 <_vfprintf_r+0x1ac4>
   1307c:	57ea                	lw	a5,184(sp)
   1307e:	983e                	add	a6,a6,a5
   13080:	f83e                	sd	a5,48(sp)
   13082:	41a807bb          	subw	a5,a6,s10
   13086:	fc3e                	sd	a5,56(sp)
   13088:	b359                	j	12e0e <_vfprintf_r+0x176a>
   1308a:	06700313          	li	t1,103
   1308e:	678a                	ld	a5,128(sp)
   13090:	0ff00613          	li	a2,255
   13094:	0007c703          	lbu	a4,0(a5)
   13098:	14c70463          	beq	a4,a2,131e0 <_vfprintf_r+0x1b3c>
   1309c:	863e                	mv	a2,a5
   1309e:	77c2                	ld	a5,48(sp)
   130a0:	4881                	li	a7,0
   130a2:	4801                	li	a6,0
   130a4:	0ff00593          	li	a1,255
   130a8:	0007051b          	sext.w	a0,a4
   130ac:	00f75a63          	bge	a4,a5,130c0 <_vfprintf_r+0x1a1c>
   130b0:	00164703          	lbu	a4,1(a2)
   130b4:	9f89                	subw	a5,a5,a0
   130b6:	cb1d                	beqz	a4,130ec <_vfprintf_r+0x1a48>
   130b8:	2805                	addiw	a6,a6,1
   130ba:	0605                	addi	a2,a2,1
   130bc:	feb716e3          	bne	a4,a1,130a8 <_vfprintf_r+0x1a04>
   130c0:	e132                	sd	a2,128(sp)
   130c2:	e0c2                	sd	a6,64(sp)
   130c4:	e4c6                	sd	a7,72(sp)
   130c6:	f83e                	sd	a5,48(sp)
   130c8:	67a6                	ld	a5,72(sp)
   130ca:	6706                	ld	a4,64(sp)
   130cc:	8da6                	mv	s11,s1
   130ce:	9f3d                	addw	a4,a4,a5
   130d0:	67aa                	ld	a5,136(sp)
   130d2:	02f7073b          	mulw	a4,a4,a5
   130d6:	9f35                	addw	a4,a4,a3
   130d8:	0007069b          	sext.w	a3,a4
   130dc:	fff6c613          	not	a2,a3
   130e0:	967d                	srai	a2,a2,0x3f
   130e2:	8f71                	and	a4,a4,a2
   130e4:	00070c1b          	sext.w	s8,a4
   130e8:	c7ffe06f          	j	11d66 <_vfprintf_r+0x6c2>
   130ec:	00064703          	lbu	a4,0(a2)
   130f0:	2885                	addiw	a7,a7,1
   130f2:	b7e9                	j	130bc <_vfprintf_r+0x1a18>
   130f4:	684a                	ld	a6,144(sp)
   130f6:	8962                	mv	s2,s8
   130f8:	8c4e                	mv	s8,s3
   130fa:	010d06bb          	addw	a3,s10,a6
   130fe:	418686bb          	subw	a3,a3,s8
   13102:	02069613          	slli	a2,a3,0x20
   13106:	6306                	ld	t1,64(sp)
   13108:	6ba6                	ld	s7,72(sp)
   1310a:	7446                	ld	s0,112(sp)
   1310c:	79e2                	ld	s3,56(sp)
   1310e:	00065463          	bgez	a2,13116 <_vfprintf_r+0x1a72>
   13112:	b6dfe06f          	j	11c7e <_vfprintf_r+0x5da>
   13116:	2685                	addiw	a3,a3,1
   13118:	96e2                	add	a3,a3,s8
   1311a:	03000613          	li	a2,48
   1311e:	0c05                	addi	s8,s8,1
   13120:	fecc0fa3          	sb	a2,-1(s8)
   13124:	ff869de3          	bne	a3,s8,1311e <_vfprintf_r+0x1a7a>
   13128:	b59fe06f          	j	11c80 <_vfprintf_r+0x5dc>
   1312c:	65e2                	ld	a1,24(sp)
   1312e:	894e                	mv	s2,s3
   13130:	9e8ff06f          	j	12318 <_vfprintf_r+0xc74>
   13134:	6746                	ld	a4,80(sp)
   13136:	06600313          	li	t1,102
   1313a:	016706bb          	addw	a3,a4,s6
   1313e:	9ebd                	addw	a3,a3,a5
   13140:	b539                	j	12f4e <_vfprintf_r+0x18aa>
   13142:	40f6873b          	subw	a4,a3,a5
   13146:	2705                	addiw	a4,a4,1
   13148:	0007069b          	sext.w	a3,a4
   1314c:	fff6c613          	not	a2,a3
   13150:	967d                	srai	a2,a2,0x3f
   13152:	8f71                	and	a4,a4,a2
   13154:	00070c1b          	sext.w	s8,a4
   13158:	8da6                	mv	s11,s1
   1315a:	b309                	j	12e5c <_vfprintf_r+0x17b8>
   1315c:	6765                	lui	a4,0x19
   1315e:	f3870793          	addi	a5,a4,-200 # 18f38 <__clzdi2+0x1b6>
   13162:	f83e                	sd	a5,48(sp)
   13164:	a1bfe06f          	j	11b7e <_vfprintf_r+0x4da>
   13168:	4685                	li	a3,1
   1316a:	9e99                	subw	a3,a3,a4
   1316c:	dd36                	sw	a3,184(sp)
   1316e:	b9a9                	j	12dc8 <_vfprintf_r+0x1724>
   13170:	07000693          	li	a3,112
   13174:	b39fe06f          	j	11cac <_vfprintf_r+0x608>
   13178:	e719                	bnez	a4,13186 <_vfprintf_r+0x1ae2>
   1317a:	8da6                	mv	s11,s1
   1317c:	4c05                	li	s8,1
   1317e:	06600313          	li	t1,102
   13182:	4685                	li	a3,1
   13184:	b9e1                	j	12e5c <_vfprintf_r+0x17b8>
   13186:	67c6                	ld	a5,80(sp)
   13188:	8da6                	mv	s11,s1
   1318a:	06600313          	li	t1,102
   1318e:	0017871b          	addiw	a4,a5,1
   13192:	0167073b          	addw	a4,a4,s6
   13196:	0007069b          	sext.w	a3,a4
   1319a:	fff6c613          	not	a2,a3
   1319e:	967d                	srai	a2,a2,0x3f
   131a0:	8f71                	and	a4,a4,a2
   131a2:	00070c1b          	sext.w	s8,a4
   131a6:	b95d                	j	12e5c <_vfprintf_r+0x17b8>
   131a8:	4789                	li	a5,2
   131aa:	f8be                	sd	a5,112(sp)
   131ac:	b81fe06f          	j	11d2c <_vfprintf_r+0x688>
   131b0:	7682                	ld	a3,32(sp)
   131b2:	429c                	lw	a5,0(a3)
   131b4:	06a1                	addi	a3,a3,8
   131b6:	00078b1b          	sext.w	s6,a5
   131ba:	0007d363          	bgez	a5,131c0 <_vfprintf_r+0x1b1c>
   131be:	5b7d                	li	s6,-1
   131c0:	0019c303          	lbu	t1,1(s3)
   131c4:	f036                	sd	a3,32(sp)
   131c6:	89ba                	mv	s3,a4
   131c8:	e0cfe06f          	j	117d4 <_vfprintf_r+0x130>
   131cc:	875a                	mv	a4,s6
   131ce:	bef1                	j	12daa <_vfprintf_r+0x1706>
   131d0:	01095783          	lhu	a5,16(s2)
   131d4:	0407e793          	ori	a5,a5,64
   131d8:	00f91823          	sh	a5,16(s2)
   131dc:	f44fe06f          	j	11920 <_vfprintf_r+0x27c>
   131e0:	e482                	sd	zero,72(sp)
   131e2:	e082                	sd	zero,64(sp)
   131e4:	b5d5                	j	130c8 <_vfprintf_r+0x1a24>

00000000000131e6 <vfprintf>:
   131e6:	87aa                	mv	a5,a0
   131e8:	8781b503          	ld	a0,-1928(gp) # 1b2e8 <_impure_ptr>
   131ec:	86b2                	mv	a3,a2
   131ee:	862e                	mv	a2,a1
   131f0:	85be                	mv	a1,a5
   131f2:	cb2fe06f          	j	116a4 <_vfprintf_r>

00000000000131f6 <__sbprintf>:
   131f6:	b3010113          	addi	sp,sp,-1232
   131fa:	0125d703          	lhu	a4,18(a1)
   131fe:	0105d783          	lhu	a5,16(a1)
   13202:	4c813023          	sd	s0,1216(sp)
   13206:	842e                	mv	s0,a1
   13208:	65c1                	lui	a1,0x10
   1320a:	35f5                	addiw	a1,a1,-3 # fffd <exit-0xeb>
   1320c:	0ac42e03          	lw	t3,172(s0)
   13210:	03043303          	ld	t1,48(s0)
   13214:	04043883          	ld	a7,64(s0)
   13218:	0107171b          	slliw	a4,a4,0x10
   1321c:	8fed                	and	a5,a5,a1
   1321e:	8fd9                	or	a5,a5,a4
   13220:	40000813          	li	a6,1024
   13224:	c83e                	sw	a5,16(sp)
   13226:	858a                	mv	a1,sp
   13228:	191c                	addi	a5,sp,176
   1322a:	4a913c23          	sd	s1,1208(sp)
   1322e:	4b213823          	sd	s2,1200(sp)
   13232:	4c113423          	sd	ra,1224(sp)
   13236:	892a                	mv	s2,a0
   13238:	d772                	sw	t3,172(sp)
   1323a:	f81a                	sd	t1,48(sp)
   1323c:	e0c6                	sd	a7,64(sp)
   1323e:	e03e                	sd	a5,0(sp)
   13240:	ec3e                	sd	a5,24(sp)
   13242:	c642                	sw	a6,12(sp)
   13244:	d042                	sw	a6,32(sp)
   13246:	d402                	sw	zero,40(sp)
   13248:	c5cfe0ef          	jal	116a4 <_vfprintf_r>
   1324c:	84aa                	mv	s1,a0
   1324e:	02055963          	bgez	a0,13280 <__sbprintf+0x8a>
   13252:	01015783          	lhu	a5,16(sp)
   13256:	0407f793          	andi	a5,a5,64
   1325a:	c799                	beqz	a5,13268 <__sbprintf+0x72>
   1325c:	01045783          	lhu	a5,16(s0)
   13260:	0407e793          	ori	a5,a5,64
   13264:	00f41823          	sh	a5,16(s0)
   13268:	4c813083          	ld	ra,1224(sp)
   1326c:	4c013403          	ld	s0,1216(sp)
   13270:	4b013903          	ld	s2,1200(sp)
   13274:	8526                	mv	a0,s1
   13276:	4b813483          	ld	s1,1208(sp)
   1327a:	4d010113          	addi	sp,sp,1232
   1327e:	8082                	ret
   13280:	858a                	mv	a1,sp
   13282:	854a                	mv	a0,s2
   13284:	280000ef          	jal	13504 <_fflush_r>
   13288:	d569                	beqz	a0,13252 <__sbprintf+0x5c>
   1328a:	54fd                	li	s1,-1
   1328c:	b7d9                	j	13252 <__sbprintf+0x5c>

000000000001328e <__sprint_r>:
   1328e:	6a1c                	ld	a5,16(a2)
   13290:	1141                	addi	sp,sp,-16
   13292:	e022                	sd	s0,0(sp)
   13294:	e406                	sd	ra,8(sp)
   13296:	8432                	mv	s0,a2
   13298:	eb81                	bnez	a5,132a8 <__sprint_r+0x1a>
   1329a:	60a2                	ld	ra,8(sp)
   1329c:	00042423          	sw	zero,8(s0)
   132a0:	6402                	ld	s0,0(sp)
   132a2:	4501                	li	a0,0
   132a4:	0141                	addi	sp,sp,16
   132a6:	8082                	ret
   132a8:	2e2000ef          	jal	1358a <__sfvwrite_r>
   132ac:	60a2                	ld	ra,8(sp)
   132ae:	00043823          	sd	zero,16(s0)
   132b2:	00042423          	sw	zero,8(s0)
   132b6:	6402                	ld	s0,0(sp)
   132b8:	0141                	addi	sp,sp,16
   132ba:	8082                	ret

00000000000132bc <_fclose_r>:
   132bc:	1101                	addi	sp,sp,-32
   132be:	ec06                	sd	ra,24(sp)
   132c0:	e04a                	sd	s2,0(sp)
   132c2:	cd89                	beqz	a1,132dc <_fclose_r+0x20>
   132c4:	e822                	sd	s0,16(sp)
   132c6:	e426                	sd	s1,8(sp)
   132c8:	842e                	mv	s0,a1
   132ca:	84aa                	mv	s1,a0
   132cc:	c119                	beqz	a0,132d2 <_fclose_r+0x16>
   132ce:	653c                	ld	a5,72(a0)
   132d0:	c7d9                	beqz	a5,1335e <_fclose_r+0xa2>
   132d2:	01041783          	lh	a5,16(s0)
   132d6:	eb89                	bnez	a5,132e8 <_fclose_r+0x2c>
   132d8:	6442                	ld	s0,16(sp)
   132da:	64a2                	ld	s1,8(sp)
   132dc:	60e2                	ld	ra,24(sp)
   132de:	4901                	li	s2,0
   132e0:	854a                	mv	a0,s2
   132e2:	6902                	ld	s2,0(sp)
   132e4:	6105                	addi	sp,sp,32
   132e6:	8082                	ret
   132e8:	85a2                	mv	a1,s0
   132ea:	8526                	mv	a0,s1
   132ec:	080000ef          	jal	1336c <__sflush_r>
   132f0:	683c                	ld	a5,80(s0)
   132f2:	892a                	mv	s2,a0
   132f4:	c791                	beqz	a5,13300 <_fclose_r+0x44>
   132f6:	780c                	ld	a1,48(s0)
   132f8:	8526                	mv	a0,s1
   132fa:	9782                	jalr	a5
   132fc:	04054663          	bltz	a0,13348 <_fclose_r+0x8c>
   13300:	01045783          	lhu	a5,16(s0)
   13304:	0807f793          	andi	a5,a5,128
   13308:	e7b1                	bnez	a5,13354 <_fclose_r+0x98>
   1330a:	6c2c                	ld	a1,88(s0)
   1330c:	c991                	beqz	a1,13320 <_fclose_r+0x64>
   1330e:	07440793          	addi	a5,s0,116
   13312:	00f58563          	beq	a1,a5,1331c <_fclose_r+0x60>
   13316:	8526                	mv	a0,s1
   13318:	b3bfd0ef          	jal	10e52 <_free_r>
   1331c:	04043c23          	sd	zero,88(s0)
   13320:	7c2c                	ld	a1,120(s0)
   13322:	c591                	beqz	a1,1332e <_fclose_r+0x72>
   13324:	8526                	mv	a0,s1
   13326:	b2dfd0ef          	jal	10e52 <_free_r>
   1332a:	06043c23          	sd	zero,120(s0)
   1332e:	be2fd0ef          	jal	10710 <__sfp_lock_acquire>
   13332:	00041823          	sh	zero,16(s0)
   13336:	bdcfd0ef          	jal	10712 <__sfp_lock_release>
   1333a:	60e2                	ld	ra,24(sp)
   1333c:	6442                	ld	s0,16(sp)
   1333e:	64a2                	ld	s1,8(sp)
   13340:	854a                	mv	a0,s2
   13342:	6902                	ld	s2,0(sp)
   13344:	6105                	addi	sp,sp,32
   13346:	8082                	ret
   13348:	01045783          	lhu	a5,16(s0)
   1334c:	597d                	li	s2,-1
   1334e:	0807f793          	andi	a5,a5,128
   13352:	dfc5                	beqz	a5,1330a <_fclose_r+0x4e>
   13354:	6c0c                	ld	a1,24(s0)
   13356:	8526                	mv	a0,s1
   13358:	afbfd0ef          	jal	10e52 <_free_r>
   1335c:	b77d                	j	1330a <_fclose_r+0x4e>
   1335e:	b9cfd0ef          	jal	106fa <__sinit>
   13362:	bf85                	j	132d2 <_fclose_r+0x16>

0000000000013364 <fclose>:
   13364:	85aa                	mv	a1,a0
   13366:	8781b503          	ld	a0,-1928(gp) # 1b2e8 <_impure_ptr>
   1336a:	bf89                	j	132bc <_fclose_r>

000000000001336c <__sflush_r>:
   1336c:	01059703          	lh	a4,16(a1)
   13370:	7179                	addi	sp,sp,-48
   13372:	f022                	sd	s0,32(sp)
   13374:	e44e                	sd	s3,8(sp)
   13376:	f406                	sd	ra,40(sp)
   13378:	00877793          	andi	a5,a4,8
   1337c:	842e                	mv	s0,a1
   1337e:	89aa                	mv	s3,a0
   13380:	e7f1                	bnez	a5,1344c <__sflush_r+0xe0>
   13382:	6785                	lui	a5,0x1
   13384:	80078793          	addi	a5,a5,-2048 # 800 <exit-0xf8e8>
   13388:	4594                	lw	a3,8(a1)
   1338a:	8fd9                	or	a5,a5,a4
   1338c:	00f59823          	sh	a5,16(a1)
   13390:	10d05763          	blez	a3,1349e <__sflush_r+0x132>
   13394:	04843803          	ld	a6,72(s0)
   13398:	0a080463          	beqz	a6,13440 <__sflush_r+0xd4>
   1339c:	ec26                	sd	s1,24(sp)
   1339e:	03371693          	slli	a3,a4,0x33
   133a2:	0009a483          	lw	s1,0(s3)
   133a6:	0009a023          	sw	zero,0(s3)
   133aa:	780c                	ld	a1,48(s0)
   133ac:	1006c063          	bltz	a3,134ac <__sflush_r+0x140>
   133b0:	4601                	li	a2,0
   133b2:	4685                	li	a3,1
   133b4:	854e                	mv	a0,s3
   133b6:	9802                	jalr	a6
   133b8:	57fd                	li	a5,-1
   133ba:	862a                	mv	a2,a0
   133bc:	12f50163          	beq	a0,a5,134de <__sflush_r+0x172>
   133c0:	01041783          	lh	a5,16(s0)
   133c4:	04843803          	ld	a6,72(s0)
   133c8:	780c                	ld	a1,48(s0)
   133ca:	8b91                	andi	a5,a5,4
   133cc:	c799                	beqz	a5,133da <__sflush_r+0x6e>
   133ce:	4418                	lw	a4,8(s0)
   133d0:	6c3c                	ld	a5,88(s0)
   133d2:	8e19                	sub	a2,a2,a4
   133d4:	c399                	beqz	a5,133da <__sflush_r+0x6e>
   133d6:	583c                	lw	a5,112(s0)
   133d8:	8e1d                	sub	a2,a2,a5
   133da:	4681                	li	a3,0
   133dc:	854e                	mv	a0,s3
   133de:	9802                	jalr	a6
   133e0:	57fd                	li	a5,-1
   133e2:	0cf51763          	bne	a0,a5,134b0 <__sflush_r+0x144>
   133e6:	0009a683          	lw	a3,0(s3)
   133ea:	47f5                	li	a5,29
   133ec:	01041703          	lh	a4,16(s0)
   133f0:	0006861b          	sext.w	a2,a3
   133f4:	10d7e163          	bltu	a5,a3,134f6 <__sflush_r+0x18a>
   133f8:	204007b7          	lui	a5,0x20400
   133fc:	0785                	addi	a5,a5,1 # 20400001 <__BSS_END__+0x203cc739>
   133fe:	00c7d7b3          	srl	a5,a5,a2
   13402:	8b85                	andi	a5,a5,1
   13404:	cbed                	beqz	a5,134f6 <__sflush_r+0x18a>
   13406:	6c10                	ld	a2,24(s0)
   13408:	77fd                	lui	a5,0xfffff
   1340a:	7ff78793          	addi	a5,a5,2047 # fffffffffffff7ff <__BSS_END__+0xfffffffffffcbf37>
   1340e:	8ff9                	and	a5,a5,a4
   13410:	00f41823          	sh	a5,16(s0)
   13414:	00042423          	sw	zero,8(s0)
   13418:	e010                	sd	a2,0(s0)
   1341a:	03371793          	slli	a5,a4,0x33
   1341e:	0007d363          	bgez	a5,13424 <__sflush_r+0xb8>
   13422:	c6dd                	beqz	a3,134d0 <__sflush_r+0x164>
   13424:	6c2c                	ld	a1,88(s0)
   13426:	0099a023          	sw	s1,0(s3)
   1342a:	c9c5                	beqz	a1,134da <__sflush_r+0x16e>
   1342c:	07440793          	addi	a5,s0,116
   13430:	00f58563          	beq	a1,a5,1343a <__sflush_r+0xce>
   13434:	854e                	mv	a0,s3
   13436:	a1dfd0ef          	jal	10e52 <_free_r>
   1343a:	64e2                	ld	s1,24(sp)
   1343c:	04043c23          	sd	zero,88(s0)
   13440:	4501                	li	a0,0
   13442:	70a2                	ld	ra,40(sp)
   13444:	7402                	ld	s0,32(sp)
   13446:	69a2                	ld	s3,8(sp)
   13448:	6145                	addi	sp,sp,48
   1344a:	8082                	ret
   1344c:	e84a                	sd	s2,16(sp)
   1344e:	0185b903          	ld	s2,24(a1)
   13452:	04090b63          	beqz	s2,134a8 <__sflush_r+0x13c>
   13456:	ec26                	sd	s1,24(sp)
   13458:	6184                	ld	s1,0(a1)
   1345a:	8b0d                	andi	a4,a4,3
   1345c:	0125b023          	sd	s2,0(a1)
   13460:	412484bb          	subw	s1,s1,s2
   13464:	4781                	li	a5,0
   13466:	e311                	bnez	a4,1346a <__sflush_r+0xfe>
   13468:	519c                	lw	a5,32(a1)
   1346a:	c45c                	sw	a5,12(s0)
   1346c:	00904663          	bgtz	s1,13478 <__sflush_r+0x10c>
   13470:	a81d                	j	134a6 <__sflush_r+0x13a>
   13472:	992a                	add	s2,s2,a0
   13474:	02905963          	blez	s1,134a6 <__sflush_r+0x13a>
   13478:	603c                	ld	a5,64(s0)
   1347a:	780c                	ld	a1,48(s0)
   1347c:	86a6                	mv	a3,s1
   1347e:	864a                	mv	a2,s2
   13480:	854e                	mv	a0,s3
   13482:	9782                	jalr	a5
   13484:	9c89                	subw	s1,s1,a0
   13486:	fea046e3          	bgtz	a0,13472 <__sflush_r+0x106>
   1348a:	01041703          	lh	a4,16(s0)
   1348e:	6942                	ld	s2,16(sp)
   13490:	04076713          	ori	a4,a4,64
   13494:	64e2                	ld	s1,24(sp)
   13496:	00e41823          	sh	a4,16(s0)
   1349a:	557d                	li	a0,-1
   1349c:	b75d                	j	13442 <__sflush_r+0xd6>
   1349e:	59b4                	lw	a3,112(a1)
   134a0:	eed04ae3          	bgtz	a3,13394 <__sflush_r+0x28>
   134a4:	bf71                	j	13440 <__sflush_r+0xd4>
   134a6:	64e2                	ld	s1,24(sp)
   134a8:	6942                	ld	s2,16(sp)
   134aa:	bf59                	j	13440 <__sflush_r+0xd4>
   134ac:	6850                	ld	a2,144(s0)
   134ae:	bf31                	j	133ca <__sflush_r+0x5e>
   134b0:	01041703          	lh	a4,16(s0)
   134b4:	6c14                	ld	a3,24(s0)
   134b6:	77fd                	lui	a5,0xfffff
   134b8:	7ff78793          	addi	a5,a5,2047 # fffffffffffff7ff <__BSS_END__+0xfffffffffffcbf37>
   134bc:	8ff9                	and	a5,a5,a4
   134be:	00f41823          	sh	a5,16(s0)
   134c2:	00042423          	sw	zero,8(s0)
   134c6:	e014                	sd	a3,0(s0)
   134c8:	03371793          	slli	a5,a4,0x33
   134cc:	f407dce3          	bgez	a5,13424 <__sflush_r+0xb8>
   134d0:	6c2c                	ld	a1,88(s0)
   134d2:	e848                	sd	a0,144(s0)
   134d4:	0099a023          	sw	s1,0(s3)
   134d8:	f9b1                	bnez	a1,1342c <__sflush_r+0xc0>
   134da:	64e2                	ld	s1,24(sp)
   134dc:	b795                	j	13440 <__sflush_r+0xd4>
   134de:	0009a783          	lw	a5,0(s3)
   134e2:	ec078fe3          	beqz	a5,133c0 <__sflush_r+0x54>
   134e6:	4775                	li	a4,29
   134e8:	00e78a63          	beq	a5,a4,134fc <__sflush_r+0x190>
   134ec:	4759                	li	a4,22
   134ee:	00e78763          	beq	a5,a4,134fc <__sflush_r+0x190>
   134f2:	01041703          	lh	a4,16(s0)
   134f6:	04076713          	ori	a4,a4,64
   134fa:	bf69                	j	13494 <__sflush_r+0x128>
   134fc:	0099a023          	sw	s1,0(s3)
   13500:	64e2                	ld	s1,24(sp)
   13502:	bf3d                	j	13440 <__sflush_r+0xd4>

0000000000013504 <_fflush_r>:
   13504:	1101                	addi	sp,sp,-32
   13506:	e822                	sd	s0,16(sp)
   13508:	ec06                	sd	ra,24(sp)
   1350a:	842a                	mv	s0,a0
   1350c:	c119                	beqz	a0,13512 <_fflush_r+0xe>
   1350e:	653c                	ld	a5,72(a0)
   13510:	cf91                	beqz	a5,1352c <_fflush_r+0x28>
   13512:	01059783          	lh	a5,16(a1)
   13516:	e791                	bnez	a5,13522 <_fflush_r+0x1e>
   13518:	60e2                	ld	ra,24(sp)
   1351a:	6442                	ld	s0,16(sp)
   1351c:	4501                	li	a0,0
   1351e:	6105                	addi	sp,sp,32
   13520:	8082                	ret
   13522:	8522                	mv	a0,s0
   13524:	6442                	ld	s0,16(sp)
   13526:	60e2                	ld	ra,24(sp)
   13528:	6105                	addi	sp,sp,32
   1352a:	b589                	j	1336c <__sflush_r>
   1352c:	e42e                	sd	a1,8(sp)
   1352e:	9ccfd0ef          	jal	106fa <__sinit>
   13532:	65a2                	ld	a1,8(sp)
   13534:	bff9                	j	13512 <_fflush_r+0xe>

0000000000013536 <fflush>:
   13536:	cd05                	beqz	a0,1356e <fflush+0x38>
   13538:	85aa                	mv	a1,a0
   1353a:	8781b503          	ld	a0,-1928(gp) # 1b2e8 <_impure_ptr>
   1353e:	c119                	beqz	a0,13544 <fflush+0xe>
   13540:	653c                	ld	a5,72(a0)
   13542:	c799                	beqz	a5,13550 <fflush+0x1a>
   13544:	01059783          	lh	a5,16(a1)
   13548:	e399                	bnez	a5,1354e <fflush+0x18>
   1354a:	4501                	li	a0,0
   1354c:	8082                	ret
   1354e:	bd39                	j	1336c <__sflush_r>
   13550:	1101                	addi	sp,sp,-32
   13552:	e42e                	sd	a1,8(sp)
   13554:	e02a                	sd	a0,0(sp)
   13556:	ec06                	sd	ra,24(sp)
   13558:	9a2fd0ef          	jal	106fa <__sinit>
   1355c:	65a2                	ld	a1,8(sp)
   1355e:	6502                	ld	a0,0(sp)
   13560:	01059783          	lh	a5,16(a1)
   13564:	e385                	bnez	a5,13584 <fflush+0x4e>
   13566:	60e2                	ld	ra,24(sp)
   13568:	4501                	li	a0,0
   1356a:	6105                	addi	sp,sp,32
   1356c:	8082                	ret
   1356e:	6669                	lui	a2,0x1a
   13570:	65cd                	lui	a1,0x13
   13572:	6569                	lui	a0,0x1a
   13574:	74860613          	addi	a2,a2,1864 # 1a748 <__sglue>
   13578:	50458593          	addi	a1,a1,1284 # 13504 <_fflush_r>
   1357c:	76050513          	addi	a0,a0,1888 # 1a760 <_impure_data>
   13580:	9b4fd06f          	j	10734 <_fwalk_sglue>
   13584:	60e2                	ld	ra,24(sp)
   13586:	6105                	addi	sp,sp,32
   13588:	b3d5                	j	1336c <__sflush_r>

000000000001358a <__sfvwrite_r>:
   1358a:	6a1c                	ld	a5,16(a2)
   1358c:	1c078b63          	beqz	a5,13762 <__sfvwrite_r+0x1d8>
   13590:	01059703          	lh	a4,16(a1)
   13594:	711d                	addi	sp,sp,-96
   13596:	e8a2                	sd	s0,80(sp)
   13598:	f456                	sd	s5,40(sp)
   1359a:	ec5e                	sd	s7,24(sp)
   1359c:	ec86                	sd	ra,88(sp)
   1359e:	00877793          	andi	a5,a4,8
   135a2:	8bb2                	mv	s7,a2
   135a4:	8aaa                	mv	s5,a0
   135a6:	842e                	mv	s0,a1
   135a8:	c7b5                	beqz	a5,13614 <__sfvwrite_r+0x8a>
   135aa:	6d9c                	ld	a5,24(a1)
   135ac:	c7a5                	beqz	a5,13614 <__sfvwrite_r+0x8a>
   135ae:	e4a6                	sd	s1,72(sp)
   135b0:	e0ca                	sd	s2,64(sp)
   135b2:	fc4e                	sd	s3,56(sp)
   135b4:	f852                	sd	s4,48(sp)
   135b6:	00277793          	andi	a5,a4,2
   135ba:	000bb483          	ld	s1,0(s7)
   135be:	cfa5                	beqz	a5,13636 <__sfvwrite_r+0xac>
   135c0:	603c                	ld	a5,64(s0)
   135c2:	780c                	ld	a1,48(s0)
   135c4:	80000a37          	lui	s4,0x80000
   135c8:	4981                	li	s3,0
   135ca:	4901                	li	s2,0
   135cc:	c00a4a13          	xori	s4,s4,-1024
   135d0:	864e                	mv	a2,s3
   135d2:	8556                	mv	a0,s5
   135d4:	02090a63          	beqz	s2,13608 <__sfvwrite_r+0x7e>
   135d8:	86ca                	mv	a3,s2
   135da:	012a7363          	bgeu	s4,s2,135e0 <__sfvwrite_r+0x56>
   135de:	86d2                	mv	a3,s4
   135e0:	2681                	sext.w	a3,a3
   135e2:	9782                	jalr	a5
   135e4:	2ea05863          	blez	a0,138d4 <__sfvwrite_r+0x34a>
   135e8:	010bb783          	ld	a5,16(s7)
   135ec:	99aa                	add	s3,s3,a0
   135ee:	40a90933          	sub	s2,s2,a0
   135f2:	8f89                	sub	a5,a5,a0
   135f4:	00fbb823          	sd	a5,16(s7)
   135f8:	12078163          	beqz	a5,1371a <__sfvwrite_r+0x190>
   135fc:	603c                	ld	a5,64(s0)
   135fe:	780c                	ld	a1,48(s0)
   13600:	864e                	mv	a2,s3
   13602:	8556                	mv	a0,s5
   13604:	fc091ae3          	bnez	s2,135d8 <__sfvwrite_r+0x4e>
   13608:	0004b983          	ld	s3,0(s1)
   1360c:	0084b903          	ld	s2,8(s1)
   13610:	04c1                	addi	s1,s1,16
   13612:	bf7d                	j	135d0 <__sfvwrite_r+0x46>
   13614:	85a2                	mv	a1,s0
   13616:	8556                	mv	a0,s5
   13618:	2d4000ef          	jal	138ec <__swsetup_r>
   1361c:	12051c63          	bnez	a0,13754 <__sfvwrite_r+0x1ca>
   13620:	01041703          	lh	a4,16(s0)
   13624:	e4a6                	sd	s1,72(sp)
   13626:	e0ca                	sd	s2,64(sp)
   13628:	fc4e                	sd	s3,56(sp)
   1362a:	f852                	sd	s4,48(sp)
   1362c:	00277793          	andi	a5,a4,2
   13630:	000bb483          	ld	s1,0(s7)
   13634:	f7d1                	bnez	a5,135c0 <__sfvwrite_r+0x36>
   13636:	f05a                	sd	s6,32(sp)
   13638:	e862                	sd	s8,16(sp)
   1363a:	e466                	sd	s9,8(sp)
   1363c:	00177793          	andi	a5,a4,1
   13640:	ebad                	bnez	a5,136b2 <__sfvwrite_r+0x128>
   13642:	00c42a03          	lw	s4,12(s0)
   13646:	601c                	ld	a5,0(s0)
   13648:	80000b37          	lui	s6,0x80000
   1364c:	4c01                	li	s8,0
   1364e:	4901                	li	s2,0
   13650:	fffb4b13          	not	s6,s6
   13654:	853e                	mv	a0,a5
   13656:	04090863          	beqz	s2,136a6 <__sfvwrite_r+0x11c>
   1365a:	20077693          	andi	a3,a4,512
   1365e:	14068663          	beqz	a3,137aa <__sfvwrite_r+0x220>
   13662:	1b497563          	bgeu	s2,s4,1380c <__sfvwrite_r+0x282>
   13666:	8cca                	mv	s9,s2
   13668:	8a4a                	mv	s4,s2
   1366a:	8652                	mv	a2,s4
   1366c:	85e2                	mv	a1,s8
   1366e:	51a000ef          	jal	13b88 <memmove>
   13672:	4458                	lw	a4,12(s0)
   13674:	601c                	ld	a5,0(s0)
   13676:	89ca                	mv	s3,s2
   13678:	4197073b          	subw	a4,a4,s9
   1367c:	9a3e                	add	s4,s4,a5
   1367e:	c458                	sw	a4,12(s0)
   13680:	01443023          	sd	s4,0(s0)
   13684:	4901                	li	s2,0
   13686:	010bb783          	ld	a5,16(s7)
   1368a:	9c4e                	add	s8,s8,s3
   1368c:	413787b3          	sub	a5,a5,s3
   13690:	00fbb823          	sd	a5,16(s7)
   13694:	c3c1                	beqz	a5,13714 <__sfvwrite_r+0x18a>
   13696:	601c                	ld	a5,0(s0)
   13698:	01041703          	lh	a4,16(s0)
   1369c:	00c42a03          	lw	s4,12(s0)
   136a0:	853e                	mv	a0,a5
   136a2:	fa091ce3          	bnez	s2,1365a <__sfvwrite_r+0xd0>
   136a6:	0004bc03          	ld	s8,0(s1)
   136aa:	0084b903          	ld	s2,8(s1)
   136ae:	04c1                	addi	s1,s1,16
   136b0:	b755                	j	13654 <__sfvwrite_r+0xca>
   136b2:	4b01                	li	s6,0
   136b4:	4501                	li	a0,0
   136b6:	4c81                	li	s9,0
   136b8:	4c01                	li	s8,0
   136ba:	0a0c0663          	beqz	s8,13766 <__sfvwrite_r+0x1dc>
   136be:	cd45                	beqz	a0,13776 <__sfvwrite_r+0x1ec>
   136c0:	8a5a                	mv	s4,s6
   136c2:	016c7363          	bgeu	s8,s6,136c8 <__sfvwrite_r+0x13e>
   136c6:	8a62                	mv	s4,s8
   136c8:	6008                	ld	a0,0(s0)
   136ca:	6c18                	ld	a4,24(s0)
   136cc:	445c                	lw	a5,12(s0)
   136ce:	5014                	lw	a3,32(s0)
   136d0:	8952                	mv	s2,s4
   136d2:	00a77663          	bgeu	a4,a0,136de <__sfvwrite_r+0x154>
   136d6:	00d789bb          	addw	s3,a5,a3
   136da:	0b49c963          	blt	s3,s4,1378c <__sfvwrite_r+0x202>
   136de:	1ada4363          	blt	s4,a3,13884 <__sfvwrite_r+0x2fa>
   136e2:	603c                	ld	a5,64(s0)
   136e4:	780c                	ld	a1,48(s0)
   136e6:	8666                	mv	a2,s9
   136e8:	8556                	mv	a0,s5
   136ea:	9782                	jalr	a5
   136ec:	892a                	mv	s2,a0
   136ee:	04a05663          	blez	a0,1373a <__sfvwrite_r+0x1b0>
   136f2:	0005079b          	sext.w	a5,a0
   136f6:	40fb0b3b          	subw	s6,s6,a5
   136fa:	4505                	li	a0,1
   136fc:	020b0a63          	beqz	s6,13730 <__sfvwrite_r+0x1a6>
   13700:	010bb783          	ld	a5,16(s7)
   13704:	9cca                	add	s9,s9,s2
   13706:	412c0c33          	sub	s8,s8,s2
   1370a:	412787b3          	sub	a5,a5,s2
   1370e:	00fbb823          	sd	a5,16(s7)
   13712:	f7c5                	bnez	a5,136ba <__sfvwrite_r+0x130>
   13714:	7b02                	ld	s6,32(sp)
   13716:	6c42                	ld	s8,16(sp)
   13718:	6ca2                	ld	s9,8(sp)
   1371a:	60e6                	ld	ra,88(sp)
   1371c:	6446                	ld	s0,80(sp)
   1371e:	64a6                	ld	s1,72(sp)
   13720:	6906                	ld	s2,64(sp)
   13722:	79e2                	ld	s3,56(sp)
   13724:	7a42                	ld	s4,48(sp)
   13726:	7aa2                	ld	s5,40(sp)
   13728:	6be2                	ld	s7,24(sp)
   1372a:	4501                	li	a0,0
   1372c:	6125                	addi	sp,sp,96
   1372e:	8082                	ret
   13730:	85a2                	mv	a1,s0
   13732:	8556                	mv	a0,s5
   13734:	dd1ff0ef          	jal	13504 <_fflush_r>
   13738:	d561                	beqz	a0,13700 <__sfvwrite_r+0x176>
   1373a:	01041783          	lh	a5,16(s0)
   1373e:	7b02                	ld	s6,32(sp)
   13740:	6c42                	ld	s8,16(sp)
   13742:	6ca2                	ld	s9,8(sp)
   13744:	64a6                	ld	s1,72(sp)
   13746:	6906                	ld	s2,64(sp)
   13748:	79e2                	ld	s3,56(sp)
   1374a:	7a42                	ld	s4,48(sp)
   1374c:	0407e793          	ori	a5,a5,64
   13750:	00f41823          	sh	a5,16(s0)
   13754:	60e6                	ld	ra,88(sp)
   13756:	6446                	ld	s0,80(sp)
   13758:	7aa2                	ld	s5,40(sp)
   1375a:	6be2                	ld	s7,24(sp)
   1375c:	557d                	li	a0,-1
   1375e:	6125                	addi	sp,sp,96
   13760:	8082                	ret
   13762:	4501                	li	a0,0
   13764:	8082                	ret
   13766:	0084bc03          	ld	s8,8(s1)
   1376a:	87a6                	mv	a5,s1
   1376c:	04c1                	addi	s1,s1,16
   1376e:	fe0c0ce3          	beqz	s8,13766 <__sfvwrite_r+0x1dc>
   13772:	0007bc83          	ld	s9,0(a5)
   13776:	8662                	mv	a2,s8
   13778:	45a9                	li	a1,10
   1377a:	8566                	mv	a0,s9
   1377c:	24a000ef          	jal	139c6 <memchr>
   13780:	14050763          	beqz	a0,138ce <__sfvwrite_r+0x344>
   13784:	0505                	addi	a0,a0,1
   13786:	41950b3b          	subw	s6,a0,s9
   1378a:	bf1d                	j	136c0 <__sfvwrite_r+0x136>
   1378c:	85e6                	mv	a1,s9
   1378e:	864e                	mv	a2,s3
   13790:	3f8000ef          	jal	13b88 <memmove>
   13794:	601c                	ld	a5,0(s0)
   13796:	85a2                	mv	a1,s0
   13798:	8556                	mv	a0,s5
   1379a:	97ce                	add	a5,a5,s3
   1379c:	e01c                	sd	a5,0(s0)
   1379e:	d67ff0ef          	jal	13504 <_fflush_r>
   137a2:	fd41                	bnez	a0,1373a <__sfvwrite_r+0x1b0>
   137a4:	87ce                	mv	a5,s3
   137a6:	894e                	mv	s2,s3
   137a8:	b7b9                	j	136f6 <__sfvwrite_r+0x16c>
   137aa:	6c18                	ld	a4,24(s0)
   137ac:	02f76763          	bltu	a4,a5,137da <__sfvwrite_r+0x250>
   137b0:	5018                	lw	a4,32(s0)
   137b2:	02e96463          	bltu	s2,a4,137da <__sfvwrite_r+0x250>
   137b6:	86ca                	mv	a3,s2
   137b8:	012b7363          	bgeu	s6,s2,137be <__sfvwrite_r+0x234>
   137bc:	86da                	mv	a3,s6
   137be:	02e6e73b          	remw	a4,a3,a4
   137c2:	603c                	ld	a5,64(s0)
   137c4:	780c                	ld	a1,48(s0)
   137c6:	8662                	mv	a2,s8
   137c8:	8556                	mv	a0,s5
   137ca:	9e99                	subw	a3,a3,a4
   137cc:	9782                	jalr	a5
   137ce:	89aa                	mv	s3,a0
   137d0:	f6a055e3          	blez	a0,1373a <__sfvwrite_r+0x1b0>
   137d4:	41390933          	sub	s2,s2,s3
   137d8:	b57d                	j	13686 <__sfvwrite_r+0xfc>
   137da:	89d2                	mv	s3,s4
   137dc:	01497363          	bgeu	s2,s4,137e2 <__sfvwrite_r+0x258>
   137e0:	89ca                	mv	s3,s2
   137e2:	853e                	mv	a0,a5
   137e4:	864e                	mv	a2,s3
   137e6:	85e2                	mv	a1,s8
   137e8:	3a0000ef          	jal	13b88 <memmove>
   137ec:	4458                	lw	a4,12(s0)
   137ee:	601c                	ld	a5,0(s0)
   137f0:	413706bb          	subw	a3,a4,s3
   137f4:	97ce                	add	a5,a5,s3
   137f6:	c454                	sw	a3,12(s0)
   137f8:	e01c                	sd	a5,0(s0)
   137fa:	fee9                	bnez	a3,137d4 <__sfvwrite_r+0x24a>
   137fc:	85a2                	mv	a1,s0
   137fe:	8556                	mv	a0,s5
   13800:	d05ff0ef          	jal	13504 <_fflush_r>
   13804:	f91d                	bnez	a0,1373a <__sfvwrite_r+0x1b0>
   13806:	41390933          	sub	s2,s2,s3
   1380a:	bdb5                	j	13686 <__sfvwrite_r+0xfc>
   1380c:	48077693          	andi	a3,a4,1152
   13810:	cac1                	beqz	a3,138a0 <__sfvwrite_r+0x316>
   13812:	5010                	lw	a2,32(s0)
   13814:	6c0c                	ld	a1,24(s0)
   13816:	0016169b          	slliw	a3,a2,0x1
   1381a:	9eb1                	addw	a3,a3,a2
   1381c:	8f8d                	sub	a5,a5,a1
   1381e:	01f6d99b          	srliw	s3,a3,0x1f
   13822:	00078c9b          	sext.w	s9,a5
   13826:	00d989bb          	addw	s3,s3,a3
   1382a:	001c8693          	addi	a3,s9,1
   1382e:	4019d99b          	sraiw	s3,s3,0x1
   13832:	96ca                	add	a3,a3,s2
   13834:	00d9f663          	bgeu	s3,a3,13840 <__sfvwrite_r+0x2b6>
   13838:	0017869b          	addiw	a3,a5,1
   1383c:	012689bb          	addw	s3,a3,s2
   13840:	40077713          	andi	a4,a4,1024
   13844:	c325                	beqz	a4,138a4 <__sfvwrite_r+0x31a>
   13846:	85ce                	mv	a1,s3
   13848:	8556                	mv	a0,s5
   1384a:	84dfd0ef          	jal	11096 <_malloc_r>
   1384e:	8a2a                	mv	s4,a0
   13850:	c549                	beqz	a0,138da <__sfvwrite_r+0x350>
   13852:	6c0c                	ld	a1,24(s0)
   13854:	8666                	mv	a2,s9
   13856:	404000ef          	jal	13c5a <memcpy>
   1385a:	01045783          	lhu	a5,16(s0)
   1385e:	b7f7f793          	andi	a5,a5,-1153
   13862:	0807e793          	ori	a5,a5,128
   13866:	00f41823          	sh	a5,16(s0)
   1386a:	019a0533          	add	a0,s4,s9
   1386e:	419987bb          	subw	a5,s3,s9
   13872:	01443c23          	sd	s4,24(s0)
   13876:	e008                	sd	a0,0(s0)
   13878:	03342023          	sw	s3,32(s0)
   1387c:	8cca                	mv	s9,s2
   1387e:	c45c                	sw	a5,12(s0)
   13880:	8a4a                	mv	s4,s2
   13882:	b3e5                	j	1366a <__sfvwrite_r+0xe0>
   13884:	8652                	mv	a2,s4
   13886:	85e6                	mv	a1,s9
   13888:	300000ef          	jal	13b88 <memmove>
   1388c:	4454                	lw	a3,12(s0)
   1388e:	6018                	ld	a4,0(s0)
   13890:	000a079b          	sext.w	a5,s4
   13894:	414686bb          	subw	a3,a3,s4
   13898:	9752                	add	a4,a4,s4
   1389a:	c454                	sw	a3,12(s0)
   1389c:	e018                	sd	a4,0(s0)
   1389e:	bda1                	j	136f6 <__sfvwrite_r+0x16c>
   138a0:	8cd2                	mv	s9,s4
   138a2:	b3e1                	j	1366a <__sfvwrite_r+0xe0>
   138a4:	864e                	mv	a2,s3
   138a6:	8556                	mv	a0,s5
   138a8:	027020ef          	jal	160ce <_realloc_r>
   138ac:	8a2a                	mv	s4,a0
   138ae:	fd55                	bnez	a0,1386a <__sfvwrite_r+0x2e0>
   138b0:	6c0c                	ld	a1,24(s0)
   138b2:	8556                	mv	a0,s5
   138b4:	d9efd0ef          	jal	10e52 <_free_r>
   138b8:	01041783          	lh	a5,16(s0)
   138bc:	4731                	li	a4,12
   138be:	7b02                	ld	s6,32(sp)
   138c0:	6c42                	ld	s8,16(sp)
   138c2:	6ca2                	ld	s9,8(sp)
   138c4:	00eaa023          	sw	a4,0(s5)
   138c8:	f7f7f793          	andi	a5,a5,-129
   138cc:	bda5                	j	13744 <__sfvwrite_r+0x1ba>
   138ce:	001c0b1b          	addiw	s6,s8,1
   138d2:	b3fd                	j	136c0 <__sfvwrite_r+0x136>
   138d4:	01041783          	lh	a5,16(s0)
   138d8:	b5b5                	j	13744 <__sfvwrite_r+0x1ba>
   138da:	4731                	li	a4,12
   138dc:	01041783          	lh	a5,16(s0)
   138e0:	7b02                	ld	s6,32(sp)
   138e2:	6c42                	ld	s8,16(sp)
   138e4:	6ca2                	ld	s9,8(sp)
   138e6:	00eaa023          	sw	a4,0(s5)
   138ea:	bda9                	j	13744 <__sfvwrite_r+0x1ba>

00000000000138ec <__swsetup_r>:
   138ec:	8781b783          	ld	a5,-1928(gp) # 1b2e8 <_impure_ptr>
   138f0:	1101                	addi	sp,sp,-32
   138f2:	e822                	sd	s0,16(sp)
   138f4:	e426                	sd	s1,8(sp)
   138f6:	ec06                	sd	ra,24(sp)
   138f8:	84aa                	mv	s1,a0
   138fa:	842e                	mv	s0,a1
   138fc:	c399                	beqz	a5,13902 <__swsetup_r+0x16>
   138fe:	67b8                	ld	a4,72(a5)
   13900:	c75d                	beqz	a4,139ae <__swsetup_r+0xc2>
   13902:	01041783          	lh	a5,16(s0)
   13906:	0087f713          	andi	a4,a5,8
   1390a:	c721                	beqz	a4,13952 <__swsetup_r+0x66>
   1390c:	6c18                	ld	a4,24(s0)
   1390e:	cf31                	beqz	a4,1396a <__swsetup_r+0x7e>
   13910:	0017f693          	andi	a3,a5,1
   13914:	ce91                	beqz	a3,13930 <__swsetup_r+0x44>
   13916:	5014                	lw	a3,32(s0)
   13918:	00042623          	sw	zero,12(s0)
   1391c:	4501                	li	a0,0
   1391e:	40d006bb          	negw	a3,a3
   13922:	d414                	sw	a3,40(s0)
   13924:	cf11                	beqz	a4,13940 <__swsetup_r+0x54>
   13926:	60e2                	ld	ra,24(sp)
   13928:	6442                	ld	s0,16(sp)
   1392a:	64a2                	ld	s1,8(sp)
   1392c:	6105                	addi	sp,sp,32
   1392e:	8082                	ret
   13930:	0027f693          	andi	a3,a5,2
   13934:	4601                	li	a2,0
   13936:	e291                	bnez	a3,1393a <__swsetup_r+0x4e>
   13938:	5010                	lw	a2,32(s0)
   1393a:	c450                	sw	a2,12(s0)
   1393c:	4501                	li	a0,0
   1393e:	f765                	bnez	a4,13926 <__swsetup_r+0x3a>
   13940:	0807f713          	andi	a4,a5,128
   13944:	d36d                	beqz	a4,13926 <__swsetup_r+0x3a>
   13946:	0407e793          	ori	a5,a5,64
   1394a:	00f41823          	sh	a5,16(s0)
   1394e:	557d                	li	a0,-1
   13950:	bfd9                	j	13926 <__swsetup_r+0x3a>
   13952:	0107f713          	andi	a4,a5,16
   13956:	c325                	beqz	a4,139b6 <__swsetup_r+0xca>
   13958:	0047f713          	andi	a4,a5,4
   1395c:	e70d                	bnez	a4,13986 <__swsetup_r+0x9a>
   1395e:	6c18                	ld	a4,24(s0)
   13960:	0087e793          	ori	a5,a5,8
   13964:	00f41823          	sh	a5,16(s0)
   13968:	f745                	bnez	a4,13910 <__swsetup_r+0x24>
   1396a:	2807f693          	andi	a3,a5,640
   1396e:	20000613          	li	a2,512
   13972:	f8c68fe3          	beq	a3,a2,13910 <__swsetup_r+0x24>
   13976:	85a2                	mv	a1,s0
   13978:	8526                	mv	a0,s1
   1397a:	34d020ef          	jal	164c6 <__smakebuf_r>
   1397e:	01041783          	lh	a5,16(s0)
   13982:	6c18                	ld	a4,24(s0)
   13984:	b771                	j	13910 <__swsetup_r+0x24>
   13986:	6c2c                	ld	a1,88(s0)
   13988:	cd81                	beqz	a1,139a0 <__swsetup_r+0xb4>
   1398a:	07440713          	addi	a4,s0,116
   1398e:	00e58763          	beq	a1,a4,1399c <__swsetup_r+0xb0>
   13992:	8526                	mv	a0,s1
   13994:	cbefd0ef          	jal	10e52 <_free_r>
   13998:	01041783          	lh	a5,16(s0)
   1399c:	04043c23          	sd	zero,88(s0)
   139a0:	6c18                	ld	a4,24(s0)
   139a2:	fdb7f793          	andi	a5,a5,-37
   139a6:	00042423          	sw	zero,8(s0)
   139aa:	e018                	sd	a4,0(s0)
   139ac:	bf55                	j	13960 <__swsetup_r+0x74>
   139ae:	853e                	mv	a0,a5
   139b0:	d4bfc0ef          	jal	106fa <__sinit>
   139b4:	b7b9                	j	13902 <__swsetup_r+0x16>
   139b6:	4725                	li	a4,9
   139b8:	c098                	sw	a4,0(s1)
   139ba:	0407e793          	ori	a5,a5,64
   139be:	00f41823          	sh	a5,16(s0)
   139c2:	557d                	li	a0,-1
   139c4:	b78d                	j	13926 <__swsetup_r+0x3a>

00000000000139c6 <memchr>:
   139c6:	00757793          	andi	a5,a0,7
   139ca:	0ff5f693          	zext.b	a3,a1
   139ce:	c395                	beqz	a5,139f2 <memchr+0x2c>
   139d0:	fff60793          	addi	a5,a2,-1
   139d4:	c605                	beqz	a2,139fc <memchr+0x36>
   139d6:	567d                	li	a2,-1
   139d8:	a801                	j	139e8 <memchr+0x22>
   139da:	0505                	addi	a0,a0,1
   139dc:	00757713          	andi	a4,a0,7
   139e0:	cb11                	beqz	a4,139f4 <memchr+0x2e>
   139e2:	17fd                	addi	a5,a5,-1
   139e4:	00c78c63          	beq	a5,a2,139fc <memchr+0x36>
   139e8:	00054703          	lbu	a4,0(a0)
   139ec:	fed717e3          	bne	a4,a3,139da <memchr+0x14>
   139f0:	8082                	ret
   139f2:	87b2                	mv	a5,a2
   139f4:	471d                	li	a4,7
   139f6:	00f76563          	bltu	a4,a5,13a00 <memchr+0x3a>
   139fa:	e3bd                	bnez	a5,13a60 <memchr+0x9a>
   139fc:	4501                	li	a0,0
   139fe:	8082                	ret
   13a00:	0ff5f593          	zext.b	a1,a1
   13a04:	f0101837          	lui	a6,0xf0101
   13a08:	00859713          	slli	a4,a1,0x8
   13a0c:	feff08b7          	lui	a7,0xfeff0
   13a10:	0812                	slli	a6,a6,0x4
   13a12:	972e                	add	a4,a4,a1
   13a14:	eff88893          	addi	a7,a7,-257 # fffffffffefefeff <__BSS_END__+0xfffffffffefbc637>
   13a18:	10180813          	addi	a6,a6,257 # fffffffff0101101 <__BSS_END__+0xfffffffff00cd839>
   13a1c:	01071593          	slli	a1,a4,0x10
   13a20:	08c2                	slli	a7,a7,0x10
   13a22:	0842                	slli	a6,a6,0x10
   13a24:	95ba                	add	a1,a1,a4
   13a26:	eff88893          	addi	a7,a7,-257
   13a2a:	10180813          	addi	a6,a6,257
   13a2e:	02059713          	slli	a4,a1,0x20
   13a32:	08c2                	slli	a7,a7,0x10
   13a34:	083e                	slli	a6,a6,0xf
   13a36:	95ba                	add	a1,a1,a4
   13a38:	eff88893          	addi	a7,a7,-257
   13a3c:	08080813          	addi	a6,a6,128
   13a40:	431d                	li	t1,7
   13a42:	a029                	j	13a4c <memchr+0x86>
   13a44:	17e1                	addi	a5,a5,-8
   13a46:	0521                	addi	a0,a0,8
   13a48:	faf379e3          	bgeu	t1,a5,139fa <memchr+0x34>
   13a4c:	6118                	ld	a4,0(a0)
   13a4e:	8f2d                	xor	a4,a4,a1
   13a50:	01170633          	add	a2,a4,a7
   13a54:	fff74713          	not	a4,a4
   13a58:	8f71                	and	a4,a4,a2
   13a5a:	01077733          	and	a4,a4,a6
   13a5e:	d37d                	beqz	a4,13a44 <memchr+0x7e>
   13a60:	97aa                	add	a5,a5,a0
   13a62:	a021                	j	13a6a <memchr+0xa4>
   13a64:	0505                	addi	a0,a0,1
   13a66:	f8a78be3          	beq	a5,a0,139fc <memchr+0x36>
   13a6a:	00054703          	lbu	a4,0(a0)
   13a6e:	fed71be3          	bne	a4,a3,13a64 <memchr+0x9e>
   13a72:	8082                	ret

0000000000013a74 <strncpy>:
   13a74:	00a5e7b3          	or	a5,a1,a0
   13a78:	8b9d                	andi	a5,a5,7
   13a7a:	e781                	bnez	a5,13a82 <strncpy+0xe>
   13a7c:	479d                	li	a5,7
   13a7e:	02c7eb63          	bltu	a5,a2,13ab4 <strncpy+0x40>
   13a82:	872a                	mv	a4,a0
   13a84:	a811                	j	13a98 <strncpy+0x24>
   13a86:	fff5c683          	lbu	a3,-1(a1)
   13a8a:	fff60813          	addi	a6,a2,-1
   13a8e:	fed78fa3          	sb	a3,-1(a5)
   13a92:	ca81                	beqz	a3,13aa2 <strncpy+0x2e>
   13a94:	873e                	mv	a4,a5
   13a96:	8642                	mv	a2,a6
   13a98:	0585                	addi	a1,a1,1
   13a9a:	00170793          	addi	a5,a4,1
   13a9e:	f665                	bnez	a2,13a86 <strncpy+0x12>
   13aa0:	8082                	ret
   13aa2:	9732                	add	a4,a4,a2
   13aa4:	06080163          	beqz	a6,13b06 <strncpy+0x92>
   13aa8:	0785                	addi	a5,a5,1
   13aaa:	fe078fa3          	sb	zero,-1(a5)
   13aae:	fee79de3          	bne	a5,a4,13aa8 <strncpy+0x34>
   13ab2:	8082                	ret
   13ab4:	f0101837          	lui	a6,0xf0101
   13ab8:	feff08b7          	lui	a7,0xfeff0
   13abc:	0812                	slli	a6,a6,0x4
   13abe:	eff88893          	addi	a7,a7,-257 # fffffffffefefeff <__BSS_END__+0xfffffffffefbc637>
   13ac2:	10180813          	addi	a6,a6,257 # fffffffff0101101 <__BSS_END__+0xfffffffff00cd839>
   13ac6:	08c2                	slli	a7,a7,0x10
   13ac8:	0842                	slli	a6,a6,0x10
   13aca:	eff88893          	addi	a7,a7,-257
   13ace:	10180813          	addi	a6,a6,257
   13ad2:	08c2                	slli	a7,a7,0x10
   13ad4:	083e                	slli	a6,a6,0xf
   13ad6:	872a                	mv	a4,a0
   13ad8:	eff88893          	addi	a7,a7,-257
   13adc:	08080813          	addi	a6,a6,128
   13ae0:	4e1d                	li	t3,7
   13ae2:	a039                	j	13af0 <strncpy+0x7c>
   13ae4:	e314                	sd	a3,0(a4)
   13ae6:	1661                	addi	a2,a2,-8
   13ae8:	0721                	addi	a4,a4,8
   13aea:	05a1                	addi	a1,a1,8
   13aec:	face76e3          	bgeu	t3,a2,13a98 <strncpy+0x24>
   13af0:	6194                	ld	a3,0(a1)
   13af2:	011687b3          	add	a5,a3,a7
   13af6:	fff6c313          	not	t1,a3
   13afa:	0067f7b3          	and	a5,a5,t1
   13afe:	0107f7b3          	and	a5,a5,a6
   13b02:	d3ed                	beqz	a5,13ae4 <strncpy+0x70>
   13b04:	bf51                	j	13a98 <strncpy+0x24>
   13b06:	8082                	ret

0000000000013b08 <__localeconv_l>:
   13b08:	10050513          	addi	a0,a0,256
   13b0c:	8082                	ret

0000000000013b0e <_localeconv_r>:
   13b0e:	656d                	lui	a0,0x1b
   13b10:	1c850513          	addi	a0,a0,456 # 1b1c8 <__global_locale+0x100>
   13b14:	8082                	ret

0000000000013b16 <localeconv>:
   13b16:	656d                	lui	a0,0x1b
   13b18:	1c850513          	addi	a0,a0,456 # 1b1c8 <__global_locale+0x100>
   13b1c:	8082                	ret

0000000000013b1e <_sbrk_r>:
   13b1e:	1101                	addi	sp,sp,-32
   13b20:	e822                	sd	s0,16(sp)
   13b22:	e426                	sd	s1,8(sp)
   13b24:	842a                	mv	s0,a0
   13b26:	852e                	mv	a0,a1
   13b28:	ec06                	sd	ra,24(sp)
   13b2a:	8801ac23          	sw	zero,-1896(gp) # 1b308 <errno>
   13b2e:	7b9030ef          	jal	17ae6 <_sbrk>
   13b32:	57fd                	li	a5,-1
