
bin/gadget_CMOVE.riscv:     file format elf64-littleriscv


Disassembly of section .text:

0000000000010100 <exit>:
   10100:	1141                	addi	sp,sp,-16
   10102:	4581                	li	a1,0
   10104:	e022                	sd	s0,0(sp)
   10106:	e406                	sd	ra,8(sp)
   10108:	842a                	mv	s0,a0
   1010a:	1a8510ef          	jal	612b2 <__call_exitprocs>
   1010e:	8b01b783          	ld	a5,-1872(gp) # 6ac98 <__stdio_exit_handler>
   10112:	c391                	beqz	a5,10116 <exit+0x16>
   10114:	9782                	jalr	a5
   10116:	8522                	mv	a0,s0
   10118:	04c580ef          	jal	68164 <_exit>

000000000001011c <register_fini>:
   1011c:	00000793          	li	a5,0
   10120:	c799                	beqz	a5,1012e <register_fini+0x12>
   10122:	00064537          	lui	a0,0x64
   10126:	1b450513          	addi	a0,a0,436 # 641b4 <__libc_fini_array>
   1012a:	25a5106f          	j	61384 <atexit>
   1012e:	8082                	ret

0000000000010130 <_start>:
   10130:	0005b197          	auipc	gp,0x5b
   10134:	2b818193          	addi	gp,gp,696 # 6b3e8 <__global_pointer$>
   10138:	8a018513          	addi	a0,gp,-1888 # 6ac88 <secret>
   1013c:	00074617          	auipc	a2,0x74
   10140:	9a460613          	addi	a2,a2,-1628 # 83ae0 <__BSS_END__>
   10144:	8e09                	sub	a2,a2,a0
   10146:	4581                	li	a1,0
   10148:	0c0510ef          	jal	61208 <memset>
   1014c:	00051517          	auipc	a0,0x51
   10150:	23850513          	addi	a0,a0,568 # 61384 <atexit>
   10154:	c519                	beqz	a0,10162 <_start+0x32>
   10156:	00054517          	auipc	a0,0x54
   1015a:	05e50513          	addi	a0,a0,94 # 641b4 <__libc_fini_array>
   1015e:	226510ef          	jal	61384 <atexit>
   10162:	034510ef          	jal	61196 <__libc_init_array>
   10166:	4502                	lw	a0,0(sp)
   10168:	002c                	addi	a1,sp,8
   1016a:	4601                	li	a2,0
   1016c:	7e0500ef          	jal	6094c <main>
   10170:	bf41                	j	10100 <exit>

0000000000010172 <__do_global_dtors_aux>:
   10172:	1141                	addi	sp,sp,-16
   10174:	e022                	sd	s0,0(sp)
   10176:	8f01c783          	lbu	a5,-1808(gp) # 6acd8 <completed.1>
   1017a:	e406                	sd	ra,8(sp)
   1017c:	ef99                	bnez	a5,1019a <__do_global_dtors_aux+0x28>
   1017e:	00000793          	li	a5,0
   10182:	cb89                	beqz	a5,10194 <__do_global_dtors_aux+0x22>
   10184:	0006a537          	lui	a0,0x6a
   10188:	00050513          	mv	a0,a0
   1018c:	00000097          	auipc	ra,0x0
   10190:	000000e7          	jalr	zero # 0 <exit-0x10100>
   10194:	4785                	li	a5,1
   10196:	8ef18823          	sb	a5,-1808(gp) # 6acd8 <completed.1>
   1019a:	60a2                	ld	ra,8(sp)
   1019c:	6402                	ld	s0,0(sp)
   1019e:	0141                	addi	sp,sp,16
   101a0:	8082                	ret

00000000000101a2 <frame_dummy>:
   101a2:	00000793          	li	a5,0
   101a6:	cb99                	beqz	a5,101bc <frame_dummy+0x1a>
   101a8:	0006a537          	lui	a0,0x6a
   101ac:	8f818593          	addi	a1,gp,-1800 # 6ace0 <object.0>
   101b0:	00050513          	mv	a0,a0
   101b4:	00000317          	auipc	t1,0x0
   101b8:	00000067          	jr	zero # 0 <exit-0x10100>
   101bc:	8082                	ret
	...

00000000000101c0 <flushCache>:
   101c0:	fa010113          	addi	sp,sp,-96
   101c4:	04813c23          	sd	s0,88(sp)
   101c8:	06010413          	addi	s0,sp,96
   101cc:	faa43423          	sd	a0,-88(s0)
   101d0:	fab43023          	sd	a1,-96(s0)
   101d4:	fa043783          	ld	a5,-96(s0)
   101d8:	0067d793          	srli	a5,a5,0x6
   101dc:	fef43423          	sd	a5,-24(s0)
   101e0:	fa043783          	ld	a5,-96(s0)
   101e4:	03f7f793          	andi	a5,a5,63
   101e8:	00078863          	beqz	a5,101f8 <flushCache+0x38>
   101ec:	fe843783          	ld	a5,-24(s0)
   101f0:	00178793          	addi	a5,a5,1
   101f4:	fef43423          	sd	a5,-24(s0)
   101f8:	fe843703          	ld	a4,-24(s0)
   101fc:	04000793          	li	a5,64
   10200:	00e7f663          	bgeu	a5,a4,1020c <flushCache+0x4c>
   10204:	04000793          	li	a5,64
   10208:	fef43423          	sd	a5,-24(s0)
   1020c:	fc040ba3          	sb	zero,-41(s0)
   10210:	0006b7b7          	lui	a5,0x6b
   10214:	d1078713          	addi	a4,a5,-752 # 6ad10 <dummyMem>
   10218:	000047b7          	lui	a5,0x4
   1021c:	00f70733          	add	a4,a4,a5
   10220:	fffff7b7          	lui	a5,0xfffff
   10224:	00f777b3          	and	a5,a4,a5
   10228:	fcf43423          	sd	a5,-56(s0)
   1022c:	fe043023          	sd	zero,-32(s0)
   10230:	0740006f          	j	102a4 <flushCache+0xe4>
   10234:	fa843783          	ld	a5,-88(s0)
   10238:	0067d793          	srli	a5,a5,0x6
   1023c:	03f7f713          	andi	a4,a5,63
   10240:	fe043783          	ld	a5,-32(s0)
   10244:	00f707b3          	add	a5,a4,a5
   10248:	00679793          	slli	a5,a5,0x6
   1024c:	fcf43023          	sd	a5,-64(s0)
   10250:	fc043c23          	sd	zero,-40(s0)
   10254:	0380006f          	j	1028c <flushCache+0xcc>
   10258:	fd843783          	ld	a5,-40(s0)
   1025c:	00c79793          	slli	a5,a5,0xc
   10260:	faf43c23          	sd	a5,-72(s0)
   10264:	fc843703          	ld	a4,-56(s0)
   10268:	fc043783          	ld	a5,-64(s0)
   1026c:	00f70733          	add	a4,a4,a5
   10270:	fb843783          	ld	a5,-72(s0)
   10274:	00f707b3          	add	a5,a4,a5
   10278:	0007c783          	lbu	a5,0(a5) # fffffffffffff000 <__BSS_END__+0xfffffffffff7b520>
   1027c:	fcf40ba3          	sb	a5,-41(s0)
   10280:	fd843783          	ld	a5,-40(s0)
   10284:	00178793          	addi	a5,a5,1
   10288:	fcf43c23          	sd	a5,-40(s0)
   1028c:	fd843703          	ld	a4,-40(s0)
   10290:	00f00793          	li	a5,15
   10294:	fce7f2e3          	bgeu	a5,a4,10258 <flushCache+0x98>
   10298:	fe043783          	ld	a5,-32(s0)
   1029c:	00178793          	addi	a5,a5,1
   102a0:	fef43023          	sd	a5,-32(s0)
   102a4:	fe043703          	ld	a4,-32(s0)
   102a8:	fe843783          	ld	a5,-24(s0)
   102ac:	f8f764e3          	bltu	a4,a5,10234 <flushCache+0x74>
   102b0:	00000013          	nop
   102b4:	00000013          	nop
   102b8:	05813403          	ld	s0,88(sp)
   102bc:	06010113          	addi	sp,sp,96
   102c0:	00008067          	ret
   102c4:	00000013          	nop
   102c8:	00000013          	nop
   102cc:	00000013          	nop
   102d0:	00000013          	nop
   102d4:	00000013          	nop
   102d8:	00000013          	nop
   102dc:	00000013          	nop
   102e0:	00000013          	nop
   102e4:	00000013          	nop
   102e8:	00000013          	nop
   102ec:	00000013          	nop
   102f0:	00000013          	nop
   102f4:	00000013          	nop
   102f8:	00000013          	nop
   102fc:	00000013          	nop

0000000000010300 <__ic_blob>:
   10300:	00008067          	ret
   10304:	00008067          	ret
   10308:	00008067          	ret
   1030c:	00008067          	ret
   10310:	00008067          	ret
   10314:	00008067          	ret
   10318:	00008067          	ret
   1031c:	00008067          	ret
   10320:	00008067          	ret
   10324:	00008067          	ret
   10328:	00008067          	ret
   1032c:	00008067          	ret
   10330:	00008067          	ret
   10334:	00008067          	ret
   10338:	00008067          	ret
   1033c:	00008067          	ret
   10340:	00008067          	ret
   10344:	00008067          	ret
   10348:	00008067          	ret
   1034c:	00008067          	ret
   10350:	00008067          	ret
   10354:	00008067          	ret
   10358:	00008067          	ret
   1035c:	00008067          	ret
   10360:	00008067          	ret
   10364:	00008067          	ret
   10368:	00008067          	ret
   1036c:	00008067          	ret
   10370:	00008067          	ret
   10374:	00008067          	ret
   10378:	00008067          	ret
   1037c:	00008067          	ret
   10380:	00008067          	ret
   10384:	00008067          	ret
   10388:	00008067          	ret
   1038c:	00008067          	ret
   10390:	00008067          	ret
   10394:	00008067          	ret
   10398:	00008067          	ret
   1039c:	00008067          	ret
   103a0:	00008067          	ret
   103a4:	00008067          	ret
   103a8:	00008067          	ret
   103ac:	00008067          	ret
   103b0:	00008067          	ret
   103b4:	00008067          	ret
   103b8:	00008067          	ret
   103bc:	00008067          	ret
   103c0:	00008067          	ret
   103c4:	00008067          	ret
   103c8:	00008067          	ret
   103cc:	00008067          	ret
   103d0:	00008067          	ret
   103d4:	00008067          	ret
   103d8:	00008067          	ret
   103dc:	00008067          	ret
   103e0:	00008067          	ret
   103e4:	00008067          	ret
   103e8:	00008067          	ret
   103ec:	00008067          	ret
   103f0:	00008067          	ret
   103f4:	00008067          	ret
   103f8:	00008067          	ret
   103fc:	00008067          	ret
   10400:	00008067          	ret
   10404:	00008067          	ret
   10408:	00008067          	ret
   1040c:	00008067          	ret
   10410:	00008067          	ret
   10414:	00008067          	ret
   10418:	00008067          	ret
   1041c:	00008067          	ret
   10420:	00008067          	ret
   10424:	00008067          	ret
   10428:	00008067          	ret
   1042c:	00008067          	ret
   10430:	00008067          	ret
   10434:	00008067          	ret
   10438:	00008067          	ret
   1043c:	00008067          	ret
   10440:	00008067          	ret
   10444:	00008067          	ret
   10448:	00008067          	ret
   1044c:	00008067          	ret
   10450:	00008067          	ret
   10454:	00008067          	ret
   10458:	00008067          	ret
   1045c:	00008067          	ret
   10460:	00008067          	ret
   10464:	00008067          	ret
   10468:	00008067          	ret
   1046c:	00008067          	ret
   10470:	00008067          	ret
   10474:	00008067          	ret
   10478:	00008067          	ret
   1047c:	00008067          	ret
   10480:	00008067          	ret
   10484:	00008067          	ret
   10488:	00008067          	ret
   1048c:	00008067          	ret
   10490:	00008067          	ret
   10494:	00008067          	ret
   10498:	00008067          	ret
   1049c:	00008067          	ret
   104a0:	00008067          	ret
   104a4:	00008067          	ret
   104a8:	00008067          	ret
   104ac:	00008067          	ret
   104b0:	00008067          	ret
   104b4:	00008067          	ret
   104b8:	00008067          	ret
   104bc:	00008067          	ret
   104c0:	00008067          	ret
   104c4:	00008067          	ret
   104c8:	00008067          	ret
   104cc:	00008067          	ret
   104d0:	00008067          	ret
   104d4:	00008067          	ret
   104d8:	00008067          	ret
   104dc:	00008067          	ret
   104e0:	00008067          	ret
   104e4:	00008067          	ret
   104e8:	00008067          	ret
   104ec:	00008067          	ret
   104f0:	00008067          	ret
   104f4:	00008067          	ret
   104f8:	00008067          	ret
   104fc:	00008067          	ret
   10500:	00008067          	ret
   10504:	00008067          	ret
   10508:	00008067          	ret
   1050c:	00008067          	ret
   10510:	00008067          	ret
   10514:	00008067          	ret
   10518:	00008067          	ret
   1051c:	00008067          	ret
   10520:	00008067          	ret
   10524:	00008067          	ret
   10528:	00008067          	ret
   1052c:	00008067          	ret
   10530:	00008067          	ret
   10534:	00008067          	ret
   10538:	00008067          	ret
   1053c:	00008067          	ret
   10540:	00008067          	ret
   10544:	00008067          	ret
   10548:	00008067          	ret
   1054c:	00008067          	ret
   10550:	00008067          	ret
   10554:	00008067          	ret
   10558:	00008067          	ret
   1055c:	00008067          	ret
   10560:	00008067          	ret
   10564:	00008067          	ret
   10568:	00008067          	ret
   1056c:	00008067          	ret
   10570:	00008067          	ret
   10574:	00008067          	ret
   10578:	00008067          	ret
   1057c:	00008067          	ret
   10580:	00008067          	ret
   10584:	00008067          	ret
   10588:	00008067          	ret
   1058c:	00008067          	ret
   10590:	00008067          	ret
   10594:	00008067          	ret
   10598:	00008067          	ret
   1059c:	00008067          	ret
   105a0:	00008067          	ret
   105a4:	00008067          	ret
   105a8:	00008067          	ret
   105ac:	00008067          	ret
   105b0:	00008067          	ret
   105b4:	00008067          	ret
   105b8:	00008067          	ret
   105bc:	00008067          	ret
   105c0:	00008067          	ret
   105c4:	00008067          	ret
   105c8:	00008067          	ret
   105cc:	00008067          	ret
   105d0:	00008067          	ret
   105d4:	00008067          	ret
   105d8:	00008067          	ret
   105dc:	00008067          	ret
   105e0:	00008067          	ret
   105e4:	00008067          	ret
   105e8:	00008067          	ret
   105ec:	00008067          	ret
   105f0:	00008067          	ret
   105f4:	00008067          	ret
   105f8:	00008067          	ret
   105fc:	00008067          	ret
   10600:	00008067          	ret
   10604:	00008067          	ret
   10608:	00008067          	ret
   1060c:	00008067          	ret
   10610:	00008067          	ret
   10614:	00008067          	ret
   10618:	00008067          	ret
   1061c:	00008067          	ret
   10620:	00008067          	ret
   10624:	00008067          	ret
   10628:	00008067          	ret
   1062c:	00008067          	ret
   10630:	00008067          	ret
   10634:	00008067          	ret
   10638:	00008067          	ret
   1063c:	00008067          	ret
   10640:	00008067          	ret
   10644:	00008067          	ret
   10648:	00008067          	ret
   1064c:	00008067          	ret
   10650:	00008067          	ret
   10654:	00008067          	ret
   10658:	00008067          	ret
   1065c:	00008067          	ret
   10660:	00008067          	ret
   10664:	00008067          	ret
   10668:	00008067          	ret
   1066c:	00008067          	ret
   10670:	00008067          	ret
   10674:	00008067          	ret
   10678:	00008067          	ret
   1067c:	00008067          	ret
   10680:	00008067          	ret
   10684:	00008067          	ret
   10688:	00008067          	ret
   1068c:	00008067          	ret
   10690:	00008067          	ret
   10694:	00008067          	ret
   10698:	00008067          	ret
   1069c:	00008067          	ret
   106a0:	00008067          	ret
   106a4:	00008067          	ret
   106a8:	00008067          	ret
   106ac:	00008067          	ret
   106b0:	00008067          	ret
   106b4:	00008067          	ret
   106b8:	00008067          	ret
   106bc:	00008067          	ret
   106c0:	00008067          	ret
   106c4:	00008067          	ret
   106c8:	00008067          	ret
   106cc:	00008067          	ret
   106d0:	00008067          	ret
   106d4:	00008067          	ret
   106d8:	00008067          	ret
   106dc:	00008067          	ret
   106e0:	00008067          	ret
   106e4:	00008067          	ret
   106e8:	00008067          	ret
   106ec:	00008067          	ret
   106f0:	00008067          	ret
   106f4:	00008067          	ret
   106f8:	00008067          	ret
   106fc:	00008067          	ret
   10700:	00008067          	ret
   10704:	00008067          	ret
   10708:	00008067          	ret
   1070c:	00008067          	ret
   10710:	00008067          	ret
   10714:	00008067          	ret
   10718:	00008067          	ret
   1071c:	00008067          	ret
   10720:	00008067          	ret
   10724:	00008067          	ret
   10728:	00008067          	ret
   1072c:	00008067          	ret
   10730:	00008067          	ret
   10734:	00008067          	ret
   10738:	00008067          	ret
   1073c:	00008067          	ret
   10740:	00008067          	ret
   10744:	00008067          	ret
   10748:	00008067          	ret
   1074c:	00008067          	ret
   10750:	00008067          	ret
   10754:	00008067          	ret
   10758:	00008067          	ret
   1075c:	00008067          	ret
   10760:	00008067          	ret
   10764:	00008067          	ret
   10768:	00008067          	ret
   1076c:	00008067          	ret
   10770:	00008067          	ret
   10774:	00008067          	ret
   10778:	00008067          	ret
   1077c:	00008067          	ret
   10780:	00008067          	ret
   10784:	00008067          	ret
   10788:	00008067          	ret
   1078c:	00008067          	ret
   10790:	00008067          	ret
   10794:	00008067          	ret
   10798:	00008067          	ret
   1079c:	00008067          	ret
   107a0:	00008067          	ret
   107a4:	00008067          	ret
   107a8:	00008067          	ret
   107ac:	00008067          	ret
   107b0:	00008067          	ret
   107b4:	00008067          	ret
   107b8:	00008067          	ret
   107bc:	00008067          	ret
   107c0:	00008067          	ret
   107c4:	00008067          	ret
   107c8:	00008067          	ret
   107cc:	00008067          	ret
   107d0:	00008067          	ret
   107d4:	00008067          	ret
   107d8:	00008067          	ret
   107dc:	00008067          	ret
   107e0:	00008067          	ret
   107e4:	00008067          	ret
   107e8:	00008067          	ret
   107ec:	00008067          	ret
   107f0:	00008067          	ret
   107f4:	00008067          	ret
   107f8:	00008067          	ret
   107fc:	00008067          	ret
   10800:	00008067          	ret
   10804:	00008067          	ret
   10808:	00008067          	ret
   1080c:	00008067          	ret
   10810:	00008067          	ret
   10814:	00008067          	ret
   10818:	00008067          	ret
   1081c:	00008067          	ret
   10820:	00008067          	ret
   10824:	00008067          	ret
   10828:	00008067          	ret
   1082c:	00008067          	ret
   10830:	00008067          	ret
   10834:	00008067          	ret
   10838:	00008067          	ret
   1083c:	00008067          	ret
   10840:	00008067          	ret
   10844:	00008067          	ret
   10848:	00008067          	ret
   1084c:	00008067          	ret
   10850:	00008067          	ret
   10854:	00008067          	ret
   10858:	00008067          	ret
   1085c:	00008067          	ret
   10860:	00008067          	ret
   10864:	00008067          	ret
   10868:	00008067          	ret
   1086c:	00008067          	ret
   10870:	00008067          	ret
   10874:	00008067          	ret
   10878:	00008067          	ret
   1087c:	00008067          	ret
   10880:	00008067          	ret
   10884:	00008067          	ret
   10888:	00008067          	ret
   1088c:	00008067          	ret
   10890:	00008067          	ret
   10894:	00008067          	ret
   10898:	00008067          	ret
   1089c:	00008067          	ret
   108a0:	00008067          	ret
   108a4:	00008067          	ret
   108a8:	00008067          	ret
   108ac:	00008067          	ret
   108b0:	00008067          	ret
   108b4:	00008067          	ret
   108b8:	00008067          	ret
   108bc:	00008067          	ret
   108c0:	00008067          	ret
   108c4:	00008067          	ret
   108c8:	00008067          	ret
   108cc:	00008067          	ret
   108d0:	00008067          	ret
   108d4:	00008067          	ret
   108d8:	00008067          	ret
   108dc:	00008067          	ret
   108e0:	00008067          	ret
   108e4:	00008067          	ret
   108e8:	00008067          	ret
   108ec:	00008067          	ret
   108f0:	00008067          	ret
   108f4:	00008067          	ret
   108f8:	00008067          	ret
   108fc:	00008067          	ret
   10900:	00008067          	ret
   10904:	00008067          	ret
   10908:	00008067          	ret
   1090c:	00008067          	ret
   10910:	00008067          	ret
   10914:	00008067          	ret
   10918:	00008067          	ret
   1091c:	00008067          	ret
   10920:	00008067          	ret
   10924:	00008067          	ret
   10928:	00008067          	ret
   1092c:	00008067          	ret
   10930:	00008067          	ret
   10934:	00008067          	ret
   10938:	00008067          	ret
   1093c:	00008067          	ret
   10940:	00008067          	ret
   10944:	00008067          	ret
   10948:	00008067          	ret
   1094c:	00008067          	ret
   10950:	00008067          	ret
   10954:	00008067          	ret
   10958:	00008067          	ret
   1095c:	00008067          	ret
   10960:	00008067          	ret
   10964:	00008067          	ret
   10968:	00008067          	ret
   1096c:	00008067          	ret
   10970:	00008067          	ret
   10974:	00008067          	ret
   10978:	00008067          	ret
   1097c:	00008067          	ret
   10980:	00008067          	ret
   10984:	00008067          	ret
   10988:	00008067          	ret
   1098c:	00008067          	ret
   10990:	00008067          	ret
   10994:	00008067          	ret
   10998:	00008067          	ret
   1099c:	00008067          	ret
   109a0:	00008067          	ret
   109a4:	00008067          	ret
   109a8:	00008067          	ret
   109ac:	00008067          	ret
   109b0:	00008067          	ret
   109b4:	00008067          	ret
   109b8:	00008067          	ret
   109bc:	00008067          	ret
   109c0:	00008067          	ret
   109c4:	00008067          	ret
   109c8:	00008067          	ret
   109cc:	00008067          	ret
   109d0:	00008067          	ret
   109d4:	00008067          	ret
   109d8:	00008067          	ret
   109dc:	00008067          	ret
   109e0:	00008067          	ret
   109e4:	00008067          	ret
   109e8:	00008067          	ret
   109ec:	00008067          	ret
   109f0:	00008067          	ret
   109f4:	00008067          	ret
   109f8:	00008067          	ret
   109fc:	00008067          	ret
   10a00:	00008067          	ret
   10a04:	00008067          	ret
   10a08:	00008067          	ret
   10a0c:	00008067          	ret
   10a10:	00008067          	ret
   10a14:	00008067          	ret
   10a18:	00008067          	ret
   10a1c:	00008067          	ret
   10a20:	00008067          	ret
   10a24:	00008067          	ret
   10a28:	00008067          	ret
   10a2c:	00008067          	ret
   10a30:	00008067          	ret
   10a34:	00008067          	ret
   10a38:	00008067          	ret
   10a3c:	00008067          	ret
   10a40:	00008067          	ret
   10a44:	00008067          	ret
   10a48:	00008067          	ret
   10a4c:	00008067          	ret
   10a50:	00008067          	ret
   10a54:	00008067          	ret
   10a58:	00008067          	ret
   10a5c:	00008067          	ret
   10a60:	00008067          	ret
   10a64:	00008067          	ret
   10a68:	00008067          	ret
   10a6c:	00008067          	ret
   10a70:	00008067          	ret
   10a74:	00008067          	ret
   10a78:	00008067          	ret
   10a7c:	00008067          	ret
   10a80:	00008067          	ret
   10a84:	00008067          	ret
   10a88:	00008067          	ret
   10a8c:	00008067          	ret
   10a90:	00008067          	ret
   10a94:	00008067          	ret
   10a98:	00008067          	ret
   10a9c:	00008067          	ret
   10aa0:	00008067          	ret
   10aa4:	00008067          	ret
   10aa8:	00008067          	ret
   10aac:	00008067          	ret
   10ab0:	00008067          	ret
   10ab4:	00008067          	ret
   10ab8:	00008067          	ret
   10abc:	00008067          	ret
   10ac0:	00008067          	ret
   10ac4:	00008067          	ret
   10ac8:	00008067          	ret
   10acc:	00008067          	ret
   10ad0:	00008067          	ret
   10ad4:	00008067          	ret
   10ad8:	00008067          	ret
   10adc:	00008067          	ret
   10ae0:	00008067          	ret
   10ae4:	00008067          	ret
   10ae8:	00008067          	ret
   10aec:	00008067          	ret
   10af0:	00008067          	ret
   10af4:	00008067          	ret
   10af8:	00008067          	ret
   10afc:	00008067          	ret
   10b00:	00008067          	ret
   10b04:	00008067          	ret
   10b08:	00008067          	ret
   10b0c:	00008067          	ret
   10b10:	00008067          	ret
   10b14:	00008067          	ret
   10b18:	00008067          	ret
   10b1c:	00008067          	ret
   10b20:	00008067          	ret
   10b24:	00008067          	ret
   10b28:	00008067          	ret
   10b2c:	00008067          	ret
   10b30:	00008067          	ret
   10b34:	00008067          	ret
   10b38:	00008067          	ret
   10b3c:	00008067          	ret
   10b40:	00008067          	ret
   10b44:	00008067          	ret
   10b48:	00008067          	ret
   10b4c:	00008067          	ret
   10b50:	00008067          	ret
   10b54:	00008067          	ret
   10b58:	00008067          	ret
   10b5c:	00008067          	ret
   10b60:	00008067          	ret
   10b64:	00008067          	ret
   10b68:	00008067          	ret
   10b6c:	00008067          	ret
   10b70:	00008067          	ret
   10b74:	00008067          	ret
   10b78:	00008067          	ret
   10b7c:	00008067          	ret
   10b80:	00008067          	ret
   10b84:	00008067          	ret
   10b88:	00008067          	ret
   10b8c:	00008067          	ret
   10b90:	00008067          	ret
   10b94:	00008067          	ret
   10b98:	00008067          	ret
   10b9c:	00008067          	ret
   10ba0:	00008067          	ret
   10ba4:	00008067          	ret
   10ba8:	00008067          	ret
   10bac:	00008067          	ret
   10bb0:	00008067          	ret
   10bb4:	00008067          	ret
   10bb8:	00008067          	ret
   10bbc:	00008067          	ret
   10bc0:	00008067          	ret
   10bc4:	00008067          	ret
   10bc8:	00008067          	ret
   10bcc:	00008067          	ret
   10bd0:	00008067          	ret
   10bd4:	00008067          	ret
   10bd8:	00008067          	ret
   10bdc:	00008067          	ret
   10be0:	00008067          	ret
   10be4:	00008067          	ret
   10be8:	00008067          	ret
   10bec:	00008067          	ret
   10bf0:	00008067          	ret
   10bf4:	00008067          	ret
   10bf8:	00008067          	ret
   10bfc:	00008067          	ret
   10c00:	00008067          	ret
   10c04:	00008067          	ret
   10c08:	00008067          	ret
   10c0c:	00008067          	ret
   10c10:	00008067          	ret
   10c14:	00008067          	ret
   10c18:	00008067          	ret
   10c1c:	00008067          	ret
   10c20:	00008067          	ret
   10c24:	00008067          	ret
   10c28:	00008067          	ret
   10c2c:	00008067          	ret
   10c30:	00008067          	ret
   10c34:	00008067          	ret
   10c38:	00008067          	ret
   10c3c:	00008067          	ret
   10c40:	00008067          	ret
   10c44:	00008067          	ret
   10c48:	00008067          	ret
   10c4c:	00008067          	ret
   10c50:	00008067          	ret
   10c54:	00008067          	ret
   10c58:	00008067          	ret
   10c5c:	00008067          	ret
   10c60:	00008067          	ret
   10c64:	00008067          	ret
   10c68:	00008067          	ret
   10c6c:	00008067          	ret
   10c70:	00008067          	ret
   10c74:	00008067          	ret
   10c78:	00008067          	ret
   10c7c:	00008067          	ret
   10c80:	00008067          	ret
   10c84:	00008067          	ret
   10c88:	00008067          	ret
   10c8c:	00008067          	ret
   10c90:	00008067          	ret
   10c94:	00008067          	ret
   10c98:	00008067          	ret
   10c9c:	00008067          	ret
   10ca0:	00008067          	ret
   10ca4:	00008067          	ret
   10ca8:	00008067          	ret
   10cac:	00008067          	ret
   10cb0:	00008067          	ret
   10cb4:	00008067          	ret
   10cb8:	00008067          	ret
   10cbc:	00008067          	ret
   10cc0:	00008067          	ret
   10cc4:	00008067          	ret
   10cc8:	00008067          	ret
   10ccc:	00008067          	ret
   10cd0:	00008067          	ret
   10cd4:	00008067          	ret
   10cd8:	00008067          	ret
   10cdc:	00008067          	ret
   10ce0:	00008067          	ret
   10ce4:	00008067          	ret
   10ce8:	00008067          	ret
   10cec:	00008067          	ret
   10cf0:	00008067          	ret
   10cf4:	00008067          	ret
   10cf8:	00008067          	ret
   10cfc:	00008067          	ret
   10d00:	00008067          	ret
   10d04:	00008067          	ret
   10d08:	00008067          	ret
   10d0c:	00008067          	ret
   10d10:	00008067          	ret
   10d14:	00008067          	ret
   10d18:	00008067          	ret
   10d1c:	00008067          	ret
   10d20:	00008067          	ret
   10d24:	00008067          	ret
   10d28:	00008067          	ret
   10d2c:	00008067          	ret
   10d30:	00008067          	ret
   10d34:	00008067          	ret
   10d38:	00008067          	ret
   10d3c:	00008067          	ret
   10d40:	00008067          	ret
   10d44:	00008067          	ret
   10d48:	00008067          	ret
   10d4c:	00008067          	ret
   10d50:	00008067          	ret
   10d54:	00008067          	ret
   10d58:	00008067          	ret
   10d5c:	00008067          	ret
   10d60:	00008067          	ret
   10d64:	00008067          	ret
   10d68:	00008067          	ret
   10d6c:	00008067          	ret
   10d70:	00008067          	ret
   10d74:	00008067          	ret
   10d78:	00008067          	ret
   10d7c:	00008067          	ret
   10d80:	00008067          	ret
   10d84:	00008067          	ret
   10d88:	00008067          	ret
   10d8c:	00008067          	ret
   10d90:	00008067          	ret
   10d94:	00008067          	ret
   10d98:	00008067          	ret
   10d9c:	00008067          	ret
   10da0:	00008067          	ret
   10da4:	00008067          	ret
   10da8:	00008067          	ret
   10dac:	00008067          	ret
   10db0:	00008067          	ret
   10db4:	00008067          	ret
   10db8:	00008067          	ret
   10dbc:	00008067          	ret
   10dc0:	00008067          	ret
   10dc4:	00008067          	ret
   10dc8:	00008067          	ret
   10dcc:	00008067          	ret
   10dd0:	00008067          	ret
   10dd4:	00008067          	ret
   10dd8:	00008067          	ret
   10ddc:	00008067          	ret
   10de0:	00008067          	ret
   10de4:	00008067          	ret
   10de8:	00008067          	ret
   10dec:	00008067          	ret
   10df0:	00008067          	ret
   10df4:	00008067          	ret
   10df8:	00008067          	ret
   10dfc:	00008067          	ret
   10e00:	00008067          	ret
   10e04:	00008067          	ret
   10e08:	00008067          	ret
   10e0c:	00008067          	ret
   10e10:	00008067          	ret
   10e14:	00008067          	ret
   10e18:	00008067          	ret
   10e1c:	00008067          	ret
   10e20:	00008067          	ret
   10e24:	00008067          	ret
   10e28:	00008067          	ret
   10e2c:	00008067          	ret
   10e30:	00008067          	ret
   10e34:	00008067          	ret
   10e38:	00008067          	ret
   10e3c:	00008067          	ret
   10e40:	00008067          	ret
   10e44:	00008067          	ret
   10e48:	00008067          	ret
   10e4c:	00008067          	ret
   10e50:	00008067          	ret
   10e54:	00008067          	ret
   10e58:	00008067          	ret
   10e5c:	00008067          	ret
   10e60:	00008067          	ret
   10e64:	00008067          	ret
   10e68:	00008067          	ret
   10e6c:	00008067          	ret
   10e70:	00008067          	ret
   10e74:	00008067          	ret
   10e78:	00008067          	ret
   10e7c:	00008067          	ret
   10e80:	00008067          	ret
   10e84:	00008067          	ret
   10e88:	00008067          	ret
   10e8c:	00008067          	ret
   10e90:	00008067          	ret
   10e94:	00008067          	ret
   10e98:	00008067          	ret
   10e9c:	00008067          	ret
   10ea0:	00008067          	ret
   10ea4:	00008067          	ret
   10ea8:	00008067          	ret
   10eac:	00008067          	ret
   10eb0:	00008067          	ret
   10eb4:	00008067          	ret
   10eb8:	00008067          	ret
   10ebc:	00008067          	ret
   10ec0:	00008067          	ret
   10ec4:	00008067          	ret
   10ec8:	00008067          	ret
   10ecc:	00008067          	ret
   10ed0:	00008067          	ret
   10ed4:	00008067          	ret
   10ed8:	00008067          	ret
   10edc:	00008067          	ret
   10ee0:	00008067          	ret
   10ee4:	00008067          	ret
   10ee8:	00008067          	ret
   10eec:	00008067          	ret
   10ef0:	00008067          	ret
   10ef4:	00008067          	ret
   10ef8:	00008067          	ret
   10efc:	00008067          	ret
   10f00:	00008067          	ret
   10f04:	00008067          	ret
   10f08:	00008067          	ret
   10f0c:	00008067          	ret
   10f10:	00008067          	ret
   10f14:	00008067          	ret
   10f18:	00008067          	ret
   10f1c:	00008067          	ret
   10f20:	00008067          	ret
   10f24:	00008067          	ret
   10f28:	00008067          	ret
   10f2c:	00008067          	ret
   10f30:	00008067          	ret
   10f34:	00008067          	ret
   10f38:	00008067          	ret
   10f3c:	00008067          	ret
   10f40:	00008067          	ret
   10f44:	00008067          	ret
   10f48:	00008067          	ret
   10f4c:	00008067          	ret
   10f50:	00008067          	ret
   10f54:	00008067          	ret
   10f58:	00008067          	ret
   10f5c:	00008067          	ret
   10f60:	00008067          	ret
   10f64:	00008067          	ret
   10f68:	00008067          	ret
   10f6c:	00008067          	ret
   10f70:	00008067          	ret
   10f74:	00008067          	ret
   10f78:	00008067          	ret
   10f7c:	00008067          	ret
   10f80:	00008067          	ret
   10f84:	00008067          	ret
   10f88:	00008067          	ret
   10f8c:	00008067          	ret
   10f90:	00008067          	ret
   10f94:	00008067          	ret
   10f98:	00008067          	ret
   10f9c:	00008067          	ret
   10fa0:	00008067          	ret
   10fa4:	00008067          	ret
   10fa8:	00008067          	ret
   10fac:	00008067          	ret
   10fb0:	00008067          	ret
   10fb4:	00008067          	ret
   10fb8:	00008067          	ret
   10fbc:	00008067          	ret
   10fc0:	00008067          	ret
   10fc4:	00008067          	ret
   10fc8:	00008067          	ret
   10fcc:	00008067          	ret
   10fd0:	00008067          	ret
   10fd4:	00008067          	ret
   10fd8:	00008067          	ret
   10fdc:	00008067          	ret
   10fe0:	00008067          	ret
   10fe4:	00008067          	ret
   10fe8:	00008067          	ret
   10fec:	00008067          	ret
   10ff0:	00008067          	ret
   10ff4:	00008067          	ret
   10ff8:	00008067          	ret
   10ffc:	00008067          	ret
   11000:	00008067          	ret
   11004:	00008067          	ret
   11008:	00008067          	ret
   1100c:	00008067          	ret
   11010:	00008067          	ret
   11014:	00008067          	ret
   11018:	00008067          	ret
   1101c:	00008067          	ret
   11020:	00008067          	ret
   11024:	00008067          	ret
   11028:	00008067          	ret
   1102c:	00008067          	ret
   11030:	00008067          	ret
   11034:	00008067          	ret
   11038:	00008067          	ret
   1103c:	00008067          	ret
   11040:	00008067          	ret
   11044:	00008067          	ret
   11048:	00008067          	ret
   1104c:	00008067          	ret
   11050:	00008067          	ret
   11054:	00008067          	ret
   11058:	00008067          	ret
   1105c:	00008067          	ret
   11060:	00008067          	ret
   11064:	00008067          	ret
   11068:	00008067          	ret
   1106c:	00008067          	ret
   11070:	00008067          	ret
   11074:	00008067          	ret
   11078:	00008067          	ret
   1107c:	00008067          	ret
   11080:	00008067          	ret
   11084:	00008067          	ret
   11088:	00008067          	ret
   1108c:	00008067          	ret
   11090:	00008067          	ret
   11094:	00008067          	ret
   11098:	00008067          	ret
   1109c:	00008067          	ret
   110a0:	00008067          	ret
   110a4:	00008067          	ret
   110a8:	00008067          	ret
   110ac:	00008067          	ret
   110b0:	00008067          	ret
   110b4:	00008067          	ret
   110b8:	00008067          	ret
   110bc:	00008067          	ret
   110c0:	00008067          	ret
   110c4:	00008067          	ret
   110c8:	00008067          	ret
   110cc:	00008067          	ret
   110d0:	00008067          	ret
   110d4:	00008067          	ret
   110d8:	00008067          	ret
   110dc:	00008067          	ret
   110e0:	00008067          	ret
   110e4:	00008067          	ret
   110e8:	00008067          	ret
   110ec:	00008067          	ret
   110f0:	00008067          	ret
   110f4:	00008067          	ret
   110f8:	00008067          	ret
   110fc:	00008067          	ret
   11100:	00008067          	ret
   11104:	00008067          	ret
   11108:	00008067          	ret
   1110c:	00008067          	ret
   11110:	00008067          	ret
   11114:	00008067          	ret
   11118:	00008067          	ret
   1111c:	00008067          	ret
   11120:	00008067          	ret
   11124:	00008067          	ret
   11128:	00008067          	ret
   1112c:	00008067          	ret
   11130:	00008067          	ret
   11134:	00008067          	ret
   11138:	00008067          	ret
   1113c:	00008067          	ret
   11140:	00008067          	ret
   11144:	00008067          	ret
   11148:	00008067          	ret
   1114c:	00008067          	ret
   11150:	00008067          	ret
   11154:	00008067          	ret
   11158:	00008067          	ret
   1115c:	00008067          	ret
   11160:	00008067          	ret
   11164:	00008067          	ret
   11168:	00008067          	ret
   1116c:	00008067          	ret
   11170:	00008067          	ret
   11174:	00008067          	ret
   11178:	00008067          	ret
   1117c:	00008067          	ret
   11180:	00008067          	ret
   11184:	00008067          	ret
   11188:	00008067          	ret
   1118c:	00008067          	ret
   11190:	00008067          	ret
   11194:	00008067          	ret
   11198:	00008067          	ret
   1119c:	00008067          	ret
   111a0:	00008067          	ret
   111a4:	00008067          	ret
   111a8:	00008067          	ret
   111ac:	00008067          	ret
   111b0:	00008067          	ret
   111b4:	00008067          	ret
   111b8:	00008067          	ret
   111bc:	00008067          	ret
   111c0:	00008067          	ret
   111c4:	00008067          	ret
   111c8:	00008067          	ret
   111cc:	00008067          	ret
   111d0:	00008067          	ret
   111d4:	00008067          	ret
   111d8:	00008067          	ret
   111dc:	00008067          	ret
   111e0:	00008067          	ret
   111e4:	00008067          	ret
   111e8:	00008067          	ret
   111ec:	00008067          	ret
   111f0:	00008067          	ret
   111f4:	00008067          	ret
   111f8:	00008067          	ret
   111fc:	00008067          	ret
   11200:	00008067          	ret
   11204:	00008067          	ret
   11208:	00008067          	ret
   1120c:	00008067          	ret
   11210:	00008067          	ret
   11214:	00008067          	ret
   11218:	00008067          	ret
   1121c:	00008067          	ret
   11220:	00008067          	ret
   11224:	00008067          	ret
   11228:	00008067          	ret
   1122c:	00008067          	ret
   11230:	00008067          	ret
   11234:	00008067          	ret
   11238:	00008067          	ret
   1123c:	00008067          	ret
   11240:	00008067          	ret
   11244:	00008067          	ret
   11248:	00008067          	ret
   1124c:	00008067          	ret
   11250:	00008067          	ret
   11254:	00008067          	ret
   11258:	00008067          	ret
   1125c:	00008067          	ret
   11260:	00008067          	ret
   11264:	00008067          	ret
   11268:	00008067          	ret
   1126c:	00008067          	ret
   11270:	00008067          	ret
   11274:	00008067          	ret
   11278:	00008067          	ret
   1127c:	00008067          	ret
   11280:	00008067          	ret
   11284:	00008067          	ret
   11288:	00008067          	ret
   1128c:	00008067          	ret
   11290:	00008067          	ret
   11294:	00008067          	ret
   11298:	00008067          	ret
   1129c:	00008067          	ret
   112a0:	00008067          	ret
   112a4:	00008067          	ret
   112a8:	00008067          	ret
   112ac:	00008067          	ret
   112b0:	00008067          	ret
   112b4:	00008067          	ret
   112b8:	00008067          	ret
   112bc:	00008067          	ret
   112c0:	00008067          	ret
   112c4:	00008067          	ret
   112c8:	00008067          	ret
   112cc:	00008067          	ret
   112d0:	00008067          	ret
   112d4:	00008067          	ret
   112d8:	00008067          	ret
   112dc:	00008067          	ret
   112e0:	00008067          	ret
   112e4:	00008067          	ret
   112e8:	00008067          	ret
   112ec:	00008067          	ret
   112f0:	00008067          	ret
   112f4:	00008067          	ret
   112f8:	00008067          	ret
   112fc:	00008067          	ret
   11300:	00008067          	ret
   11304:	00008067          	ret
   11308:	00008067          	ret
   1130c:	00008067          	ret
   11310:	00008067          	ret
   11314:	00008067          	ret
   11318:	00008067          	ret
   1131c:	00008067          	ret
   11320:	00008067          	ret
   11324:	00008067          	ret
   11328:	00008067          	ret
   1132c:	00008067          	ret
   11330:	00008067          	ret
   11334:	00008067          	ret
   11338:	00008067          	ret
   1133c:	00008067          	ret
   11340:	00008067          	ret
   11344:	00008067          	ret
   11348:	00008067          	ret
   1134c:	00008067          	ret
   11350:	00008067          	ret
   11354:	00008067          	ret
   11358:	00008067          	ret
   1135c:	00008067          	ret
   11360:	00008067          	ret
   11364:	00008067          	ret
   11368:	00008067          	ret
   1136c:	00008067          	ret
   11370:	00008067          	ret
   11374:	00008067          	ret
   11378:	00008067          	ret
   1137c:	00008067          	ret
   11380:	00008067          	ret
   11384:	00008067          	ret
   11388:	00008067          	ret
   1138c:	00008067          	ret
   11390:	00008067          	ret
   11394:	00008067          	ret
   11398:	00008067          	ret
   1139c:	00008067          	ret
   113a0:	00008067          	ret
   113a4:	00008067          	ret
   113a8:	00008067          	ret
   113ac:	00008067          	ret
   113b0:	00008067          	ret
   113b4:	00008067          	ret
   113b8:	00008067          	ret
   113bc:	00008067          	ret
   113c0:	00008067          	ret
   113c4:	00008067          	ret
   113c8:	00008067          	ret
   113cc:	00008067          	ret
   113d0:	00008067          	ret
   113d4:	00008067          	ret
   113d8:	00008067          	ret
   113dc:	00008067          	ret
   113e0:	00008067          	ret
   113e4:	00008067          	ret
   113e8:	00008067          	ret
   113ec:	00008067          	ret
   113f0:	00008067          	ret
   113f4:	00008067          	ret
   113f8:	00008067          	ret
   113fc:	00008067          	ret
   11400:	00008067          	ret
   11404:	00008067          	ret
   11408:	00008067          	ret
   1140c:	00008067          	ret
   11410:	00008067          	ret
   11414:	00008067          	ret
   11418:	00008067          	ret
   1141c:	00008067          	ret
   11420:	00008067          	ret
   11424:	00008067          	ret
   11428:	00008067          	ret
   1142c:	00008067          	ret
   11430:	00008067          	ret
   11434:	00008067          	ret
   11438:	00008067          	ret
   1143c:	00008067          	ret
   11440:	00008067          	ret
   11444:	00008067          	ret
   11448:	00008067          	ret
   1144c:	00008067          	ret
   11450:	00008067          	ret
   11454:	00008067          	ret
   11458:	00008067          	ret
   1145c:	00008067          	ret
   11460:	00008067          	ret
   11464:	00008067          	ret
   11468:	00008067          	ret
   1146c:	00008067          	ret
   11470:	00008067          	ret
   11474:	00008067          	ret
   11478:	00008067          	ret
   1147c:	00008067          	ret
   11480:	00008067          	ret
   11484:	00008067          	ret
   11488:	00008067          	ret
   1148c:	00008067          	ret
   11490:	00008067          	ret
   11494:	00008067          	ret
   11498:	00008067          	ret
   1149c:	00008067          	ret
   114a0:	00008067          	ret
   114a4:	00008067          	ret
   114a8:	00008067          	ret
   114ac:	00008067          	ret
   114b0:	00008067          	ret
   114b4:	00008067          	ret
   114b8:	00008067          	ret
   114bc:	00008067          	ret
   114c0:	00008067          	ret
   114c4:	00008067          	ret
   114c8:	00008067          	ret
   114cc:	00008067          	ret
   114d0:	00008067          	ret
   114d4:	00008067          	ret
   114d8:	00008067          	ret
   114dc:	00008067          	ret
   114e0:	00008067          	ret
   114e4:	00008067          	ret
   114e8:	00008067          	ret
   114ec:	00008067          	ret
   114f0:	00008067          	ret
   114f4:	00008067          	ret
   114f8:	00008067          	ret
   114fc:	00008067          	ret
   11500:	00008067          	ret
   11504:	00008067          	ret
   11508:	00008067          	ret
   1150c:	00008067          	ret
   11510:	00008067          	ret
   11514:	00008067          	ret
   11518:	00008067          	ret
   1151c:	00008067          	ret
   11520:	00008067          	ret
   11524:	00008067          	ret
   11528:	00008067          	ret
   1152c:	00008067          	ret
   11530:	00008067          	ret
   11534:	00008067          	ret
   11538:	00008067          	ret
   1153c:	00008067          	ret
   11540:	00008067          	ret
   11544:	00008067          	ret
   11548:	00008067          	ret
   1154c:	00008067          	ret
   11550:	00008067          	ret
   11554:	00008067          	ret
   11558:	00008067          	ret
   1155c:	00008067          	ret
   11560:	00008067          	ret
   11564:	00008067          	ret
   11568:	00008067          	ret
   1156c:	00008067          	ret
   11570:	00008067          	ret
   11574:	00008067          	ret
   11578:	00008067          	ret
   1157c:	00008067          	ret
   11580:	00008067          	ret
   11584:	00008067          	ret
   11588:	00008067          	ret
   1158c:	00008067          	ret
   11590:	00008067          	ret
   11594:	00008067          	ret
   11598:	00008067          	ret
   1159c:	00008067          	ret
   115a0:	00008067          	ret
   115a4:	00008067          	ret
   115a8:	00008067          	ret
   115ac:	00008067          	ret
   115b0:	00008067          	ret
   115b4:	00008067          	ret
   115b8:	00008067          	ret
   115bc:	00008067          	ret
   115c0:	00008067          	ret
   115c4:	00008067          	ret
   115c8:	00008067          	ret
   115cc:	00008067          	ret
   115d0:	00008067          	ret
   115d4:	00008067          	ret
   115d8:	00008067          	ret
   115dc:	00008067          	ret
   115e0:	00008067          	ret
   115e4:	00008067          	ret
   115e8:	00008067          	ret
   115ec:	00008067          	ret
   115f0:	00008067          	ret
   115f4:	00008067          	ret
   115f8:	00008067          	ret
   115fc:	00008067          	ret
   11600:	00008067          	ret
   11604:	00008067          	ret
   11608:	00008067          	ret
   1160c:	00008067          	ret
   11610:	00008067          	ret
   11614:	00008067          	ret
   11618:	00008067          	ret
   1161c:	00008067          	ret
   11620:	00008067          	ret
   11624:	00008067          	ret
   11628:	00008067          	ret
   1162c:	00008067          	ret
   11630:	00008067          	ret
   11634:	00008067          	ret
   11638:	00008067          	ret
   1163c:	00008067          	ret
   11640:	00008067          	ret
   11644:	00008067          	ret
   11648:	00008067          	ret
   1164c:	00008067          	ret
   11650:	00008067          	ret
   11654:	00008067          	ret
   11658:	00008067          	ret
   1165c:	00008067          	ret
   11660:	00008067          	ret
   11664:	00008067          	ret
   11668:	00008067          	ret
   1166c:	00008067          	ret
   11670:	00008067          	ret
   11674:	00008067          	ret
   11678:	00008067          	ret
   1167c:	00008067          	ret
   11680:	00008067          	ret
   11684:	00008067          	ret
   11688:	00008067          	ret
   1168c:	00008067          	ret
   11690:	00008067          	ret
   11694:	00008067          	ret
   11698:	00008067          	ret
   1169c:	00008067          	ret
   116a0:	00008067          	ret
   116a4:	00008067          	ret
   116a8:	00008067          	ret
   116ac:	00008067          	ret
   116b0:	00008067          	ret
   116b4:	00008067          	ret
   116b8:	00008067          	ret
   116bc:	00008067          	ret
   116c0:	00008067          	ret
   116c4:	00008067          	ret
   116c8:	00008067          	ret
   116cc:	00008067          	ret
   116d0:	00008067          	ret
   116d4:	00008067          	ret
   116d8:	00008067          	ret
   116dc:	00008067          	ret
   116e0:	00008067          	ret
   116e4:	00008067          	ret
   116e8:	00008067          	ret
   116ec:	00008067          	ret
   116f0:	00008067          	ret
   116f4:	00008067          	ret
   116f8:	00008067          	ret
   116fc:	00008067          	ret
   11700:	00008067          	ret
   11704:	00008067          	ret
   11708:	00008067          	ret
   1170c:	00008067          	ret
   11710:	00008067          	ret
   11714:	00008067          	ret
   11718:	00008067          	ret
   1171c:	00008067          	ret
   11720:	00008067          	ret
   11724:	00008067          	ret
   11728:	00008067          	ret
   1172c:	00008067          	ret
   11730:	00008067          	ret
   11734:	00008067          	ret
   11738:	00008067          	ret
   1173c:	00008067          	ret
   11740:	00008067          	ret
   11744:	00008067          	ret
   11748:	00008067          	ret
   1174c:	00008067          	ret
   11750:	00008067          	ret
   11754:	00008067          	ret
   11758:	00008067          	ret
   1175c:	00008067          	ret
   11760:	00008067          	ret
   11764:	00008067          	ret
   11768:	00008067          	ret
   1176c:	00008067          	ret
   11770:	00008067          	ret
   11774:	00008067          	ret
   11778:	00008067          	ret
   1177c:	00008067          	ret
   11780:	00008067          	ret
   11784:	00008067          	ret
   11788:	00008067          	ret
   1178c:	00008067          	ret
   11790:	00008067          	ret
   11794:	00008067          	ret
   11798:	00008067          	ret
   1179c:	00008067          	ret
   117a0:	00008067          	ret
   117a4:	00008067          	ret
   117a8:	00008067          	ret
   117ac:	00008067          	ret
   117b0:	00008067          	ret
   117b4:	00008067          	ret
   117b8:	00008067          	ret
   117bc:	00008067          	ret
   117c0:	00008067          	ret
   117c4:	00008067          	ret
   117c8:	00008067          	ret
   117cc:	00008067          	ret
   117d0:	00008067          	ret
   117d4:	00008067          	ret
   117d8:	00008067          	ret
   117dc:	00008067          	ret
   117e0:	00008067          	ret
   117e4:	00008067          	ret
   117e8:	00008067          	ret
   117ec:	00008067          	ret
   117f0:	00008067          	ret
   117f4:	00008067          	ret
   117f8:	00008067          	ret
   117fc:	00008067          	ret
   11800:	00008067          	ret
   11804:	00008067          	ret
   11808:	00008067          	ret
   1180c:	00008067          	ret
   11810:	00008067          	ret
   11814:	00008067          	ret
   11818:	00008067          	ret
   1181c:	00008067          	ret
   11820:	00008067          	ret
   11824:	00008067          	ret
   11828:	00008067          	ret
   1182c:	00008067          	ret
   11830:	00008067          	ret
   11834:	00008067          	ret
   11838:	00008067          	ret
   1183c:	00008067          	ret
   11840:	00008067          	ret
   11844:	00008067          	ret
   11848:	00008067          	ret
   1184c:	00008067          	ret
   11850:	00008067          	ret
   11854:	00008067          	ret
   11858:	00008067          	ret
   1185c:	00008067          	ret
   11860:	00008067          	ret
   11864:	00008067          	ret
   11868:	00008067          	ret
   1186c:	00008067          	ret
   11870:	00008067          	ret
   11874:	00008067          	ret
   11878:	00008067          	ret
   1187c:	00008067          	ret
   11880:	00008067          	ret
   11884:	00008067          	ret
   11888:	00008067          	ret
   1188c:	00008067          	ret
   11890:	00008067          	ret
   11894:	00008067          	ret
   11898:	00008067          	ret
   1189c:	00008067          	ret
   118a0:	00008067          	ret
   118a4:	00008067          	ret
   118a8:	00008067          	ret
   118ac:	00008067          	ret
   118b0:	00008067          	ret
   118b4:	00008067          	ret
   118b8:	00008067          	ret
   118bc:	00008067          	ret
   118c0:	00008067          	ret
   118c4:	00008067          	ret
   118c8:	00008067          	ret
   118cc:	00008067          	ret
   118d0:	00008067          	ret
   118d4:	00008067          	ret
   118d8:	00008067          	ret
   118dc:	00008067          	ret
   118e0:	00008067          	ret
   118e4:	00008067          	ret
   118e8:	00008067          	ret
   118ec:	00008067          	ret
   118f0:	00008067          	ret
   118f4:	00008067          	ret
   118f8:	00008067          	ret
   118fc:	00008067          	ret
   11900:	00008067          	ret
   11904:	00008067          	ret
   11908:	00008067          	ret
   1190c:	00008067          	ret
   11910:	00008067          	ret
   11914:	00008067          	ret
   11918:	00008067          	ret
   1191c:	00008067          	ret
   11920:	00008067          	ret
   11924:	00008067          	ret
   11928:	00008067          	ret
   1192c:	00008067          	ret
   11930:	00008067          	ret
   11934:	00008067          	ret
   11938:	00008067          	ret
   1193c:	00008067          	ret
   11940:	00008067          	ret
   11944:	00008067          	ret
   11948:	00008067          	ret
   1194c:	00008067          	ret
   11950:	00008067          	ret
   11954:	00008067          	ret
   11958:	00008067          	ret
   1195c:	00008067          	ret
   11960:	00008067          	ret
   11964:	00008067          	ret
   11968:	00008067          	ret
   1196c:	00008067          	ret
   11970:	00008067          	ret
   11974:	00008067          	ret
   11978:	00008067          	ret
   1197c:	00008067          	ret
   11980:	00008067          	ret
   11984:	00008067          	ret
   11988:	00008067          	ret
   1198c:	00008067          	ret
   11990:	00008067          	ret
   11994:	00008067          	ret
   11998:	00008067          	ret
   1199c:	00008067          	ret
   119a0:	00008067          	ret
   119a4:	00008067          	ret
   119a8:	00008067          	ret
   119ac:	00008067          	ret
   119b0:	00008067          	ret
   119b4:	00008067          	ret
   119b8:	00008067          	ret
   119bc:	00008067          	ret
   119c0:	00008067          	ret
   119c4:	00008067          	ret
   119c8:	00008067          	ret
   119cc:	00008067          	ret
   119d0:	00008067          	ret
   119d4:	00008067          	ret
   119d8:	00008067          	ret
   119dc:	00008067          	ret
   119e0:	00008067          	ret
   119e4:	00008067          	ret
   119e8:	00008067          	ret
   119ec:	00008067          	ret
   119f0:	00008067          	ret
   119f4:	00008067          	ret
   119f8:	00008067          	ret
   119fc:	00008067          	ret
   11a00:	00008067          	ret
   11a04:	00008067          	ret
   11a08:	00008067          	ret
   11a0c:	00008067          	ret
   11a10:	00008067          	ret
   11a14:	00008067          	ret
   11a18:	00008067          	ret
   11a1c:	00008067          	ret
   11a20:	00008067          	ret
   11a24:	00008067          	ret
   11a28:	00008067          	ret
   11a2c:	00008067          	ret
   11a30:	00008067          	ret
   11a34:	00008067          	ret
   11a38:	00008067          	ret
   11a3c:	00008067          	ret
   11a40:	00008067          	ret
   11a44:	00008067          	ret
   11a48:	00008067          	ret
   11a4c:	00008067          	ret
   11a50:	00008067          	ret
   11a54:	00008067          	ret
   11a58:	00008067          	ret
   11a5c:	00008067          	ret
   11a60:	00008067          	ret
   11a64:	00008067          	ret
   11a68:	00008067          	ret
   11a6c:	00008067          	ret
   11a70:	00008067          	ret
   11a74:	00008067          	ret
   11a78:	00008067          	ret
   11a7c:	00008067          	ret
   11a80:	00008067          	ret
   11a84:	00008067          	ret
   11a88:	00008067          	ret
   11a8c:	00008067          	ret
   11a90:	00008067          	ret
   11a94:	00008067          	ret
   11a98:	00008067          	ret
   11a9c:	00008067          	ret
   11aa0:	00008067          	ret
   11aa4:	00008067          	ret
   11aa8:	00008067          	ret
   11aac:	00008067          	ret
   11ab0:	00008067          	ret
   11ab4:	00008067          	ret
   11ab8:	00008067          	ret
   11abc:	00008067          	ret
   11ac0:	00008067          	ret
   11ac4:	00008067          	ret
   11ac8:	00008067          	ret
   11acc:	00008067          	ret
   11ad0:	00008067          	ret
   11ad4:	00008067          	ret
   11ad8:	00008067          	ret
   11adc:	00008067          	ret
   11ae0:	00008067          	ret
   11ae4:	00008067          	ret
   11ae8:	00008067          	ret
   11aec:	00008067          	ret
   11af0:	00008067          	ret
   11af4:	00008067          	ret
   11af8:	00008067          	ret
   11afc:	00008067          	ret
   11b00:	00008067          	ret
   11b04:	00008067          	ret
   11b08:	00008067          	ret
   11b0c:	00008067          	ret
   11b10:	00008067          	ret
   11b14:	00008067          	ret
   11b18:	00008067          	ret
   11b1c:	00008067          	ret
   11b20:	00008067          	ret
   11b24:	00008067          	ret
   11b28:	00008067          	ret
   11b2c:	00008067          	ret
   11b30:	00008067          	ret
   11b34:	00008067          	ret
   11b38:	00008067          	ret
   11b3c:	00008067          	ret
   11b40:	00008067          	ret
   11b44:	00008067          	ret
   11b48:	00008067          	ret
   11b4c:	00008067          	ret
   11b50:	00008067          	ret
   11b54:	00008067          	ret
   11b58:	00008067          	ret
   11b5c:	00008067          	ret
   11b60:	00008067          	ret
   11b64:	00008067          	ret
   11b68:	00008067          	ret
   11b6c:	00008067          	ret
   11b70:	00008067          	ret
   11b74:	00008067          	ret
   11b78:	00008067          	ret
   11b7c:	00008067          	ret
   11b80:	00008067          	ret
   11b84:	00008067          	ret
   11b88:	00008067          	ret
   11b8c:	00008067          	ret
   11b90:	00008067          	ret
   11b94:	00008067          	ret
   11b98:	00008067          	ret
   11b9c:	00008067          	ret
   11ba0:	00008067          	ret
   11ba4:	00008067          	ret
   11ba8:	00008067          	ret
   11bac:	00008067          	ret
   11bb0:	00008067          	ret
   11bb4:	00008067          	ret
   11bb8:	00008067          	ret
   11bbc:	00008067          	ret
   11bc0:	00008067          	ret
   11bc4:	00008067          	ret
   11bc8:	00008067          	ret
   11bcc:	00008067          	ret
   11bd0:	00008067          	ret
   11bd4:	00008067          	ret
   11bd8:	00008067          	ret
   11bdc:	00008067          	ret
   11be0:	00008067          	ret
   11be4:	00008067          	ret
   11be8:	00008067          	ret
   11bec:	00008067          	ret
   11bf0:	00008067          	ret
   11bf4:	00008067          	ret
   11bf8:	00008067          	ret
   11bfc:	00008067          	ret
   11c00:	00008067          	ret
   11c04:	00008067          	ret
   11c08:	00008067          	ret
   11c0c:	00008067          	ret
   11c10:	00008067          	ret
   11c14:	00008067          	ret
   11c18:	00008067          	ret
   11c1c:	00008067          	ret
   11c20:	00008067          	ret
   11c24:	00008067          	ret
   11c28:	00008067          	ret
   11c2c:	00008067          	ret
   11c30:	00008067          	ret
   11c34:	00008067          	ret
   11c38:	00008067          	ret
   11c3c:	00008067          	ret
   11c40:	00008067          	ret
   11c44:	00008067          	ret
   11c48:	00008067          	ret
   11c4c:	00008067          	ret
   11c50:	00008067          	ret
   11c54:	00008067          	ret
   11c58:	00008067          	ret
   11c5c:	00008067          	ret
   11c60:	00008067          	ret
   11c64:	00008067          	ret
   11c68:	00008067          	ret
   11c6c:	00008067          	ret
   11c70:	00008067          	ret
   11c74:	00008067          	ret
   11c78:	00008067          	ret
   11c7c:	00008067          	ret
   11c80:	00008067          	ret
   11c84:	00008067          	ret
   11c88:	00008067          	ret
   11c8c:	00008067          	ret
   11c90:	00008067          	ret
   11c94:	00008067          	ret
   11c98:	00008067          	ret
   11c9c:	00008067          	ret
   11ca0:	00008067          	ret
   11ca4:	00008067          	ret
   11ca8:	00008067          	ret
   11cac:	00008067          	ret
   11cb0:	00008067          	ret
   11cb4:	00008067          	ret
   11cb8:	00008067          	ret
   11cbc:	00008067          	ret
   11cc0:	00008067          	ret
   11cc4:	00008067          	ret
   11cc8:	00008067          	ret
   11ccc:	00008067          	ret
   11cd0:	00008067          	ret
   11cd4:	00008067          	ret
   11cd8:	00008067          	ret
   11cdc:	00008067          	ret
   11ce0:	00008067          	ret
   11ce4:	00008067          	ret
   11ce8:	00008067          	ret
   11cec:	00008067          	ret
   11cf0:	00008067          	ret
   11cf4:	00008067          	ret
   11cf8:	00008067          	ret
   11cfc:	00008067          	ret
   11d00:	00008067          	ret
   11d04:	00008067          	ret
   11d08:	00008067          	ret
   11d0c:	00008067          	ret
   11d10:	00008067          	ret
   11d14:	00008067          	ret
   11d18:	00008067          	ret
   11d1c:	00008067          	ret
   11d20:	00008067          	ret
   11d24:	00008067          	ret
   11d28:	00008067          	ret
   11d2c:	00008067          	ret
   11d30:	00008067          	ret
   11d34:	00008067          	ret
   11d38:	00008067          	ret
   11d3c:	00008067          	ret
   11d40:	00008067          	ret
   11d44:	00008067          	ret
   11d48:	00008067          	ret
   11d4c:	00008067          	ret
   11d50:	00008067          	ret
   11d54:	00008067          	ret
   11d58:	00008067          	ret
   11d5c:	00008067          	ret
   11d60:	00008067          	ret
   11d64:	00008067          	ret
   11d68:	00008067          	ret
   11d6c:	00008067          	ret
   11d70:	00008067          	ret
   11d74:	00008067          	ret
   11d78:	00008067          	ret
   11d7c:	00008067          	ret
   11d80:	00008067          	ret
   11d84:	00008067          	ret
   11d88:	00008067          	ret
   11d8c:	00008067          	ret
   11d90:	00008067          	ret
   11d94:	00008067          	ret
   11d98:	00008067          	ret
   11d9c:	00008067          	ret
   11da0:	00008067          	ret
   11da4:	00008067          	ret
   11da8:	00008067          	ret
   11dac:	00008067          	ret
   11db0:	00008067          	ret
   11db4:	00008067          	ret
   11db8:	00008067          	ret
   11dbc:	00008067          	ret
   11dc0:	00008067          	ret
   11dc4:	00008067          	ret
   11dc8:	00008067          	ret
   11dcc:	00008067          	ret
   11dd0:	00008067          	ret
   11dd4:	00008067          	ret
   11dd8:	00008067          	ret
   11ddc:	00008067          	ret
   11de0:	00008067          	ret
   11de4:	00008067          	ret
   11de8:	00008067          	ret
   11dec:	00008067          	ret
   11df0:	00008067          	ret
   11df4:	00008067          	ret
   11df8:	00008067          	ret
   11dfc:	00008067          	ret
   11e00:	00008067          	ret
   11e04:	00008067          	ret
   11e08:	00008067          	ret
   11e0c:	00008067          	ret
   11e10:	00008067          	ret
   11e14:	00008067          	ret
   11e18:	00008067          	ret
   11e1c:	00008067          	ret
   11e20:	00008067          	ret
   11e24:	00008067          	ret
   11e28:	00008067          	ret
   11e2c:	00008067          	ret
   11e30:	00008067          	ret
   11e34:	00008067          	ret
   11e38:	00008067          	ret
   11e3c:	00008067          	ret
   11e40:	00008067          	ret
   11e44:	00008067          	ret
   11e48:	00008067          	ret
   11e4c:	00008067          	ret
   11e50:	00008067          	ret
   11e54:	00008067          	ret
   11e58:	00008067          	ret
   11e5c:	00008067          	ret
   11e60:	00008067          	ret
   11e64:	00008067          	ret
   11e68:	00008067          	ret
   11e6c:	00008067          	ret
   11e70:	00008067          	ret
   11e74:	00008067          	ret
   11e78:	00008067          	ret
   11e7c:	00008067          	ret
   11e80:	00008067          	ret
   11e84:	00008067          	ret
   11e88:	00008067          	ret
   11e8c:	00008067          	ret
   11e90:	00008067          	ret
   11e94:	00008067          	ret
   11e98:	00008067          	ret
   11e9c:	00008067          	ret
   11ea0:	00008067          	ret
   11ea4:	00008067          	ret
   11ea8:	00008067          	ret
   11eac:	00008067          	ret
   11eb0:	00008067          	ret
   11eb4:	00008067          	ret
   11eb8:	00008067          	ret
   11ebc:	00008067          	ret
   11ec0:	00008067          	ret
   11ec4:	00008067          	ret
   11ec8:	00008067          	ret
   11ecc:	00008067          	ret
   11ed0:	00008067          	ret
   11ed4:	00008067          	ret
   11ed8:	00008067          	ret
   11edc:	00008067          	ret
   11ee0:	00008067          	ret
   11ee4:	00008067          	ret
   11ee8:	00008067          	ret
   11eec:	00008067          	ret
   11ef0:	00008067          	ret
   11ef4:	00008067          	ret
   11ef8:	00008067          	ret
   11efc:	00008067          	ret
   11f00:	00008067          	ret
   11f04:	00008067          	ret
   11f08:	00008067          	ret
   11f0c:	00008067          	ret
   11f10:	00008067          	ret
   11f14:	00008067          	ret
   11f18:	00008067          	ret
   11f1c:	00008067          	ret
   11f20:	00008067          	ret
   11f24:	00008067          	ret
   11f28:	00008067          	ret
   11f2c:	00008067          	ret
   11f30:	00008067          	ret
   11f34:	00008067          	ret
   11f38:	00008067          	ret
   11f3c:	00008067          	ret
   11f40:	00008067          	ret
   11f44:	00008067          	ret
   11f48:	00008067          	ret
   11f4c:	00008067          	ret
   11f50:	00008067          	ret
   11f54:	00008067          	ret
   11f58:	00008067          	ret
   11f5c:	00008067          	ret
   11f60:	00008067          	ret
   11f64:	00008067          	ret
   11f68:	00008067          	ret
   11f6c:	00008067          	ret
   11f70:	00008067          	ret
   11f74:	00008067          	ret
   11f78:	00008067          	ret
   11f7c:	00008067          	ret
   11f80:	00008067          	ret
   11f84:	00008067          	ret
   11f88:	00008067          	ret
   11f8c:	00008067          	ret
   11f90:	00008067          	ret
   11f94:	00008067          	ret
   11f98:	00008067          	ret
   11f9c:	00008067          	ret
   11fa0:	00008067          	ret
   11fa4:	00008067          	ret
   11fa8:	00008067          	ret
   11fac:	00008067          	ret
   11fb0:	00008067          	ret
   11fb4:	00008067          	ret
   11fb8:	00008067          	ret
   11fbc:	00008067          	ret
   11fc0:	00008067          	ret
   11fc4:	00008067          	ret
   11fc8:	00008067          	ret
   11fcc:	00008067          	ret
   11fd0:	00008067          	ret
   11fd4:	00008067          	ret
   11fd8:	00008067          	ret
   11fdc:	00008067          	ret
   11fe0:	00008067          	ret
   11fe4:	00008067          	ret
   11fe8:	00008067          	ret
   11fec:	00008067          	ret
   11ff0:	00008067          	ret
   11ff4:	00008067          	ret
   11ff8:	00008067          	ret
   11ffc:	00008067          	ret
   12000:	00008067          	ret
   12004:	00008067          	ret
   12008:	00008067          	ret
   1200c:	00008067          	ret
   12010:	00008067          	ret
   12014:	00008067          	ret
   12018:	00008067          	ret
   1201c:	00008067          	ret
   12020:	00008067          	ret
   12024:	00008067          	ret
   12028:	00008067          	ret
   1202c:	00008067          	ret
   12030:	00008067          	ret
   12034:	00008067          	ret
   12038:	00008067          	ret
   1203c:	00008067          	ret
   12040:	00008067          	ret
   12044:	00008067          	ret
   12048:	00008067          	ret
   1204c:	00008067          	ret
   12050:	00008067          	ret
   12054:	00008067          	ret
   12058:	00008067          	ret
   1205c:	00008067          	ret
   12060:	00008067          	ret
   12064:	00008067          	ret
   12068:	00008067          	ret
   1206c:	00008067          	ret
   12070:	00008067          	ret
   12074:	00008067          	ret
   12078:	00008067          	ret
   1207c:	00008067          	ret
   12080:	00008067          	ret
   12084:	00008067          	ret
   12088:	00008067          	ret
   1208c:	00008067          	ret
   12090:	00008067          	ret
   12094:	00008067          	ret
   12098:	00008067          	ret
   1209c:	00008067          	ret
   120a0:	00008067          	ret
   120a4:	00008067          	ret
   120a8:	00008067          	ret
   120ac:	00008067          	ret
   120b0:	00008067          	ret
   120b4:	00008067          	ret
   120b8:	00008067          	ret
   120bc:	00008067          	ret
   120c0:	00008067          	ret
   120c4:	00008067          	ret
   120c8:	00008067          	ret
   120cc:	00008067          	ret
   120d0:	00008067          	ret
   120d4:	00008067          	ret
   120d8:	00008067          	ret
   120dc:	00008067          	ret
   120e0:	00008067          	ret
   120e4:	00008067          	ret
   120e8:	00008067          	ret
   120ec:	00008067          	ret
   120f0:	00008067          	ret
   120f4:	00008067          	ret
   120f8:	00008067          	ret
   120fc:	00008067          	ret
   12100:	00008067          	ret
   12104:	00008067          	ret
   12108:	00008067          	ret
   1210c:	00008067          	ret
   12110:	00008067          	ret
   12114:	00008067          	ret
   12118:	00008067          	ret
   1211c:	00008067          	ret
   12120:	00008067          	ret
   12124:	00008067          	ret
   12128:	00008067          	ret
   1212c:	00008067          	ret
   12130:	00008067          	ret
   12134:	00008067          	ret
   12138:	00008067          	ret
   1213c:	00008067          	ret
   12140:	00008067          	ret
   12144:	00008067          	ret
   12148:	00008067          	ret
   1214c:	00008067          	ret
   12150:	00008067          	ret
   12154:	00008067          	ret
   12158:	00008067          	ret
   1215c:	00008067          	ret
   12160:	00008067          	ret
   12164:	00008067          	ret
   12168:	00008067          	ret
   1216c:	00008067          	ret
   12170:	00008067          	ret
   12174:	00008067          	ret
   12178:	00008067          	ret
   1217c:	00008067          	ret
   12180:	00008067          	ret
   12184:	00008067          	ret
   12188:	00008067          	ret
   1218c:	00008067          	ret
   12190:	00008067          	ret
   12194:	00008067          	ret
   12198:	00008067          	ret
   1219c:	00008067          	ret
   121a0:	00008067          	ret
   121a4:	00008067          	ret
   121a8:	00008067          	ret
   121ac:	00008067          	ret
   121b0:	00008067          	ret
   121b4:	00008067          	ret
   121b8:	00008067          	ret
   121bc:	00008067          	ret
   121c0:	00008067          	ret
   121c4:	00008067          	ret
   121c8:	00008067          	ret
   121cc:	00008067          	ret
   121d0:	00008067          	ret
   121d4:	00008067          	ret
   121d8:	00008067          	ret
   121dc:	00008067          	ret
   121e0:	00008067          	ret
   121e4:	00008067          	ret
   121e8:	00008067          	ret
   121ec:	00008067          	ret
   121f0:	00008067          	ret
   121f4:	00008067          	ret
   121f8:	00008067          	ret
   121fc:	00008067          	ret
   12200:	00008067          	ret
   12204:	00008067          	ret
   12208:	00008067          	ret
   1220c:	00008067          	ret
   12210:	00008067          	ret
   12214:	00008067          	ret
   12218:	00008067          	ret
   1221c:	00008067          	ret
   12220:	00008067          	ret
   12224:	00008067          	ret
   12228:	00008067          	ret
   1222c:	00008067          	ret
   12230:	00008067          	ret
   12234:	00008067          	ret
   12238:	00008067          	ret
   1223c:	00008067          	ret
   12240:	00008067          	ret
   12244:	00008067          	ret
   12248:	00008067          	ret
   1224c:	00008067          	ret
   12250:	00008067          	ret
   12254:	00008067          	ret
   12258:	00008067          	ret
   1225c:	00008067          	ret
   12260:	00008067          	ret
   12264:	00008067          	ret
   12268:	00008067          	ret
   1226c:	00008067          	ret
   12270:	00008067          	ret
   12274:	00008067          	ret
   12278:	00008067          	ret
   1227c:	00008067          	ret
   12280:	00008067          	ret
   12284:	00008067          	ret
   12288:	00008067          	ret
   1228c:	00008067          	ret
   12290:	00008067          	ret
   12294:	00008067          	ret
   12298:	00008067          	ret
   1229c:	00008067          	ret
   122a0:	00008067          	ret
   122a4:	00008067          	ret
   122a8:	00008067          	ret
   122ac:	00008067          	ret
   122b0:	00008067          	ret
   122b4:	00008067          	ret
   122b8:	00008067          	ret
   122bc:	00008067          	ret
   122c0:	00008067          	ret
   122c4:	00008067          	ret
   122c8:	00008067          	ret
   122cc:	00008067          	ret
   122d0:	00008067          	ret
   122d4:	00008067          	ret
   122d8:	00008067          	ret
   122dc:	00008067          	ret
   122e0:	00008067          	ret
   122e4:	00008067          	ret
   122e8:	00008067          	ret
   122ec:	00008067          	ret
   122f0:	00008067          	ret
   122f4:	00008067          	ret
   122f8:	00008067          	ret
   122fc:	00008067          	ret
   12300:	00008067          	ret
   12304:	00008067          	ret
   12308:	00008067          	ret
   1230c:	00008067          	ret
   12310:	00008067          	ret
   12314:	00008067          	ret
   12318:	00008067          	ret
   1231c:	00008067          	ret
   12320:	00008067          	ret
   12324:	00008067          	ret
   12328:	00008067          	ret
   1232c:	00008067          	ret
   12330:	00008067          	ret
   12334:	00008067          	ret
   12338:	00008067          	ret
   1233c:	00008067          	ret
   12340:	00008067          	ret
   12344:	00008067          	ret
   12348:	00008067          	ret
   1234c:	00008067          	ret
   12350:	00008067          	ret
   12354:	00008067          	ret
   12358:	00008067          	ret
   1235c:	00008067          	ret
   12360:	00008067          	ret
   12364:	00008067          	ret
   12368:	00008067          	ret
   1236c:	00008067          	ret
   12370:	00008067          	ret
   12374:	00008067          	ret
   12378:	00008067          	ret
   1237c:	00008067          	ret
   12380:	00008067          	ret
   12384:	00008067          	ret
   12388:	00008067          	ret
   1238c:	00008067          	ret
   12390:	00008067          	ret
   12394:	00008067          	ret
   12398:	00008067          	ret
   1239c:	00008067          	ret
   123a0:	00008067          	ret
   123a4:	00008067          	ret
   123a8:	00008067          	ret
   123ac:	00008067          	ret
   123b0:	00008067          	ret
   123b4:	00008067          	ret
   123b8:	00008067          	ret
   123bc:	00008067          	ret
   123c0:	00008067          	ret
   123c4:	00008067          	ret
   123c8:	00008067          	ret
   123cc:	00008067          	ret
   123d0:	00008067          	ret
   123d4:	00008067          	ret
   123d8:	00008067          	ret
   123dc:	00008067          	ret
   123e0:	00008067          	ret
   123e4:	00008067          	ret
   123e8:	00008067          	ret
   123ec:	00008067          	ret
   123f0:	00008067          	ret
   123f4:	00008067          	ret
   123f8:	00008067          	ret
   123fc:	00008067          	ret
   12400:	00008067          	ret
   12404:	00008067          	ret
   12408:	00008067          	ret
   1240c:	00008067          	ret
   12410:	00008067          	ret
   12414:	00008067          	ret
   12418:	00008067          	ret
   1241c:	00008067          	ret
   12420:	00008067          	ret
   12424:	00008067          	ret
   12428:	00008067          	ret
   1242c:	00008067          	ret
   12430:	00008067          	ret
   12434:	00008067          	ret
   12438:	00008067          	ret
   1243c:	00008067          	ret
   12440:	00008067          	ret
   12444:	00008067          	ret
   12448:	00008067          	ret
   1244c:	00008067          	ret
   12450:	00008067          	ret
   12454:	00008067          	ret
   12458:	00008067          	ret
   1245c:	00008067          	ret
   12460:	00008067          	ret
   12464:	00008067          	ret
   12468:	00008067          	ret
   1246c:	00008067          	ret
   12470:	00008067          	ret
   12474:	00008067          	ret
   12478:	00008067          	ret
   1247c:	00008067          	ret
   12480:	00008067          	ret
   12484:	00008067          	ret
   12488:	00008067          	ret
   1248c:	00008067          	ret
   12490:	00008067          	ret
   12494:	00008067          	ret
   12498:	00008067          	ret
   1249c:	00008067          	ret
   124a0:	00008067          	ret
   124a4:	00008067          	ret
   124a8:	00008067          	ret
   124ac:	00008067          	ret
   124b0:	00008067          	ret
   124b4:	00008067          	ret
   124b8:	00008067          	ret
   124bc:	00008067          	ret
   124c0:	00008067          	ret
   124c4:	00008067          	ret
   124c8:	00008067          	ret
   124cc:	00008067          	ret
   124d0:	00008067          	ret
   124d4:	00008067          	ret
   124d8:	00008067          	ret
   124dc:	00008067          	ret
   124e0:	00008067          	ret
   124e4:	00008067          	ret
   124e8:	00008067          	ret
   124ec:	00008067          	ret
   124f0:	00008067          	ret
   124f4:	00008067          	ret
   124f8:	00008067          	ret
   124fc:	00008067          	ret
   12500:	00008067          	ret
   12504:	00008067          	ret
   12508:	00008067          	ret
   1250c:	00008067          	ret
   12510:	00008067          	ret
   12514:	00008067          	ret
   12518:	00008067          	ret
   1251c:	00008067          	ret
   12520:	00008067          	ret
   12524:	00008067          	ret
   12528:	00008067          	ret
   1252c:	00008067          	ret
   12530:	00008067          	ret
   12534:	00008067          	ret
   12538:	00008067          	ret
   1253c:	00008067          	ret
   12540:	00008067          	ret
   12544:	00008067          	ret
   12548:	00008067          	ret
   1254c:	00008067          	ret
   12550:	00008067          	ret
   12554:	00008067          	ret
   12558:	00008067          	ret
   1255c:	00008067          	ret
   12560:	00008067          	ret
   12564:	00008067          	ret
   12568:	00008067          	ret
   1256c:	00008067          	ret
   12570:	00008067          	ret
   12574:	00008067          	ret
   12578:	00008067          	ret
   1257c:	00008067          	ret
   12580:	00008067          	ret
   12584:	00008067          	ret
   12588:	00008067          	ret
   1258c:	00008067          	ret
   12590:	00008067          	ret
   12594:	00008067          	ret
   12598:	00008067          	ret
   1259c:	00008067          	ret
   125a0:	00008067          	ret
   125a4:	00008067          	ret
   125a8:	00008067          	ret
   125ac:	00008067          	ret
   125b0:	00008067          	ret
   125b4:	00008067          	ret
   125b8:	00008067          	ret
   125bc:	00008067          	ret
   125c0:	00008067          	ret
   125c4:	00008067          	ret
   125c8:	00008067          	ret
   125cc:	00008067          	ret
   125d0:	00008067          	ret
   125d4:	00008067          	ret
   125d8:	00008067          	ret
   125dc:	00008067          	ret
   125e0:	00008067          	ret
   125e4:	00008067          	ret
   125e8:	00008067          	ret
   125ec:	00008067          	ret
   125f0:	00008067          	ret
   125f4:	00008067          	ret
   125f8:	00008067          	ret
   125fc:	00008067          	ret
   12600:	00008067          	ret
   12604:	00008067          	ret
   12608:	00008067          	ret
   1260c:	00008067          	ret
   12610:	00008067          	ret
   12614:	00008067          	ret
   12618:	00008067          	ret
   1261c:	00008067          	ret
   12620:	00008067          	ret
   12624:	00008067          	ret
   12628:	00008067          	ret
   1262c:	00008067          	ret
   12630:	00008067          	ret
   12634:	00008067          	ret
   12638:	00008067          	ret
   1263c:	00008067          	ret
   12640:	00008067          	ret
   12644:	00008067          	ret
   12648:	00008067          	ret
   1264c:	00008067          	ret
   12650:	00008067          	ret
   12654:	00008067          	ret
   12658:	00008067          	ret
   1265c:	00008067          	ret
   12660:	00008067          	ret
   12664:	00008067          	ret
   12668:	00008067          	ret
   1266c:	00008067          	ret
   12670:	00008067          	ret
   12674:	00008067          	ret
   12678:	00008067          	ret
   1267c:	00008067          	ret
   12680:	00008067          	ret
   12684:	00008067          	ret
   12688:	00008067          	ret
   1268c:	00008067          	ret
   12690:	00008067          	ret
   12694:	00008067          	ret
   12698:	00008067          	ret
   1269c:	00008067          	ret
   126a0:	00008067          	ret
   126a4:	00008067          	ret
   126a8:	00008067          	ret
   126ac:	00008067          	ret
   126b0:	00008067          	ret
   126b4:	00008067          	ret
   126b8:	00008067          	ret
   126bc:	00008067          	ret
   126c0:	00008067          	ret
   126c4:	00008067          	ret
   126c8:	00008067          	ret
   126cc:	00008067          	ret
   126d0:	00008067          	ret
   126d4:	00008067          	ret
   126d8:	00008067          	ret
   126dc:	00008067          	ret
   126e0:	00008067          	ret
   126e4:	00008067          	ret
   126e8:	00008067          	ret
   126ec:	00008067          	ret
   126f0:	00008067          	ret
   126f4:	00008067          	ret
   126f8:	00008067          	ret
   126fc:	00008067          	ret
   12700:	00008067          	ret
   12704:	00008067          	ret
   12708:	00008067          	ret
   1270c:	00008067          	ret
   12710:	00008067          	ret
   12714:	00008067          	ret
   12718:	00008067          	ret
   1271c:	00008067          	ret
   12720:	00008067          	ret
   12724:	00008067          	ret
   12728:	00008067          	ret
   1272c:	00008067          	ret
   12730:	00008067          	ret
   12734:	00008067          	ret
   12738:	00008067          	ret
   1273c:	00008067          	ret
   12740:	00008067          	ret
   12744:	00008067          	ret
   12748:	00008067          	ret
   1274c:	00008067          	ret
   12750:	00008067          	ret
   12754:	00008067          	ret
   12758:	00008067          	ret
   1275c:	00008067          	ret
   12760:	00008067          	ret
   12764:	00008067          	ret
   12768:	00008067          	ret
   1276c:	00008067          	ret
   12770:	00008067          	ret
   12774:	00008067          	ret
   12778:	00008067          	ret
   1277c:	00008067          	ret
   12780:	00008067          	ret
   12784:	00008067          	ret
   12788:	00008067          	ret
   1278c:	00008067          	ret
   12790:	00008067          	ret
   12794:	00008067          	ret
   12798:	00008067          	ret
   1279c:	00008067          	ret
   127a0:	00008067          	ret
   127a4:	00008067          	ret
   127a8:	00008067          	ret
   127ac:	00008067          	ret
   127b0:	00008067          	ret
   127b4:	00008067          	ret
   127b8:	00008067          	ret
   127bc:	00008067          	ret
   127c0:	00008067          	ret
   127c4:	00008067          	ret
   127c8:	00008067          	ret
   127cc:	00008067          	ret
   127d0:	00008067          	ret
   127d4:	00008067          	ret
   127d8:	00008067          	ret
   127dc:	00008067          	ret
   127e0:	00008067          	ret
   127e4:	00008067          	ret
   127e8:	00008067          	ret
   127ec:	00008067          	ret
   127f0:	00008067          	ret
   127f4:	00008067          	ret
   127f8:	00008067          	ret
   127fc:	00008067          	ret
   12800:	00008067          	ret
   12804:	00008067          	ret
   12808:	00008067          	ret
   1280c:	00008067          	ret
   12810:	00008067          	ret
   12814:	00008067          	ret
   12818:	00008067          	ret
   1281c:	00008067          	ret
   12820:	00008067          	ret
   12824:	00008067          	ret
   12828:	00008067          	ret
   1282c:	00008067          	ret
   12830:	00008067          	ret
   12834:	00008067          	ret
   12838:	00008067          	ret
   1283c:	00008067          	ret
   12840:	00008067          	ret
   12844:	00008067          	ret
   12848:	00008067          	ret
   1284c:	00008067          	ret
   12850:	00008067          	ret
   12854:	00008067          	ret
   12858:	00008067          	ret
   1285c:	00008067          	ret
   12860:	00008067          	ret
   12864:	00008067          	ret
   12868:	00008067          	ret
   1286c:	00008067          	ret
   12870:	00008067          	ret
   12874:	00008067          	ret
   12878:	00008067          	ret
   1287c:	00008067          	ret
   12880:	00008067          	ret
   12884:	00008067          	ret
   12888:	00008067          	ret
   1288c:	00008067          	ret
   12890:	00008067          	ret
   12894:	00008067          	ret
   12898:	00008067          	ret
   1289c:	00008067          	ret
   128a0:	00008067          	ret
   128a4:	00008067          	ret
   128a8:	00008067          	ret
   128ac:	00008067          	ret
   128b0:	00008067          	ret
   128b4:	00008067          	ret
   128b8:	00008067          	ret
   128bc:	00008067          	ret
   128c0:	00008067          	ret
   128c4:	00008067          	ret
   128c8:	00008067          	ret
   128cc:	00008067          	ret
   128d0:	00008067          	ret
   128d4:	00008067          	ret
   128d8:	00008067          	ret
   128dc:	00008067          	ret
   128e0:	00008067          	ret
   128e4:	00008067          	ret
   128e8:	00008067          	ret
   128ec:	00008067          	ret
   128f0:	00008067          	ret
   128f4:	00008067          	ret
   128f8:	00008067          	ret
   128fc:	00008067          	ret
   12900:	00008067          	ret
   12904:	00008067          	ret
   12908:	00008067          	ret
   1290c:	00008067          	ret
   12910:	00008067          	ret
   12914:	00008067          	ret
   12918:	00008067          	ret
   1291c:	00008067          	ret
   12920:	00008067          	ret
   12924:	00008067          	ret
   12928:	00008067          	ret
   1292c:	00008067          	ret
   12930:	00008067          	ret
   12934:	00008067          	ret
   12938:	00008067          	ret
   1293c:	00008067          	ret
   12940:	00008067          	ret
   12944:	00008067          	ret
   12948:	00008067          	ret
   1294c:	00008067          	ret
   12950:	00008067          	ret
   12954:	00008067          	ret
   12958:	00008067          	ret
   1295c:	00008067          	ret
   12960:	00008067          	ret
   12964:	00008067          	ret
   12968:	00008067          	ret
   1296c:	00008067          	ret
   12970:	00008067          	ret
   12974:	00008067          	ret
   12978:	00008067          	ret
   1297c:	00008067          	ret
   12980:	00008067          	ret
   12984:	00008067          	ret
   12988:	00008067          	ret
   1298c:	00008067          	ret
   12990:	00008067          	ret
   12994:	00008067          	ret
   12998:	00008067          	ret
   1299c:	00008067          	ret
   129a0:	00008067          	ret
   129a4:	00008067          	ret
   129a8:	00008067          	ret
   129ac:	00008067          	ret
   129b0:	00008067          	ret
   129b4:	00008067          	ret
   129b8:	00008067          	ret
   129bc:	00008067          	ret
   129c0:	00008067          	ret
   129c4:	00008067          	ret
   129c8:	00008067          	ret
   129cc:	00008067          	ret
   129d0:	00008067          	ret
   129d4:	00008067          	ret
   129d8:	00008067          	ret
   129dc:	00008067          	ret
   129e0:	00008067          	ret
   129e4:	00008067          	ret
   129e8:	00008067          	ret
   129ec:	00008067          	ret
   129f0:	00008067          	ret
   129f4:	00008067          	ret
   129f8:	00008067          	ret
   129fc:	00008067          	ret
   12a00:	00008067          	ret
   12a04:	00008067          	ret
   12a08:	00008067          	ret
   12a0c:	00008067          	ret
   12a10:	00008067          	ret
   12a14:	00008067          	ret
   12a18:	00008067          	ret
   12a1c:	00008067          	ret
   12a20:	00008067          	ret
   12a24:	00008067          	ret
   12a28:	00008067          	ret
   12a2c:	00008067          	ret
   12a30:	00008067          	ret
   12a34:	00008067          	ret
   12a38:	00008067          	ret
   12a3c:	00008067          	ret
   12a40:	00008067          	ret
   12a44:	00008067          	ret
   12a48:	00008067          	ret
   12a4c:	00008067          	ret
   12a50:	00008067          	ret
   12a54:	00008067          	ret
   12a58:	00008067          	ret
   12a5c:	00008067          	ret
   12a60:	00008067          	ret
   12a64:	00008067          	ret
   12a68:	00008067          	ret
   12a6c:	00008067          	ret
   12a70:	00008067          	ret
   12a74:	00008067          	ret
   12a78:	00008067          	ret
   12a7c:	00008067          	ret
   12a80:	00008067          	ret
   12a84:	00008067          	ret
   12a88:	00008067          	ret
   12a8c:	00008067          	ret
   12a90:	00008067          	ret
   12a94:	00008067          	ret
   12a98:	00008067          	ret
   12a9c:	00008067          	ret
   12aa0:	00008067          	ret
   12aa4:	00008067          	ret
   12aa8:	00008067          	ret
   12aac:	00008067          	ret
   12ab0:	00008067          	ret
   12ab4:	00008067          	ret
   12ab8:	00008067          	ret
   12abc:	00008067          	ret
   12ac0:	00008067          	ret
   12ac4:	00008067          	ret
   12ac8:	00008067          	ret
   12acc:	00008067          	ret
   12ad0:	00008067          	ret
   12ad4:	00008067          	ret
   12ad8:	00008067          	ret
   12adc:	00008067          	ret
   12ae0:	00008067          	ret
   12ae4:	00008067          	ret
   12ae8:	00008067          	ret
   12aec:	00008067          	ret
   12af0:	00008067          	ret
   12af4:	00008067          	ret
   12af8:	00008067          	ret
   12afc:	00008067          	ret
   12b00:	00008067          	ret
   12b04:	00008067          	ret
   12b08:	00008067          	ret
   12b0c:	00008067          	ret
   12b10:	00008067          	ret
   12b14:	00008067          	ret
   12b18:	00008067          	ret
   12b1c:	00008067          	ret
   12b20:	00008067          	ret
   12b24:	00008067          	ret
   12b28:	00008067          	ret
   12b2c:	00008067          	ret
   12b30:	00008067          	ret
   12b34:	00008067          	ret
   12b38:	00008067          	ret
   12b3c:	00008067          	ret
   12b40:	00008067          	ret
   12b44:	00008067          	ret
   12b48:	00008067          	ret
   12b4c:	00008067          	ret
   12b50:	00008067          	ret
   12b54:	00008067          	ret
   12b58:	00008067          	ret
   12b5c:	00008067          	ret
   12b60:	00008067          	ret
   12b64:	00008067          	ret
   12b68:	00008067          	ret
   12b6c:	00008067          	ret
   12b70:	00008067          	ret
   12b74:	00008067          	ret
   12b78:	00008067          	ret
   12b7c:	00008067          	ret
   12b80:	00008067          	ret
   12b84:	00008067          	ret
   12b88:	00008067          	ret
   12b8c:	00008067          	ret
   12b90:	00008067          	ret
   12b94:	00008067          	ret
   12b98:	00008067          	ret
   12b9c:	00008067          	ret
   12ba0:	00008067          	ret
   12ba4:	00008067          	ret
   12ba8:	00008067          	ret
   12bac:	00008067          	ret
   12bb0:	00008067          	ret
   12bb4:	00008067          	ret
   12bb8:	00008067          	ret
   12bbc:	00008067          	ret
   12bc0:	00008067          	ret
   12bc4:	00008067          	ret
   12bc8:	00008067          	ret
   12bcc:	00008067          	ret
   12bd0:	00008067          	ret
   12bd4:	00008067          	ret
   12bd8:	00008067          	ret
   12bdc:	00008067          	ret
   12be0:	00008067          	ret
   12be4:	00008067          	ret
   12be8:	00008067          	ret
   12bec:	00008067          	ret
   12bf0:	00008067          	ret
   12bf4:	00008067          	ret
   12bf8:	00008067          	ret
   12bfc:	00008067          	ret
   12c00:	00008067          	ret
   12c04:	00008067          	ret
   12c08:	00008067          	ret
   12c0c:	00008067          	ret
   12c10:	00008067          	ret
   12c14:	00008067          	ret
   12c18:	00008067          	ret
   12c1c:	00008067          	ret
   12c20:	00008067          	ret
   12c24:	00008067          	ret
   12c28:	00008067          	ret
   12c2c:	00008067          	ret
   12c30:	00008067          	ret
   12c34:	00008067          	ret
   12c38:	00008067          	ret
   12c3c:	00008067          	ret
   12c40:	00008067          	ret
   12c44:	00008067          	ret
   12c48:	00008067          	ret
   12c4c:	00008067          	ret
   12c50:	00008067          	ret
   12c54:	00008067          	ret
   12c58:	00008067          	ret
   12c5c:	00008067          	ret
   12c60:	00008067          	ret
   12c64:	00008067          	ret
   12c68:	00008067          	ret
   12c6c:	00008067          	ret
   12c70:	00008067          	ret
   12c74:	00008067          	ret
   12c78:	00008067          	ret
   12c7c:	00008067          	ret
   12c80:	00008067          	ret
   12c84:	00008067          	ret
   12c88:	00008067          	ret
   12c8c:	00008067          	ret
   12c90:	00008067          	ret
   12c94:	00008067          	ret
   12c98:	00008067          	ret
   12c9c:	00008067          	ret
   12ca0:	00008067          	ret
   12ca4:	00008067          	ret
   12ca8:	00008067          	ret
   12cac:	00008067          	ret
   12cb0:	00008067          	ret
   12cb4:	00008067          	ret
   12cb8:	00008067          	ret
   12cbc:	00008067          	ret
   12cc0:	00008067          	ret
   12cc4:	00008067          	ret
   12cc8:	00008067          	ret
   12ccc:	00008067          	ret
   12cd0:	00008067          	ret
   12cd4:	00008067          	ret
   12cd8:	00008067          	ret
   12cdc:	00008067          	ret
   12ce0:	00008067          	ret
   12ce4:	00008067          	ret
   12ce8:	00008067          	ret
   12cec:	00008067          	ret
   12cf0:	00008067          	ret
   12cf4:	00008067          	ret
   12cf8:	00008067          	ret
   12cfc:	00008067          	ret
   12d00:	00008067          	ret
   12d04:	00008067          	ret
   12d08:	00008067          	ret
   12d0c:	00008067          	ret
   12d10:	00008067          	ret
   12d14:	00008067          	ret
   12d18:	00008067          	ret
   12d1c:	00008067          	ret
   12d20:	00008067          	ret
   12d24:	00008067          	ret
   12d28:	00008067          	ret
   12d2c:	00008067          	ret
   12d30:	00008067          	ret
   12d34:	00008067          	ret
   12d38:	00008067          	ret
   12d3c:	00008067          	ret
   12d40:	00008067          	ret
   12d44:	00008067          	ret
   12d48:	00008067          	ret
   12d4c:	00008067          	ret
   12d50:	00008067          	ret
   12d54:	00008067          	ret
   12d58:	00008067          	ret
   12d5c:	00008067          	ret
   12d60:	00008067          	ret
   12d64:	00008067          	ret
   12d68:	00008067          	ret
   12d6c:	00008067          	ret
   12d70:	00008067          	ret
   12d74:	00008067          	ret
   12d78:	00008067          	ret
   12d7c:	00008067          	ret
   12d80:	00008067          	ret
   12d84:	00008067          	ret
   12d88:	00008067          	ret
   12d8c:	00008067          	ret
   12d90:	00008067          	ret
   12d94:	00008067          	ret
   12d98:	00008067          	ret
   12d9c:	00008067          	ret
   12da0:	00008067          	ret
   12da4:	00008067          	ret
   12da8:	00008067          	ret
   12dac:	00008067          	ret
   12db0:	00008067          	ret
   12db4:	00008067          	ret
   12db8:	00008067          	ret
   12dbc:	00008067          	ret
   12dc0:	00008067          	ret
   12dc4:	00008067          	ret
   12dc8:	00008067          	ret
   12dcc:	00008067          	ret
   12dd0:	00008067          	ret
   12dd4:	00008067          	ret
   12dd8:	00008067          	ret
   12ddc:	00008067          	ret
   12de0:	00008067          	ret
   12de4:	00008067          	ret
   12de8:	00008067          	ret
   12dec:	00008067          	ret
   12df0:	00008067          	ret
   12df4:	00008067          	ret
   12df8:	00008067          	ret
   12dfc:	00008067          	ret
   12e00:	00008067          	ret
   12e04:	00008067          	ret
   12e08:	00008067          	ret
   12e0c:	00008067          	ret
   12e10:	00008067          	ret
   12e14:	00008067          	ret
   12e18:	00008067          	ret
   12e1c:	00008067          	ret
   12e20:	00008067          	ret
   12e24:	00008067          	ret
   12e28:	00008067          	ret
   12e2c:	00008067          	ret
   12e30:	00008067          	ret
   12e34:	00008067          	ret
   12e38:	00008067          	ret
   12e3c:	00008067          	ret
   12e40:	00008067          	ret
   12e44:	00008067          	ret
   12e48:	00008067          	ret
   12e4c:	00008067          	ret
   12e50:	00008067          	ret
   12e54:	00008067          	ret
   12e58:	00008067          	ret
   12e5c:	00008067          	ret
   12e60:	00008067          	ret
   12e64:	00008067          	ret
   12e68:	00008067          	ret
   12e6c:	00008067          	ret
   12e70:	00008067          	ret
   12e74:	00008067          	ret
   12e78:	00008067          	ret
   12e7c:	00008067          	ret
   12e80:	00008067          	ret
   12e84:	00008067          	ret
   12e88:	00008067          	ret
   12e8c:	00008067          	ret
   12e90:	00008067          	ret
   12e94:	00008067          	ret
   12e98:	00008067          	ret
   12e9c:	00008067          	ret
   12ea0:	00008067          	ret
   12ea4:	00008067          	ret
   12ea8:	00008067          	ret
   12eac:	00008067          	ret
   12eb0:	00008067          	ret
   12eb4:	00008067          	ret
   12eb8:	00008067          	ret
   12ebc:	00008067          	ret
   12ec0:	00008067          	ret
   12ec4:	00008067          	ret
   12ec8:	00008067          	ret
   12ecc:	00008067          	ret
   12ed0:	00008067          	ret
   12ed4:	00008067          	ret
   12ed8:	00008067          	ret
   12edc:	00008067          	ret
   12ee0:	00008067          	ret
   12ee4:	00008067          	ret
   12ee8:	00008067          	ret
   12eec:	00008067          	ret
   12ef0:	00008067          	ret
   12ef4:	00008067          	ret
   12ef8:	00008067          	ret
   12efc:	00008067          	ret
   12f00:	00008067          	ret
   12f04:	00008067          	ret
   12f08:	00008067          	ret
   12f0c:	00008067          	ret
   12f10:	00008067          	ret
   12f14:	00008067          	ret
   12f18:	00008067          	ret
   12f1c:	00008067          	ret
   12f20:	00008067          	ret
   12f24:	00008067          	ret
   12f28:	00008067          	ret
   12f2c:	00008067          	ret
   12f30:	00008067          	ret
   12f34:	00008067          	ret
   12f38:	00008067          	ret
   12f3c:	00008067          	ret
   12f40:	00008067          	ret
   12f44:	00008067          	ret
   12f48:	00008067          	ret
   12f4c:	00008067          	ret
   12f50:	00008067          	ret
   12f54:	00008067          	ret
   12f58:	00008067          	ret
   12f5c:	00008067          	ret
   12f60:	00008067          	ret
   12f64:	00008067          	ret
   12f68:	00008067          	ret
   12f6c:	00008067          	ret
   12f70:	00008067          	ret
   12f74:	00008067          	ret
   12f78:	00008067          	ret
   12f7c:	00008067          	ret
   12f80:	00008067          	ret
   12f84:	00008067          	ret
   12f88:	00008067          	ret
   12f8c:	00008067          	ret
   12f90:	00008067          	ret
   12f94:	00008067          	ret
   12f98:	00008067          	ret
   12f9c:	00008067          	ret
   12fa0:	00008067          	ret
   12fa4:	00008067          	ret
   12fa8:	00008067          	ret
   12fac:	00008067          	ret
   12fb0:	00008067          	ret
   12fb4:	00008067          	ret
   12fb8:	00008067          	ret
   12fbc:	00008067          	ret
   12fc0:	00008067          	ret
   12fc4:	00008067          	ret
   12fc8:	00008067          	ret
   12fcc:	00008067          	ret
   12fd0:	00008067          	ret
   12fd4:	00008067          	ret
   12fd8:	00008067          	ret
   12fdc:	00008067          	ret
   12fe0:	00008067          	ret
   12fe4:	00008067          	ret
   12fe8:	00008067          	ret
   12fec:	00008067          	ret
   12ff0:	00008067          	ret
   12ff4:	00008067          	ret
   12ff8:	00008067          	ret
   12ffc:	00008067          	ret
   13000:	00008067          	ret
   13004:	00008067          	ret
   13008:	00008067          	ret
   1300c:	00008067          	ret
   13010:	00008067          	ret
   13014:	00008067          	ret
   13018:	00008067          	ret
   1301c:	00008067          	ret
   13020:	00008067          	ret
   13024:	00008067          	ret
   13028:	00008067          	ret
   1302c:	00008067          	ret
   13030:	00008067          	ret
   13034:	00008067          	ret
   13038:	00008067          	ret
   1303c:	00008067          	ret
   13040:	00008067          	ret
   13044:	00008067          	ret
   13048:	00008067          	ret
   1304c:	00008067          	ret
   13050:	00008067          	ret
   13054:	00008067          	ret
   13058:	00008067          	ret
   1305c:	00008067          	ret
   13060:	00008067          	ret
   13064:	00008067          	ret
   13068:	00008067          	ret
   1306c:	00008067          	ret
   13070:	00008067          	ret
   13074:	00008067          	ret
   13078:	00008067          	ret
   1307c:	00008067          	ret
   13080:	00008067          	ret
   13084:	00008067          	ret
   13088:	00008067          	ret
   1308c:	00008067          	ret
   13090:	00008067          	ret
   13094:	00008067          	ret
   13098:	00008067          	ret
   1309c:	00008067          	ret
   130a0:	00008067          	ret
   130a4:	00008067          	ret
   130a8:	00008067          	ret
   130ac:	00008067          	ret
   130b0:	00008067          	ret
   130b4:	00008067          	ret
   130b8:	00008067          	ret
   130bc:	00008067          	ret
   130c0:	00008067          	ret
   130c4:	00008067          	ret
   130c8:	00008067          	ret
   130cc:	00008067          	ret
   130d0:	00008067          	ret
   130d4:	00008067          	ret
   130d8:	00008067          	ret
   130dc:	00008067          	ret
   130e0:	00008067          	ret
   130e4:	00008067          	ret
   130e8:	00008067          	ret
   130ec:	00008067          	ret
   130f0:	00008067          	ret
   130f4:	00008067          	ret
   130f8:	00008067          	ret
   130fc:	00008067          	ret
   13100:	00008067          	ret
   13104:	00008067          	ret
   13108:	00008067          	ret
   1310c:	00008067          	ret
   13110:	00008067          	ret
   13114:	00008067          	ret
   13118:	00008067          	ret
   1311c:	00008067          	ret
   13120:	00008067          	ret
   13124:	00008067          	ret
   13128:	00008067          	ret
   1312c:	00008067          	ret
   13130:	00008067          	ret
   13134:	00008067          	ret
   13138:	00008067          	ret
   1313c:	00008067          	ret
   13140:	00008067          	ret
   13144:	00008067          	ret
   13148:	00008067          	ret
   1314c:	00008067          	ret
   13150:	00008067          	ret
   13154:	00008067          	ret
   13158:	00008067          	ret
   1315c:	00008067          	ret
   13160:	00008067          	ret
   13164:	00008067          	ret
   13168:	00008067          	ret
   1316c:	00008067          	ret
   13170:	00008067          	ret
   13174:	00008067          	ret
   13178:	00008067          	ret
   1317c:	00008067          	ret
   13180:	00008067          	ret
   13184:	00008067          	ret
   13188:	00008067          	ret
   1318c:	00008067          	ret
   13190:	00008067          	ret
   13194:	00008067          	ret
   13198:	00008067          	ret
   1319c:	00008067          	ret
   131a0:	00008067          	ret
   131a4:	00008067          	ret
   131a8:	00008067          	ret
   131ac:	00008067          	ret
   131b0:	00008067          	ret
   131b4:	00008067          	ret
   131b8:	00008067          	ret
   131bc:	00008067          	ret
   131c0:	00008067          	ret
   131c4:	00008067          	ret
   131c8:	00008067          	ret
   131cc:	00008067          	ret
   131d0:	00008067          	ret
   131d4:	00008067          	ret
   131d8:	00008067          	ret
   131dc:	00008067          	ret
   131e0:	00008067          	ret
   131e4:	00008067          	ret
   131e8:	00008067          	ret
   131ec:	00008067          	ret
   131f0:	00008067          	ret
   131f4:	00008067          	ret
   131f8:	00008067          	ret
   131fc:	00008067          	ret
   13200:	00008067          	ret
   13204:	00008067          	ret
   13208:	00008067          	ret
   1320c:	00008067          	ret
   13210:	00008067          	ret
   13214:	00008067          	ret
   13218:	00008067          	ret
   1321c:	00008067          	ret
   13220:	00008067          	ret
   13224:	00008067          	ret
   13228:	00008067          	ret
   1322c:	00008067          	ret
   13230:	00008067          	ret
   13234:	00008067          	ret
   13238:	00008067          	ret
   1323c:	00008067          	ret
   13240:	00008067          	ret
   13244:	00008067          	ret
   13248:	00008067          	ret
   1324c:	00008067          	ret
   13250:	00008067          	ret
   13254:	00008067          	ret
   13258:	00008067          	ret
   1325c:	00008067          	ret
   13260:	00008067          	ret
   13264:	00008067          	ret
   13268:	00008067          	ret
   1326c:	00008067          	ret
   13270:	00008067          	ret
   13274:	00008067          	ret
   13278:	00008067          	ret
   1327c:	00008067          	ret
   13280:	00008067          	ret
   13284:	00008067          	ret
   13288:	00008067          	ret
   1328c:	00008067          	ret
   13290:	00008067          	ret
   13294:	00008067          	ret
   13298:	00008067          	ret
   1329c:	00008067          	ret
   132a0:	00008067          	ret
   132a4:	00008067          	ret
   132a8:	00008067          	ret
   132ac:	00008067          	ret
   132b0:	00008067          	ret
   132b4:	00008067          	ret
   132b8:	00008067          	ret
   132bc:	00008067          	ret
   132c0:	00008067          	ret
   132c4:	00008067          	ret
   132c8:	00008067          	ret
   132cc:	00008067          	ret
   132d0:	00008067          	ret
   132d4:	00008067          	ret
   132d8:	00008067          	ret
   132dc:	00008067          	ret
   132e0:	00008067          	ret
   132e4:	00008067          	ret
   132e8:	00008067          	ret
   132ec:	00008067          	ret
   132f0:	00008067          	ret
   132f4:	00008067          	ret
   132f8:	00008067          	ret
   132fc:	00008067          	ret
   13300:	00008067          	ret
   13304:	00008067          	ret
   13308:	00008067          	ret
   1330c:	00008067          	ret
   13310:	00008067          	ret
   13314:	00008067          	ret
   13318:	00008067          	ret
   1331c:	00008067          	ret
   13320:	00008067          	ret
   13324:	00008067          	ret
   13328:	00008067          	ret
   1332c:	00008067          	ret
   13330:	00008067          	ret
   13334:	00008067          	ret
   13338:	00008067          	ret
   1333c:	00008067          	ret
   13340:	00008067          	ret
   13344:	00008067          	ret
   13348:	00008067          	ret
   1334c:	00008067          	ret
   13350:	00008067          	ret
   13354:	00008067          	ret
   13358:	00008067          	ret
   1335c:	00008067          	ret
   13360:	00008067          	ret
   13364:	00008067          	ret
   13368:	00008067          	ret
   1336c:	00008067          	ret
   13370:	00008067          	ret
   13374:	00008067          	ret
   13378:	00008067          	ret
   1337c:	00008067          	ret
   13380:	00008067          	ret
   13384:	00008067          	ret
   13388:	00008067          	ret
   1338c:	00008067          	ret
   13390:	00008067          	ret
   13394:	00008067          	ret
   13398:	00008067          	ret
   1339c:	00008067          	ret
   133a0:	00008067          	ret
   133a4:	00008067          	ret
   133a8:	00008067          	ret
   133ac:	00008067          	ret
   133b0:	00008067          	ret
   133b4:	00008067          	ret
   133b8:	00008067          	ret
   133bc:	00008067          	ret
   133c0:	00008067          	ret
   133c4:	00008067          	ret
   133c8:	00008067          	ret
   133cc:	00008067          	ret
   133d0:	00008067          	ret
   133d4:	00008067          	ret
   133d8:	00008067          	ret
   133dc:	00008067          	ret
   133e0:	00008067          	ret
   133e4:	00008067          	ret
   133e8:	00008067          	ret
   133ec:	00008067          	ret
   133f0:	00008067          	ret
   133f4:	00008067          	ret
   133f8:	00008067          	ret
   133fc:	00008067          	ret
   13400:	00008067          	ret
   13404:	00008067          	ret
   13408:	00008067          	ret
   1340c:	00008067          	ret
   13410:	00008067          	ret
   13414:	00008067          	ret
   13418:	00008067          	ret
   1341c:	00008067          	ret
   13420:	00008067          	ret
   13424:	00008067          	ret
   13428:	00008067          	ret
   1342c:	00008067          	ret
   13430:	00008067          	ret
   13434:	00008067          	ret
   13438:	00008067          	ret
   1343c:	00008067          	ret
   13440:	00008067          	ret
   13444:	00008067          	ret
   13448:	00008067          	ret
   1344c:	00008067          	ret
   13450:	00008067          	ret
   13454:	00008067          	ret
   13458:	00008067          	ret
   1345c:	00008067          	ret
   13460:	00008067          	ret
   13464:	00008067          	ret
   13468:	00008067          	ret
   1346c:	00008067          	ret
   13470:	00008067          	ret
   13474:	00008067          	ret
   13478:	00008067          	ret
   1347c:	00008067          	ret
   13480:	00008067          	ret
   13484:	00008067          	ret
   13488:	00008067          	ret
   1348c:	00008067          	ret
   13490:	00008067          	ret
   13494:	00008067          	ret
   13498:	00008067          	ret
   1349c:	00008067          	ret
   134a0:	00008067          	ret
   134a4:	00008067          	ret
   134a8:	00008067          	ret
   134ac:	00008067          	ret
   134b0:	00008067          	ret
   134b4:	00008067          	ret
   134b8:	00008067          	ret
   134bc:	00008067          	ret
   134c0:	00008067          	ret
   134c4:	00008067          	ret
   134c8:	00008067          	ret
   134cc:	00008067          	ret
   134d0:	00008067          	ret
   134d4:	00008067          	ret
   134d8:	00008067          	ret
   134dc:	00008067          	ret
   134e0:	00008067          	ret
   134e4:	00008067          	ret
   134e8:	00008067          	ret
   134ec:	00008067          	ret
   134f0:	00008067          	ret
   134f4:	00008067          	ret
   134f8:	00008067          	ret
   134fc:	00008067          	ret
   13500:	00008067          	ret
   13504:	00008067          	ret
   13508:	00008067          	ret
   1350c:	00008067          	ret
   13510:	00008067          	ret
   13514:	00008067          	ret
   13518:	00008067          	ret
   1351c:	00008067          	ret
   13520:	00008067          	ret
   13524:	00008067          	ret
   13528:	00008067          	ret
   1352c:	00008067          	ret
   13530:	00008067          	ret
   13534:	00008067          	ret
   13538:	00008067          	ret
   1353c:	00008067          	ret
   13540:	00008067          	ret
   13544:	00008067          	ret
   13548:	00008067          	ret
   1354c:	00008067          	ret
   13550:	00008067          	ret
   13554:	00008067          	ret
   13558:	00008067          	ret
   1355c:	00008067          	ret
   13560:	00008067          	ret
   13564:	00008067          	ret
   13568:	00008067          	ret
   1356c:	00008067          	ret
   13570:	00008067          	ret
   13574:	00008067          	ret
   13578:	00008067          	ret
   1357c:	00008067          	ret
   13580:	00008067          	ret
   13584:	00008067          	ret
   13588:	00008067          	ret
   1358c:	00008067          	ret
   13590:	00008067          	ret
   13594:	00008067          	ret
   13598:	00008067          	ret
   1359c:	00008067          	ret
   135a0:	00008067          	ret
   135a4:	00008067          	ret
   135a8:	00008067          	ret
   135ac:	00008067          	ret
   135b0:	00008067          	ret
   135b4:	00008067          	ret
   135b8:	00008067          	ret
   135bc:	00008067          	ret
   135c0:	00008067          	ret
   135c4:	00008067          	ret
   135c8:	00008067          	ret
   135cc:	00008067          	ret
   135d0:	00008067          	ret
   135d4:	00008067          	ret
   135d8:	00008067          	ret
   135dc:	00008067          	ret
   135e0:	00008067          	ret
   135e4:	00008067          	ret
   135e8:	00008067          	ret
   135ec:	00008067          	ret
   135f0:	00008067          	ret
   135f4:	00008067          	ret
   135f8:	00008067          	ret
   135fc:	00008067          	ret
   13600:	00008067          	ret
   13604:	00008067          	ret
   13608:	00008067          	ret
   1360c:	00008067          	ret
   13610:	00008067          	ret
   13614:	00008067          	ret
   13618:	00008067          	ret
   1361c:	00008067          	ret
   13620:	00008067          	ret
   13624:	00008067          	ret
   13628:	00008067          	ret
   1362c:	00008067          	ret
   13630:	00008067          	ret
   13634:	00008067          	ret
   13638:	00008067          	ret
   1363c:	00008067          	ret
   13640:	00008067          	ret
   13644:	00008067          	ret
   13648:	00008067          	ret
   1364c:	00008067          	ret
   13650:	00008067          	ret
   13654:	00008067          	ret
   13658:	00008067          	ret
   1365c:	00008067          	ret
   13660:	00008067          	ret
   13664:	00008067          	ret
   13668:	00008067          	ret
   1366c:	00008067          	ret
   13670:	00008067          	ret
   13674:	00008067          	ret
   13678:	00008067          	ret
   1367c:	00008067          	ret
   13680:	00008067          	ret
   13684:	00008067          	ret
   13688:	00008067          	ret
   1368c:	00008067          	ret
   13690:	00008067          	ret
   13694:	00008067          	ret
   13698:	00008067          	ret
   1369c:	00008067          	ret
   136a0:	00008067          	ret
   136a4:	00008067          	ret
   136a8:	00008067          	ret
   136ac:	00008067          	ret
   136b0:	00008067          	ret
   136b4:	00008067          	ret
   136b8:	00008067          	ret
   136bc:	00008067          	ret
   136c0:	00008067          	ret
   136c4:	00008067          	ret
   136c8:	00008067          	ret
   136cc:	00008067          	ret
   136d0:	00008067          	ret
   136d4:	00008067          	ret
   136d8:	00008067          	ret
   136dc:	00008067          	ret
   136e0:	00008067          	ret
   136e4:	00008067          	ret
   136e8:	00008067          	ret
   136ec:	00008067          	ret
   136f0:	00008067          	ret
   136f4:	00008067          	ret
   136f8:	00008067          	ret
   136fc:	00008067          	ret
   13700:	00008067          	ret
   13704:	00008067          	ret
   13708:	00008067          	ret
   1370c:	00008067          	ret
   13710:	00008067          	ret
   13714:	00008067          	ret
   13718:	00008067          	ret
   1371c:	00008067          	ret
   13720:	00008067          	ret
   13724:	00008067          	ret
   13728:	00008067          	ret
   1372c:	00008067          	ret
   13730:	00008067          	ret
   13734:	00008067          	ret
   13738:	00008067          	ret
   1373c:	00008067          	ret
   13740:	00008067          	ret
   13744:	00008067          	ret
   13748:	00008067          	ret
   1374c:	00008067          	ret
   13750:	00008067          	ret
   13754:	00008067          	ret
   13758:	00008067          	ret
   1375c:	00008067          	ret
   13760:	00008067          	ret
   13764:	00008067          	ret
   13768:	00008067          	ret
   1376c:	00008067          	ret
   13770:	00008067          	ret
   13774:	00008067          	ret
   13778:	00008067          	ret
   1377c:	00008067          	ret
   13780:	00008067          	ret
   13784:	00008067          	ret
   13788:	00008067          	ret
   1378c:	00008067          	ret
   13790:	00008067          	ret
   13794:	00008067          	ret
   13798:	00008067          	ret
   1379c:	00008067          	ret
   137a0:	00008067          	ret
   137a4:	00008067          	ret
   137a8:	00008067          	ret
   137ac:	00008067          	ret
   137b0:	00008067          	ret
   137b4:	00008067          	ret
   137b8:	00008067          	ret
   137bc:	00008067          	ret
   137c0:	00008067          	ret
   137c4:	00008067          	ret
   137c8:	00008067          	ret
   137cc:	00008067          	ret
   137d0:	00008067          	ret
   137d4:	00008067          	ret
   137d8:	00008067          	ret
   137dc:	00008067          	ret
   137e0:	00008067          	ret
   137e4:	00008067          	ret
   137e8:	00008067          	ret
   137ec:	00008067          	ret
   137f0:	00008067          	ret
   137f4:	00008067          	ret
   137f8:	00008067          	ret
   137fc:	00008067          	ret
   13800:	00008067          	ret
   13804:	00008067          	ret
   13808:	00008067          	ret
   1380c:	00008067          	ret
   13810:	00008067          	ret
   13814:	00008067          	ret
   13818:	00008067          	ret
   1381c:	00008067          	ret
   13820:	00008067          	ret
   13824:	00008067          	ret
   13828:	00008067          	ret
   1382c:	00008067          	ret
   13830:	00008067          	ret
   13834:	00008067          	ret
   13838:	00008067          	ret
   1383c:	00008067          	ret
   13840:	00008067          	ret
   13844:	00008067          	ret
   13848:	00008067          	ret
   1384c:	00008067          	ret
   13850:	00008067          	ret
   13854:	00008067          	ret
   13858:	00008067          	ret
   1385c:	00008067          	ret
   13860:	00008067          	ret
   13864:	00008067          	ret
   13868:	00008067          	ret
   1386c:	00008067          	ret
   13870:	00008067          	ret
   13874:	00008067          	ret
   13878:	00008067          	ret
   1387c:	00008067          	ret
   13880:	00008067          	ret
   13884:	00008067          	ret
   13888:	00008067          	ret
   1388c:	00008067          	ret
   13890:	00008067          	ret
   13894:	00008067          	ret
   13898:	00008067          	ret
   1389c:	00008067          	ret
   138a0:	00008067          	ret
   138a4:	00008067          	ret
   138a8:	00008067          	ret
   138ac:	00008067          	ret
   138b0:	00008067          	ret
   138b4:	00008067          	ret
   138b8:	00008067          	ret
   138bc:	00008067          	ret
   138c0:	00008067          	ret
   138c4:	00008067          	ret
   138c8:	00008067          	ret
   138cc:	00008067          	ret
   138d0:	00008067          	ret
   138d4:	00008067          	ret
   138d8:	00008067          	ret
   138dc:	00008067          	ret
   138e0:	00008067          	ret
   138e4:	00008067          	ret
   138e8:	00008067          	ret
   138ec:	00008067          	ret
   138f0:	00008067          	ret
   138f4:	00008067          	ret
   138f8:	00008067          	ret
   138fc:	00008067          	ret
   13900:	00008067          	ret
   13904:	00008067          	ret
   13908:	00008067          	ret
   1390c:	00008067          	ret
   13910:	00008067          	ret
   13914:	00008067          	ret
   13918:	00008067          	ret
   1391c:	00008067          	ret
   13920:	00008067          	ret
   13924:	00008067          	ret
   13928:	00008067          	ret
   1392c:	00008067          	ret
   13930:	00008067          	ret
   13934:	00008067          	ret
   13938:	00008067          	ret
   1393c:	00008067          	ret
   13940:	00008067          	ret
   13944:	00008067          	ret
   13948:	00008067          	ret
   1394c:	00008067          	ret
   13950:	00008067          	ret
   13954:	00008067          	ret
   13958:	00008067          	ret
   1395c:	00008067          	ret
   13960:	00008067          	ret
   13964:	00008067          	ret
   13968:	00008067          	ret
   1396c:	00008067          	ret
   13970:	00008067          	ret
   13974:	00008067          	ret
   13978:	00008067          	ret
   1397c:	00008067          	ret
   13980:	00008067          	ret
   13984:	00008067          	ret
   13988:	00008067          	ret
   1398c:	00008067          	ret
   13990:	00008067          	ret
   13994:	00008067          	ret
   13998:	00008067          	ret
   1399c:	00008067          	ret
   139a0:	00008067          	ret
   139a4:	00008067          	ret
   139a8:	00008067          	ret
   139ac:	00008067          	ret
   139b0:	00008067          	ret
   139b4:	00008067          	ret
   139b8:	00008067          	ret
   139bc:	00008067          	ret
   139c0:	00008067          	ret
   139c4:	00008067          	ret
   139c8:	00008067          	ret
   139cc:	00008067          	ret
   139d0:	00008067          	ret
   139d4:	00008067          	ret
   139d8:	00008067          	ret
   139dc:	00008067          	ret
   139e0:	00008067          	ret
   139e4:	00008067          	ret
   139e8:	00008067          	ret
   139ec:	00008067          	ret
   139f0:	00008067          	ret
   139f4:	00008067          	ret
   139f8:	00008067          	ret
   139fc:	00008067          	ret
   13a00:	00008067          	ret
   13a04:	00008067          	ret
   13a08:	00008067          	ret
   13a0c:	00008067          	ret
   13a10:	00008067          	ret
   13a14:	00008067          	ret
   13a18:	00008067          	ret
   13a1c:	00008067          	ret
   13a20:	00008067          	ret
   13a24:	00008067          	ret
   13a28:	00008067          	ret
   13a2c:	00008067          	ret
   13a30:	00008067          	ret
   13a34:	00008067          	ret
   13a38:	00008067          	ret
   13a3c:	00008067          	ret
   13a40:	00008067          	ret
   13a44:	00008067          	ret
   13a48:	00008067          	ret
   13a4c:	00008067          	ret
   13a50:	00008067          	ret
   13a54:	00008067          	ret
   13a58:	00008067          	ret
   13a5c:	00008067          	ret
   13a60:	00008067          	ret
   13a64:	00008067          	ret
   13a68:	00008067          	ret
   13a6c:	00008067          	ret
   13a70:	00008067          	ret
   13a74:	00008067          	ret
   13a78:	00008067          	ret
   13a7c:	00008067          	ret
   13a80:	00008067          	ret
   13a84:	00008067          	ret
   13a88:	00008067          	ret
   13a8c:	00008067          	ret
   13a90:	00008067          	ret
   13a94:	00008067          	ret
   13a98:	00008067          	ret
   13a9c:	00008067          	ret
   13aa0:	00008067          	ret
   13aa4:	00008067          	ret
   13aa8:	00008067          	ret
   13aac:	00008067          	ret
   13ab0:	00008067          	ret
   13ab4:	00008067          	ret
   13ab8:	00008067          	ret
   13abc:	00008067          	ret
   13ac0:	00008067          	ret
   13ac4:	00008067          	ret
   13ac8:	00008067          	ret
   13acc:	00008067          	ret
   13ad0:	00008067          	ret
   13ad4:	00008067          	ret
   13ad8:	00008067          	ret
   13adc:	00008067          	ret
   13ae0:	00008067          	ret
   13ae4:	00008067          	ret
   13ae8:	00008067          	ret
   13aec:	00008067          	ret
   13af0:	00008067          	ret
   13af4:	00008067          	ret
   13af8:	00008067          	ret
   13afc:	00008067          	ret
   13b00:	00008067          	ret
   13b04:	00008067          	ret
   13b08:	00008067          	ret
   13b0c:	00008067          	ret
   13b10:	00008067          	ret
   13b14:	00008067          	ret
   13b18:	00008067          	ret
   13b1c:	00008067          	ret
   13b20:	00008067          	ret
   13b24:	00008067          	ret
   13b28:	00008067          	ret
   13b2c:	00008067          	ret
   13b30:	00008067          	ret
   13b34:	00008067          	ret
   13b38:	00008067          	ret
   13b3c:	00008067          	ret
   13b40:	00008067          	ret
   13b44:	00008067          	ret
   13b48:	00008067          	ret
   13b4c:	00008067          	ret
   13b50:	00008067          	ret
   13b54:	00008067          	ret
   13b58:	00008067          	ret
   13b5c:	00008067          	ret
   13b60:	00008067          	ret
   13b64:	00008067          	ret
   13b68:	00008067          	ret
   13b6c:	00008067          	ret
   13b70:	00008067          	ret
   13b74:	00008067          	ret
   13b78:	00008067          	ret
   13b7c:	00008067          	ret
   13b80:	00008067          	ret
   13b84:	00008067          	ret
   13b88:	00008067          	ret
   13b8c:	00008067          	ret
   13b90:	00008067          	ret
   13b94:	00008067          	ret
   13b98:	00008067          	ret
   13b9c:	00008067          	ret
   13ba0:	00008067          	ret
   13ba4:	00008067          	ret
   13ba8:	00008067          	ret
   13bac:	00008067          	ret
   13bb0:	00008067          	ret
   13bb4:	00008067          	ret
   13bb8:	00008067          	ret
   13bbc:	00008067          	ret
   13bc0:	00008067          	ret
   13bc4:	00008067          	ret
   13bc8:	00008067          	ret
   13bcc:	00008067          	ret
   13bd0:	00008067          	ret
   13bd4:	00008067          	ret
   13bd8:	00008067          	ret
   13bdc:	00008067          	ret
   13be0:	00008067          	ret
   13be4:	00008067          	ret
   13be8:	00008067          	ret
   13bec:	00008067          	ret
   13bf0:	00008067          	ret
   13bf4:	00008067          	ret
   13bf8:	00008067          	ret
   13bfc:	00008067          	ret
   13c00:	00008067          	ret
   13c04:	00008067          	ret
   13c08:	00008067          	ret
   13c0c:	00008067          	ret
   13c10:	00008067          	ret
   13c14:	00008067          	ret
   13c18:	00008067          	ret
   13c1c:	00008067          	ret
   13c20:	00008067          	ret
   13c24:	00008067          	ret
   13c28:	00008067          	ret
   13c2c:	00008067          	ret
   13c30:	00008067          	ret
   13c34:	00008067          	ret
   13c38:	00008067          	ret
   13c3c:	00008067          	ret
   13c40:	00008067          	ret
   13c44:	00008067          	ret
   13c48:	00008067          	ret
   13c4c:	00008067          	ret
   13c50:	00008067          	ret
   13c54:	00008067          	ret
   13c58:	00008067          	ret
   13c5c:	00008067          	ret
   13c60:	00008067          	ret
   13c64:	00008067          	ret
   13c68:	00008067          	ret
   13c6c:	00008067          	ret
   13c70:	00008067          	ret
   13c74:	00008067          	ret
   13c78:	00008067          	ret
   13c7c:	00008067          	ret
   13c80:	00008067          	ret
   13c84:	00008067          	ret
   13c88:	00008067          	ret
   13c8c:	00008067          	ret
   13c90:	00008067          	ret
   13c94:	00008067          	ret
   13c98:	00008067          	ret
   13c9c:	00008067          	ret
   13ca0:	00008067          	ret
   13ca4:	00008067          	ret
   13ca8:	00008067          	ret
   13cac:	00008067          	ret
   13cb0:	00008067          	ret
   13cb4:	00008067          	ret
   13cb8:	00008067          	ret
   13cbc:	00008067          	ret
   13cc0:	00008067          	ret
   13cc4:	00008067          	ret
   13cc8:	00008067          	ret
   13ccc:	00008067          	ret
   13cd0:	00008067          	ret
   13cd4:	00008067          	ret
   13cd8:	00008067          	ret
   13cdc:	00008067          	ret
   13ce0:	00008067          	ret
   13ce4:	00008067          	ret
   13ce8:	00008067          	ret
   13cec:	00008067          	ret
   13cf0:	00008067          	ret
   13cf4:	00008067          	ret
   13cf8:	00008067          	ret
   13cfc:	00008067          	ret
   13d00:	00008067          	ret
   13d04:	00008067          	ret
   13d08:	00008067          	ret
   13d0c:	00008067          	ret
   13d10:	00008067          	ret
   13d14:	00008067          	ret
   13d18:	00008067          	ret
   13d1c:	00008067          	ret
   13d20:	00008067          	ret
   13d24:	00008067          	ret
   13d28:	00008067          	ret
   13d2c:	00008067          	ret
   13d30:	00008067          	ret
   13d34:	00008067          	ret
   13d38:	00008067          	ret
   13d3c:	00008067          	ret
   13d40:	00008067          	ret
   13d44:	00008067          	ret
   13d48:	00008067          	ret
   13d4c:	00008067          	ret
   13d50:	00008067          	ret
   13d54:	00008067          	ret
   13d58:	00008067          	ret
   13d5c:	00008067          	ret
   13d60:	00008067          	ret
   13d64:	00008067          	ret
   13d68:	00008067          	ret
   13d6c:	00008067          	ret
   13d70:	00008067          	ret
   13d74:	00008067          	ret
   13d78:	00008067          	ret
   13d7c:	00008067          	ret
   13d80:	00008067          	ret
   13d84:	00008067          	ret
   13d88:	00008067          	ret
   13d8c:	00008067          	ret
   13d90:	00008067          	ret
   13d94:	00008067          	ret
   13d98:	00008067          	ret
   13d9c:	00008067          	ret
   13da0:	00008067          	ret
   13da4:	00008067          	ret
   13da8:	00008067          	ret
   13dac:	00008067          	ret
   13db0:	00008067          	ret
   13db4:	00008067          	ret
   13db8:	00008067          	ret
   13dbc:	00008067          	ret
   13dc0:	00008067          	ret
   13dc4:	00008067          	ret
   13dc8:	00008067          	ret
   13dcc:	00008067          	ret
   13dd0:	00008067          	ret
   13dd4:	00008067          	ret
   13dd8:	00008067          	ret
   13ddc:	00008067          	ret
   13de0:	00008067          	ret
   13de4:	00008067          	ret
   13de8:	00008067          	ret
   13dec:	00008067          	ret
   13df0:	00008067          	ret
   13df4:	00008067          	ret
   13df8:	00008067          	ret
   13dfc:	00008067          	ret
   13e00:	00008067          	ret
   13e04:	00008067          	ret
   13e08:	00008067          	ret
   13e0c:	00008067          	ret
   13e10:	00008067          	ret
   13e14:	00008067          	ret
   13e18:	00008067          	ret
   13e1c:	00008067          	ret
   13e20:	00008067          	ret
   13e24:	00008067          	ret
   13e28:	00008067          	ret
   13e2c:	00008067          	ret
   13e30:	00008067          	ret
   13e34:	00008067          	ret
   13e38:	00008067          	ret
   13e3c:	00008067          	ret
   13e40:	00008067          	ret
   13e44:	00008067          	ret
   13e48:	00008067          	ret
   13e4c:	00008067          	ret
   13e50:	00008067          	ret
   13e54:	00008067          	ret
   13e58:	00008067          	ret
   13e5c:	00008067          	ret
   13e60:	00008067          	ret
   13e64:	00008067          	ret
   13e68:	00008067          	ret
   13e6c:	00008067          	ret
   13e70:	00008067          	ret
   13e74:	00008067          	ret
   13e78:	00008067          	ret
   13e7c:	00008067          	ret
   13e80:	00008067          	ret
   13e84:	00008067          	ret
   13e88:	00008067          	ret
   13e8c:	00008067          	ret
   13e90:	00008067          	ret
   13e94:	00008067          	ret
   13e98:	00008067          	ret
   13e9c:	00008067          	ret
   13ea0:	00008067          	ret
   13ea4:	00008067          	ret
   13ea8:	00008067          	ret
   13eac:	00008067          	ret
   13eb0:	00008067          	ret
   13eb4:	00008067          	ret
   13eb8:	00008067          	ret
   13ebc:	00008067          	ret
   13ec0:	00008067          	ret
   13ec4:	00008067          	ret
   13ec8:	00008067          	ret
   13ecc:	00008067          	ret
   13ed0:	00008067          	ret
   13ed4:	00008067          	ret
   13ed8:	00008067          	ret
   13edc:	00008067          	ret
   13ee0:	00008067          	ret
   13ee4:	00008067          	ret
   13ee8:	00008067          	ret
   13eec:	00008067          	ret
   13ef0:	00008067          	ret
   13ef4:	00008067          	ret
   13ef8:	00008067          	ret
   13efc:	00008067          	ret
   13f00:	00008067          	ret
   13f04:	00008067          	ret
   13f08:	00008067          	ret
   13f0c:	00008067          	ret
   13f10:	00008067          	ret
   13f14:	00008067          	ret
   13f18:	00008067          	ret
   13f1c:	00008067          	ret
   13f20:	00008067          	ret
   13f24:	00008067          	ret
   13f28:	00008067          	ret
   13f2c:	00008067          	ret
   13f30:	00008067          	ret
   13f34:	00008067          	ret
   13f38:	00008067          	ret
   13f3c:	00008067          	ret
   13f40:	00008067          	ret
   13f44:	00008067          	ret
   13f48:	00008067          	ret
   13f4c:	00008067          	ret
   13f50:	00008067          	ret
   13f54:	00008067          	ret
   13f58:	00008067          	ret
   13f5c:	00008067          	ret
   13f60:	00008067          	ret
   13f64:	00008067          	ret
   13f68:	00008067          	ret
   13f6c:	00008067          	ret
   13f70:	00008067          	ret
   13f74:	00008067          	ret
   13f78:	00008067          	ret
   13f7c:	00008067          	ret
   13f80:	00008067          	ret
   13f84:	00008067          	ret
   13f88:	00008067          	ret
   13f8c:	00008067          	ret
   13f90:	00008067          	ret
   13f94:	00008067          	ret
   13f98:	00008067          	ret
   13f9c:	00008067          	ret
   13fa0:	00008067          	ret
   13fa4:	00008067          	ret
   13fa8:	00008067          	ret
   13fac:	00008067          	ret
   13fb0:	00008067          	ret
   13fb4:	00008067          	ret
   13fb8:	00008067          	ret
   13fbc:	00008067          	ret
   13fc0:	00008067          	ret
   13fc4:	00008067          	ret
   13fc8:	00008067          	ret
   13fcc:	00008067          	ret
   13fd0:	00008067          	ret
   13fd4:	00008067          	ret
   13fd8:	00008067          	ret
   13fdc:	00008067          	ret
   13fe0:	00008067          	ret
   13fe4:	00008067          	ret
   13fe8:	00008067          	ret
   13fec:	00008067          	ret
   13ff0:	00008067          	ret
   13ff4:	00008067          	ret
   13ff8:	00008067          	ret
   13ffc:	00008067          	ret
   14000:	00008067          	ret
   14004:	00008067          	ret
   14008:	00008067          	ret
   1400c:	00008067          	ret
   14010:	00008067          	ret
   14014:	00008067          	ret
   14018:	00008067          	ret
   1401c:	00008067          	ret
   14020:	00008067          	ret
   14024:	00008067          	ret
   14028:	00008067          	ret
   1402c:	00008067          	ret
   14030:	00008067          	ret
   14034:	00008067          	ret
   14038:	00008067          	ret
   1403c:	00008067          	ret
   14040:	00008067          	ret
   14044:	00008067          	ret
   14048:	00008067          	ret
   1404c:	00008067          	ret
   14050:	00008067          	ret
   14054:	00008067          	ret
   14058:	00008067          	ret
   1405c:	00008067          	ret
   14060:	00008067          	ret
   14064:	00008067          	ret
   14068:	00008067          	ret
   1406c:	00008067          	ret
   14070:	00008067          	ret
   14074:	00008067          	ret
   14078:	00008067          	ret
   1407c:	00008067          	ret
   14080:	00008067          	ret
   14084:	00008067          	ret
   14088:	00008067          	ret
   1408c:	00008067          	ret
   14090:	00008067          	ret
   14094:	00008067          	ret
   14098:	00008067          	ret
   1409c:	00008067          	ret
   140a0:	00008067          	ret
   140a4:	00008067          	ret
   140a8:	00008067          	ret
   140ac:	00008067          	ret
   140b0:	00008067          	ret
   140b4:	00008067          	ret
   140b8:	00008067          	ret
   140bc:	00008067          	ret
   140c0:	00008067          	ret
   140c4:	00008067          	ret
   140c8:	00008067          	ret
   140cc:	00008067          	ret
   140d0:	00008067          	ret
   140d4:	00008067          	ret
   140d8:	00008067          	ret
   140dc:	00008067          	ret
   140e0:	00008067          	ret
   140e4:	00008067          	ret
   140e8:	00008067          	ret
   140ec:	00008067          	ret
   140f0:	00008067          	ret
   140f4:	00008067          	ret
   140f8:	00008067          	ret
   140fc:	00008067          	ret
   14100:	00008067          	ret
   14104:	00008067          	ret
   14108:	00008067          	ret
   1410c:	00008067          	ret
   14110:	00008067          	ret
   14114:	00008067          	ret
   14118:	00008067          	ret
   1411c:	00008067          	ret
   14120:	00008067          	ret
   14124:	00008067          	ret
   14128:	00008067          	ret
   1412c:	00008067          	ret
   14130:	00008067          	ret
   14134:	00008067          	ret
   14138:	00008067          	ret
   1413c:	00008067          	ret
   14140:	00008067          	ret
   14144:	00008067          	ret
   14148:	00008067          	ret
   1414c:	00008067          	ret
   14150:	00008067          	ret
   14154:	00008067          	ret
   14158:	00008067          	ret
   1415c:	00008067          	ret
   14160:	00008067          	ret
   14164:	00008067          	ret
   14168:	00008067          	ret
   1416c:	00008067          	ret
   14170:	00008067          	ret
   14174:	00008067          	ret
   14178:	00008067          	ret
   1417c:	00008067          	ret
   14180:	00008067          	ret
   14184:	00008067          	ret
   14188:	00008067          	ret
   1418c:	00008067          	ret
   14190:	00008067          	ret
   14194:	00008067          	ret
   14198:	00008067          	ret
   1419c:	00008067          	ret
   141a0:	00008067          	ret
   141a4:	00008067          	ret
   141a8:	00008067          	ret
   141ac:	00008067          	ret
   141b0:	00008067          	ret
   141b4:	00008067          	ret
   141b8:	00008067          	ret
   141bc:	00008067          	ret
   141c0:	00008067          	ret
   141c4:	00008067          	ret
   141c8:	00008067          	ret
   141cc:	00008067          	ret
   141d0:	00008067          	ret
   141d4:	00008067          	ret
   141d8:	00008067          	ret
   141dc:	00008067          	ret
   141e0:	00008067          	ret
   141e4:	00008067          	ret
   141e8:	00008067          	ret
   141ec:	00008067          	ret
   141f0:	00008067          	ret
   141f4:	00008067          	ret
   141f8:	00008067          	ret
   141fc:	00008067          	ret
   14200:	00008067          	ret
   14204:	00008067          	ret
   14208:	00008067          	ret
   1420c:	00008067          	ret
   14210:	00008067          	ret
   14214:	00008067          	ret
   14218:	00008067          	ret
   1421c:	00008067          	ret
   14220:	00008067          	ret
   14224:	00008067          	ret
   14228:	00008067          	ret
   1422c:	00008067          	ret
   14230:	00008067          	ret
   14234:	00008067          	ret
   14238:	00008067          	ret
   1423c:	00008067          	ret
   14240:	00008067          	ret
   14244:	00008067          	ret
   14248:	00008067          	ret
   1424c:	00008067          	ret
   14250:	00008067          	ret
   14254:	00008067          	ret
   14258:	00008067          	ret
   1425c:	00008067          	ret
   14260:	00008067          	ret
   14264:	00008067          	ret
   14268:	00008067          	ret
   1426c:	00008067          	ret
   14270:	00008067          	ret
   14274:	00008067          	ret
   14278:	00008067          	ret
   1427c:	00008067          	ret
   14280:	00008067          	ret
   14284:	00008067          	ret
   14288:	00008067          	ret
   1428c:	00008067          	ret
   14290:	00008067          	ret
   14294:	00008067          	ret
   14298:	00008067          	ret
   1429c:	00008067          	ret
   142a0:	00008067          	ret
   142a4:	00008067          	ret
   142a8:	00008067          	ret
   142ac:	00008067          	ret
   142b0:	00008067          	ret
   142b4:	00008067          	ret
   142b8:	00008067          	ret
   142bc:	00008067          	ret
   142c0:	00008067          	ret
   142c4:	00008067          	ret
   142c8:	00008067          	ret
   142cc:	00008067          	ret
   142d0:	00008067          	ret
   142d4:	00008067          	ret
   142d8:	00008067          	ret
   142dc:	00008067          	ret
   142e0:	00008067          	ret
   142e4:	00008067          	ret
   142e8:	00008067          	ret
   142ec:	00008067          	ret
   142f0:	00008067          	ret
   142f4:	00008067          	ret
   142f8:	00008067          	ret
   142fc:	00008067          	ret
   14300:	00008067          	ret
   14304:	00008067          	ret
   14308:	00008067          	ret
   1430c:	00008067          	ret
   14310:	00008067          	ret
   14314:	00008067          	ret
   14318:	00008067          	ret
   1431c:	00008067          	ret
   14320:	00008067          	ret
   14324:	00008067          	ret
   14328:	00008067          	ret
   1432c:	00008067          	ret
   14330:	00008067          	ret
   14334:	00008067          	ret
   14338:	00008067          	ret
   1433c:	00008067          	ret
   14340:	00008067          	ret
   14344:	00008067          	ret
   14348:	00008067          	ret
   1434c:	00008067          	ret
   14350:	00008067          	ret
   14354:	00008067          	ret
   14358:	00008067          	ret
   1435c:	00008067          	ret
   14360:	00008067          	ret
   14364:	00008067          	ret
   14368:	00008067          	ret
   1436c:	00008067          	ret
   14370:	00008067          	ret
   14374:	00008067          	ret
   14378:	00008067          	ret
   1437c:	00008067          	ret
   14380:	00008067          	ret
   14384:	00008067          	ret
   14388:	00008067          	ret
   1438c:	00008067          	ret
   14390:	00008067          	ret
   14394:	00008067          	ret
   14398:	00008067          	ret
   1439c:	00008067          	ret
   143a0:	00008067          	ret
   143a4:	00008067          	ret
   143a8:	00008067          	ret
   143ac:	00008067          	ret
   143b0:	00008067          	ret
   143b4:	00008067          	ret
   143b8:	00008067          	ret
   143bc:	00008067          	ret
   143c0:	00008067          	ret
   143c4:	00008067          	ret
   143c8:	00008067          	ret
   143cc:	00008067          	ret
   143d0:	00008067          	ret
   143d4:	00008067          	ret
   143d8:	00008067          	ret
   143dc:	00008067          	ret
   143e0:	00008067          	ret
   143e4:	00008067          	ret
   143e8:	00008067          	ret
   143ec:	00008067          	ret
   143f0:	00008067          	ret
   143f4:	00008067          	ret
   143f8:	00008067          	ret
   143fc:	00008067          	ret
   14400:	00008067          	ret
   14404:	00008067          	ret
   14408:	00008067          	ret
   1440c:	00008067          	ret
   14410:	00008067          	ret
   14414:	00008067          	ret
   14418:	00008067          	ret
   1441c:	00008067          	ret
   14420:	00008067          	ret
   14424:	00008067          	ret
   14428:	00008067          	ret
   1442c:	00008067          	ret
   14430:	00008067          	ret
   14434:	00008067          	ret
   14438:	00008067          	ret
   1443c:	00008067          	ret
   14440:	00008067          	ret
   14444:	00008067          	ret
   14448:	00008067          	ret
   1444c:	00008067          	ret
   14450:	00008067          	ret
   14454:	00008067          	ret
   14458:	00008067          	ret
   1445c:	00008067          	ret
   14460:	00008067          	ret
   14464:	00008067          	ret
   14468:	00008067          	ret
   1446c:	00008067          	ret
   14470:	00008067          	ret
   14474:	00008067          	ret
   14478:	00008067          	ret
   1447c:	00008067          	ret
   14480:	00008067          	ret
   14484:	00008067          	ret
   14488:	00008067          	ret
   1448c:	00008067          	ret
   14490:	00008067          	ret
   14494:	00008067          	ret
   14498:	00008067          	ret
   1449c:	00008067          	ret
   144a0:	00008067          	ret
   144a4:	00008067          	ret
   144a8:	00008067          	ret
   144ac:	00008067          	ret
   144b0:	00008067          	ret
   144b4:	00008067          	ret
   144b8:	00008067          	ret
   144bc:	00008067          	ret
   144c0:	00008067          	ret
   144c4:	00008067          	ret
   144c8:	00008067          	ret
   144cc:	00008067          	ret
   144d0:	00008067          	ret
   144d4:	00008067          	ret
   144d8:	00008067          	ret
   144dc:	00008067          	ret
   144e0:	00008067          	ret
   144e4:	00008067          	ret
   144e8:	00008067          	ret
   144ec:	00008067          	ret
   144f0:	00008067          	ret
   144f4:	00008067          	ret
   144f8:	00008067          	ret
   144fc:	00008067          	ret
   14500:	00008067          	ret
   14504:	00008067          	ret
   14508:	00008067          	ret
   1450c:	00008067          	ret
   14510:	00008067          	ret
   14514:	00008067          	ret
   14518:	00008067          	ret
   1451c:	00008067          	ret
   14520:	00008067          	ret
   14524:	00008067          	ret
   14528:	00008067          	ret
   1452c:	00008067          	ret
   14530:	00008067          	ret
   14534:	00008067          	ret
   14538:	00008067          	ret
   1453c:	00008067          	ret
   14540:	00008067          	ret
   14544:	00008067          	ret
   14548:	00008067          	ret
   1454c:	00008067          	ret
   14550:	00008067          	ret
   14554:	00008067          	ret
   14558:	00008067          	ret
   1455c:	00008067          	ret
   14560:	00008067          	ret
   14564:	00008067          	ret
   14568:	00008067          	ret
   1456c:	00008067          	ret
   14570:	00008067          	ret
   14574:	00008067          	ret
   14578:	00008067          	ret
   1457c:	00008067          	ret
   14580:	00008067          	ret
   14584:	00008067          	ret
   14588:	00008067          	ret
   1458c:	00008067          	ret
   14590:	00008067          	ret
   14594:	00008067          	ret
   14598:	00008067          	ret
   1459c:	00008067          	ret
   145a0:	00008067          	ret
   145a4:	00008067          	ret
   145a8:	00008067          	ret
   145ac:	00008067          	ret
   145b0:	00008067          	ret
   145b4:	00008067          	ret
   145b8:	00008067          	ret
   145bc:	00008067          	ret
   145c0:	00008067          	ret
   145c4:	00008067          	ret
   145c8:	00008067          	ret
   145cc:	00008067          	ret
   145d0:	00008067          	ret
   145d4:	00008067          	ret
   145d8:	00008067          	ret
   145dc:	00008067          	ret
   145e0:	00008067          	ret
   145e4:	00008067          	ret
   145e8:	00008067          	ret
   145ec:	00008067          	ret
   145f0:	00008067          	ret
   145f4:	00008067          	ret
   145f8:	00008067          	ret
   145fc:	00008067          	ret
   14600:	00008067          	ret
   14604:	00008067          	ret
   14608:	00008067          	ret
   1460c:	00008067          	ret
   14610:	00008067          	ret
   14614:	00008067          	ret
   14618:	00008067          	ret
   1461c:	00008067          	ret
   14620:	00008067          	ret
   14624:	00008067          	ret
   14628:	00008067          	ret
   1462c:	00008067          	ret
   14630:	00008067          	ret
   14634:	00008067          	ret
   14638:	00008067          	ret
   1463c:	00008067          	ret
   14640:	00008067          	ret
   14644:	00008067          	ret
   14648:	00008067          	ret
   1464c:	00008067          	ret
   14650:	00008067          	ret
   14654:	00008067          	ret
   14658:	00008067          	ret
   1465c:	00008067          	ret
   14660:	00008067          	ret
   14664:	00008067          	ret
   14668:	00008067          	ret
   1466c:	00008067          	ret
   14670:	00008067          	ret
   14674:	00008067          	ret
   14678:	00008067          	ret
   1467c:	00008067          	ret
   14680:	00008067          	ret
   14684:	00008067          	ret
   14688:	00008067          	ret
   1468c:	00008067          	ret
   14690:	00008067          	ret
   14694:	00008067          	ret
   14698:	00008067          	ret
   1469c:	00008067          	ret
   146a0:	00008067          	ret
   146a4:	00008067          	ret
   146a8:	00008067          	ret
   146ac:	00008067          	ret
   146b0:	00008067          	ret
   146b4:	00008067          	ret
   146b8:	00008067          	ret
   146bc:	00008067          	ret
   146c0:	00008067          	ret
   146c4:	00008067          	ret
   146c8:	00008067          	ret
   146cc:	00008067          	ret
   146d0:	00008067          	ret
   146d4:	00008067          	ret
   146d8:	00008067          	ret
   146dc:	00008067          	ret
   146e0:	00008067          	ret
   146e4:	00008067          	ret
   146e8:	00008067          	ret
   146ec:	00008067          	ret
   146f0:	00008067          	ret
   146f4:	00008067          	ret
   146f8:	00008067          	ret
   146fc:	00008067          	ret
   14700:	00008067          	ret
   14704:	00008067          	ret
   14708:	00008067          	ret
   1470c:	00008067          	ret
   14710:	00008067          	ret
   14714:	00008067          	ret
   14718:	00008067          	ret
   1471c:	00008067          	ret
   14720:	00008067          	ret
   14724:	00008067          	ret
   14728:	00008067          	ret
   1472c:	00008067          	ret
   14730:	00008067          	ret
   14734:	00008067          	ret
   14738:	00008067          	ret
   1473c:	00008067          	ret
   14740:	00008067          	ret
   14744:	00008067          	ret
   14748:	00008067          	ret
   1474c:	00008067          	ret
   14750:	00008067          	ret
   14754:	00008067          	ret
   14758:	00008067          	ret
   1475c:	00008067          	ret
   14760:	00008067          	ret
   14764:	00008067          	ret
   14768:	00008067          	ret
   1476c:	00008067          	ret
   14770:	00008067          	ret
   14774:	00008067          	ret
   14778:	00008067          	ret
   1477c:	00008067          	ret
   14780:	00008067          	ret
   14784:	00008067          	ret
   14788:	00008067          	ret
   1478c:	00008067          	ret
   14790:	00008067          	ret
   14794:	00008067          	ret
   14798:	00008067          	ret
   1479c:	00008067          	ret
   147a0:	00008067          	ret
   147a4:	00008067          	ret
   147a8:	00008067          	ret
   147ac:	00008067          	ret
   147b0:	00008067          	ret
   147b4:	00008067          	ret
   147b8:	00008067          	ret
   147bc:	00008067          	ret
   147c0:	00008067          	ret
   147c4:	00008067          	ret
   147c8:	00008067          	ret
   147cc:	00008067          	ret
   147d0:	00008067          	ret
   147d4:	00008067          	ret
   147d8:	00008067          	ret
   147dc:	00008067          	ret
   147e0:	00008067          	ret
   147e4:	00008067          	ret
   147e8:	00008067          	ret
   147ec:	00008067          	ret
   147f0:	00008067          	ret
   147f4:	00008067          	ret
   147f8:	00008067          	ret
   147fc:	00008067          	ret
   14800:	00008067          	ret
   14804:	00008067          	ret
   14808:	00008067          	ret
   1480c:	00008067          	ret
   14810:	00008067          	ret
   14814:	00008067          	ret
   14818:	00008067          	ret
   1481c:	00008067          	ret
   14820:	00008067          	ret
   14824:	00008067          	ret
   14828:	00008067          	ret
   1482c:	00008067          	ret
   14830:	00008067          	ret
   14834:	00008067          	ret
   14838:	00008067          	ret
   1483c:	00008067          	ret
   14840:	00008067          	ret
   14844:	00008067          	ret
   14848:	00008067          	ret
   1484c:	00008067          	ret
   14850:	00008067          	ret
   14854:	00008067          	ret
   14858:	00008067          	ret
   1485c:	00008067          	ret
   14860:	00008067          	ret
   14864:	00008067          	ret
   14868:	00008067          	ret
   1486c:	00008067          	ret
   14870:	00008067          	ret
   14874:	00008067          	ret
   14878:	00008067          	ret
   1487c:	00008067          	ret
   14880:	00008067          	ret
   14884:	00008067          	ret
   14888:	00008067          	ret
   1488c:	00008067          	ret
   14890:	00008067          	ret
   14894:	00008067          	ret
   14898:	00008067          	ret
   1489c:	00008067          	ret
   148a0:	00008067          	ret
   148a4:	00008067          	ret
   148a8:	00008067          	ret
   148ac:	00008067          	ret
   148b0:	00008067          	ret
   148b4:	00008067          	ret
   148b8:	00008067          	ret
   148bc:	00008067          	ret
   148c0:	00008067          	ret
   148c4:	00008067          	ret
   148c8:	00008067          	ret
   148cc:	00008067          	ret
   148d0:	00008067          	ret
   148d4:	00008067          	ret
   148d8:	00008067          	ret
   148dc:	00008067          	ret
   148e0:	00008067          	ret
   148e4:	00008067          	ret
   148e8:	00008067          	ret
   148ec:	00008067          	ret
   148f0:	00008067          	ret
   148f4:	00008067          	ret
   148f8:	00008067          	ret
   148fc:	00008067          	ret
   14900:	00008067          	ret
   14904:	00008067          	ret
   14908:	00008067          	ret
   1490c:	00008067          	ret
   14910:	00008067          	ret
   14914:	00008067          	ret
   14918:	00008067          	ret
   1491c:	00008067          	ret
   14920:	00008067          	ret
   14924:	00008067          	ret
   14928:	00008067          	ret
   1492c:	00008067          	ret
   14930:	00008067          	ret
   14934:	00008067          	ret
   14938:	00008067          	ret
   1493c:	00008067          	ret
   14940:	00008067          	ret
   14944:	00008067          	ret
   14948:	00008067          	ret
   1494c:	00008067          	ret
   14950:	00008067          	ret
   14954:	00008067          	ret
   14958:	00008067          	ret
   1495c:	00008067          	ret
   14960:	00008067          	ret
   14964:	00008067          	ret
   14968:	00008067          	ret
   1496c:	00008067          	ret
   14970:	00008067          	ret
   14974:	00008067          	ret
   14978:	00008067          	ret
   1497c:	00008067          	ret
   14980:	00008067          	ret
   14984:	00008067          	ret
   14988:	00008067          	ret
   1498c:	00008067          	ret
   14990:	00008067          	ret
   14994:	00008067          	ret
   14998:	00008067          	ret
   1499c:	00008067          	ret
   149a0:	00008067          	ret
   149a4:	00008067          	ret
   149a8:	00008067          	ret
   149ac:	00008067          	ret
   149b0:	00008067          	ret
   149b4:	00008067          	ret
   149b8:	00008067          	ret
   149bc:	00008067          	ret
   149c0:	00008067          	ret
   149c4:	00008067          	ret
   149c8:	00008067          	ret
   149cc:	00008067          	ret
   149d0:	00008067          	ret
   149d4:	00008067          	ret
   149d8:	00008067          	ret
   149dc:	00008067          	ret
   149e0:	00008067          	ret
   149e4:	00008067          	ret
   149e8:	00008067          	ret
   149ec:	00008067          	ret
   149f0:	00008067          	ret
   149f4:	00008067          	ret
   149f8:	00008067          	ret
   149fc:	00008067          	ret
   14a00:	00008067          	ret
   14a04:	00008067          	ret
   14a08:	00008067          	ret
   14a0c:	00008067          	ret
   14a10:	00008067          	ret
   14a14:	00008067          	ret
   14a18:	00008067          	ret
   14a1c:	00008067          	ret
   14a20:	00008067          	ret
   14a24:	00008067          	ret
   14a28:	00008067          	ret
   14a2c:	00008067          	ret
   14a30:	00008067          	ret
   14a34:	00008067          	ret
   14a38:	00008067          	ret
   14a3c:	00008067          	ret
   14a40:	00008067          	ret
   14a44:	00008067          	ret
   14a48:	00008067          	ret
   14a4c:	00008067          	ret
   14a50:	00008067          	ret
   14a54:	00008067          	ret
   14a58:	00008067          	ret
   14a5c:	00008067          	ret
   14a60:	00008067          	ret
   14a64:	00008067          	ret
   14a68:	00008067          	ret
   14a6c:	00008067          	ret
   14a70:	00008067          	ret
   14a74:	00008067          	ret
   14a78:	00008067          	ret
   14a7c:	00008067          	ret
   14a80:	00008067          	ret
   14a84:	00008067          	ret
   14a88:	00008067          	ret
   14a8c:	00008067          	ret
   14a90:	00008067          	ret
   14a94:	00008067          	ret
   14a98:	00008067          	ret
   14a9c:	00008067          	ret
   14aa0:	00008067          	ret
   14aa4:	00008067          	ret
   14aa8:	00008067          	ret
   14aac:	00008067          	ret
   14ab0:	00008067          	ret
   14ab4:	00008067          	ret
   14ab8:	00008067          	ret
   14abc:	00008067          	ret
   14ac0:	00008067          	ret
   14ac4:	00008067          	ret
   14ac8:	00008067          	ret
   14acc:	00008067          	ret
   14ad0:	00008067          	ret
   14ad4:	00008067          	ret
   14ad8:	00008067          	ret
   14adc:	00008067          	ret
   14ae0:	00008067          	ret
   14ae4:	00008067          	ret
   14ae8:	00008067          	ret
   14aec:	00008067          	ret
   14af0:	00008067          	ret
   14af4:	00008067          	ret
   14af8:	00008067          	ret
   14afc:	00008067          	ret
   14b00:	00008067          	ret
   14b04:	00008067          	ret
   14b08:	00008067          	ret
   14b0c:	00008067          	ret
   14b10:	00008067          	ret
   14b14:	00008067          	ret
   14b18:	00008067          	ret
   14b1c:	00008067          	ret
   14b20:	00008067          	ret
   14b24:	00008067          	ret
   14b28:	00008067          	ret
   14b2c:	00008067          	ret
   14b30:	00008067          	ret
   14b34:	00008067          	ret
   14b38:	00008067          	ret
   14b3c:	00008067          	ret
   14b40:	00008067          	ret
   14b44:	00008067          	ret
   14b48:	00008067          	ret
   14b4c:	00008067          	ret
   14b50:	00008067          	ret
   14b54:	00008067          	ret
   14b58:	00008067          	ret
   14b5c:	00008067          	ret
   14b60:	00008067          	ret
   14b64:	00008067          	ret
   14b68:	00008067          	ret
   14b6c:	00008067          	ret
   14b70:	00008067          	ret
   14b74:	00008067          	ret
   14b78:	00008067          	ret
   14b7c:	00008067          	ret
   14b80:	00008067          	ret
   14b84:	00008067          	ret
   14b88:	00008067          	ret
   14b8c:	00008067          	ret
   14b90:	00008067          	ret
   14b94:	00008067          	ret
   14b98:	00008067          	ret
   14b9c:	00008067          	ret
   14ba0:	00008067          	ret
   14ba4:	00008067          	ret
   14ba8:	00008067          	ret
   14bac:	00008067          	ret
   14bb0:	00008067          	ret
   14bb4:	00008067          	ret
   14bb8:	00008067          	ret
   14bbc:	00008067          	ret
   14bc0:	00008067          	ret
   14bc4:	00008067          	ret
   14bc8:	00008067          	ret
   14bcc:	00008067          	ret
   14bd0:	00008067          	ret
   14bd4:	00008067          	ret
   14bd8:	00008067          	ret
   14bdc:	00008067          	ret
   14be0:	00008067          	ret
   14be4:	00008067          	ret
   14be8:	00008067          	ret
   14bec:	00008067          	ret
   14bf0:	00008067          	ret
   14bf4:	00008067          	ret
   14bf8:	00008067          	ret
   14bfc:	00008067          	ret
   14c00:	00008067          	ret
   14c04:	00008067          	ret
   14c08:	00008067          	ret
   14c0c:	00008067          	ret
   14c10:	00008067          	ret
   14c14:	00008067          	ret
   14c18:	00008067          	ret
   14c1c:	00008067          	ret
   14c20:	00008067          	ret
   14c24:	00008067          	ret
   14c28:	00008067          	ret
   14c2c:	00008067          	ret
   14c30:	00008067          	ret
   14c34:	00008067          	ret
   14c38:	00008067          	ret
   14c3c:	00008067          	ret
   14c40:	00008067          	ret
   14c44:	00008067          	ret
   14c48:	00008067          	ret
   14c4c:	00008067          	ret
   14c50:	00008067          	ret
   14c54:	00008067          	ret
   14c58:	00008067          	ret
   14c5c:	00008067          	ret
   14c60:	00008067          	ret
   14c64:	00008067          	ret
   14c68:	00008067          	ret
   14c6c:	00008067          	ret
   14c70:	00008067          	ret
   14c74:	00008067          	ret
   14c78:	00008067          	ret
   14c7c:	00008067          	ret
   14c80:	00008067          	ret
   14c84:	00008067          	ret
   14c88:	00008067          	ret
   14c8c:	00008067          	ret
   14c90:	00008067          	ret
   14c94:	00008067          	ret
   14c98:	00008067          	ret
   14c9c:	00008067          	ret
   14ca0:	00008067          	ret
   14ca4:	00008067          	ret
   14ca8:	00008067          	ret
   14cac:	00008067          	ret
   14cb0:	00008067          	ret
   14cb4:	00008067          	ret
   14cb8:	00008067          	ret
   14cbc:	00008067          	ret
   14cc0:	00008067          	ret
   14cc4:	00008067          	ret
   14cc8:	00008067          	ret
   14ccc:	00008067          	ret
   14cd0:	00008067          	ret
   14cd4:	00008067          	ret
   14cd8:	00008067          	ret
   14cdc:	00008067          	ret
   14ce0:	00008067          	ret
   14ce4:	00008067          	ret
   14ce8:	00008067          	ret
   14cec:	00008067          	ret
   14cf0:	00008067          	ret
   14cf4:	00008067          	ret
   14cf8:	00008067          	ret
   14cfc:	00008067          	ret
   14d00:	00008067          	ret
   14d04:	00008067          	ret
   14d08:	00008067          	ret
   14d0c:	00008067          	ret
   14d10:	00008067          	ret
   14d14:	00008067          	ret
   14d18:	00008067          	ret
   14d1c:	00008067          	ret
   14d20:	00008067          	ret
   14d24:	00008067          	ret
   14d28:	00008067          	ret
   14d2c:	00008067          	ret
   14d30:	00008067          	ret
   14d34:	00008067          	ret
   14d38:	00008067          	ret
   14d3c:	00008067          	ret
   14d40:	00008067          	ret
   14d44:	00008067          	ret
   14d48:	00008067          	ret
   14d4c:	00008067          	ret
   14d50:	00008067          	ret
   14d54:	00008067          	ret
   14d58:	00008067          	ret
   14d5c:	00008067          	ret
   14d60:	00008067          	ret
   14d64:	00008067          	ret
   14d68:	00008067          	ret
   14d6c:	00008067          	ret
   14d70:	00008067          	ret
   14d74:	00008067          	ret
   14d78:	00008067          	ret
   14d7c:	00008067          	ret
   14d80:	00008067          	ret
   14d84:	00008067          	ret
   14d88:	00008067          	ret
   14d8c:	00008067          	ret
   14d90:	00008067          	ret
   14d94:	00008067          	ret
   14d98:	00008067          	ret
   14d9c:	00008067          	ret
   14da0:	00008067          	ret
   14da4:	00008067          	ret
   14da8:	00008067          	ret
   14dac:	00008067          	ret
   14db0:	00008067          	ret
   14db4:	00008067          	ret
   14db8:	00008067          	ret
   14dbc:	00008067          	ret
   14dc0:	00008067          	ret
   14dc4:	00008067          	ret
   14dc8:	00008067          	ret
   14dcc:	00008067          	ret
   14dd0:	00008067          	ret
   14dd4:	00008067          	ret
   14dd8:	00008067          	ret
   14ddc:	00008067          	ret
   14de0:	00008067          	ret
   14de4:	00008067          	ret
   14de8:	00008067          	ret
   14dec:	00008067          	ret
   14df0:	00008067          	ret
   14df4:	00008067          	ret
   14df8:	00008067          	ret
   14dfc:	00008067          	ret
   14e00:	00008067          	ret
   14e04:	00008067          	ret
   14e08:	00008067          	ret
   14e0c:	00008067          	ret
   14e10:	00008067          	ret
   14e14:	00008067          	ret
   14e18:	00008067          	ret
   14e1c:	00008067          	ret
   14e20:	00008067          	ret
   14e24:	00008067          	ret
   14e28:	00008067          	ret
   14e2c:	00008067          	ret
   14e30:	00008067          	ret
   14e34:	00008067          	ret
   14e38:	00008067          	ret
   14e3c:	00008067          	ret
   14e40:	00008067          	ret
   14e44:	00008067          	ret
   14e48:	00008067          	ret
   14e4c:	00008067          	ret
   14e50:	00008067          	ret
   14e54:	00008067          	ret
   14e58:	00008067          	ret
   14e5c:	00008067          	ret
   14e60:	00008067          	ret
   14e64:	00008067          	ret
   14e68:	00008067          	ret
   14e6c:	00008067          	ret
   14e70:	00008067          	ret
   14e74:	00008067          	ret
   14e78:	00008067          	ret
   14e7c:	00008067          	ret
   14e80:	00008067          	ret
   14e84:	00008067          	ret
   14e88:	00008067          	ret
   14e8c:	00008067          	ret
   14e90:	00008067          	ret
   14e94:	00008067          	ret
   14e98:	00008067          	ret
   14e9c:	00008067          	ret
   14ea0:	00008067          	ret
   14ea4:	00008067          	ret
   14ea8:	00008067          	ret
   14eac:	00008067          	ret
   14eb0:	00008067          	ret
   14eb4:	00008067          	ret
   14eb8:	00008067          	ret
   14ebc:	00008067          	ret
   14ec0:	00008067          	ret
   14ec4:	00008067          	ret
   14ec8:	00008067          	ret
   14ecc:	00008067          	ret
   14ed0:	00008067          	ret
   14ed4:	00008067          	ret
   14ed8:	00008067          	ret
   14edc:	00008067          	ret
   14ee0:	00008067          	ret
   14ee4:	00008067          	ret
   14ee8:	00008067          	ret
   14eec:	00008067          	ret
   14ef0:	00008067          	ret
   14ef4:	00008067          	ret
   14ef8:	00008067          	ret
   14efc:	00008067          	ret
   14f00:	00008067          	ret
   14f04:	00008067          	ret
   14f08:	00008067          	ret
   14f0c:	00008067          	ret
   14f10:	00008067          	ret
   14f14:	00008067          	ret
   14f18:	00008067          	ret
   14f1c:	00008067          	ret
   14f20:	00008067          	ret
   14f24:	00008067          	ret
   14f28:	00008067          	ret
   14f2c:	00008067          	ret
   14f30:	00008067          	ret
   14f34:	00008067          	ret
   14f38:	00008067          	ret
   14f3c:	00008067          	ret
   14f40:	00008067          	ret
   14f44:	00008067          	ret
   14f48:	00008067          	ret
   14f4c:	00008067          	ret
   14f50:	00008067          	ret
   14f54:	00008067          	ret
   14f58:	00008067          	ret
   14f5c:	00008067          	ret
   14f60:	00008067          	ret
   14f64:	00008067          	ret
   14f68:	00008067          	ret
   14f6c:	00008067          	ret
   14f70:	00008067          	ret
   14f74:	00008067          	ret
   14f78:	00008067          	ret
   14f7c:	00008067          	ret
   14f80:	00008067          	ret
   14f84:	00008067          	ret
   14f88:	00008067          	ret
   14f8c:	00008067          	ret
   14f90:	00008067          	ret
   14f94:	00008067          	ret
   14f98:	00008067          	ret
   14f9c:	00008067          	ret
   14fa0:	00008067          	ret
   14fa4:	00008067          	ret
   14fa8:	00008067          	ret
   14fac:	00008067          	ret
   14fb0:	00008067          	ret
   14fb4:	00008067          	ret
   14fb8:	00008067          	ret
   14fbc:	00008067          	ret
   14fc0:	00008067          	ret
   14fc4:	00008067          	ret
   14fc8:	00008067          	ret
   14fcc:	00008067          	ret
   14fd0:	00008067          	ret
   14fd4:	00008067          	ret
   14fd8:	00008067          	ret
   14fdc:	00008067          	ret
   14fe0:	00008067          	ret
   14fe4:	00008067          	ret
   14fe8:	00008067          	ret
   14fec:	00008067          	ret
   14ff0:	00008067          	ret
   14ff4:	00008067          	ret
   14ff8:	00008067          	ret
   14ffc:	00008067          	ret
   15000:	00008067          	ret
   15004:	00008067          	ret
   15008:	00008067          	ret
   1500c:	00008067          	ret
   15010:	00008067          	ret
   15014:	00008067          	ret
   15018:	00008067          	ret
   1501c:	00008067          	ret
   15020:	00008067          	ret
   15024:	00008067          	ret
   15028:	00008067          	ret
   1502c:	00008067          	ret
   15030:	00008067          	ret
   15034:	00008067          	ret
   15038:	00008067          	ret
   1503c:	00008067          	ret
   15040:	00008067          	ret
   15044:	00008067          	ret
   15048:	00008067          	ret
   1504c:	00008067          	ret
   15050:	00008067          	ret
   15054:	00008067          	ret
   15058:	00008067          	ret
   1505c:	00008067          	ret
   15060:	00008067          	ret
   15064:	00008067          	ret
   15068:	00008067          	ret
   1506c:	00008067          	ret
   15070:	00008067          	ret
   15074:	00008067          	ret
   15078:	00008067          	ret
   1507c:	00008067          	ret
   15080:	00008067          	ret
   15084:	00008067          	ret
   15088:	00008067          	ret
   1508c:	00008067          	ret
   15090:	00008067          	ret
   15094:	00008067          	ret
   15098:	00008067          	ret
   1509c:	00008067          	ret
   150a0:	00008067          	ret
   150a4:	00008067          	ret
   150a8:	00008067          	ret
   150ac:	00008067          	ret
   150b0:	00008067          	ret
   150b4:	00008067          	ret
   150b8:	00008067          	ret
   150bc:	00008067          	ret
   150c0:	00008067          	ret
   150c4:	00008067          	ret
   150c8:	00008067          	ret
   150cc:	00008067          	ret
   150d0:	00008067          	ret
   150d4:	00008067          	ret
   150d8:	00008067          	ret
   150dc:	00008067          	ret
   150e0:	00008067          	ret
   150e4:	00008067          	ret
   150e8:	00008067          	ret
   150ec:	00008067          	ret
   150f0:	00008067          	ret
   150f4:	00008067          	ret
   150f8:	00008067          	ret
   150fc:	00008067          	ret
   15100:	00008067          	ret
   15104:	00008067          	ret
   15108:	00008067          	ret
   1510c:	00008067          	ret
   15110:	00008067          	ret
   15114:	00008067          	ret
   15118:	00008067          	ret
   1511c:	00008067          	ret
   15120:	00008067          	ret
   15124:	00008067          	ret
   15128:	00008067          	ret
   1512c:	00008067          	ret
   15130:	00008067          	ret
   15134:	00008067          	ret
   15138:	00008067          	ret
   1513c:	00008067          	ret
   15140:	00008067          	ret
   15144:	00008067          	ret
   15148:	00008067          	ret
   1514c:	00008067          	ret
   15150:	00008067          	ret
   15154:	00008067          	ret
   15158:	00008067          	ret
   1515c:	00008067          	ret
   15160:	00008067          	ret
   15164:	00008067          	ret
   15168:	00008067          	ret
   1516c:	00008067          	ret
   15170:	00008067          	ret
   15174:	00008067          	ret
   15178:	00008067          	ret
   1517c:	00008067          	ret
   15180:	00008067          	ret
   15184:	00008067          	ret
   15188:	00008067          	ret
   1518c:	00008067          	ret
   15190:	00008067          	ret
   15194:	00008067          	ret
   15198:	00008067          	ret
   1519c:	00008067          	ret
   151a0:	00008067          	ret
   151a4:	00008067          	ret
   151a8:	00008067          	ret
   151ac:	00008067          	ret
   151b0:	00008067          	ret
   151b4:	00008067          	ret
   151b8:	00008067          	ret
   151bc:	00008067          	ret
   151c0:	00008067          	ret
   151c4:	00008067          	ret
   151c8:	00008067          	ret
   151cc:	00008067          	ret
   151d0:	00008067          	ret
   151d4:	00008067          	ret
   151d8:	00008067          	ret
   151dc:	00008067          	ret
   151e0:	00008067          	ret
   151e4:	00008067          	ret
   151e8:	00008067          	ret
   151ec:	00008067          	ret
   151f0:	00008067          	ret
   151f4:	00008067          	ret
   151f8:	00008067          	ret
   151fc:	00008067          	ret
   15200:	00008067          	ret
   15204:	00008067          	ret
   15208:	00008067          	ret
   1520c:	00008067          	ret
   15210:	00008067          	ret
   15214:	00008067          	ret
   15218:	00008067          	ret
   1521c:	00008067          	ret
   15220:	00008067          	ret
   15224:	00008067          	ret
   15228:	00008067          	ret
   1522c:	00008067          	ret
   15230:	00008067          	ret
   15234:	00008067          	ret
   15238:	00008067          	ret
   1523c:	00008067          	ret
   15240:	00008067          	ret
   15244:	00008067          	ret
   15248:	00008067          	ret
   1524c:	00008067          	ret
   15250:	00008067          	ret
   15254:	00008067          	ret
   15258:	00008067          	ret
   1525c:	00008067          	ret
   15260:	00008067          	ret
   15264:	00008067          	ret
   15268:	00008067          	ret
   1526c:	00008067          	ret
   15270:	00008067          	ret
   15274:	00008067          	ret
   15278:	00008067          	ret
   1527c:	00008067          	ret
   15280:	00008067          	ret
   15284:	00008067          	ret
   15288:	00008067          	ret
   1528c:	00008067          	ret
   15290:	00008067          	ret
   15294:	00008067          	ret
   15298:	00008067          	ret
   1529c:	00008067          	ret
   152a0:	00008067          	ret
   152a4:	00008067          	ret
   152a8:	00008067          	ret
   152ac:	00008067          	ret
   152b0:	00008067          	ret
   152b4:	00008067          	ret
   152b8:	00008067          	ret
   152bc:	00008067          	ret
   152c0:	00008067          	ret
   152c4:	00008067          	ret
   152c8:	00008067          	ret
   152cc:	00008067          	ret
   152d0:	00008067          	ret
   152d4:	00008067          	ret
   152d8:	00008067          	ret
   152dc:	00008067          	ret
   152e0:	00008067          	ret
   152e4:	00008067          	ret
   152e8:	00008067          	ret
   152ec:	00008067          	ret
   152f0:	00008067          	ret
   152f4:	00008067          	ret
   152f8:	00008067          	ret
   152fc:	00008067          	ret
   15300:	00008067          	ret
   15304:	00008067          	ret
   15308:	00008067          	ret
   1530c:	00008067          	ret
   15310:	00008067          	ret
   15314:	00008067          	ret
   15318:	00008067          	ret
   1531c:	00008067          	ret
   15320:	00008067          	ret
   15324:	00008067          	ret
   15328:	00008067          	ret
   1532c:	00008067          	ret
   15330:	00008067          	ret
   15334:	00008067          	ret
   15338:	00008067          	ret
   1533c:	00008067          	ret
   15340:	00008067          	ret
   15344:	00008067          	ret
   15348:	00008067          	ret
   1534c:	00008067          	ret
   15350:	00008067          	ret
   15354:	00008067          	ret
   15358:	00008067          	ret
   1535c:	00008067          	ret
   15360:	00008067          	ret
   15364:	00008067          	ret
   15368:	00008067          	ret
   1536c:	00008067          	ret
   15370:	00008067          	ret
   15374:	00008067          	ret
   15378:	00008067          	ret
   1537c:	00008067          	ret
   15380:	00008067          	ret
   15384:	00008067          	ret
   15388:	00008067          	ret
   1538c:	00008067          	ret
   15390:	00008067          	ret
   15394:	00008067          	ret
   15398:	00008067          	ret
   1539c:	00008067          	ret
   153a0:	00008067          	ret
   153a4:	00008067          	ret
   153a8:	00008067          	ret
   153ac:	00008067          	ret
   153b0:	00008067          	ret
   153b4:	00008067          	ret
   153b8:	00008067          	ret
   153bc:	00008067          	ret
   153c0:	00008067          	ret
   153c4:	00008067          	ret
   153c8:	00008067          	ret
   153cc:	00008067          	ret
   153d0:	00008067          	ret
   153d4:	00008067          	ret
   153d8:	00008067          	ret
   153dc:	00008067          	ret
   153e0:	00008067          	ret
   153e4:	00008067          	ret
   153e8:	00008067          	ret
   153ec:	00008067          	ret
   153f0:	00008067          	ret
   153f4:	00008067          	ret
   153f8:	00008067          	ret
   153fc:	00008067          	ret
   15400:	00008067          	ret
   15404:	00008067          	ret
   15408:	00008067          	ret
   1540c:	00008067          	ret
   15410:	00008067          	ret
   15414:	00008067          	ret
   15418:	00008067          	ret
   1541c:	00008067          	ret
   15420:	00008067          	ret
   15424:	00008067          	ret
   15428:	00008067          	ret
   1542c:	00008067          	ret
   15430:	00008067          	ret
   15434:	00008067          	ret
   15438:	00008067          	ret
   1543c:	00008067          	ret
   15440:	00008067          	ret
   15444:	00008067          	ret
   15448:	00008067          	ret
   1544c:	00008067          	ret
   15450:	00008067          	ret
   15454:	00008067          	ret
   15458:	00008067          	ret
   1545c:	00008067          	ret
   15460:	00008067          	ret
   15464:	00008067          	ret
   15468:	00008067          	ret
   1546c:	00008067          	ret
   15470:	00008067          	ret
   15474:	00008067          	ret
   15478:	00008067          	ret
   1547c:	00008067          	ret
   15480:	00008067          	ret
   15484:	00008067          	ret
   15488:	00008067          	ret
   1548c:	00008067          	ret
   15490:	00008067          	ret
   15494:	00008067          	ret
   15498:	00008067          	ret
   1549c:	00008067          	ret
   154a0:	00008067          	ret
   154a4:	00008067          	ret
   154a8:	00008067          	ret
   154ac:	00008067          	ret
   154b0:	00008067          	ret
   154b4:	00008067          	ret
   154b8:	00008067          	ret
   154bc:	00008067          	ret
   154c0:	00008067          	ret
   154c4:	00008067          	ret
   154c8:	00008067          	ret
   154cc:	00008067          	ret
   154d0:	00008067          	ret
   154d4:	00008067          	ret
   154d8:	00008067          	ret
   154dc:	00008067          	ret
   154e0:	00008067          	ret
   154e4:	00008067          	ret
   154e8:	00008067          	ret
   154ec:	00008067          	ret
   154f0:	00008067          	ret
   154f4:	00008067          	ret
   154f8:	00008067          	ret
   154fc:	00008067          	ret
   15500:	00008067          	ret
   15504:	00008067          	ret
   15508:	00008067          	ret
   1550c:	00008067          	ret
   15510:	00008067          	ret
   15514:	00008067          	ret
   15518:	00008067          	ret
   1551c:	00008067          	ret
   15520:	00008067          	ret
   15524:	00008067          	ret
   15528:	00008067          	ret
   1552c:	00008067          	ret
   15530:	00008067          	ret
   15534:	00008067          	ret
   15538:	00008067          	ret
   1553c:	00008067          	ret
   15540:	00008067          	ret
   15544:	00008067          	ret
   15548:	00008067          	ret
   1554c:	00008067          	ret
   15550:	00008067          	ret
   15554:	00008067          	ret
   15558:	00008067          	ret
   1555c:	00008067          	ret
   15560:	00008067          	ret
   15564:	00008067          	ret
   15568:	00008067          	ret
   1556c:	00008067          	ret
   15570:	00008067          	ret
   15574:	00008067          	ret
   15578:	00008067          	ret
   1557c:	00008067          	ret
   15580:	00008067          	ret
   15584:	00008067          	ret
   15588:	00008067          	ret
   1558c:	00008067          	ret
   15590:	00008067          	ret
   15594:	00008067          	ret
   15598:	00008067          	ret
   1559c:	00008067          	ret
   155a0:	00008067          	ret
   155a4:	00008067          	ret
   155a8:	00008067          	ret
   155ac:	00008067          	ret
   155b0:	00008067          	ret
   155b4:	00008067          	ret
   155b8:	00008067          	ret
   155bc:	00008067          	ret
   155c0:	00008067          	ret
   155c4:	00008067          	ret
   155c8:	00008067          	ret
   155cc:	00008067          	ret
   155d0:	00008067          	ret
   155d4:	00008067          	ret
   155d8:	00008067          	ret
   155dc:	00008067          	ret
   155e0:	00008067          	ret
   155e4:	00008067          	ret
   155e8:	00008067          	ret
   155ec:	00008067          	ret
   155f0:	00008067          	ret
   155f4:	00008067          	ret
   155f8:	00008067          	ret
   155fc:	00008067          	ret
   15600:	00008067          	ret
   15604:	00008067          	ret
   15608:	00008067          	ret
   1560c:	00008067          	ret
   15610:	00008067          	ret
   15614:	00008067          	ret
   15618:	00008067          	ret
   1561c:	00008067          	ret
   15620:	00008067          	ret
   15624:	00008067          	ret
   15628:	00008067          	ret
   1562c:	00008067          	ret
   15630:	00008067          	ret
   15634:	00008067          	ret
   15638:	00008067          	ret
   1563c:	00008067          	ret
   15640:	00008067          	ret
   15644:	00008067          	ret
   15648:	00008067          	ret
   1564c:	00008067          	ret
   15650:	00008067          	ret
   15654:	00008067          	ret
   15658:	00008067          	ret
   1565c:	00008067          	ret
   15660:	00008067          	ret
   15664:	00008067          	ret
   15668:	00008067          	ret
   1566c:	00008067          	ret
   15670:	00008067          	ret
   15674:	00008067          	ret
   15678:	00008067          	ret
   1567c:	00008067          	ret
   15680:	00008067          	ret
   15684:	00008067          	ret
   15688:	00008067          	ret
   1568c:	00008067          	ret
   15690:	00008067          	ret
   15694:	00008067          	ret
   15698:	00008067          	ret
   1569c:	00008067          	ret
   156a0:	00008067          	ret
   156a4:	00008067          	ret
   156a8:	00008067          	ret
   156ac:	00008067          	ret
   156b0:	00008067          	ret
   156b4:	00008067          	ret
   156b8:	00008067          	ret
   156bc:	00008067          	ret
   156c0:	00008067          	ret
   156c4:	00008067          	ret
   156c8:	00008067          	ret
   156cc:	00008067          	ret
   156d0:	00008067          	ret
   156d4:	00008067          	ret
   156d8:	00008067          	ret
   156dc:	00008067          	ret
   156e0:	00008067          	ret
   156e4:	00008067          	ret
   156e8:	00008067          	ret
   156ec:	00008067          	ret
   156f0:	00008067          	ret
   156f4:	00008067          	ret
   156f8:	00008067          	ret
   156fc:	00008067          	ret
   15700:	00008067          	ret
   15704:	00008067          	ret
   15708:	00008067          	ret
   1570c:	00008067          	ret
   15710:	00008067          	ret
   15714:	00008067          	ret
   15718:	00008067          	ret
   1571c:	00008067          	ret
   15720:	00008067          	ret
   15724:	00008067          	ret
   15728:	00008067          	ret
   1572c:	00008067          	ret
   15730:	00008067          	ret
   15734:	00008067          	ret
   15738:	00008067          	ret
   1573c:	00008067          	ret
   15740:	00008067          	ret
   15744:	00008067          	ret
   15748:	00008067          	ret
   1574c:	00008067          	ret
   15750:	00008067          	ret
   15754:	00008067          	ret
   15758:	00008067          	ret
   1575c:	00008067          	ret
   15760:	00008067          	ret
   15764:	00008067          	ret
   15768:	00008067          	ret
   1576c:	00008067          	ret
   15770:	00008067          	ret
   15774:	00008067          	ret
   15778:	00008067          	ret
   1577c:	00008067          	ret
   15780:	00008067          	ret
   15784:	00008067          	ret
   15788:	00008067          	ret
   1578c:	00008067          	ret
   15790:	00008067          	ret
   15794:	00008067          	ret
   15798:	00008067          	ret
   1579c:	00008067          	ret
   157a0:	00008067          	ret
   157a4:	00008067          	ret
   157a8:	00008067          	ret
   157ac:	00008067          	ret
   157b0:	00008067          	ret
   157b4:	00008067          	ret
   157b8:	00008067          	ret
   157bc:	00008067          	ret
   157c0:	00008067          	ret
   157c4:	00008067          	ret
   157c8:	00008067          	ret
   157cc:	00008067          	ret
   157d0:	00008067          	ret
   157d4:	00008067          	ret
   157d8:	00008067          	ret
   157dc:	00008067          	ret
   157e0:	00008067          	ret
   157e4:	00008067          	ret
   157e8:	00008067          	ret
   157ec:	00008067          	ret
   157f0:	00008067          	ret
   157f4:	00008067          	ret
   157f8:	00008067          	ret
   157fc:	00008067          	ret
   15800:	00008067          	ret
   15804:	00008067          	ret
   15808:	00008067          	ret
   1580c:	00008067          	ret
   15810:	00008067          	ret
   15814:	00008067          	ret
   15818:	00008067          	ret
   1581c:	00008067          	ret
   15820:	00008067          	ret
   15824:	00008067          	ret
   15828:	00008067          	ret
   1582c:	00008067          	ret
   15830:	00008067          	ret
   15834:	00008067          	ret
   15838:	00008067          	ret
   1583c:	00008067          	ret
   15840:	00008067          	ret
   15844:	00008067          	ret
   15848:	00008067          	ret
   1584c:	00008067          	ret
   15850:	00008067          	ret
   15854:	00008067          	ret
   15858:	00008067          	ret
   1585c:	00008067          	ret
   15860:	00008067          	ret
   15864:	00008067          	ret
   15868:	00008067          	ret
   1586c:	00008067          	ret
   15870:	00008067          	ret
   15874:	00008067          	ret
   15878:	00008067          	ret
   1587c:	00008067          	ret
   15880:	00008067          	ret
   15884:	00008067          	ret
   15888:	00008067          	ret
   1588c:	00008067          	ret
   15890:	00008067          	ret
   15894:	00008067          	ret
   15898:	00008067          	ret
   1589c:	00008067          	ret
   158a0:	00008067          	ret
   158a4:	00008067          	ret
   158a8:	00008067          	ret
   158ac:	00008067          	ret
   158b0:	00008067          	ret
   158b4:	00008067          	ret
   158b8:	00008067          	ret
   158bc:	00008067          	ret
   158c0:	00008067          	ret
   158c4:	00008067          	ret
   158c8:	00008067          	ret
   158cc:	00008067          	ret
   158d0:	00008067          	ret
   158d4:	00008067          	ret
   158d8:	00008067          	ret
   158dc:	00008067          	ret
   158e0:	00008067          	ret
   158e4:	00008067          	ret
   158e8:	00008067          	ret
   158ec:	00008067          	ret
   158f0:	00008067          	ret
   158f4:	00008067          	ret
   158f8:	00008067          	ret
   158fc:	00008067          	ret
   15900:	00008067          	ret
   15904:	00008067          	ret
   15908:	00008067          	ret
   1590c:	00008067          	ret
   15910:	00008067          	ret
   15914:	00008067          	ret
   15918:	00008067          	ret
   1591c:	00008067          	ret
   15920:	00008067          	ret
   15924:	00008067          	ret
   15928:	00008067          	ret
   1592c:	00008067          	ret
   15930:	00008067          	ret
   15934:	00008067          	ret
   15938:	00008067          	ret
   1593c:	00008067          	ret
   15940:	00008067          	ret
   15944:	00008067          	ret
   15948:	00008067          	ret
   1594c:	00008067          	ret
   15950:	00008067          	ret
   15954:	00008067          	ret
   15958:	00008067          	ret
   1595c:	00008067          	ret
   15960:	00008067          	ret
   15964:	00008067          	ret
   15968:	00008067          	ret
   1596c:	00008067          	ret
   15970:	00008067          	ret
   15974:	00008067          	ret
   15978:	00008067          	ret
   1597c:	00008067          	ret
   15980:	00008067          	ret
   15984:	00008067          	ret
   15988:	00008067          	ret
   1598c:	00008067          	ret
   15990:	00008067          	ret
   15994:	00008067          	ret
   15998:	00008067          	ret
   1599c:	00008067          	ret
   159a0:	00008067          	ret
   159a4:	00008067          	ret
   159a8:	00008067          	ret
   159ac:	00008067          	ret
   159b0:	00008067          	ret
   159b4:	00008067          	ret
   159b8:	00008067          	ret
   159bc:	00008067          	ret
   159c0:	00008067          	ret
   159c4:	00008067          	ret
   159c8:	00008067          	ret
   159cc:	00008067          	ret
   159d0:	00008067          	ret
   159d4:	00008067          	ret
   159d8:	00008067          	ret
   159dc:	00008067          	ret
   159e0:	00008067          	ret
   159e4:	00008067          	ret
   159e8:	00008067          	ret
   159ec:	00008067          	ret
   159f0:	00008067          	ret
   159f4:	00008067          	ret
   159f8:	00008067          	ret
   159fc:	00008067          	ret
   15a00:	00008067          	ret
   15a04:	00008067          	ret
   15a08:	00008067          	ret
   15a0c:	00008067          	ret
   15a10:	00008067          	ret
   15a14:	00008067          	ret
   15a18:	00008067          	ret
   15a1c:	00008067          	ret
   15a20:	00008067          	ret
   15a24:	00008067          	ret
   15a28:	00008067          	ret
   15a2c:	00008067          	ret
   15a30:	00008067          	ret
   15a34:	00008067          	ret
   15a38:	00008067          	ret
   15a3c:	00008067          	ret
   15a40:	00008067          	ret
   15a44:	00008067          	ret
   15a48:	00008067          	ret
   15a4c:	00008067          	ret
   15a50:	00008067          	ret
   15a54:	00008067          	ret
   15a58:	00008067          	ret
   15a5c:	00008067          	ret
   15a60:	00008067          	ret
   15a64:	00008067          	ret
   15a68:	00008067          	ret
   15a6c:	00008067          	ret
   15a70:	00008067          	ret
   15a74:	00008067          	ret
   15a78:	00008067          	ret
   15a7c:	00008067          	ret
   15a80:	00008067          	ret
   15a84:	00008067          	ret
   15a88:	00008067          	ret
   15a8c:	00008067          	ret
   15a90:	00008067          	ret
   15a94:	00008067          	ret
   15a98:	00008067          	ret
   15a9c:	00008067          	ret
   15aa0:	00008067          	ret
   15aa4:	00008067          	ret
   15aa8:	00008067          	ret
   15aac:	00008067          	ret
   15ab0:	00008067          	ret
   15ab4:	00008067          	ret
   15ab8:	00008067          	ret
   15abc:	00008067          	ret
   15ac0:	00008067          	ret
   15ac4:	00008067          	ret
   15ac8:	00008067          	ret
   15acc:	00008067          	ret
   15ad0:	00008067          	ret
   15ad4:	00008067          	ret
   15ad8:	00008067          	ret
   15adc:	00008067          	ret
   15ae0:	00008067          	ret
   15ae4:	00008067          	ret
   15ae8:	00008067          	ret
   15aec:	00008067          	ret
   15af0:	00008067          	ret
   15af4:	00008067          	ret
   15af8:	00008067          	ret
   15afc:	00008067          	ret
   15b00:	00008067          	ret
   15b04:	00008067          	ret
   15b08:	00008067          	ret
   15b0c:	00008067          	ret
   15b10:	00008067          	ret
   15b14:	00008067          	ret
   15b18:	00008067          	ret
   15b1c:	00008067          	ret
   15b20:	00008067          	ret
   15b24:	00008067          	ret
   15b28:	00008067          	ret
   15b2c:	00008067          	ret
   15b30:	00008067          	ret
   15b34:	00008067          	ret
   15b38:	00008067          	ret
   15b3c:	00008067          	ret
   15b40:	00008067          	ret
   15b44:	00008067          	ret
   15b48:	00008067          	ret
   15b4c:	00008067          	ret
   15b50:	00008067          	ret
   15b54:	00008067          	ret
   15b58:	00008067          	ret
   15b5c:	00008067          	ret
   15b60:	00008067          	ret
   15b64:	00008067          	ret
   15b68:	00008067          	ret
   15b6c:	00008067          	ret
   15b70:	00008067          	ret
   15b74:	00008067          	ret
   15b78:	00008067          	ret
   15b7c:	00008067          	ret
   15b80:	00008067          	ret
   15b84:	00008067          	ret
   15b88:	00008067          	ret
   15b8c:	00008067          	ret
   15b90:	00008067          	ret
   15b94:	00008067          	ret
   15b98:	00008067          	ret
   15b9c:	00008067          	ret
   15ba0:	00008067          	ret
   15ba4:	00008067          	ret
   15ba8:	00008067          	ret
   15bac:	00008067          	ret
   15bb0:	00008067          	ret
   15bb4:	00008067          	ret
   15bb8:	00008067          	ret
   15bbc:	00008067          	ret
   15bc0:	00008067          	ret
   15bc4:	00008067          	ret
   15bc8:	00008067          	ret
   15bcc:	00008067          	ret
   15bd0:	00008067          	ret
   15bd4:	00008067          	ret
   15bd8:	00008067          	ret
   15bdc:	00008067          	ret
   15be0:	00008067          	ret
   15be4:	00008067          	ret
   15be8:	00008067          	ret
   15bec:	00008067          	ret
   15bf0:	00008067          	ret
   15bf4:	00008067          	ret
   15bf8:	00008067          	ret
   15bfc:	00008067          	ret
   15c00:	00008067          	ret
   15c04:	00008067          	ret
   15c08:	00008067          	ret
   15c0c:	00008067          	ret
   15c10:	00008067          	ret
   15c14:	00008067          	ret
   15c18:	00008067          	ret
   15c1c:	00008067          	ret
   15c20:	00008067          	ret
   15c24:	00008067          	ret
   15c28:	00008067          	ret
   15c2c:	00008067          	ret
   15c30:	00008067          	ret
   15c34:	00008067          	ret
   15c38:	00008067          	ret
   15c3c:	00008067          	ret
   15c40:	00008067          	ret
   15c44:	00008067          	ret
   15c48:	00008067          	ret
   15c4c:	00008067          	ret
   15c50:	00008067          	ret
   15c54:	00008067          	ret
   15c58:	00008067          	ret
   15c5c:	00008067          	ret
   15c60:	00008067          	ret
   15c64:	00008067          	ret
   15c68:	00008067          	ret
   15c6c:	00008067          	ret
   15c70:	00008067          	ret
   15c74:	00008067          	ret
   15c78:	00008067          	ret
   15c7c:	00008067          	ret
   15c80:	00008067          	ret
   15c84:	00008067          	ret
   15c88:	00008067          	ret
   15c8c:	00008067          	ret
   15c90:	00008067          	ret
   15c94:	00008067          	ret
   15c98:	00008067          	ret
   15c9c:	00008067          	ret
   15ca0:	00008067          	ret
   15ca4:	00008067          	ret
   15ca8:	00008067          	ret
   15cac:	00008067          	ret
   15cb0:	00008067          	ret
   15cb4:	00008067          	ret
   15cb8:	00008067          	ret
   15cbc:	00008067          	ret
   15cc0:	00008067          	ret
   15cc4:	00008067          	ret
   15cc8:	00008067          	ret
   15ccc:	00008067          	ret
   15cd0:	00008067          	ret
   15cd4:	00008067          	ret
   15cd8:	00008067          	ret
   15cdc:	00008067          	ret
   15ce0:	00008067          	ret
   15ce4:	00008067          	ret
   15ce8:	00008067          	ret
   15cec:	00008067          	ret
   15cf0:	00008067          	ret
   15cf4:	00008067          	ret
   15cf8:	00008067          	ret
   15cfc:	00008067          	ret
   15d00:	00008067          	ret
   15d04:	00008067          	ret
   15d08:	00008067          	ret
   15d0c:	00008067          	ret
   15d10:	00008067          	ret
   15d14:	00008067          	ret
   15d18:	00008067          	ret
   15d1c:	00008067          	ret
   15d20:	00008067          	ret
   15d24:	00008067          	ret
   15d28:	00008067          	ret
   15d2c:	00008067          	ret
   15d30:	00008067          	ret
   15d34:	00008067          	ret
   15d38:	00008067          	ret
   15d3c:	00008067          	ret
   15d40:	00008067          	ret
   15d44:	00008067          	ret
   15d48:	00008067          	ret
   15d4c:	00008067          	ret
   15d50:	00008067          	ret
   15d54:	00008067          	ret
   15d58:	00008067          	ret
   15d5c:	00008067          	ret
   15d60:	00008067          	ret
   15d64:	00008067          	ret
   15d68:	00008067          	ret
   15d6c:	00008067          	ret
   15d70:	00008067          	ret
   15d74:	00008067          	ret
   15d78:	00008067          	ret
   15d7c:	00008067          	ret
   15d80:	00008067          	ret
   15d84:	00008067          	ret
   15d88:	00008067          	ret
   15d8c:	00008067          	ret
   15d90:	00008067          	ret
   15d94:	00008067          	ret
   15d98:	00008067          	ret
   15d9c:	00008067          	ret
   15da0:	00008067          	ret
   15da4:	00008067          	ret
   15da8:	00008067          	ret
   15dac:	00008067          	ret
   15db0:	00008067          	ret
   15db4:	00008067          	ret
   15db8:	00008067          	ret
   15dbc:	00008067          	ret
   15dc0:	00008067          	ret
   15dc4:	00008067          	ret
   15dc8:	00008067          	ret
   15dcc:	00008067          	ret
   15dd0:	00008067          	ret
   15dd4:	00008067          	ret
   15dd8:	00008067          	ret
   15ddc:	00008067          	ret
   15de0:	00008067          	ret
   15de4:	00008067          	ret
   15de8:	00008067          	ret
   15dec:	00008067          	ret
   15df0:	00008067          	ret
   15df4:	00008067          	ret
   15df8:	00008067          	ret
   15dfc:	00008067          	ret
   15e00:	00008067          	ret
   15e04:	00008067          	ret
   15e08:	00008067          	ret
   15e0c:	00008067          	ret
   15e10:	00008067          	ret
   15e14:	00008067          	ret
   15e18:	00008067          	ret
   15e1c:	00008067          	ret
   15e20:	00008067          	ret
   15e24:	00008067          	ret
   15e28:	00008067          	ret
   15e2c:	00008067          	ret
   15e30:	00008067          	ret
   15e34:	00008067          	ret
   15e38:	00008067          	ret
   15e3c:	00008067          	ret
   15e40:	00008067          	ret
   15e44:	00008067          	ret
   15e48:	00008067          	ret
   15e4c:	00008067          	ret
   15e50:	00008067          	ret
   15e54:	00008067          	ret
   15e58:	00008067          	ret
   15e5c:	00008067          	ret
   15e60:	00008067          	ret
   15e64:	00008067          	ret
   15e68:	00008067          	ret
   15e6c:	00008067          	ret
   15e70:	00008067          	ret
   15e74:	00008067          	ret
   15e78:	00008067          	ret
   15e7c:	00008067          	ret
   15e80:	00008067          	ret
   15e84:	00008067          	ret
   15e88:	00008067          	ret
   15e8c:	00008067          	ret
   15e90:	00008067          	ret
   15e94:	00008067          	ret
   15e98:	00008067          	ret
   15e9c:	00008067          	ret
   15ea0:	00008067          	ret
   15ea4:	00008067          	ret
   15ea8:	00008067          	ret
   15eac:	00008067          	ret
   15eb0:	00008067          	ret
   15eb4:	00008067          	ret
   15eb8:	00008067          	ret
   15ebc:	00008067          	ret
   15ec0:	00008067          	ret
   15ec4:	00008067          	ret
   15ec8:	00008067          	ret
   15ecc:	00008067          	ret
   15ed0:	00008067          	ret
   15ed4:	00008067          	ret
   15ed8:	00008067          	ret
   15edc:	00008067          	ret
   15ee0:	00008067          	ret
   15ee4:	00008067          	ret
   15ee8:	00008067          	ret
   15eec:	00008067          	ret
   15ef0:	00008067          	ret
   15ef4:	00008067          	ret
   15ef8:	00008067          	ret
   15efc:	00008067          	ret
   15f00:	00008067          	ret
   15f04:	00008067          	ret
   15f08:	00008067          	ret
   15f0c:	00008067          	ret
   15f10:	00008067          	ret
   15f14:	00008067          	ret
   15f18:	00008067          	ret
   15f1c:	00008067          	ret
   15f20:	00008067          	ret
   15f24:	00008067          	ret
   15f28:	00008067          	ret
   15f2c:	00008067          	ret
   15f30:	00008067          	ret
   15f34:	00008067          	ret
   15f38:	00008067          	ret
   15f3c:	00008067          	ret
   15f40:	00008067          	ret
   15f44:	00008067          	ret
   15f48:	00008067          	ret
   15f4c:	00008067          	ret
   15f50:	00008067          	ret
   15f54:	00008067          	ret
   15f58:	00008067          	ret
   15f5c:	00008067          	ret
   15f60:	00008067          	ret
   15f64:	00008067          	ret
   15f68:	00008067          	ret
   15f6c:	00008067          	ret
   15f70:	00008067          	ret
   15f74:	00008067          	ret
   15f78:	00008067          	ret
   15f7c:	00008067          	ret
   15f80:	00008067          	ret
   15f84:	00008067          	ret
   15f88:	00008067          	ret
   15f8c:	00008067          	ret
   15f90:	00008067          	ret
   15f94:	00008067          	ret
   15f98:	00008067          	ret
   15f9c:	00008067          	ret
   15fa0:	00008067          	ret
   15fa4:	00008067          	ret
   15fa8:	00008067          	ret
   15fac:	00008067          	ret
   15fb0:	00008067          	ret
   15fb4:	00008067          	ret
   15fb8:	00008067          	ret
   15fbc:	00008067          	ret
   15fc0:	00008067          	ret
   15fc4:	00008067          	ret
   15fc8:	00008067          	ret
   15fcc:	00008067          	ret
   15fd0:	00008067          	ret
   15fd4:	00008067          	ret
   15fd8:	00008067          	ret
   15fdc:	00008067          	ret
   15fe0:	00008067          	ret
   15fe4:	00008067          	ret
   15fe8:	00008067          	ret
   15fec:	00008067          	ret
   15ff0:	00008067          	ret
   15ff4:	00008067          	ret
   15ff8:	00008067          	ret
   15ffc:	00008067          	ret
   16000:	00008067          	ret
   16004:	00008067          	ret
   16008:	00008067          	ret
   1600c:	00008067          	ret
   16010:	00008067          	ret
   16014:	00008067          	ret
   16018:	00008067          	ret
   1601c:	00008067          	ret
   16020:	00008067          	ret
   16024:	00008067          	ret
   16028:	00008067          	ret
   1602c:	00008067          	ret
   16030:	00008067          	ret
   16034:	00008067          	ret
   16038:	00008067          	ret
   1603c:	00008067          	ret
   16040:	00008067          	ret
   16044:	00008067          	ret
   16048:	00008067          	ret
   1604c:	00008067          	ret
   16050:	00008067          	ret
   16054:	00008067          	ret
   16058:	00008067          	ret
   1605c:	00008067          	ret
   16060:	00008067          	ret
   16064:	00008067          	ret
   16068:	00008067          	ret
   1606c:	00008067          	ret
   16070:	00008067          	ret
   16074:	00008067          	ret
   16078:	00008067          	ret
   1607c:	00008067          	ret
   16080:	00008067          	ret
   16084:	00008067          	ret
   16088:	00008067          	ret
   1608c:	00008067          	ret
   16090:	00008067          	ret
   16094:	00008067          	ret
   16098:	00008067          	ret
   1609c:	00008067          	ret
   160a0:	00008067          	ret
   160a4:	00008067          	ret
   160a8:	00008067          	ret
   160ac:	00008067          	ret
   160b0:	00008067          	ret
   160b4:	00008067          	ret
   160b8:	00008067          	ret
   160bc:	00008067          	ret
   160c0:	00008067          	ret
   160c4:	00008067          	ret
   160c8:	00008067          	ret
   160cc:	00008067          	ret
   160d0:	00008067          	ret
   160d4:	00008067          	ret
   160d8:	00008067          	ret
   160dc:	00008067          	ret
   160e0:	00008067          	ret
   160e4:	00008067          	ret
   160e8:	00008067          	ret
   160ec:	00008067          	ret
   160f0:	00008067          	ret
   160f4:	00008067          	ret
   160f8:	00008067          	ret
   160fc:	00008067          	ret
   16100:	00008067          	ret
   16104:	00008067          	ret
   16108:	00008067          	ret
   1610c:	00008067          	ret
   16110:	00008067          	ret
   16114:	00008067          	ret
   16118:	00008067          	ret
   1611c:	00008067          	ret
   16120:	00008067          	ret
   16124:	00008067          	ret
   16128:	00008067          	ret
   1612c:	00008067          	ret
   16130:	00008067          	ret
   16134:	00008067          	ret
   16138:	00008067          	ret
   1613c:	00008067          	ret
   16140:	00008067          	ret
   16144:	00008067          	ret
   16148:	00008067          	ret
   1614c:	00008067          	ret
   16150:	00008067          	ret
   16154:	00008067          	ret
   16158:	00008067          	ret
   1615c:	00008067          	ret
   16160:	00008067          	ret
   16164:	00008067          	ret
   16168:	00008067          	ret
   1616c:	00008067          	ret
   16170:	00008067          	ret
   16174:	00008067          	ret
   16178:	00008067          	ret
   1617c:	00008067          	ret
   16180:	00008067          	ret
   16184:	00008067          	ret
   16188:	00008067          	ret
   1618c:	00008067          	ret
   16190:	00008067          	ret
   16194:	00008067          	ret
   16198:	00008067          	ret
   1619c:	00008067          	ret
   161a0:	00008067          	ret
   161a4:	00008067          	ret
   161a8:	00008067          	ret
   161ac:	00008067          	ret
   161b0:	00008067          	ret
   161b4:	00008067          	ret
   161b8:	00008067          	ret
   161bc:	00008067          	ret
   161c0:	00008067          	ret
   161c4:	00008067          	ret
   161c8:	00008067          	ret
   161cc:	00008067          	ret
   161d0:	00008067          	ret
   161d4:	00008067          	ret
   161d8:	00008067          	ret
   161dc:	00008067          	ret
   161e0:	00008067          	ret
   161e4:	00008067          	ret
   161e8:	00008067          	ret
   161ec:	00008067          	ret
   161f0:	00008067          	ret
   161f4:	00008067          	ret
   161f8:	00008067          	ret
   161fc:	00008067          	ret
   16200:	00008067          	ret
   16204:	00008067          	ret
   16208:	00008067          	ret
   1620c:	00008067          	ret
   16210:	00008067          	ret
   16214:	00008067          	ret
   16218:	00008067          	ret
   1621c:	00008067          	ret
   16220:	00008067          	ret
   16224:	00008067          	ret
   16228:	00008067          	ret
   1622c:	00008067          	ret
   16230:	00008067          	ret
   16234:	00008067          	ret
   16238:	00008067          	ret
   1623c:	00008067          	ret
   16240:	00008067          	ret
   16244:	00008067          	ret
   16248:	00008067          	ret
   1624c:	00008067          	ret
   16250:	00008067          	ret
   16254:	00008067          	ret
   16258:	00008067          	ret
   1625c:	00008067          	ret
   16260:	00008067          	ret
   16264:	00008067          	ret
   16268:	00008067          	ret
   1626c:	00008067          	ret
   16270:	00008067          	ret
   16274:	00008067          	ret
   16278:	00008067          	ret
   1627c:	00008067          	ret
   16280:	00008067          	ret
   16284:	00008067          	ret
   16288:	00008067          	ret
   1628c:	00008067          	ret
   16290:	00008067          	ret
   16294:	00008067          	ret
   16298:	00008067          	ret
   1629c:	00008067          	ret
   162a0:	00008067          	ret
   162a4:	00008067          	ret
   162a8:	00008067          	ret
   162ac:	00008067          	ret
   162b0:	00008067          	ret
   162b4:	00008067          	ret
   162b8:	00008067          	ret
   162bc:	00008067          	ret
   162c0:	00008067          	ret
   162c4:	00008067          	ret
   162c8:	00008067          	ret
   162cc:	00008067          	ret
   162d0:	00008067          	ret
   162d4:	00008067          	ret
   162d8:	00008067          	ret
   162dc:	00008067          	ret
   162e0:	00008067          	ret
   162e4:	00008067          	ret
   162e8:	00008067          	ret
   162ec:	00008067          	ret
   162f0:	00008067          	ret
   162f4:	00008067          	ret
   162f8:	00008067          	ret
   162fc:	00008067          	ret
   16300:	00008067          	ret
   16304:	00008067          	ret
   16308:	00008067          	ret
   1630c:	00008067          	ret
   16310:	00008067          	ret
   16314:	00008067          	ret
   16318:	00008067          	ret
   1631c:	00008067          	ret
   16320:	00008067          	ret
   16324:	00008067          	ret
   16328:	00008067          	ret
   1632c:	00008067          	ret
   16330:	00008067          	ret
   16334:	00008067          	ret
   16338:	00008067          	ret
   1633c:	00008067          	ret
   16340:	00008067          	ret
   16344:	00008067          	ret
   16348:	00008067          	ret
   1634c:	00008067          	ret
   16350:	00008067          	ret
   16354:	00008067          	ret
   16358:	00008067          	ret
   1635c:	00008067          	ret
   16360:	00008067          	ret
   16364:	00008067          	ret
   16368:	00008067          	ret
   1636c:	00008067          	ret
   16370:	00008067          	ret
   16374:	00008067          	ret
   16378:	00008067          	ret
   1637c:	00008067          	ret
   16380:	00008067          	ret
   16384:	00008067          	ret
   16388:	00008067          	ret
   1638c:	00008067          	ret
   16390:	00008067          	ret
   16394:	00008067          	ret
   16398:	00008067          	ret
   1639c:	00008067          	ret
   163a0:	00008067          	ret
   163a4:	00008067          	ret
   163a8:	00008067          	ret
   163ac:	00008067          	ret
   163b0:	00008067          	ret
   163b4:	00008067          	ret
   163b8:	00008067          	ret
   163bc:	00008067          	ret
   163c0:	00008067          	ret
   163c4:	00008067          	ret
   163c8:	00008067          	ret
   163cc:	00008067          	ret
   163d0:	00008067          	ret
   163d4:	00008067          	ret
   163d8:	00008067          	ret
   163dc:	00008067          	ret
   163e0:	00008067          	ret
   163e4:	00008067          	ret
   163e8:	00008067          	ret
   163ec:	00008067          	ret
   163f0:	00008067          	ret
   163f4:	00008067          	ret
   163f8:	00008067          	ret
   163fc:	00008067          	ret
   16400:	00008067          	ret
   16404:	00008067          	ret
   16408:	00008067          	ret
   1640c:	00008067          	ret
   16410:	00008067          	ret
   16414:	00008067          	ret
   16418:	00008067          	ret
   1641c:	00008067          	ret
   16420:	00008067          	ret
   16424:	00008067          	ret
   16428:	00008067          	ret
   1642c:	00008067          	ret
   16430:	00008067          	ret
   16434:	00008067          	ret
   16438:	00008067          	ret
   1643c:	00008067          	ret
   16440:	00008067          	ret
   16444:	00008067          	ret
   16448:	00008067          	ret
   1644c:	00008067          	ret
   16450:	00008067          	ret
   16454:	00008067          	ret
   16458:	00008067          	ret
   1645c:	00008067          	ret
   16460:	00008067          	ret
   16464:	00008067          	ret
   16468:	00008067          	ret
   1646c:	00008067          	ret
   16470:	00008067          	ret
   16474:	00008067          	ret
   16478:	00008067          	ret
   1647c:	00008067          	ret
   16480:	00008067          	ret
   16484:	00008067          	ret
   16488:	00008067          	ret
   1648c:	00008067          	ret
   16490:	00008067          	ret
   16494:	00008067          	ret
   16498:	00008067          	ret
   1649c:	00008067          	ret
   164a0:	00008067          	ret
   164a4:	00008067          	ret
   164a8:	00008067          	ret
   164ac:	00008067          	ret
   164b0:	00008067          	ret
   164b4:	00008067          	ret
   164b8:	00008067          	ret
   164bc:	00008067          	ret
   164c0:	00008067          	ret
   164c4:	00008067          	ret
   164c8:	00008067          	ret
   164cc:	00008067          	ret
   164d0:	00008067          	ret
   164d4:	00008067          	ret
   164d8:	00008067          	ret
   164dc:	00008067          	ret
   164e0:	00008067          	ret
   164e4:	00008067          	ret
   164e8:	00008067          	ret
   164ec:	00008067          	ret
   164f0:	00008067          	ret
   164f4:	00008067          	ret
   164f8:	00008067          	ret
   164fc:	00008067          	ret
   16500:	00008067          	ret
   16504:	00008067          	ret
   16508:	00008067          	ret
   1650c:	00008067          	ret
   16510:	00008067          	ret
   16514:	00008067          	ret
   16518:	00008067          	ret
   1651c:	00008067          	ret
   16520:	00008067          	ret
   16524:	00008067          	ret
   16528:	00008067          	ret
   1652c:	00008067          	ret
   16530:	00008067          	ret
   16534:	00008067          	ret
   16538:	00008067          	ret
   1653c:	00008067          	ret
   16540:	00008067          	ret
   16544:	00008067          	ret
   16548:	00008067          	ret
   1654c:	00008067          	ret
   16550:	00008067          	ret
   16554:	00008067          	ret
   16558:	00008067          	ret
   1655c:	00008067          	ret
   16560:	00008067          	ret
   16564:	00008067          	ret
   16568:	00008067          	ret
   1656c:	00008067          	ret
   16570:	00008067          	ret
   16574:	00008067          	ret
   16578:	00008067          	ret
   1657c:	00008067          	ret
   16580:	00008067          	ret
   16584:	00008067          	ret
   16588:	00008067          	ret
   1658c:	00008067          	ret
   16590:	00008067          	ret
   16594:	00008067          	ret
   16598:	00008067          	ret
   1659c:	00008067          	ret
   165a0:	00008067          	ret
   165a4:	00008067          	ret
   165a8:	00008067          	ret
   165ac:	00008067          	ret
   165b0:	00008067          	ret
   165b4:	00008067          	ret
   165b8:	00008067          	ret
   165bc:	00008067          	ret
   165c0:	00008067          	ret
   165c4:	00008067          	ret
   165c8:	00008067          	ret
   165cc:	00008067          	ret
   165d0:	00008067          	ret
   165d4:	00008067          	ret
   165d8:	00008067          	ret
   165dc:	00008067          	ret
   165e0:	00008067          	ret
   165e4:	00008067          	ret
   165e8:	00008067          	ret
   165ec:	00008067          	ret
   165f0:	00008067          	ret
   165f4:	00008067          	ret
   165f8:	00008067          	ret
   165fc:	00008067          	ret
   16600:	00008067          	ret
   16604:	00008067          	ret
   16608:	00008067          	ret
   1660c:	00008067          	ret
   16610:	00008067          	ret
   16614:	00008067          	ret
   16618:	00008067          	ret
   1661c:	00008067          	ret
   16620:	00008067          	ret
   16624:	00008067          	ret
   16628:	00008067          	ret
   1662c:	00008067          	ret
   16630:	00008067          	ret
   16634:	00008067          	ret
   16638:	00008067          	ret
   1663c:	00008067          	ret
   16640:	00008067          	ret
   16644:	00008067          	ret
   16648:	00008067          	ret
   1664c:	00008067          	ret
   16650:	00008067          	ret
   16654:	00008067          	ret
   16658:	00008067          	ret
   1665c:	00008067          	ret
   16660:	00008067          	ret
   16664:	00008067          	ret
   16668:	00008067          	ret
   1666c:	00008067          	ret
   16670:	00008067          	ret
   16674:	00008067          	ret
   16678:	00008067          	ret
   1667c:	00008067          	ret
   16680:	00008067          	ret
   16684:	00008067          	ret
   16688:	00008067          	ret
   1668c:	00008067          	ret
   16690:	00008067          	ret
   16694:	00008067          	ret
   16698:	00008067          	ret
   1669c:	00008067          	ret
   166a0:	00008067          	ret
   166a4:	00008067          	ret
   166a8:	00008067          	ret
   166ac:	00008067          	ret
   166b0:	00008067          	ret
   166b4:	00008067          	ret
   166b8:	00008067          	ret
   166bc:	00008067          	ret
   166c0:	00008067          	ret
   166c4:	00008067          	ret
   166c8:	00008067          	ret
   166cc:	00008067          	ret
   166d0:	00008067          	ret
   166d4:	00008067          	ret
   166d8:	00008067          	ret
   166dc:	00008067          	ret
   166e0:	00008067          	ret
   166e4:	00008067          	ret
   166e8:	00008067          	ret
   166ec:	00008067          	ret
   166f0:	00008067          	ret
   166f4:	00008067          	ret
   166f8:	00008067          	ret
   166fc:	00008067          	ret
   16700:	00008067          	ret
   16704:	00008067          	ret
   16708:	00008067          	ret
   1670c:	00008067          	ret
   16710:	00008067          	ret
   16714:	00008067          	ret
   16718:	00008067          	ret
   1671c:	00008067          	ret
   16720:	00008067          	ret
   16724:	00008067          	ret
   16728:	00008067          	ret
   1672c:	00008067          	ret
   16730:	00008067          	ret
   16734:	00008067          	ret
   16738:	00008067          	ret
   1673c:	00008067          	ret
   16740:	00008067          	ret
   16744:	00008067          	ret
   16748:	00008067          	ret
   1674c:	00008067          	ret
   16750:	00008067          	ret
   16754:	00008067          	ret
   16758:	00008067          	ret
   1675c:	00008067          	ret
   16760:	00008067          	ret
   16764:	00008067          	ret
   16768:	00008067          	ret
   1676c:	00008067          	ret
   16770:	00008067          	ret
   16774:	00008067          	ret
   16778:	00008067          	ret
   1677c:	00008067          	ret
   16780:	00008067          	ret
   16784:	00008067          	ret
   16788:	00008067          	ret
   1678c:	00008067          	ret
   16790:	00008067          	ret
   16794:	00008067          	ret
   16798:	00008067          	ret
   1679c:	00008067          	ret
   167a0:	00008067          	ret
   167a4:	00008067          	ret
   167a8:	00008067          	ret
   167ac:	00008067          	ret
   167b0:	00008067          	ret
   167b4:	00008067          	ret
   167b8:	00008067          	ret
   167bc:	00008067          	ret
   167c0:	00008067          	ret
   167c4:	00008067          	ret
   167c8:	00008067          	ret
   167cc:	00008067          	ret
   167d0:	00008067          	ret
   167d4:	00008067          	ret
   167d8:	00008067          	ret
   167dc:	00008067          	ret
   167e0:	00008067          	ret
   167e4:	00008067          	ret
   167e8:	00008067          	ret
   167ec:	00008067          	ret
   167f0:	00008067          	ret
   167f4:	00008067          	ret
   167f8:	00008067          	ret
   167fc:	00008067          	ret
   16800:	00008067          	ret
   16804:	00008067          	ret
   16808:	00008067          	ret
   1680c:	00008067          	ret
   16810:	00008067          	ret
   16814:	00008067          	ret
   16818:	00008067          	ret
   1681c:	00008067          	ret
   16820:	00008067          	ret
   16824:	00008067          	ret
   16828:	00008067          	ret
   1682c:	00008067          	ret
   16830:	00008067          	ret
   16834:	00008067          	ret
   16838:	00008067          	ret
   1683c:	00008067          	ret
   16840:	00008067          	ret
   16844:	00008067          	ret
   16848:	00008067          	ret
   1684c:	00008067          	ret
   16850:	00008067          	ret
   16854:	00008067          	ret
   16858:	00008067          	ret
   1685c:	00008067          	ret
   16860:	00008067          	ret
   16864:	00008067          	ret
   16868:	00008067          	ret
   1686c:	00008067          	ret
   16870:	00008067          	ret
   16874:	00008067          	ret
   16878:	00008067          	ret
   1687c:	00008067          	ret
   16880:	00008067          	ret
   16884:	00008067          	ret
   16888:	00008067          	ret
   1688c:	00008067          	ret
   16890:	00008067          	ret
   16894:	00008067          	ret
   16898:	00008067          	ret
   1689c:	00008067          	ret
   168a0:	00008067          	ret
   168a4:	00008067          	ret
   168a8:	00008067          	ret
   168ac:	00008067          	ret
   168b0:	00008067          	ret
   168b4:	00008067          	ret
   168b8:	00008067          	ret
   168bc:	00008067          	ret
   168c0:	00008067          	ret
   168c4:	00008067          	ret
   168c8:	00008067          	ret
   168cc:	00008067          	ret
   168d0:	00008067          	ret
   168d4:	00008067          	ret
   168d8:	00008067          	ret
   168dc:	00008067          	ret
   168e0:	00008067          	ret
   168e4:	00008067          	ret
   168e8:	00008067          	ret
   168ec:	00008067          	ret
   168f0:	00008067          	ret
   168f4:	00008067          	ret
   168f8:	00008067          	ret
   168fc:	00008067          	ret
   16900:	00008067          	ret
   16904:	00008067          	ret
   16908:	00008067          	ret
   1690c:	00008067          	ret
   16910:	00008067          	ret
   16914:	00008067          	ret
   16918:	00008067          	ret
   1691c:	00008067          	ret
   16920:	00008067          	ret
   16924:	00008067          	ret
   16928:	00008067          	ret
   1692c:	00008067          	ret
   16930:	00008067          	ret
   16934:	00008067          	ret
   16938:	00008067          	ret
   1693c:	00008067          	ret
   16940:	00008067          	ret
   16944:	00008067          	ret
   16948:	00008067          	ret
   1694c:	00008067          	ret
   16950:	00008067          	ret
   16954:	00008067          	ret
   16958:	00008067          	ret
   1695c:	00008067          	ret
   16960:	00008067          	ret
   16964:	00008067          	ret
   16968:	00008067          	ret
   1696c:	00008067          	ret
   16970:	00008067          	ret
   16974:	00008067          	ret
   16978:	00008067          	ret
   1697c:	00008067          	ret
   16980:	00008067          	ret
   16984:	00008067          	ret
   16988:	00008067          	ret
   1698c:	00008067          	ret
   16990:	00008067          	ret
   16994:	00008067          	ret
   16998:	00008067          	ret
   1699c:	00008067          	ret
   169a0:	00008067          	ret
   169a4:	00008067          	ret
   169a8:	00008067          	ret
   169ac:	00008067          	ret
   169b0:	00008067          	ret
   169b4:	00008067          	ret
   169b8:	00008067          	ret
   169bc:	00008067          	ret
   169c0:	00008067          	ret
   169c4:	00008067          	ret
   169c8:	00008067          	ret
   169cc:	00008067          	ret
   169d0:	00008067          	ret
   169d4:	00008067          	ret
   169d8:	00008067          	ret
   169dc:	00008067          	ret
   169e0:	00008067          	ret
   169e4:	00008067          	ret
   169e8:	00008067          	ret
   169ec:	00008067          	ret
   169f0:	00008067          	ret
   169f4:	00008067          	ret
   169f8:	00008067          	ret
   169fc:	00008067          	ret
   16a00:	00008067          	ret
   16a04:	00008067          	ret
   16a08:	00008067          	ret
   16a0c:	00008067          	ret
   16a10:	00008067          	ret
   16a14:	00008067          	ret
   16a18:	00008067          	ret
   16a1c:	00008067          	ret
   16a20:	00008067          	ret
   16a24:	00008067          	ret
   16a28:	00008067          	ret
   16a2c:	00008067          	ret
   16a30:	00008067          	ret
   16a34:	00008067          	ret
   16a38:	00008067          	ret
   16a3c:	00008067          	ret
   16a40:	00008067          	ret
   16a44:	00008067          	ret
   16a48:	00008067          	ret
   16a4c:	00008067          	ret
   16a50:	00008067          	ret
   16a54:	00008067          	ret
   16a58:	00008067          	ret
   16a5c:	00008067          	ret
   16a60:	00008067          	ret
   16a64:	00008067          	ret
   16a68:	00008067          	ret
   16a6c:	00008067          	ret
   16a70:	00008067          	ret
   16a74:	00008067          	ret
   16a78:	00008067          	ret
   16a7c:	00008067          	ret
   16a80:	00008067          	ret
   16a84:	00008067          	ret
   16a88:	00008067          	ret
   16a8c:	00008067          	ret
   16a90:	00008067          	ret
   16a94:	00008067          	ret
   16a98:	00008067          	ret
   16a9c:	00008067          	ret
   16aa0:	00008067          	ret
   16aa4:	00008067          	ret
   16aa8:	00008067          	ret
   16aac:	00008067          	ret
   16ab0:	00008067          	ret
   16ab4:	00008067          	ret
   16ab8:	00008067          	ret
   16abc:	00008067          	ret
   16ac0:	00008067          	ret
   16ac4:	00008067          	ret
   16ac8:	00008067          	ret
   16acc:	00008067          	ret
   16ad0:	00008067          	ret
   16ad4:	00008067          	ret
   16ad8:	00008067          	ret
   16adc:	00008067          	ret
   16ae0:	00008067          	ret
   16ae4:	00008067          	ret
   16ae8:	00008067          	ret
   16aec:	00008067          	ret
   16af0:	00008067          	ret
   16af4:	00008067          	ret
   16af8:	00008067          	ret
   16afc:	00008067          	ret
   16b00:	00008067          	ret
   16b04:	00008067          	ret
   16b08:	00008067          	ret
   16b0c:	00008067          	ret
   16b10:	00008067          	ret
   16b14:	00008067          	ret
   16b18:	00008067          	ret
   16b1c:	00008067          	ret
   16b20:	00008067          	ret
   16b24:	00008067          	ret
   16b28:	00008067          	ret
   16b2c:	00008067          	ret
   16b30:	00008067          	ret
   16b34:	00008067          	ret
   16b38:	00008067          	ret
   16b3c:	00008067          	ret
   16b40:	00008067          	ret
   16b44:	00008067          	ret
   16b48:	00008067          	ret
   16b4c:	00008067          	ret
   16b50:	00008067          	ret
   16b54:	00008067          	ret
   16b58:	00008067          	ret
   16b5c:	00008067          	ret
   16b60:	00008067          	ret
   16b64:	00008067          	ret
   16b68:	00008067          	ret
   16b6c:	00008067          	ret
   16b70:	00008067          	ret
   16b74:	00008067          	ret
   16b78:	00008067          	ret
   16b7c:	00008067          	ret
   16b80:	00008067          	ret
   16b84:	00008067          	ret
   16b88:	00008067          	ret
   16b8c:	00008067          	ret
   16b90:	00008067          	ret
   16b94:	00008067          	ret
   16b98:	00008067          	ret
   16b9c:	00008067          	ret
   16ba0:	00008067          	ret
   16ba4:	00008067          	ret
   16ba8:	00008067          	ret
   16bac:	00008067          	ret
   16bb0:	00008067          	ret
   16bb4:	00008067          	ret
   16bb8:	00008067          	ret
   16bbc:	00008067          	ret
   16bc0:	00008067          	ret
   16bc4:	00008067          	ret
   16bc8:	00008067          	ret
   16bcc:	00008067          	ret
   16bd0:	00008067          	ret
   16bd4:	00008067          	ret
   16bd8:	00008067          	ret
   16bdc:	00008067          	ret
   16be0:	00008067          	ret
   16be4:	00008067          	ret
   16be8:	00008067          	ret
   16bec:	00008067          	ret
   16bf0:	00008067          	ret
   16bf4:	00008067          	ret
   16bf8:	00008067          	ret
   16bfc:	00008067          	ret
   16c00:	00008067          	ret
   16c04:	00008067          	ret
   16c08:	00008067          	ret
   16c0c:	00008067          	ret
   16c10:	00008067          	ret
   16c14:	00008067          	ret
   16c18:	00008067          	ret
   16c1c:	00008067          	ret
   16c20:	00008067          	ret
   16c24:	00008067          	ret
   16c28:	00008067          	ret
   16c2c:	00008067          	ret
   16c30:	00008067          	ret
   16c34:	00008067          	ret
   16c38:	00008067          	ret
   16c3c:	00008067          	ret
   16c40:	00008067          	ret
   16c44:	00008067          	ret
   16c48:	00008067          	ret
   16c4c:	00008067          	ret
   16c50:	00008067          	ret
   16c54:	00008067          	ret
   16c58:	00008067          	ret
   16c5c:	00008067          	ret
   16c60:	00008067          	ret
   16c64:	00008067          	ret
   16c68:	00008067          	ret
   16c6c:	00008067          	ret
   16c70:	00008067          	ret
   16c74:	00008067          	ret
   16c78:	00008067          	ret
   16c7c:	00008067          	ret
   16c80:	00008067          	ret
   16c84:	00008067          	ret
   16c88:	00008067          	ret
   16c8c:	00008067          	ret
   16c90:	00008067          	ret
   16c94:	00008067          	ret
   16c98:	00008067          	ret
   16c9c:	00008067          	ret
   16ca0:	00008067          	ret
   16ca4:	00008067          	ret
   16ca8:	00008067          	ret
   16cac:	00008067          	ret
   16cb0:	00008067          	ret
   16cb4:	00008067          	ret
   16cb8:	00008067          	ret
   16cbc:	00008067          	ret
   16cc0:	00008067          	ret
   16cc4:	00008067          	ret
   16cc8:	00008067          	ret
   16ccc:	00008067          	ret
   16cd0:	00008067          	ret
   16cd4:	00008067          	ret
   16cd8:	00008067          	ret
   16cdc:	00008067          	ret
   16ce0:	00008067          	ret
   16ce4:	00008067          	ret
   16ce8:	00008067          	ret
   16cec:	00008067          	ret
   16cf0:	00008067          	ret
   16cf4:	00008067          	ret
   16cf8:	00008067          	ret
   16cfc:	00008067          	ret
   16d00:	00008067          	ret
   16d04:	00008067          	ret
   16d08:	00008067          	ret
   16d0c:	00008067          	ret
   16d10:	00008067          	ret
   16d14:	00008067          	ret
   16d18:	00008067          	ret
   16d1c:	00008067          	ret
   16d20:	00008067          	ret
   16d24:	00008067          	ret
   16d28:	00008067          	ret
   16d2c:	00008067          	ret
   16d30:	00008067          	ret
   16d34:	00008067          	ret
   16d38:	00008067          	ret
   16d3c:	00008067          	ret
   16d40:	00008067          	ret
   16d44:	00008067          	ret
   16d48:	00008067          	ret
   16d4c:	00008067          	ret
   16d50:	00008067          	ret
   16d54:	00008067          	ret
   16d58:	00008067          	ret
   16d5c:	00008067          	ret
   16d60:	00008067          	ret
   16d64:	00008067          	ret
   16d68:	00008067          	ret
   16d6c:	00008067          	ret
   16d70:	00008067          	ret
   16d74:	00008067          	ret
   16d78:	00008067          	ret
   16d7c:	00008067          	ret
   16d80:	00008067          	ret
   16d84:	00008067          	ret
   16d88:	00008067          	ret
   16d8c:	00008067          	ret
   16d90:	00008067          	ret
   16d94:	00008067          	ret
   16d98:	00008067          	ret
   16d9c:	00008067          	ret
   16da0:	00008067          	ret
   16da4:	00008067          	ret
   16da8:	00008067          	ret
   16dac:	00008067          	ret
   16db0:	00008067          	ret
   16db4:	00008067          	ret
   16db8:	00008067          	ret
   16dbc:	00008067          	ret
   16dc0:	00008067          	ret
   16dc4:	00008067          	ret
   16dc8:	00008067          	ret
   16dcc:	00008067          	ret
   16dd0:	00008067          	ret
   16dd4:	00008067          	ret
   16dd8:	00008067          	ret
   16ddc:	00008067          	ret
   16de0:	00008067          	ret
   16de4:	00008067          	ret
   16de8:	00008067          	ret
   16dec:	00008067          	ret
   16df0:	00008067          	ret
   16df4:	00008067          	ret
   16df8:	00008067          	ret
   16dfc:	00008067          	ret
   16e00:	00008067          	ret
   16e04:	00008067          	ret
   16e08:	00008067          	ret
   16e0c:	00008067          	ret
   16e10:	00008067          	ret
   16e14:	00008067          	ret
   16e18:	00008067          	ret
   16e1c:	00008067          	ret
   16e20:	00008067          	ret
   16e24:	00008067          	ret
   16e28:	00008067          	ret
   16e2c:	00008067          	ret
   16e30:	00008067          	ret
   16e34:	00008067          	ret
   16e38:	00008067          	ret
   16e3c:	00008067          	ret
   16e40:	00008067          	ret
   16e44:	00008067          	ret
   16e48:	00008067          	ret
   16e4c:	00008067          	ret
   16e50:	00008067          	ret
   16e54:	00008067          	ret
   16e58:	00008067          	ret
   16e5c:	00008067          	ret
   16e60:	00008067          	ret
   16e64:	00008067          	ret
   16e68:	00008067          	ret
   16e6c:	00008067          	ret
   16e70:	00008067          	ret
   16e74:	00008067          	ret
   16e78:	00008067          	ret
   16e7c:	00008067          	ret
   16e80:	00008067          	ret
   16e84:	00008067          	ret
   16e88:	00008067          	ret
   16e8c:	00008067          	ret
   16e90:	00008067          	ret
   16e94:	00008067          	ret
   16e98:	00008067          	ret
   16e9c:	00008067          	ret
   16ea0:	00008067          	ret
   16ea4:	00008067          	ret
   16ea8:	00008067          	ret
   16eac:	00008067          	ret
   16eb0:	00008067          	ret
   16eb4:	00008067          	ret
   16eb8:	00008067          	ret
   16ebc:	00008067          	ret
   16ec0:	00008067          	ret
   16ec4:	00008067          	ret
   16ec8:	00008067          	ret
   16ecc:	00008067          	ret
   16ed0:	00008067          	ret
   16ed4:	00008067          	ret
   16ed8:	00008067          	ret
   16edc:	00008067          	ret
   16ee0:	00008067          	ret
   16ee4:	00008067          	ret
   16ee8:	00008067          	ret
   16eec:	00008067          	ret
   16ef0:	00008067          	ret
   16ef4:	00008067          	ret
   16ef8:	00008067          	ret
   16efc:	00008067          	ret
   16f00:	00008067          	ret
   16f04:	00008067          	ret
   16f08:	00008067          	ret
   16f0c:	00008067          	ret
   16f10:	00008067          	ret
   16f14:	00008067          	ret
   16f18:	00008067          	ret
   16f1c:	00008067          	ret
   16f20:	00008067          	ret
   16f24:	00008067          	ret
   16f28:	00008067          	ret
   16f2c:	00008067          	ret
   16f30:	00008067          	ret
   16f34:	00008067          	ret
   16f38:	00008067          	ret
   16f3c:	00008067          	ret
   16f40:	00008067          	ret
   16f44:	00008067          	ret
   16f48:	00008067          	ret
   16f4c:	00008067          	ret
   16f50:	00008067          	ret
   16f54:	00008067          	ret
   16f58:	00008067          	ret
   16f5c:	00008067          	ret
   16f60:	00008067          	ret
   16f64:	00008067          	ret
   16f68:	00008067          	ret
   16f6c:	00008067          	ret
   16f70:	00008067          	ret
   16f74:	00008067          	ret
   16f78:	00008067          	ret
   16f7c:	00008067          	ret
   16f80:	00008067          	ret
   16f84:	00008067          	ret
   16f88:	00008067          	ret
   16f8c:	00008067          	ret
   16f90:	00008067          	ret
   16f94:	00008067          	ret
   16f98:	00008067          	ret
   16f9c:	00008067          	ret
   16fa0:	00008067          	ret
   16fa4:	00008067          	ret
   16fa8:	00008067          	ret
   16fac:	00008067          	ret
   16fb0:	00008067          	ret
   16fb4:	00008067          	ret
   16fb8:	00008067          	ret
   16fbc:	00008067          	ret
   16fc0:	00008067          	ret
   16fc4:	00008067          	ret
   16fc8:	00008067          	ret
   16fcc:	00008067          	ret
   16fd0:	00008067          	ret
   16fd4:	00008067          	ret
   16fd8:	00008067          	ret
   16fdc:	00008067          	ret
   16fe0:	00008067          	ret
   16fe4:	00008067          	ret
   16fe8:	00008067          	ret
   16fec:	00008067          	ret
   16ff0:	00008067          	ret
   16ff4:	00008067          	ret
   16ff8:	00008067          	ret
   16ffc:	00008067          	ret
   17000:	00008067          	ret
   17004:	00008067          	ret
   17008:	00008067          	ret
   1700c:	00008067          	ret
   17010:	00008067          	ret
   17014:	00008067          	ret
   17018:	00008067          	ret
   1701c:	00008067          	ret
   17020:	00008067          	ret
   17024:	00008067          	ret
   17028:	00008067          	ret
   1702c:	00008067          	ret
   17030:	00008067          	ret
   17034:	00008067          	ret
   17038:	00008067          	ret
   1703c:	00008067          	ret
   17040:	00008067          	ret
   17044:	00008067          	ret
   17048:	00008067          	ret
   1704c:	00008067          	ret
   17050:	00008067          	ret
   17054:	00008067          	ret
   17058:	00008067          	ret
   1705c:	00008067          	ret
   17060:	00008067          	ret
   17064:	00008067          	ret
   17068:	00008067          	ret
   1706c:	00008067          	ret
   17070:	00008067          	ret
   17074:	00008067          	ret
   17078:	00008067          	ret
   1707c:	00008067          	ret
   17080:	00008067          	ret
   17084:	00008067          	ret
   17088:	00008067          	ret
   1708c:	00008067          	ret
   17090:	00008067          	ret
   17094:	00008067          	ret
   17098:	00008067          	ret
   1709c:	00008067          	ret
   170a0:	00008067          	ret
   170a4:	00008067          	ret
   170a8:	00008067          	ret
   170ac:	00008067          	ret
   170b0:	00008067          	ret
   170b4:	00008067          	ret
   170b8:	00008067          	ret
   170bc:	00008067          	ret
   170c0:	00008067          	ret
   170c4:	00008067          	ret
   170c8:	00008067          	ret
   170cc:	00008067          	ret
   170d0:	00008067          	ret
   170d4:	00008067          	ret
   170d8:	00008067          	ret
   170dc:	00008067          	ret
   170e0:	00008067          	ret
   170e4:	00008067          	ret
   170e8:	00008067          	ret
   170ec:	00008067          	ret
   170f0:	00008067          	ret
   170f4:	00008067          	ret
   170f8:	00008067          	ret
   170fc:	00008067          	ret
   17100:	00008067          	ret
   17104:	00008067          	ret
   17108:	00008067          	ret
   1710c:	00008067          	ret
   17110:	00008067          	ret
   17114:	00008067          	ret
   17118:	00008067          	ret
   1711c:	00008067          	ret
   17120:	00008067          	ret
   17124:	00008067          	ret
   17128:	00008067          	ret
   1712c:	00008067          	ret
   17130:	00008067          	ret
   17134:	00008067          	ret
   17138:	00008067          	ret
   1713c:	00008067          	ret
   17140:	00008067          	ret
   17144:	00008067          	ret
   17148:	00008067          	ret
   1714c:	00008067          	ret
   17150:	00008067          	ret
   17154:	00008067          	ret
   17158:	00008067          	ret
   1715c:	00008067          	ret
   17160:	00008067          	ret
   17164:	00008067          	ret
   17168:	00008067          	ret
   1716c:	00008067          	ret
   17170:	00008067          	ret
   17174:	00008067          	ret
   17178:	00008067          	ret
   1717c:	00008067          	ret
   17180:	00008067          	ret
   17184:	00008067          	ret
   17188:	00008067          	ret
   1718c:	00008067          	ret
   17190:	00008067          	ret
   17194:	00008067          	ret
   17198:	00008067          	ret
   1719c:	00008067          	ret
   171a0:	00008067          	ret
   171a4:	00008067          	ret
   171a8:	00008067          	ret
   171ac:	00008067          	ret
   171b0:	00008067          	ret
   171b4:	00008067          	ret
   171b8:	00008067          	ret
   171bc:	00008067          	ret
   171c0:	00008067          	ret
   171c4:	00008067          	ret
   171c8:	00008067          	ret
   171cc:	00008067          	ret
   171d0:	00008067          	ret
   171d4:	00008067          	ret
   171d8:	00008067          	ret
   171dc:	00008067          	ret
   171e0:	00008067          	ret
   171e4:	00008067          	ret
   171e8:	00008067          	ret
   171ec:	00008067          	ret
   171f0:	00008067          	ret
   171f4:	00008067          	ret
   171f8:	00008067          	ret
   171fc:	00008067          	ret
   17200:	00008067          	ret
   17204:	00008067          	ret
   17208:	00008067          	ret
   1720c:	00008067          	ret
   17210:	00008067          	ret
   17214:	00008067          	ret
   17218:	00008067          	ret
   1721c:	00008067          	ret
   17220:	00008067          	ret
   17224:	00008067          	ret
   17228:	00008067          	ret
   1722c:	00008067          	ret
   17230:	00008067          	ret
   17234:	00008067          	ret
   17238:	00008067          	ret
   1723c:	00008067          	ret
   17240:	00008067          	ret
   17244:	00008067          	ret
   17248:	00008067          	ret
   1724c:	00008067          	ret
   17250:	00008067          	ret
   17254:	00008067          	ret
   17258:	00008067          	ret
   1725c:	00008067          	ret
   17260:	00008067          	ret
   17264:	00008067          	ret
   17268:	00008067          	ret
   1726c:	00008067          	ret
   17270:	00008067          	ret
   17274:	00008067          	ret
   17278:	00008067          	ret
   1727c:	00008067          	ret
   17280:	00008067          	ret
   17284:	00008067          	ret
   17288:	00008067          	ret
   1728c:	00008067          	ret
   17290:	00008067          	ret
   17294:	00008067          	ret
   17298:	00008067          	ret
   1729c:	00008067          	ret
   172a0:	00008067          	ret
   172a4:	00008067          	ret
   172a8:	00008067          	ret
   172ac:	00008067          	ret
   172b0:	00008067          	ret
   172b4:	00008067          	ret
   172b8:	00008067          	ret
   172bc:	00008067          	ret
   172c0:	00008067          	ret
   172c4:	00008067          	ret
   172c8:	00008067          	ret
   172cc:	00008067          	ret
   172d0:	00008067          	ret
   172d4:	00008067          	ret
   172d8:	00008067          	ret
   172dc:	00008067          	ret
   172e0:	00008067          	ret
   172e4:	00008067          	ret
   172e8:	00008067          	ret
   172ec:	00008067          	ret
   172f0:	00008067          	ret
   172f4:	00008067          	ret
   172f8:	00008067          	ret
   172fc:	00008067          	ret
   17300:	00008067          	ret
   17304:	00008067          	ret
   17308:	00008067          	ret
   1730c:	00008067          	ret
   17310:	00008067          	ret
   17314:	00008067          	ret
   17318:	00008067          	ret
   1731c:	00008067          	ret
   17320:	00008067          	ret
   17324:	00008067          	ret
   17328:	00008067          	ret
   1732c:	00008067          	ret
   17330:	00008067          	ret
   17334:	00008067          	ret
   17338:	00008067          	ret
   1733c:	00008067          	ret
   17340:	00008067          	ret
   17344:	00008067          	ret
   17348:	00008067          	ret
   1734c:	00008067          	ret
   17350:	00008067          	ret
   17354:	00008067          	ret
   17358:	00008067          	ret
   1735c:	00008067          	ret
   17360:	00008067          	ret
   17364:	00008067          	ret
   17368:	00008067          	ret
   1736c:	00008067          	ret
   17370:	00008067          	ret
   17374:	00008067          	ret
   17378:	00008067          	ret
   1737c:	00008067          	ret
   17380:	00008067          	ret
   17384:	00008067          	ret
   17388:	00008067          	ret
   1738c:	00008067          	ret
   17390:	00008067          	ret
   17394:	00008067          	ret
   17398:	00008067          	ret
   1739c:	00008067          	ret
   173a0:	00008067          	ret
   173a4:	00008067          	ret
   173a8:	00008067          	ret
   173ac:	00008067          	ret
   173b0:	00008067          	ret
   173b4:	00008067          	ret
   173b8:	00008067          	ret
   173bc:	00008067          	ret
   173c0:	00008067          	ret
   173c4:	00008067          	ret
   173c8:	00008067          	ret
   173cc:	00008067          	ret
   173d0:	00008067          	ret
   173d4:	00008067          	ret
   173d8:	00008067          	ret
   173dc:	00008067          	ret
   173e0:	00008067          	ret
   173e4:	00008067          	ret
   173e8:	00008067          	ret
   173ec:	00008067          	ret
   173f0:	00008067          	ret
   173f4:	00008067          	ret
   173f8:	00008067          	ret
   173fc:	00008067          	ret
   17400:	00008067          	ret
   17404:	00008067          	ret
   17408:	00008067          	ret
   1740c:	00008067          	ret
   17410:	00008067          	ret
   17414:	00008067          	ret
   17418:	00008067          	ret
   1741c:	00008067          	ret
   17420:	00008067          	ret
   17424:	00008067          	ret
   17428:	00008067          	ret
   1742c:	00008067          	ret
   17430:	00008067          	ret
   17434:	00008067          	ret
   17438:	00008067          	ret
   1743c:	00008067          	ret
   17440:	00008067          	ret
   17444:	00008067          	ret
   17448:	00008067          	ret
   1744c:	00008067          	ret
   17450:	00008067          	ret
   17454:	00008067          	ret
   17458:	00008067          	ret
   1745c:	00008067          	ret
   17460:	00008067          	ret
   17464:	00008067          	ret
   17468:	00008067          	ret
   1746c:	00008067          	ret
   17470:	00008067          	ret
   17474:	00008067          	ret
   17478:	00008067          	ret
   1747c:	00008067          	ret
   17480:	00008067          	ret
   17484:	00008067          	ret
   17488:	00008067          	ret
   1748c:	00008067          	ret
   17490:	00008067          	ret
   17494:	00008067          	ret
   17498:	00008067          	ret
   1749c:	00008067          	ret
   174a0:	00008067          	ret
   174a4:	00008067          	ret
   174a8:	00008067          	ret
   174ac:	00008067          	ret
   174b0:	00008067          	ret
   174b4:	00008067          	ret
   174b8:	00008067          	ret
   174bc:	00008067          	ret
   174c0:	00008067          	ret
   174c4:	00008067          	ret
   174c8:	00008067          	ret
   174cc:	00008067          	ret
   174d0:	00008067          	ret
   174d4:	00008067          	ret
   174d8:	00008067          	ret
   174dc:	00008067          	ret
   174e0:	00008067          	ret
   174e4:	00008067          	ret
   174e8:	00008067          	ret
   174ec:	00008067          	ret
   174f0:	00008067          	ret
   174f4:	00008067          	ret
   174f8:	00008067          	ret
   174fc:	00008067          	ret
   17500:	00008067          	ret
   17504:	00008067          	ret
   17508:	00008067          	ret
   1750c:	00008067          	ret
   17510:	00008067          	ret
   17514:	00008067          	ret
   17518:	00008067          	ret
   1751c:	00008067          	ret
   17520:	00008067          	ret
   17524:	00008067          	ret
   17528:	00008067          	ret
   1752c:	00008067          	ret
   17530:	00008067          	ret
   17534:	00008067          	ret
   17538:	00008067          	ret
   1753c:	00008067          	ret
   17540:	00008067          	ret
   17544:	00008067          	ret
   17548:	00008067          	ret
   1754c:	00008067          	ret
   17550:	00008067          	ret
   17554:	00008067          	ret
   17558:	00008067          	ret
   1755c:	00008067          	ret
   17560:	00008067          	ret
   17564:	00008067          	ret
   17568:	00008067          	ret
   1756c:	00008067          	ret
   17570:	00008067          	ret
   17574:	00008067          	ret
   17578:	00008067          	ret
   1757c:	00008067          	ret
   17580:	00008067          	ret
   17584:	00008067          	ret
   17588:	00008067          	ret
   1758c:	00008067          	ret
   17590:	00008067          	ret
   17594:	00008067          	ret
   17598:	00008067          	ret
   1759c:	00008067          	ret
   175a0:	00008067          	ret
   175a4:	00008067          	ret
   175a8:	00008067          	ret
   175ac:	00008067          	ret
   175b0:	00008067          	ret
   175b4:	00008067          	ret
   175b8:	00008067          	ret
   175bc:	00008067          	ret
   175c0:	00008067          	ret
   175c4:	00008067          	ret
   175c8:	00008067          	ret
   175cc:	00008067          	ret
   175d0:	00008067          	ret
   175d4:	00008067          	ret
   175d8:	00008067          	ret
   175dc:	00008067          	ret
   175e0:	00008067          	ret
   175e4:	00008067          	ret
   175e8:	00008067          	ret
   175ec:	00008067          	ret
   175f0:	00008067          	ret
   175f4:	00008067          	ret
   175f8:	00008067          	ret
   175fc:	00008067          	ret
   17600:	00008067          	ret
   17604:	00008067          	ret
   17608:	00008067          	ret
   1760c:	00008067          	ret
   17610:	00008067          	ret
   17614:	00008067          	ret
   17618:	00008067          	ret
   1761c:	00008067          	ret
   17620:	00008067          	ret
