
bin/hello.riscv:     file format elf64-littleriscv


Disassembly of section .text:

00000000000100e8 <exit>:
   100e8:	1141                	addi	sp,sp,-16
   100ea:	4581                	li	a1,0
   100ec:	e022                	sd	s0,0(sp)
   100ee:	e406                	sd	ra,8(sp)
   100f0:	842a                	mv	s0,a0
   100f2:	067000ef          	jal	10958 <__call_exitprocs>
   100f6:	1a01b783          	ld	a5,416(gp) # 139c0 <__stdio_exit_handler>
   100fa:	c391                	beqz	a5,100fe <exit+0x16>
   100fc:	9782                	jalr	a5
   100fe:	8522                	mv	a0,s0
   10100:	330020ef          	jal	12430 <_exit>

0000000000010104 <register_fini>:
   10104:	00000793          	li	a5,0
   10108:	c791                	beqz	a5,10114 <register_fini+0x10>
   1010a:	6549                	lui	a0,0x12
   1010c:	b3c50513          	addi	a0,a0,-1220 # 11b3c <__libc_fini_array>
   10110:	11b0006f          	j	10a2a <atexit>
   10114:	8082                	ret

0000000000010116 <_start>:
   10116:	00003197          	auipc	gp,0x3
   1011a:	70a18193          	addi	gp,gp,1802 # 13820 <__global_pointer$>
   1011e:	1a018513          	addi	a0,gp,416 # 139c0 <__stdio_exit_handler>
   10122:	76018613          	addi	a2,gp,1888 # 13f80 <__BSS_END__>
   10126:	8e09                	sub	a2,a2,a0
   10128:	4581                	li	a1,0
   1012a:	6e2000ef          	jal	1080c <memset>
   1012e:	00001517          	auipc	a0,0x1
   10132:	8fc50513          	addi	a0,a0,-1796 # 10a2a <atexit>
   10136:	c519                	beqz	a0,10144 <_start+0x2e>
   10138:	00002517          	auipc	a0,0x2
   1013c:	a0450513          	addi	a0,a0,-1532 # 11b3c <__libc_fini_array>
   10140:	0eb000ef          	jal	10a2a <atexit>
   10144:	65e000ef          	jal	107a2 <__libc_init_array>
   10148:	4502                	lw	a0,0(sp)
   1014a:	002c                	addi	a1,sp,8
   1014c:	4601                	li	a2,0
   1014e:	04e000ef          	jal	1019c <main>
   10152:	bf59                	j	100e8 <exit>

0000000000010154 <__do_global_dtors_aux>:
   10154:	1141                	addi	sp,sp,-16
   10156:	e022                	sd	s0,0(sp)
   10158:	1d81c783          	lbu	a5,472(gp) # 139f8 <completed.1>
   1015c:	e406                	sd	ra,8(sp)
   1015e:	ef91                	bnez	a5,1017a <__do_global_dtors_aux+0x26>
   10160:	00000793          	li	a5,0
   10164:	cb81                	beqz	a5,10174 <__do_global_dtors_aux+0x20>
   10166:	654d                	lui	a0,0x13
   10168:	00050513          	mv	a0,a0
   1016c:	00000097          	auipc	ra,0x0
   10170:	000000e7          	jalr	zero # 0 <exit-0x100e8>
   10174:	4785                	li	a5,1
   10176:	1cf18c23          	sb	a5,472(gp) # 139f8 <completed.1>
   1017a:	60a2                	ld	ra,8(sp)
   1017c:	6402                	ld	s0,0(sp)
   1017e:	0141                	addi	sp,sp,16
   10180:	8082                	ret

0000000000010182 <frame_dummy>:
   10182:	00000793          	li	a5,0
   10186:	cb91                	beqz	a5,1019a <frame_dummy+0x18>
   10188:	654d                	lui	a0,0x13
   1018a:	1e018593          	addi	a1,gp,480 # 13a00 <object.0>
   1018e:	00050513          	mv	a0,a0
   10192:	00000317          	auipc	t1,0x0
   10196:	00000067          	jr	zero # 0 <exit-0x100e8>
   1019a:	8082                	ret

000000000001019c <main>:
   1019c:	ff010113          	addi	sp,sp,-16
   101a0:	00113423          	sd	ra,8(sp)
   101a4:	00813023          	sd	s0,0(sp)
   101a8:	01010413          	addi	s0,sp,16
   101ac:	000127b7          	lui	a5,0x12
   101b0:	5e878513          	addi	a0,a5,1512 # 125e8 <__errno+0xa>
   101b4:	390000ef          	jal	10544 <puts>
   101b8:	00000793          	li	a5,0
   101bc:	00078513          	mv	a0,a5
   101c0:	00813083          	ld	ra,8(sp)
   101c4:	00013403          	ld	s0,0(sp)
   101c8:	01010113          	addi	sp,sp,16
   101cc:	00008067          	ret

00000000000101d0 <__fp_lock>:
   101d0:	4501                	li	a0,0
   101d2:	8082                	ret

00000000000101d4 <stdio_exit_handler>:
   101d4:	664d                	lui	a2,0x13
   101d6:	65c5                	lui	a1,0x11
   101d8:	654d                	lui	a0,0x13
   101da:	02060613          	addi	a2,a2,32 # 13020 <__sglue>
   101de:	34e58593          	addi	a1,a1,846 # 1134e <_fclose_r>
   101e2:	03850513          	addi	a0,a0,56 # 13038 <_impure_data>
   101e6:	ac99                	j	1043c <_fwalk_sglue>

00000000000101e8 <cleanup_stdio>:
   101e8:	650c                	ld	a1,8(a0)
   101ea:	1141                	addi	sp,sp,-16
   101ec:	e022                	sd	s0,0(sp)
   101ee:	e406                	sd	ra,8(sp)
   101f0:	21018793          	addi	a5,gp,528 # 13a30 <__sf>
   101f4:	842a                	mv	s0,a0
   101f6:	00f58463          	beq	a1,a5,101fe <cleanup_stdio+0x16>
   101fa:	154010ef          	jal	1134e <_fclose_r>
   101fe:	680c                	ld	a1,16(s0)
   10200:	2c018793          	addi	a5,gp,704 # 13ae0 <__sf+0xb0>
   10204:	00f58563          	beq	a1,a5,1020e <cleanup_stdio+0x26>
   10208:	8522                	mv	a0,s0
   1020a:	144010ef          	jal	1134e <_fclose_r>
   1020e:	6c0c                	ld	a1,24(s0)
   10210:	37018793          	addi	a5,gp,880 # 13b90 <__sf+0x160>
   10214:	00f58863          	beq	a1,a5,10224 <cleanup_stdio+0x3c>
   10218:	8522                	mv	a0,s0
   1021a:	6402                	ld	s0,0(sp)
   1021c:	60a2                	ld	ra,8(sp)
   1021e:	0141                	addi	sp,sp,16
   10220:	12e0106f          	j	1134e <_fclose_r>
   10224:	60a2                	ld	ra,8(sp)
   10226:	6402                	ld	s0,0(sp)
   10228:	0141                	addi	sp,sp,16
   1022a:	8082                	ret

000000000001022c <__fp_unlock>:
   1022c:	4501                	li	a0,0
   1022e:	8082                	ret

0000000000010230 <global_stdio_init.part.0>:
   10230:	7179                	addi	sp,sp,-48
   10232:	67c1                	lui	a5,0x10
   10234:	f022                	sd	s0,32(sp)
   10236:	1d478793          	addi	a5,a5,468 # 101d4 <stdio_exit_handler>
   1023a:	21018413          	addi	s0,gp,528 # 13a30 <__sf>
   1023e:	f406                	sd	ra,40(sp)
   10240:	ec26                	sd	s1,24(sp)
   10242:	e84a                	sd	s2,16(sp)
   10244:	e44e                	sd	s3,8(sp)
   10246:	e052                	sd	s4,0(sp)
   10248:	1af1b023          	sd	a5,416(gp) # 139c0 <__stdio_exit_handler>
   1024c:	4621                	li	a2,8
   1024e:	4791                	li	a5,4
   10250:	4581                	li	a1,0
   10252:	2b418513          	addi	a0,gp,692 # 13ad4 <__sf+0xa4>
   10256:	c81c                	sw	a5,16(s0)
   10258:	00043023          	sd	zero,0(s0)
   1025c:	00043423          	sd	zero,8(s0)
   10260:	0a042623          	sw	zero,172(s0)
   10264:	00043c23          	sd	zero,24(s0)
   10268:	02042023          	sw	zero,32(s0)
   1026c:	02042423          	sw	zero,40(s0)
   10270:	59c000ef          	jal	1080c <memset>
   10274:	67c1                	lui	a5,0x10
   10276:	6a41                	lui	s4,0x10
   10278:	69c1                	lui	s3,0x10
   1027a:	6941                	lui	s2,0x10
   1027c:	64c1                	lui	s1,0x10
   1027e:	54ca0a13          	addi	s4,s4,1356 # 1054c <__sread>
   10282:	58898993          	addi	s3,s3,1416 # 10588 <__swrite>
   10286:	5da90913          	addi	s2,s2,1498 # 105da <__sseek>
   1028a:	62c48493          	addi	s1,s1,1580 # 1062c <__sclose>
   1028e:	07a5                	addi	a5,a5,9 # 10009 <exit-0xdf>
   10290:	4621                	li	a2,8
   10292:	4581                	li	a1,0
   10294:	36418513          	addi	a0,gp,868 # 13b84 <__sf+0x154>
   10298:	03443c23          	sd	s4,56(s0)
   1029c:	05343023          	sd	s3,64(s0)
   102a0:	05243423          	sd	s2,72(s0)
   102a4:	e824                	sd	s1,80(s0)
   102a6:	0cf42023          	sw	a5,192(s0)
   102aa:	f800                	sd	s0,48(s0)
   102ac:	0a043823          	sd	zero,176(s0)
   102b0:	0a043c23          	sd	zero,184(s0)
   102b4:	14042e23          	sw	zero,348(s0)
   102b8:	0c043423          	sd	zero,200(s0)
   102bc:	0c042823          	sw	zero,208(s0)
   102c0:	0c042c23          	sw	zero,216(s0)
   102c4:	548000ef          	jal	1080c <memset>
   102c8:	000207b7          	lui	a5,0x20
   102cc:	07c9                	addi	a5,a5,18 # 20012 <__BSS_END__+0xc092>
   102ce:	2c018713          	addi	a4,gp,704 # 13ae0 <__sf+0xb0>
   102d2:	4621                	li	a2,8
   102d4:	4581                	li	a1,0
   102d6:	41418513          	addi	a0,gp,1044 # 13c34 <__sf+0x204>
   102da:	0f443423          	sd	s4,232(s0)
   102de:	0f343823          	sd	s3,240(s0)
   102e2:	0f243c23          	sd	s2,248(s0)
   102e6:	10943023          	sd	s1,256(s0)
   102ea:	16f42823          	sw	a5,368(s0)
   102ee:	f078                	sd	a4,224(s0)
   102f0:	16043023          	sd	zero,352(s0)
   102f4:	16043423          	sd	zero,360(s0)
   102f8:	20042623          	sw	zero,524(s0)
   102fc:	16043c23          	sd	zero,376(s0)
   10300:	18042023          	sw	zero,384(s0)
   10304:	18042423          	sw	zero,392(s0)
   10308:	504000ef          	jal	1080c <memset>
   1030c:	37018793          	addi	a5,gp,880 # 13b90 <__sf+0x160>
   10310:	19443c23          	sd	s4,408(s0)
   10314:	1b343023          	sd	s3,416(s0)
   10318:	1b243423          	sd	s2,424(s0)
   1031c:	1a943823          	sd	s1,432(s0)
   10320:	70a2                	ld	ra,40(sp)
   10322:	18f43823          	sd	a5,400(s0)
   10326:	7402                	ld	s0,32(sp)
   10328:	64e2                	ld	s1,24(sp)
   1032a:	6942                	ld	s2,16(sp)
   1032c:	69a2                	ld	s3,8(sp)
   1032e:	6a02                	ld	s4,0(sp)
   10330:	6145                	addi	sp,sp,48
   10332:	8082                	ret

0000000000010334 <__sfp>:
   10334:	1a01b783          	ld	a5,416(gp) # 139c0 <__stdio_exit_handler>
   10338:	7179                	addi	sp,sp,-48
   1033a:	e84a                	sd	s2,16(sp)
   1033c:	f406                	sd	ra,40(sp)
   1033e:	f022                	sd	s0,32(sp)
   10340:	ec26                	sd	s1,24(sp)
   10342:	e44e                	sd	s3,8(sp)
   10344:	892a                	mv	s2,a0
   10346:	c7cd                	beqz	a5,103f0 <__sfp+0xbc>
   10348:	64cd                	lui	s1,0x13
   1034a:	02048493          	addi	s1,s1,32 # 13020 <__sglue>
   1034e:	0b000993          	li	s3,176
   10352:	4498                	lw	a4,8(s1)
   10354:	6880                	ld	s0,16(s1)
   10356:	06e05463          	blez	a4,103be <__sfp+0x8a>
   1035a:	1702                	slli	a4,a4,0x20
   1035c:	9301                	srli	a4,a4,0x20
   1035e:	03370733          	mul	a4,a4,s3
   10362:	9722                	add	a4,a4,s0
   10364:	a029                	j	1036e <__sfp+0x3a>
   10366:	0b040413          	addi	s0,s0,176
   1036a:	04870a63          	beq	a4,s0,103be <__sfp+0x8a>
   1036e:	01041783          	lh	a5,16(s0)
   10372:	fbf5                	bnez	a5,10366 <__sfp+0x32>
   10374:	77c1                	lui	a5,0xffff0
   10376:	0785                	addi	a5,a5,1 # ffffffffffff0001 <__BSS_END__+0xfffffffffffdc081>
   10378:	c81c                	sw	a5,16(s0)
   1037a:	0a042623          	sw	zero,172(s0)
   1037e:	00043023          	sd	zero,0(s0)
   10382:	00043423          	sd	zero,8(s0)
   10386:	00043c23          	sd	zero,24(s0)
   1038a:	02042023          	sw	zero,32(s0)
   1038e:	02042423          	sw	zero,40(s0)
   10392:	4621                	li	a2,8
   10394:	4581                	li	a1,0
   10396:	0a440513          	addi	a0,s0,164
   1039a:	472000ef          	jal	1080c <memset>
   1039e:	04043c23          	sd	zero,88(s0)
   103a2:	06042023          	sw	zero,96(s0)
   103a6:	06043c23          	sd	zero,120(s0)
   103aa:	08042023          	sw	zero,128(s0)
   103ae:	70a2                	ld	ra,40(sp)
   103b0:	8522                	mv	a0,s0
   103b2:	7402                	ld	s0,32(sp)
   103b4:	64e2                	ld	s1,24(sp)
   103b6:	6942                	ld	s2,16(sp)
   103b8:	69a2                	ld	s3,8(sp)
   103ba:	6145                	addi	sp,sp,48
   103bc:	8082                	ret
   103be:	6080                	ld	s0,0(s1)
   103c0:	c019                	beqz	s0,103c6 <__sfp+0x92>
   103c2:	84a2                	mv	s1,s0
   103c4:	b779                	j	10352 <__sfp+0x1e>
   103c6:	2d800593          	li	a1,728
   103ca:	854a                	mv	a0,s2
   103cc:	17d000ef          	jal	10d48 <_malloc_r>
   103d0:	842a                	mv	s0,a0
   103d2:	c115                	beqz	a0,103f6 <__sfp+0xc2>
   103d4:	0561                	addi	a0,a0,24
   103d6:	4791                	li	a5,4
   103d8:	00043023          	sd	zero,0(s0)
   103dc:	c41c                	sw	a5,8(s0)
   103de:	e808                	sd	a0,16(s0)
   103e0:	2c000613          	li	a2,704
   103e4:	4581                	li	a1,0
   103e6:	426000ef          	jal	1080c <memset>
   103ea:	e080                	sd	s0,0(s1)
   103ec:	84a2                	mv	s1,s0
   103ee:	b795                	j	10352 <__sfp+0x1e>
   103f0:	e41ff0ef          	jal	10230 <global_stdio_init.part.0>
   103f4:	bf91                	j	10348 <__sfp+0x14>
   103f6:	0004b023          	sd	zero,0(s1)
   103fa:	47b1                	li	a5,12
   103fc:	00f92023          	sw	a5,0(s2)
   10400:	b77d                	j	103ae <__sfp+0x7a>

0000000000010402 <__sinit>:
   10402:	653c                	ld	a5,72(a0)
   10404:	c391                	beqz	a5,10408 <__sinit+0x6>
   10406:	8082                	ret
   10408:	1a01b703          	ld	a4,416(gp) # 139c0 <__stdio_exit_handler>
   1040c:	67c1                	lui	a5,0x10
   1040e:	1e878793          	addi	a5,a5,488 # 101e8 <cleanup_stdio>
   10412:	e53c                	sd	a5,72(a0)
   10414:	fb6d                	bnez	a4,10406 <__sinit+0x4>
   10416:	bd29                	j	10230 <global_stdio_init.part.0>

0000000000010418 <__sfp_lock_acquire>:
   10418:	8082                	ret

000000000001041a <__sfp_lock_release>:
   1041a:	8082                	ret

000000000001041c <__fp_lock_all>:
   1041c:	664d                	lui	a2,0x13
   1041e:	65c1                	lui	a1,0x10
   10420:	02060613          	addi	a2,a2,32 # 13020 <__sglue>
   10424:	1d058593          	addi	a1,a1,464 # 101d0 <__fp_lock>
   10428:	4501                	li	a0,0
   1042a:	a809                	j	1043c <_fwalk_sglue>

000000000001042c <__fp_unlock_all>:
   1042c:	664d                	lui	a2,0x13
   1042e:	65c1                	lui	a1,0x10
   10430:	02060613          	addi	a2,a2,32 # 13020 <__sglue>
   10434:	22c58593          	addi	a1,a1,556 # 1022c <__fp_unlock>
   10438:	4501                	li	a0,0
   1043a:	a009                	j	1043c <_fwalk_sglue>

000000000001043c <_fwalk_sglue>:
   1043c:	715d                	addi	sp,sp,-80
   1043e:	f84a                	sd	s2,48(sp)
   10440:	f44e                	sd	s3,40(sp)
   10442:	f052                	sd	s4,32(sp)
   10444:	ec56                	sd	s5,24(sp)
   10446:	e85a                	sd	s6,16(sp)
   10448:	e45e                	sd	s7,8(sp)
   1044a:	e062                	sd	s8,0(sp)
   1044c:	e486                	sd	ra,72(sp)
   1044e:	e0a2                	sd	s0,64(sp)
   10450:	fc26                	sd	s1,56(sp)
   10452:	8a2a                	mv	s4,a0
   10454:	8b2e                	mv	s6,a1
   10456:	89b2                	mv	s3,a2
   10458:	4901                	li	s2,0
   1045a:	0b000b93          	li	s7,176
   1045e:	4c05                	li	s8,1
   10460:	5afd                	li	s5,-1
   10462:	0089a483          	lw	s1,8(s3)
   10466:	0109b403          	ld	s0,16(s3)
   1046a:	02905963          	blez	s1,1049c <_fwalk_sglue+0x60>
   1046e:	1482                	slli	s1,s1,0x20
   10470:	9081                	srli	s1,s1,0x20
   10472:	037484b3          	mul	s1,s1,s7
   10476:	94a2                	add	s1,s1,s0
   10478:	01045783          	lhu	a5,16(s0)
   1047c:	00fc7c63          	bgeu	s8,a5,10494 <_fwalk_sglue+0x58>
   10480:	01241783          	lh	a5,18(s0)
   10484:	85a2                	mv	a1,s0
   10486:	8552                	mv	a0,s4
   10488:	01578663          	beq	a5,s5,10494 <_fwalk_sglue+0x58>
   1048c:	9b02                	jalr	s6
   1048e:	01256933          	or	s2,a0,s2
   10492:	2901                	sext.w	s2,s2
   10494:	0b040413          	addi	s0,s0,176
   10498:	fe9410e3          	bne	s0,s1,10478 <_fwalk_sglue+0x3c>
   1049c:	0009b983          	ld	s3,0(s3)
   104a0:	fc0991e3          	bnez	s3,10462 <_fwalk_sglue+0x26>
   104a4:	60a6                	ld	ra,72(sp)
   104a6:	6406                	ld	s0,64(sp)
   104a8:	74e2                	ld	s1,56(sp)
   104aa:	79a2                	ld	s3,40(sp)
   104ac:	7a02                	ld	s4,32(sp)
   104ae:	6ae2                	ld	s5,24(sp)
   104b0:	6b42                	ld	s6,16(sp)
   104b2:	6ba2                	ld	s7,8(sp)
   104b4:	6c02                	ld	s8,0(sp)
   104b6:	854a                	mv	a0,s2
   104b8:	7942                	ld	s2,48(sp)
   104ba:	6161                	addi	sp,sp,80
   104bc:	8082                	ret

00000000000104be <_puts_r>:
   104be:	7159                	addi	sp,sp,-112
   104c0:	f0a2                	sd	s0,96(sp)
   104c2:	842a                	mv	s0,a0
   104c4:	852e                	mv	a0,a1
   104c6:	eca6                	sd	s1,88(sp)
   104c8:	f486                	sd	ra,104(sp)
   104ca:	84ae                	mv	s1,a1
   104cc:	3ea000ef          	jal	108b6 <strlen>
   104d0:	67c9                	lui	a5,0x12
   104d2:	60078793          	addi	a5,a5,1536 # 12600 <__errno+0x22>
   104d6:	e0be                	sd	a5,64(sp)
   104d8:	4785                	li	a5,1
   104da:	e4be                	sd	a5,72(sp)
   104dc:	6438                	ld	a4,72(s0)
   104de:	181c                	addi	a5,sp,48
   104e0:	00150693          	addi	a3,a0,1
   104e4:	ec3e                	sd	a5,24(sp)
   104e6:	4789                	li	a5,2
   104e8:	f826                	sd	s1,48(sp)
   104ea:	fc2a                	sd	a0,56(sp)
   104ec:	f436                	sd	a3,40(sp)
   104ee:	d03e                	sw	a5,32(sp)
   104f0:	680c                	ld	a1,16(s0)
   104f2:	c329                	beqz	a4,10534 <_puts_r+0x76>
   104f4:	01059703          	lh	a4,16(a1)
   104f8:	0ac5a783          	lw	a5,172(a1)
   104fc:	03271693          	slli	a3,a4,0x32
   10500:	0006cb63          	bltz	a3,10516 <_puts_r+0x58>
   10504:	76f9                	lui	a3,0xffffe
   10506:	16fd                	addi	a3,a3,-1 # ffffffffffffdfff <__BSS_END__+0xfffffffffffea07f>
   10508:	6609                	lui	a2,0x2
   1050a:	8f51                	or	a4,a4,a2
   1050c:	8ff5                	and	a5,a5,a3
   1050e:	00e59823          	sh	a4,16(a1)
   10512:	0af5a623          	sw	a5,172(a1)
   10516:	03279713          	slli	a4,a5,0x32
   1051a:	02074363          	bltz	a4,10540 <_puts_r+0x82>
   1051e:	0830                	addi	a2,sp,24
   10520:	8522                	mv	a0,s0
   10522:	0fa010ef          	jal	1161c <__sfvwrite_r>
   10526:	ed09                	bnez	a0,10540 <_puts_r+0x82>
   10528:	4529                	li	a0,10
   1052a:	70a6                	ld	ra,104(sp)
   1052c:	7406                	ld	s0,96(sp)
   1052e:	64e6                	ld	s1,88(sp)
   10530:	6165                	addi	sp,sp,112
   10532:	8082                	ret
   10534:	8522                	mv	a0,s0
   10536:	e42e                	sd	a1,8(sp)
   10538:	ecbff0ef          	jal	10402 <__sinit>
   1053c:	65a2                	ld	a1,8(sp)
   1053e:	bf5d                	j	104f4 <_puts_r+0x36>
   10540:	557d                	li	a0,-1
   10542:	b7e5                	j	1052a <_puts_r+0x6c>

0000000000010544 <puts>:
   10544:	85aa                	mv	a1,a0
   10546:	1881b503          	ld	a0,392(gp) # 139a8 <_impure_ptr>
   1054a:	bf95                	j	104be <_puts_r>

000000000001054c <__sread>:
   1054c:	1141                	addi	sp,sp,-16
   1054e:	e022                	sd	s0,0(sp)
   10550:	842e                	mv	s0,a1
   10552:	01259583          	lh	a1,18(a1)
   10556:	e406                	sd	ra,8(sp)
   10558:	1d2000ef          	jal	1072a <_read_r>
   1055c:	00054963          	bltz	a0,1056e <__sread+0x22>
   10560:	685c                	ld	a5,144(s0)
   10562:	60a2                	ld	ra,8(sp)
   10564:	97aa                	add	a5,a5,a0
   10566:	e85c                	sd	a5,144(s0)
   10568:	6402                	ld	s0,0(sp)
   1056a:	0141                	addi	sp,sp,16
   1056c:	8082                	ret
   1056e:	01045783          	lhu	a5,16(s0)
   10572:	777d                	lui	a4,0xfffff
   10574:	177d                	addi	a4,a4,-1 # ffffffffffffefff <__BSS_END__+0xfffffffffffeb07f>
   10576:	8ff9                	and	a5,a5,a4
   10578:	60a2                	ld	ra,8(sp)
   1057a:	00f41823          	sh	a5,16(s0)
   1057e:	6402                	ld	s0,0(sp)
   10580:	0141                	addi	sp,sp,16
   10582:	8082                	ret

0000000000010584 <__seofread>:
   10584:	4501                	li	a0,0
   10586:	8082                	ret

0000000000010588 <__swrite>:
   10588:	01059783          	lh	a5,16(a1)
   1058c:	7179                	addi	sp,sp,-48
   1058e:	f022                	sd	s0,32(sp)
   10590:	ec26                	sd	s1,24(sp)
   10592:	e84a                	sd	s2,16(sp)
   10594:	e44e                	sd	s3,8(sp)
   10596:	f406                	sd	ra,40(sp)
   10598:	1007f713          	andi	a4,a5,256
   1059c:	842e                	mv	s0,a1
   1059e:	84aa                	mv	s1,a0
   105a0:	8932                	mv	s2,a2
   105a2:	89b6                	mv	s3,a3
   105a4:	e315                	bnez	a4,105c8 <__swrite+0x40>
   105a6:	777d                	lui	a4,0xfffff
   105a8:	177d                	addi	a4,a4,-1 # ffffffffffffefff <__BSS_END__+0xfffffffffffeb07f>
   105aa:	8ff9                	and	a5,a5,a4
   105ac:	01241583          	lh	a1,18(s0)
   105b0:	00f41823          	sh	a5,16(s0)
   105b4:	7402                	ld	s0,32(sp)
   105b6:	70a2                	ld	ra,40(sp)
   105b8:	86ce                	mv	a3,s3
   105ba:	864a                	mv	a2,s2
   105bc:	69a2                	ld	s3,8(sp)
   105be:	6942                	ld	s2,16(sp)
   105c0:	8526                	mv	a0,s1
   105c2:	64e2                	ld	s1,24(sp)
   105c4:	6145                	addi	sp,sp,48
   105c6:	a245                	j	10766 <_write_r>
   105c8:	01259583          	lh	a1,18(a1)
   105cc:	4689                	li	a3,2
   105ce:	4601                	li	a2,0
   105d0:	11e000ef          	jal	106ee <_lseek_r>
   105d4:	01041783          	lh	a5,16(s0)
   105d8:	b7f9                	j	105a6 <__swrite+0x1e>

00000000000105da <__sseek>:
   105da:	1141                	addi	sp,sp,-16
   105dc:	e022                	sd	s0,0(sp)
   105de:	842e                	mv	s0,a1
   105e0:	01259583          	lh	a1,18(a1)
   105e4:	e406                	sd	ra,8(sp)
   105e6:	108000ef          	jal	106ee <_lseek_r>
   105ea:	57fd                	li	a5,-1
   105ec:	02f50163          	beq	a0,a5,1060e <__sseek+0x34>
   105f0:	01045783          	lhu	a5,16(s0)
   105f4:	6705                	lui	a4,0x1
   105f6:	60a2                	ld	ra,8(sp)
   105f8:	8fd9                	or	a5,a5,a4
   105fa:	0107979b          	slliw	a5,a5,0x10
   105fe:	4107d79b          	sraiw	a5,a5,0x10
   10602:	e848                	sd	a0,144(s0)
   10604:	00f41823          	sh	a5,16(s0)
   10608:	6402                	ld	s0,0(sp)
   1060a:	0141                	addi	sp,sp,16
   1060c:	8082                	ret
   1060e:	01045783          	lhu	a5,16(s0)
   10612:	777d                	lui	a4,0xfffff
   10614:	177d                	addi	a4,a4,-1 # ffffffffffffefff <__BSS_END__+0xfffffffffffeb07f>
   10616:	8ff9                	and	a5,a5,a4
   10618:	0107979b          	slliw	a5,a5,0x10
   1061c:	4107d79b          	sraiw	a5,a5,0x10
   10620:	60a2                	ld	ra,8(sp)
   10622:	00f41823          	sh	a5,16(s0)
   10626:	6402                	ld	s0,0(sp)
   10628:	0141                	addi	sp,sp,16
   1062a:	8082                	ret

000000000001062c <__sclose>:
   1062c:	01259583          	lh	a1,18(a1)
   10630:	a009                	j	10632 <_close_r>

0000000000010632 <_close_r>:
   10632:	1101                	addi	sp,sp,-32
   10634:	e822                	sd	s0,16(sp)
   10636:	e426                	sd	s1,8(sp)
   10638:	842a                	mv	s0,a0
   1063a:	852e                	mv	a0,a1
   1063c:	ec06                	sd	ra,24(sp)
   1063e:	1a01a423          	sw	zero,424(gp) # 139c8 <errno>
   10642:	5c3010ef          	jal	12404 <_close>
   10646:	57fd                	li	a5,-1
   10648:	00f50763          	beq	a0,a5,10656 <_close_r+0x24>
   1064c:	60e2                	ld	ra,24(sp)
   1064e:	6442                	ld	s0,16(sp)
   10650:	64a2                	ld	s1,8(sp)
   10652:	6105                	addi	sp,sp,32
   10654:	8082                	ret
   10656:	1a81a783          	lw	a5,424(gp) # 139c8 <errno>
   1065a:	dbed                	beqz	a5,1064c <_close_r+0x1a>
   1065c:	60e2                	ld	ra,24(sp)
   1065e:	c01c                	sw	a5,0(s0)
   10660:	6442                	ld	s0,16(sp)
   10662:	64a2                	ld	s1,8(sp)
   10664:	6105                	addi	sp,sp,32
   10666:	8082                	ret

0000000000010668 <_reclaim_reent>:
   10668:	1881b783          	ld	a5,392(gp) # 139a8 <_impure_ptr>
   1066c:	08a78063          	beq	a5,a0,106ec <_reclaim_reent+0x84>
   10670:	752c                	ld	a1,104(a0)
   10672:	7179                	addi	sp,sp,-48
   10674:	ec26                	sd	s1,24(sp)
   10676:	f406                	sd	ra,40(sp)
   10678:	f022                	sd	s0,32(sp)
   1067a:	84aa                	mv	s1,a0
   1067c:	c98d                	beqz	a1,106ae <_reclaim_reent+0x46>
   1067e:	e84a                	sd	s2,16(sp)
   10680:	e44e                	sd	s3,8(sp)
   10682:	4901                	li	s2,0
   10684:	20000993          	li	s3,512
   10688:	012587b3          	add	a5,a1,s2
   1068c:	6380                	ld	s0,0(a5)
   1068e:	c801                	beqz	s0,1069e <_reclaim_reent+0x36>
   10690:	85a2                	mv	a1,s0
   10692:	6000                	ld	s0,0(s0)
   10694:	8526                	mv	a0,s1
   10696:	46e000ef          	jal	10b04 <_free_r>
   1069a:	f87d                	bnez	s0,10690 <_reclaim_reent+0x28>
   1069c:	74ac                	ld	a1,104(s1)
   1069e:	0921                	addi	s2,s2,8
   106a0:	ff3914e3          	bne	s2,s3,10688 <_reclaim_reent+0x20>
   106a4:	8526                	mv	a0,s1
   106a6:	45e000ef          	jal	10b04 <_free_r>
   106aa:	6942                	ld	s2,16(sp)
   106ac:	69a2                	ld	s3,8(sp)
   106ae:	68ac                	ld	a1,80(s1)
   106b0:	c581                	beqz	a1,106b8 <_reclaim_reent+0x50>
   106b2:	8526                	mv	a0,s1
   106b4:	450000ef          	jal	10b04 <_free_r>
   106b8:	70a0                	ld	s0,96(s1)
   106ba:	c419                	beqz	s0,106c8 <_reclaim_reent+0x60>
   106bc:	85a2                	mv	a1,s0
   106be:	6000                	ld	s0,0(s0)
   106c0:	8526                	mv	a0,s1
   106c2:	442000ef          	jal	10b04 <_free_r>
   106c6:	f87d                	bnez	s0,106bc <_reclaim_reent+0x54>
   106c8:	7cac                	ld	a1,120(s1)
   106ca:	c581                	beqz	a1,106d2 <_reclaim_reent+0x6a>
   106cc:	8526                	mv	a0,s1
   106ce:	436000ef          	jal	10b04 <_free_r>
   106d2:	64bc                	ld	a5,72(s1)
   106d4:	c799                	beqz	a5,106e2 <_reclaim_reent+0x7a>
   106d6:	7402                	ld	s0,32(sp)
   106d8:	70a2                	ld	ra,40(sp)
   106da:	8526                	mv	a0,s1
   106dc:	64e2                	ld	s1,24(sp)
   106de:	6145                	addi	sp,sp,48
   106e0:	8782                	jr	a5
   106e2:	70a2                	ld	ra,40(sp)
   106e4:	7402                	ld	s0,32(sp)
   106e6:	64e2                	ld	s1,24(sp)
   106e8:	6145                	addi	sp,sp,48
   106ea:	8082                	ret
   106ec:	8082                	ret

00000000000106ee <_lseek_r>:
   106ee:	1101                	addi	sp,sp,-32
   106f0:	872e                	mv	a4,a1
   106f2:	e822                	sd	s0,16(sp)
   106f4:	e426                	sd	s1,8(sp)
   106f6:	85b2                	mv	a1,a2
   106f8:	842a                	mv	s0,a0
   106fa:	8636                	mv	a2,a3
   106fc:	853a                	mv	a0,a4
   106fe:	ec06                	sd	ra,24(sp)
   10700:	1a01a423          	sw	zero,424(gp) # 139c8 <errno>
   10704:	5b5010ef          	jal	124b8 <_lseek>
   10708:	57fd                	li	a5,-1
   1070a:	00f50763          	beq	a0,a5,10718 <_lseek_r+0x2a>
   1070e:	60e2                	ld	ra,24(sp)
   10710:	6442                	ld	s0,16(sp)
   10712:	64a2                	ld	s1,8(sp)
   10714:	6105                	addi	sp,sp,32
   10716:	8082                	ret
   10718:	1a81a783          	lw	a5,424(gp) # 139c8 <errno>
   1071c:	dbed                	beqz	a5,1070e <_lseek_r+0x20>
   1071e:	60e2                	ld	ra,24(sp)
   10720:	c01c                	sw	a5,0(s0)
   10722:	6442                	ld	s0,16(sp)
   10724:	64a2                	ld	s1,8(sp)
   10726:	6105                	addi	sp,sp,32
   10728:	8082                	ret

000000000001072a <_read_r>:
   1072a:	1101                	addi	sp,sp,-32
   1072c:	872e                	mv	a4,a1
   1072e:	e822                	sd	s0,16(sp)
   10730:	e426                	sd	s1,8(sp)
   10732:	85b2                	mv	a1,a2
   10734:	842a                	mv	s0,a0
   10736:	8636                	mv	a2,a3
   10738:	853a                	mv	a0,a4
   1073a:	ec06                	sd	ra,24(sp)
   1073c:	1a01a423          	sw	zero,424(gp) # 139c8 <errno>
   10740:	5a5010ef          	jal	124e4 <_read>
   10744:	57fd                	li	a5,-1
   10746:	00f50763          	beq	a0,a5,10754 <_read_r+0x2a>
   1074a:	60e2                	ld	ra,24(sp)
   1074c:	6442                	ld	s0,16(sp)
   1074e:	64a2                	ld	s1,8(sp)
   10750:	6105                	addi	sp,sp,32
   10752:	8082                	ret
   10754:	1a81a783          	lw	a5,424(gp) # 139c8 <errno>
   10758:	dbed                	beqz	a5,1074a <_read_r+0x20>
   1075a:	60e2                	ld	ra,24(sp)
   1075c:	c01c                	sw	a5,0(s0)
   1075e:	6442                	ld	s0,16(sp)
   10760:	64a2                	ld	s1,8(sp)
   10762:	6105                	addi	sp,sp,32
   10764:	8082                	ret

0000000000010766 <_write_r>:
   10766:	1101                	addi	sp,sp,-32
   10768:	872e                	mv	a4,a1
   1076a:	e822                	sd	s0,16(sp)
   1076c:	e426                	sd	s1,8(sp)
   1076e:	85b2                	mv	a1,a2
   10770:	842a                	mv	s0,a0
   10772:	8636                	mv	a2,a3
   10774:	853a                	mv	a0,a4
   10776:	ec06                	sd	ra,24(sp)
   10778:	1a01a423          	sw	zero,424(gp) # 139c8 <errno>
   1077c:	5e9010ef          	jal	12564 <_write>
   10780:	57fd                	li	a5,-1
   10782:	00f50763          	beq	a0,a5,10790 <_write_r+0x2a>
   10786:	60e2                	ld	ra,24(sp)
   10788:	6442                	ld	s0,16(sp)
   1078a:	64a2                	ld	s1,8(sp)
   1078c:	6105                	addi	sp,sp,32
   1078e:	8082                	ret
   10790:	1a81a783          	lw	a5,424(gp) # 139c8 <errno>
   10794:	dbed                	beqz	a5,10786 <_write_r+0x20>
   10796:	60e2                	ld	ra,24(sp)
   10798:	c01c                	sw	a5,0(s0)
   1079a:	6442                	ld	s0,16(sp)
   1079c:	64a2                	ld	s1,8(sp)
   1079e:	6105                	addi	sp,sp,32
   107a0:	8082                	ret

00000000000107a2 <__libc_init_array>:
   107a2:	1101                	addi	sp,sp,-32
   107a4:	e822                	sd	s0,16(sp)
   107a6:	67cd                	lui	a5,0x13
   107a8:	644d                	lui	s0,0x13
   107aa:	e04a                	sd	s2,0(sp)
   107ac:	00478793          	addi	a5,a5,4 # 13004 <__preinit_array_end>
   107b0:	00440713          	addi	a4,s0,4 # 13004 <__preinit_array_end>
   107b4:	ec06                	sd	ra,24(sp)
   107b6:	e426                	sd	s1,8(sp)
   107b8:	40e78933          	sub	s2,a5,a4
   107bc:	00e78d63          	beq	a5,a4,107d6 <__libc_init_array+0x34>
   107c0:	40395913          	srai	s2,s2,0x3
   107c4:	00440413          	addi	s0,s0,4
   107c8:	4481                	li	s1,0
   107ca:	601c                	ld	a5,0(s0)
   107cc:	0485                	addi	s1,s1,1
   107ce:	0421                	addi	s0,s0,8
   107d0:	9782                	jalr	a5
   107d2:	ff24ece3          	bltu	s1,s2,107ca <__libc_init_array+0x28>
   107d6:	644d                	lui	s0,0x13
   107d8:	67cd                	lui	a5,0x13
   107da:	01878793          	addi	a5,a5,24 # 13018 <__do_global_dtors_aux_fini_array_entry>
   107de:	00840713          	addi	a4,s0,8 # 13008 <__init_array_start>
   107e2:	40e78933          	sub	s2,a5,a4
   107e6:	40395913          	srai	s2,s2,0x3
   107ea:	00e78b63          	beq	a5,a4,10800 <__libc_init_array+0x5e>
   107ee:	00840413          	addi	s0,s0,8
   107f2:	4481                	li	s1,0
   107f4:	601c                	ld	a5,0(s0)
   107f6:	0485                	addi	s1,s1,1
   107f8:	0421                	addi	s0,s0,8
   107fa:	9782                	jalr	a5
   107fc:	ff24ece3          	bltu	s1,s2,107f4 <__libc_init_array+0x52>
   10800:	60e2                	ld	ra,24(sp)
   10802:	6442                	ld	s0,16(sp)
   10804:	64a2                	ld	s1,8(sp)
   10806:	6902                	ld	s2,0(sp)
   10808:	6105                	addi	sp,sp,32
   1080a:	8082                	ret

000000000001080c <memset>:
   1080c:	433d                	li	t1,15
   1080e:	872a                	mv	a4,a0
   10810:	02c37163          	bgeu	t1,a2,10832 <memset+0x26>
   10814:	00f77793          	andi	a5,a4,15
   10818:	e3c1                	bnez	a5,10898 <memset+0x8c>
   1081a:	e1bd                	bnez	a1,10880 <memset+0x74>
   1081c:	ff067693          	andi	a3,a2,-16
   10820:	8a3d                	andi	a2,a2,15
   10822:	96ba                	add	a3,a3,a4
   10824:	e30c                	sd	a1,0(a4)
   10826:	e70c                	sd	a1,8(a4)
   10828:	0741                	addi	a4,a4,16
   1082a:	fed76de3          	bltu	a4,a3,10824 <memset+0x18>
   1082e:	e211                	bnez	a2,10832 <memset+0x26>
   10830:	8082                	ret
   10832:	40c306b3          	sub	a3,t1,a2
   10836:	068a                	slli	a3,a3,0x2
   10838:	00000297          	auipc	t0,0x0
   1083c:	9696                	add	a3,a3,t0
   1083e:	00a68067          	jr	10(a3)
   10842:	00b70723          	sb	a1,14(a4)
   10846:	00b706a3          	sb	a1,13(a4)
   1084a:	00b70623          	sb	a1,12(a4)
   1084e:	00b705a3          	sb	a1,11(a4)
   10852:	00b70523          	sb	a1,10(a4)
   10856:	00b704a3          	sb	a1,9(a4)
   1085a:	00b70423          	sb	a1,8(a4)
   1085e:	00b703a3          	sb	a1,7(a4)
   10862:	00b70323          	sb	a1,6(a4)
   10866:	00b702a3          	sb	a1,5(a4)
   1086a:	00b70223          	sb	a1,4(a4)
   1086e:	00b701a3          	sb	a1,3(a4)
   10872:	00b70123          	sb	a1,2(a4)
   10876:	00b700a3          	sb	a1,1(a4)
   1087a:	00b70023          	sb	a1,0(a4)
   1087e:	8082                	ret
   10880:	0ff5f593          	zext.b	a1,a1
   10884:	00859693          	slli	a3,a1,0x8
   10888:	8dd5                	or	a1,a1,a3
   1088a:	01059693          	slli	a3,a1,0x10
   1088e:	8dd5                	or	a1,a1,a3
   10890:	02059693          	slli	a3,a1,0x20
   10894:	8dd5                	or	a1,a1,a3
   10896:	b759                	j	1081c <memset+0x10>
   10898:	00279693          	slli	a3,a5,0x2
   1089c:	00000297          	auipc	t0,0x0
   108a0:	9696                	add	a3,a3,t0
   108a2:	8286                	mv	t0,ra
   108a4:	fa2680e7          	jalr	-94(a3)
   108a8:	8096                	mv	ra,t0
   108aa:	17c1                	addi	a5,a5,-16
   108ac:	8f1d                	sub	a4,a4,a5
   108ae:	963e                	add	a2,a2,a5
   108b0:	f8c371e3          	bgeu	t1,a2,10832 <memset+0x26>
   108b4:	b79d                	j	1081a <memset+0xe>

00000000000108b6 <strlen>:
   108b6:	00757793          	andi	a5,a0,7
   108ba:	872a                	mv	a4,a0
   108bc:	e3b5                	bnez	a5,10920 <strlen+0x6a>
   108be:	0feff6b7          	lui	a3,0xfeff
   108c2:	0692                	slli	a3,a3,0x4
   108c4:	eff68693          	addi	a3,a3,-257 # fefeeff <__BSS_END__+0xfeeaf7f>
   108c8:	06c2                	slli	a3,a3,0x10
   108ca:	eff68693          	addi	a3,a3,-257
   108ce:	06be                	slli	a3,a3,0xf
   108d0:	f7f68693          	addi	a3,a3,-129
   108d4:	55fd                	li	a1,-1
   108d6:	6310                	ld	a2,0(a4)
   108d8:	0721                	addi	a4,a4,8
   108da:	00d677b3          	and	a5,a2,a3
   108de:	97b6                	add	a5,a5,a3
   108e0:	8fd1                	or	a5,a5,a2
   108e2:	8fd5                	or	a5,a5,a3
   108e4:	feb789e3          	beq	a5,a1,108d6 <strlen+0x20>
   108e8:	ff874683          	lbu	a3,-8(a4)
   108ec:	40a707b3          	sub	a5,a4,a0
   108f0:	c6a9                	beqz	a3,1093a <strlen+0x84>
   108f2:	ff974683          	lbu	a3,-7(a4)
   108f6:	ce9d                	beqz	a3,10934 <strlen+0x7e>
   108f8:	ffa74683          	lbu	a3,-6(a4)
   108fc:	c6a9                	beqz	a3,10946 <strlen+0x90>
   108fe:	ffb74683          	lbu	a3,-5(a4)
   10902:	ce9d                	beqz	a3,10940 <strlen+0x8a>
   10904:	ffc74683          	lbu	a3,-4(a4)
   10908:	c2b1                	beqz	a3,1094c <strlen+0x96>
   1090a:	ffd74683          	lbu	a3,-3(a4)
   1090e:	c2b1                	beqz	a3,10952 <strlen+0x9c>
   10910:	ffe74503          	lbu	a0,-2(a4)
   10914:	00a03533          	snez	a0,a0
   10918:	953e                	add	a0,a0,a5
   1091a:	1579                	addi	a0,a0,-2
   1091c:	8082                	ret
   1091e:	d2c5                	beqz	a3,108be <strlen+0x8>
   10920:	00074783          	lbu	a5,0(a4)
   10924:	0705                	addi	a4,a4,1
   10926:	00777693          	andi	a3,a4,7
   1092a:	fbf5                	bnez	a5,1091e <strlen+0x68>
   1092c:	8f09                	sub	a4,a4,a0
   1092e:	fff70513          	addi	a0,a4,-1
   10932:	8082                	ret
   10934:	ff978513          	addi	a0,a5,-7
   10938:	8082                	ret
   1093a:	ff878513          	addi	a0,a5,-8
   1093e:	8082                	ret
   10940:	ffb78513          	addi	a0,a5,-5
   10944:	8082                	ret
   10946:	ffa78513          	addi	a0,a5,-6
   1094a:	8082                	ret
   1094c:	ffc78513          	addi	a0,a5,-4
   10950:	8082                	ret
   10952:	ffd78513          	addi	a0,a5,-3
   10956:	8082                	ret

0000000000010958 <__call_exitprocs>:
   10958:	715d                	addi	sp,sp,-80
   1095a:	f052                	sd	s4,32(sp)
   1095c:	f84a                	sd	s2,48(sp)
   1095e:	1b01b903          	ld	s2,432(gp) # 139d0 <__atexit>
   10962:	e486                	sd	ra,72(sp)
   10964:	06090d63          	beqz	s2,109de <__call_exitprocs+0x86>
   10968:	f44e                	sd	s3,40(sp)
   1096a:	ec56                	sd	s5,24(sp)
   1096c:	e85a                	sd	s6,16(sp)
   1096e:	e45e                	sd	s7,8(sp)
   10970:	e0a2                	sd	s0,64(sp)
   10972:	fc26                	sd	s1,56(sp)
   10974:	e062                	sd	s8,0(sp)
   10976:	8b2a                	mv	s6,a0
   10978:	8bae                	mv	s7,a1
   1097a:	59fd                	li	s3,-1
   1097c:	4a85                	li	s5,1
   1097e:	00892483          	lw	s1,8(s2)
   10982:	fff4841b          	addiw	s0,s1,-1
   10986:	04044563          	bltz	s0,109d0 <__call_exitprocs+0x78>
   1098a:	048e                	slli	s1,s1,0x3
   1098c:	94ca                	add	s1,s1,s2
   1098e:	040b9d63          	bnez	s7,109e8 <__call_exitprocs+0x90>
   10992:	00892783          	lw	a5,8(s2)
   10996:	6498                	ld	a4,8(s1)
   10998:	37fd                	addiw	a5,a5,-1
   1099a:	08878263          	beq	a5,s0,10a1e <__call_exitprocs+0xc6>
   1099e:	0004b423          	sd	zero,8(s1)
   109a2:	c31d                	beqz	a4,109c8 <__call_exitprocs+0x70>
   109a4:	31092783          	lw	a5,784(s2)
   109a8:	008a96bb          	sllw	a3,s5,s0
   109ac:	00892c03          	lw	s8,8(s2)
   109b0:	8ff5                	and	a5,a5,a3
   109b2:	2781                	sext.w	a5,a5
   109b4:	e3b9                	bnez	a5,109fa <__call_exitprocs+0xa2>
   109b6:	9702                	jalr	a4
   109b8:	00892703          	lw	a4,8(s2)
   109bc:	1b01b783          	ld	a5,432(gp) # 139d0 <__atexit>
   109c0:	05871c63          	bne	a4,s8,10a18 <__call_exitprocs+0xc0>
   109c4:	05279a63          	bne	a5,s2,10a18 <__call_exitprocs+0xc0>
   109c8:	347d                	addiw	s0,s0,-1
   109ca:	14e1                	addi	s1,s1,-8
   109cc:	fd3411e3          	bne	s0,s3,1098e <__call_exitprocs+0x36>
   109d0:	6406                	ld	s0,64(sp)
   109d2:	74e2                	ld	s1,56(sp)
   109d4:	79a2                	ld	s3,40(sp)
   109d6:	6ae2                	ld	s5,24(sp)
   109d8:	6b42                	ld	s6,16(sp)
   109da:	6ba2                	ld	s7,8(sp)
   109dc:	6c02                	ld	s8,0(sp)
   109de:	60a6                	ld	ra,72(sp)
   109e0:	7942                	ld	s2,48(sp)
   109e2:	7a02                	ld	s4,32(sp)
   109e4:	6161                	addi	sp,sp,80
   109e6:	8082                	ret
   109e8:	2084b783          	ld	a5,520(s1)
   109ec:	fb7783e3          	beq	a5,s7,10992 <__call_exitprocs+0x3a>
   109f0:	347d                	addiw	s0,s0,-1
   109f2:	14e1                	addi	s1,s1,-8
   109f4:	ff341ae3          	bne	s0,s3,109e8 <__call_exitprocs+0x90>
   109f8:	bfe1                	j	109d0 <__call_exitprocs+0x78>
   109fa:	31492783          	lw	a5,788(s2)
   109fe:	1084b583          	ld	a1,264(s1)
   10a02:	8ff5                	and	a5,a5,a3
   10a04:	2781                	sext.w	a5,a5
   10a06:	ef99                	bnez	a5,10a24 <__call_exitprocs+0xcc>
   10a08:	855a                	mv	a0,s6
   10a0a:	9702                	jalr	a4
   10a0c:	00892703          	lw	a4,8(s2)
   10a10:	1b01b783          	ld	a5,432(gp) # 139d0 <__atexit>
   10a14:	fb8708e3          	beq	a4,s8,109c4 <__call_exitprocs+0x6c>
   10a18:	dfc5                	beqz	a5,109d0 <__call_exitprocs+0x78>
   10a1a:	893e                	mv	s2,a5
   10a1c:	b78d                	j	1097e <__call_exitprocs+0x26>
   10a1e:	00892423          	sw	s0,8(s2)
   10a22:	b741                	j	109a2 <__call_exitprocs+0x4a>
   10a24:	852e                	mv	a0,a1
   10a26:	9702                	jalr	a4
   10a28:	bf41                	j	109b8 <__call_exitprocs+0x60>

0000000000010a2a <atexit>:
   10a2a:	85aa                	mv	a1,a0
   10a2c:	4681                	li	a3,0
   10a2e:	4601                	li	a2,0
   10a30:	4501                	li	a0,0
   10a32:	3560106f          	j	11d88 <__register_exitproc>

0000000000010a36 <_malloc_trim_r>:
   10a36:	7179                	addi	sp,sp,-48
   10a38:	e44e                	sd	s3,8(sp)
   10a3a:	69cd                	lui	s3,0x13
   10a3c:	f022                	sd	s0,32(sp)
   10a3e:	ec26                	sd	s1,24(sp)
   10a40:	e84a                	sd	s2,16(sp)
   10a42:	e052                	sd	s4,0(sp)
   10a44:	f406                	sd	ra,40(sp)
   10a46:	8a2e                	mv	s4,a1
   10a48:	892a                	mv	s2,a0
   10a4a:	19098993          	addi	s3,s3,400 # 13190 <__malloc_av_>
   10a4e:	0fd000ef          	jal	1134a <__malloc_lock>
   10a52:	0109b703          	ld	a4,16(s3)
   10a56:	6785                	lui	a5,0x1
   10a58:	fdf78793          	addi	a5,a5,-33 # fdf <exit-0xf109>
   10a5c:	6704                	ld	s1,8(a4)
   10a5e:	6705                	lui	a4,0x1
   10a60:	98f1                	andi	s1,s1,-4
   10a62:	00f48433          	add	s0,s1,a5
   10a66:	41440433          	sub	s0,s0,s4
   10a6a:	8031                	srli	s0,s0,0xc
   10a6c:	147d                	addi	s0,s0,-1
   10a6e:	0432                	slli	s0,s0,0xc
   10a70:	00e44b63          	blt	s0,a4,10a86 <_malloc_trim_r+0x50>
   10a74:	4581                	li	a1,0
   10a76:	854a                	mv	a0,s2
   10a78:	08e010ef          	jal	11b06 <_sbrk_r>
   10a7c:	0109b783          	ld	a5,16(s3)
   10a80:	97a6                	add	a5,a5,s1
   10a82:	00f50e63          	beq	a0,a5,10a9e <_malloc_trim_r+0x68>
   10a86:	854a                	mv	a0,s2
   10a88:	0c5000ef          	jal	1134c <__malloc_unlock>
   10a8c:	70a2                	ld	ra,40(sp)
   10a8e:	7402                	ld	s0,32(sp)
   10a90:	64e2                	ld	s1,24(sp)
   10a92:	6942                	ld	s2,16(sp)
   10a94:	69a2                	ld	s3,8(sp)
   10a96:	6a02                	ld	s4,0(sp)
   10a98:	4501                	li	a0,0
   10a9a:	6145                	addi	sp,sp,48
   10a9c:	8082                	ret
   10a9e:	408005b3          	neg	a1,s0
   10aa2:	854a                	mv	a0,s2
   10aa4:	062010ef          	jal	11b06 <_sbrk_r>
   10aa8:	57fd                	li	a5,-1
   10aaa:	02f50963          	beq	a0,a5,10adc <_malloc_trim_r+0xa6>
   10aae:	42018793          	addi	a5,gp,1056 # 13c40 <__malloc_current_mallinfo>
   10ab2:	4398                	lw	a4,0(a5)
   10ab4:	0109b683          	ld	a3,16(s3)
   10ab8:	8c81                	sub	s1,s1,s0
   10aba:	0014e493          	ori	s1,s1,1
   10abe:	9f01                	subw	a4,a4,s0
   10ac0:	854a                	mv	a0,s2
   10ac2:	e684                	sd	s1,8(a3)
   10ac4:	c398                	sw	a4,0(a5)
   10ac6:	087000ef          	jal	1134c <__malloc_unlock>
   10aca:	70a2                	ld	ra,40(sp)
   10acc:	7402                	ld	s0,32(sp)
   10ace:	64e2                	ld	s1,24(sp)
   10ad0:	6942                	ld	s2,16(sp)
   10ad2:	69a2                	ld	s3,8(sp)
   10ad4:	6a02                	ld	s4,0(sp)
   10ad6:	4505                	li	a0,1
   10ad8:	6145                	addi	sp,sp,48
   10ada:	8082                	ret
   10adc:	4581                	li	a1,0
   10ade:	854a                	mv	a0,s2
   10ae0:	026010ef          	jal	11b06 <_sbrk_r>
   10ae4:	0109b703          	ld	a4,16(s3)
   10ae8:	46fd                	li	a3,31
   10aea:	40e507b3          	sub	a5,a0,a4
   10aee:	f8f6dce3          	bge	a3,a5,10a86 <_malloc_trim_r+0x50>
   10af2:	1901b683          	ld	a3,400(gp) # 139b0 <__malloc_sbrk_base>
   10af6:	0017e793          	ori	a5,a5,1
   10afa:	e71c                	sd	a5,8(a4)
   10afc:	8d15                	sub	a0,a0,a3
   10afe:	42a1a023          	sw	a0,1056(gp) # 13c40 <__malloc_current_mallinfo>
   10b02:	b751                	j	10a86 <_malloc_trim_r+0x50>

0000000000010b04 <_free_r>:
   10b04:	12058163          	beqz	a1,10c26 <_free_r+0x122>
   10b08:	1101                	addi	sp,sp,-32
   10b0a:	e822                	sd	s0,16(sp)
   10b0c:	e426                	sd	s1,8(sp)
   10b0e:	842e                	mv	s0,a1
   10b10:	84aa                	mv	s1,a0
   10b12:	ec06                	sd	ra,24(sp)
   10b14:	037000ef          	jal	1134a <__malloc_lock>
   10b18:	ff843503          	ld	a0,-8(s0)
   10b1c:	ff040713          	addi	a4,s0,-16
   10b20:	65cd                	lui	a1,0x13
   10b22:	ffe57793          	andi	a5,a0,-2
   10b26:	00f70633          	add	a2,a4,a5
   10b2a:	19058593          	addi	a1,a1,400 # 13190 <__malloc_av_>
   10b2e:	6614                	ld	a3,8(a2)
   10b30:	0105b803          	ld	a6,16(a1)
   10b34:	9af1                	andi	a3,a3,-4
   10b36:	12c80a63          	beq	a6,a2,10c6a <_free_r+0x166>
   10b3a:	e614                	sd	a3,8(a2)
   10b3c:	8905                	andi	a0,a0,1
   10b3e:	00d60833          	add	a6,a2,a3
   10b42:	ed3d                	bnez	a0,10bc0 <_free_r+0xbc>
   10b44:	ff043303          	ld	t1,-16(s0)
   10b48:	00883803          	ld	a6,8(a6)
   10b4c:	654d                	lui	a0,0x13
   10b4e:	40670733          	sub	a4,a4,t1
   10b52:	01073883          	ld	a7,16(a4) # 1010 <exit-0xf0d8>
   10b56:	1a050513          	addi	a0,a0,416 # 131a0 <__malloc_av_+0x10>
   10b5a:	979a                	add	a5,a5,t1
   10b5c:	00187813          	andi	a6,a6,1
   10b60:	0ea88863          	beq	a7,a0,10c50 <_free_r+0x14c>
   10b64:	01873303          	ld	t1,24(a4)
   10b68:	0068bc23          	sd	t1,24(a7)
   10b6c:	01133823          	sd	a7,16(t1) # 101a2 <main+0x6>
   10b70:	12080663          	beqz	a6,10c9c <_free_r+0x198>
   10b74:	0017e693          	ori	a3,a5,1
   10b78:	e714                	sd	a3,8(a4)
   10b7a:	e21c                	sd	a5,0(a2)
   10b7c:	1ff00693          	li	a3,511
   10b80:	04f6ed63          	bltu	a3,a5,10bda <_free_r+0xd6>
   10b84:	838d                	srli	a5,a5,0x3
   10b86:	0017869b          	addiw	a3,a5,1
   10b8a:	0016969b          	slliw	a3,a3,0x1
   10b8e:	068e                	slli	a3,a3,0x3
   10b90:	0085b803          	ld	a6,8(a1)
   10b94:	96ae                	add	a3,a3,a1
   10b96:	6288                	ld	a0,0(a3)
   10b98:	4027d61b          	sraiw	a2,a5,0x2
   10b9c:	4785                	li	a5,1
   10b9e:	00c797b3          	sll	a5,a5,a2
   10ba2:	0107e7b3          	or	a5,a5,a6
   10ba6:	ff068613          	addi	a2,a3,-16
   10baa:	ef10                	sd	a2,24(a4)
   10bac:	eb08                	sd	a0,16(a4)
   10bae:	e59c                	sd	a5,8(a1)
   10bb0:	e298                	sd	a4,0(a3)
   10bb2:	ed18                	sd	a4,24(a0)
   10bb4:	6442                	ld	s0,16(sp)
   10bb6:	60e2                	ld	ra,24(sp)
   10bb8:	8526                	mv	a0,s1
   10bba:	64a2                	ld	s1,8(sp)
   10bbc:	6105                	addi	sp,sp,32
   10bbe:	a779                	j	1134c <__malloc_unlock>
   10bc0:	00883503          	ld	a0,8(a6)
   10bc4:	8905                	andi	a0,a0,1
   10bc6:	c12d                	beqz	a0,10c28 <_free_r+0x124>
   10bc8:	0017e693          	ori	a3,a5,1
   10bcc:	fed43c23          	sd	a3,-8(s0)
   10bd0:	e21c                	sd	a5,0(a2)
   10bd2:	1ff00693          	li	a3,511
   10bd6:	faf6f7e3          	bgeu	a3,a5,10b84 <_free_r+0x80>
   10bda:	0097d693          	srli	a3,a5,0x9
   10bde:	4611                	li	a2,4
   10be0:	0cd66063          	bltu	a2,a3,10ca0 <_free_r+0x19c>
   10be4:	0067d693          	srli	a3,a5,0x6
   10be8:	0396851b          	addiw	a0,a3,57
   10bec:	0015151b          	slliw	a0,a0,0x1
   10bf0:	0386861b          	addiw	a2,a3,56
   10bf4:	050e                	slli	a0,a0,0x3
   10bf6:	952e                	add	a0,a0,a1
   10bf8:	6114                	ld	a3,0(a0)
   10bfa:	1541                	addi	a0,a0,-16
   10bfc:	00d51663          	bne	a0,a3,10c08 <_free_r+0x104>
   10c00:	a0dd                	j	10ce6 <_free_r+0x1e2>
   10c02:	6a94                	ld	a3,16(a3)
   10c04:	00d50663          	beq	a0,a3,10c10 <_free_r+0x10c>
   10c08:	6690                	ld	a2,8(a3)
   10c0a:	9a71                	andi	a2,a2,-4
   10c0c:	fec7ebe3          	bltu	a5,a2,10c02 <_free_r+0xfe>
   10c10:	6e88                	ld	a0,24(a3)
   10c12:	ef08                	sd	a0,24(a4)
   10c14:	eb14                	sd	a3,16(a4)
   10c16:	6442                	ld	s0,16(sp)
   10c18:	e918                	sd	a4,16(a0)
   10c1a:	60e2                	ld	ra,24(sp)
   10c1c:	8526                	mv	a0,s1
   10c1e:	64a2                	ld	s1,8(sp)
   10c20:	ee98                	sd	a4,24(a3)
   10c22:	6105                	addi	sp,sp,32
   10c24:	a725                	j	1134c <__malloc_unlock>
   10c26:	8082                	ret
   10c28:	654d                	lui	a0,0x13
   10c2a:	97b6                	add	a5,a5,a3
   10c2c:	1a050513          	addi	a0,a0,416 # 131a0 <__malloc_av_+0x10>
   10c30:	6a14                	ld	a3,16(a2)
   10c32:	0aa68063          	beq	a3,a0,10cd2 <_free_r+0x1ce>
   10c36:	01863803          	ld	a6,24(a2) # 2018 <exit-0xe0d0>
   10c3a:	0017e513          	ori	a0,a5,1
   10c3e:	00f70633          	add	a2,a4,a5
   10c42:	0106bc23          	sd	a6,24(a3)
   10c46:	00d83823          	sd	a3,16(a6)
   10c4a:	e708                	sd	a0,8(a4)
   10c4c:	e21c                	sd	a5,0(a2)
   10c4e:	b73d                	j	10b7c <_free_r+0x78>
   10c50:	0e081763          	bnez	a6,10d3e <_free_r+0x23a>
   10c54:	6a0c                	ld	a1,16(a2)
   10c56:	6e10                	ld	a2,24(a2)
   10c58:	96be                	add	a3,a3,a5
   10c5a:	0016e793          	ori	a5,a3,1
   10c5e:	ed90                	sd	a2,24(a1)
   10c60:	ea0c                	sd	a1,16(a2)
   10c62:	e71c                	sd	a5,8(a4)
   10c64:	9736                	add	a4,a4,a3
   10c66:	e314                	sd	a3,0(a4)
   10c68:	b7b1                	j	10bb4 <_free_r+0xb0>
   10c6a:	8905                	andi	a0,a0,1
   10c6c:	96be                	add	a3,a3,a5
   10c6e:	e909                	bnez	a0,10c80 <_free_r+0x17c>
   10c70:	ff043503          	ld	a0,-16(s0)
   10c74:	8f09                	sub	a4,a4,a0
   10c76:	6f1c                	ld	a5,24(a4)
   10c78:	6b10                	ld	a2,16(a4)
   10c7a:	96aa                	add	a3,a3,a0
   10c7c:	ee1c                	sd	a5,24(a2)
   10c7e:	eb90                	sd	a2,16(a5)
   10c80:	0016e613          	ori	a2,a3,1
   10c84:	1981b783          	ld	a5,408(gp) # 139b8 <__malloc_trim_threshold>
   10c88:	e710                	sd	a2,8(a4)
   10c8a:	e998                	sd	a4,16(a1)
   10c8c:	f2f6e4e3          	bltu	a3,a5,10bb4 <_free_r+0xb0>
   10c90:	1c81b583          	ld	a1,456(gp) # 139e8 <__malloc_top_pad>
   10c94:	8526                	mv	a0,s1
   10c96:	da1ff0ef          	jal	10a36 <_malloc_trim_r>
   10c9a:	bf29                	j	10bb4 <_free_r+0xb0>
   10c9c:	97b6                	add	a5,a5,a3
   10c9e:	bf49                	j	10c30 <_free_r+0x12c>
   10ca0:	4651                	li	a2,20
   10ca2:	02d67063          	bgeu	a2,a3,10cc2 <_free_r+0x1be>
   10ca6:	05400613          	li	a2,84
   10caa:	04d66963          	bltu	a2,a3,10cfc <_free_r+0x1f8>
   10cae:	00c7d693          	srli	a3,a5,0xc
   10cb2:	06f6851b          	addiw	a0,a3,111
   10cb6:	0015151b          	slliw	a0,a0,0x1
   10cba:	06e6861b          	addiw	a2,a3,110
   10cbe:	050e                	slli	a0,a0,0x3
   10cc0:	bf1d                	j	10bf6 <_free_r+0xf2>
   10cc2:	05c6851b          	addiw	a0,a3,92
   10cc6:	0015151b          	slliw	a0,a0,0x1
   10cca:	05b6861b          	addiw	a2,a3,91
   10cce:	050e                	slli	a0,a0,0x3
   10cd0:	b71d                	j	10bf6 <_free_r+0xf2>
   10cd2:	f598                	sd	a4,40(a1)
   10cd4:	f198                	sd	a4,32(a1)
   10cd6:	0017e693          	ori	a3,a5,1
   10cda:	ef08                	sd	a0,24(a4)
   10cdc:	eb08                	sd	a0,16(a4)
   10cde:	e714                	sd	a3,8(a4)
   10ce0:	973e                	add	a4,a4,a5
   10ce2:	e31c                	sd	a5,0(a4)
   10ce4:	bdc1                	j	10bb4 <_free_r+0xb0>
   10ce6:	0085b803          	ld	a6,8(a1)
   10cea:	4026561b          	sraiw	a2,a2,0x2
   10cee:	4785                	li	a5,1
   10cf0:	00c797b3          	sll	a5,a5,a2
   10cf4:	0107e7b3          	or	a5,a5,a6
   10cf8:	e59c                	sd	a5,8(a1)
   10cfa:	bf21                	j	10c12 <_free_r+0x10e>
   10cfc:	15400613          	li	a2,340
   10d00:	00d66c63          	bltu	a2,a3,10d18 <_free_r+0x214>
   10d04:	00f7d693          	srli	a3,a5,0xf
   10d08:	0786851b          	addiw	a0,a3,120
   10d0c:	0015151b          	slliw	a0,a0,0x1
   10d10:	0776861b          	addiw	a2,a3,119
   10d14:	050e                	slli	a0,a0,0x3
   10d16:	b5c5                	j	10bf6 <_free_r+0xf2>
   10d18:	55400613          	li	a2,1364
   10d1c:	00d66c63          	bltu	a2,a3,10d34 <_free_r+0x230>
   10d20:	0127d693          	srli	a3,a5,0x12
   10d24:	07d6851b          	addiw	a0,a3,125
   10d28:	0015151b          	slliw	a0,a0,0x1
   10d2c:	07c6861b          	addiw	a2,a3,124
   10d30:	050e                	slli	a0,a0,0x3
   10d32:	b5d1                	j	10bf6 <_free_r+0xf2>
   10d34:	7f000513          	li	a0,2032
   10d38:	07e00613          	li	a2,126
   10d3c:	bd6d                	j	10bf6 <_free_r+0xf2>
   10d3e:	0017e693          	ori	a3,a5,1
   10d42:	e714                	sd	a3,8(a4)
   10d44:	e21c                	sd	a5,0(a2)
   10d46:	b5bd                	j	10bb4 <_free_r+0xb0>

0000000000010d48 <_malloc_r>:
   10d48:	711d                	addi	sp,sp,-96
   10d4a:	e4a6                	sd	s1,72(sp)
   10d4c:	e0ca                	sd	s2,64(sp)
   10d4e:	ec86                	sd	ra,88(sp)
   10d50:	e8a2                	sd	s0,80(sp)
   10d52:	fc4e                	sd	s3,56(sp)
   10d54:	01758493          	addi	s1,a1,23
   10d58:	02e00793          	li	a5,46
   10d5c:	892a                	mv	s2,a0
   10d5e:	0497ed63          	bltu	a5,s1,10db8 <_malloc_r+0x70>
   10d62:	02000793          	li	a5,32
   10d66:	18b7e963          	bltu	a5,a1,10ef8 <_malloc_r+0x1b0>
   10d6a:	5e0000ef          	jal	1134a <__malloc_lock>
   10d6e:	05000793          	li	a5,80
   10d72:	4591                	li	a1,4
   10d74:	02000493          	li	s1,32
   10d78:	69cd                	lui	s3,0x13
   10d7a:	19098993          	addi	s3,s3,400 # 13190 <__malloc_av_>
   10d7e:	97ce                	add	a5,a5,s3
   10d80:	6780                	ld	s0,8(a5)
   10d82:	ff078713          	addi	a4,a5,-16
   10d86:	26e40d63          	beq	s0,a4,11000 <_malloc_r+0x2b8>
   10d8a:	641c                	ld	a5,8(s0)
   10d8c:	6c14                	ld	a3,24(s0)
   10d8e:	6810                	ld	a2,16(s0)
   10d90:	9bf1                	andi	a5,a5,-4
   10d92:	97a2                	add	a5,a5,s0
   10d94:	6798                	ld	a4,8(a5)
   10d96:	ee14                	sd	a3,24(a2)
   10d98:	ea90                	sd	a2,16(a3)
   10d9a:	00176713          	ori	a4,a4,1
   10d9e:	854a                	mv	a0,s2
   10da0:	e798                	sd	a4,8(a5)
   10da2:	5aa000ef          	jal	1134c <__malloc_unlock>
   10da6:	01040513          	addi	a0,s0,16
   10daa:	60e6                	ld	ra,88(sp)
   10dac:	6446                	ld	s0,80(sp)
   10dae:	64a6                	ld	s1,72(sp)
   10db0:	6906                	ld	s2,64(sp)
   10db2:	79e2                	ld	s3,56(sp)
   10db4:	6125                	addi	sp,sp,96
   10db6:	8082                	ret
   10db8:	800007b7          	lui	a5,0x80000
   10dbc:	98c1                	andi	s1,s1,-16
   10dbe:	fff7c793          	not	a5,a5
   10dc2:	1297eb63          	bltu	a5,s1,10ef8 <_malloc_r+0x1b0>
   10dc6:	12b4e963          	bltu	s1,a1,10ef8 <_malloc_r+0x1b0>
   10dca:	580000ef          	jal	1134a <__malloc_lock>
   10dce:	1f700793          	li	a5,503
   10dd2:	3297f263          	bgeu	a5,s1,110f6 <_malloc_r+0x3ae>
   10dd6:	0094d793          	srli	a5,s1,0x9
   10dda:	12078463          	beqz	a5,10f02 <_malloc_r+0x1ba>
   10dde:	4711                	li	a4,4
   10de0:	26f76763          	bltu	a4,a5,1104e <_malloc_r+0x306>
   10de4:	0064d793          	srli	a5,s1,0x6
   10de8:	0397859b          	addiw	a1,a5,57 # ffffffff80000039 <__BSS_END__+0xffffffff7ffec0b9>
   10dec:	0015961b          	slliw	a2,a1,0x1
   10df0:	0387881b          	addiw	a6,a5,56
   10df4:	060e                	slli	a2,a2,0x3
   10df6:	69cd                	lui	s3,0x13
   10df8:	19098993          	addi	s3,s3,400 # 13190 <__malloc_av_>
   10dfc:	964e                	add	a2,a2,s3
   10dfe:	6600                	ld	s0,8(a2)
   10e00:	1641                	addi	a2,a2,-16
   10e02:	02860163          	beq	a2,s0,10e24 <_malloc_r+0xdc>
   10e06:	457d                	li	a0,31
   10e08:	a039                	j	10e16 <_malloc_r+0xce>
   10e0a:	6c14                	ld	a3,24(s0)
   10e0c:	1e075863          	bgez	a4,10ffc <_malloc_r+0x2b4>
   10e10:	00d60a63          	beq	a2,a3,10e24 <_malloc_r+0xdc>
   10e14:	8436                	mv	s0,a3
   10e16:	641c                	ld	a5,8(s0)
   10e18:	9bf1                	andi	a5,a5,-4
   10e1a:	40978733          	sub	a4,a5,s1
   10e1e:	fee556e3          	bge	a0,a4,10e0a <_malloc_r+0xc2>
   10e22:	85c2                	mv	a1,a6
   10e24:	0209b403          	ld	s0,32(s3)
   10e28:	684d                	lui	a6,0x13
   10e2a:	1a080813          	addi	a6,a6,416 # 131a0 <__malloc_av_+0x10>
   10e2e:	1d040463          	beq	s0,a6,10ff6 <_malloc_r+0x2ae>
   10e32:	641c                	ld	a5,8(s0)
   10e34:	46fd                	li	a3,31
   10e36:	9bf1                	andi	a5,a5,-4
   10e38:	40978733          	sub	a4,a5,s1
   10e3c:	28e6c663          	blt	a3,a4,110c8 <_malloc_r+0x380>
   10e40:	0309b423          	sd	a6,40(s3)
   10e44:	0309b023          	sd	a6,32(s3)
   10e48:	26075563          	bgez	a4,110b2 <_malloc_r+0x36a>
   10e4c:	1ff00713          	li	a4,511
   10e50:	0089b503          	ld	a0,8(s3)
   10e54:	1af76b63          	bltu	a4,a5,1100a <_malloc_r+0x2c2>
   10e58:	838d                	srli	a5,a5,0x3
   10e5a:	0017871b          	addiw	a4,a5,1
   10e5e:	0017171b          	slliw	a4,a4,0x1
   10e62:	070e                	slli	a4,a4,0x3
   10e64:	974e                	add	a4,a4,s3
   10e66:	6310                	ld	a2,0(a4)
   10e68:	4027d79b          	sraiw	a5,a5,0x2
   10e6c:	4685                	li	a3,1
   10e6e:	00f697b3          	sll	a5,a3,a5
   10e72:	8d5d                	or	a0,a0,a5
   10e74:	ff070793          	addi	a5,a4,-16
   10e78:	ec1c                	sd	a5,24(s0)
   10e7a:	e810                	sd	a2,16(s0)
   10e7c:	00a9b423          	sd	a0,8(s3)
   10e80:	e300                	sd	s0,0(a4)
   10e82:	ee00                	sd	s0,24(a2)
   10e84:	4025d79b          	sraiw	a5,a1,0x2
   10e88:	4605                	li	a2,1
   10e8a:	00f61633          	sll	a2,a2,a5
   10e8e:	08c56163          	bltu	a0,a2,10f10 <_malloc_r+0x1c8>
   10e92:	00a677b3          	and	a5,a2,a0
   10e96:	ef81                	bnez	a5,10eae <_malloc_r+0x166>
   10e98:	0606                	slli	a2,a2,0x1
   10e9a:	99f1                	andi	a1,a1,-4
   10e9c:	00a677b3          	and	a5,a2,a0
   10ea0:	2591                	addiw	a1,a1,4
   10ea2:	e791                	bnez	a5,10eae <_malloc_r+0x166>
   10ea4:	0606                	slli	a2,a2,0x1
   10ea6:	00a677b3          	and	a5,a2,a0
   10eaa:	2591                	addiw	a1,a1,4
   10eac:	dfe5                	beqz	a5,10ea4 <_malloc_r+0x15c>
   10eae:	48fd                	li	a7,31
   10eb0:	0015831b          	addiw	t1,a1,1
   10eb4:	0013131b          	slliw	t1,t1,0x1
   10eb8:	030e                	slli	t1,t1,0x3
   10eba:	1341                	addi	t1,t1,-16
   10ebc:	934e                	add	t1,t1,s3
   10ebe:	851a                	mv	a0,t1
   10ec0:	6d1c                	ld	a5,24(a0)
   10ec2:	8e2e                	mv	t3,a1
   10ec4:	1af50663          	beq	a0,a5,11070 <_malloc_r+0x328>
   10ec8:	6798                	ld	a4,8(a5)
   10eca:	843e                	mv	s0,a5
   10ecc:	6f9c                	ld	a5,24(a5)
   10ece:	9b71                	andi	a4,a4,-4
   10ed0:	409706b3          	sub	a3,a4,s1
   10ed4:	1ad8c563          	blt	a7,a3,1107e <_malloc_r+0x336>
   10ed8:	fe06c6e3          	bltz	a3,10ec4 <_malloc_r+0x17c>
   10edc:	9722                	add	a4,a4,s0
   10ede:	6714                	ld	a3,8(a4)
   10ee0:	6810                	ld	a2,16(s0)
   10ee2:	854a                	mv	a0,s2
   10ee4:	0016e693          	ori	a3,a3,1
   10ee8:	e714                	sd	a3,8(a4)
   10eea:	ee1c                	sd	a5,24(a2)
   10eec:	eb90                	sd	a2,16(a5)
   10eee:	45e000ef          	jal	1134c <__malloc_unlock>
   10ef2:	01040513          	addi	a0,s0,16
   10ef6:	bd55                	j	10daa <_malloc_r+0x62>
   10ef8:	47b1                	li	a5,12
   10efa:	00f92023          	sw	a5,0(s2)
   10efe:	4501                	li	a0,0
   10f00:	b56d                	j	10daa <_malloc_r+0x62>
   10f02:	40000613          	li	a2,1024
   10f06:	04000593          	li	a1,64
   10f0a:	03f00813          	li	a6,63
   10f0e:	b5e5                	j	10df6 <_malloc_r+0xae>
   10f10:	0109b403          	ld	s0,16(s3)
   10f14:	f456                	sd	s5,40(sp)
   10f16:	641c                	ld	a5,8(s0)
   10f18:	ffc7fa93          	andi	s5,a5,-4
   10f1c:	009ae763          	bltu	s5,s1,10f2a <_malloc_r+0x1e2>
   10f20:	409a8733          	sub	a4,s5,s1
   10f24:	47fd                	li	a5,31
   10f26:	0ae7c263          	blt	a5,a4,10fca <_malloc_r+0x282>
   10f2a:	e466                	sd	s9,8(sp)
   10f2c:	f852                	sd	s4,48(sp)
   10f2e:	1901b703          	ld	a4,400(gp) # 139b0 <__malloc_sbrk_base>
   10f32:	1c81ba03          	ld	s4,456(gp) # 139e8 <__malloc_top_pad>
   10f36:	e862                	sd	s8,16(sp)
   10f38:	f05a                	sd	s6,32(sp)
   10f3a:	57fd                	li	a5,-1
   10f3c:	01540c33          	add	s8,s0,s5
   10f40:	9a26                	add	s4,s4,s1
   10f42:	2ef70863          	beq	a4,a5,11232 <_malloc_r+0x4ea>
   10f46:	6785                	lui	a5,0x1
   10f48:	07fd                	addi	a5,a5,31 # 101f <exit-0xf0c9>
   10f4a:	9a3e                	add	s4,s4,a5
   10f4c:	77fd                	lui	a5,0xfffff
   10f4e:	00fa7a33          	and	s4,s4,a5
   10f52:	85d2                	mv	a1,s4
   10f54:	854a                	mv	a0,s2
   10f56:	3b1000ef          	jal	11b06 <_sbrk_r>
   10f5a:	57fd                	li	a5,-1
   10f5c:	8b2a                	mv	s6,a0
   10f5e:	36f50063          	beq	a0,a5,112be <_malloc_r+0x576>
   10f62:	ec5e                	sd	s7,24(sp)
   10f64:	1b856c63          	bltu	a0,s8,1111c <_malloc_r+0x3d4>
   10f68:	42018b93          	addi	s7,gp,1056 # 13c40 <__malloc_current_mallinfo>
   10f6c:	000ba783          	lw	a5,0(s7)
   10f70:	0147873b          	addw	a4,a5,s4
   10f74:	00eba023          	sw	a4,0(s7)
   10f78:	86ba                	mv	a3,a4
   10f7a:	20ac1763          	bne	s8,a0,11188 <_malloc_r+0x440>
   10f7e:	03451793          	slli	a5,a0,0x34
   10f82:	20079363          	bnez	a5,11188 <_malloc_r+0x440>
   10f86:	0109bb03          	ld	s6,16(s3)
   10f8a:	014a87b3          	add	a5,s5,s4
   10f8e:	0017e793          	ori	a5,a5,1
   10f92:	00fb3423          	sd	a5,8(s6)
   10f96:	1c01b603          	ld	a2,448(gp) # 139e0 <__malloc_max_sbrked_mem>
   10f9a:	00e67463          	bgeu	a2,a4,10fa2 <_malloc_r+0x25a>
   10f9e:	1ce1b023          	sd	a4,448(gp) # 139e0 <__malloc_max_sbrked_mem>
   10fa2:	1b81b603          	ld	a2,440(gp) # 139d8 <__malloc_max_total_mem>
   10fa6:	00e67463          	bgeu	a2,a4,10fae <_malloc_r+0x266>
   10faa:	1ae1bc23          	sd	a4,440(gp) # 139d8 <__malloc_max_total_mem>
   10fae:	6be2                	ld	s7,24(sp)
   10fb0:	845a                	mv	s0,s6
   10fb2:	9bf1                	andi	a5,a5,-4
   10fb4:	40978733          	sub	a4,a5,s1
   10fb8:	2a97ed63          	bltu	a5,s1,11272 <_malloc_r+0x52a>
   10fbc:	47fd                	li	a5,31
   10fbe:	2ae7da63          	bge	a5,a4,11272 <_malloc_r+0x52a>
   10fc2:	7a42                	ld	s4,48(sp)
   10fc4:	7b02                	ld	s6,32(sp)
   10fc6:	6c42                	ld	s8,16(sp)
   10fc8:	6ca2                	ld	s9,8(sp)
   10fca:	0014e793          	ori	a5,s1,1
   10fce:	e41c                	sd	a5,8(s0)
   10fd0:	94a2                	add	s1,s1,s0
   10fd2:	0099b823          	sd	s1,16(s3)
   10fd6:	00176713          	ori	a4,a4,1
   10fda:	854a                	mv	a0,s2
   10fdc:	e498                	sd	a4,8(s1)
   10fde:	36e000ef          	jal	1134c <__malloc_unlock>
   10fe2:	60e6                	ld	ra,88(sp)
   10fe4:	01040513          	addi	a0,s0,16
   10fe8:	6446                	ld	s0,80(sp)
   10fea:	7aa2                	ld	s5,40(sp)
   10fec:	64a6                	ld	s1,72(sp)
   10fee:	6906                	ld	s2,64(sp)
   10ff0:	79e2                	ld	s3,56(sp)
   10ff2:	6125                	addi	sp,sp,96
   10ff4:	8082                	ret
   10ff6:	0089b503          	ld	a0,8(s3)
   10ffa:	b569                	j	10e84 <_malloc_r+0x13c>
   10ffc:	6810                	ld	a2,16(s0)
   10ffe:	bb51                	j	10d92 <_malloc_r+0x4a>
   11000:	6f80                	ld	s0,24(a5)
   11002:	2589                	addiw	a1,a1,2
   11004:	e28780e3          	beq	a5,s0,10e24 <_malloc_r+0xdc>
   11008:	b349                	j	10d8a <_malloc_r+0x42>
   1100a:	0097d713          	srli	a4,a5,0x9
   1100e:	4691                	li	a3,4
   11010:	0ee6fc63          	bgeu	a3,a4,11108 <_malloc_r+0x3c0>
   11014:	46d1                	li	a3,20
   11016:	26e6e863          	bltu	a3,a4,11286 <_malloc_r+0x53e>
   1101a:	05c7061b          	addiw	a2,a4,92
   1101e:	0016161b          	slliw	a2,a2,0x1
   11022:	05b7069b          	addiw	a3,a4,91
   11026:	060e                	slli	a2,a2,0x3
   11028:	964e                	add	a2,a2,s3
   1102a:	6218                	ld	a4,0(a2)
   1102c:	1641                	addi	a2,a2,-16
   1102e:	00e61663          	bne	a2,a4,1103a <_malloc_r+0x2f2>
   11032:	a419                	j	11238 <_malloc_r+0x4f0>
   11034:	6b18                	ld	a4,16(a4)
   11036:	00e60663          	beq	a2,a4,11042 <_malloc_r+0x2fa>
   1103a:	6714                	ld	a3,8(a4)
   1103c:	9af1                	andi	a3,a3,-4
   1103e:	fed7ebe3          	bltu	a5,a3,11034 <_malloc_r+0x2ec>
   11042:	6f10                	ld	a2,24(a4)
   11044:	ec10                	sd	a2,24(s0)
   11046:	e818                	sd	a4,16(s0)
   11048:	ea00                	sd	s0,16(a2)
   1104a:	ef00                	sd	s0,24(a4)
   1104c:	bd25                	j	10e84 <_malloc_r+0x13c>
   1104e:	4751                	li	a4,20
   11050:	0cf77d63          	bgeu	a4,a5,1112a <_malloc_r+0x3e2>
   11054:	05400713          	li	a4,84
   11058:	24f76563          	bltu	a4,a5,112a2 <_malloc_r+0x55a>
   1105c:	00c4d793          	srli	a5,s1,0xc
   11060:	06f7859b          	addiw	a1,a5,111 # fffffffffffff06f <__BSS_END__+0xfffffffffffeb0ef>
   11064:	0015961b          	slliw	a2,a1,0x1
   11068:	06e7881b          	addiw	a6,a5,110
   1106c:	060e                	slli	a2,a2,0x3
   1106e:	b361                	j	10df6 <_malloc_r+0xae>
   11070:	2e05                	addiw	t3,t3,1
   11072:	003e7793          	andi	a5,t3,3
   11076:	0541                	addi	a0,a0,16
   11078:	c7f1                	beqz	a5,11144 <_malloc_r+0x3fc>
   1107a:	6d1c                	ld	a5,24(a0)
   1107c:	b5a1                	j	10ec4 <_malloc_r+0x17c>
   1107e:	6810                	ld	a2,16(s0)
   11080:	0014e593          	ori	a1,s1,1
   11084:	e40c                	sd	a1,8(s0)
   11086:	ee1c                	sd	a5,24(a2)
   11088:	eb90                	sd	a2,16(a5)
   1108a:	94a2                	add	s1,s1,s0
   1108c:	0299b423          	sd	s1,40(s3)
   11090:	0299b023          	sd	s1,32(s3)
   11094:	0016e793          	ori	a5,a3,1
   11098:	0104bc23          	sd	a6,24(s1)
   1109c:	0104b823          	sd	a6,16(s1)
   110a0:	e49c                	sd	a5,8(s1)
   110a2:	9722                	add	a4,a4,s0
   110a4:	854a                	mv	a0,s2
   110a6:	e314                	sd	a3,0(a4)
   110a8:	2a4000ef          	jal	1134c <__malloc_unlock>
   110ac:	01040513          	addi	a0,s0,16
   110b0:	b9ed                	j	10daa <_malloc_r+0x62>
   110b2:	97a2                	add	a5,a5,s0
   110b4:	6798                	ld	a4,8(a5)
   110b6:	854a                	mv	a0,s2
   110b8:	00176713          	ori	a4,a4,1
   110bc:	e798                	sd	a4,8(a5)
   110be:	28e000ef          	jal	1134c <__malloc_unlock>
   110c2:	01040513          	addi	a0,s0,16
   110c6:	b1d5                	j	10daa <_malloc_r+0x62>
   110c8:	0014e693          	ori	a3,s1,1
   110cc:	e414                	sd	a3,8(s0)
   110ce:	94a2                	add	s1,s1,s0
   110d0:	0299b423          	sd	s1,40(s3)
   110d4:	0299b023          	sd	s1,32(s3)
   110d8:	00176693          	ori	a3,a4,1
   110dc:	0104bc23          	sd	a6,24(s1)
   110e0:	0104b823          	sd	a6,16(s1)
   110e4:	e494                	sd	a3,8(s1)
   110e6:	97a2                	add	a5,a5,s0
   110e8:	854a                	mv	a0,s2
   110ea:	e398                	sd	a4,0(a5)
   110ec:	260000ef          	jal	1134c <__malloc_unlock>
   110f0:	01040513          	addi	a0,s0,16
   110f4:	b95d                	j	10daa <_malloc_r+0x62>
   110f6:	0034d593          	srli	a1,s1,0x3
   110fa:	0015879b          	addiw	a5,a1,1
   110fe:	0017979b          	slliw	a5,a5,0x1
   11102:	2581                	sext.w	a1,a1
   11104:	078e                	slli	a5,a5,0x3
   11106:	b98d                	j	10d78 <_malloc_r+0x30>
   11108:	0067d713          	srli	a4,a5,0x6
   1110c:	0397061b          	addiw	a2,a4,57
   11110:	0016161b          	slliw	a2,a2,0x1
   11114:	0387069b          	addiw	a3,a4,56
   11118:	060e                	slli	a2,a2,0x3
   1111a:	b739                	j	11028 <_malloc_r+0x2e0>
   1111c:	05340e63          	beq	s0,s3,11178 <_malloc_r+0x430>
   11120:	0109b403          	ld	s0,16(s3)
   11124:	6be2                	ld	s7,24(sp)
   11126:	641c                	ld	a5,8(s0)
   11128:	b569                	j	10fb2 <_malloc_r+0x26a>
   1112a:	05c7859b          	addiw	a1,a5,92
   1112e:	0015961b          	slliw	a2,a1,0x1
   11132:	05b7881b          	addiw	a6,a5,91
   11136:	060e                	slli	a2,a2,0x3
   11138:	b97d                	j	10df6 <_malloc_r+0xae>
   1113a:	01033783          	ld	a5,16(t1)
   1113e:	35fd                	addiw	a1,a1,-1
   11140:	20679263          	bne	a5,t1,11344 <_malloc_r+0x5fc>
   11144:	0035f793          	andi	a5,a1,3
   11148:	1341                	addi	t1,t1,-16
   1114a:	fbe5                	bnez	a5,1113a <_malloc_r+0x3f2>
   1114c:	0089b703          	ld	a4,8(s3)
   11150:	fff64793          	not	a5,a2
   11154:	8ff9                	and	a5,a5,a4
   11156:	00f9b423          	sd	a5,8(s3)
   1115a:	0606                	slli	a2,a2,0x1
   1115c:	dac7eae3          	bltu	a5,a2,10f10 <_malloc_r+0x1c8>
   11160:	da0608e3          	beqz	a2,10f10 <_malloc_r+0x1c8>
   11164:	00f67733          	and	a4,a2,a5
   11168:	e711                	bnez	a4,11174 <_malloc_r+0x42c>
   1116a:	0606                	slli	a2,a2,0x1
   1116c:	00f67733          	and	a4,a2,a5
   11170:	2e11                	addiw	t3,t3,4
   11172:	df65                	beqz	a4,1116a <_malloc_r+0x422>
   11174:	85f2                	mv	a1,t3
   11176:	bb2d                	j	10eb0 <_malloc_r+0x168>
   11178:	42018b93          	addi	s7,gp,1056 # 13c40 <__malloc_current_mallinfo>
   1117c:	000ba783          	lw	a5,0(s7)
   11180:	014786bb          	addw	a3,a5,s4
   11184:	00dba023          	sw	a3,0(s7)
   11188:	1901b703          	ld	a4,400(gp) # 139b0 <__malloc_sbrk_base>
   1118c:	57fd                	li	a5,-1
   1118e:	12f70c63          	beq	a4,a5,112c6 <_malloc_r+0x57e>
   11192:	418b07b3          	sub	a5,s6,s8
   11196:	9fb5                	addw	a5,a5,a3
   11198:	00fba023          	sw	a5,0(s7)
   1119c:	00fb7c93          	andi	s9,s6,15
   111a0:	0a0c8563          	beqz	s9,1124a <_malloc_r+0x502>
   111a4:	419b0b33          	sub	s6,s6,s9
   111a8:	6705                	lui	a4,0x1
   111aa:	0741                	addi	a4,a4,16 # 1010 <exit-0xf0d8>
   111ac:	0b41                	addi	s6,s6,16
   111ae:	41970c33          	sub	s8,a4,s9
   111b2:	9a5a                	add	s4,s4,s6
   111b4:	414c0c33          	sub	s8,s8,s4
   111b8:	1c52                	slli	s8,s8,0x34
   111ba:	034c5c13          	srli	s8,s8,0x34
   111be:	85e2                	mv	a1,s8
   111c0:	854a                	mv	a0,s2
   111c2:	145000ef          	jal	11b06 <_sbrk_r>
   111c6:	57fd                	li	a5,-1
   111c8:	12f50e63          	beq	a0,a5,11304 <_malloc_r+0x5bc>
   111cc:	41650533          	sub	a0,a0,s6
   111d0:	000c069b          	sext.w	a3,s8
   111d4:	01850a33          	add	s4,a0,s8
   111d8:	000ba703          	lw	a4,0(s7)
   111dc:	0169b823          	sd	s6,16(s3)
   111e0:	001a6793          	ori	a5,s4,1
   111e4:	9f35                	addw	a4,a4,a3
   111e6:	00eba023          	sw	a4,0(s7)
   111ea:	00fb3423          	sd	a5,8(s6)
   111ee:	db3404e3          	beq	s0,s3,10f96 <_malloc_r+0x24e>
   111f2:	467d                	li	a2,31
   111f4:	07567b63          	bgeu	a2,s5,1126a <_malloc_r+0x522>
   111f8:	6414                	ld	a3,8(s0)
   111fa:	fe8a8793          	addi	a5,s5,-24
   111fe:	9bc1                	andi	a5,a5,-16
   11200:	8a85                	andi	a3,a3,1
   11202:	8edd                	or	a3,a3,a5
   11204:	e414                	sd	a3,8(s0)
   11206:	45a5                	li	a1,9
   11208:	00f406b3          	add	a3,s0,a5
   1120c:	e68c                	sd	a1,8(a3)
   1120e:	ea8c                	sd	a1,16(a3)
   11210:	00f66563          	bltu	a2,a5,1121a <_malloc_r+0x4d2>
   11214:	008b3783          	ld	a5,8(s6)
   11218:	bbbd                	j	10f96 <_malloc_r+0x24e>
   1121a:	01040593          	addi	a1,s0,16
   1121e:	854a                	mv	a0,s2
   11220:	8e5ff0ef          	jal	10b04 <_free_r>
   11224:	0109bb03          	ld	s6,16(s3)
   11228:	000ba703          	lw	a4,0(s7)
   1122c:	008b3783          	ld	a5,8(s6)
   11230:	b39d                	j	10f96 <_malloc_r+0x24e>
   11232:	020a0a13          	addi	s4,s4,32
   11236:	bb31                	j	10f52 <_malloc_r+0x20a>
   11238:	4026d69b          	sraiw	a3,a3,0x2
   1123c:	4785                	li	a5,1
   1123e:	00d797b3          	sll	a5,a5,a3
   11242:	8d5d                	or	a0,a0,a5
   11244:	00a9b423          	sd	a0,8(s3)
   11248:	bbf5                	j	11044 <_malloc_r+0x2fc>
   1124a:	014b0c33          	add	s8,s6,s4
   1124e:	41800c33          	neg	s8,s8
   11252:	1c52                	slli	s8,s8,0x34
   11254:	034c5c13          	srli	s8,s8,0x34
   11258:	85e2                	mv	a1,s8
   1125a:	854a                	mv	a0,s2
   1125c:	0ab000ef          	jal	11b06 <_sbrk_r>
   11260:	57fd                	li	a5,-1
   11262:	4681                	li	a3,0
   11264:	f6f514e3          	bne	a0,a5,111cc <_malloc_r+0x484>
   11268:	bf85                	j	111d8 <_malloc_r+0x490>
   1126a:	6be2                	ld	s7,24(sp)
   1126c:	4785                	li	a5,1
   1126e:	00fb3423          	sd	a5,8(s6)
   11272:	854a                	mv	a0,s2
   11274:	0d8000ef          	jal	1134c <__malloc_unlock>
   11278:	4501                	li	a0,0
   1127a:	7a42                	ld	s4,48(sp)
   1127c:	7aa2                	ld	s5,40(sp)
   1127e:	7b02                	ld	s6,32(sp)
   11280:	6c42                	ld	s8,16(sp)
   11282:	6ca2                	ld	s9,8(sp)
   11284:	b61d                	j	10daa <_malloc_r+0x62>
   11286:	05400693          	li	a3,84
   1128a:	04e6e163          	bltu	a3,a4,112cc <_malloc_r+0x584>
   1128e:	00c7d713          	srli	a4,a5,0xc
   11292:	06f7061b          	addiw	a2,a4,111
   11296:	0016161b          	slliw	a2,a2,0x1
   1129a:	06e7069b          	addiw	a3,a4,110
   1129e:	060e                	slli	a2,a2,0x3
   112a0:	b361                	j	11028 <_malloc_r+0x2e0>
   112a2:	15400713          	li	a4,340
   112a6:	04f76163          	bltu	a4,a5,112e8 <_malloc_r+0x5a0>
   112aa:	00f4d793          	srli	a5,s1,0xf
   112ae:	0787859b          	addiw	a1,a5,120
   112b2:	0015961b          	slliw	a2,a1,0x1
   112b6:	0777881b          	addiw	a6,a5,119
   112ba:	060e                	slli	a2,a2,0x3
   112bc:	be2d                	j	10df6 <_malloc_r+0xae>
   112be:	0109b403          	ld	s0,16(s3)
   112c2:	641c                	ld	a5,8(s0)
   112c4:	b1fd                	j	10fb2 <_malloc_r+0x26a>
   112c6:	1961b823          	sd	s6,400(gp) # 139b0 <__malloc_sbrk_base>
   112ca:	bdc9                	j	1119c <_malloc_r+0x454>
   112cc:	15400693          	li	a3,340
   112d0:	04e6e063          	bltu	a3,a4,11310 <_malloc_r+0x5c8>
   112d4:	00f7d713          	srli	a4,a5,0xf
   112d8:	0787061b          	addiw	a2,a4,120
   112dc:	0016161b          	slliw	a2,a2,0x1
   112e0:	0777069b          	addiw	a3,a4,119
   112e4:	060e                	slli	a2,a2,0x3
   112e6:	b389                	j	11028 <_malloc_r+0x2e0>
   112e8:	55400713          	li	a4,1364
   112ec:	04f76063          	bltu	a4,a5,1132c <_malloc_r+0x5e4>
   112f0:	0124d793          	srli	a5,s1,0x12
   112f4:	07d7859b          	addiw	a1,a5,125
   112f8:	0015961b          	slliw	a2,a1,0x1
   112fc:	07c7881b          	addiw	a6,a5,124
   11300:	060e                	slli	a2,a2,0x3
   11302:	bcd5                	j	10df6 <_malloc_r+0xae>
   11304:	1cc1                	addi	s9,s9,-16
   11306:	9a66                	add	s4,s4,s9
   11308:	416a0a33          	sub	s4,s4,s6
   1130c:	4681                	li	a3,0
   1130e:	b5e9                	j	111d8 <_malloc_r+0x490>
   11310:	55400693          	li	a3,1364
   11314:	02e6e363          	bltu	a3,a4,1133a <_malloc_r+0x5f2>
   11318:	0127d713          	srli	a4,a5,0x12
   1131c:	07d7061b          	addiw	a2,a4,125
   11320:	0016161b          	slliw	a2,a2,0x1
   11324:	07c7069b          	addiw	a3,a4,124
   11328:	060e                	slli	a2,a2,0x3
   1132a:	b9fd                	j	11028 <_malloc_r+0x2e0>
   1132c:	7f000613          	li	a2,2032
   11330:	07f00593          	li	a1,127
   11334:	07e00813          	li	a6,126
   11338:	bc7d                	j	10df6 <_malloc_r+0xae>
   1133a:	7f000613          	li	a2,2032
   1133e:	07e00693          	li	a3,126
   11342:	b1dd                	j	11028 <_malloc_r+0x2e0>
   11344:	0089b783          	ld	a5,8(s3)
   11348:	bd09                	j	1115a <_malloc_r+0x412>

000000000001134a <__malloc_lock>:
   1134a:	8082                	ret

000000000001134c <__malloc_unlock>:
   1134c:	8082                	ret

000000000001134e <_fclose_r>:
   1134e:	1101                	addi	sp,sp,-32
   11350:	ec06                	sd	ra,24(sp)
   11352:	e04a                	sd	s2,0(sp)
   11354:	cd89                	beqz	a1,1136e <_fclose_r+0x20>
   11356:	e822                	sd	s0,16(sp)
   11358:	e426                	sd	s1,8(sp)
   1135a:	842e                	mv	s0,a1
   1135c:	84aa                	mv	s1,a0
   1135e:	c119                	beqz	a0,11364 <_fclose_r+0x16>
   11360:	653c                	ld	a5,72(a0)
   11362:	c7d9                	beqz	a5,113f0 <_fclose_r+0xa2>
   11364:	01041783          	lh	a5,16(s0)
   11368:	eb89                	bnez	a5,1137a <_fclose_r+0x2c>
   1136a:	6442                	ld	s0,16(sp)
   1136c:	64a2                	ld	s1,8(sp)
   1136e:	60e2                	ld	ra,24(sp)
   11370:	4901                	li	s2,0
   11372:	854a                	mv	a0,s2
   11374:	6902                	ld	s2,0(sp)
   11376:	6105                	addi	sp,sp,32
   11378:	8082                	ret
   1137a:	85a2                	mv	a1,s0
   1137c:	8526                	mv	a0,s1
   1137e:	080000ef          	jal	113fe <__sflush_r>
   11382:	683c                	ld	a5,80(s0)
   11384:	892a                	mv	s2,a0
   11386:	c791                	beqz	a5,11392 <_fclose_r+0x44>
   11388:	780c                	ld	a1,48(s0)
   1138a:	8526                	mv	a0,s1
   1138c:	9782                	jalr	a5
   1138e:	04054663          	bltz	a0,113da <_fclose_r+0x8c>
   11392:	01045783          	lhu	a5,16(s0)
   11396:	0807f793          	andi	a5,a5,128
   1139a:	e7b1                	bnez	a5,113e6 <_fclose_r+0x98>
   1139c:	6c2c                	ld	a1,88(s0)
   1139e:	c991                	beqz	a1,113b2 <_fclose_r+0x64>
   113a0:	07440793          	addi	a5,s0,116
   113a4:	00f58563          	beq	a1,a5,113ae <_fclose_r+0x60>
   113a8:	8526                	mv	a0,s1
   113aa:	f5aff0ef          	jal	10b04 <_free_r>
   113ae:	04043c23          	sd	zero,88(s0)
   113b2:	7c2c                	ld	a1,120(s0)
   113b4:	c591                	beqz	a1,113c0 <_fclose_r+0x72>
   113b6:	8526                	mv	a0,s1
   113b8:	f4cff0ef          	jal	10b04 <_free_r>
   113bc:	06043c23          	sd	zero,120(s0)
   113c0:	858ff0ef          	jal	10418 <__sfp_lock_acquire>
   113c4:	00041823          	sh	zero,16(s0)
   113c8:	852ff0ef          	jal	1041a <__sfp_lock_release>
   113cc:	60e2                	ld	ra,24(sp)
   113ce:	6442                	ld	s0,16(sp)
   113d0:	64a2                	ld	s1,8(sp)
   113d2:	854a                	mv	a0,s2
   113d4:	6902                	ld	s2,0(sp)
   113d6:	6105                	addi	sp,sp,32
   113d8:	8082                	ret
   113da:	01045783          	lhu	a5,16(s0)
   113de:	597d                	li	s2,-1
   113e0:	0807f793          	andi	a5,a5,128
   113e4:	dfc5                	beqz	a5,1139c <_fclose_r+0x4e>
   113e6:	6c0c                	ld	a1,24(s0)
   113e8:	8526                	mv	a0,s1
   113ea:	f1aff0ef          	jal	10b04 <_free_r>
   113ee:	b77d                	j	1139c <_fclose_r+0x4e>
   113f0:	812ff0ef          	jal	10402 <__sinit>
   113f4:	bf85                	j	11364 <_fclose_r+0x16>

00000000000113f6 <fclose>:
   113f6:	85aa                	mv	a1,a0
   113f8:	1881b503          	ld	a0,392(gp) # 139a8 <_impure_ptr>
   113fc:	bf89                	j	1134e <_fclose_r>

00000000000113fe <__sflush_r>:
   113fe:	01059703          	lh	a4,16(a1)
   11402:	7179                	addi	sp,sp,-48
   11404:	f022                	sd	s0,32(sp)
   11406:	e44e                	sd	s3,8(sp)
   11408:	f406                	sd	ra,40(sp)
   1140a:	00877793          	andi	a5,a4,8
   1140e:	842e                	mv	s0,a1
   11410:	89aa                	mv	s3,a0
   11412:	e7f1                	bnez	a5,114de <__sflush_r+0xe0>
   11414:	6785                	lui	a5,0x1
   11416:	80078793          	addi	a5,a5,-2048 # 800 <exit-0xf8e8>
   1141a:	4594                	lw	a3,8(a1)
   1141c:	8fd9                	or	a5,a5,a4
   1141e:	00f59823          	sh	a5,16(a1)
   11422:	10d05763          	blez	a3,11530 <__sflush_r+0x132>
   11426:	04843803          	ld	a6,72(s0)
   1142a:	0a080463          	beqz	a6,114d2 <__sflush_r+0xd4>
   1142e:	ec26                	sd	s1,24(sp)
   11430:	03371693          	slli	a3,a4,0x33
   11434:	0009a483          	lw	s1,0(s3)
   11438:	0009a023          	sw	zero,0(s3)
   1143c:	780c                	ld	a1,48(s0)
   1143e:	1006c063          	bltz	a3,1153e <__sflush_r+0x140>
   11442:	4601                	li	a2,0
   11444:	4685                	li	a3,1
   11446:	854e                	mv	a0,s3
   11448:	9802                	jalr	a6
   1144a:	57fd                	li	a5,-1
   1144c:	862a                	mv	a2,a0
   1144e:	12f50163          	beq	a0,a5,11570 <__sflush_r+0x172>
   11452:	01041783          	lh	a5,16(s0)
   11456:	04843803          	ld	a6,72(s0)
   1145a:	780c                	ld	a1,48(s0)
   1145c:	8b91                	andi	a5,a5,4
   1145e:	c799                	beqz	a5,1146c <__sflush_r+0x6e>
   11460:	4418                	lw	a4,8(s0)
   11462:	6c3c                	ld	a5,88(s0)
   11464:	8e19                	sub	a2,a2,a4
   11466:	c399                	beqz	a5,1146c <__sflush_r+0x6e>
   11468:	583c                	lw	a5,112(s0)
   1146a:	8e1d                	sub	a2,a2,a5
   1146c:	4681                	li	a3,0
   1146e:	854e                	mv	a0,s3
   11470:	9802                	jalr	a6
   11472:	57fd                	li	a5,-1
   11474:	0cf51763          	bne	a0,a5,11542 <__sflush_r+0x144>
   11478:	0009a683          	lw	a3,0(s3)
   1147c:	47f5                	li	a5,29
   1147e:	01041703          	lh	a4,16(s0)
   11482:	0006861b          	sext.w	a2,a3
   11486:	10d7e163          	bltu	a5,a3,11588 <__sflush_r+0x18a>
   1148a:	204007b7          	lui	a5,0x20400
   1148e:	0785                	addi	a5,a5,1 # 20400001 <__BSS_END__+0x203ec081>
   11490:	00c7d7b3          	srl	a5,a5,a2
   11494:	8b85                	andi	a5,a5,1
   11496:	cbed                	beqz	a5,11588 <__sflush_r+0x18a>
   11498:	6c10                	ld	a2,24(s0)
   1149a:	77fd                	lui	a5,0xfffff
   1149c:	7ff78793          	addi	a5,a5,2047 # fffffffffffff7ff <__BSS_END__+0xfffffffffffeb87f>
   114a0:	8ff9                	and	a5,a5,a4
   114a2:	00f41823          	sh	a5,16(s0)
   114a6:	00042423          	sw	zero,8(s0)
   114aa:	e010                	sd	a2,0(s0)
   114ac:	03371793          	slli	a5,a4,0x33
   114b0:	0007d363          	bgez	a5,114b6 <__sflush_r+0xb8>
   114b4:	c6dd                	beqz	a3,11562 <__sflush_r+0x164>
   114b6:	6c2c                	ld	a1,88(s0)
   114b8:	0099a023          	sw	s1,0(s3)
   114bc:	c9c5                	beqz	a1,1156c <__sflush_r+0x16e>
   114be:	07440793          	addi	a5,s0,116
   114c2:	00f58563          	beq	a1,a5,114cc <__sflush_r+0xce>
   114c6:	854e                	mv	a0,s3
   114c8:	e3cff0ef          	jal	10b04 <_free_r>
   114cc:	64e2                	ld	s1,24(sp)
   114ce:	04043c23          	sd	zero,88(s0)
   114d2:	4501                	li	a0,0
   114d4:	70a2                	ld	ra,40(sp)
   114d6:	7402                	ld	s0,32(sp)
   114d8:	69a2                	ld	s3,8(sp)
   114da:	6145                	addi	sp,sp,48
   114dc:	8082                	ret
   114de:	e84a                	sd	s2,16(sp)
   114e0:	0185b903          	ld	s2,24(a1)
   114e4:	04090b63          	beqz	s2,1153a <__sflush_r+0x13c>
   114e8:	ec26                	sd	s1,24(sp)
   114ea:	6184                	ld	s1,0(a1)
   114ec:	8b0d                	andi	a4,a4,3
   114ee:	0125b023          	sd	s2,0(a1)
   114f2:	412484bb          	subw	s1,s1,s2
   114f6:	4781                	li	a5,0
   114f8:	e311                	bnez	a4,114fc <__sflush_r+0xfe>
   114fa:	519c                	lw	a5,32(a1)
   114fc:	c45c                	sw	a5,12(s0)
   114fe:	00904663          	bgtz	s1,1150a <__sflush_r+0x10c>
   11502:	a81d                	j	11538 <__sflush_r+0x13a>
   11504:	992a                	add	s2,s2,a0
   11506:	02905963          	blez	s1,11538 <__sflush_r+0x13a>
   1150a:	603c                	ld	a5,64(s0)
   1150c:	780c                	ld	a1,48(s0)
   1150e:	86a6                	mv	a3,s1
   11510:	864a                	mv	a2,s2
   11512:	854e                	mv	a0,s3
   11514:	9782                	jalr	a5
   11516:	9c89                	subw	s1,s1,a0
   11518:	fea046e3          	bgtz	a0,11504 <__sflush_r+0x106>
   1151c:	01041703          	lh	a4,16(s0)
   11520:	6942                	ld	s2,16(sp)
   11522:	04076713          	ori	a4,a4,64
   11526:	64e2                	ld	s1,24(sp)
   11528:	00e41823          	sh	a4,16(s0)
   1152c:	557d                	li	a0,-1
   1152e:	b75d                	j	114d4 <__sflush_r+0xd6>
   11530:	59b4                	lw	a3,112(a1)
   11532:	eed04ae3          	bgtz	a3,11426 <__sflush_r+0x28>
   11536:	bf71                	j	114d2 <__sflush_r+0xd4>
   11538:	64e2                	ld	s1,24(sp)
   1153a:	6942                	ld	s2,16(sp)
   1153c:	bf59                	j	114d2 <__sflush_r+0xd4>
   1153e:	6850                	ld	a2,144(s0)
   11540:	bf31                	j	1145c <__sflush_r+0x5e>
   11542:	01041703          	lh	a4,16(s0)
   11546:	6c14                	ld	a3,24(s0)
   11548:	77fd                	lui	a5,0xfffff
   1154a:	7ff78793          	addi	a5,a5,2047 # fffffffffffff7ff <__BSS_END__+0xfffffffffffeb87f>
   1154e:	8ff9                	and	a5,a5,a4
   11550:	00f41823          	sh	a5,16(s0)
   11554:	00042423          	sw	zero,8(s0)
   11558:	e014                	sd	a3,0(s0)
   1155a:	03371793          	slli	a5,a4,0x33
   1155e:	f407dce3          	bgez	a5,114b6 <__sflush_r+0xb8>
   11562:	6c2c                	ld	a1,88(s0)
   11564:	e848                	sd	a0,144(s0)
   11566:	0099a023          	sw	s1,0(s3)
   1156a:	f9b1                	bnez	a1,114be <__sflush_r+0xc0>
   1156c:	64e2                	ld	s1,24(sp)
   1156e:	b795                	j	114d2 <__sflush_r+0xd4>
   11570:	0009a783          	lw	a5,0(s3)
   11574:	ec078fe3          	beqz	a5,11452 <__sflush_r+0x54>
   11578:	4775                	li	a4,29
   1157a:	00e78a63          	beq	a5,a4,1158e <__sflush_r+0x190>
   1157e:	4759                	li	a4,22
   11580:	00e78763          	beq	a5,a4,1158e <__sflush_r+0x190>
   11584:	01041703          	lh	a4,16(s0)
   11588:	04076713          	ori	a4,a4,64
   1158c:	bf69                	j	11526 <__sflush_r+0x128>
   1158e:	0099a023          	sw	s1,0(s3)
   11592:	64e2                	ld	s1,24(sp)
   11594:	bf3d                	j	114d2 <__sflush_r+0xd4>

0000000000011596 <_fflush_r>:
   11596:	1101                	addi	sp,sp,-32
   11598:	e822                	sd	s0,16(sp)
   1159a:	ec06                	sd	ra,24(sp)
   1159c:	842a                	mv	s0,a0
   1159e:	c119                	beqz	a0,115a4 <_fflush_r+0xe>
   115a0:	653c                	ld	a5,72(a0)
   115a2:	cf91                	beqz	a5,115be <_fflush_r+0x28>
   115a4:	01059783          	lh	a5,16(a1)
   115a8:	e791                	bnez	a5,115b4 <_fflush_r+0x1e>
   115aa:	60e2                	ld	ra,24(sp)
   115ac:	6442                	ld	s0,16(sp)
   115ae:	4501                	li	a0,0
   115b0:	6105                	addi	sp,sp,32
   115b2:	8082                	ret
   115b4:	8522                	mv	a0,s0
   115b6:	6442                	ld	s0,16(sp)
   115b8:	60e2                	ld	ra,24(sp)
   115ba:	6105                	addi	sp,sp,32
   115bc:	b589                	j	113fe <__sflush_r>
   115be:	e42e                	sd	a1,8(sp)
   115c0:	e43fe0ef          	jal	10402 <__sinit>
   115c4:	65a2                	ld	a1,8(sp)
   115c6:	bff9                	j	115a4 <_fflush_r+0xe>

00000000000115c8 <fflush>:
   115c8:	cd05                	beqz	a0,11600 <fflush+0x38>
   115ca:	85aa                	mv	a1,a0
   115cc:	1881b503          	ld	a0,392(gp) # 139a8 <_impure_ptr>
   115d0:	c119                	beqz	a0,115d6 <fflush+0xe>
   115d2:	653c                	ld	a5,72(a0)
   115d4:	c799                	beqz	a5,115e2 <fflush+0x1a>
   115d6:	01059783          	lh	a5,16(a1)
   115da:	e399                	bnez	a5,115e0 <fflush+0x18>
   115dc:	4501                	li	a0,0
   115de:	8082                	ret
   115e0:	bd39                	j	113fe <__sflush_r>
   115e2:	1101                	addi	sp,sp,-32
   115e4:	e42e                	sd	a1,8(sp)
   115e6:	e02a                	sd	a0,0(sp)
   115e8:	ec06                	sd	ra,24(sp)
   115ea:	e19fe0ef          	jal	10402 <__sinit>
   115ee:	65a2                	ld	a1,8(sp)
   115f0:	6502                	ld	a0,0(sp)
   115f2:	01059783          	lh	a5,16(a1)
   115f6:	e385                	bnez	a5,11616 <fflush+0x4e>
   115f8:	60e2                	ld	ra,24(sp)
   115fa:	4501                	li	a0,0
   115fc:	6105                	addi	sp,sp,32
   115fe:	8082                	ret
   11600:	664d                	lui	a2,0x13
   11602:	65c5                	lui	a1,0x11
   11604:	654d                	lui	a0,0x13
   11606:	02060613          	addi	a2,a2,32 # 13020 <__sglue>
   1160a:	59658593          	addi	a1,a1,1430 # 11596 <_fflush_r>
   1160e:	03850513          	addi	a0,a0,56 # 13038 <_impure_data>
   11612:	e2bfe06f          	j	1043c <_fwalk_sglue>
   11616:	60e2                	ld	ra,24(sp)
   11618:	6105                	addi	sp,sp,32
   1161a:	b3d5                	j	113fe <__sflush_r>

000000000001161c <__sfvwrite_r>:
   1161c:	6a1c                	ld	a5,16(a2)
   1161e:	1c078b63          	beqz	a5,117f4 <__sfvwrite_r+0x1d8>
   11622:	01059703          	lh	a4,16(a1)
   11626:	711d                	addi	sp,sp,-96
   11628:	e8a2                	sd	s0,80(sp)
   1162a:	f456                	sd	s5,40(sp)
   1162c:	ec5e                	sd	s7,24(sp)
   1162e:	ec86                	sd	ra,88(sp)
   11630:	00877793          	andi	a5,a4,8
   11634:	8bb2                	mv	s7,a2
   11636:	8aaa                	mv	s5,a0
   11638:	842e                	mv	s0,a1
   1163a:	c7b5                	beqz	a5,116a6 <__sfvwrite_r+0x8a>
   1163c:	6d9c                	ld	a5,24(a1)
   1163e:	c7a5                	beqz	a5,116a6 <__sfvwrite_r+0x8a>
   11640:	e4a6                	sd	s1,72(sp)
   11642:	e0ca                	sd	s2,64(sp)
   11644:	fc4e                	sd	s3,56(sp)
   11646:	f852                	sd	s4,48(sp)
   11648:	00277793          	andi	a5,a4,2
   1164c:	000bb483          	ld	s1,0(s7)
   11650:	cfa5                	beqz	a5,116c8 <__sfvwrite_r+0xac>
   11652:	603c                	ld	a5,64(s0)
   11654:	780c                	ld	a1,48(s0)
   11656:	80000a37          	lui	s4,0x80000
   1165a:	4981                	li	s3,0
   1165c:	4901                	li	s2,0
   1165e:	c00a4a13          	xori	s4,s4,-1024
   11662:	864e                	mv	a2,s3
   11664:	8556                	mv	a0,s5
   11666:	02090a63          	beqz	s2,1169a <__sfvwrite_r+0x7e>
   1166a:	86ca                	mv	a3,s2
   1166c:	012a7363          	bgeu	s4,s2,11672 <__sfvwrite_r+0x56>
   11670:	86d2                	mv	a3,s4
   11672:	2681                	sext.w	a3,a3
   11674:	9782                	jalr	a5
   11676:	2ea05863          	blez	a0,11966 <__sfvwrite_r+0x34a>
   1167a:	010bb783          	ld	a5,16(s7)
   1167e:	99aa                	add	s3,s3,a0
   11680:	40a90933          	sub	s2,s2,a0
   11684:	8f89                	sub	a5,a5,a0
   11686:	00fbb823          	sd	a5,16(s7)
   1168a:	12078163          	beqz	a5,117ac <__sfvwrite_r+0x190>
   1168e:	603c                	ld	a5,64(s0)
   11690:	780c                	ld	a1,48(s0)
   11692:	864e                	mv	a2,s3
   11694:	8556                	mv	a0,s5
   11696:	fc091ae3          	bnez	s2,1166a <__sfvwrite_r+0x4e>
   1169a:	0004b983          	ld	s3,0(s1)
   1169e:	0084b903          	ld	s2,8(s1)
   116a2:	04c1                	addi	s1,s1,16
   116a4:	bf7d                	j	11662 <__sfvwrite_r+0x46>
   116a6:	85a2                	mv	a1,s0
   116a8:	8556                	mv	a0,s5
   116aa:	2d4000ef          	jal	1197e <__swsetup_r>
   116ae:	12051c63          	bnez	a0,117e6 <__sfvwrite_r+0x1ca>
   116b2:	01041703          	lh	a4,16(s0)
   116b6:	e4a6                	sd	s1,72(sp)
   116b8:	e0ca                	sd	s2,64(sp)
   116ba:	fc4e                	sd	s3,56(sp)
   116bc:	f852                	sd	s4,48(sp)
   116be:	00277793          	andi	a5,a4,2
   116c2:	000bb483          	ld	s1,0(s7)
   116c6:	f7d1                	bnez	a5,11652 <__sfvwrite_r+0x36>
   116c8:	f05a                	sd	s6,32(sp)
   116ca:	e862                	sd	s8,16(sp)
   116cc:	e466                	sd	s9,8(sp)
   116ce:	00177793          	andi	a5,a4,1
   116d2:	ebad                	bnez	a5,11744 <__sfvwrite_r+0x128>
   116d4:	00c42a03          	lw	s4,12(s0)
   116d8:	601c                	ld	a5,0(s0)
   116da:	80000b37          	lui	s6,0x80000
   116de:	4c01                	li	s8,0
   116e0:	4901                	li	s2,0
   116e2:	fffb4b13          	not	s6,s6
   116e6:	853e                	mv	a0,a5
   116e8:	04090863          	beqz	s2,11738 <__sfvwrite_r+0x11c>
   116ec:	20077693          	andi	a3,a4,512
   116f0:	14068663          	beqz	a3,1183c <__sfvwrite_r+0x220>
   116f4:	1b497563          	bgeu	s2,s4,1189e <__sfvwrite_r+0x282>
   116f8:	8cca                	mv	s9,s2
   116fa:	8a4a                	mv	s4,s2
   116fc:	8652                	mv	a2,s4
   116fe:	85e2                	mv	a1,s8
   11700:	470000ef          	jal	11b70 <memmove>
   11704:	4458                	lw	a4,12(s0)
   11706:	601c                	ld	a5,0(s0)
   11708:	89ca                	mv	s3,s2
   1170a:	4197073b          	subw	a4,a4,s9
   1170e:	9a3e                	add	s4,s4,a5
   11710:	c458                	sw	a4,12(s0)
   11712:	01443023          	sd	s4,0(s0)
   11716:	4901                	li	s2,0
   11718:	010bb783          	ld	a5,16(s7)
   1171c:	9c4e                	add	s8,s8,s3
   1171e:	413787b3          	sub	a5,a5,s3
   11722:	00fbb823          	sd	a5,16(s7)
   11726:	c3c1                	beqz	a5,117a6 <__sfvwrite_r+0x18a>
   11728:	601c                	ld	a5,0(s0)
   1172a:	01041703          	lh	a4,16(s0)
   1172e:	00c42a03          	lw	s4,12(s0)
   11732:	853e                	mv	a0,a5
   11734:	fa091ce3          	bnez	s2,116ec <__sfvwrite_r+0xd0>
   11738:	0004bc03          	ld	s8,0(s1)
   1173c:	0084b903          	ld	s2,8(s1)
   11740:	04c1                	addi	s1,s1,16
   11742:	b755                	j	116e6 <__sfvwrite_r+0xca>
   11744:	4b01                	li	s6,0
   11746:	4501                	li	a0,0
   11748:	4c81                	li	s9,0
   1174a:	4c01                	li	s8,0
   1174c:	0a0c0663          	beqz	s8,117f8 <__sfvwrite_r+0x1dc>
   11750:	cd45                	beqz	a0,11808 <__sfvwrite_r+0x1ec>
   11752:	8a5a                	mv	s4,s6
   11754:	016c7363          	bgeu	s8,s6,1175a <__sfvwrite_r+0x13e>
   11758:	8a62                	mv	s4,s8
   1175a:	6008                	ld	a0,0(s0)
   1175c:	6c18                	ld	a4,24(s0)
   1175e:	445c                	lw	a5,12(s0)
   11760:	5014                	lw	a3,32(s0)
   11762:	8952                	mv	s2,s4
   11764:	00a77663          	bgeu	a4,a0,11770 <__sfvwrite_r+0x154>
   11768:	00d789bb          	addw	s3,a5,a3
   1176c:	0b49c963          	blt	s3,s4,1181e <__sfvwrite_r+0x202>
   11770:	1ada4363          	blt	s4,a3,11916 <__sfvwrite_r+0x2fa>
   11774:	603c                	ld	a5,64(s0)
   11776:	780c                	ld	a1,48(s0)
   11778:	8666                	mv	a2,s9
   1177a:	8556                	mv	a0,s5
   1177c:	9782                	jalr	a5
   1177e:	892a                	mv	s2,a0
   11780:	04a05663          	blez	a0,117cc <__sfvwrite_r+0x1b0>
   11784:	0005079b          	sext.w	a5,a0
   11788:	40fb0b3b          	subw	s6,s6,a5
   1178c:	4505                	li	a0,1
   1178e:	020b0a63          	beqz	s6,117c2 <__sfvwrite_r+0x1a6>
   11792:	010bb783          	ld	a5,16(s7)
   11796:	9cca                	add	s9,s9,s2
   11798:	412c0c33          	sub	s8,s8,s2
   1179c:	412787b3          	sub	a5,a5,s2
   117a0:	00fbb823          	sd	a5,16(s7)
   117a4:	f7c5                	bnez	a5,1174c <__sfvwrite_r+0x130>
   117a6:	7b02                	ld	s6,32(sp)
   117a8:	6c42                	ld	s8,16(sp)
   117aa:	6ca2                	ld	s9,8(sp)
   117ac:	60e6                	ld	ra,88(sp)
   117ae:	6446                	ld	s0,80(sp)
   117b0:	64a6                	ld	s1,72(sp)
   117b2:	6906                	ld	s2,64(sp)
   117b4:	79e2                	ld	s3,56(sp)
   117b6:	7a42                	ld	s4,48(sp)
   117b8:	7aa2                	ld	s5,40(sp)
   117ba:	6be2                	ld	s7,24(sp)
   117bc:	4501                	li	a0,0
   117be:	6125                	addi	sp,sp,96
   117c0:	8082                	ret
   117c2:	85a2                	mv	a1,s0
   117c4:	8556                	mv	a0,s5
   117c6:	dd1ff0ef          	jal	11596 <_fflush_r>
   117ca:	d561                	beqz	a0,11792 <__sfvwrite_r+0x176>
   117cc:	01041783          	lh	a5,16(s0)
   117d0:	7b02                	ld	s6,32(sp)
   117d2:	6c42                	ld	s8,16(sp)
   117d4:	6ca2                	ld	s9,8(sp)
   117d6:	64a6                	ld	s1,72(sp)
   117d8:	6906                	ld	s2,64(sp)
   117da:	79e2                	ld	s3,56(sp)
   117dc:	7a42                	ld	s4,48(sp)
   117de:	0407e793          	ori	a5,a5,64
   117e2:	00f41823          	sh	a5,16(s0)
   117e6:	60e6                	ld	ra,88(sp)
   117e8:	6446                	ld	s0,80(sp)
   117ea:	7aa2                	ld	s5,40(sp)
   117ec:	6be2                	ld	s7,24(sp)
   117ee:	557d                	li	a0,-1
   117f0:	6125                	addi	sp,sp,96
   117f2:	8082                	ret
   117f4:	4501                	li	a0,0
   117f6:	8082                	ret
   117f8:	0084bc03          	ld	s8,8(s1)
   117fc:	87a6                	mv	a5,s1
   117fe:	04c1                	addi	s1,s1,16
   11800:	fe0c0ce3          	beqz	s8,117f8 <__sfvwrite_r+0x1dc>
   11804:	0007bc83          	ld	s9,0(a5)
   11808:	8662                	mv	a2,s8
   1180a:	45a9                	li	a1,10
   1180c:	8566                	mv	a0,s9
   1180e:	24a000ef          	jal	11a58 <memchr>
   11812:	14050763          	beqz	a0,11960 <__sfvwrite_r+0x344>
   11816:	0505                	addi	a0,a0,1
   11818:	41950b3b          	subw	s6,a0,s9
   1181c:	bf1d                	j	11752 <__sfvwrite_r+0x136>
   1181e:	85e6                	mv	a1,s9
   11820:	864e                	mv	a2,s3
   11822:	34e000ef          	jal	11b70 <memmove>
   11826:	601c                	ld	a5,0(s0)
   11828:	85a2                	mv	a1,s0
   1182a:	8556                	mv	a0,s5
   1182c:	97ce                	add	a5,a5,s3
   1182e:	e01c                	sd	a5,0(s0)
   11830:	d67ff0ef          	jal	11596 <_fflush_r>
   11834:	fd41                	bnez	a0,117cc <__sfvwrite_r+0x1b0>
   11836:	87ce                	mv	a5,s3
   11838:	894e                	mv	s2,s3
   1183a:	b7b9                	j	11788 <__sfvwrite_r+0x16c>
   1183c:	6c18                	ld	a4,24(s0)
   1183e:	02f76763          	bltu	a4,a5,1186c <__sfvwrite_r+0x250>
   11842:	5018                	lw	a4,32(s0)
   11844:	02e96463          	bltu	s2,a4,1186c <__sfvwrite_r+0x250>
   11848:	86ca                	mv	a3,s2
   1184a:	012b7363          	bgeu	s6,s2,11850 <__sfvwrite_r+0x234>
   1184e:	86da                	mv	a3,s6
   11850:	02e6e73b          	remw	a4,a3,a4
   11854:	603c                	ld	a5,64(s0)
   11856:	780c                	ld	a1,48(s0)
   11858:	8662                	mv	a2,s8
   1185a:	8556                	mv	a0,s5
   1185c:	9e99                	subw	a3,a3,a4
   1185e:	9782                	jalr	a5
   11860:	89aa                	mv	s3,a0
   11862:	f6a055e3          	blez	a0,117cc <__sfvwrite_r+0x1b0>
   11866:	41390933          	sub	s2,s2,s3
   1186a:	b57d                	j	11718 <__sfvwrite_r+0xfc>
   1186c:	89d2                	mv	s3,s4
   1186e:	01497363          	bgeu	s2,s4,11874 <__sfvwrite_r+0x258>
   11872:	89ca                	mv	s3,s2
   11874:	853e                	mv	a0,a5
   11876:	864e                	mv	a2,s3
   11878:	85e2                	mv	a1,s8
   1187a:	2f6000ef          	jal	11b70 <memmove>
   1187e:	4458                	lw	a4,12(s0)
   11880:	601c                	ld	a5,0(s0)
   11882:	413706bb          	subw	a3,a4,s3
   11886:	97ce                	add	a5,a5,s3
   11888:	c454                	sw	a3,12(s0)
   1188a:	e01c                	sd	a5,0(s0)
   1188c:	fee9                	bnez	a3,11866 <__sfvwrite_r+0x24a>
   1188e:	85a2                	mv	a1,s0
   11890:	8556                	mv	a0,s5
   11892:	d05ff0ef          	jal	11596 <_fflush_r>
   11896:	f91d                	bnez	a0,117cc <__sfvwrite_r+0x1b0>
   11898:	41390933          	sub	s2,s2,s3
   1189c:	bdb5                	j	11718 <__sfvwrite_r+0xfc>
   1189e:	48077693          	andi	a3,a4,1152
   118a2:	cac1                	beqz	a3,11932 <__sfvwrite_r+0x316>
   118a4:	5010                	lw	a2,32(s0)
   118a6:	6c0c                	ld	a1,24(s0)
   118a8:	0016169b          	slliw	a3,a2,0x1
   118ac:	9eb1                	addw	a3,a3,a2
   118ae:	8f8d                	sub	a5,a5,a1
   118b0:	01f6d99b          	srliw	s3,a3,0x1f
   118b4:	00078c9b          	sext.w	s9,a5
   118b8:	00d989bb          	addw	s3,s3,a3
   118bc:	001c8693          	addi	a3,s9,1
   118c0:	4019d99b          	sraiw	s3,s3,0x1
   118c4:	96ca                	add	a3,a3,s2
   118c6:	00d9f663          	bgeu	s3,a3,118d2 <__sfvwrite_r+0x2b6>
   118ca:	0017869b          	addiw	a3,a5,1
   118ce:	012689bb          	addw	s3,a3,s2
   118d2:	40077713          	andi	a4,a4,1024
   118d6:	c325                	beqz	a4,11936 <__sfvwrite_r+0x31a>
   118d8:	85ce                	mv	a1,s3
   118da:	8556                	mv	a0,s5
   118dc:	c6cff0ef          	jal	10d48 <_malloc_r>
   118e0:	8a2a                	mv	s4,a0
   118e2:	c549                	beqz	a0,1196c <__sfvwrite_r+0x350>
   118e4:	6c0c                	ld	a1,24(s0)
   118e6:	8666                	mv	a2,s9
   118e8:	35a000ef          	jal	11c42 <memcpy>
   118ec:	01045783          	lhu	a5,16(s0)
   118f0:	b7f7f793          	andi	a5,a5,-1153
   118f4:	0807e793          	ori	a5,a5,128
   118f8:	00f41823          	sh	a5,16(s0)
   118fc:	019a0533          	add	a0,s4,s9
   11900:	419987bb          	subw	a5,s3,s9
   11904:	01443c23          	sd	s4,24(s0)
   11908:	e008                	sd	a0,0(s0)
   1190a:	03342023          	sw	s3,32(s0)
   1190e:	8cca                	mv	s9,s2
   11910:	c45c                	sw	a5,12(s0)
   11912:	8a4a                	mv	s4,s2
   11914:	b3e5                	j	116fc <__sfvwrite_r+0xe0>
   11916:	8652                	mv	a2,s4
   11918:	85e6                	mv	a1,s9
   1191a:	256000ef          	jal	11b70 <memmove>
   1191e:	4454                	lw	a3,12(s0)
   11920:	6018                	ld	a4,0(s0)
   11922:	000a079b          	sext.w	a5,s4
   11926:	414686bb          	subw	a3,a3,s4
   1192a:	9752                	add	a4,a4,s4
   1192c:	c454                	sw	a3,12(s0)
   1192e:	e018                	sd	a4,0(s0)
   11930:	bda1                	j	11788 <__sfvwrite_r+0x16c>
   11932:	8cd2                	mv	s9,s4
   11934:	b3e1                	j	116fc <__sfvwrite_r+0xe0>
   11936:	864e                	mv	a2,s3
   11938:	8556                	mv	a0,s5
   1193a:	4c4000ef          	jal	11dfe <_realloc_r>
   1193e:	8a2a                	mv	s4,a0
   11940:	fd55                	bnez	a0,118fc <__sfvwrite_r+0x2e0>
   11942:	6c0c                	ld	a1,24(s0)
   11944:	8556                	mv	a0,s5
   11946:	9beff0ef          	jal	10b04 <_free_r>
   1194a:	01041783          	lh	a5,16(s0)
   1194e:	4731                	li	a4,12
   11950:	7b02                	ld	s6,32(sp)
   11952:	6c42                	ld	s8,16(sp)
   11954:	6ca2                	ld	s9,8(sp)
   11956:	00eaa023          	sw	a4,0(s5)
   1195a:	f7f7f793          	andi	a5,a5,-129
   1195e:	bda5                	j	117d6 <__sfvwrite_r+0x1ba>
   11960:	001c0b1b          	addiw	s6,s8,1
   11964:	b3fd                	j	11752 <__sfvwrite_r+0x136>
   11966:	01041783          	lh	a5,16(s0)
   1196a:	b5b5                	j	117d6 <__sfvwrite_r+0x1ba>
   1196c:	4731                	li	a4,12
   1196e:	01041783          	lh	a5,16(s0)
   11972:	7b02                	ld	s6,32(sp)
   11974:	6c42                	ld	s8,16(sp)
   11976:	6ca2                	ld	s9,8(sp)
   11978:	00eaa023          	sw	a4,0(s5)
   1197c:	bda9                	j	117d6 <__sfvwrite_r+0x1ba>

000000000001197e <__swsetup_r>:
   1197e:	1881b783          	ld	a5,392(gp) # 139a8 <_impure_ptr>
   11982:	1101                	addi	sp,sp,-32
   11984:	e822                	sd	s0,16(sp)
   11986:	e426                	sd	s1,8(sp)
   11988:	ec06                	sd	ra,24(sp)
   1198a:	84aa                	mv	s1,a0
   1198c:	842e                	mv	s0,a1
   1198e:	c399                	beqz	a5,11994 <__swsetup_r+0x16>
   11990:	67b8                	ld	a4,72(a5)
   11992:	c75d                	beqz	a4,11a40 <__swsetup_r+0xc2>
   11994:	01041783          	lh	a5,16(s0)
   11998:	0087f713          	andi	a4,a5,8
   1199c:	c721                	beqz	a4,119e4 <__swsetup_r+0x66>
   1199e:	6c18                	ld	a4,24(s0)
   119a0:	cf31                	beqz	a4,119fc <__swsetup_r+0x7e>
   119a2:	0017f693          	andi	a3,a5,1
   119a6:	ce91                	beqz	a3,119c2 <__swsetup_r+0x44>
   119a8:	5014                	lw	a3,32(s0)
   119aa:	00042623          	sw	zero,12(s0)
   119ae:	4501                	li	a0,0
   119b0:	40d006bb          	negw	a3,a3
   119b4:	d414                	sw	a3,40(s0)
   119b6:	cf11                	beqz	a4,119d2 <__swsetup_r+0x54>
   119b8:	60e2                	ld	ra,24(sp)
   119ba:	6442                	ld	s0,16(sp)
   119bc:	64a2                	ld	s1,8(sp)
   119be:	6105                	addi	sp,sp,32
   119c0:	8082                	ret
   119c2:	0027f693          	andi	a3,a5,2
   119c6:	4601                	li	a2,0
   119c8:	e291                	bnez	a3,119cc <__swsetup_r+0x4e>
   119ca:	5010                	lw	a2,32(s0)
   119cc:	c450                	sw	a2,12(s0)
   119ce:	4501                	li	a0,0
   119d0:	f765                	bnez	a4,119b8 <__swsetup_r+0x3a>
   119d2:	0807f713          	andi	a4,a5,128
   119d6:	d36d                	beqz	a4,119b8 <__swsetup_r+0x3a>
   119d8:	0407e793          	ori	a5,a5,64
   119dc:	00f41823          	sh	a5,16(s0)
   119e0:	557d                	li	a0,-1
   119e2:	bfd9                	j	119b8 <__swsetup_r+0x3a>
   119e4:	0107f713          	andi	a4,a5,16
   119e8:	c325                	beqz	a4,11a48 <__swsetup_r+0xca>
   119ea:	0047f713          	andi	a4,a5,4
   119ee:	e70d                	bnez	a4,11a18 <__swsetup_r+0x9a>
   119f0:	6c18                	ld	a4,24(s0)
   119f2:	0087e793          	ori	a5,a5,8
   119f6:	00f41823          	sh	a5,16(s0)
   119fa:	f745                	bnez	a4,119a2 <__swsetup_r+0x24>
   119fc:	2807f693          	andi	a3,a5,640
   11a00:	20000613          	li	a2,512
   11a04:	f8c68fe3          	beq	a3,a2,119a2 <__swsetup_r+0x24>
   11a08:	85a2                	mv	a1,s0
   11a0a:	8526                	mv	a0,s1
   11a0c:	7ea000ef          	jal	121f6 <__smakebuf_r>
   11a10:	01041783          	lh	a5,16(s0)
   11a14:	6c18                	ld	a4,24(s0)
   11a16:	b771                	j	119a2 <__swsetup_r+0x24>
   11a18:	6c2c                	ld	a1,88(s0)
   11a1a:	cd81                	beqz	a1,11a32 <__swsetup_r+0xb4>
   11a1c:	07440713          	addi	a4,s0,116
   11a20:	00e58763          	beq	a1,a4,11a2e <__swsetup_r+0xb0>
   11a24:	8526                	mv	a0,s1
   11a26:	8deff0ef          	jal	10b04 <_free_r>
   11a2a:	01041783          	lh	a5,16(s0)
   11a2e:	04043c23          	sd	zero,88(s0)
   11a32:	6c18                	ld	a4,24(s0)
   11a34:	fdb7f793          	andi	a5,a5,-37
   11a38:	00042423          	sw	zero,8(s0)
   11a3c:	e018                	sd	a4,0(s0)
   11a3e:	bf55                	j	119f2 <__swsetup_r+0x74>
   11a40:	853e                	mv	a0,a5
   11a42:	9c1fe0ef          	jal	10402 <__sinit>
   11a46:	b7b9                	j	11994 <__swsetup_r+0x16>
   11a48:	4725                	li	a4,9
   11a4a:	c098                	sw	a4,0(s1)
   11a4c:	0407e793          	ori	a5,a5,64
   11a50:	00f41823          	sh	a5,16(s0)
   11a54:	557d                	li	a0,-1
   11a56:	b78d                	j	119b8 <__swsetup_r+0x3a>

0000000000011a58 <memchr>:
   11a58:	00757793          	andi	a5,a0,7
   11a5c:	0ff5f693          	zext.b	a3,a1
   11a60:	c395                	beqz	a5,11a84 <memchr+0x2c>
   11a62:	fff60793          	addi	a5,a2,-1
   11a66:	c605                	beqz	a2,11a8e <memchr+0x36>
   11a68:	567d                	li	a2,-1
   11a6a:	a801                	j	11a7a <memchr+0x22>
   11a6c:	0505                	addi	a0,a0,1
   11a6e:	00757713          	andi	a4,a0,7
   11a72:	cb11                	beqz	a4,11a86 <memchr+0x2e>
   11a74:	17fd                	addi	a5,a5,-1
   11a76:	00c78c63          	beq	a5,a2,11a8e <memchr+0x36>
   11a7a:	00054703          	lbu	a4,0(a0)
   11a7e:	fed717e3          	bne	a4,a3,11a6c <memchr+0x14>
   11a82:	8082                	ret
   11a84:	87b2                	mv	a5,a2
   11a86:	471d                	li	a4,7
   11a88:	00f76563          	bltu	a4,a5,11a92 <memchr+0x3a>
   11a8c:	e3bd                	bnez	a5,11af2 <memchr+0x9a>
   11a8e:	4501                	li	a0,0
   11a90:	8082                	ret
   11a92:	0ff5f593          	zext.b	a1,a1
   11a96:	f0101837          	lui	a6,0xf0101
   11a9a:	00859713          	slli	a4,a1,0x8
   11a9e:	feff08b7          	lui	a7,0xfeff0
   11aa2:	0812                	slli	a6,a6,0x4
   11aa4:	972e                	add	a4,a4,a1
   11aa6:	eff88893          	addi	a7,a7,-257 # fffffffffefefeff <__BSS_END__+0xfffffffffefdbf7f>
   11aaa:	10180813          	addi	a6,a6,257 # fffffffff0101101 <__BSS_END__+0xfffffffff00ed181>
   11aae:	01071593          	slli	a1,a4,0x10
   11ab2:	08c2                	slli	a7,a7,0x10
   11ab4:	0842                	slli	a6,a6,0x10
   11ab6:	95ba                	add	a1,a1,a4
   11ab8:	eff88893          	addi	a7,a7,-257
   11abc:	10180813          	addi	a6,a6,257
   11ac0:	02059713          	slli	a4,a1,0x20
   11ac4:	08c2                	slli	a7,a7,0x10
   11ac6:	083e                	slli	a6,a6,0xf
   11ac8:	95ba                	add	a1,a1,a4
   11aca:	eff88893          	addi	a7,a7,-257
   11ace:	08080813          	addi	a6,a6,128
   11ad2:	431d                	li	t1,7
   11ad4:	a029                	j	11ade <memchr+0x86>
   11ad6:	17e1                	addi	a5,a5,-8
   11ad8:	0521                	addi	a0,a0,8
   11ada:	faf379e3          	bgeu	t1,a5,11a8c <memchr+0x34>
   11ade:	6118                	ld	a4,0(a0)
   11ae0:	8f2d                	xor	a4,a4,a1
   11ae2:	01170633          	add	a2,a4,a7
   11ae6:	fff74713          	not	a4,a4
   11aea:	8f71                	and	a4,a4,a2
   11aec:	01077733          	and	a4,a4,a6
   11af0:	d37d                	beqz	a4,11ad6 <memchr+0x7e>
   11af2:	97aa                	add	a5,a5,a0
   11af4:	a021                	j	11afc <memchr+0xa4>
   11af6:	0505                	addi	a0,a0,1
   11af8:	f8a78be3          	beq	a5,a0,11a8e <memchr+0x36>
   11afc:	00054703          	lbu	a4,0(a0)
   11b00:	fed71be3          	bne	a4,a3,11af6 <memchr+0x9e>
   11b04:	8082                	ret

0000000000011b06 <_sbrk_r>:
   11b06:	1101                	addi	sp,sp,-32
   11b08:	e822                	sd	s0,16(sp)
   11b0a:	e426                	sd	s1,8(sp)
   11b0c:	842a                	mv	s0,a0
   11b0e:	852e                	mv	a0,a1
   11b10:	ec06                	sd	ra,24(sp)
   11b12:	1a01a423          	sw	zero,424(gp) # 139c8 <errno>
   11b16:	1fb000ef          	jal	12510 <_sbrk>
   11b1a:	57fd                	li	a5,-1
   11b1c:	00f50763          	beq	a0,a5,11b2a <_sbrk_r+0x24>
   11b20:	60e2                	ld	ra,24(sp)
   11b22:	6442                	ld	s0,16(sp)
   11b24:	64a2                	ld	s1,8(sp)
   11b26:	6105                	addi	sp,sp,32
   11b28:	8082                	ret
   11b2a:	1a81a783          	lw	a5,424(gp) # 139c8 <errno>
   11b2e:	dbed                	beqz	a5,11b20 <_sbrk_r+0x1a>
   11b30:	60e2                	ld	ra,24(sp)
   11b32:	c01c                	sw	a5,0(s0)
   11b34:	6442                	ld	s0,16(sp)
   11b36:	64a2                	ld	s1,8(sp)
   11b38:	6105                	addi	sp,sp,32
   11b3a:	8082                	ret

0000000000011b3c <__libc_fini_array>:
   11b3c:	1101                	addi	sp,sp,-32
   11b3e:	e822                	sd	s0,16(sp)
   11b40:	67cd                	lui	a5,0x13
   11b42:	644d                	lui	s0,0x13
   11b44:	01878793          	addi	a5,a5,24 # 13018 <__do_global_dtors_aux_fini_array_entry>
   11b48:	02040413          	addi	s0,s0,32 # 13020 <__sglue>
   11b4c:	8c1d                	sub	s0,s0,a5
   11b4e:	e426                	sd	s1,8(sp)
   11b50:	ec06                	sd	ra,24(sp)
   11b52:	40345493          	srai	s1,s0,0x3
   11b56:	c881                	beqz	s1,11b66 <__libc_fini_array+0x2a>
   11b58:	1461                	addi	s0,s0,-8
   11b5a:	943e                	add	s0,s0,a5
   11b5c:	601c                	ld	a5,0(s0)
   11b5e:	14fd                	addi	s1,s1,-1
   11b60:	1461                	addi	s0,s0,-8
   11b62:	9782                	jalr	a5
   11b64:	fce5                	bnez	s1,11b5c <__libc_fini_array+0x20>
   11b66:	60e2                	ld	ra,24(sp)
   11b68:	6442                	ld	s0,16(sp)
   11b6a:	64a2                	ld	s1,8(sp)
   11b6c:	6105                	addi	sp,sp,32
   11b6e:	8082                	ret

0000000000011b70 <memmove>:
   11b70:	02a5f263          	bgeu	a1,a0,11b94 <memmove+0x24>
   11b74:	00c58733          	add	a4,a1,a2
   11b78:	00e57e63          	bgeu	a0,a4,11b94 <memmove+0x24>
   11b7c:	00c507b3          	add	a5,a0,a2
   11b80:	ca1d                	beqz	a2,11bb6 <memmove+0x46>
   11b82:	fff74683          	lbu	a3,-1(a4)
   11b86:	17fd                	addi	a5,a5,-1
   11b88:	177d                	addi	a4,a4,-1
   11b8a:	00d78023          	sb	a3,0(a5)
   11b8e:	fef51ae3          	bne	a0,a5,11b82 <memmove+0x12>
   11b92:	8082                	ret
   11b94:	47fd                	li	a5,31
   11b96:	02c7e163          	bltu	a5,a2,11bb8 <memmove+0x48>
   11b9a:	87aa                	mv	a5,a0
   11b9c:	fff60693          	addi	a3,a2,-1
   11ba0:	ce51                	beqz	a2,11c3c <memmove+0xcc>
   11ba2:	0685                	addi	a3,a3,1
   11ba4:	96be                	add	a3,a3,a5
   11ba6:	0005c703          	lbu	a4,0(a1)
   11baa:	0785                	addi	a5,a5,1
   11bac:	0585                	addi	a1,a1,1
   11bae:	fee78fa3          	sb	a4,-1(a5)
   11bb2:	fed79ae3          	bne	a5,a3,11ba6 <memmove+0x36>
   11bb6:	8082                	ret
   11bb8:	00b567b3          	or	a5,a0,a1
   11bbc:	8b9d                	andi	a5,a5,7
   11bbe:	ebbd                	bnez	a5,11c34 <memmove+0xc4>
   11bc0:	fe060893          	addi	a7,a2,-32
   11bc4:	fe08f893          	andi	a7,a7,-32
   11bc8:	02088893          	addi	a7,a7,32
   11bcc:	011506b3          	add	a3,a0,a7
   11bd0:	872e                	mv	a4,a1
   11bd2:	87aa                	mv	a5,a0
   11bd4:	00073803          	ld	a6,0(a4)
   11bd8:	02070713          	addi	a4,a4,32
   11bdc:	02078793          	addi	a5,a5,32
   11be0:	ff07b023          	sd	a6,-32(a5)
   11be4:	fe873803          	ld	a6,-24(a4)
   11be8:	ff07b423          	sd	a6,-24(a5)
   11bec:	ff073803          	ld	a6,-16(a4)
   11bf0:	ff07b823          	sd	a6,-16(a5)
   11bf4:	ff873803          	ld	a6,-8(a4)
   11bf8:	ff07bc23          	sd	a6,-8(a5)
   11bfc:	fcd79ce3          	bne	a5,a3,11bd4 <memmove+0x64>
   11c00:	01867813          	andi	a6,a2,24
   11c04:	95c6                	add	a1,a1,a7
   11c06:	01f67713          	andi	a4,a2,31
   11c0a:	02080a63          	beqz	a6,11c3e <memmove+0xce>
   11c0e:	ff870813          	addi	a6,a4,-8
   11c12:	ff887813          	andi	a6,a6,-8
   11c16:	0821                	addi	a6,a6,8
   11c18:	010687b3          	add	a5,a3,a6
   11c1c:	872e                	mv	a4,a1
   11c1e:	00073883          	ld	a7,0(a4)
   11c22:	06a1                	addi	a3,a3,8
   11c24:	0721                	addi	a4,a4,8
   11c26:	ff16bc23          	sd	a7,-8(a3)
   11c2a:	fef69ae3          	bne	a3,a5,11c1e <memmove+0xae>
   11c2e:	8a1d                	andi	a2,a2,7
   11c30:	95c2                	add	a1,a1,a6
   11c32:	b7ad                	j	11b9c <memmove+0x2c>
   11c34:	fff60693          	addi	a3,a2,-1
   11c38:	87aa                	mv	a5,a0
   11c3a:	b7a5                	j	11ba2 <memmove+0x32>
   11c3c:	8082                	ret
   11c3e:	863a                	mv	a2,a4
   11c40:	bfb1                	j	11b9c <memmove+0x2c>

0000000000011c42 <memcpy>:
   11c42:	00a5c7b3          	xor	a5,a1,a0
   11c46:	8b9d                	andi	a5,a5,7
   11c48:	00c508b3          	add	a7,a0,a2
   11c4c:	e7b1                	bnez	a5,11c98 <memcpy+0x56>
   11c4e:	479d                	li	a5,7
   11c50:	04c7f463          	bgeu	a5,a2,11c98 <memcpy+0x56>
   11c54:	00757793          	andi	a5,a0,7
   11c58:	872a                	mv	a4,a0
   11c5a:	ebb9                	bnez	a5,11cb0 <memcpy+0x6e>
   11c5c:	ff88f613          	andi	a2,a7,-8
   11c60:	40e606b3          	sub	a3,a2,a4
   11c64:	04000793          	li	a5,64
   11c68:	06d7c863          	blt	a5,a3,11cd8 <memcpy+0x96>
   11c6c:	86ae                	mv	a3,a1
   11c6e:	87ba                	mv	a5,a4
   11c70:	02c77163          	bgeu	a4,a2,11c92 <memcpy+0x50>
   11c74:	0006b803          	ld	a6,0(a3)
   11c78:	07a1                	addi	a5,a5,8
   11c7a:	06a1                	addi	a3,a3,8
   11c7c:	ff07bc23          	sd	a6,-8(a5)
   11c80:	fec7eae3          	bltu	a5,a2,11c74 <memcpy+0x32>
   11c84:	fff60793          	addi	a5,a2,-1
   11c88:	8f99                	sub	a5,a5,a4
   11c8a:	9be1                	andi	a5,a5,-8
   11c8c:	07a1                	addi	a5,a5,8
   11c8e:	973e                	add	a4,a4,a5
   11c90:	95be                	add	a1,a1,a5
   11c92:	01176663          	bltu	a4,a7,11c9e <memcpy+0x5c>
   11c96:	8082                	ret
   11c98:	872a                	mv	a4,a0
   11c9a:	03157e63          	bgeu	a0,a7,11cd6 <memcpy+0x94>
   11c9e:	0005c783          	lbu	a5,0(a1)
   11ca2:	0705                	addi	a4,a4,1
   11ca4:	0585                	addi	a1,a1,1
   11ca6:	fef70fa3          	sb	a5,-1(a4)
   11caa:	fee89ae3          	bne	a7,a4,11c9e <memcpy+0x5c>
   11cae:	8082                	ret
   11cb0:	0005c683          	lbu	a3,0(a1)
   11cb4:	0705                	addi	a4,a4,1
   11cb6:	00777793          	andi	a5,a4,7
   11cba:	fed70fa3          	sb	a3,-1(a4)
   11cbe:	0585                	addi	a1,a1,1
   11cc0:	dfd1                	beqz	a5,11c5c <memcpy+0x1a>
   11cc2:	0005c683          	lbu	a3,0(a1)
   11cc6:	0705                	addi	a4,a4,1
   11cc8:	00777793          	andi	a5,a4,7
   11ccc:	fed70fa3          	sb	a3,-1(a4)
   11cd0:	0585                	addi	a1,a1,1
   11cd2:	fff9                	bnez	a5,11cb0 <memcpy+0x6e>
   11cd4:	b761                	j	11c5c <memcpy+0x1a>
   11cd6:	8082                	ret
   11cd8:	1141                	addi	sp,sp,-16
   11cda:	e422                	sd	s0,8(sp)
   11cdc:	04000413          	li	s0,64
   11ce0:	0005b383          	ld	t2,0(a1)
   11ce4:	0085b283          	ld	t0,8(a1)
   11ce8:	0105bf83          	ld	t6,16(a1)
   11cec:	0185bf03          	ld	t5,24(a1)
   11cf0:	0205be83          	ld	t4,32(a1)
   11cf4:	0285be03          	ld	t3,40(a1)
   11cf8:	0305b303          	ld	t1,48(a1)
   11cfc:	0385b803          	ld	a6,56(a1)
   11d00:	61b4                	ld	a3,64(a1)
   11d02:	04870713          	addi	a4,a4,72
   11d06:	40e607b3          	sub	a5,a2,a4
   11d0a:	fa773c23          	sd	t2,-72(a4)
   11d0e:	fc573023          	sd	t0,-64(a4)
   11d12:	fdf73423          	sd	t6,-56(a4)
   11d16:	fde73823          	sd	t5,-48(a4)
   11d1a:	fdd73c23          	sd	t4,-40(a4)
   11d1e:	ffc73023          	sd	t3,-32(a4)
   11d22:	fe673423          	sd	t1,-24(a4)
   11d26:	ff073823          	sd	a6,-16(a4)
   11d2a:	fed73c23          	sd	a3,-8(a4)
   11d2e:	04858593          	addi	a1,a1,72
   11d32:	faf447e3          	blt	s0,a5,11ce0 <memcpy+0x9e>
   11d36:	86ae                	mv	a3,a1
   11d38:	87ba                	mv	a5,a4
   11d3a:	02c77163          	bgeu	a4,a2,11d5c <memcpy+0x11a>
   11d3e:	0006b803          	ld	a6,0(a3)
   11d42:	07a1                	addi	a5,a5,8
   11d44:	06a1                	addi	a3,a3,8
   11d46:	ff07bc23          	sd	a6,-8(a5)
   11d4a:	fec7eae3          	bltu	a5,a2,11d3e <memcpy+0xfc>
   11d4e:	fff60793          	addi	a5,a2,-1
   11d52:	8f99                	sub	a5,a5,a4
   11d54:	9be1                	andi	a5,a5,-8
   11d56:	07a1                	addi	a5,a5,8
   11d58:	973e                	add	a4,a4,a5
   11d5a:	95be                	add	a1,a1,a5
   11d5c:	01176563          	bltu	a4,a7,11d66 <memcpy+0x124>
   11d60:	6422                	ld	s0,8(sp)
   11d62:	0141                	addi	sp,sp,16
   11d64:	8082                	ret
   11d66:	0005c783          	lbu	a5,0(a1)
   11d6a:	0705                	addi	a4,a4,1
   11d6c:	0585                	addi	a1,a1,1
   11d6e:	fef70fa3          	sb	a5,-1(a4)
   11d72:	fee887e3          	beq	a7,a4,11d60 <memcpy+0x11e>
   11d76:	0005c783          	lbu	a5,0(a1)
   11d7a:	0705                	addi	a4,a4,1
   11d7c:	0585                	addi	a1,a1,1
   11d7e:	fef70fa3          	sb	a5,-1(a4)
   11d82:	fee892e3          	bne	a7,a4,11d66 <memcpy+0x124>
   11d86:	bfe9                	j	11d60 <memcpy+0x11e>

0000000000011d88 <__register_exitproc>:
   11d88:	1b01b783          	ld	a5,432(gp) # 139d0 <__atexit>
   11d8c:	c3b1                	beqz	a5,11dd0 <__register_exitproc+0x48>
   11d8e:	4798                	lw	a4,8(a5)
   11d90:	487d                	li	a6,31
   11d92:	06e84463          	blt	a6,a4,11dfa <__register_exitproc+0x72>
   11d96:	c505                	beqz	a0,11dbe <__register_exitproc+0x36>
   11d98:	00371813          	slli	a6,a4,0x3
   11d9c:	983e                	add	a6,a6,a5
   11d9e:	10c83823          	sd	a2,272(a6)
   11da2:	3107a883          	lw	a7,784(a5)
   11da6:	4605                	li	a2,1
   11da8:	00e6163b          	sllw	a2,a2,a4
   11dac:	00c8e8b3          	or	a7,a7,a2
   11db0:	3117a823          	sw	a7,784(a5)
   11db4:	20d83823          	sd	a3,528(a6)
   11db8:	4689                	li	a3,2
   11dba:	02d50263          	beq	a0,a3,11dde <__register_exitproc+0x56>
   11dbe:	00270693          	addi	a3,a4,2
   11dc2:	068e                	slli	a3,a3,0x3
   11dc4:	2705                	addiw	a4,a4,1
   11dc6:	c798                	sw	a4,8(a5)
   11dc8:	97b6                	add	a5,a5,a3
   11dca:	e38c                	sd	a1,0(a5)
   11dcc:	4501                	li	a0,0
   11dce:	8082                	ret
   11dd0:	44818813          	addi	a6,gp,1096 # 13c68 <__atexit0>
   11dd4:	1b01b823          	sd	a6,432(gp) # 139d0 <__atexit>
   11dd8:	44818793          	addi	a5,gp,1096 # 13c68 <__atexit0>
   11ddc:	bf4d                	j	11d8e <__register_exitproc+0x6>
   11dde:	3147a683          	lw	a3,788(a5)
   11de2:	4501                	li	a0,0
   11de4:	8ed1                	or	a3,a3,a2
   11de6:	30d7aa23          	sw	a3,788(a5)
   11dea:	00270693          	addi	a3,a4,2
   11dee:	068e                	slli	a3,a3,0x3
   11df0:	2705                	addiw	a4,a4,1
   11df2:	c798                	sw	a4,8(a5)
   11df4:	97b6                	add	a5,a5,a3
   11df6:	e38c                	sd	a1,0(a5)
   11df8:	8082                	ret
   11dfa:	557d                	li	a0,-1
   11dfc:	8082                	ret

0000000000011dfe <_realloc_r>:
   11dfe:	715d                	addi	sp,sp,-80
   11e00:	f84a                	sd	s2,48(sp)
   11e02:	e486                	sd	ra,72(sp)
   11e04:	8932                	mv	s2,a2
   11e06:	16058363          	beqz	a1,11f6c <_realloc_r+0x16e>
   11e0a:	e0a2                	sd	s0,64(sp)
   11e0c:	fc26                	sd	s1,56(sp)
   11e0e:	842e                	mv	s0,a1
   11e10:	f44e                	sd	s3,40(sp)
   11e12:	f052                	sd	s4,32(sp)
   11e14:	ec56                	sd	s5,24(sp)
   11e16:	89aa                	mv	s3,a0
   11e18:	d32ff0ef          	jal	1134a <__malloc_lock>
   11e1c:	ff843783          	ld	a5,-8(s0)
   11e20:	01790493          	addi	s1,s2,23
   11e24:	02e00713          	li	a4,46
   11e28:	ff040a93          	addi	s5,s0,-16
   11e2c:	ffc7fa13          	andi	s4,a5,-4
   11e30:	0c977363          	bgeu	a4,s1,11ef6 <_realloc_r+0xf8>
   11e34:	80000737          	lui	a4,0x80000
   11e38:	98c1                	andi	s1,s1,-16
   11e3a:	fff74713          	not	a4,a4
   11e3e:	0c976063          	bltu	a4,s1,11efe <_realloc_r+0x100>
   11e42:	0b24ee63          	bltu	s1,s2,11efe <_realloc_r+0x100>
   11e46:	0c9a5763          	bge	s4,s1,11f14 <_realloc_r+0x116>
   11e4a:	674d                	lui	a4,0x13
   11e4c:	e062                	sd	s8,0(sp)
   11e4e:	19070c13          	addi	s8,a4,400 # 13190 <__malloc_av_>
   11e52:	010c3603          	ld	a2,16(s8)
   11e56:	014a86b3          	add	a3,s5,s4
   11e5a:	6698                	ld	a4,8(a3)
   11e5c:	12d60f63          	beq	a2,a3,11f9a <_realloc_r+0x19c>
   11e60:	ffe77613          	andi	a2,a4,-2
   11e64:	9636                	add	a2,a2,a3
   11e66:	6610                	ld	a2,8(a2)
   11e68:	8a05                	andi	a2,a2,1
   11e6a:	e66d                	bnez	a2,11f54 <_realloc_r+0x156>
   11e6c:	9b71                	andi	a4,a4,-4
   11e6e:	00ea0633          	add	a2,s4,a4
   11e72:	08965b63          	bge	a2,s1,11f08 <_realloc_r+0x10a>
   11e76:	8b85                	andi	a5,a5,1
   11e78:	e78d                	bnez	a5,11ea2 <_realloc_r+0xa4>
   11e7a:	e45e                	sd	s7,8(sp)
   11e7c:	ff043b83          	ld	s7,-16(s0)
   11e80:	e85a                	sd	s6,16(sp)
   11e82:	417a8bb3          	sub	s7,s5,s7
   11e86:	008bb783          	ld	a5,8(s7)
   11e8a:	9bf1                	andi	a5,a5,-4
   11e8c:	973e                	add	a4,a4,a5
   11e8e:	01470b33          	add	s6,a4,s4
   11e92:	249b5563          	bge	s6,s1,120dc <_realloc_r+0x2de>
   11e96:	00fa0b33          	add	s6,s4,a5
   11e9a:	1c9b5763          	bge	s6,s1,12068 <_realloc_r+0x26a>
   11e9e:	6b42                	ld	s6,16(sp)
   11ea0:	6ba2                	ld	s7,8(sp)
   11ea2:	85ca                	mv	a1,s2
   11ea4:	854e                	mv	a0,s3
   11ea6:	ea3fe0ef          	jal	10d48 <_malloc_r>
   11eaa:	892a                	mv	s2,a0
   11eac:	2e050863          	beqz	a0,1219c <_realloc_r+0x39e>
   11eb0:	ff843783          	ld	a5,-8(s0)
   11eb4:	ff050713          	addi	a4,a0,-16
   11eb8:	9bf9                	andi	a5,a5,-2
   11eba:	97d6                	add	a5,a5,s5
   11ebc:	1ae78063          	beq	a5,a4,1205c <_realloc_r+0x25e>
   11ec0:	ff8a0613          	addi	a2,s4,-8 # ffffffff7ffffff8 <__BSS_END__+0xffffffff7ffec078>
   11ec4:	04800793          	li	a5,72
   11ec8:	20c7e663          	bltu	a5,a2,120d4 <_realloc_r+0x2d6>
   11ecc:	02700713          	li	a4,39
   11ed0:	16c76963          	bltu	a4,a2,12042 <_realloc_r+0x244>
   11ed4:	87aa                	mv	a5,a0
   11ed6:	8722                	mv	a4,s0
   11ed8:	6314                	ld	a3,0(a4)
   11eda:	e394                	sd	a3,0(a5)
   11edc:	6714                	ld	a3,8(a4)
   11ede:	e794                	sd	a3,8(a5)
   11ee0:	6b18                	ld	a4,16(a4)
   11ee2:	eb98                	sd	a4,16(a5)
   11ee4:	85a2                	mv	a1,s0
   11ee6:	854e                	mv	a0,s3
   11ee8:	c1dfe0ef          	jal	10b04 <_free_r>
   11eec:	854e                	mv	a0,s3
   11eee:	c5eff0ef          	jal	1134c <__malloc_unlock>
   11ef2:	6c02                	ld	s8,0(sp)
   11ef4:	a0b1                	j	11f40 <_realloc_r+0x142>
   11ef6:	02000493          	li	s1,32
   11efa:	f524f6e3          	bgeu	s1,s2,11e46 <_realloc_r+0x48>
   11efe:	47b1                	li	a5,12
   11f00:	00f9a023          	sw	a5,0(s3)
   11f04:	4901                	li	s2,0
   11f06:	a82d                	j	11f40 <_realloc_r+0x142>
   11f08:	6e9c                	ld	a5,24(a3)
   11f0a:	6a98                	ld	a4,16(a3)
   11f0c:	6c02                	ld	s8,0(sp)
   11f0e:	8a32                	mv	s4,a2
   11f10:	ef1c                	sd	a5,24(a4)
   11f12:	eb98                	sd	a4,16(a5)
   11f14:	008ab783          	ld	a5,8(s5)
   11f18:	409a06b3          	sub	a3,s4,s1
   11f1c:	467d                	li	a2,31
   11f1e:	8b85                	andi	a5,a5,1
   11f20:	014a8733          	add	a4,s5,s4
   11f24:	04d66a63          	bltu	a2,a3,11f78 <_realloc_r+0x17a>
   11f28:	0147e7b3          	or	a5,a5,s4
   11f2c:	00fab423          	sd	a5,8(s5)
   11f30:	671c                	ld	a5,8(a4)
   11f32:	0017e793          	ori	a5,a5,1
   11f36:	e71c                	sd	a5,8(a4)
   11f38:	854e                	mv	a0,s3
   11f3a:	c12ff0ef          	jal	1134c <__malloc_unlock>
   11f3e:	8922                	mv	s2,s0
   11f40:	6406                	ld	s0,64(sp)
   11f42:	60a6                	ld	ra,72(sp)
   11f44:	74e2                	ld	s1,56(sp)
   11f46:	79a2                	ld	s3,40(sp)
   11f48:	7a02                	ld	s4,32(sp)
   11f4a:	6ae2                	ld	s5,24(sp)
   11f4c:	854a                	mv	a0,s2
   11f4e:	7942                	ld	s2,48(sp)
   11f50:	6161                	addi	sp,sp,80
   11f52:	8082                	ret
   11f54:	8b85                	andi	a5,a5,1
   11f56:	f7b1                	bnez	a5,11ea2 <_realloc_r+0xa4>
   11f58:	e45e                	sd	s7,8(sp)
   11f5a:	ff043b83          	ld	s7,-16(s0)
   11f5e:	e85a                	sd	s6,16(sp)
   11f60:	417a8bb3          	sub	s7,s5,s7
   11f64:	008bb783          	ld	a5,8(s7)
   11f68:	9bf1                	andi	a5,a5,-4
   11f6a:	b735                	j	11e96 <_realloc_r+0x98>
   11f6c:	60a6                	ld	ra,72(sp)
   11f6e:	7942                	ld	s2,48(sp)
   11f70:	85b2                	mv	a1,a2
   11f72:	6161                	addi	sp,sp,80
   11f74:	dd5fe06f          	j	10d48 <_malloc_r>
   11f78:	8fc5                	or	a5,a5,s1
   11f7a:	00fab423          	sd	a5,8(s5)
   11f7e:	009a85b3          	add	a1,s5,s1
   11f82:	0016e693          	ori	a3,a3,1
   11f86:	e594                	sd	a3,8(a1)
   11f88:	671c                	ld	a5,8(a4)
   11f8a:	05c1                	addi	a1,a1,16
   11f8c:	854e                	mv	a0,s3
   11f8e:	0017e793          	ori	a5,a5,1
   11f92:	e71c                	sd	a5,8(a4)
   11f94:	b71fe0ef          	jal	10b04 <_free_r>
   11f98:	b745                	j	11f38 <_realloc_r+0x13a>
   11f9a:	9b71                	andi	a4,a4,-4
   11f9c:	014706b3          	add	a3,a4,s4
   11fa0:	02048613          	addi	a2,s1,32
   11fa4:	1cc6d363          	bge	a3,a2,1216a <_realloc_r+0x36c>
   11fa8:	8b85                	andi	a5,a5,1
   11faa:	ee079ce3          	bnez	a5,11ea2 <_realloc_r+0xa4>
   11fae:	e45e                	sd	s7,8(sp)
   11fb0:	ff043b83          	ld	s7,-16(s0)
   11fb4:	e85a                	sd	s6,16(sp)
   11fb6:	417a8bb3          	sub	s7,s5,s7
   11fba:	008bb783          	ld	a5,8(s7)
   11fbe:	9bf1                	andi	a5,a5,-4
   11fc0:	973e                	add	a4,a4,a5
   11fc2:	01470b33          	add	s6,a4,s4
   11fc6:	eccb48e3          	blt	s6,a2,11e96 <_realloc_r+0x98>
   11fca:	018bb783          	ld	a5,24(s7)
   11fce:	010bb703          	ld	a4,16(s7)
   11fd2:	ff8a0613          	addi	a2,s4,-8
   11fd6:	04800693          	li	a3,72
   11fda:	ef1c                	sd	a5,24(a4)
   11fdc:	eb98                	sd	a4,16(a5)
   11fde:	010b8913          	addi	s2,s7,16
   11fe2:	1cc6ec63          	bltu	a3,a2,121ba <_realloc_r+0x3bc>
   11fe6:	02700713          	li	a4,39
   11fea:	87ca                	mv	a5,s2
   11fec:	00c77f63          	bgeu	a4,a2,1200a <_realloc_r+0x20c>
   11ff0:	6018                	ld	a4,0(s0)
   11ff2:	03700793          	li	a5,55
   11ff6:	00ebb823          	sd	a4,16(s7)
   11ffa:	6418                	ld	a4,8(s0)
   11ffc:	00ebbc23          	sd	a4,24(s7)
   12000:	1cc7e263          	bltu	a5,a2,121c4 <_realloc_r+0x3c6>
   12004:	0441                	addi	s0,s0,16
   12006:	020b8793          	addi	a5,s7,32
   1200a:	6018                	ld	a4,0(s0)
   1200c:	e398                	sd	a4,0(a5)
   1200e:	6418                	ld	a4,8(s0)
   12010:	e798                	sd	a4,8(a5)
   12012:	6818                	ld	a4,16(s0)
   12014:	eb98                	sd	a4,16(a5)
   12016:	009b8733          	add	a4,s7,s1
   1201a:	409b07b3          	sub	a5,s6,s1
   1201e:	00ec3823          	sd	a4,16(s8)
   12022:	0017e793          	ori	a5,a5,1
   12026:	e71c                	sd	a5,8(a4)
   12028:	008bb783          	ld	a5,8(s7)
   1202c:	854e                	mv	a0,s3
   1202e:	8b85                	andi	a5,a5,1
   12030:	8fc5                	or	a5,a5,s1
   12032:	00fbb423          	sd	a5,8(s7)
   12036:	b16ff0ef          	jal	1134c <__malloc_unlock>
   1203a:	6b42                	ld	s6,16(sp)
   1203c:	6ba2                	ld	s7,8(sp)
   1203e:	6c02                	ld	s8,0(sp)
   12040:	b701                	j	11f40 <_realloc_r+0x142>
   12042:	6014                	ld	a3,0(s0)
   12044:	03700713          	li	a4,55
   12048:	e114                	sd	a3,0(a0)
   1204a:	6414                	ld	a3,8(s0)
   1204c:	e514                	sd	a3,8(a0)
   1204e:	10c76363          	bltu	a4,a2,12154 <_realloc_r+0x356>
   12052:	01040713          	addi	a4,s0,16
   12056:	01050793          	addi	a5,a0,16
   1205a:	bdbd                	j	11ed8 <_realloc_r+0xda>
   1205c:	ff853783          	ld	a5,-8(a0)
   12060:	6c02                	ld	s8,0(sp)
   12062:	9bf1                	andi	a5,a5,-4
   12064:	9a3e                	add	s4,s4,a5
   12066:	b57d                	j	11f14 <_realloc_r+0x116>
   12068:	018bb783          	ld	a5,24(s7)
   1206c:	010bb703          	ld	a4,16(s7)
   12070:	ff8a0613          	addi	a2,s4,-8
   12074:	04800693          	li	a3,72
   12078:	ef1c                	sd	a5,24(a4)
   1207a:	eb98                	sd	a4,16(a5)
   1207c:	010b8913          	addi	s2,s7,16
   12080:	0cc6e563          	bltu	a3,a2,1214a <_realloc_r+0x34c>
   12084:	02700713          	li	a4,39
   12088:	87ca                	mv	a5,s2
   1208a:	02c77863          	bgeu	a4,a2,120ba <_realloc_r+0x2bc>
   1208e:	6018                	ld	a4,0(s0)
   12090:	03700793          	li	a5,55
   12094:	00ebb823          	sd	a4,16(s7)
   12098:	6418                	ld	a4,8(s0)
   1209a:	00ebbc23          	sd	a4,24(s7)
   1209e:	0ec7fb63          	bgeu	a5,a2,12194 <_realloc_r+0x396>
   120a2:	681c                	ld	a5,16(s0)
   120a4:	02fbb023          	sd	a5,32(s7)
   120a8:	6c1c                	ld	a5,24(s0)
   120aa:	02fbb423          	sd	a5,40(s7)
   120ae:	08d60263          	beq	a2,a3,12132 <_realloc_r+0x334>
   120b2:	02040413          	addi	s0,s0,32
   120b6:	030b8793          	addi	a5,s7,48
   120ba:	6018                	ld	a4,0(s0)
   120bc:	e398                	sd	a4,0(a5)
   120be:	6418                	ld	a4,8(s0)
   120c0:	e798                	sd	a4,8(a5)
   120c2:	6818                	ld	a4,16(s0)
   120c4:	eb98                	sd	a4,16(a5)
   120c6:	8a5a                	mv	s4,s6
   120c8:	8ade                	mv	s5,s7
   120ca:	6b42                	ld	s6,16(sp)
   120cc:	6ba2                	ld	s7,8(sp)
   120ce:	6c02                	ld	s8,0(sp)
   120d0:	844a                	mv	s0,s2
   120d2:	b589                	j	11f14 <_realloc_r+0x116>
   120d4:	85a2                	mv	a1,s0
   120d6:	a9bff0ef          	jal	11b70 <memmove>
   120da:	b529                	j	11ee4 <_realloc_r+0xe6>
   120dc:	6e9c                	ld	a5,24(a3)
   120de:	6a98                	ld	a4,16(a3)
   120e0:	ff8a0613          	addi	a2,s4,-8
   120e4:	04800693          	li	a3,72
   120e8:	ef1c                	sd	a5,24(a4)
   120ea:	eb98                	sd	a4,16(a5)
   120ec:	010bb703          	ld	a4,16(s7)
   120f0:	018bb783          	ld	a5,24(s7)
   120f4:	010b8913          	addi	s2,s7,16
   120f8:	ef1c                	sd	a5,24(a4)
   120fa:	eb98                	sd	a4,16(a5)
   120fc:	04c6e763          	bltu	a3,a2,1214a <_realloc_r+0x34c>
   12100:	02700713          	li	a4,39
   12104:	87ca                	mv	a5,s2
   12106:	fac77ae3          	bgeu	a4,a2,120ba <_realloc_r+0x2bc>
   1210a:	6018                	ld	a4,0(s0)
   1210c:	03700793          	li	a5,55
   12110:	00ebb823          	sd	a4,16(s7)
   12114:	6418                	ld	a4,8(s0)
   12116:	00ebbc23          	sd	a4,24(s7)
   1211a:	06c7fd63          	bgeu	a5,a2,12194 <_realloc_r+0x396>
   1211e:	6818                	ld	a4,16(s0)
   12120:	04800793          	li	a5,72
   12124:	02ebb023          	sd	a4,32(s7)
   12128:	6c18                	ld	a4,24(s0)
   1212a:	02ebb423          	sd	a4,40(s7)
   1212e:	f8f612e3          	bne	a2,a5,120b2 <_realloc_r+0x2b4>
   12132:	7018                	ld	a4,32(s0)
   12134:	040b8793          	addi	a5,s7,64
   12138:	03040413          	addi	s0,s0,48
   1213c:	02ebb823          	sd	a4,48(s7)
   12140:	ff843703          	ld	a4,-8(s0)
   12144:	02ebbc23          	sd	a4,56(s7)
   12148:	bf8d                	j	120ba <_realloc_r+0x2bc>
   1214a:	85a2                	mv	a1,s0
   1214c:	854a                	mv	a0,s2
   1214e:	a23ff0ef          	jal	11b70 <memmove>
   12152:	bf95                	j	120c6 <_realloc_r+0x2c8>
   12154:	6818                	ld	a4,16(s0)
   12156:	e918                	sd	a4,16(a0)
   12158:	6c18                	ld	a4,24(s0)
   1215a:	ed18                	sd	a4,24(a0)
   1215c:	04f60663          	beq	a2,a5,121a8 <_realloc_r+0x3aa>
   12160:	02040713          	addi	a4,s0,32
   12164:	02050793          	addi	a5,a0,32
   12168:	bb85                	j	11ed8 <_realloc_r+0xda>
   1216a:	9aa6                	add	s5,s5,s1
   1216c:	409687b3          	sub	a5,a3,s1
   12170:	015c3823          	sd	s5,16(s8)
   12174:	0017e793          	ori	a5,a5,1
   12178:	00fab423          	sd	a5,8(s5)
   1217c:	ff843783          	ld	a5,-8(s0)
   12180:	854e                	mv	a0,s3
   12182:	8922                	mv	s2,s0
   12184:	8b85                	andi	a5,a5,1
   12186:	8fc5                	or	a5,a5,s1
   12188:	fef43c23          	sd	a5,-8(s0)
   1218c:	9c0ff0ef          	jal	1134c <__malloc_unlock>
   12190:	6c02                	ld	s8,0(sp)
   12192:	b37d                	j	11f40 <_realloc_r+0x142>
   12194:	0441                	addi	s0,s0,16
   12196:	020b8793          	addi	a5,s7,32
   1219a:	b705                	j	120ba <_realloc_r+0x2bc>
   1219c:	854e                	mv	a0,s3
   1219e:	9aeff0ef          	jal	1134c <__malloc_unlock>
   121a2:	4901                	li	s2,0
   121a4:	6c02                	ld	s8,0(sp)
   121a6:	bb69                	j	11f40 <_realloc_r+0x142>
   121a8:	7014                	ld	a3,32(s0)
   121aa:	03040713          	addi	a4,s0,48
   121ae:	03050793          	addi	a5,a0,48
   121b2:	f114                	sd	a3,32(a0)
   121b4:	7414                	ld	a3,40(s0)
   121b6:	f514                	sd	a3,40(a0)
   121b8:	b305                	j	11ed8 <_realloc_r+0xda>
   121ba:	85a2                	mv	a1,s0
   121bc:	854a                	mv	a0,s2
   121be:	9b3ff0ef          	jal	11b70 <memmove>
   121c2:	bd91                	j	12016 <_realloc_r+0x218>
   121c4:	681c                	ld	a5,16(s0)
   121c6:	02fbb023          	sd	a5,32(s7)
   121ca:	6c1c                	ld	a5,24(s0)
   121cc:	02fbb423          	sd	a5,40(s7)
   121d0:	00d60763          	beq	a2,a3,121de <_realloc_r+0x3e0>
   121d4:	02040413          	addi	s0,s0,32
   121d8:	030b8793          	addi	a5,s7,48
   121dc:	b53d                	j	1200a <_realloc_r+0x20c>
   121de:	7018                	ld	a4,32(s0)
   121e0:	040b8793          	addi	a5,s7,64
   121e4:	03040413          	addi	s0,s0,48
   121e8:	02ebb823          	sd	a4,48(s7)
   121ec:	ff843703          	ld	a4,-8(s0)
   121f0:	02ebbc23          	sd	a4,56(s7)
   121f4:	bd19                	j	1200a <_realloc_r+0x20c>

00000000000121f6 <__smakebuf_r>:
   121f6:	01059783          	lh	a5,16(a1)
   121fa:	7135                	addi	sp,sp,-160
   121fc:	e922                	sd	s0,144(sp)
   121fe:	ed06                	sd	ra,152(sp)
   12200:	0027f713          	andi	a4,a5,2
   12204:	842e                	mv	s0,a1
   12206:	cb19                	beqz	a4,1221c <__smakebuf_r+0x26>
   12208:	07758793          	addi	a5,a1,119
   1220c:	e19c                	sd	a5,0(a1)
   1220e:	ed9c                	sd	a5,24(a1)
   12210:	4785                	li	a5,1
   12212:	d19c                	sw	a5,32(a1)
   12214:	60ea                	ld	ra,152(sp)
   12216:	644a                	ld	s0,144(sp)
   12218:	610d                	addi	sp,sp,160
   1221a:	8082                	ret
   1221c:	01259583          	lh	a1,18(a1)
   12220:	e526                	sd	s1,136(sp)
   12222:	e14a                	sd	s2,128(sp)
   12224:	fcce                	sd	s3,120(sp)
   12226:	f8d2                	sd	s4,112(sp)
   12228:	84aa                	mv	s1,a0
   1222a:	0605c463          	bltz	a1,12292 <__smakebuf_r+0x9c>
   1222e:	0030                	addi	a2,sp,8
   12230:	164000ef          	jal	12394 <_fstat_r>
   12234:	04054d63          	bltz	a0,1228e <__smakebuf_r+0x98>
   12238:	4932                	lw	s2,12(sp)
   1223a:	67bd                	lui	a5,0xf
   1223c:	6985                	lui	s3,0x1
   1223e:	00f97933          	and	s2,s2,a5
   12242:	6789                	lui	a5,0x2
   12244:	40f90933          	sub	s2,s2,a5
   12248:	00193913          	seqz	s2,s2
   1224c:	40000a13          	li	s4,1024
   12250:	80098993          	addi	s3,s3,-2048 # 800 <exit-0xf8e8>
   12254:	85d2                	mv	a1,s4
   12256:	8526                	mv	a0,s1
   12258:	af1fe0ef          	jal	10d48 <_malloc_r>
   1225c:	01041783          	lh	a5,16(s0)
   12260:	c539                	beqz	a0,122ae <__smakebuf_r+0xb8>
   12262:	0807e793          	ori	a5,a5,128
   12266:	e008                	sd	a0,0(s0)
   12268:	ec08                	sd	a0,24(s0)
   1226a:	00f41823          	sh	a5,16(s0)
   1226e:	03442023          	sw	s4,32(s0)
   12272:	06091563          	bnez	s2,122dc <__smakebuf_r+0xe6>
   12276:	0137e7b3          	or	a5,a5,s3
   1227a:	60ea                	ld	ra,152(sp)
   1227c:	00f41823          	sh	a5,16(s0)
   12280:	644a                	ld	s0,144(sp)
   12282:	64aa                	ld	s1,136(sp)
   12284:	690a                	ld	s2,128(sp)
   12286:	79e6                	ld	s3,120(sp)
   12288:	7a46                	ld	s4,112(sp)
   1228a:	610d                	addi	sp,sp,160
   1228c:	8082                	ret
   1228e:	01041783          	lh	a5,16(s0)
   12292:	0807f793          	andi	a5,a5,128
   12296:	4901                	li	s2,0
   12298:	cf95                	beqz	a5,122d4 <__smakebuf_r+0xde>
   1229a:	04000a13          	li	s4,64
   1229e:	85d2                	mv	a1,s4
   122a0:	8526                	mv	a0,s1
   122a2:	aa7fe0ef          	jal	10d48 <_malloc_r>
   122a6:	01041783          	lh	a5,16(s0)
   122aa:	4981                	li	s3,0
   122ac:	f95d                	bnez	a0,12262 <__smakebuf_r+0x6c>
   122ae:	2007f713          	andi	a4,a5,512
   122b2:	ef15                	bnez	a4,122ee <__smakebuf_r+0xf8>
   122b4:	9bf1                	andi	a5,a5,-4
   122b6:	0027e793          	ori	a5,a5,2
   122ba:	07740713          	addi	a4,s0,119
   122be:	00f41823          	sh	a5,16(s0)
   122c2:	4785                	li	a5,1
   122c4:	64aa                	ld	s1,136(sp)
   122c6:	690a                	ld	s2,128(sp)
   122c8:	79e6                	ld	s3,120(sp)
   122ca:	7a46                	ld	s4,112(sp)
   122cc:	e018                	sd	a4,0(s0)
   122ce:	ec18                	sd	a4,24(s0)
   122d0:	d01c                	sw	a5,32(s0)
   122d2:	b789                	j	12214 <__smakebuf_r+0x1e>
   122d4:	40000a13          	li	s4,1024
   122d8:	4981                	li	s3,0
   122da:	bfad                	j	12254 <__smakebuf_r+0x5e>
   122dc:	01241583          	lh	a1,18(s0)
   122e0:	8526                	mv	a0,s1
   122e2:	0ec000ef          	jal	123ce <_isatty_r>
   122e6:	e909                	bnez	a0,122f8 <__smakebuf_r+0x102>
   122e8:	01041783          	lh	a5,16(s0)
   122ec:	b769                	j	12276 <__smakebuf_r+0x80>
   122ee:	64aa                	ld	s1,136(sp)
   122f0:	690a                	ld	s2,128(sp)
   122f2:	79e6                	ld	s3,120(sp)
   122f4:	7a46                	ld	s4,112(sp)
   122f6:	bf39                	j	12214 <__smakebuf_r+0x1e>
   122f8:	01045783          	lhu	a5,16(s0)
   122fc:	9bf1                	andi	a5,a5,-4
   122fe:	0017e793          	ori	a5,a5,1
   12302:	0107979b          	slliw	a5,a5,0x10
   12306:	4107d79b          	sraiw	a5,a5,0x10
   1230a:	b7b5                	j	12276 <__smakebuf_r+0x80>

000000000001230c <__swhatbuf_r>:
   1230c:	7175                	addi	sp,sp,-144
   1230e:	e122                	sd	s0,128(sp)
   12310:	842e                	mv	s0,a1
   12312:	01259583          	lh	a1,18(a1)
   12316:	fca6                	sd	s1,120(sp)
   12318:	f8ca                	sd	s2,112(sp)
   1231a:	e506                	sd	ra,136(sp)
   1231c:	84b2                	mv	s1,a2
   1231e:	8936                	mv	s2,a3
   12320:	0205cc63          	bltz	a1,12358 <__swhatbuf_r+0x4c>
   12324:	0030                	addi	a2,sp,8
   12326:	06e000ef          	jal	12394 <_fstat_r>
   1232a:	02054763          	bltz	a0,12358 <__swhatbuf_r+0x4c>
   1232e:	47b2                	lw	a5,12(sp)
   12330:	673d                	lui	a4,0xf
   12332:	60aa                	ld	ra,136(sp)
   12334:	8ff9                	and	a5,a5,a4
   12336:	6709                	lui	a4,0x2
   12338:	8f99                	sub	a5,a5,a4
   1233a:	640a                	ld	s0,128(sp)
   1233c:	0017b793          	seqz	a5,a5
   12340:	00f92023          	sw	a5,0(s2)
   12344:	40000713          	li	a4,1024
   12348:	e098                	sd	a4,0(s1)
   1234a:	6505                	lui	a0,0x1
   1234c:	74e6                	ld	s1,120(sp)
   1234e:	7946                	ld	s2,112(sp)
   12350:	80050513          	addi	a0,a0,-2048 # 800 <exit-0xf8e8>
   12354:	6149                	addi	sp,sp,144
   12356:	8082                	ret
   12358:	01045783          	lhu	a5,16(s0)
   1235c:	0807f793          	andi	a5,a5,128
   12360:	cf91                	beqz	a5,1237c <__swhatbuf_r+0x70>
   12362:	60aa                	ld	ra,136(sp)
   12364:	640a                	ld	s0,128(sp)
   12366:	4781                	li	a5,0
   12368:	00f92023          	sw	a5,0(s2)
   1236c:	04000713          	li	a4,64
   12370:	e098                	sd	a4,0(s1)
   12372:	7946                	ld	s2,112(sp)
   12374:	74e6                	ld	s1,120(sp)
   12376:	4501                	li	a0,0
   12378:	6149                	addi	sp,sp,144
   1237a:	8082                	ret
   1237c:	60aa                	ld	ra,136(sp)
   1237e:	640a                	ld	s0,128(sp)
   12380:	00f92023          	sw	a5,0(s2)
   12384:	40000713          	li	a4,1024
   12388:	e098                	sd	a4,0(s1)
   1238a:	7946                	ld	s2,112(sp)
   1238c:	74e6                	ld	s1,120(sp)
   1238e:	4501                	li	a0,0
   12390:	6149                	addi	sp,sp,144
   12392:	8082                	ret

0000000000012394 <_fstat_r>:
   12394:	1101                	addi	sp,sp,-32
   12396:	872e                	mv	a4,a1
   12398:	e822                	sd	s0,16(sp)
   1239a:	e426                	sd	s1,8(sp)
   1239c:	842a                	mv	s0,a0
   1239e:	85b2                	mv	a1,a2
   123a0:	853a                	mv	a0,a4
   123a2:	ec06                	sd	ra,24(sp)
   123a4:	1a01a423          	sw	zero,424(gp) # 139c8 <errno>
   123a8:	0aa000ef          	jal	12452 <_fstat>
   123ac:	57fd                	li	a5,-1
   123ae:	00f50763          	beq	a0,a5,123bc <_fstat_r+0x28>
   123b2:	60e2                	ld	ra,24(sp)
   123b4:	6442                	ld	s0,16(sp)
   123b6:	64a2                	ld	s1,8(sp)
   123b8:	6105                	addi	sp,sp,32
   123ba:	8082                	ret
   123bc:	1a81a783          	lw	a5,424(gp) # 139c8 <errno>
   123c0:	dbed                	beqz	a5,123b2 <_fstat_r+0x1e>
   123c2:	60e2                	ld	ra,24(sp)
   123c4:	c01c                	sw	a5,0(s0)
   123c6:	6442                	ld	s0,16(sp)
   123c8:	64a2                	ld	s1,8(sp)
   123ca:	6105                	addi	sp,sp,32
   123cc:	8082                	ret

00000000000123ce <_isatty_r>:
   123ce:	1101                	addi	sp,sp,-32
   123d0:	e822                	sd	s0,16(sp)
   123d2:	e426                	sd	s1,8(sp)
   123d4:	842a                	mv	s0,a0
   123d6:	852e                	mv	a0,a1
   123d8:	ec06                	sd	ra,24(sp)
   123da:	1a01a423          	sw	zero,424(gp) # 139c8 <errno>
   123de:	0b4000ef          	jal	12492 <_isatty>
   123e2:	57fd                	li	a5,-1
   123e4:	00f50763          	beq	a0,a5,123f2 <_isatty_r+0x24>
   123e8:	60e2                	ld	ra,24(sp)
   123ea:	6442                	ld	s0,16(sp)
   123ec:	64a2                	ld	s1,8(sp)
   123ee:	6105                	addi	sp,sp,32
   123f0:	8082                	ret
   123f2:	1a81a783          	lw	a5,424(gp) # 139c8 <errno>
   123f6:	dbed                	beqz	a5,123e8 <_isatty_r+0x1a>
   123f8:	60e2                	ld	ra,24(sp)
   123fa:	c01c                	sw	a5,0(s0)
   123fc:	6442                	ld	s0,16(sp)
   123fe:	64a2                	ld	s1,8(sp)
   12400:	6105                	addi	sp,sp,32
   12402:	8082                	ret

0000000000012404 <_close>:
   12404:	1141                	addi	sp,sp,-16
   12406:	e406                	sd	ra,8(sp)
   12408:	e022                	sd	s0,0(sp)
   1240a:	03900893          	li	a7,57
   1240e:	00000073          	ecall
   12412:	842a                	mv	s0,a0
   12414:	00054763          	bltz	a0,12422 <_close+0x1e>
   12418:	2501                	sext.w	a0,a0
   1241a:	60a2                	ld	ra,8(sp)
   1241c:	6402                	ld	s0,0(sp)
   1241e:	0141                	addi	sp,sp,16
   12420:	8082                	ret
   12422:	1bc000ef          	jal	125de <__errno>
   12426:	4080043b          	negw	s0,s0
   1242a:	c100                	sw	s0,0(a0)
   1242c:	557d                	li	a0,-1
   1242e:	b7f5                	j	1241a <_close+0x16>

0000000000012430 <_exit>:
   12430:	05d00893          	li	a7,93
   12434:	00000073          	ecall
   12438:	00054363          	bltz	a0,1243e <_exit+0xe>
   1243c:	a001                	j	1243c <_exit+0xc>
   1243e:	1141                	addi	sp,sp,-16
   12440:	e022                	sd	s0,0(sp)
   12442:	842a                	mv	s0,a0
   12444:	e406                	sd	ra,8(sp)
   12446:	4080043b          	negw	s0,s0
   1244a:	194000ef          	jal	125de <__errno>
   1244e:	c100                	sw	s0,0(a0)
   12450:	a001                	j	12450 <_exit+0x20>

0000000000012452 <_fstat>:
   12452:	7135                	addi	sp,sp,-160
   12454:	e526                	sd	s1,136(sp)
   12456:	ed06                	sd	ra,152(sp)
   12458:	84ae                	mv	s1,a1
   1245a:	e922                	sd	s0,144(sp)
   1245c:	05000893          	li	a7,80
   12460:	858a                	mv	a1,sp
   12462:	00000073          	ecall
   12466:	842a                	mv	s0,a0
   12468:	00054e63          	bltz	a0,12484 <_fstat+0x32>
   1246c:	0005041b          	sext.w	s0,a0
   12470:	8526                	mv	a0,s1
   12472:	858a                	mv	a1,sp
   12474:	11c000ef          	jal	12590 <_conv_stat>
   12478:	60ea                	ld	ra,152(sp)
   1247a:	8522                	mv	a0,s0
   1247c:	644a                	ld	s0,144(sp)
   1247e:	64aa                	ld	s1,136(sp)
   12480:	610d                	addi	sp,sp,160
   12482:	8082                	ret
   12484:	4080043b          	negw	s0,s0
   12488:	156000ef          	jal	125de <__errno>
   1248c:	c100                	sw	s0,0(a0)
   1248e:	547d                	li	s0,-1
   12490:	b7c5                	j	12470 <_fstat+0x1e>

0000000000012492 <_isatty>:
   12492:	7119                	addi	sp,sp,-128
   12494:	002c                	addi	a1,sp,8
   12496:	fc86                	sd	ra,120(sp)
   12498:	fbbff0ef          	jal	12452 <_fstat>
   1249c:	57fd                	li	a5,-1
   1249e:	00f50963          	beq	a0,a5,124b0 <_isatty+0x1e>
   124a2:	4532                	lw	a0,12(sp)
   124a4:	70e6                	ld	ra,120(sp)
   124a6:	40d5551b          	sraiw	a0,a0,0xd
   124aa:	8905                	andi	a0,a0,1
   124ac:	6109                	addi	sp,sp,128
   124ae:	8082                	ret
   124b0:	70e6                	ld	ra,120(sp)
   124b2:	4501                	li	a0,0
   124b4:	6109                	addi	sp,sp,128
   124b6:	8082                	ret

00000000000124b8 <_lseek>:
   124b8:	1141                	addi	sp,sp,-16
   124ba:	e406                	sd	ra,8(sp)
   124bc:	e022                	sd	s0,0(sp)
   124be:	03e00893          	li	a7,62
   124c2:	00000073          	ecall
   124c6:	842a                	mv	s0,a0
   124c8:	00054763          	bltz	a0,124d6 <_lseek+0x1e>
   124cc:	60a2                	ld	ra,8(sp)
   124ce:	8522                	mv	a0,s0
   124d0:	6402                	ld	s0,0(sp)
   124d2:	0141                	addi	sp,sp,16
   124d4:	8082                	ret
   124d6:	4080043b          	negw	s0,s0
   124da:	104000ef          	jal	125de <__errno>
   124de:	c100                	sw	s0,0(a0)
   124e0:	547d                	li	s0,-1
   124e2:	b7ed                	j	124cc <_lseek+0x14>

00000000000124e4 <_read>:
   124e4:	1141                	addi	sp,sp,-16
   124e6:	e406                	sd	ra,8(sp)
   124e8:	e022                	sd	s0,0(sp)
   124ea:	03f00893          	li	a7,63
   124ee:	00000073          	ecall
   124f2:	842a                	mv	s0,a0
   124f4:	00054763          	bltz	a0,12502 <_read+0x1e>
   124f8:	60a2                	ld	ra,8(sp)
   124fa:	8522                	mv	a0,s0
   124fc:	6402                	ld	s0,0(sp)
   124fe:	0141                	addi	sp,sp,16
   12500:	8082                	ret
   12502:	4080043b          	negw	s0,s0
   12506:	0d8000ef          	jal	125de <__errno>
   1250a:	c100                	sw	s0,0(a0)
   1250c:	547d                	li	s0,-1
   1250e:	b7ed                	j	124f8 <_read+0x14>

0000000000012510 <_sbrk>:
   12510:	1d01b703          	ld	a4,464(gp) # 139f0 <heap_end.0>
   12514:	1141                	addi	sp,sp,-16
   12516:	e406                	sd	ra,8(sp)
   12518:	87aa                	mv	a5,a0
   1251a:	ef01                	bnez	a4,12532 <_sbrk+0x22>
   1251c:	0d600893          	li	a7,214
   12520:	4501                	li	a0,0
   12522:	00000073          	ecall
   12526:	567d                	li	a2,-1
   12528:	872a                	mv	a4,a0
   1252a:	02c50563          	beq	a0,a2,12554 <_sbrk+0x44>
   1252e:	1ca1b823          	sd	a0,464(gp) # 139f0 <heap_end.0>
   12532:	0d600893          	li	a7,214
   12536:	00e78533          	add	a0,a5,a4
   1253a:	00000073          	ecall
   1253e:	1d01b703          	ld	a4,464(gp) # 139f0 <heap_end.0>
   12542:	97ba                	add	a5,a5,a4
   12544:	00f51863          	bne	a0,a5,12554 <_sbrk+0x44>
   12548:	60a2                	ld	ra,8(sp)
   1254a:	1ca1b823          	sd	a0,464(gp) # 139f0 <heap_end.0>
   1254e:	853a                	mv	a0,a4
   12550:	0141                	addi	sp,sp,16
   12552:	8082                	ret
   12554:	08a000ef          	jal	125de <__errno>
   12558:	60a2                	ld	ra,8(sp)
   1255a:	47b1                	li	a5,12
   1255c:	c11c                	sw	a5,0(a0)
   1255e:	557d                	li	a0,-1
   12560:	0141                	addi	sp,sp,16
   12562:	8082                	ret

0000000000012564 <_write>:
   12564:	1141                	addi	sp,sp,-16
   12566:	e406                	sd	ra,8(sp)
   12568:	e022                	sd	s0,0(sp)
   1256a:	04000893          	li	a7,64
   1256e:	00000073          	ecall
   12572:	842a                	mv	s0,a0
   12574:	00054763          	bltz	a0,12582 <_write+0x1e>
   12578:	60a2                	ld	ra,8(sp)
   1257a:	8522                	mv	a0,s0
   1257c:	6402                	ld	s0,0(sp)
   1257e:	0141                	addi	sp,sp,16
   12580:	8082                	ret
   12582:	4080043b          	negw	s0,s0
   12586:	058000ef          	jal	125de <__errno>
   1258a:	c100                	sw	s0,0(a0)
   1258c:	547d                	li	s0,-1
   1258e:	b7ed                	j	12578 <_write+0x14>

0000000000012590 <_conv_stat>:
   12590:	0185d703          	lhu	a4,24(a1)
   12594:	0145d783          	lhu	a5,20(a1)
   12598:	4dd0                	lw	a2,28(a1)
   1259a:	7194                	ld	a3,32(a1)
   1259c:	0005b303          	ld	t1,0(a1)
   125a0:	0085b883          	ld	a7,8(a1)
   125a4:	0105a803          	lw	a6,16(a1)
   125a8:	0107171b          	slliw	a4,a4,0x10
   125ac:	8fd9                	or	a5,a5,a4
   125ae:	00c51623          	sh	a2,12(a0)
   125b2:	00d51723          	sh	a3,14(a0)
   125b6:	00651023          	sh	t1,0(a0)
   125ba:	01151123          	sh	a7,2(a0)
   125be:	01052223          	sw	a6,4(a0)
   125c2:	c51c                	sw	a5,8(a0)
   125c4:	7998                	ld	a4,48(a1)
   125c6:	65bc                	ld	a5,72(a1)
   125c8:	61b0                	ld	a2,64(a1)
   125ca:	5d94                	lw	a3,56(a1)
   125cc:	e918                	sd	a4,16(a0)
   125ce:	ed1c                	sd	a5,24(a0)
   125d0:	6db8                	ld	a4,88(a1)
   125d2:	75bc                	ld	a5,104(a1)
   125d4:	e930                	sd	a2,80(a0)
   125d6:	e534                	sd	a3,72(a0)
   125d8:	f518                	sd	a4,40(a0)
   125da:	fd1c                	sd	a5,56(a0)
   125dc:	8082                	ret

00000000000125de <__errno>:
   125de:	1881b503          	ld	a0,392(gp) # 139a8 <_impure_ptr>
   125e2:	8082                	ret
