
bin/test_zicond_inline.riscv:     file format elf64-littleriscv


Disassembly of section .text:

00000000000100e8 <exit>:
   100e8:	1141                	addi	sp,sp,-16
   100ea:	4581                	li	a1,0
   100ec:	e022                	sd	s0,0(sp)
   100ee:	e406                	sd	ra,8(sp)
   100f0:	842a                	mv	s0,a0
   100f2:	07d000ef          	jal	1096e <__call_exitprocs>
   100f6:	2381b783          	ld	a5,568(gp) # 1af08 <__stdio_exit_handler>
   100fa:	c391                	beqz	a5,100fe <exit+0x16>
   100fc:	9782                	jalr	a5
   100fe:	8522                	mv	a0,s0
   10100:	642070ef          	jal	17742 <_exit>

0000000000010104 <register_fini>:
   10104:	00000793          	li	a5,0
   10108:	c791                	beqz	a5,10114 <register_fini+0x10>
   1010a:	6551                	lui	a0,0x14
   1010c:	81050513          	addi	a0,a0,-2032 # 13810 <__libc_fini_array>
   10110:	1310006f          	j	10a40 <atexit>
   10114:	8082                	ret

0000000000010116 <_start>:
   10116:	0000b197          	auipc	gp,0xb
   1011a:	bba18193          	addi	gp,gp,-1094 # 1acd0 <__global_locale>
   1011e:	23818513          	addi	a0,gp,568 # 1af08 <__stdio_exit_handler>
   10122:	0000b617          	auipc	a2,0xb
   10126:	3ae60613          	addi	a2,a2,942 # 1b4d0 <__BSS_END__>
   1012a:	8e09                	sub	a2,a2,a0
   1012c:	4581                	li	a1,0
   1012e:	796000ef          	jal	108c4 <memset>
   10132:	00001517          	auipc	a0,0x1
   10136:	90e50513          	addi	a0,a0,-1778 # 10a40 <atexit>
   1013a:	c519                	beqz	a0,10148 <_start+0x32>
   1013c:	00003517          	auipc	a0,0x3
   10140:	6d450513          	addi	a0,a0,1748 # 13810 <__libc_fini_array>
   10144:	0fd000ef          	jal	10a40 <atexit>
   10148:	712000ef          	jal	1085a <__libc_init_array>
   1014c:	4502                	lw	a0,0(sp)
   1014e:	002c                	addi	a1,sp,8
   10150:	4601                	li	a2,0
   10152:	0d6000ef          	jal	10228 <main>
   10156:	bf49                	j	100e8 <exit>

0000000000010158 <__do_global_dtors_aux>:
   10158:	1141                	addi	sp,sp,-16
   1015a:	e022                	sd	s0,0(sp)
   1015c:	2781c783          	lbu	a5,632(gp) # 1af48 <completed.1>
   10160:	e406                	sd	ra,8(sp)
   10162:	ef91                	bnez	a5,1017e <__do_global_dtors_aux+0x26>
   10164:	00000793          	li	a5,0
   10168:	cb81                	beqz	a5,10178 <__do_global_dtors_aux+0x20>
   1016a:	6569                	lui	a0,0x1a
   1016c:	33050513          	addi	a0,a0,816 # 1a330 <__EH_FRAME_BEGIN__>
   10170:	00000097          	auipc	ra,0x0
   10174:	000000e7          	jalr	zero # 0 <exit-0x100e8>
   10178:	4785                	li	a5,1
   1017a:	26f18c23          	sb	a5,632(gp) # 1af48 <completed.1>
   1017e:	60a2                	ld	ra,8(sp)
   10180:	6402                	ld	s0,0(sp)
   10182:	0141                	addi	sp,sp,16
   10184:	8082                	ret

0000000000010186 <frame_dummy>:
   10186:	00000793          	li	a5,0
   1018a:	cb91                	beqz	a5,1019e <frame_dummy+0x18>
   1018c:	6569                	lui	a0,0x1a
   1018e:	28018593          	addi	a1,gp,640 # 1af50 <object.0>
   10192:	33050513          	addi	a0,a0,816 # 1a330 <__EH_FRAME_BEGIN__>
   10196:	00000317          	auipc	t1,0x0
   1019a:	00000067          	jr	zero # 0 <exit-0x100e8>
   1019e:	8082                	ret

00000000000101a0 <czero_eqz>:
   101a0:	fd010113          	addi	sp,sp,-48
   101a4:	02813423          	sd	s0,40(sp)
   101a8:	03010413          	addi	s0,sp,48
   101ac:	00050793          	mv	a5,a0
   101b0:	00058713          	mv	a4,a1
   101b4:	fcf42e23          	sw	a5,-36(s0)
   101b8:	00070793          	mv	a5,a4
   101bc:	fcf42c23          	sw	a5,-40(s0)
   101c0:	fdc42783          	lw	a5,-36(s0)
   101c4:	fd842703          	lw	a4,-40(s0)
   101c8:	0ee7d7b3          	czero.eqz	a5,a5,a4
   101cc:	fef42623          	sw	a5,-20(s0)
   101d0:	fec42783          	lw	a5,-20(s0)
   101d4:	00078513          	mv	a0,a5
   101d8:	02813403          	ld	s0,40(sp)
   101dc:	03010113          	addi	sp,sp,48
   101e0:	00008067          	ret

00000000000101e4 <czero_nez>:
   101e4:	fd010113          	addi	sp,sp,-48
   101e8:	02813423          	sd	s0,40(sp)
   101ec:	03010413          	addi	s0,sp,48
   101f0:	00050793          	mv	a5,a0
   101f4:	00058713          	mv	a4,a1
   101f8:	fcf42e23          	sw	a5,-36(s0)
   101fc:	00070793          	mv	a5,a4
   10200:	fcf42c23          	sw	a5,-40(s0)
   10204:	fdc42783          	lw	a5,-36(s0)
   10208:	fd842703          	lw	a4,-40(s0)
   1020c:	0ee7f7b3          	czero.nez	a5,a5,a4
   10210:	fef42623          	sw	a5,-20(s0)
   10214:	fec42783          	lw	a5,-20(s0)
   10218:	00078513          	mv	a0,a5
   1021c:	02813403          	ld	s0,40(sp)
   10220:	03010113          	addi	sp,sp,48
   10224:	00008067          	ret

0000000000010228 <main>:
   10228:	fe010113          	addi	sp,sp,-32
   1022c:	00113c23          	sd	ra,24(sp)
   10230:	00813823          	sd	s0,16(sp)
   10234:	02010413          	addi	s0,sp,32
   10238:	02a00793          	li	a5,42
   1023c:	fef42623          	sw	a5,-20(s0)
   10240:	fe042423          	sw	zero,-24(s0)
   10244:	fec42783          	lw	a5,-20(s0)
   10248:	0007879b          	sext.w	a5,a5
   1024c:	fe842703          	lw	a4,-24(s0)
   10250:	0007071b          	sext.w	a4,a4
   10254:	00070593          	mv	a1,a4
   10258:	00078513          	mv	a0,a5
   1025c:	f45ff0ef          	jal	101a0 <czero_eqz>
   10260:	00050793          	mv	a5,a0
   10264:	fef42223          	sw	a5,-28(s0)
   10268:	fec42783          	lw	a5,-20(s0)
   1026c:	0007879b          	sext.w	a5,a5
   10270:	fe842703          	lw	a4,-24(s0)
   10274:	0007071b          	sext.w	a4,a4
   10278:	00070593          	mv	a1,a4
   1027c:	00078513          	mv	a0,a5
   10280:	f65ff0ef          	jal	101e4 <czero_nez>
   10284:	00050793          	mv	a5,a0
   10288:	fef42023          	sw	a5,-32(s0)
   1028c:	fe442783          	lw	a5,-28(s0)
   10290:	0007879b          	sext.w	a5,a5
   10294:	fe042703          	lw	a4,-32(s0)
   10298:	0007071b          	sext.w	a4,a4
   1029c:	00070613          	mv	a2,a4
   102a0:	00078593          	mv	a1,a5
   102a4:	000197b7          	lui	a5,0x19
   102a8:	b1078513          	addi	a0,a5,-1264 # 18b10 <__clzdi2+0x3a>
   102ac:	32c000ef          	jal	105d8 <printf>
   102b0:	00000793          	li	a5,0
   102b4:	00078513          	mv	a0,a5
   102b8:	01813083          	ld	ra,24(sp)
   102bc:	01013403          	ld	s0,16(sp)
   102c0:	02010113          	addi	sp,sp,32
   102c4:	00008067          	ret

00000000000102c8 <__fp_lock>:
   102c8:	4501                	li	a0,0
   102ca:	8082                	ret

00000000000102cc <stdio_exit_handler>:
   102cc:	6669                	lui	a2,0x1a
   102ce:	65cd                	lui	a1,0x13
   102d0:	6569                	lui	a0,0x1a
   102d2:	35060613          	addi	a2,a2,848 # 1a350 <__sglue>
   102d6:	f7c58593          	addi	a1,a1,-132 # 12f7c <_fclose_r>
   102da:	36850513          	addi	a0,a0,872 # 1a368 <_impure_data>
   102de:	ac99                	j	10534 <_fwalk_sglue>

00000000000102e0 <cleanup_stdio>:
   102e0:	650c                	ld	a1,8(a0)
   102e2:	1141                	addi	sp,sp,-16
   102e4:	e022                	sd	s0,0(sp)
   102e6:	e406                	sd	ra,8(sp)
   102e8:	2b018793          	addi	a5,gp,688 # 1af80 <__sf>
   102ec:	842a                	mv	s0,a0
   102ee:	00f58463          	beq	a1,a5,102f6 <cleanup_stdio+0x16>
   102f2:	48b020ef          	jal	12f7c <_fclose_r>
   102f6:	680c                	ld	a1,16(s0)
   102f8:	36018793          	addi	a5,gp,864 # 1b030 <__sf+0xb0>
   102fc:	00f58563          	beq	a1,a5,10306 <cleanup_stdio+0x26>
   10300:	8522                	mv	a0,s0
   10302:	47b020ef          	jal	12f7c <_fclose_r>
   10306:	6c0c                	ld	a1,24(s0)
   10308:	41018793          	addi	a5,gp,1040 # 1b0e0 <__sf+0x160>
   1030c:	00f58863          	beq	a1,a5,1031c <cleanup_stdio+0x3c>
   10310:	8522                	mv	a0,s0
   10312:	6402                	ld	s0,0(sp)
   10314:	60a2                	ld	ra,8(sp)
   10316:	0141                	addi	sp,sp,16
   10318:	4650206f          	j	12f7c <_fclose_r>
   1031c:	60a2                	ld	ra,8(sp)
   1031e:	6402                	ld	s0,0(sp)
   10320:	0141                	addi	sp,sp,16
   10322:	8082                	ret

0000000000010324 <__fp_unlock>:
   10324:	4501                	li	a0,0
   10326:	8082                	ret

0000000000010328 <global_stdio_init.part.0>:
   10328:	7179                	addi	sp,sp,-48
   1032a:	67c1                	lui	a5,0x10
   1032c:	f022                	sd	s0,32(sp)
   1032e:	2cc78793          	addi	a5,a5,716 # 102cc <stdio_exit_handler>
   10332:	2b018413          	addi	s0,gp,688 # 1af80 <__sf>
   10336:	f406                	sd	ra,40(sp)
   10338:	ec26                	sd	s1,24(sp)
   1033a:	e84a                	sd	s2,16(sp)
   1033c:	e44e                	sd	s3,8(sp)
   1033e:	e052                	sd	s4,0(sp)
   10340:	22f1bc23          	sd	a5,568(gp) # 1af08 <__stdio_exit_handler>
   10344:	4621                	li	a2,8
   10346:	4791                	li	a5,4
   10348:	4581                	li	a1,0
   1034a:	35418513          	addi	a0,gp,852 # 1b024 <__sf+0xa4>
   1034e:	c81c                	sw	a5,16(s0)
   10350:	00043023          	sd	zero,0(s0)
   10354:	00043423          	sd	zero,8(s0)
   10358:	0a042623          	sw	zero,172(s0)
   1035c:	00043c23          	sd	zero,24(s0)
   10360:	02042023          	sw	zero,32(s0)
   10364:	02042423          	sw	zero,40(s0)
   10368:	55c000ef          	jal	108c4 <memset>
   1036c:	67c1                	lui	a5,0x10
   1036e:	6a41                	lui	s4,0x10
   10370:	69c1                	lui	s3,0x10
   10372:	6941                	lui	s2,0x10
   10374:	64c1                	lui	s1,0x10
   10376:	604a0a13          	addi	s4,s4,1540 # 10604 <__sread>
   1037a:	64098993          	addi	s3,s3,1600 # 10640 <__swrite>
   1037e:	69290913          	addi	s2,s2,1682 # 10692 <__sseek>
   10382:	6e448493          	addi	s1,s1,1764 # 106e4 <__sclose>
   10386:	07a5                	addi	a5,a5,9 # 10009 <exit-0xdf>
   10388:	4621                	li	a2,8
   1038a:	4581                	li	a1,0
   1038c:	40418513          	addi	a0,gp,1028 # 1b0d4 <__sf+0x154>
   10390:	03443c23          	sd	s4,56(s0)
   10394:	05343023          	sd	s3,64(s0)
   10398:	05243423          	sd	s2,72(s0)
   1039c:	e824                	sd	s1,80(s0)
   1039e:	0cf42023          	sw	a5,192(s0)
   103a2:	f800                	sd	s0,48(s0)
   103a4:	0a043823          	sd	zero,176(s0)
   103a8:	0a043c23          	sd	zero,184(s0)
   103ac:	14042e23          	sw	zero,348(s0)
   103b0:	0c043423          	sd	zero,200(s0)
   103b4:	0c042823          	sw	zero,208(s0)
   103b8:	0c042c23          	sw	zero,216(s0)
   103bc:	508000ef          	jal	108c4 <memset>
   103c0:	000207b7          	lui	a5,0x20
   103c4:	07c9                	addi	a5,a5,18 # 20012 <__BSS_END__+0x4b42>
   103c6:	36018713          	addi	a4,gp,864 # 1b030 <__sf+0xb0>
   103ca:	4621                	li	a2,8
   103cc:	4581                	li	a1,0
   103ce:	4b418513          	addi	a0,gp,1204 # 1b184 <__sf+0x204>
   103d2:	0f443423          	sd	s4,232(s0)
   103d6:	0f343823          	sd	s3,240(s0)
   103da:	0f243c23          	sd	s2,248(s0)
   103de:	10943023          	sd	s1,256(s0)
   103e2:	16f42823          	sw	a5,368(s0)
   103e6:	f078                	sd	a4,224(s0)
   103e8:	16043023          	sd	zero,352(s0)
   103ec:	16043423          	sd	zero,360(s0)
   103f0:	20042623          	sw	zero,524(s0)
   103f4:	16043c23          	sd	zero,376(s0)
   103f8:	18042023          	sw	zero,384(s0)
   103fc:	18042423          	sw	zero,392(s0)
   10400:	4c4000ef          	jal	108c4 <memset>
   10404:	41018793          	addi	a5,gp,1040 # 1b0e0 <__sf+0x160>
   10408:	19443c23          	sd	s4,408(s0)
   1040c:	1b343023          	sd	s3,416(s0)
   10410:	1b243423          	sd	s2,424(s0)
   10414:	1a943823          	sd	s1,432(s0)
   10418:	70a2                	ld	ra,40(sp)
   1041a:	18f43823          	sd	a5,400(s0)
   1041e:	7402                	ld	s0,32(sp)
   10420:	64e2                	ld	s1,24(sp)
   10422:	6942                	ld	s2,16(sp)
   10424:	69a2                	ld	s3,8(sp)
   10426:	6a02                	ld	s4,0(sp)
   10428:	6145                	addi	sp,sp,48
   1042a:	8082                	ret

000000000001042c <__sfp>:
   1042c:	2381b783          	ld	a5,568(gp) # 1af08 <__stdio_exit_handler>
   10430:	7179                	addi	sp,sp,-48
   10432:	e84a                	sd	s2,16(sp)
   10434:	f406                	sd	ra,40(sp)
   10436:	f022                	sd	s0,32(sp)
   10438:	ec26                	sd	s1,24(sp)
   1043a:	e44e                	sd	s3,8(sp)
   1043c:	892a                	mv	s2,a0
   1043e:	c7cd                	beqz	a5,104e8 <__sfp+0xbc>
   10440:	64e9                	lui	s1,0x1a
   10442:	35048493          	addi	s1,s1,848 # 1a350 <__sglue>
   10446:	0b000993          	li	s3,176
   1044a:	4498                	lw	a4,8(s1)
   1044c:	6880                	ld	s0,16(s1)
   1044e:	06e05463          	blez	a4,104b6 <__sfp+0x8a>
   10452:	1702                	slli	a4,a4,0x20
   10454:	9301                	srli	a4,a4,0x20
   10456:	03370733          	mul	a4,a4,s3
   1045a:	9722                	add	a4,a4,s0
   1045c:	a029                	j	10466 <__sfp+0x3a>
   1045e:	0b040413          	addi	s0,s0,176
   10462:	04870a63          	beq	a4,s0,104b6 <__sfp+0x8a>
   10466:	01041783          	lh	a5,16(s0)
   1046a:	fbf5                	bnez	a5,1045e <__sfp+0x32>
   1046c:	77c1                	lui	a5,0xffff0
   1046e:	0785                	addi	a5,a5,1 # ffffffffffff0001 <__BSS_END__+0xfffffffffffd4b31>
   10470:	c81c                	sw	a5,16(s0)
   10472:	0a042623          	sw	zero,172(s0)
   10476:	00043023          	sd	zero,0(s0)
   1047a:	00043423          	sd	zero,8(s0)
   1047e:	00043c23          	sd	zero,24(s0)
   10482:	02042023          	sw	zero,32(s0)
   10486:	02042423          	sw	zero,40(s0)
   1048a:	4621                	li	a2,8
   1048c:	4581                	li	a1,0
   1048e:	0a440513          	addi	a0,s0,164
   10492:	432000ef          	jal	108c4 <memset>
   10496:	04043c23          	sd	zero,88(s0)
   1049a:	06042023          	sw	zero,96(s0)
   1049e:	06043c23          	sd	zero,120(s0)
   104a2:	08042023          	sw	zero,128(s0)
   104a6:	70a2                	ld	ra,40(sp)
   104a8:	8522                	mv	a0,s0
   104aa:	7402                	ld	s0,32(sp)
   104ac:	64e2                	ld	s1,24(sp)
   104ae:	6942                	ld	s2,16(sp)
   104b0:	69a2                	ld	s3,8(sp)
   104b2:	6145                	addi	sp,sp,48
   104b4:	8082                	ret
   104b6:	6080                	ld	s0,0(s1)
   104b8:	c019                	beqz	s0,104be <__sfp+0x92>
   104ba:	84a2                	mv	s1,s0
   104bc:	b779                	j	1044a <__sfp+0x1e>
   104be:	2d800593          	li	a1,728
   104c2:	854a                	mv	a0,s2
   104c4:	09b000ef          	jal	10d5e <_malloc_r>
   104c8:	842a                	mv	s0,a0
   104ca:	c115                	beqz	a0,104ee <__sfp+0xc2>
   104cc:	0561                	addi	a0,a0,24
   104ce:	4791                	li	a5,4
   104d0:	00043023          	sd	zero,0(s0)
   104d4:	c41c                	sw	a5,8(s0)
   104d6:	e808                	sd	a0,16(s0)
   104d8:	2c000613          	li	a2,704
   104dc:	4581                	li	a1,0
   104de:	3e6000ef          	jal	108c4 <memset>
   104e2:	e080                	sd	s0,0(s1)
   104e4:	84a2                	mv	s1,s0
   104e6:	b795                	j	1044a <__sfp+0x1e>
   104e8:	e41ff0ef          	jal	10328 <global_stdio_init.part.0>
   104ec:	bf91                	j	10440 <__sfp+0x14>
   104ee:	0004b023          	sd	zero,0(s1)
   104f2:	47b1                	li	a5,12
   104f4:	00f92023          	sw	a5,0(s2)
   104f8:	b77d                	j	104a6 <__sfp+0x7a>

00000000000104fa <__sinit>:
   104fa:	653c                	ld	a5,72(a0)
   104fc:	c391                	beqz	a5,10500 <__sinit+0x6>
   104fe:	8082                	ret
   10500:	2381b703          	ld	a4,568(gp) # 1af08 <__stdio_exit_handler>
   10504:	67c1                	lui	a5,0x10
   10506:	2e078793          	addi	a5,a5,736 # 102e0 <cleanup_stdio>
   1050a:	e53c                	sd	a5,72(a0)
   1050c:	fb6d                	bnez	a4,104fe <__sinit+0x4>
   1050e:	bd29                	j	10328 <global_stdio_init.part.0>

0000000000010510 <__sfp_lock_acquire>:
   10510:	8082                	ret

0000000000010512 <__sfp_lock_release>:
   10512:	8082                	ret

0000000000010514 <__fp_lock_all>:
   10514:	6669                	lui	a2,0x1a
   10516:	65c1                	lui	a1,0x10
   10518:	35060613          	addi	a2,a2,848 # 1a350 <__sglue>
   1051c:	2c858593          	addi	a1,a1,712 # 102c8 <__fp_lock>
   10520:	4501                	li	a0,0
   10522:	a809                	j	10534 <_fwalk_sglue>

0000000000010524 <__fp_unlock_all>:
   10524:	6669                	lui	a2,0x1a
   10526:	65c1                	lui	a1,0x10
   10528:	35060613          	addi	a2,a2,848 # 1a350 <__sglue>
   1052c:	32458593          	addi	a1,a1,804 # 10324 <__fp_unlock>
   10530:	4501                	li	a0,0
   10532:	a009                	j	10534 <_fwalk_sglue>

0000000000010534 <_fwalk_sglue>:
   10534:	715d                	addi	sp,sp,-80
   10536:	f84a                	sd	s2,48(sp)
   10538:	f44e                	sd	s3,40(sp)
   1053a:	f052                	sd	s4,32(sp)
   1053c:	ec56                	sd	s5,24(sp)
   1053e:	e85a                	sd	s6,16(sp)
   10540:	e45e                	sd	s7,8(sp)
   10542:	e062                	sd	s8,0(sp)
   10544:	e486                	sd	ra,72(sp)
   10546:	e0a2                	sd	s0,64(sp)
   10548:	fc26                	sd	s1,56(sp)
   1054a:	8a2a                	mv	s4,a0
   1054c:	8b2e                	mv	s6,a1
   1054e:	89b2                	mv	s3,a2
   10550:	4901                	li	s2,0
   10552:	0b000b93          	li	s7,176
   10556:	4c05                	li	s8,1
   10558:	5afd                	li	s5,-1
   1055a:	0089a483          	lw	s1,8(s3)
   1055e:	0109b403          	ld	s0,16(s3)
   10562:	02905963          	blez	s1,10594 <_fwalk_sglue+0x60>
   10566:	1482                	slli	s1,s1,0x20
   10568:	9081                	srli	s1,s1,0x20
   1056a:	037484b3          	mul	s1,s1,s7
   1056e:	94a2                	add	s1,s1,s0
   10570:	01045783          	lhu	a5,16(s0)
   10574:	00fc7c63          	bgeu	s8,a5,1058c <_fwalk_sglue+0x58>
   10578:	01241783          	lh	a5,18(s0)
   1057c:	85a2                	mv	a1,s0
   1057e:	8552                	mv	a0,s4
   10580:	01578663          	beq	a5,s5,1058c <_fwalk_sglue+0x58>
   10584:	9b02                	jalr	s6
   10586:	01256933          	or	s2,a0,s2
   1058a:	2901                	sext.w	s2,s2
   1058c:	0b040413          	addi	s0,s0,176
   10590:	fe9410e3          	bne	s0,s1,10570 <_fwalk_sglue+0x3c>
   10594:	0009b983          	ld	s3,0(s3)
   10598:	fc0991e3          	bnez	s3,1055a <_fwalk_sglue+0x26>
   1059c:	60a6                	ld	ra,72(sp)
   1059e:	6406                	ld	s0,64(sp)
   105a0:	74e2                	ld	s1,56(sp)
   105a2:	79a2                	ld	s3,40(sp)
   105a4:	7a02                	ld	s4,32(sp)
   105a6:	6ae2                	ld	s5,24(sp)
   105a8:	6b42                	ld	s6,16(sp)
   105aa:	6ba2                	ld	s7,8(sp)
   105ac:	6c02                	ld	s8,0(sp)
   105ae:	854a                	mv	a0,s2
   105b0:	7942                	ld	s2,48(sp)
   105b2:	6161                	addi	sp,sp,80
   105b4:	8082                	ret

00000000000105b6 <_printf_r>:
   105b6:	715d                	addi	sp,sp,-80
   105b8:	f032                	sd	a2,32(sp)
   105ba:	f436                	sd	a3,40(sp)
   105bc:	f83a                	sd	a4,48(sp)
   105be:	fc3e                	sd	a5,56(sp)
   105c0:	e0c2                	sd	a6,64(sp)
   105c2:	e4c6                	sd	a7,72(sp)
   105c4:	862e                	mv	a2,a1
   105c6:	690c                	ld	a1,16(a0)
   105c8:	1014                	addi	a3,sp,32
   105ca:	ec06                	sd	ra,24(sp)
   105cc:	e436                	sd	a3,8(sp)
   105ce:	597000ef          	jal	11364 <_vfprintf_r>
   105d2:	60e2                	ld	ra,24(sp)
   105d4:	6161                	addi	sp,sp,80
   105d6:	8082                	ret

00000000000105d8 <printf>:
   105d8:	2201b303          	ld	t1,544(gp) # 1aef0 <_impure_ptr>
   105dc:	711d                	addi	sp,sp,-96
   105de:	f832                	sd	a2,48(sp)
   105e0:	fc36                	sd	a3,56(sp)
   105e2:	f42e                	sd	a1,40(sp)
   105e4:	e0ba                	sd	a4,64(sp)
   105e6:	e4be                	sd	a5,72(sp)
   105e8:	e8c2                	sd	a6,80(sp)
   105ea:	ecc6                	sd	a7,88(sp)
   105ec:	01033583          	ld	a1,16(t1) # 101a6 <czero_eqz+0x6>
   105f0:	1034                	addi	a3,sp,40
   105f2:	862a                	mv	a2,a0
   105f4:	851a                	mv	a0,t1
   105f6:	ec06                	sd	ra,24(sp)
   105f8:	e436                	sd	a3,8(sp)
   105fa:	56b000ef          	jal	11364 <_vfprintf_r>
   105fe:	60e2                	ld	ra,24(sp)
   10600:	6125                	addi	sp,sp,96
   10602:	8082                	ret

0000000000010604 <__sread>:
   10604:	1141                	addi	sp,sp,-16
   10606:	e022                	sd	s0,0(sp)
   10608:	842e                	mv	s0,a1
   1060a:	01259583          	lh	a1,18(a1)
   1060e:	e406                	sd	ra,8(sp)
   10610:	1d2000ef          	jal	107e2 <_read_r>
   10614:	00054963          	bltz	a0,10626 <__sread+0x22>
   10618:	685c                	ld	a5,144(s0)
   1061a:	60a2                	ld	ra,8(sp)
   1061c:	97aa                	add	a5,a5,a0
   1061e:	e85c                	sd	a5,144(s0)
   10620:	6402                	ld	s0,0(sp)
   10622:	0141                	addi	sp,sp,16
   10624:	8082                	ret
   10626:	01045783          	lhu	a5,16(s0)
   1062a:	777d                	lui	a4,0xfffff
   1062c:	177d                	addi	a4,a4,-1 # ffffffffffffefff <__BSS_END__+0xfffffffffffe3b2f>
   1062e:	8ff9                	and	a5,a5,a4
   10630:	60a2                	ld	ra,8(sp)
   10632:	00f41823          	sh	a5,16(s0)
   10636:	6402                	ld	s0,0(sp)
   10638:	0141                	addi	sp,sp,16
   1063a:	8082                	ret

000000000001063c <__seofread>:
   1063c:	4501                	li	a0,0
   1063e:	8082                	ret

0000000000010640 <__swrite>:
   10640:	01059783          	lh	a5,16(a1)
   10644:	7179                	addi	sp,sp,-48
   10646:	f022                	sd	s0,32(sp)
   10648:	ec26                	sd	s1,24(sp)
   1064a:	e84a                	sd	s2,16(sp)
   1064c:	e44e                	sd	s3,8(sp)
   1064e:	f406                	sd	ra,40(sp)
   10650:	1007f713          	andi	a4,a5,256
   10654:	842e                	mv	s0,a1
   10656:	84aa                	mv	s1,a0
   10658:	8932                	mv	s2,a2
   1065a:	89b6                	mv	s3,a3
   1065c:	e315                	bnez	a4,10680 <__swrite+0x40>
   1065e:	777d                	lui	a4,0xfffff
   10660:	177d                	addi	a4,a4,-1 # ffffffffffffefff <__BSS_END__+0xfffffffffffe3b2f>
   10662:	8ff9                	and	a5,a5,a4
   10664:	01241583          	lh	a1,18(s0)
   10668:	00f41823          	sh	a5,16(s0)
   1066c:	7402                	ld	s0,32(sp)
   1066e:	70a2                	ld	ra,40(sp)
   10670:	86ce                	mv	a3,s3
   10672:	864a                	mv	a2,s2
   10674:	69a2                	ld	s3,8(sp)
   10676:	6942                	ld	s2,16(sp)
   10678:	8526                	mv	a0,s1
   1067a:	64e2                	ld	s1,24(sp)
   1067c:	6145                	addi	sp,sp,48
   1067e:	a245                	j	1081e <_write_r>
   10680:	01259583          	lh	a1,18(a1)
   10684:	4689                	li	a3,2
   10686:	4601                	li	a2,0
   10688:	11e000ef          	jal	107a6 <_lseek_r>
   1068c:	01041783          	lh	a5,16(s0)
   10690:	b7f9                	j	1065e <__swrite+0x1e>

0000000000010692 <__sseek>:
   10692:	1141                	addi	sp,sp,-16
   10694:	e022                	sd	s0,0(sp)
   10696:	842e                	mv	s0,a1
   10698:	01259583          	lh	a1,18(a1)
   1069c:	e406                	sd	ra,8(sp)
   1069e:	108000ef          	jal	107a6 <_lseek_r>
   106a2:	57fd                	li	a5,-1
   106a4:	02f50163          	beq	a0,a5,106c6 <__sseek+0x34>
   106a8:	01045783          	lhu	a5,16(s0)
   106ac:	6705                	lui	a4,0x1
   106ae:	60a2                	ld	ra,8(sp)
   106b0:	8fd9                	or	a5,a5,a4
   106b2:	0107979b          	slliw	a5,a5,0x10
   106b6:	4107d79b          	sraiw	a5,a5,0x10
   106ba:	e848                	sd	a0,144(s0)
   106bc:	00f41823          	sh	a5,16(s0)
   106c0:	6402                	ld	s0,0(sp)
   106c2:	0141                	addi	sp,sp,16
   106c4:	8082                	ret
   106c6:	01045783          	lhu	a5,16(s0)
   106ca:	777d                	lui	a4,0xfffff
   106cc:	177d                	addi	a4,a4,-1 # ffffffffffffefff <__BSS_END__+0xfffffffffffe3b2f>
   106ce:	8ff9                	and	a5,a5,a4
   106d0:	0107979b          	slliw	a5,a5,0x10
   106d4:	4107d79b          	sraiw	a5,a5,0x10
   106d8:	60a2                	ld	ra,8(sp)
   106da:	00f41823          	sh	a5,16(s0)
   106de:	6402                	ld	s0,0(sp)
   106e0:	0141                	addi	sp,sp,16
   106e2:	8082                	ret

00000000000106e4 <__sclose>:
   106e4:	01259583          	lh	a1,18(a1)
   106e8:	a009                	j	106ea <_close_r>

00000000000106ea <_close_r>:
   106ea:	1101                	addi	sp,sp,-32
   106ec:	e822                	sd	s0,16(sp)
   106ee:	e426                	sd	s1,8(sp)
   106f0:	842a                	mv	s0,a0
   106f2:	852e                	mv	a0,a1
   106f4:	ec06                	sd	ra,24(sp)
   106f6:	2401a023          	sw	zero,576(gp) # 1af10 <errno>
   106fa:	01c070ef          	jal	17716 <_close>
   106fe:	57fd                	li	a5,-1
   10700:	00f50763          	beq	a0,a5,1070e <_close_r+0x24>
   10704:	60e2                	ld	ra,24(sp)
   10706:	6442                	ld	s0,16(sp)
   10708:	64a2                	ld	s1,8(sp)
   1070a:	6105                	addi	sp,sp,32
   1070c:	8082                	ret
   1070e:	2401a783          	lw	a5,576(gp) # 1af10 <errno>
   10712:	dbed                	beqz	a5,10704 <_close_r+0x1a>
   10714:	60e2                	ld	ra,24(sp)
   10716:	c01c                	sw	a5,0(s0)
   10718:	6442                	ld	s0,16(sp)
   1071a:	64a2                	ld	s1,8(sp)
   1071c:	6105                	addi	sp,sp,32
   1071e:	8082                	ret

0000000000010720 <_reclaim_reent>:
   10720:	2201b783          	ld	a5,544(gp) # 1aef0 <_impure_ptr>
   10724:	08a78063          	beq	a5,a0,107a4 <_reclaim_reent+0x84>
   10728:	752c                	ld	a1,104(a0)
   1072a:	7179                	addi	sp,sp,-48
   1072c:	ec26                	sd	s1,24(sp)
   1072e:	f406                	sd	ra,40(sp)
   10730:	f022                	sd	s0,32(sp)
   10732:	84aa                	mv	s1,a0
   10734:	c98d                	beqz	a1,10766 <_reclaim_reent+0x46>
   10736:	e84a                	sd	s2,16(sp)
   10738:	e44e                	sd	s3,8(sp)
   1073a:	4901                	li	s2,0
   1073c:	20000993          	li	s3,512
   10740:	012587b3          	add	a5,a1,s2
   10744:	6380                	ld	s0,0(a5)
   10746:	c801                	beqz	s0,10756 <_reclaim_reent+0x36>
   10748:	85a2                	mv	a1,s0
   1074a:	6000                	ld	s0,0(s0)
   1074c:	8526                	mv	a0,s1
   1074e:	3cc000ef          	jal	10b1a <_free_r>
   10752:	f87d                	bnez	s0,10748 <_reclaim_reent+0x28>
   10754:	74ac                	ld	a1,104(s1)
   10756:	0921                	addi	s2,s2,8
   10758:	ff3914e3          	bne	s2,s3,10740 <_reclaim_reent+0x20>
   1075c:	8526                	mv	a0,s1
   1075e:	3bc000ef          	jal	10b1a <_free_r>
   10762:	6942                	ld	s2,16(sp)
   10764:	69a2                	ld	s3,8(sp)
   10766:	68ac                	ld	a1,80(s1)
   10768:	c581                	beqz	a1,10770 <_reclaim_reent+0x50>
   1076a:	8526                	mv	a0,s1
   1076c:	3ae000ef          	jal	10b1a <_free_r>
   10770:	70a0                	ld	s0,96(s1)
   10772:	c419                	beqz	s0,10780 <_reclaim_reent+0x60>
   10774:	85a2                	mv	a1,s0
   10776:	6000                	ld	s0,0(s0)
   10778:	8526                	mv	a0,s1
   1077a:	3a0000ef          	jal	10b1a <_free_r>
   1077e:	f87d                	bnez	s0,10774 <_reclaim_reent+0x54>
   10780:	7cac                	ld	a1,120(s1)
   10782:	c581                	beqz	a1,1078a <_reclaim_reent+0x6a>
   10784:	8526                	mv	a0,s1
   10786:	394000ef          	jal	10b1a <_free_r>
   1078a:	64bc                	ld	a5,72(s1)
   1078c:	c799                	beqz	a5,1079a <_reclaim_reent+0x7a>
   1078e:	7402                	ld	s0,32(sp)
   10790:	70a2                	ld	ra,40(sp)
   10792:	8526                	mv	a0,s1
   10794:	64e2                	ld	s1,24(sp)
   10796:	6145                	addi	sp,sp,48
   10798:	8782                	jr	a5
   1079a:	70a2                	ld	ra,40(sp)
   1079c:	7402                	ld	s0,32(sp)
   1079e:	64e2                	ld	s1,24(sp)
   107a0:	6145                	addi	sp,sp,48
   107a2:	8082                	ret
   107a4:	8082                	ret

00000000000107a6 <_lseek_r>:
   107a6:	1101                	addi	sp,sp,-32
   107a8:	872e                	mv	a4,a1
   107aa:	e822                	sd	s0,16(sp)
   107ac:	e426                	sd	s1,8(sp)
   107ae:	85b2                	mv	a1,a2
   107b0:	842a                	mv	s0,a0
   107b2:	8636                	mv	a2,a3
   107b4:	853a                	mv	a0,a4
   107b6:	ec06                	sd	ra,24(sp)
   107b8:	2401a023          	sw	zero,576(gp) # 1af10 <errno>
   107bc:	026070ef          	jal	177e2 <_lseek>
   107c0:	57fd                	li	a5,-1
   107c2:	00f50763          	beq	a0,a5,107d0 <_lseek_r+0x2a>
   107c6:	60e2                	ld	ra,24(sp)
   107c8:	6442                	ld	s0,16(sp)
   107ca:	64a2                	ld	s1,8(sp)
   107cc:	6105                	addi	sp,sp,32
   107ce:	8082                	ret
   107d0:	2401a783          	lw	a5,576(gp) # 1af10 <errno>
   107d4:	dbed                	beqz	a5,107c6 <_lseek_r+0x20>
   107d6:	60e2                	ld	ra,24(sp)
   107d8:	c01c                	sw	a5,0(s0)
   107da:	6442                	ld	s0,16(sp)
   107dc:	64a2                	ld	s1,8(sp)
   107de:	6105                	addi	sp,sp,32
   107e0:	8082                	ret

00000000000107e2 <_read_r>:
   107e2:	1101                	addi	sp,sp,-32
   107e4:	872e                	mv	a4,a1
   107e6:	e822                	sd	s0,16(sp)
   107e8:	e426                	sd	s1,8(sp)
   107ea:	85b2                	mv	a1,a2
   107ec:	842a                	mv	s0,a0
   107ee:	8636                	mv	a2,a3
   107f0:	853a                	mv	a0,a4
   107f2:	ec06                	sd	ra,24(sp)
   107f4:	2401a023          	sw	zero,576(gp) # 1af10 <errno>
   107f8:	016070ef          	jal	1780e <_read>
   107fc:	57fd                	li	a5,-1
   107fe:	00f50763          	beq	a0,a5,1080c <_read_r+0x2a>
   10802:	60e2                	ld	ra,24(sp)
   10804:	6442                	ld	s0,16(sp)
   10806:	64a2                	ld	s1,8(sp)
   10808:	6105                	addi	sp,sp,32
   1080a:	8082                	ret
   1080c:	2401a783          	lw	a5,576(gp) # 1af10 <errno>
   10810:	dbed                	beqz	a5,10802 <_read_r+0x20>
   10812:	60e2                	ld	ra,24(sp)
   10814:	c01c                	sw	a5,0(s0)
   10816:	6442                	ld	s0,16(sp)
   10818:	64a2                	ld	s1,8(sp)
   1081a:	6105                	addi	sp,sp,32
   1081c:	8082                	ret

000000000001081e <_write_r>:
   1081e:	1101                	addi	sp,sp,-32
   10820:	872e                	mv	a4,a1
   10822:	e822                	sd	s0,16(sp)
   10824:	e426                	sd	s1,8(sp)
   10826:	85b2                	mv	a1,a2
   10828:	842a                	mv	s0,a0
   1082a:	8636                	mv	a2,a3
   1082c:	853a                	mv	a0,a4
   1082e:	ec06                	sd	ra,24(sp)
   10830:	2401a023          	sw	zero,576(gp) # 1af10 <errno>
   10834:	05a070ef          	jal	1788e <_write>
   10838:	57fd                	li	a5,-1
   1083a:	00f50763          	beq	a0,a5,10848 <_write_r+0x2a>
   1083e:	60e2                	ld	ra,24(sp)
   10840:	6442                	ld	s0,16(sp)
   10842:	64a2                	ld	s1,8(sp)
   10844:	6105                	addi	sp,sp,32
   10846:	8082                	ret
   10848:	2401a783          	lw	a5,576(gp) # 1af10 <errno>
   1084c:	dbed                	beqz	a5,1083e <_write_r+0x20>
   1084e:	60e2                	ld	ra,24(sp)
   10850:	c01c                	sw	a5,0(s0)
   10852:	6442                	ld	s0,16(sp)
   10854:	64a2                	ld	s1,8(sp)
   10856:	6105                	addi	sp,sp,32
   10858:	8082                	ret

000000000001085a <__libc_init_array>:
   1085a:	1101                	addi	sp,sp,-32
   1085c:	e822                	sd	s0,16(sp)
   1085e:	67e9                	lui	a5,0x1a
   10860:	6469                	lui	s0,0x1a
   10862:	e04a                	sd	s2,0(sp)
   10864:	33478793          	addi	a5,a5,820 # 1a334 <__preinit_array_end>
   10868:	33440713          	addi	a4,s0,820 # 1a334 <__preinit_array_end>
   1086c:	ec06                	sd	ra,24(sp)
   1086e:	e426                	sd	s1,8(sp)
   10870:	40e78933          	sub	s2,a5,a4
   10874:	00e78d63          	beq	a5,a4,1088e <__libc_init_array+0x34>
   10878:	40395913          	srai	s2,s2,0x3
   1087c:	33440413          	addi	s0,s0,820
   10880:	4481                	li	s1,0
   10882:	601c                	ld	a5,0(s0)
   10884:	0485                	addi	s1,s1,1
   10886:	0421                	addi	s0,s0,8
   10888:	9782                	jalr	a5
   1088a:	ff24ece3          	bltu	s1,s2,10882 <__libc_init_array+0x28>
   1088e:	6469                	lui	s0,0x1a
   10890:	67e9                	lui	a5,0x1a
   10892:	34878793          	addi	a5,a5,840 # 1a348 <__do_global_dtors_aux_fini_array_entry>
   10896:	33840713          	addi	a4,s0,824 # 1a338 <__init_array_start>
   1089a:	40e78933          	sub	s2,a5,a4
   1089e:	40395913          	srai	s2,s2,0x3
   108a2:	00e78b63          	beq	a5,a4,108b8 <__libc_init_array+0x5e>
   108a6:	33840413          	addi	s0,s0,824
   108aa:	4481                	li	s1,0
   108ac:	601c                	ld	a5,0(s0)
   108ae:	0485                	addi	s1,s1,1
   108b0:	0421                	addi	s0,s0,8
   108b2:	9782                	jalr	a5
   108b4:	ff24ece3          	bltu	s1,s2,108ac <__libc_init_array+0x52>
   108b8:	60e2                	ld	ra,24(sp)
   108ba:	6442                	ld	s0,16(sp)
   108bc:	64a2                	ld	s1,8(sp)
   108be:	6902                	ld	s2,0(sp)
   108c0:	6105                	addi	sp,sp,32
   108c2:	8082                	ret

00000000000108c4 <memset>:
   108c4:	433d                	li	t1,15
   108c6:	872a                	mv	a4,a0
   108c8:	02c37163          	bgeu	t1,a2,108ea <memset+0x26>
   108cc:	00f77793          	andi	a5,a4,15
   108d0:	e3c1                	bnez	a5,10950 <memset+0x8c>
   108d2:	e1bd                	bnez	a1,10938 <memset+0x74>
   108d4:	ff067693          	andi	a3,a2,-16
   108d8:	8a3d                	andi	a2,a2,15
   108da:	96ba                	add	a3,a3,a4
   108dc:	e30c                	sd	a1,0(a4)
   108de:	e70c                	sd	a1,8(a4)
   108e0:	0741                	addi	a4,a4,16
   108e2:	fed76de3          	bltu	a4,a3,108dc <memset+0x18>
   108e6:	e211                	bnez	a2,108ea <memset+0x26>
   108e8:	8082                	ret
   108ea:	40c306b3          	sub	a3,t1,a2
   108ee:	068a                	slli	a3,a3,0x2
   108f0:	00000297          	auipc	t0,0x0
   108f4:	9696                	add	a3,a3,t0
   108f6:	00a68067          	jr	10(a3)
   108fa:	00b70723          	sb	a1,14(a4)
   108fe:	00b706a3          	sb	a1,13(a4)
   10902:	00b70623          	sb	a1,12(a4)
   10906:	00b705a3          	sb	a1,11(a4)
   1090a:	00b70523          	sb	a1,10(a4)
   1090e:	00b704a3          	sb	a1,9(a4)
   10912:	00b70423          	sb	a1,8(a4)
   10916:	00b703a3          	sb	a1,7(a4)
   1091a:	00b70323          	sb	a1,6(a4)
   1091e:	00b702a3          	sb	a1,5(a4)
   10922:	00b70223          	sb	a1,4(a4)
   10926:	00b701a3          	sb	a1,3(a4)
   1092a:	00b70123          	sb	a1,2(a4)
   1092e:	00b700a3          	sb	a1,1(a4)
   10932:	00b70023          	sb	a1,0(a4)
   10936:	8082                	ret
   10938:	0ff5f593          	zext.b	a1,a1
   1093c:	00859693          	slli	a3,a1,0x8
   10940:	8dd5                	or	a1,a1,a3
   10942:	01059693          	slli	a3,a1,0x10
   10946:	8dd5                	or	a1,a1,a3
   10948:	02059693          	slli	a3,a1,0x20
   1094c:	8dd5                	or	a1,a1,a3
   1094e:	b759                	j	108d4 <memset+0x10>
   10950:	00279693          	slli	a3,a5,0x2
   10954:	00000297          	auipc	t0,0x0
   10958:	9696                	add	a3,a3,t0
   1095a:	8286                	mv	t0,ra
   1095c:	fa2680e7          	jalr	-94(a3)
   10960:	8096                	mv	ra,t0
   10962:	17c1                	addi	a5,a5,-16
   10964:	8f1d                	sub	a4,a4,a5
   10966:	963e                	add	a2,a2,a5
   10968:	f8c371e3          	bgeu	t1,a2,108ea <memset+0x26>
   1096c:	b79d                	j	108d2 <memset+0xe>

000000000001096e <__call_exitprocs>:
   1096e:	715d                	addi	sp,sp,-80
   10970:	f052                	sd	s4,32(sp)
   10972:	f84a                	sd	s2,48(sp)
   10974:	2481b903          	ld	s2,584(gp) # 1af18 <__atexit>
   10978:	e486                	sd	ra,72(sp)
   1097a:	06090d63          	beqz	s2,109f4 <__call_exitprocs+0x86>
   1097e:	f44e                	sd	s3,40(sp)
   10980:	ec56                	sd	s5,24(sp)
   10982:	e85a                	sd	s6,16(sp)
   10984:	e45e                	sd	s7,8(sp)
   10986:	e0a2                	sd	s0,64(sp)
   10988:	fc26                	sd	s1,56(sp)
   1098a:	e062                	sd	s8,0(sp)
   1098c:	8b2a                	mv	s6,a0
   1098e:	8bae                	mv	s7,a1
   10990:	59fd                	li	s3,-1
   10992:	4a85                	li	s5,1
   10994:	00892483          	lw	s1,8(s2)
   10998:	fff4841b          	addiw	s0,s1,-1
   1099c:	04044563          	bltz	s0,109e6 <__call_exitprocs+0x78>
   109a0:	048e                	slli	s1,s1,0x3
   109a2:	94ca                	add	s1,s1,s2
   109a4:	040b9d63          	bnez	s7,109fe <__call_exitprocs+0x90>
   109a8:	00892783          	lw	a5,8(s2)
   109ac:	6498                	ld	a4,8(s1)
   109ae:	37fd                	addiw	a5,a5,-1
   109b0:	08878263          	beq	a5,s0,10a34 <__call_exitprocs+0xc6>
   109b4:	0004b423          	sd	zero,8(s1)
   109b8:	c31d                	beqz	a4,109de <__call_exitprocs+0x70>
   109ba:	31092783          	lw	a5,784(s2)
   109be:	008a96bb          	sllw	a3,s5,s0
   109c2:	00892c03          	lw	s8,8(s2)
   109c6:	8ff5                	and	a5,a5,a3
   109c8:	2781                	sext.w	a5,a5
   109ca:	e3b9                	bnez	a5,10a10 <__call_exitprocs+0xa2>
   109cc:	9702                	jalr	a4
   109ce:	00892703          	lw	a4,8(s2)
   109d2:	2481b783          	ld	a5,584(gp) # 1af18 <__atexit>
   109d6:	05871c63          	bne	a4,s8,10a2e <__call_exitprocs+0xc0>
   109da:	05279a63          	bne	a5,s2,10a2e <__call_exitprocs+0xc0>
   109de:	347d                	addiw	s0,s0,-1
   109e0:	14e1                	addi	s1,s1,-8
   109e2:	fd3411e3          	bne	s0,s3,109a4 <__call_exitprocs+0x36>
   109e6:	6406                	ld	s0,64(sp)
   109e8:	74e2                	ld	s1,56(sp)
   109ea:	79a2                	ld	s3,40(sp)
   109ec:	6ae2                	ld	s5,24(sp)
   109ee:	6b42                	ld	s6,16(sp)
   109f0:	6ba2                	ld	s7,8(sp)
   109f2:	6c02                	ld	s8,0(sp)
   109f4:	60a6                	ld	ra,72(sp)
   109f6:	7942                	ld	s2,48(sp)
   109f8:	7a02                	ld	s4,32(sp)
   109fa:	6161                	addi	sp,sp,80
   109fc:	8082                	ret
   109fe:	2084b783          	ld	a5,520(s1)
   10a02:	fb7783e3          	beq	a5,s7,109a8 <__call_exitprocs+0x3a>
   10a06:	347d                	addiw	s0,s0,-1
   10a08:	14e1                	addi	s1,s1,-8
   10a0a:	ff341ae3          	bne	s0,s3,109fe <__call_exitprocs+0x90>
   10a0e:	bfe1                	j	109e6 <__call_exitprocs+0x78>
   10a10:	31492783          	lw	a5,788(s2)
   10a14:	1084b583          	ld	a1,264(s1)
   10a18:	8ff5                	and	a5,a5,a3
   10a1a:	2781                	sext.w	a5,a5
   10a1c:	ef99                	bnez	a5,10a3a <__call_exitprocs+0xcc>
   10a1e:	855a                	mv	a0,s6
   10a20:	9702                	jalr	a4
   10a22:	00892703          	lw	a4,8(s2)
   10a26:	2481b783          	ld	a5,584(gp) # 1af18 <__atexit>
   10a2a:	fb8708e3          	beq	a4,s8,109da <__call_exitprocs+0x6c>
   10a2e:	dfc5                	beqz	a5,109e6 <__call_exitprocs+0x78>
   10a30:	893e                	mv	s2,a5
   10a32:	b78d                	j	10994 <__call_exitprocs+0x26>
   10a34:	00892423          	sw	s0,8(s2)
   10a38:	b741                	j	109b8 <__call_exitprocs+0x4a>
   10a3a:	852e                	mv	a0,a1
   10a3c:	9702                	jalr	a4
   10a3e:	bf41                	j	109ce <__call_exitprocs+0x60>

0000000000010a40 <atexit>:
   10a40:	85aa                	mv	a1,a0
   10a42:	4681                	li	a3,0
   10a44:	4601                	li	a2,0
   10a46:	4501                	li	a0,0
   10a48:	1660306f          	j	13bae <__register_exitproc>

0000000000010a4c <_malloc_trim_r>:
   10a4c:	7179                	addi	sp,sp,-48
   10a4e:	e44e                	sd	s3,8(sp)
   10a50:	69e9                	lui	s3,0x1a
   10a52:	f022                	sd	s0,32(sp)
   10a54:	ec26                	sd	s1,24(sp)
   10a56:	e84a                	sd	s2,16(sp)
   10a58:	e052                	sd	s4,0(sp)
   10a5a:	f406                	sd	ra,40(sp)
   10a5c:	8a2e                	mv	s4,a1
   10a5e:	892a                	mv	s2,a0
   10a60:	4c098993          	addi	s3,s3,1216 # 1a4c0 <__malloc_av_>
   10a64:	0fd000ef          	jal	11360 <__malloc_lock>
   10a68:	0109b703          	ld	a4,16(s3)
   10a6c:	6785                	lui	a5,0x1
   10a6e:	fdf78793          	addi	a5,a5,-33 # fdf <exit-0xf109>
   10a72:	6704                	ld	s1,8(a4)
   10a74:	6705                	lui	a4,0x1
   10a76:	98f1                	andi	s1,s1,-4
   10a78:	00f48433          	add	s0,s1,a5
   10a7c:	41440433          	sub	s0,s0,s4
   10a80:	8031                	srli	s0,s0,0xc
   10a82:	147d                	addi	s0,s0,-1
   10a84:	0432                	slli	s0,s0,0xc
   10a86:	00e44b63          	blt	s0,a4,10a9c <_malloc_trim_r+0x50>
   10a8a:	4581                	li	a1,0
   10a8c:	854a                	mv	a0,s2
   10a8e:	54d020ef          	jal	137da <_sbrk_r>
   10a92:	0109b783          	ld	a5,16(s3)
   10a96:	97a6                	add	a5,a5,s1
   10a98:	00f50e63          	beq	a0,a5,10ab4 <_malloc_trim_r+0x68>
   10a9c:	854a                	mv	a0,s2
   10a9e:	0c5000ef          	jal	11362 <__malloc_unlock>
   10aa2:	70a2                	ld	ra,40(sp)
   10aa4:	7402                	ld	s0,32(sp)
   10aa6:	64e2                	ld	s1,24(sp)
   10aa8:	6942                	ld	s2,16(sp)
   10aaa:	69a2                	ld	s3,8(sp)
   10aac:	6a02                	ld	s4,0(sp)
   10aae:	4501                	li	a0,0
   10ab0:	6145                	addi	sp,sp,48
   10ab2:	8082                	ret
   10ab4:	408005b3          	neg	a1,s0
   10ab8:	854a                	mv	a0,s2
   10aba:	521020ef          	jal	137da <_sbrk_r>
   10abe:	57fd                	li	a5,-1
   10ac0:	02f50963          	beq	a0,a5,10af2 <_malloc_trim_r+0xa6>
   10ac4:	4c018793          	addi	a5,gp,1216 # 1b190 <__malloc_current_mallinfo>
   10ac8:	4398                	lw	a4,0(a5)
   10aca:	0109b683          	ld	a3,16(s3)
   10ace:	8c81                	sub	s1,s1,s0
   10ad0:	0014e493          	ori	s1,s1,1
   10ad4:	9f01                	subw	a4,a4,s0
   10ad6:	854a                	mv	a0,s2
   10ad8:	e684                	sd	s1,8(a3)
   10ada:	c398                	sw	a4,0(a5)
   10adc:	087000ef          	jal	11362 <__malloc_unlock>
   10ae0:	70a2                	ld	ra,40(sp)
   10ae2:	7402                	ld	s0,32(sp)
   10ae4:	64e2                	ld	s1,24(sp)
   10ae6:	6942                	ld	s2,16(sp)
   10ae8:	69a2                	ld	s3,8(sp)
   10aea:	6a02                	ld	s4,0(sp)
   10aec:	4505                	li	a0,1
   10aee:	6145                	addi	sp,sp,48
   10af0:	8082                	ret
   10af2:	4581                	li	a1,0
   10af4:	854a                	mv	a0,s2
   10af6:	4e5020ef          	jal	137da <_sbrk_r>
   10afa:	0109b703          	ld	a4,16(s3)
   10afe:	46fd                	li	a3,31
   10b00:	40e507b3          	sub	a5,a0,a4
   10b04:	f8f6dce3          	bge	a3,a5,10a9c <_malloc_trim_r+0x50>
   10b08:	2281b683          	ld	a3,552(gp) # 1aef8 <__malloc_sbrk_base>
   10b0c:	0017e793          	ori	a5,a5,1
   10b10:	e71c                	sd	a5,8(a4)
   10b12:	8d15                	sub	a0,a0,a3
   10b14:	4ca1a023          	sw	a0,1216(gp) # 1b190 <__malloc_current_mallinfo>
   10b18:	b751                	j	10a9c <_malloc_trim_r+0x50>

0000000000010b1a <_free_r>:
   10b1a:	12058163          	beqz	a1,10c3c <_free_r+0x122>
   10b1e:	1101                	addi	sp,sp,-32
   10b20:	e822                	sd	s0,16(sp)
   10b22:	e426                	sd	s1,8(sp)
   10b24:	842e                	mv	s0,a1
   10b26:	84aa                	mv	s1,a0
   10b28:	ec06                	sd	ra,24(sp)
   10b2a:	037000ef          	jal	11360 <__malloc_lock>
   10b2e:	ff843503          	ld	a0,-8(s0)
   10b32:	ff040713          	addi	a4,s0,-16
   10b36:	65e9                	lui	a1,0x1a
   10b38:	ffe57793          	andi	a5,a0,-2
   10b3c:	00f70633          	add	a2,a4,a5
   10b40:	4c058593          	addi	a1,a1,1216 # 1a4c0 <__malloc_av_>
   10b44:	6614                	ld	a3,8(a2)
   10b46:	0105b803          	ld	a6,16(a1)
   10b4a:	9af1                	andi	a3,a3,-4
   10b4c:	12c80a63          	beq	a6,a2,10c80 <_free_r+0x166>
   10b50:	e614                	sd	a3,8(a2)
   10b52:	8905                	andi	a0,a0,1
   10b54:	00d60833          	add	a6,a2,a3
   10b58:	ed3d                	bnez	a0,10bd6 <_free_r+0xbc>
   10b5a:	ff043303          	ld	t1,-16(s0)
   10b5e:	00883803          	ld	a6,8(a6)
   10b62:	6569                	lui	a0,0x1a
   10b64:	40670733          	sub	a4,a4,t1
   10b68:	01073883          	ld	a7,16(a4) # 1010 <exit-0xf0d8>
   10b6c:	4d050513          	addi	a0,a0,1232 # 1a4d0 <__malloc_av_+0x10>
   10b70:	979a                	add	a5,a5,t1
   10b72:	00187813          	andi	a6,a6,1
   10b76:	0ea88863          	beq	a7,a0,10c66 <_free_r+0x14c>
   10b7a:	01873303          	ld	t1,24(a4)
   10b7e:	0068bc23          	sd	t1,24(a7)
   10b82:	01133823          	sd	a7,16(t1)
   10b86:	12080663          	beqz	a6,10cb2 <_free_r+0x198>
   10b8a:	0017e693          	ori	a3,a5,1
   10b8e:	e714                	sd	a3,8(a4)
   10b90:	e21c                	sd	a5,0(a2)
   10b92:	1ff00693          	li	a3,511
   10b96:	04f6ed63          	bltu	a3,a5,10bf0 <_free_r+0xd6>
   10b9a:	838d                	srli	a5,a5,0x3
   10b9c:	0017869b          	addiw	a3,a5,1
   10ba0:	0016969b          	slliw	a3,a3,0x1
   10ba4:	068e                	slli	a3,a3,0x3
   10ba6:	0085b803          	ld	a6,8(a1)
   10baa:	96ae                	add	a3,a3,a1
   10bac:	6288                	ld	a0,0(a3)
   10bae:	4027d61b          	sraiw	a2,a5,0x2
   10bb2:	4785                	li	a5,1
   10bb4:	00c797b3          	sll	a5,a5,a2
   10bb8:	0107e7b3          	or	a5,a5,a6
   10bbc:	ff068613          	addi	a2,a3,-16
   10bc0:	ef10                	sd	a2,24(a4)
   10bc2:	eb08                	sd	a0,16(a4)
   10bc4:	e59c                	sd	a5,8(a1)
   10bc6:	e298                	sd	a4,0(a3)
   10bc8:	ed18                	sd	a4,24(a0)
   10bca:	6442                	ld	s0,16(sp)
   10bcc:	60e2                	ld	ra,24(sp)
   10bce:	8526                	mv	a0,s1
   10bd0:	64a2                	ld	s1,8(sp)
   10bd2:	6105                	addi	sp,sp,32
   10bd4:	a779                	j	11362 <__malloc_unlock>
   10bd6:	00883503          	ld	a0,8(a6)
   10bda:	8905                	andi	a0,a0,1
   10bdc:	c12d                	beqz	a0,10c3e <_free_r+0x124>
   10bde:	0017e693          	ori	a3,a5,1
   10be2:	fed43c23          	sd	a3,-8(s0)
   10be6:	e21c                	sd	a5,0(a2)
   10be8:	1ff00693          	li	a3,511
   10bec:	faf6f7e3          	bgeu	a3,a5,10b9a <_free_r+0x80>
   10bf0:	0097d693          	srli	a3,a5,0x9
   10bf4:	4611                	li	a2,4
   10bf6:	0cd66063          	bltu	a2,a3,10cb6 <_free_r+0x19c>
   10bfa:	0067d693          	srli	a3,a5,0x6
   10bfe:	0396851b          	addiw	a0,a3,57
   10c02:	0015151b          	slliw	a0,a0,0x1
   10c06:	0386861b          	addiw	a2,a3,56
   10c0a:	050e                	slli	a0,a0,0x3
   10c0c:	952e                	add	a0,a0,a1
   10c0e:	6114                	ld	a3,0(a0)
   10c10:	1541                	addi	a0,a0,-16
   10c12:	00d51663          	bne	a0,a3,10c1e <_free_r+0x104>
   10c16:	a0dd                	j	10cfc <_free_r+0x1e2>
   10c18:	6a94                	ld	a3,16(a3)
   10c1a:	00d50663          	beq	a0,a3,10c26 <_free_r+0x10c>
   10c1e:	6690                	ld	a2,8(a3)
   10c20:	9a71                	andi	a2,a2,-4
   10c22:	fec7ebe3          	bltu	a5,a2,10c18 <_free_r+0xfe>
   10c26:	6e88                	ld	a0,24(a3)
   10c28:	ef08                	sd	a0,24(a4)
   10c2a:	eb14                	sd	a3,16(a4)
   10c2c:	6442                	ld	s0,16(sp)
   10c2e:	e918                	sd	a4,16(a0)
   10c30:	60e2                	ld	ra,24(sp)
   10c32:	8526                	mv	a0,s1
   10c34:	64a2                	ld	s1,8(sp)
   10c36:	ee98                	sd	a4,24(a3)
   10c38:	6105                	addi	sp,sp,32
   10c3a:	a725                	j	11362 <__malloc_unlock>
   10c3c:	8082                	ret
   10c3e:	6569                	lui	a0,0x1a
   10c40:	97b6                	add	a5,a5,a3
   10c42:	4d050513          	addi	a0,a0,1232 # 1a4d0 <__malloc_av_+0x10>
   10c46:	6a14                	ld	a3,16(a2)
   10c48:	0aa68063          	beq	a3,a0,10ce8 <_free_r+0x1ce>
   10c4c:	01863803          	ld	a6,24(a2)
   10c50:	0017e513          	ori	a0,a5,1
   10c54:	00f70633          	add	a2,a4,a5
   10c58:	0106bc23          	sd	a6,24(a3)
   10c5c:	00d83823          	sd	a3,16(a6)
   10c60:	e708                	sd	a0,8(a4)
   10c62:	e21c                	sd	a5,0(a2)
   10c64:	b73d                	j	10b92 <_free_r+0x78>
   10c66:	0e081763          	bnez	a6,10d54 <_free_r+0x23a>
   10c6a:	6a0c                	ld	a1,16(a2)
   10c6c:	6e10                	ld	a2,24(a2)
   10c6e:	96be                	add	a3,a3,a5
   10c70:	0016e793          	ori	a5,a3,1
   10c74:	ed90                	sd	a2,24(a1)
   10c76:	ea0c                	sd	a1,16(a2)
   10c78:	e71c                	sd	a5,8(a4)
   10c7a:	9736                	add	a4,a4,a3
   10c7c:	e314                	sd	a3,0(a4)
   10c7e:	b7b1                	j	10bca <_free_r+0xb0>
   10c80:	8905                	andi	a0,a0,1
   10c82:	96be                	add	a3,a3,a5
   10c84:	e909                	bnez	a0,10c96 <_free_r+0x17c>
   10c86:	ff043503          	ld	a0,-16(s0)
   10c8a:	8f09                	sub	a4,a4,a0
   10c8c:	6f1c                	ld	a5,24(a4)
   10c8e:	6b10                	ld	a2,16(a4)
   10c90:	96aa                	add	a3,a3,a0
   10c92:	ee1c                	sd	a5,24(a2)
   10c94:	eb90                	sd	a2,16(a5)
   10c96:	0016e613          	ori	a2,a3,1
   10c9a:	2301b783          	ld	a5,560(gp) # 1af00 <__malloc_trim_threshold>
   10c9e:	e710                	sd	a2,8(a4)
   10ca0:	e998                	sd	a4,16(a1)
   10ca2:	f2f6e4e3          	bltu	a3,a5,10bca <_free_r+0xb0>
   10ca6:	2601b583          	ld	a1,608(gp) # 1af30 <__malloc_top_pad>
   10caa:	8526                	mv	a0,s1
   10cac:	da1ff0ef          	jal	10a4c <_malloc_trim_r>
   10cb0:	bf29                	j	10bca <_free_r+0xb0>
   10cb2:	97b6                	add	a5,a5,a3
   10cb4:	bf49                	j	10c46 <_free_r+0x12c>
   10cb6:	4651                	li	a2,20
   10cb8:	02d67063          	bgeu	a2,a3,10cd8 <_free_r+0x1be>
   10cbc:	05400613          	li	a2,84
   10cc0:	04d66963          	bltu	a2,a3,10d12 <_free_r+0x1f8>
   10cc4:	00c7d693          	srli	a3,a5,0xc
   10cc8:	06f6851b          	addiw	a0,a3,111
   10ccc:	0015151b          	slliw	a0,a0,0x1
   10cd0:	06e6861b          	addiw	a2,a3,110
   10cd4:	050e                	slli	a0,a0,0x3
   10cd6:	bf1d                	j	10c0c <_free_r+0xf2>
   10cd8:	05c6851b          	addiw	a0,a3,92
   10cdc:	0015151b          	slliw	a0,a0,0x1
   10ce0:	05b6861b          	addiw	a2,a3,91
   10ce4:	050e                	slli	a0,a0,0x3
   10ce6:	b71d                	j	10c0c <_free_r+0xf2>
   10ce8:	f598                	sd	a4,40(a1)
   10cea:	f198                	sd	a4,32(a1)
   10cec:	0017e693          	ori	a3,a5,1
   10cf0:	ef08                	sd	a0,24(a4)
   10cf2:	eb08                	sd	a0,16(a4)
   10cf4:	e714                	sd	a3,8(a4)
   10cf6:	973e                	add	a4,a4,a5
   10cf8:	e31c                	sd	a5,0(a4)
   10cfa:	bdc1                	j	10bca <_free_r+0xb0>
   10cfc:	0085b803          	ld	a6,8(a1)
   10d00:	4026561b          	sraiw	a2,a2,0x2
   10d04:	4785                	li	a5,1
   10d06:	00c797b3          	sll	a5,a5,a2
   10d0a:	0107e7b3          	or	a5,a5,a6
   10d0e:	e59c                	sd	a5,8(a1)
   10d10:	bf21                	j	10c28 <_free_r+0x10e>
   10d12:	15400613          	li	a2,340
   10d16:	00d66c63          	bltu	a2,a3,10d2e <_free_r+0x214>
   10d1a:	00f7d693          	srli	a3,a5,0xf
   10d1e:	0786851b          	addiw	a0,a3,120
   10d22:	0015151b          	slliw	a0,a0,0x1
   10d26:	0776861b          	addiw	a2,a3,119
   10d2a:	050e                	slli	a0,a0,0x3
   10d2c:	b5c5                	j	10c0c <_free_r+0xf2>
   10d2e:	55400613          	li	a2,1364
   10d32:	00d66c63          	bltu	a2,a3,10d4a <_free_r+0x230>
   10d36:	0127d693          	srli	a3,a5,0x12
   10d3a:	07d6851b          	addiw	a0,a3,125
   10d3e:	0015151b          	slliw	a0,a0,0x1
   10d42:	07c6861b          	addiw	a2,a3,124
   10d46:	050e                	slli	a0,a0,0x3
   10d48:	b5d1                	j	10c0c <_free_r+0xf2>
   10d4a:	7f000513          	li	a0,2032
   10d4e:	07e00613          	li	a2,126
   10d52:	bd6d                	j	10c0c <_free_r+0xf2>
   10d54:	0017e693          	ori	a3,a5,1
   10d58:	e714                	sd	a3,8(a4)
   10d5a:	e21c                	sd	a5,0(a2)
   10d5c:	b5bd                	j	10bca <_free_r+0xb0>

0000000000010d5e <_malloc_r>:
   10d5e:	711d                	addi	sp,sp,-96
   10d60:	e4a6                	sd	s1,72(sp)
   10d62:	e0ca                	sd	s2,64(sp)
   10d64:	ec86                	sd	ra,88(sp)
   10d66:	e8a2                	sd	s0,80(sp)
   10d68:	fc4e                	sd	s3,56(sp)
   10d6a:	01758493          	addi	s1,a1,23
   10d6e:	02e00793          	li	a5,46
   10d72:	892a                	mv	s2,a0
   10d74:	0497ed63          	bltu	a5,s1,10dce <_malloc_r+0x70>
   10d78:	02000793          	li	a5,32
   10d7c:	18b7e963          	bltu	a5,a1,10f0e <_malloc_r+0x1b0>
   10d80:	5e0000ef          	jal	11360 <__malloc_lock>
   10d84:	05000793          	li	a5,80
   10d88:	4591                	li	a1,4
   10d8a:	02000493          	li	s1,32
   10d8e:	69e9                	lui	s3,0x1a
   10d90:	4c098993          	addi	s3,s3,1216 # 1a4c0 <__malloc_av_>
   10d94:	97ce                	add	a5,a5,s3
   10d96:	6780                	ld	s0,8(a5)
   10d98:	ff078713          	addi	a4,a5,-16
   10d9c:	26e40d63          	beq	s0,a4,11016 <_malloc_r+0x2b8>
   10da0:	641c                	ld	a5,8(s0)
   10da2:	6c14                	ld	a3,24(s0)
   10da4:	6810                	ld	a2,16(s0)
   10da6:	9bf1                	andi	a5,a5,-4
   10da8:	97a2                	add	a5,a5,s0
   10daa:	6798                	ld	a4,8(a5)
   10dac:	ee14                	sd	a3,24(a2)
   10dae:	ea90                	sd	a2,16(a3)
   10db0:	00176713          	ori	a4,a4,1
   10db4:	854a                	mv	a0,s2
   10db6:	e798                	sd	a4,8(a5)
   10db8:	5aa000ef          	jal	11362 <__malloc_unlock>
   10dbc:	01040513          	addi	a0,s0,16
   10dc0:	60e6                	ld	ra,88(sp)
   10dc2:	6446                	ld	s0,80(sp)
   10dc4:	64a6                	ld	s1,72(sp)
   10dc6:	6906                	ld	s2,64(sp)
   10dc8:	79e2                	ld	s3,56(sp)
   10dca:	6125                	addi	sp,sp,96
   10dcc:	8082                	ret
   10dce:	800007b7          	lui	a5,0x80000
   10dd2:	98c1                	andi	s1,s1,-16
   10dd4:	fff7c793          	not	a5,a5
   10dd8:	1297eb63          	bltu	a5,s1,10f0e <_malloc_r+0x1b0>
   10ddc:	12b4e963          	bltu	s1,a1,10f0e <_malloc_r+0x1b0>
   10de0:	580000ef          	jal	11360 <__malloc_lock>
   10de4:	1f700793          	li	a5,503
   10de8:	3297f263          	bgeu	a5,s1,1110c <_malloc_r+0x3ae>
   10dec:	0094d793          	srli	a5,s1,0x9
   10df0:	12078463          	beqz	a5,10f18 <_malloc_r+0x1ba>
   10df4:	4711                	li	a4,4
   10df6:	26f76763          	bltu	a4,a5,11064 <_malloc_r+0x306>
   10dfa:	0064d793          	srli	a5,s1,0x6
   10dfe:	0397859b          	addiw	a1,a5,57 # ffffffff80000039 <__BSS_END__+0xffffffff7ffe4b69>
   10e02:	0015961b          	slliw	a2,a1,0x1
   10e06:	0387881b          	addiw	a6,a5,56
   10e0a:	060e                	slli	a2,a2,0x3
   10e0c:	69e9                	lui	s3,0x1a
   10e0e:	4c098993          	addi	s3,s3,1216 # 1a4c0 <__malloc_av_>
   10e12:	964e                	add	a2,a2,s3
   10e14:	6600                	ld	s0,8(a2)
   10e16:	1641                	addi	a2,a2,-16
   10e18:	02860163          	beq	a2,s0,10e3a <_malloc_r+0xdc>
   10e1c:	457d                	li	a0,31
   10e1e:	a039                	j	10e2c <_malloc_r+0xce>
   10e20:	6c14                	ld	a3,24(s0)
   10e22:	1e075863          	bgez	a4,11012 <_malloc_r+0x2b4>
   10e26:	00d60a63          	beq	a2,a3,10e3a <_malloc_r+0xdc>
   10e2a:	8436                	mv	s0,a3
   10e2c:	641c                	ld	a5,8(s0)
   10e2e:	9bf1                	andi	a5,a5,-4
   10e30:	40978733          	sub	a4,a5,s1
   10e34:	fee556e3          	bge	a0,a4,10e20 <_malloc_r+0xc2>
   10e38:	85c2                	mv	a1,a6
   10e3a:	0209b403          	ld	s0,32(s3)
   10e3e:	6869                	lui	a6,0x1a
   10e40:	4d080813          	addi	a6,a6,1232 # 1a4d0 <__malloc_av_+0x10>
   10e44:	1d040463          	beq	s0,a6,1100c <_malloc_r+0x2ae>
   10e48:	641c                	ld	a5,8(s0)
   10e4a:	46fd                	li	a3,31
   10e4c:	9bf1                	andi	a5,a5,-4
   10e4e:	40978733          	sub	a4,a5,s1
   10e52:	28e6c663          	blt	a3,a4,110de <_malloc_r+0x380>
   10e56:	0309b423          	sd	a6,40(s3)
   10e5a:	0309b023          	sd	a6,32(s3)
   10e5e:	26075563          	bgez	a4,110c8 <_malloc_r+0x36a>
   10e62:	1ff00713          	li	a4,511
   10e66:	0089b503          	ld	a0,8(s3)
   10e6a:	1af76b63          	bltu	a4,a5,11020 <_malloc_r+0x2c2>
   10e6e:	838d                	srli	a5,a5,0x3
   10e70:	0017871b          	addiw	a4,a5,1
   10e74:	0017171b          	slliw	a4,a4,0x1
   10e78:	070e                	slli	a4,a4,0x3
   10e7a:	974e                	add	a4,a4,s3
   10e7c:	6310                	ld	a2,0(a4)
   10e7e:	4027d79b          	sraiw	a5,a5,0x2
   10e82:	4685                	li	a3,1
   10e84:	00f697b3          	sll	a5,a3,a5
   10e88:	8d5d                	or	a0,a0,a5
   10e8a:	ff070793          	addi	a5,a4,-16
   10e8e:	ec1c                	sd	a5,24(s0)
   10e90:	e810                	sd	a2,16(s0)
   10e92:	00a9b423          	sd	a0,8(s3)
   10e96:	e300                	sd	s0,0(a4)
   10e98:	ee00                	sd	s0,24(a2)
   10e9a:	4025d79b          	sraiw	a5,a1,0x2
   10e9e:	4605                	li	a2,1
   10ea0:	00f61633          	sll	a2,a2,a5
   10ea4:	08c56163          	bltu	a0,a2,10f26 <_malloc_r+0x1c8>
   10ea8:	00a677b3          	and	a5,a2,a0
   10eac:	ef81                	bnez	a5,10ec4 <_malloc_r+0x166>
   10eae:	0606                	slli	a2,a2,0x1
   10eb0:	99f1                	andi	a1,a1,-4
   10eb2:	00a677b3          	and	a5,a2,a0
   10eb6:	2591                	addiw	a1,a1,4
   10eb8:	e791                	bnez	a5,10ec4 <_malloc_r+0x166>
   10eba:	0606                	slli	a2,a2,0x1
   10ebc:	00a677b3          	and	a5,a2,a0
   10ec0:	2591                	addiw	a1,a1,4
   10ec2:	dfe5                	beqz	a5,10eba <_malloc_r+0x15c>
   10ec4:	48fd                	li	a7,31
   10ec6:	0015831b          	addiw	t1,a1,1
   10eca:	0013131b          	slliw	t1,t1,0x1
   10ece:	030e                	slli	t1,t1,0x3
   10ed0:	1341                	addi	t1,t1,-16
   10ed2:	934e                	add	t1,t1,s3
   10ed4:	851a                	mv	a0,t1
   10ed6:	6d1c                	ld	a5,24(a0)
   10ed8:	8e2e                	mv	t3,a1
   10eda:	1af50663          	beq	a0,a5,11086 <_malloc_r+0x328>
   10ede:	6798                	ld	a4,8(a5)
   10ee0:	843e                	mv	s0,a5
   10ee2:	6f9c                	ld	a5,24(a5)
   10ee4:	9b71                	andi	a4,a4,-4
   10ee6:	409706b3          	sub	a3,a4,s1
   10eea:	1ad8c563          	blt	a7,a3,11094 <_malloc_r+0x336>
   10eee:	fe06c6e3          	bltz	a3,10eda <_malloc_r+0x17c>
   10ef2:	9722                	add	a4,a4,s0
   10ef4:	6714                	ld	a3,8(a4)
   10ef6:	6810                	ld	a2,16(s0)
   10ef8:	854a                	mv	a0,s2
   10efa:	0016e693          	ori	a3,a3,1
   10efe:	e714                	sd	a3,8(a4)
   10f00:	ee1c                	sd	a5,24(a2)
   10f02:	eb90                	sd	a2,16(a5)
   10f04:	45e000ef          	jal	11362 <__malloc_unlock>
   10f08:	01040513          	addi	a0,s0,16
   10f0c:	bd55                	j	10dc0 <_malloc_r+0x62>
   10f0e:	47b1                	li	a5,12
   10f10:	00f92023          	sw	a5,0(s2)
   10f14:	4501                	li	a0,0
   10f16:	b56d                	j	10dc0 <_malloc_r+0x62>
   10f18:	40000613          	li	a2,1024
   10f1c:	04000593          	li	a1,64
   10f20:	03f00813          	li	a6,63
   10f24:	b5e5                	j	10e0c <_malloc_r+0xae>
   10f26:	0109b403          	ld	s0,16(s3)
   10f2a:	f456                	sd	s5,40(sp)
   10f2c:	641c                	ld	a5,8(s0)
   10f2e:	ffc7fa93          	andi	s5,a5,-4
   10f32:	009ae763          	bltu	s5,s1,10f40 <_malloc_r+0x1e2>
   10f36:	409a8733          	sub	a4,s5,s1
   10f3a:	47fd                	li	a5,31
   10f3c:	0ae7c263          	blt	a5,a4,10fe0 <_malloc_r+0x282>
   10f40:	e466                	sd	s9,8(sp)
   10f42:	f852                	sd	s4,48(sp)
   10f44:	2281b703          	ld	a4,552(gp) # 1aef8 <__malloc_sbrk_base>
   10f48:	2601ba03          	ld	s4,608(gp) # 1af30 <__malloc_top_pad>
   10f4c:	e862                	sd	s8,16(sp)
   10f4e:	f05a                	sd	s6,32(sp)
   10f50:	57fd                	li	a5,-1
   10f52:	01540c33          	add	s8,s0,s5
   10f56:	9a26                	add	s4,s4,s1
   10f58:	2ef70863          	beq	a4,a5,11248 <_malloc_r+0x4ea>
   10f5c:	6785                	lui	a5,0x1
   10f5e:	07fd                	addi	a5,a5,31 # 101f <exit-0xf0c9>
   10f60:	9a3e                	add	s4,s4,a5
   10f62:	77fd                	lui	a5,0xfffff
   10f64:	00fa7a33          	and	s4,s4,a5
   10f68:	85d2                	mv	a1,s4
   10f6a:	854a                	mv	a0,s2
   10f6c:	06f020ef          	jal	137da <_sbrk_r>
   10f70:	57fd                	li	a5,-1
   10f72:	8b2a                	mv	s6,a0
   10f74:	36f50063          	beq	a0,a5,112d4 <_malloc_r+0x576>
   10f78:	ec5e                	sd	s7,24(sp)
   10f7a:	1b856c63          	bltu	a0,s8,11132 <_malloc_r+0x3d4>
   10f7e:	4c018b93          	addi	s7,gp,1216 # 1b190 <__malloc_current_mallinfo>
   10f82:	000ba783          	lw	a5,0(s7)
   10f86:	0147873b          	addw	a4,a5,s4
   10f8a:	00eba023          	sw	a4,0(s7)
   10f8e:	86ba                	mv	a3,a4
   10f90:	20ac1763          	bne	s8,a0,1119e <_malloc_r+0x440>
   10f94:	03451793          	slli	a5,a0,0x34
   10f98:	20079363          	bnez	a5,1119e <_malloc_r+0x440>
   10f9c:	0109bb03          	ld	s6,16(s3)
   10fa0:	014a87b3          	add	a5,s5,s4
   10fa4:	0017e793          	ori	a5,a5,1
   10fa8:	00fb3423          	sd	a5,8(s6)
   10fac:	2581b603          	ld	a2,600(gp) # 1af28 <__malloc_max_sbrked_mem>
   10fb0:	00e67463          	bgeu	a2,a4,10fb8 <_malloc_r+0x25a>
   10fb4:	24e1bc23          	sd	a4,600(gp) # 1af28 <__malloc_max_sbrked_mem>
   10fb8:	2501b603          	ld	a2,592(gp) # 1af20 <__malloc_max_total_mem>
   10fbc:	00e67463          	bgeu	a2,a4,10fc4 <_malloc_r+0x266>
   10fc0:	24e1b823          	sd	a4,592(gp) # 1af20 <__malloc_max_total_mem>
   10fc4:	6be2                	ld	s7,24(sp)
   10fc6:	845a                	mv	s0,s6
   10fc8:	9bf1                	andi	a5,a5,-4
   10fca:	40978733          	sub	a4,a5,s1
   10fce:	2a97ed63          	bltu	a5,s1,11288 <_malloc_r+0x52a>
   10fd2:	47fd                	li	a5,31
   10fd4:	2ae7da63          	bge	a5,a4,11288 <_malloc_r+0x52a>
   10fd8:	7a42                	ld	s4,48(sp)
   10fda:	7b02                	ld	s6,32(sp)
   10fdc:	6c42                	ld	s8,16(sp)
   10fde:	6ca2                	ld	s9,8(sp)
   10fe0:	0014e793          	ori	a5,s1,1
   10fe4:	e41c                	sd	a5,8(s0)
   10fe6:	94a2                	add	s1,s1,s0
   10fe8:	0099b823          	sd	s1,16(s3)
   10fec:	00176713          	ori	a4,a4,1
   10ff0:	854a                	mv	a0,s2
   10ff2:	e498                	sd	a4,8(s1)
   10ff4:	36e000ef          	jal	11362 <__malloc_unlock>
   10ff8:	60e6                	ld	ra,88(sp)
   10ffa:	01040513          	addi	a0,s0,16
   10ffe:	6446                	ld	s0,80(sp)
   11000:	7aa2                	ld	s5,40(sp)
   11002:	64a6                	ld	s1,72(sp)
   11004:	6906                	ld	s2,64(sp)
   11006:	79e2                	ld	s3,56(sp)
   11008:	6125                	addi	sp,sp,96
   1100a:	8082                	ret
   1100c:	0089b503          	ld	a0,8(s3)
   11010:	b569                	j	10e9a <_malloc_r+0x13c>
   11012:	6810                	ld	a2,16(s0)
   11014:	bb51                	j	10da8 <_malloc_r+0x4a>
   11016:	6f80                	ld	s0,24(a5)
   11018:	2589                	addiw	a1,a1,2
   1101a:	e28780e3          	beq	a5,s0,10e3a <_malloc_r+0xdc>
   1101e:	b349                	j	10da0 <_malloc_r+0x42>
   11020:	0097d713          	srli	a4,a5,0x9
   11024:	4691                	li	a3,4
   11026:	0ee6fc63          	bgeu	a3,a4,1111e <_malloc_r+0x3c0>
   1102a:	46d1                	li	a3,20
   1102c:	26e6e863          	bltu	a3,a4,1129c <_malloc_r+0x53e>
   11030:	05c7061b          	addiw	a2,a4,92
   11034:	0016161b          	slliw	a2,a2,0x1
   11038:	05b7069b          	addiw	a3,a4,91
   1103c:	060e                	slli	a2,a2,0x3
   1103e:	964e                	add	a2,a2,s3
   11040:	6218                	ld	a4,0(a2)
   11042:	1641                	addi	a2,a2,-16
   11044:	00e61663          	bne	a2,a4,11050 <_malloc_r+0x2f2>
   11048:	a419                	j	1124e <_malloc_r+0x4f0>
   1104a:	6b18                	ld	a4,16(a4)
   1104c:	00e60663          	beq	a2,a4,11058 <_malloc_r+0x2fa>
   11050:	6714                	ld	a3,8(a4)
   11052:	9af1                	andi	a3,a3,-4
   11054:	fed7ebe3          	bltu	a5,a3,1104a <_malloc_r+0x2ec>
   11058:	6f10                	ld	a2,24(a4)
   1105a:	ec10                	sd	a2,24(s0)
   1105c:	e818                	sd	a4,16(s0)
   1105e:	ea00                	sd	s0,16(a2)
   11060:	ef00                	sd	s0,24(a4)
   11062:	bd25                	j	10e9a <_malloc_r+0x13c>
   11064:	4751                	li	a4,20
   11066:	0cf77d63          	bgeu	a4,a5,11140 <_malloc_r+0x3e2>
   1106a:	05400713          	li	a4,84
   1106e:	24f76563          	bltu	a4,a5,112b8 <_malloc_r+0x55a>
   11072:	00c4d793          	srli	a5,s1,0xc
   11076:	06f7859b          	addiw	a1,a5,111 # fffffffffffff06f <__BSS_END__+0xfffffffffffe3b9f>
   1107a:	0015961b          	slliw	a2,a1,0x1
   1107e:	06e7881b          	addiw	a6,a5,110
   11082:	060e                	slli	a2,a2,0x3
   11084:	b361                	j	10e0c <_malloc_r+0xae>
   11086:	2e05                	addiw	t3,t3,1
   11088:	003e7793          	andi	a5,t3,3
   1108c:	0541                	addi	a0,a0,16
   1108e:	c7f1                	beqz	a5,1115a <_malloc_r+0x3fc>
   11090:	6d1c                	ld	a5,24(a0)
   11092:	b5a1                	j	10eda <_malloc_r+0x17c>
   11094:	6810                	ld	a2,16(s0)
   11096:	0014e593          	ori	a1,s1,1
   1109a:	e40c                	sd	a1,8(s0)
   1109c:	ee1c                	sd	a5,24(a2)
   1109e:	eb90                	sd	a2,16(a5)
   110a0:	94a2                	add	s1,s1,s0
   110a2:	0299b423          	sd	s1,40(s3)
   110a6:	0299b023          	sd	s1,32(s3)
   110aa:	0016e793          	ori	a5,a3,1
   110ae:	0104bc23          	sd	a6,24(s1)
   110b2:	0104b823          	sd	a6,16(s1)
   110b6:	e49c                	sd	a5,8(s1)
   110b8:	9722                	add	a4,a4,s0
   110ba:	854a                	mv	a0,s2
   110bc:	e314                	sd	a3,0(a4)
   110be:	2a4000ef          	jal	11362 <__malloc_unlock>
   110c2:	01040513          	addi	a0,s0,16
   110c6:	b9ed                	j	10dc0 <_malloc_r+0x62>
   110c8:	97a2                	add	a5,a5,s0
   110ca:	6798                	ld	a4,8(a5)
   110cc:	854a                	mv	a0,s2
   110ce:	00176713          	ori	a4,a4,1
   110d2:	e798                	sd	a4,8(a5)
   110d4:	28e000ef          	jal	11362 <__malloc_unlock>
   110d8:	01040513          	addi	a0,s0,16
   110dc:	b1d5                	j	10dc0 <_malloc_r+0x62>
   110de:	0014e693          	ori	a3,s1,1
   110e2:	e414                	sd	a3,8(s0)
   110e4:	94a2                	add	s1,s1,s0
   110e6:	0299b423          	sd	s1,40(s3)
   110ea:	0299b023          	sd	s1,32(s3)
   110ee:	00176693          	ori	a3,a4,1
   110f2:	0104bc23          	sd	a6,24(s1)
   110f6:	0104b823          	sd	a6,16(s1)
   110fa:	e494                	sd	a3,8(s1)
   110fc:	97a2                	add	a5,a5,s0
   110fe:	854a                	mv	a0,s2
   11100:	e398                	sd	a4,0(a5)
   11102:	260000ef          	jal	11362 <__malloc_unlock>
   11106:	01040513          	addi	a0,s0,16
   1110a:	b95d                	j	10dc0 <_malloc_r+0x62>
   1110c:	0034d593          	srli	a1,s1,0x3
   11110:	0015879b          	addiw	a5,a1,1
   11114:	0017979b          	slliw	a5,a5,0x1
   11118:	2581                	sext.w	a1,a1
   1111a:	078e                	slli	a5,a5,0x3
   1111c:	b98d                	j	10d8e <_malloc_r+0x30>
   1111e:	0067d713          	srli	a4,a5,0x6
   11122:	0397061b          	addiw	a2,a4,57
   11126:	0016161b          	slliw	a2,a2,0x1
   1112a:	0387069b          	addiw	a3,a4,56
   1112e:	060e                	slli	a2,a2,0x3
   11130:	b739                	j	1103e <_malloc_r+0x2e0>
   11132:	05340e63          	beq	s0,s3,1118e <_malloc_r+0x430>
   11136:	0109b403          	ld	s0,16(s3)
   1113a:	6be2                	ld	s7,24(sp)
   1113c:	641c                	ld	a5,8(s0)
   1113e:	b569                	j	10fc8 <_malloc_r+0x26a>
   11140:	05c7859b          	addiw	a1,a5,92
   11144:	0015961b          	slliw	a2,a1,0x1
   11148:	05b7881b          	addiw	a6,a5,91
   1114c:	060e                	slli	a2,a2,0x3
   1114e:	b97d                	j	10e0c <_malloc_r+0xae>
   11150:	01033783          	ld	a5,16(t1)
   11154:	35fd                	addiw	a1,a1,-1
   11156:	20679263          	bne	a5,t1,1135a <_malloc_r+0x5fc>
   1115a:	0035f793          	andi	a5,a1,3
   1115e:	1341                	addi	t1,t1,-16
   11160:	fbe5                	bnez	a5,11150 <_malloc_r+0x3f2>
   11162:	0089b703          	ld	a4,8(s3)
   11166:	fff64793          	not	a5,a2
   1116a:	8ff9                	and	a5,a5,a4
   1116c:	00f9b423          	sd	a5,8(s3)
   11170:	0606                	slli	a2,a2,0x1
   11172:	dac7eae3          	bltu	a5,a2,10f26 <_malloc_r+0x1c8>
   11176:	da0608e3          	beqz	a2,10f26 <_malloc_r+0x1c8>
   1117a:	00f67733          	and	a4,a2,a5
   1117e:	e711                	bnez	a4,1118a <_malloc_r+0x42c>
   11180:	0606                	slli	a2,a2,0x1
   11182:	00f67733          	and	a4,a2,a5
   11186:	2e11                	addiw	t3,t3,4
   11188:	df65                	beqz	a4,11180 <_malloc_r+0x422>
   1118a:	85f2                	mv	a1,t3
   1118c:	bb2d                	j	10ec6 <_malloc_r+0x168>
   1118e:	4c018b93          	addi	s7,gp,1216 # 1b190 <__malloc_current_mallinfo>
   11192:	000ba783          	lw	a5,0(s7)
   11196:	014786bb          	addw	a3,a5,s4
   1119a:	00dba023          	sw	a3,0(s7)
   1119e:	2281b703          	ld	a4,552(gp) # 1aef8 <__malloc_sbrk_base>
   111a2:	57fd                	li	a5,-1
   111a4:	12f70c63          	beq	a4,a5,112dc <_malloc_r+0x57e>
   111a8:	418b07b3          	sub	a5,s6,s8
   111ac:	9fb5                	addw	a5,a5,a3
   111ae:	00fba023          	sw	a5,0(s7)
   111b2:	00fb7c93          	andi	s9,s6,15
   111b6:	0a0c8563          	beqz	s9,11260 <_malloc_r+0x502>
   111ba:	419b0b33          	sub	s6,s6,s9
   111be:	6705                	lui	a4,0x1
   111c0:	0741                	addi	a4,a4,16 # 1010 <exit-0xf0d8>
   111c2:	0b41                	addi	s6,s6,16
   111c4:	41970c33          	sub	s8,a4,s9
   111c8:	9a5a                	add	s4,s4,s6
   111ca:	414c0c33          	sub	s8,s8,s4
   111ce:	1c52                	slli	s8,s8,0x34
   111d0:	034c5c13          	srli	s8,s8,0x34
   111d4:	85e2                	mv	a1,s8
   111d6:	854a                	mv	a0,s2
   111d8:	602020ef          	jal	137da <_sbrk_r>
   111dc:	57fd                	li	a5,-1
   111de:	12f50e63          	beq	a0,a5,1131a <_malloc_r+0x5bc>
   111e2:	41650533          	sub	a0,a0,s6
   111e6:	000c069b          	sext.w	a3,s8
   111ea:	01850a33          	add	s4,a0,s8
   111ee:	000ba703          	lw	a4,0(s7)
   111f2:	0169b823          	sd	s6,16(s3)
   111f6:	001a6793          	ori	a5,s4,1
   111fa:	9f35                	addw	a4,a4,a3
   111fc:	00eba023          	sw	a4,0(s7)
   11200:	00fb3423          	sd	a5,8(s6)
   11204:	db3404e3          	beq	s0,s3,10fac <_malloc_r+0x24e>
   11208:	467d                	li	a2,31
   1120a:	07567b63          	bgeu	a2,s5,11280 <_malloc_r+0x522>
   1120e:	6414                	ld	a3,8(s0)
   11210:	fe8a8793          	addi	a5,s5,-24
   11214:	9bc1                	andi	a5,a5,-16
   11216:	8a85                	andi	a3,a3,1
   11218:	8edd                	or	a3,a3,a5
   1121a:	e414                	sd	a3,8(s0)
   1121c:	45a5                	li	a1,9
   1121e:	00f406b3          	add	a3,s0,a5
   11222:	e68c                	sd	a1,8(a3)
   11224:	ea8c                	sd	a1,16(a3)
   11226:	00f66563          	bltu	a2,a5,11230 <_malloc_r+0x4d2>
   1122a:	008b3783          	ld	a5,8(s6)
   1122e:	bbbd                	j	10fac <_malloc_r+0x24e>
   11230:	01040593          	addi	a1,s0,16
   11234:	854a                	mv	a0,s2
   11236:	8e5ff0ef          	jal	10b1a <_free_r>
   1123a:	0109bb03          	ld	s6,16(s3)
   1123e:	000ba703          	lw	a4,0(s7)
   11242:	008b3783          	ld	a5,8(s6)
   11246:	b39d                	j	10fac <_malloc_r+0x24e>
   11248:	020a0a13          	addi	s4,s4,32
   1124c:	bb31                	j	10f68 <_malloc_r+0x20a>
   1124e:	4026d69b          	sraiw	a3,a3,0x2
   11252:	4785                	li	a5,1
   11254:	00d797b3          	sll	a5,a5,a3
   11258:	8d5d                	or	a0,a0,a5
   1125a:	00a9b423          	sd	a0,8(s3)
   1125e:	bbf5                	j	1105a <_malloc_r+0x2fc>
   11260:	014b0c33          	add	s8,s6,s4
   11264:	41800c33          	neg	s8,s8
   11268:	1c52                	slli	s8,s8,0x34
   1126a:	034c5c13          	srli	s8,s8,0x34
   1126e:	85e2                	mv	a1,s8
   11270:	854a                	mv	a0,s2
   11272:	568020ef          	jal	137da <_sbrk_r>
   11276:	57fd                	li	a5,-1
   11278:	4681                	li	a3,0
   1127a:	f6f514e3          	bne	a0,a5,111e2 <_malloc_r+0x484>
   1127e:	bf85                	j	111ee <_malloc_r+0x490>
   11280:	6be2                	ld	s7,24(sp)
   11282:	4785                	li	a5,1
   11284:	00fb3423          	sd	a5,8(s6)
   11288:	854a                	mv	a0,s2
   1128a:	0d8000ef          	jal	11362 <__malloc_unlock>
   1128e:	4501                	li	a0,0
   11290:	7a42                	ld	s4,48(sp)
   11292:	7aa2                	ld	s5,40(sp)
   11294:	7b02                	ld	s6,32(sp)
   11296:	6c42                	ld	s8,16(sp)
   11298:	6ca2                	ld	s9,8(sp)
   1129a:	b61d                	j	10dc0 <_malloc_r+0x62>
   1129c:	05400693          	li	a3,84
   112a0:	04e6e163          	bltu	a3,a4,112e2 <_malloc_r+0x584>
   112a4:	00c7d713          	srli	a4,a5,0xc
   112a8:	06f7061b          	addiw	a2,a4,111
   112ac:	0016161b          	slliw	a2,a2,0x1
   112b0:	06e7069b          	addiw	a3,a4,110
   112b4:	060e                	slli	a2,a2,0x3
   112b6:	b361                	j	1103e <_malloc_r+0x2e0>
   112b8:	15400713          	li	a4,340
   112bc:	04f76163          	bltu	a4,a5,112fe <_malloc_r+0x5a0>
   112c0:	00f4d793          	srli	a5,s1,0xf
   112c4:	0787859b          	addiw	a1,a5,120
   112c8:	0015961b          	slliw	a2,a1,0x1
   112cc:	0777881b          	addiw	a6,a5,119
   112d0:	060e                	slli	a2,a2,0x3
   112d2:	be2d                	j	10e0c <_malloc_r+0xae>
   112d4:	0109b403          	ld	s0,16(s3)
   112d8:	641c                	ld	a5,8(s0)
   112da:	b1fd                	j	10fc8 <_malloc_r+0x26a>
   112dc:	2361b423          	sd	s6,552(gp) # 1aef8 <__malloc_sbrk_base>
   112e0:	bdc9                	j	111b2 <_malloc_r+0x454>
   112e2:	15400693          	li	a3,340
   112e6:	04e6e063          	bltu	a3,a4,11326 <_malloc_r+0x5c8>
   112ea:	00f7d713          	srli	a4,a5,0xf
   112ee:	0787061b          	addiw	a2,a4,120
   112f2:	0016161b          	slliw	a2,a2,0x1
   112f6:	0777069b          	addiw	a3,a4,119
   112fa:	060e                	slli	a2,a2,0x3
   112fc:	b389                	j	1103e <_malloc_r+0x2e0>
   112fe:	55400713          	li	a4,1364
   11302:	04f76063          	bltu	a4,a5,11342 <_malloc_r+0x5e4>
   11306:	0124d793          	srli	a5,s1,0x12
   1130a:	07d7859b          	addiw	a1,a5,125
   1130e:	0015961b          	slliw	a2,a1,0x1
   11312:	07c7881b          	addiw	a6,a5,124
   11316:	060e                	slli	a2,a2,0x3
   11318:	bcd5                	j	10e0c <_malloc_r+0xae>
   1131a:	1cc1                	addi	s9,s9,-16
   1131c:	9a66                	add	s4,s4,s9
   1131e:	416a0a33          	sub	s4,s4,s6
   11322:	4681                	li	a3,0
   11324:	b5e9                	j	111ee <_malloc_r+0x490>
   11326:	55400693          	li	a3,1364
   1132a:	02e6e363          	bltu	a3,a4,11350 <_malloc_r+0x5f2>
   1132e:	0127d713          	srli	a4,a5,0x12
   11332:	07d7061b          	addiw	a2,a4,125
   11336:	0016161b          	slliw	a2,a2,0x1
   1133a:	07c7069b          	addiw	a3,a4,124
   1133e:	060e                	slli	a2,a2,0x3
   11340:	b9fd                	j	1103e <_malloc_r+0x2e0>
   11342:	7f000613          	li	a2,2032
   11346:	07f00593          	li	a1,127
   1134a:	07e00813          	li	a6,126
   1134e:	bc7d                	j	10e0c <_malloc_r+0xae>
   11350:	7f000613          	li	a2,2032
   11354:	07e00693          	li	a3,126
   11358:	b1dd                	j	1103e <_malloc_r+0x2e0>
   1135a:	0089b783          	ld	a5,8(s3)
   1135e:	bd09                	j	11170 <_malloc_r+0x412>

0000000000011360 <__malloc_lock>:
   11360:	8082                	ret

0000000000011362 <__malloc_unlock>:
   11362:	8082                	ret

0000000000011364 <_vfprintf_r>:
   11364:	db010113          	addi	sp,sp,-592
   11368:	24113423          	sd	ra,584(sp)
   1136c:	24813023          	sd	s0,576(sp)
   11370:	23213823          	sd	s2,560(sp)
   11374:	ffe6                	sd	s9,504(sp)
   11376:	892e                	mv	s2,a1
   11378:	8cb2                	mv	s9,a2
   1137a:	f036                	sd	a3,32(sp)
   1137c:	842a                	mv	s0,a0
   1137e:	e42a                	sd	a0,8(sp)
   11380:	44e020ef          	jal	137ce <_localeconv_r>
   11384:	611c                	ld	a5,0(a0)
   11386:	853e                	mv	a0,a5
   11388:	ecbe                	sd	a5,88(sp)
   1138a:	6d2020ef          	jal	13a5c <strlen>
   1138e:	e8aa                	sd	a0,80(sp)
   11390:	e982                	sd	zero,208(sp)
   11392:	ed82                	sd	zero,216(sp)
   11394:	c409                	beqz	s0,1139e <_vfprintf_r+0x3a>
   11396:	6438                	ld	a4,72(s0)
   11398:	e319                	bnez	a4,1139e <_vfprintf_r+0x3a>
   1139a:	2240106f          	j	125be <_vfprintf_r+0x125a>
   1139e:	01091683          	lh	a3,16(s2)
   113a2:	0ac92703          	lw	a4,172(s2)
   113a6:	03269613          	slli	a2,a3,0x32
   113aa:	00064b63          	bltz	a2,113c0 <_vfprintf_r+0x5c>
   113ae:	7679                	lui	a2,0xffffe
   113b0:	167d                	addi	a2,a2,-1 # ffffffffffffdfff <__BSS_END__+0xfffffffffffe2b2f>
   113b2:	6589                	lui	a1,0x2
   113b4:	8ecd                	or	a3,a3,a1
   113b6:	8f71                	and	a4,a4,a2
   113b8:	00d91823          	sh	a3,16(s2)
   113bc:	0ae92623          	sw	a4,172(s2)
   113c0:	03271693          	slli	a3,a4,0x32
   113c4:	0006d463          	bgez	a3,113cc <_vfprintf_r+0x68>
   113c8:	7a20106f          	j	12b6a <_vfprintf_r+0x1806>
   113cc:	01091703          	lh	a4,16(s2)
   113d0:	00877693          	andi	a3,a4,8
   113d4:	24068e63          	beqz	a3,11630 <_vfprintf_r+0x2cc>
   113d8:	01893683          	ld	a3,24(s2)
   113dc:	24068a63          	beqz	a3,11630 <_vfprintf_r+0x2cc>
   113e0:	8b69                	andi	a4,a4,26
   113e2:	46a9                	li	a3,10
   113e4:	26d70363          	beq	a4,a3,1164a <_vfprintf_r+0x2e6>
   113e8:	23413023          	sd	s4,544(sp)
   113ec:	21513c23          	sd	s5,536(sp)
   113f0:	fbea                	sd	s10,496(sp)
   113f2:	6765                	lui	a4,0x19
   113f4:	22913c23          	sd	s1,568(sp)
   113f8:	23313423          	sd	s3,552(sp)
   113fc:	21613823          	sd	s6,528(sp)
   11400:	21713423          	sd	s7,520(sp)
   11404:	21813023          	sd	s8,512(sp)
   11408:	f7ee                	sd	s11,488(sp)
   1140a:	8d66                	mv	s10,s9
   1140c:	cd070793          	addi	a5,a4,-816 # 18cd0 <__clzdi2+0x1fa>
   11410:	000d4703          	lbu	a4,0(s10)
   11414:	16010a13          	addi	s4,sp,352
   11418:	6ae5                	lui	s5,0x19
   1141a:	f1d2                	sd	s4,224(sp)
   1141c:	f982                	sd	zero,240(sp)
   1141e:	d582                	sw	zero,232(sp)
   11420:	fc02                	sd	zero,56(sp)
   11422:	f082                	sd	zero,96(sp)
   11424:	f882                	sd	zero,112(sp)
   11426:	e102                	sd	zero,128(sp)
   11428:	e502                	sd	zero,136(sp)
   1142a:	fc82                	sd	zero,120(sp)
   1142c:	e802                	sd	zero,16(sp)
   1142e:	f43e                	sd	a5,40(sp)
   11430:	8452                	mv	s0,s4
   11432:	e40a8a93          	addi	s5,s5,-448 # 18e40 <zeroes.0>
   11436:	1a070163          	beqz	a4,115d8 <_vfprintf_r+0x274>
   1143a:	89ea                	mv	s3,s10
   1143c:	02500693          	li	a3,37
   11440:	2cd70d63          	beq	a4,a3,1171a <_vfprintf_r+0x3b6>
   11444:	0019c703          	lbu	a4,1(s3)
   11448:	0985                	addi	s3,s3,1
   1144a:	fb7d                	bnez	a4,11440 <_vfprintf_r+0xdc>
   1144c:	41a984bb          	subw	s1,s3,s10
   11450:	18048463          	beqz	s1,115d8 <_vfprintf_r+0x274>
   11454:	572e                	lw	a4,232(sp)
   11456:	76ce                	ld	a3,240(sp)
   11458:	01a43023          	sd	s10,0(s0)
   1145c:	2705                	addiw	a4,a4,1
   1145e:	96a6                	add	a3,a3,s1
   11460:	e404                	sd	s1,8(s0)
   11462:	f9b6                	sd	a3,240(sp)
   11464:	d5ba                	sw	a4,232(sp)
   11466:	0007069b          	sext.w	a3,a4
   1146a:	471d                	li	a4,7
   1146c:	0441                	addi	s0,s0,16
   1146e:	2ad74d63          	blt	a4,a3,11728 <_vfprintf_r+0x3c4>
   11472:	67c2                	ld	a5,16(sp)
   11474:	0009c703          	lbu	a4,0(s3)
   11478:	9fa5                	addw	a5,a5,s1
   1147a:	e83e                	sd	a5,16(sp)
   1147c:	14070e63          	beqz	a4,115d8 <_vfprintf_r+0x274>
   11480:	0019c303          	lbu	t1,1(s3)
   11484:	0a0107a3          	sb	zero,175(sp)
   11488:	0985                	addi	s3,s3,1
   1148a:	5b7d                	li	s6,-1
   1148c:	4b81                	li	s7,0
   1148e:	4d81                	li	s11,0
   11490:	05a00493          	li	s1,90
   11494:	0985                	addi	s3,s3,1
   11496:	2301                	sext.w	t1,t1
   11498:	fe03079b          	addiw	a5,t1,-32
   1149c:	0007871b          	sext.w	a4,a5
   114a0:	04e4e563          	bltu	s1,a4,114ea <_vfprintf_r+0x186>
   114a4:	02079713          	slli	a4,a5,0x20
   114a8:	01e75793          	srli	a5,a4,0x1e
   114ac:	7722                	ld	a4,40(sp)
   114ae:	97ba                	add	a5,a5,a4
   114b0:	439c                	lw	a5,0(a5)
   114b2:	8782                	jr	a5
   114b4:	4b81                	li	s7,0
   114b6:	46a5                	li	a3,9
   114b8:	0009c703          	lbu	a4,0(s3)
   114bc:	002b979b          	slliw	a5,s7,0x2
   114c0:	01778bbb          	addw	s7,a5,s7
   114c4:	fd03031b          	addiw	t1,t1,-48
   114c8:	001b9b9b          	slliw	s7,s7,0x1
   114cc:	fd07079b          	addiw	a5,a4,-48
   114d0:	01730bbb          	addw	s7,t1,s7
   114d4:	0985                	addi	s3,s3,1
   114d6:	0007031b          	sext.w	t1,a4
   114da:	fcf6ffe3          	bgeu	a3,a5,114b8 <_vfprintf_r+0x154>
   114de:	fe03079b          	addiw	a5,t1,-32
   114e2:	0007871b          	sext.w	a4,a5
   114e6:	fae4ffe3          	bgeu	s1,a4,114a4 <_vfprintf_r+0x140>
   114ea:	0e030763          	beqz	t1,115d8 <_vfprintf_r+0x274>
   114ee:	0e610c23          	sb	t1,248(sp)
   114f2:	0a0107a3          	sb	zero,175(sp)
   114f6:	4c05                	li	s8,1
   114f8:	4685                	li	a3,1
   114fa:	0f810d13          	addi	s10,sp,248
   114fe:	ec02                	sd	zero,24(sp)
   11500:	4b01                	li	s6,0
   11502:	e482                	sd	zero,72(sp)
   11504:	e082                	sd	zero,64(sp)
   11506:	f802                	sd	zero,48(sp)
   11508:	002df293          	andi	t0,s11,2
   1150c:	00028363          	beqz	t0,11512 <_vfprintf_r+0x1ae>
   11510:	2c09                	addiw	s8,s8,2
   11512:	084dfc93          	andi	s9,s11,132
   11516:	74ce                	ld	s1,240(sp)
   11518:	000c9663          	bnez	s9,11524 <_vfprintf_r+0x1c0>
   1151c:	418b873b          	subw	a4,s7,s8
   11520:	2ee044e3          	bgtz	a4,12008 <_vfprintf_r+0xca4>
   11524:	0af14703          	lbu	a4,175(sp)
   11528:	c30d                	beqz	a4,1154a <_vfprintf_r+0x1e6>
   1152a:	572e                	lw	a4,232(sp)
   1152c:	0af10613          	addi	a2,sp,175
   11530:	e010                	sd	a2,0(s0)
   11532:	2705                	addiw	a4,a4,1
   11534:	4605                	li	a2,1
   11536:	0485                	addi	s1,s1,1
   11538:	e410                	sd	a2,8(s0)
   1153a:	d5ba                	sw	a4,232(sp)
   1153c:	0007061b          	sext.w	a2,a4
   11540:	f9a6                	sd	s1,240(sp)
   11542:	471d                	li	a4,7
   11544:	0441                	addi	s0,s0,16
   11546:	4ec74b63          	blt	a4,a2,11a3c <_vfprintf_r+0x6d8>
   1154a:	02028163          	beqz	t0,1156c <_vfprintf_r+0x208>
   1154e:	572e                	lw	a4,232(sp)
   11550:	4609                	li	a2,2
   11552:	0489                	addi	s1,s1,2
   11554:	2705                	addiw	a4,a4,1
   11556:	191c                	addi	a5,sp,176
   11558:	e410                	sd	a2,8(s0)
   1155a:	e01c                	sd	a5,0(s0)
   1155c:	0007061b          	sext.w	a2,a4
   11560:	d5ba                	sw	a4,232(sp)
   11562:	f9a6                	sd	s1,240(sp)
   11564:	471d                	li	a4,7
   11566:	0441                	addi	s0,s0,16
   11568:	32c74fe3          	blt	a4,a2,120a6 <_vfprintf_r+0xd42>
   1156c:	08000713          	li	a4,128
   11570:	10ec8ce3          	beq	s9,a4,11e88 <_vfprintf_r+0xb24>
   11574:	40db0b3b          	subw	s6,s6,a3
   11578:	1b604be3          	bgtz	s6,11f2e <_vfprintf_r+0xbca>
   1157c:	100df713          	andi	a4,s11,256
   11580:	020710e3          	bnez	a4,11da0 <_vfprintf_r+0xa3c>
   11584:	572e                	lw	a4,232(sp)
   11586:	94b6                	add	s1,s1,a3
   11588:	01a43023          	sd	s10,0(s0)
   1158c:	2705                	addiw	a4,a4,1
   1158e:	e414                	sd	a3,8(s0)
   11590:	f9a6                	sd	s1,240(sp)
   11592:	d5ba                	sw	a4,232(sp)
   11594:	479d                	li	a5,7
   11596:	54e7cf63          	blt	a5,a4,11af4 <_vfprintf_r+0x790>
   1159a:	0441                	addi	s0,s0,16
   1159c:	004dfe13          	andi	t3,s11,4
   115a0:	000e0663          	beqz	t3,115ac <_vfprintf_r+0x248>
   115a4:	418b8b3b          	subw	s6,s7,s8
   115a8:	31604de3          	bgtz	s6,120c2 <_vfprintf_r+0xd5e>
   115ac:	87de                	mv	a5,s7
   115ae:	018bd363          	bge	s7,s8,115b4 <_vfprintf_r+0x250>
   115b2:	87e2                	mv	a5,s8
   115b4:	6742                	ld	a4,16(sp)
   115b6:	9fb9                	addw	a5,a5,a4
   115b8:	e83e                	sd	a5,16(sp)
   115ba:	200497e3          	bnez	s1,11fc8 <_vfprintf_r+0xc64>
   115be:	67e2                	ld	a5,24(sp)
   115c0:	d582                	sw	zero,232(sp)
   115c2:	c789                	beqz	a5,115cc <_vfprintf_r+0x268>
   115c4:	65e2                	ld	a1,24(sp)
   115c6:	6522                	ld	a0,8(sp)
   115c8:	d52ff0ef          	jal	10b1a <_free_r>
   115cc:	8452                	mv	s0,s4
   115ce:	8d4e                	mv	s10,s3
   115d0:	000d4703          	lbu	a4,0(s10)
   115d4:	e60713e3          	bnez	a4,1143a <_vfprintf_r+0xd6>
   115d8:	77ce                	ld	a5,240(sp)
   115da:	c399                	beqz	a5,115e0 <_vfprintf_r+0x27c>
   115dc:	3a20106f          	j	1297e <_vfprintf_r+0x161a>
   115e0:	01095783          	lhu	a5,16(s2)
   115e4:	23813483          	ld	s1,568(sp)
   115e8:	22813983          	ld	s3,552(sp)
   115ec:	0407f793          	andi	a5,a5,64
   115f0:	22013a03          	ld	s4,544(sp)
   115f4:	21813a83          	ld	s5,536(sp)
   115f8:	21013b03          	ld	s6,528(sp)
   115fc:	20813b83          	ld	s7,520(sp)
   11600:	20013c03          	ld	s8,512(sp)
   11604:	7d5e                	ld	s10,496(sp)
   11606:	7dbe                	ld	s11,488(sp)
   11608:	c399                	beqz	a5,1160e <_vfprintf_r+0x2aa>
   1160a:	5600106f          	j	12b6a <_vfprintf_r+0x1806>
   1160e:	24813083          	ld	ra,584(sp)
   11612:	24013403          	ld	s0,576(sp)
   11616:	6542                	ld	a0,16(sp)
   11618:	23013903          	ld	s2,560(sp)
   1161c:	7cfe                	ld	s9,504(sp)
   1161e:	25010113          	addi	sp,sp,592
   11622:	8082                	ret
   11624:	010ded93          	ori	s11,s11,16
   11628:	0009c303          	lbu	t1,0(s3)
   1162c:	2d81                	sext.w	s11,s11
   1162e:	b59d                	j	11494 <_vfprintf_r+0x130>
   11630:	6522                	ld	a0,8(sp)
   11632:	85ca                	mv	a1,s2
   11634:	779010ef          	jal	135ac <__swsetup_r>
   11638:	c119                	beqz	a0,1163e <_vfprintf_r+0x2da>
   1163a:	5300106f          	j	12b6a <_vfprintf_r+0x1806>
   1163e:	01091703          	lh	a4,16(s2)
   11642:	46a9                	li	a3,10
   11644:	8b69                	andi	a4,a4,26
   11646:	dad711e3          	bne	a4,a3,113e8 <_vfprintf_r+0x84>
   1164a:	01291703          	lh	a4,18(s2)
   1164e:	d8074de3          	bltz	a4,113e8 <_vfprintf_r+0x84>
   11652:	7682                	ld	a3,32(sp)
   11654:	6522                	ld	a0,8(sp)
   11656:	8666                	mv	a2,s9
   11658:	85ca                	mv	a1,s2
   1165a:	05d010ef          	jal	12eb6 <__sbprintf>
   1165e:	e82a                	sd	a0,16(sp)
   11660:	b77d                	j	1160e <_vfprintf_r+0x2aa>
   11662:	010dee13          	ori	t3,s11,16
   11666:	000e0d9b          	sext.w	s11,t3
   1166a:	7682                	ld	a3,32(sp)
   1166c:	020df793          	andi	a5,s11,32
   11670:	00868713          	addi	a4,a3,8
   11674:	4a078763          	beqz	a5,11b22 <_vfprintf_r+0x7be>
   11678:	629c                	ld	a5,0(a3)
   1167a:	84be                	mv	s1,a5
   1167c:	4c07c463          	bltz	a5,11b44 <_vfprintf_r+0x7e0>
   11680:	4c0b45e3          	bltz	s6,1234a <_vfprintf_r+0xfe6>
   11684:	f7fdfc93          	andi	s9,s11,-129
   11688:	2c81                	sext.w	s9,s9
   1168a:	c099                	beqz	s1,11690 <_vfprintf_r+0x32c>
   1168c:	7790006f          	j	12604 <_vfprintf_r+0x12a0>
   11690:	000b0463          	beqz	s6,11698 <_vfprintf_r+0x334>
   11694:	6740106f          	j	12d08 <_vfprintf_r+0x19a4>
   11698:	4681                	li	a3,0
   1169a:	f03a                	sd	a4,32(sp)
   1169c:	8de6                	mv	s11,s9
   1169e:	15c10d13          	addi	s10,sp,348
   116a2:	0af14703          	lbu	a4,175(sp)
   116a6:	885a                	mv	a6,s6
   116a8:	00db5363          	bge	s6,a3,116ae <_vfprintf_r+0x34a>
   116ac:	8836                	mv	a6,a3
   116ae:	ec02                	sd	zero,24(sp)
   116b0:	e482                	sd	zero,72(sp)
   116b2:	e082                	sd	zero,64(sp)
   116b4:	f802                	sd	zero,48(sp)
   116b6:	00080c1b          	sext.w	s8,a6
   116ba:	e40707e3          	beqz	a4,11508 <_vfprintf_r+0x1a4>
   116be:	2c05                	addiw	s8,s8,1
   116c0:	b5a1                	j	11508 <_vfprintf_r+0x1a4>
   116c2:	010dee13          	ori	t3,s11,16
   116c6:	000e0d9b          	sext.w	s11,t3
   116ca:	7682                	ld	a3,32(sp)
   116cc:	020df793          	andi	a5,s11,32
   116d0:	00868713          	addi	a4,a3,8
   116d4:	42078a63          	beqz	a5,11b08 <_vfprintf_r+0x7a4>
   116d8:	6284                	ld	s1,0(a3)
   116da:	bffdfc93          	andi	s9,s11,-1025
   116de:	2c81                	sext.w	s9,s9
   116e0:	f03a                	sd	a4,32(sp)
   116e2:	4781                	li	a5,0
   116e4:	4701                	li	a4,0
   116e6:	0ae107a3          	sb	a4,175(sp)
   116ea:	460b4863          	bltz	s6,11b5a <_vfprintf_r+0x7f6>
   116ee:	f7fcfe13          	andi	t3,s9,-129
   116f2:	000e0d9b          	sext.w	s11,t3
   116f6:	0e0498e3          	bnez	s1,11fe6 <_vfprintf_r+0xc82>
   116fa:	740b1e63          	bnez	s6,11e56 <_vfprintf_r+0xaf2>
   116fe:	3c079ae3          	bnez	a5,122d2 <_vfprintf_r+0xf6e>
   11702:	001cf693          	andi	a3,s9,1
   11706:	15c10d13          	addi	s10,sp,348
   1170a:	dec1                	beqz	a3,116a2 <_vfprintf_r+0x33e>
   1170c:	03000793          	li	a5,48
   11710:	14f10da3          	sb	a5,347(sp)
   11714:	15b10d13          	addi	s10,sp,347
   11718:	b769                	j	116a2 <_vfprintf_r+0x33e>
   1171a:	41a984bb          	subw	s1,s3,s10
   1171e:	d2049be3          	bnez	s1,11454 <_vfprintf_r+0xf0>
   11722:	0009c703          	lbu	a4,0(s3)
   11726:	bb99                	j	1147c <_vfprintf_r+0x118>
   11728:	6522                	ld	a0,8(sp)
   1172a:	1190                	addi	a2,sp,224
   1172c:	85ca                	mv	a1,s2
   1172e:	021010ef          	jal	12f4e <__sprint_r>
   11732:	ea0517e3          	bnez	a0,115e0 <_vfprintf_r+0x27c>
   11736:	8452                	mv	s0,s4
   11738:	bb2d                	j	11472 <_vfprintf_r+0x10e>
   1173a:	008df713          	andi	a4,s11,8
   1173e:	3e0713e3          	bnez	a4,12324 <_vfprintf_r+0xfc0>
   11742:	7782                	ld	a5,32(sp)
   11744:	ec1a                	sd	t1,24(sp)
   11746:	2388                	fld	fa0,0(a5)
   11748:	00878c13          	addi	s8,a5,8
   1174c:	2ca070ef          	jal	18a16 <__extenddftf2>
   11750:	6362                	ld	t1,24(sp)
   11752:	872a                	mv	a4,a0
   11754:	f062                	sd	s8,32(sp)
   11756:	0988                	addi	a0,sp,208
   11758:	ec1a                	sd	t1,24(sp)
   1175a:	e9ba                	sd	a4,208(sp)
   1175c:	edae                	sd	a1,216(sp)
   1175e:	628020ef          	jal	13d86 <_ldcheck>
   11762:	dd2a                	sw	a0,184(sp)
   11764:	4709                	li	a4,2
   11766:	6362                	ld	t1,24(sp)
   11768:	6ae500e3          	beq	a0,a4,12608 <_vfprintf_r+0x12a4>
   1176c:	4705                	li	a4,1
   1176e:	00e51463          	bne	a0,a4,11776 <_vfprintf_r+0x412>
   11772:	7bb0006f          	j	1272c <_vfprintf_r+0x13c8>
   11776:	06100713          	li	a4,97
   1177a:	56e300e3          	beq	t1,a4,124da <_vfprintf_r+0x1176>
   1177e:	04100713          	li	a4,65
   11782:	05800793          	li	a5,88
   11786:	54e30ce3          	beq	t1,a4,124de <_vfprintf_r+0x117a>
   1178a:	577d                	li	a4,-1
   1178c:	00eb1463          	bne	s6,a4,11794 <_vfprintf_r+0x430>
   11790:	5700106f          	j	12d00 <_vfprintf_r+0x199c>
   11794:	fdf37713          	andi	a4,t1,-33
   11798:	04700693          	li	a3,71
   1179c:	ec02                	sd	zero,24(sp)
   1179e:	00d71463          	bne	a4,a3,117a6 <_vfprintf_r+0x442>
   117a2:	5720106f          	j	12d14 <_vfprintf_r+0x19b0>
   117a6:	67ce                	ld	a5,208(sp)
   117a8:	6cee                	ld	s9,216(sp)
   117aa:	100de713          	ori	a4,s11,256
   117ae:	f83e                	sd	a5,48(sp)
   117b0:	f482                	sd	zero,104(sp)
   117b2:	0007049b          	sext.w	s1,a4
   117b6:	000cd463          	bgez	s9,117be <_vfprintf_r+0x45a>
   117ba:	3720106f          	j	12b2c <_vfprintf_r+0x17c8>
   117be:	fbf3069b          	addiw	a3,t1,-65
   117c2:	02500713          	li	a4,37
   117c6:	00d77463          	bgeu	a4,a3,117ce <_vfprintf_r+0x46a>
   117ca:	3ce0106f          	j	12b98 <_vfprintf_r+0x1834>
   117ce:	4705                	li	a4,1
   117d0:	4c05                	li	s8,1
   117d2:	1716                	slli	a4,a4,0x25
   117d4:	00dc16b3          	sll	a3,s8,a3
   117d8:	02070713          	addi	a4,a4,32
   117dc:	8f75                	and	a4,a4,a3
   117de:	c319                	beqz	a4,117e4 <_vfprintf_r+0x480>
   117e0:	2680106f          	j	12a48 <_vfprintf_r+0x16e4>
   117e4:	4705                	li	a4,1
   117e6:	1712                	slli	a4,a4,0x24
   117e8:	0741                	addi	a4,a4,16
   117ea:	8f75                	and	a4,a4,a3
   117ec:	c319                	beqz	a4,117f2 <_vfprintf_r+0x48e>
   117ee:	4d20106f          	j	12cc0 <_vfprintf_r+0x195c>
   117f2:	4705                	li	a4,1
   117f4:	1702                	slli	a4,a4,0x20
   117f6:	0705                	addi	a4,a4,1
   117f8:	8ef9                	and	a3,a3,a4
   117fa:	fc1a                	sd	t1,56(sp)
   117fc:	e299                	bnez	a3,11802 <_vfprintf_r+0x49e>
   117fe:	1d40106f          	j	129d2 <_vfprintf_r+0x166e>
   11802:	7542                	ld	a0,48(sp)
   11804:	1930                	addi	a2,sp,184
   11806:	85e6                	mv	a1,s9
   11808:	2f6020ef          	jal	13afe <frexpl>
   1180c:	00fff6b7          	lui	a3,0xfff
   11810:	4601                	li	a2,0
   11812:	169a                	slli	a3,a3,0x26
   11814:	2d8060ef          	jal	17aec <__multf3>
   11818:	4601                	li	a2,0
   1181a:	4681                	li	a3,0
   1181c:	8caa                	mv	s9,a0
   1181e:	84ae                	mv	s1,a1
   11820:	0e8060ef          	jal	17908 <__eqtf2>
   11824:	7362                	ld	t1,56(sp)
   11826:	e111                	bnez	a0,1182a <_vfprintf_r+0x4c6>
   11828:	dd62                	sw	s8,184(sp)
   1182a:	06100713          	li	a4,97
   1182e:	00e31463          	bne	t1,a4,11836 <_vfprintf_r+0x4d2>
   11832:	5ea0106f          	j	12e1c <_vfprintf_r+0x1ab8>
   11836:	6765                	lui	a4,0x19
   11838:	b5870793          	addi	a5,a4,-1192 # 18b58 <__clzdi2+0x82>
   1183c:	f83e                	sd	a5,48(sp)
   1183e:	020b1713          	slli	a4,s6,0x20
   11842:	9301                	srli	a4,a4,0x20
   11844:	0705                	addi	a4,a4,1
   11846:	040036b7          	lui	a3,0x4003
   1184a:	000b081b          	sext.w	a6,s6
   1184e:	00ed07b3          	add	a5,s10,a4
   11852:	1692                	slli	a3,a3,0x24
   11854:	fc4e                	sd	s3,56(sp)
   11856:	f8a2                	sd	s0,112(sp)
   11858:	8c4a                	mv	s8,s2
   1185a:	7b42                	ld	s6,48(sp)
   1185c:	e942                	sd	a6,144(sp)
   1185e:	e09a                	sd	t1,64(sp)
   11860:	e4de                	sd	s7,72(sp)
   11862:	89ea                	mv	s3,s10
   11864:	893e                	mv	s2,a5
   11866:	8436                	mv	s0,a3
   11868:	a801                	j	11878 <_vfprintf_r+0x514>
   1186a:	4601                	li	a2,0
   1186c:	4681                	li	a3,0
   1186e:	09a060ef          	jal	17908 <__eqtf2>
   11872:	e119                	bnez	a0,11878 <_vfprintf_r+0x514>
   11874:	5400106f          	j	12db4 <_vfprintf_r+0x1a50>
   11878:	4601                	li	a2,0
   1187a:	86a2                	mv	a3,s0
   1187c:	8566                	mv	a0,s9
   1187e:	85a6                	mv	a1,s1
   11880:	26c060ef          	jal	17aec <__multf3>
   11884:	84ae                	mv	s1,a1
   11886:	8caa                	mv	s9,a0
   11888:	0a2070ef          	jal	1892a <__fixtfsi>
   1188c:	00050b9b          	sext.w	s7,a0
   11890:	130070ef          	jal	189c0 <__floatsitf>
   11894:	86ae                	mv	a3,a1
   11896:	862a                	mv	a2,a0
   11898:	85a6                	mv	a1,s1
   1189a:	8566                	mv	a0,s9
   1189c:	047060ef          	jal	180e2 <__subtf3>
   118a0:	017b06b3          	add	a3,s6,s7
   118a4:	0006c683          	lbu	a3,0(a3) # 4003000 <__BSS_END__+0x3fe7b30>
   118a8:	88ce                	mv	a7,s3
   118aa:	0985                	addi	s3,s3,1
   118ac:	fed98fa3          	sb	a3,-1(s3)
   118b0:	8caa                	mv	s9,a0
   118b2:	84ae                	mv	s1,a1
   118b4:	fb391be3          	bne	s2,s3,1186a <_vfprintf_r+0x506>
   118b8:	6306                	ld	t1,64(sp)
   118ba:	01fff6b7          	lui	a3,0x1fff
   118be:	1696                	slli	a3,a3,0x25
   118c0:	4601                	li	a2,0
   118c2:	e91a                	sd	t1,144(sp)
   118c4:	e0c6                	sd	a7,64(sp)
   118c6:	8b5e                	mv	s6,s7
   118c8:	6ba6                	ld	s7,72(sp)
   118ca:	e4b6                	sd	a3,72(sp)
   118cc:	0e4060ef          	jal	179b0 <__getf2>
   118d0:	8962                	mv	s2,s8
   118d2:	7446                	ld	s0,112(sp)
   118d4:	8c4e                	mv	s8,s3
   118d6:	6886                	ld	a7,64(sp)
   118d8:	79e2                	ld	s3,56(sp)
   118da:	634a                	ld	t1,144(sp)
   118dc:	02a04063          	bgtz	a0,118fc <_vfprintf_r+0x598>
   118e0:	66a6                	ld	a3,72(sp)
   118e2:	4601                	li	a2,0
   118e4:	8566                	mv	a0,s9
   118e6:	85a6                	mv	a1,s1
   118e8:	fc1a                	sd	t1,56(sp)
   118ea:	01e060ef          	jal	17908 <__eqtf2>
   118ee:	7362                	ld	t1,56(sp)
   118f0:	e539                	bnez	a0,1193e <_vfprintf_r+0x5da>
   118f2:	001b7b13          	andi	s6,s6,1
   118f6:	6886                	ld	a7,64(sp)
   118f8:	040b0363          	beqz	s6,1193e <_vfprintf_r+0x5da>
   118fc:	77c2                	ld	a5,48(sp)
   118fe:	e5c6                	sd	a7,200(sp)
   11900:	fffc4603          	lbu	a2,-1(s8)
   11904:	00f7c583          	lbu	a1,15(a5)
   11908:	86e2                	mv	a3,s8
   1190a:	00c59e63          	bne	a1,a2,11926 <_vfprintf_r+0x5c2>
   1190e:	03000513          	li	a0,48
   11912:	fea68fa3          	sb	a0,-1(a3) # 1ffefff <__BSS_END__+0x1fe3b2f>
   11916:	66ae                	ld	a3,200(sp)
   11918:	fff68793          	addi	a5,a3,-1
   1191c:	e5be                	sd	a5,200(sp)
   1191e:	fff6c603          	lbu	a2,-1(a3)
   11922:	fec588e3          	beq	a1,a2,11912 <_vfprintf_r+0x5ae>
   11926:	0016059b          	addiw	a1,a2,1
   1192a:	03900513          	li	a0,57
   1192e:	0ff5f593          	zext.b	a1,a1
   11932:	00a61463          	bne	a2,a0,1193a <_vfprintf_r+0x5d6>
   11936:	0f40106f          	j	12a2a <_vfprintf_r+0x16c6>
   1193a:	feb68fa3          	sb	a1,-1(a3)
   1193e:	86e2                	mv	a3,s8
   11940:	57ea                	lw	a5,184(sp)
   11942:	41a6873b          	subw	a4,a3,s10
   11946:	fc3a                	sd	a4,56(sp)
   11948:	fff7871b          	addiw	a4,a5,-1
   1194c:	f83e                	sd	a5,48(sp)
   1194e:	06100613          	li	a2,97
   11952:	dd3a                	sw	a4,184(sp)
   11954:	00c31463          	bne	t1,a2,1195c <_vfprintf_r+0x5f8>
   11958:	4d80106f          	j	12e30 <_vfprintf_r+0x1acc>
   1195c:	04100613          	li	a2,65
   11960:	05000693          	li	a3,80
   11964:	00c30463          	beq	t1,a2,1196c <_vfprintf_r+0x608>
   11968:	0b80106f          	j	12a20 <_vfprintf_r+0x16bc>
   1196c:	4605                	li	a2,1
   1196e:	0cd10023          	sb	a3,192(sp)
   11972:	02b00693          	li	a3,43
   11976:	00075763          	bgez	a4,11984 <_vfprintf_r+0x620>
   1197a:	77c2                	ld	a5,48(sp)
   1197c:	4705                	li	a4,1
   1197e:	02d00693          	li	a3,45
   11982:	9f1d                	subw	a4,a4,a5
   11984:	0cd100a3          	sb	a3,193(sp)
   11988:	46a5                	li	a3,9
   1198a:	00e6c463          	blt	a3,a4,11992 <_vfprintf_r+0x62e>
   1198e:	33a0106f          	j	12cc8 <_vfprintf_r+0x1964>
   11992:	0cf10893          	addi	a7,sp,207
   11996:	8546                	mv	a0,a7
   11998:	4829                	li	a6,10
   1199a:	06300f13          	li	t5,99
   1199e:	030767bb          	remw	a5,a4,a6
   119a2:	86aa                	mv	a3,a0
   119a4:	863a                	mv	a2,a4
   119a6:	157d                	addi	a0,a0,-1
   119a8:	0307879b          	addiw	a5,a5,48
   119ac:	fef68fa3          	sb	a5,-1(a3)
   119b0:	0307473b          	divw	a4,a4,a6
   119b4:	fecf45e3          	blt	t5,a2,1199e <_vfprintf_r+0x63a>
   119b8:	0307059b          	addiw	a1,a4,48
   119bc:	feb50fa3          	sb	a1,-1(a0)
   119c0:	ffe68713          	addi	a4,a3,-2
   119c4:	01176463          	bltu	a4,a7,119cc <_vfprintf_r+0x668>
   119c8:	4a00106f          	j	12e68 <_vfprintf_r+0x1b04>
   119cc:	0c210613          	addi	a2,sp,194
   119d0:	00074783          	lbu	a5,0(a4)
   119d4:	0705                	addi	a4,a4,1
   119d6:	0605                	addi	a2,a2,1
   119d8:	fef60fa3          	sb	a5,-1(a2)
   119dc:	ff171ae3          	bne	a4,a7,119d0 <_vfprintf_r+0x66c>
   119e0:	139c                	addi	a5,sp,480
   119e2:	40d786b3          	sub	a3,a5,a3
   119e6:	ef36879b          	addiw	a5,a3,-269
   119ea:	f8be                	sd	a5,112(sp)
   119ec:	7746                	ld	a4,112(sp)
   119ee:	77e2                	ld	a5,56(sp)
   119f0:	4605                	li	a2,1
   119f2:	00e786bb          	addw	a3,a5,a4
   119f6:	8736                	mv	a4,a3
   119f8:	00f64463          	blt	a2,a5,11a00 <_vfprintf_r+0x69c>
   119fc:	2f60106f          	j	12cf2 <_vfprintf_r+0x198e>
   11a00:	67c6                	ld	a5,80(sp)
   11a02:	00f706bb          	addw	a3,a4,a5
   11a06:	fff6c813          	not	a6,a3
   11a0a:	bffdfe13          	andi	t3,s11,-1025
   11a0e:	43f85813          	srai	a6,a6,0x3f
   11a12:	2e01                	sext.w	t3,t3
   11a14:	0106f833          	and	a6,a3,a6
   11a18:	100e6d93          	ori	s11,t3,256
   11a1c:	00080c1b          	sext.w	s8,a6
   11a20:	e482                	sd	zero,72(sp)
   11a22:	e082                	sd	zero,64(sp)
   11a24:	f802                	sd	zero,48(sp)
   11a26:	77a6                	ld	a5,104(sp)
   11a28:	e399                	bnez	a5,11a2e <_vfprintf_r+0x6ca>
   11a2a:	00e0106f          	j	12a38 <_vfprintf_r+0x16d4>
   11a2e:	02d00713          	li	a4,45
   11a32:	0ae107a3          	sb	a4,175(sp)
   11a36:	4b01                	li	s6,0
   11a38:	2c05                	addiw	s8,s8,1
   11a3a:	b4f9                	j	11508 <_vfprintf_r+0x1a4>
   11a3c:	6522                	ld	a0,8(sp)
   11a3e:	1190                	addi	a2,sp,224
   11a40:	85ca                	mv	a1,s2
   11a42:	ed36                	sd	a3,152(sp)
   11a44:	e91a                	sd	t1,144(sp)
   11a46:	f496                	sd	t0,104(sp)
   11a48:	506010ef          	jal	12f4e <__sprint_r>
   11a4c:	58051563          	bnez	a0,11fd6 <_vfprintf_r+0xc72>
   11a50:	74ce                	ld	s1,240(sp)
   11a52:	66ea                	ld	a3,152(sp)
   11a54:	634a                	ld	t1,144(sp)
   11a56:	72a6                	ld	t0,104(sp)
   11a58:	8452                	mv	s0,s4
   11a5a:	bcc5                	j	1154a <_vfprintf_r+0x1e6>
   11a5c:	572e                	lw	a4,232(sp)
   11a5e:	77e2                	ld	a5,56(sp)
   11a60:	4685                	li	a3,1
   11a62:	00170b1b          	addiw	s6,a4,1
   11a66:	01a43023          	sd	s10,0(s0)
   11a6a:	0485                	addi	s1,s1,1
   11a6c:	875a                	mv	a4,s6
   11a6e:	01040c93          	addi	s9,s0,16
   11a72:	7cf6d363          	bge	a3,a5,12238 <_vfprintf_r+0xed4>
   11a76:	4685                	li	a3,1
   11a78:	d5ba                	sw	a4,232(sp)
   11a7a:	e414                	sd	a3,8(s0)
   11a7c:	f9a6                	sd	s1,240(sp)
   11a7e:	471d                	li	a4,7
   11a80:	2b6744e3          	blt	a4,s6,12528 <_vfprintf_r+0x11c4>
   11a84:	67c6                	ld	a5,80(sp)
   11a86:	66e6                	ld	a3,88(sp)
   11a88:	2b05                	addiw	s6,s6,1
   11a8a:	94be                	add	s1,s1,a5
   11a8c:	00dcb023          	sd	a3,0(s9)
   11a90:	00fcb423          	sd	a5,8(s9)
   11a94:	f9a6                	sd	s1,240(sp)
   11a96:	d5da                	sw	s6,232(sp)
   11a98:	471d                	li	a4,7
   11a9a:	0cc1                	addi	s9,s9,16
   11a9c:	2b6742e3          	blt	a4,s6,12540 <_vfprintf_r+0x11dc>
   11aa0:	77e2                	ld	a5,56(sp)
   11aa2:	654e                	ld	a0,208(sp)
   11aa4:	65ee                	ld	a1,216(sp)
   11aa6:	4601                	li	a2,0
   11aa8:	4681                	li	a3,0
   11aaa:	fff7841b          	addiw	s0,a5,-1
   11aae:	65b050ef          	jal	17908 <__eqtf2>
   11ab2:	7a050863          	beqz	a0,12262 <_vfprintf_r+0xefe>
   11ab6:	001d0793          	addi	a5,s10,1
   11aba:	2b05                	addiw	s6,s6,1
   11abc:	94a2                	add	s1,s1,s0
   11abe:	00fcb023          	sd	a5,0(s9)
   11ac2:	008cb423          	sd	s0,8(s9)
   11ac6:	f9a6                	sd	s1,240(sp)
   11ac8:	d5da                	sw	s6,232(sp)
   11aca:	479d                	li	a5,7
   11acc:	7967c063          	blt	a5,s6,1224c <_vfprintf_r+0xee8>
   11ad0:	0cc1                	addi	s9,s9,16
   11ad2:	7746                	ld	a4,112(sp)
   11ad4:	2b05                	addiw	s6,s6,1
   11ad6:	019c                	addi	a5,sp,192
   11ad8:	94ba                	add	s1,s1,a4
   11ada:	00fcb023          	sd	a5,0(s9)
   11ade:	00ecb423          	sd	a4,8(s9)
   11ae2:	f9a6                	sd	s1,240(sp)
   11ae4:	000b071b          	sext.w	a4,s6
   11ae8:	d5da                	sw	s6,232(sp)
   11aea:	479d                	li	a5,7
   11aec:	010c8413          	addi	s0,s9,16
   11af0:	aae7d6e3          	bge	a5,a4,1159c <_vfprintf_r+0x238>
   11af4:	6522                	ld	a0,8(sp)
   11af6:	1190                	addi	a2,sp,224
   11af8:	85ca                	mv	a1,s2
   11afa:	454010ef          	jal	12f4e <__sprint_r>
   11afe:	4c051c63          	bnez	a0,11fd6 <_vfprintf_r+0xc72>
   11b02:	74ce                	ld	s1,240(sp)
   11b04:	8452                	mv	s0,s4
   11b06:	bc59                	j	1159c <_vfprintf_r+0x238>
   11b08:	010df793          	andi	a5,s11,16
   11b0c:	7e079263          	bnez	a5,122f0 <_vfprintf_r+0xf8c>
   11b10:	7682                	ld	a3,32(sp)
   11b12:	040df793          	andi	a5,s11,64
   11b16:	4284                	lw	s1,0(a3)
   11b18:	3e0780e3          	beqz	a5,126f8 <_vfprintf_r+0x1394>
   11b1c:	14c2                	slli	s1,s1,0x30
   11b1e:	90c1                	srli	s1,s1,0x30
   11b20:	be6d                	j	116da <_vfprintf_r+0x376>
   11b22:	010df793          	andi	a5,s11,16
   11b26:	00079de3          	bnez	a5,12340 <_vfprintf_r+0xfdc>
   11b2a:	7682                	ld	a3,32(sp)
   11b2c:	040df793          	andi	a5,s11,64
   11b30:	4284                	lw	s1,0(a3)
   11b32:	3c078be3          	beqz	a5,12708 <_vfprintf_r+0x13a4>
   11b36:	0104949b          	slliw	s1,s1,0x10
   11b3a:	4104d49b          	sraiw	s1,s1,0x10
   11b3e:	87a6                	mv	a5,s1
   11b40:	b407d0e3          	bgez	a5,11680 <_vfprintf_r+0x31c>
   11b44:	f03a                	sd	a4,32(sp)
   11b46:	02d00713          	li	a4,45
   11b4a:	0ae107a3          	sb	a4,175(sp)
   11b4e:	409004b3          	neg	s1,s1
   11b52:	8cee                	mv	s9,s11
   11b54:	4785                	li	a5,1
   11b56:	b80b5ce3          	bgez	s6,116ee <_vfprintf_r+0x38a>
   11b5a:	4705                	li	a4,1
   11b5c:	48e78963          	beq	a5,a4,11fee <_vfprintf_r+0xc8a>
   11b60:	4709                	li	a4,2
   11b62:	30e78163          	beq	a5,a4,11e64 <_vfprintf_r+0xb00>
   11b66:	0af4                	addi	a3,sp,348
   11b68:	8d36                	mv	s10,a3
   11b6a:	0074f713          	andi	a4,s1,7
   11b6e:	03070713          	addi	a4,a4,48
   11b72:	feed0fa3          	sb	a4,-1(s10)
   11b76:	808d                	srli	s1,s1,0x3
   11b78:	866a                	mv	a2,s10
   11b7a:	1d7d                	addi	s10,s10,-1
   11b7c:	f4fd                	bnez	s1,11b6a <_vfprintf_r+0x806>
   11b7e:	001cf593          	andi	a1,s9,1
   11b82:	2e058e63          	beqz	a1,11e7e <_vfprintf_r+0xb1a>
   11b86:	03000593          	li	a1,48
   11b8a:	2eb70a63          	beq	a4,a1,11e7e <_vfprintf_r+0xb1a>
   11b8e:	1679                	addi	a2,a2,-2
   11b90:	febd0fa3          	sb	a1,-1(s10)
   11b94:	9e91                	subw	a3,a3,a2
   11b96:	8de6                	mv	s11,s9
   11b98:	8d32                	mv	s10,a2
   11b9a:	b621                	j	116a2 <_vfprintf_r+0x33e>
   11b9c:	7782                	ld	a5,32(sp)
   11b9e:	0a0107a3          	sb	zero,175(sp)
   11ba2:	0007bd03          	ld	s10,0(a5)
   11ba6:	00878493          	addi	s1,a5,8
   11baa:	080d0ae3          	beqz	s10,1243e <_vfprintf_r+0x10da>
   11bae:	280b4fe3          	bltz	s6,1264c <_vfprintf_r+0x12e8>
   11bb2:	865a                	mv	a2,s6
   11bb4:	4581                	li	a1,0
   11bb6:	856a                	mv	a0,s10
   11bb8:	f01a                	sd	t1,32(sp)
   11bba:	2cd010ef          	jal	13686 <memchr>
   11bbe:	ec2a                	sd	a0,24(sp)
   11bc0:	7302                	ld	t1,32(sp)
   11bc2:	e119                	bnez	a0,11bc8 <_vfprintf_r+0x864>
   11bc4:	7b90006f          	j	12b7c <_vfprintf_r+0x1818>
   11bc8:	67e2                	ld	a5,24(sp)
   11bca:	0af14703          	lbu	a4,175(sp)
   11bce:	f026                	sd	s1,32(sp)
   11bd0:	41a786bb          	subw	a3,a5,s10
   11bd4:	fff6c813          	not	a6,a3
   11bd8:	43f85813          	srai	a6,a6,0x3f
   11bdc:	ec02                	sd	zero,24(sp)
   11bde:	e482                	sd	zero,72(sp)
   11be0:	e082                	sd	zero,64(sp)
   11be2:	f802                	sd	zero,48(sp)
   11be4:	00d87c33          	and	s8,a6,a3
   11be8:	4b01                	li	s6,0
   11bea:	ac071ae3          	bnez	a4,116be <_vfprintf_r+0x35a>
   11bee:	ba29                	j	11508 <_vfprintf_r+0x1a4>
   11bf0:	7702                	ld	a4,32(sp)
   11bf2:	0a0107a3          	sb	zero,175(sp)
   11bf6:	4c05                	li	s8,1
   11bf8:	431c                	lw	a5,0(a4)
   11bfa:	0721                	addi	a4,a4,8
   11bfc:	f03a                	sd	a4,32(sp)
   11bfe:	0ef10c23          	sb	a5,248(sp)
   11c02:	4685                	li	a3,1
   11c04:	0f810d13          	addi	s10,sp,248
   11c08:	b8dd                	j	114fe <_vfprintf_r+0x19a>
   11c0a:	7782                	ld	a5,32(sp)
   11c0c:	0007ab83          	lw	s7,0(a5)
   11c10:	07a1                	addi	a5,a5,8
   11c12:	6c0bda63          	bgez	s7,122e6 <_vfprintf_r+0xf82>
   11c16:	41700bbb          	negw	s7,s7
   11c1a:	f03e                	sd	a5,32(sp)
   11c1c:	004ded93          	ori	s11,s11,4
   11c20:	0009c303          	lbu	t1,0(s3)
   11c24:	2d81                	sext.w	s11,s11
   11c26:	b0bd                	j	11494 <_vfprintf_r+0x130>
   11c28:	02b00793          	li	a5,43
   11c2c:	0009c303          	lbu	t1,0(s3)
   11c30:	0af107a3          	sb	a5,175(sp)
   11c34:	b085                	j	11494 <_vfprintf_r+0x130>
   11c36:	080ded93          	ori	s11,s11,128
   11c3a:	0009c303          	lbu	t1,0(s3)
   11c3e:	2d81                	sext.w	s11,s11
   11c40:	b891                	j	11494 <_vfprintf_r+0x130>
   11c42:	0009c303          	lbu	t1,0(s3)
   11c46:	02a00693          	li	a3,42
   11c4a:	00198713          	addi	a4,s3,1
   11c4e:	00d31463          	bne	t1,a3,11c56 <_vfprintf_r+0x8f2>
   11c52:	21e0106f          	j	12e70 <_vfprintf_r+0x1b0c>
   11c56:	fd03079b          	addiw	a5,t1,-48
   11c5a:	45a5                	li	a1,9
   11c5c:	4681                	li	a3,0
   11c5e:	4625                	li	a2,9
   11c60:	89ba                	mv	s3,a4
   11c62:	4b01                	li	s6,0
   11c64:	82f5eae3          	bltu	a1,a5,11498 <_vfprintf_r+0x134>
   11c68:	00074303          	lbu	t1,0(a4)
   11c6c:	00269b1b          	slliw	s6,a3,0x2
   11c70:	00db0b3b          	addw	s6,s6,a3
   11c74:	001b1b1b          	slliw	s6,s6,0x1
   11c78:	00fb06bb          	addw	a3,s6,a5
   11c7c:	fd03079b          	addiw	a5,t1,-48
   11c80:	8b36                	mv	s6,a3
   11c82:	0705                	addi	a4,a4,1
   11c84:	fef672e3          	bgeu	a2,a5,11c68 <_vfprintf_r+0x904>
   11c88:	7206c563          	bltz	a3,123b2 <_vfprintf_r+0x104e>
   11c8c:	89ba                	mv	s3,a4
   11c8e:	80bff06f          	j	11498 <_vfprintf_r+0x134>
   11c92:	010dec93          	ori	s9,s11,16
   11c96:	2c81                	sext.w	s9,s9
   11c98:	7682                	ld	a3,32(sp)
   11c9a:	020cf793          	andi	a5,s9,32
   11c9e:	00868713          	addi	a4,a3,8
   11ca2:	60078963          	beqz	a5,122b4 <_vfprintf_r+0xf50>
   11ca6:	6284                	ld	s1,0(a3)
   11ca8:	4785                	li	a5,1
   11caa:	f03a                	sd	a4,32(sp)
   11cac:	bc25                	j	116e4 <_vfprintf_r+0x380>
   11cae:	001ded93          	ori	s11,s11,1
   11cb2:	0009c303          	lbu	t1,0(s3)
   11cb6:	2d81                	sext.w	s11,s11
   11cb8:	fdcff06f          	j	11494 <_vfprintf_r+0x130>
   11cbc:	0af14783          	lbu	a5,175(sp)
   11cc0:	0009c303          	lbu	t1,0(s3)
   11cc4:	fc079863          	bnez	a5,11494 <_vfprintf_r+0x130>
   11cc8:	02000793          	li	a5,32
   11ccc:	0af107a3          	sb	a5,175(sp)
   11cd0:	fc4ff06f          	j	11494 <_vfprintf_r+0x130>
   11cd4:	6c22                	ld	s8,8(sp)
   11cd6:	8562                	mv	a0,s8
   11cd8:	2f7010ef          	jal	137ce <_localeconv_r>
   11cdc:	651c                	ld	a5,8(a0)
   11cde:	853e                	mv	a0,a5
   11ce0:	fcbe                	sd	a5,120(sp)
   11ce2:	57b010ef          	jal	13a5c <strlen>
   11ce6:	87aa                	mv	a5,a0
   11ce8:	8562                	mv	a0,s8
   11cea:	e53e                	sd	a5,136(sp)
   11cec:	8c3e                	mv	s8,a5
   11cee:	2e1010ef          	jal	137ce <_localeconv_r>
   11cf2:	691c                	ld	a5,16(a0)
   11cf4:	0009c303          	lbu	t1,0(s3)
   11cf8:	e13e                	sd	a5,128(sp)
   11cfa:	f80c0d63          	beqz	s8,11494 <_vfprintf_r+0x130>
   11cfe:	f8078b63          	beqz	a5,11494 <_vfprintf_r+0x130>
   11d02:	0007c783          	lbu	a5,0(a5)
   11d06:	f8078763          	beqz	a5,11494 <_vfprintf_r+0x130>
   11d0a:	400ded93          	ori	s11,s11,1024
   11d0e:	2d81                	sext.w	s11,s11
   11d10:	f84ff06f          	j	11494 <_vfprintf_r+0x130>
   11d14:	008ded93          	ori	s11,s11,8
   11d18:	0009c303          	lbu	t1,0(s3)
   11d1c:	2d81                	sext.w	s11,s11
   11d1e:	f76ff06f          	j	11494 <_vfprintf_r+0x130>
   11d22:	020ded93          	ori	s11,s11,32
   11d26:	0009c303          	lbu	t1,0(s3)
   11d2a:	2d81                	sext.w	s11,s11
   11d2c:	f68ff06f          	j	11494 <_vfprintf_r+0x130>
   11d30:	7702                	ld	a4,32(sp)
   11d32:	67a1                	lui	a5,0x8
   11d34:	83078793          	addi	a5,a5,-2000 # 7830 <exit-0x88b8>
   11d38:	0af11823          	sh	a5,176(sp)
   11d3c:	00870793          	addi	a5,a4,8
   11d40:	f03e                	sd	a5,32(sp)
   11d42:	67e5                	lui	a5,0x19
   11d44:	b4078793          	addi	a5,a5,-1216 # 18b40 <__clzdi2+0x6a>
   11d48:	002dec93          	ori	s9,s11,2
   11d4c:	f0be                	sd	a5,96(sp)
   11d4e:	6304                	ld	s1,0(a4)
   11d50:	2c81                	sext.w	s9,s9
   11d52:	4789                	li	a5,2
   11d54:	07800313          	li	t1,120
   11d58:	b271                	j	116e4 <_vfprintf_r+0x380>
   11d5a:	7702                	ld	a4,32(sp)
   11d5c:	020df793          	andi	a5,s11,32
   11d60:	6318                	ld	a4,0(a4)
   11d62:	5a078163          	beqz	a5,12304 <_vfprintf_r+0xfa0>
   11d66:	67c2                	ld	a5,16(sp)
   11d68:	e31c                	sd	a5,0(a4)
   11d6a:	7782                	ld	a5,32(sp)
   11d6c:	8d4e                	mv	s10,s3
   11d6e:	07a1                	addi	a5,a5,8
   11d70:	f03e                	sd	a5,32(sp)
   11d72:	b8b9                	j	115d0 <_vfprintf_r+0x26c>
   11d74:	0009c303          	lbu	t1,0(s3)
   11d78:	06c00793          	li	a5,108
   11d7c:	68f30f63          	beq	t1,a5,1241a <_vfprintf_r+0x10b6>
   11d80:	010ded93          	ori	s11,s11,16
   11d84:	2d81                	sext.w	s11,s11
   11d86:	f0eff06f          	j	11494 <_vfprintf_r+0x130>
   11d8a:	0009c303          	lbu	t1,0(s3)
   11d8e:	06800793          	li	a5,104
   11d92:	66f30c63          	beq	t1,a5,1240a <_vfprintf_r+0x10a6>
   11d96:	040ded93          	ori	s11,s11,64
   11d9a:	2d81                	sext.w	s11,s11
   11d9c:	ef8ff06f          	j	11494 <_vfprintf_r+0x130>
   11da0:	06500713          	li	a4,101
   11da4:	ca675ce3          	bge	a4,t1,11a5c <_vfprintf_r+0x6f8>
   11da8:	654e                	ld	a0,208(sp)
   11daa:	65ee                	ld	a1,216(sp)
   11dac:	4601                	li	a2,0
   11dae:	4681                	li	a3,0
   11db0:	359050ef          	jal	17908 <__eqtf2>
   11db4:	38051463          	bnez	a0,1213c <_vfprintf_r+0xdd8>
   11db8:	57ae                	lw	a5,232(sp)
   11dba:	6765                	lui	a4,0x19
   11dbc:	b7870713          	addi	a4,a4,-1160 # 18b78 <__clzdi2+0xa2>
   11dc0:	2785                	addiw	a5,a5,1
   11dc2:	e018                	sd	a4,0(s0)
   11dc4:	0485                	addi	s1,s1,1
   11dc6:	4705                	li	a4,1
   11dc8:	e418                	sd	a4,8(s0)
   11dca:	d5be                	sw	a5,232(sp)
   11dcc:	0007871b          	sext.w	a4,a5
   11dd0:	f9a6                	sd	s1,240(sp)
   11dd2:	479d                	li	a5,7
   11dd4:	0441                	addi	s0,s0,16
   11dd6:	7ee7c963          	blt	a5,a4,125c8 <_vfprintf_r+0x1264>
   11dda:	57ea                	lw	a5,184(sp)
   11ddc:	7762                	ld	a4,56(sp)
   11dde:	4ee7df63          	bge	a5,a4,122dc <_vfprintf_r+0xf78>
   11de2:	6746                	ld	a4,80(sp)
   11de4:	57ae                	lw	a5,232(sp)
   11de6:	66e6                	ld	a3,88(sp)
   11de8:	94ba                	add	s1,s1,a4
   11dea:	2785                	addiw	a5,a5,1
   11dec:	e418                	sd	a4,8(s0)
   11dee:	e014                	sd	a3,0(s0)
   11df0:	0007871b          	sext.w	a4,a5
   11df4:	d5be                	sw	a5,232(sp)
   11df6:	f9a6                	sd	s1,240(sp)
   11df8:	479d                	li	a5,7
   11dfa:	0441                	addi	s0,s0,16
   11dfc:	62e7c763          	blt	a5,a4,1242a <_vfprintf_r+0x10c6>
   11e00:	77e2                	ld	a5,56(sp)
   11e02:	fff78b1b          	addiw	s6,a5,-1
   11e06:	f9605b63          	blez	s6,1159c <_vfprintf_r+0x238>
   11e0a:	68e5                	lui	a7,0x19
   11e0c:	4741                	li	a4,16
   11e0e:	57ae                	lw	a5,232(sp)
   11e10:	e4088893          	addi	a7,a7,-448 # 18e40 <zeroes.0>
   11e14:	7d675863          	bge	a4,s6,125e4 <_vfprintf_r+0x1280>
   11e18:	f84e                	sd	s3,48(sp)
   11e1a:	4cc1                	li	s9,16
   11e1c:	89da                	mv	s3,s6
   11e1e:	4d1d                	li	s10,7
   11e20:	8b46                	mv	s6,a7
   11e22:	a021                	j	11e2a <_vfprintf_r+0xac6>
   11e24:	39c1                	addiw	s3,s3,-16
   11e26:	7b3cdc63          	bge	s9,s3,125de <_vfprintf_r+0x127a>
   11e2a:	2785                	addiw	a5,a5,1
   11e2c:	04c1                	addi	s1,s1,16
   11e2e:	01643023          	sd	s6,0(s0)
   11e32:	01943423          	sd	s9,8(s0)
   11e36:	f9a6                	sd	s1,240(sp)
   11e38:	d5be                	sw	a5,232(sp)
   11e3a:	0441                	addi	s0,s0,16
   11e3c:	fefd54e3          	bge	s10,a5,11e24 <_vfprintf_r+0xac0>
   11e40:	6522                	ld	a0,8(sp)
   11e42:	1190                	addi	a2,sp,224
   11e44:	85ca                	mv	a1,s2
   11e46:	108010ef          	jal	12f4e <__sprint_r>
   11e4a:	18051663          	bnez	a0,11fd6 <_vfprintf_r+0xc72>
   11e4e:	74ce                	ld	s1,240(sp)
   11e50:	57ae                	lw	a5,232(sp)
   11e52:	8452                	mv	s0,s4
   11e54:	bfc1                	j	11e24 <_vfprintf_r+0xac0>
   11e56:	4705                	li	a4,1
   11e58:	58e78fe3          	beq	a5,a4,12bf6 <_vfprintf_r+0x1892>
   11e5c:	4709                	li	a4,2
   11e5e:	8cee                	mv	s9,s11
   11e60:	d0e793e3          	bne	a5,a4,11b66 <_vfprintf_r+0x802>
   11e64:	7706                	ld	a4,96(sp)
   11e66:	0af4                	addi	a3,sp,348
   11e68:	8d36                	mv	s10,a3
   11e6a:	00f4f793          	andi	a5,s1,15
   11e6e:	97ba                	add	a5,a5,a4
   11e70:	0007c783          	lbu	a5,0(a5)
   11e74:	8091                	srli	s1,s1,0x4
   11e76:	1d7d                	addi	s10,s10,-1
   11e78:	00fd0023          	sb	a5,0(s10)
   11e7c:	f4fd                	bnez	s1,11e6a <_vfprintf_r+0xb06>
   11e7e:	41a686bb          	subw	a3,a3,s10
   11e82:	8de6                	mv	s11,s9
   11e84:	81fff06f          	j	116a2 <_vfprintf_r+0x33e>
   11e88:	418b8cbb          	subw	s9,s7,s8
   11e8c:	ef905463          	blez	s9,11574 <_vfprintf_r+0x210>
   11e90:	68e5                	lui	a7,0x19
   11e92:	45c1                	li	a1,16
   11e94:	562e                	lw	a2,232(sp)
   11e96:	e4088893          	addi	a7,a7,-448 # 18e40 <zeroes.0>
   11e9a:	0595df63          	bge	a1,s9,11ef8 <_vfprintf_r+0xb94>
   11e9e:	87a2                	mv	a5,s0
   11ea0:	8726                	mv	a4,s1
   11ea2:	8466                	mv	s0,s9
   11ea4:	4f41                	li	t5,16
   11ea6:	8ce2                	mv	s9,s8
   11ea8:	4f9d                	li	t6,7
   11eaa:	f49a                	sd	t1,104(sp)
   11eac:	8c36                	mv	s8,a3
   11eae:	84c6                	mv	s1,a7
   11eb0:	a021                	j	11eb8 <_vfprintf_r+0xb54>
   11eb2:	3441                	addiw	s0,s0,-16
   11eb4:	028f5b63          	bge	t5,s0,11eea <_vfprintf_r+0xb86>
   11eb8:	2605                	addiw	a2,a2,1
   11eba:	0741                	addi	a4,a4,16
   11ebc:	e384                	sd	s1,0(a5)
   11ebe:	01e7b423          	sd	t5,8(a5)
   11ec2:	f9ba                	sd	a4,240(sp)
   11ec4:	d5b2                	sw	a2,232(sp)
   11ec6:	07c1                	addi	a5,a5,16
   11ec8:	fecfd5e3          	bge	t6,a2,11eb2 <_vfprintf_r+0xb4e>
   11ecc:	6522                	ld	a0,8(sp)
   11ece:	1190                	addi	a2,sp,224
   11ed0:	85ca                	mv	a1,s2
   11ed2:	07c010ef          	jal	12f4e <__sprint_r>
   11ed6:	10051063          	bnez	a0,11fd6 <_vfprintf_r+0xc72>
   11eda:	4f41                	li	t5,16
   11edc:	3441                	addiw	s0,s0,-16
   11ede:	774e                	ld	a4,240(sp)
   11ee0:	562e                	lw	a2,232(sp)
   11ee2:	87d2                	mv	a5,s4
   11ee4:	4f9d                	li	t6,7
   11ee6:	fc8f49e3          	blt	t5,s0,11eb8 <_vfprintf_r+0xb54>
   11eea:	7326                	ld	t1,104(sp)
   11eec:	86e2                	mv	a3,s8
   11eee:	88a6                	mv	a7,s1
   11ef0:	8c66                	mv	s8,s9
   11ef2:	84ba                	mv	s1,a4
   11ef4:	8ca2                	mv	s9,s0
   11ef6:	843e                	mv	s0,a5
   11ef8:	0016059b          	addiw	a1,a2,1
   11efc:	94e6                	add	s1,s1,s9
   11efe:	01143023          	sd	a7,0(s0)
   11f02:	01943423          	sd	s9,8(s0)
   11f06:	f9a6                	sd	s1,240(sp)
   11f08:	d5ae                	sw	a1,232(sp)
   11f0a:	471d                	li	a4,7
   11f0c:	0441                	addi	s0,s0,16
   11f0e:	e6b75363          	bge	a4,a1,11574 <_vfprintf_r+0x210>
   11f12:	6522                	ld	a0,8(sp)
   11f14:	1190                	addi	a2,sp,224
   11f16:	85ca                	mv	a1,s2
   11f18:	e936                	sd	a3,144(sp)
   11f1a:	f49a                	sd	t1,104(sp)
   11f1c:	032010ef          	jal	12f4e <__sprint_r>
   11f20:	e95d                	bnez	a0,11fd6 <_vfprintf_r+0xc72>
   11f22:	74ce                	ld	s1,240(sp)
   11f24:	66ca                	ld	a3,144(sp)
   11f26:	7326                	ld	t1,104(sp)
   11f28:	8452                	mv	s0,s4
   11f2a:	e4aff06f          	j	11574 <_vfprintf_r+0x210>
   11f2e:	68e5                	lui	a7,0x19
   11f30:	4741                	li	a4,16
   11f32:	562e                	lw	a2,232(sp)
   11f34:	e4088893          	addi	a7,a7,-448 # 18e40 <zeroes.0>
   11f38:	05675d63          	bge	a4,s6,11f92 <_vfprintf_r+0xc2e>
   11f3c:	85a6                	mv	a1,s1
   11f3e:	87a2                	mv	a5,s0
   11f40:	84b6                	mv	s1,a3
   11f42:	845a                	mv	s0,s6
   11f44:	4741                	li	a4,16
   11f46:	4c9d                	li	s9,7
   11f48:	f49a                	sd	t1,104(sp)
   11f4a:	8b56                	mv	s6,s5
   11f4c:	86ae                	mv	a3,a1
   11f4e:	a021                	j	11f56 <_vfprintf_r+0xbf2>
   11f50:	3441                	addiw	s0,s0,-16
   11f52:	02875963          	bge	a4,s0,11f84 <_vfprintf_r+0xc20>
   11f56:	2605                	addiw	a2,a2,1
   11f58:	06c1                	addi	a3,a3,16
   11f5a:	0157b023          	sd	s5,0(a5)
   11f5e:	e798                	sd	a4,8(a5)
   11f60:	f9b6                	sd	a3,240(sp)
   11f62:	d5b2                	sw	a2,232(sp)
   11f64:	07c1                	addi	a5,a5,16
   11f66:	feccd5e3          	bge	s9,a2,11f50 <_vfprintf_r+0xbec>
   11f6a:	6522                	ld	a0,8(sp)
   11f6c:	1190                	addi	a2,sp,224
   11f6e:	85ca                	mv	a1,s2
   11f70:	7df000ef          	jal	12f4e <__sprint_r>
   11f74:	e12d                	bnez	a0,11fd6 <_vfprintf_r+0xc72>
   11f76:	4741                	li	a4,16
   11f78:	3441                	addiw	s0,s0,-16
   11f7a:	76ce                	ld	a3,240(sp)
   11f7c:	562e                	lw	a2,232(sp)
   11f7e:	87d2                	mv	a5,s4
   11f80:	fc874be3          	blt	a4,s0,11f56 <_vfprintf_r+0xbf2>
   11f84:	7326                	ld	t1,104(sp)
   11f86:	8736                	mv	a4,a3
   11f88:	88da                	mv	a7,s6
   11f8a:	86a6                	mv	a3,s1
   11f8c:	8b22                	mv	s6,s0
   11f8e:	84ba                	mv	s1,a4
   11f90:	843e                	mv	s0,a5
   11f92:	0016059b          	addiw	a1,a2,1
   11f96:	94da                	add	s1,s1,s6
   11f98:	01143023          	sd	a7,0(s0)
   11f9c:	01643423          	sd	s6,8(s0)
   11fa0:	f9a6                	sd	s1,240(sp)
   11fa2:	d5ae                	sw	a1,232(sp)
   11fa4:	471d                	li	a4,7
   11fa6:	0441                	addi	s0,s0,16
   11fa8:	dcb75a63          	bge	a4,a1,1157c <_vfprintf_r+0x218>
   11fac:	6522                	ld	a0,8(sp)
   11fae:	1190                	addi	a2,sp,224
   11fb0:	85ca                	mv	a1,s2
   11fb2:	e936                	sd	a3,144(sp)
   11fb4:	f49a                	sd	t1,104(sp)
   11fb6:	799000ef          	jal	12f4e <__sprint_r>
   11fba:	ed11                	bnez	a0,11fd6 <_vfprintf_r+0xc72>
   11fbc:	74ce                	ld	s1,240(sp)
   11fbe:	66ca                	ld	a3,144(sp)
   11fc0:	7326                	ld	t1,104(sp)
   11fc2:	8452                	mv	s0,s4
   11fc4:	db8ff06f          	j	1157c <_vfprintf_r+0x218>
   11fc8:	6522                	ld	a0,8(sp)
   11fca:	1190                	addi	a2,sp,224
   11fcc:	85ca                	mv	a1,s2
   11fce:	781000ef          	jal	12f4e <__sprint_r>
   11fd2:	de050663          	beqz	a0,115be <_vfprintf_r+0x25a>
   11fd6:	65e2                	ld	a1,24(sp)
   11fd8:	e0058463          	beqz	a1,115e0 <_vfprintf_r+0x27c>
   11fdc:	6522                	ld	a0,8(sp)
   11fde:	b3dfe0ef          	jal	10b1a <_free_r>
   11fe2:	dfeff06f          	j	115e0 <_vfprintf_r+0x27c>
   11fe6:	4705                	li	a4,1
   11fe8:	8cee                	mv	s9,s11
   11fea:	b6e79be3          	bne	a5,a4,11b60 <_vfprintf_r+0x7fc>
   11fee:	47a5                	li	a5,9
   11ff0:	3697e263          	bltu	a5,s1,12354 <_vfprintf_r+0xff0>
   11ff4:	0304849b          	addiw	s1,s1,48
   11ff8:	14910da3          	sb	s1,347(sp)
   11ffc:	8de6                	mv	s11,s9
   11ffe:	4685                	li	a3,1
   12000:	15b10d13          	addi	s10,sp,347
   12004:	e9eff06f          	j	116a2 <_vfprintf_r+0x33e>
   12008:	68e5                	lui	a7,0x19
   1200a:	45c1                	li	a1,16
   1200c:	562e                	lw	a2,232(sp)
   1200e:	e5088893          	addi	a7,a7,-432 # 18e50 <blanks.1>
   12012:	04e5de63          	bge	a1,a4,1206e <_vfprintf_r+0xd0a>
   12016:	ed36                	sd	a3,152(sp)
   12018:	87a2                	mv	a5,s0
   1201a:	86a6                	mv	a3,s1
   1201c:	4f41                	li	t5,16
   1201e:	439d                	li	t2,7
   12020:	f496                	sd	t0,104(sp)
   12022:	e91a                	sd	t1,144(sp)
   12024:	843a                	mv	s0,a4
   12026:	84c6                	mv	s1,a7
   12028:	a021                	j	12030 <_vfprintf_r+0xccc>
   1202a:	3441                	addiw	s0,s0,-16
   1202c:	028f5a63          	bge	t5,s0,12060 <_vfprintf_r+0xcfc>
   12030:	2605                	addiw	a2,a2,1
   12032:	06c1                	addi	a3,a3,16
   12034:	e384                	sd	s1,0(a5)
   12036:	01e7b423          	sd	t5,8(a5)
   1203a:	f9b6                	sd	a3,240(sp)
   1203c:	d5b2                	sw	a2,232(sp)
   1203e:	07c1                	addi	a5,a5,16
   12040:	fec3d5e3          	bge	t2,a2,1202a <_vfprintf_r+0xcc6>
   12044:	6522                	ld	a0,8(sp)
   12046:	1190                	addi	a2,sp,224
   12048:	85ca                	mv	a1,s2
   1204a:	705000ef          	jal	12f4e <__sprint_r>
   1204e:	f541                	bnez	a0,11fd6 <_vfprintf_r+0xc72>
   12050:	4f41                	li	t5,16
   12052:	3441                	addiw	s0,s0,-16
   12054:	76ce                	ld	a3,240(sp)
   12056:	562e                	lw	a2,232(sp)
   12058:	87d2                	mv	a5,s4
   1205a:	439d                	li	t2,7
   1205c:	fc8f4ae3          	blt	t5,s0,12030 <_vfprintf_r+0xccc>
   12060:	88a6                	mv	a7,s1
   12062:	72a6                	ld	t0,104(sp)
   12064:	84b6                	mv	s1,a3
   12066:	634a                	ld	t1,144(sp)
   12068:	66ea                	ld	a3,152(sp)
   1206a:	8722                	mv	a4,s0
   1206c:	843e                	mv	s0,a5
   1206e:	94ba                	add	s1,s1,a4
   12070:	0016059b          	addiw	a1,a2,1
   12074:	e418                	sd	a4,8(s0)
   12076:	01143023          	sd	a7,0(s0)
   1207a:	f9a6                	sd	s1,240(sp)
   1207c:	d5ae                	sw	a1,232(sp)
   1207e:	471d                	li	a4,7
   12080:	0441                	addi	s0,s0,16
   12082:	cab75163          	bge	a4,a1,11524 <_vfprintf_r+0x1c0>
   12086:	6522                	ld	a0,8(sp)
   12088:	1190                	addi	a2,sp,224
   1208a:	85ca                	mv	a1,s2
   1208c:	ed36                	sd	a3,152(sp)
   1208e:	e91a                	sd	t1,144(sp)
   12090:	f496                	sd	t0,104(sp)
   12092:	6bd000ef          	jal	12f4e <__sprint_r>
   12096:	f121                	bnez	a0,11fd6 <_vfprintf_r+0xc72>
   12098:	74ce                	ld	s1,240(sp)
   1209a:	66ea                	ld	a3,152(sp)
   1209c:	634a                	ld	t1,144(sp)
   1209e:	72a6                	ld	t0,104(sp)
   120a0:	8452                	mv	s0,s4
   120a2:	c82ff06f          	j	11524 <_vfprintf_r+0x1c0>
   120a6:	6522                	ld	a0,8(sp)
   120a8:	1190                	addi	a2,sp,224
   120aa:	85ca                	mv	a1,s2
   120ac:	e936                	sd	a3,144(sp)
   120ae:	f49a                	sd	t1,104(sp)
   120b0:	69f000ef          	jal	12f4e <__sprint_r>
   120b4:	f10d                	bnez	a0,11fd6 <_vfprintf_r+0xc72>
   120b6:	74ce                	ld	s1,240(sp)
   120b8:	66ca                	ld	a3,144(sp)
   120ba:	7326                	ld	t1,104(sp)
   120bc:	8452                	mv	s0,s4
   120be:	caeff06f          	j	1156c <_vfprintf_r+0x208>
   120c2:	68e5                	lui	a7,0x19
   120c4:	e5088893          	addi	a7,a7,-432 # 18e50 <blanks.1>
   120c8:	4741                	li	a4,16
   120ca:	57ae                	lw	a5,232(sp)
   120cc:	4cc1                	li	s9,16
   120ce:	4d1d                	li	s10,7
   120d0:	8dc6                	mv	s11,a7
   120d2:	01674663          	blt	a4,s6,120de <_vfprintf_r+0xd7a>
   120d6:	a82d                	j	12110 <_vfprintf_r+0xdac>
   120d8:	3b41                	addiw	s6,s6,-16
   120da:	036cda63          	bge	s9,s6,1210e <_vfprintf_r+0xdaa>
   120de:	2785                	addiw	a5,a5,1
   120e0:	04c1                	addi	s1,s1,16
   120e2:	01b43023          	sd	s11,0(s0)
   120e6:	01943423          	sd	s9,8(s0)
   120ea:	f9a6                	sd	s1,240(sp)
   120ec:	d5be                	sw	a5,232(sp)
   120ee:	0441                	addi	s0,s0,16
   120f0:	fefd54e3          	bge	s10,a5,120d8 <_vfprintf_r+0xd74>
   120f4:	6522                	ld	a0,8(sp)
   120f6:	1190                	addi	a2,sp,224
   120f8:	85ca                	mv	a1,s2
   120fa:	655000ef          	jal	12f4e <__sprint_r>
   120fe:	ec051ce3          	bnez	a0,11fd6 <_vfprintf_r+0xc72>
   12102:	3b41                	addiw	s6,s6,-16
   12104:	74ce                	ld	s1,240(sp)
   12106:	57ae                	lw	a5,232(sp)
   12108:	8452                	mv	s0,s4
   1210a:	fd6ccae3          	blt	s9,s6,120de <_vfprintf_r+0xd7a>
   1210e:	88ee                	mv	a7,s11
   12110:	0017871b          	addiw	a4,a5,1
   12114:	94da                	add	s1,s1,s6
   12116:	01143023          	sd	a7,0(s0)
   1211a:	01643423          	sd	s6,8(s0)
   1211e:	f9a6                	sd	s1,240(sp)
   12120:	d5ba                	sw	a4,232(sp)
   12122:	479d                	li	a5,7
   12124:	c8e7d463          	bge	a5,a4,115ac <_vfprintf_r+0x248>
   12128:	6522                	ld	a0,8(sp)
   1212a:	1190                	addi	a2,sp,224
   1212c:	85ca                	mv	a1,s2
   1212e:	621000ef          	jal	12f4e <__sprint_r>
   12132:	ea0512e3          	bnez	a0,11fd6 <_vfprintf_r+0xc72>
   12136:	74ce                	ld	s1,240(sp)
   12138:	c74ff06f          	j	115ac <_vfprintf_r+0x248>
   1213c:	576a                	lw	a4,184(sp)
   1213e:	40e05d63          	blez	a4,12558 <_vfprintf_r+0x11f4>
   12142:	77c2                	ld	a5,48(sp)
   12144:	7762                	ld	a4,56(sp)
   12146:	00078b1b          	sext.w	s6,a5
   1214a:	24f74f63          	blt	a4,a5,123a8 <_vfprintf_r+0x1044>
   1214e:	03605063          	blez	s6,1216e <_vfprintf_r+0xe0a>
   12152:	572e                	lw	a4,232(sp)
   12154:	94da                	add	s1,s1,s6
   12156:	01a43023          	sd	s10,0(s0)
   1215a:	0017069b          	addiw	a3,a4,1
   1215e:	01643423          	sd	s6,8(s0)
   12162:	f9a6                	sd	s1,240(sp)
   12164:	d5b6                	sw	a3,232(sp)
   12166:	471d                	li	a4,7
   12168:	0441                	addi	s0,s0,16
   1216a:	7cd74863          	blt	a4,a3,1293a <_vfprintf_r+0x15d6>
   1216e:	fffb4713          	not	a4,s6
   12172:	77c2                	ld	a5,48(sp)
   12174:	977d                	srai	a4,a4,0x3f
   12176:	00eb7b33          	and	s6,s6,a4
   1217a:	41678b3b          	subw	s6,a5,s6
   1217e:	2d604c63          	bgtz	s6,12456 <_vfprintf_r+0x10f2>
   12182:	77c2                	ld	a5,48(sp)
   12184:	400df713          	andi	a4,s11,1024
   12188:	00fd0333          	add	t1,s10,a5
   1218c:	62071063          	bnez	a4,127ac <_vfprintf_r+0x1448>
   12190:	576a                	lw	a4,184(sp)
   12192:	77e2                	ld	a5,56(sp)
   12194:	30f74663          	blt	a4,a5,124a0 <_vfprintf_r+0x113c>
   12198:	001df693          	andi	a3,s11,1
   1219c:	30069263          	bnez	a3,124a0 <_vfprintf_r+0x113c>
   121a0:	76e2                	ld	a3,56(sp)
   121a2:	00dd07b3          	add	a5,s10,a3
   121a6:	40678b33          	sub	s6,a5,t1
   121aa:	9e99                	subw	a3,a3,a4
   121ac:	000b079b          	sext.w	a5,s6
   121b0:	00f6d363          	bge	a3,a5,121b6 <_vfprintf_r+0xe52>
   121b4:	8b36                	mv	s6,a3
   121b6:	2b01                	sext.w	s6,s6
   121b8:	03605063          	blez	s6,121d8 <_vfprintf_r+0xe74>
   121bc:	57ae                	lw	a5,232(sp)
   121be:	94da                	add	s1,s1,s6
   121c0:	00643023          	sd	t1,0(s0)
   121c4:	0017871b          	addiw	a4,a5,1
   121c8:	01643423          	sd	s6,8(s0)
   121cc:	f9a6                	sd	s1,240(sp)
   121ce:	d5ba                	sw	a4,232(sp)
   121d0:	479d                	li	a5,7
   121d2:	0441                	addi	s0,s0,16
   121d4:	1ee7cee3          	blt	a5,a4,12bd0 <_vfprintf_r+0x186c>
   121d8:	fffb4793          	not	a5,s6
   121dc:	97fd                	srai	a5,a5,0x3f
   121de:	00fb7b33          	and	s6,s6,a5
   121e2:	41668b3b          	subw	s6,a3,s6
   121e6:	bb605b63          	blez	s6,1159c <_vfprintf_r+0x238>
   121ea:	68e5                	lui	a7,0x19
   121ec:	4741                	li	a4,16
   121ee:	57ae                	lw	a5,232(sp)
   121f0:	e4088893          	addi	a7,a7,-448 # 18e40 <zeroes.0>
   121f4:	3f675863          	bge	a4,s6,125e4 <_vfprintf_r+0x1280>
   121f8:	f84e                	sd	s3,48(sp)
   121fa:	4cc1                	li	s9,16
   121fc:	89ca                	mv	s3,s2
   121fe:	4d1d                	li	s10,7
   12200:	895a                	mv	s2,s6
   12202:	8b46                	mv	s6,a7
   12204:	a021                	j	1220c <_vfprintf_r+0xea8>
   12206:	3941                	addiw	s2,s2,-16
   12208:	172cd5e3          	bge	s9,s2,12b72 <_vfprintf_r+0x180e>
   1220c:	2785                	addiw	a5,a5,1
   1220e:	04c1                	addi	s1,s1,16
   12210:	01643023          	sd	s6,0(s0)
   12214:	01943423          	sd	s9,8(s0)
   12218:	f9a6                	sd	s1,240(sp)
   1221a:	d5be                	sw	a5,232(sp)
   1221c:	0441                	addi	s0,s0,16
   1221e:	fefd54e3          	bge	s10,a5,12206 <_vfprintf_r+0xea2>
   12222:	6522                	ld	a0,8(sp)
   12224:	1190                	addi	a2,sp,224
   12226:	85ce                	mv	a1,s3
   12228:	527000ef          	jal	12f4e <__sprint_r>
   1222c:	3c0510e3          	bnez	a0,12dec <_vfprintf_r+0x1a88>
   12230:	74ce                	ld	s1,240(sp)
   12232:	57ae                	lw	a5,232(sp)
   12234:	8452                	mv	s0,s4
   12236:	bfc1                	j	12206 <_vfprintf_r+0xea2>
   12238:	001df613          	andi	a2,s11,1
   1223c:	82061de3          	bnez	a2,11a76 <_vfprintf_r+0x712>
   12240:	e414                	sd	a3,8(s0)
   12242:	f9a6                	sd	s1,240(sp)
   12244:	d5da                	sw	s6,232(sp)
   12246:	479d                	li	a5,7
   12248:	8967d5e3          	bge	a5,s6,11ad2 <_vfprintf_r+0x76e>
   1224c:	6522                	ld	a0,8(sp)
   1224e:	1190                	addi	a2,sp,224
   12250:	85ca                	mv	a1,s2
   12252:	4fd000ef          	jal	12f4e <__sprint_r>
   12256:	d80510e3          	bnez	a0,11fd6 <_vfprintf_r+0xc72>
   1225a:	74ce                	ld	s1,240(sp)
   1225c:	5b2e                	lw	s6,232(sp)
   1225e:	8cd2                	mv	s9,s4
   12260:	b88d                	j	11ad2 <_vfprintf_r+0x76e>
   12262:	7762                	ld	a4,56(sp)
   12264:	4785                	li	a5,1
   12266:	86e7d6e3          	bge	a5,a4,11ad2 <_vfprintf_r+0x76e>
   1226a:	68e5                	lui	a7,0x19
   1226c:	47c5                	li	a5,17
   1226e:	e4088893          	addi	a7,a7,-448 # 18e40 <zeroes.0>
   12272:	44e7dd63          	bge	a5,a4,126cc <_vfprintf_r+0x1368>
   12276:	f84e                	sd	s3,48(sp)
   12278:	4741                	li	a4,16
   1227a:	4d1d                	li	s10,7
   1227c:	89c6                	mv	s3,a7
   1227e:	a021                	j	12286 <_vfprintf_r+0xf22>
   12280:	3441                	addiw	s0,s0,-16
   12282:	44875363          	bge	a4,s0,126c8 <_vfprintf_r+0x1364>
   12286:	2b05                	addiw	s6,s6,1
   12288:	04c1                	addi	s1,s1,16
   1228a:	013cb023          	sd	s3,0(s9)
   1228e:	00ecb423          	sd	a4,8(s9)
   12292:	f9a6                	sd	s1,240(sp)
   12294:	d5da                	sw	s6,232(sp)
   12296:	0cc1                	addi	s9,s9,16
   12298:	ff6d54e3          	bge	s10,s6,12280 <_vfprintf_r+0xf1c>
   1229c:	6522                	ld	a0,8(sp)
   1229e:	1190                	addi	a2,sp,224
   122a0:	85ca                	mv	a1,s2
   122a2:	4ad000ef          	jal	12f4e <__sprint_r>
   122a6:	d20518e3          	bnez	a0,11fd6 <_vfprintf_r+0xc72>
   122aa:	74ce                	ld	s1,240(sp)
   122ac:	5b2e                	lw	s6,232(sp)
   122ae:	8cd2                	mv	s9,s4
   122b0:	4741                	li	a4,16
   122b2:	b7f9                	j	12280 <_vfprintf_r+0xf1c>
   122b4:	010cf793          	andi	a5,s9,16
   122b8:	e3a1                	bnez	a5,122f8 <_vfprintf_r+0xf94>
   122ba:	7682                	ld	a3,32(sp)
   122bc:	040cf793          	andi	a5,s9,64
   122c0:	4284                	lw	s1,0(a3)
   122c2:	42078163          	beqz	a5,126e4 <_vfprintf_r+0x1380>
   122c6:	14c2                	slli	s1,s1,0x30
   122c8:	90c1                	srli	s1,s1,0x30
   122ca:	f03a                	sd	a4,32(sp)
   122cc:	4785                	li	a5,1
   122ce:	c16ff06f          	j	116e4 <_vfprintf_r+0x380>
   122d2:	4681                	li	a3,0
   122d4:	15c10d13          	addi	s10,sp,348
   122d8:	bcaff06f          	j	116a2 <_vfprintf_r+0x33e>
   122dc:	001df793          	andi	a5,s11,1
   122e0:	aa078e63          	beqz	a5,1159c <_vfprintf_r+0x238>
   122e4:	bcfd                	j	11de2 <_vfprintf_r+0xa7e>
   122e6:	0009c303          	lbu	t1,0(s3)
   122ea:	f03e                	sd	a5,32(sp)
   122ec:	9a8ff06f          	j	11494 <_vfprintf_r+0x130>
   122f0:	7782                	ld	a5,32(sp)
   122f2:	6384                	ld	s1,0(a5)
   122f4:	be6ff06f          	j	116da <_vfprintf_r+0x376>
   122f8:	7782                	ld	a5,32(sp)
   122fa:	f03a                	sd	a4,32(sp)
   122fc:	6384                	ld	s1,0(a5)
   122fe:	4785                	li	a5,1
   12300:	be4ff06f          	j	116e4 <_vfprintf_r+0x380>
   12304:	010df793          	andi	a5,s11,16
   12308:	a4079fe3          	bnez	a5,11d66 <_vfprintf_r+0xa02>
   1230c:	040df793          	andi	a5,s11,64
   12310:	66079263          	bnez	a5,12974 <_vfprintf_r+0x1610>
   12314:	200dfe13          	andi	t3,s11,512
   12318:	67c2                	ld	a5,16(sp)
   1231a:	1e0e0ae3          	beqz	t3,12d0e <_vfprintf_r+0x19aa>
   1231e:	00f70023          	sb	a5,0(a4)
   12322:	b4a1                	j	11d6a <_vfprintf_r+0xa06>
   12324:	7782                	ld	a5,32(sp)
   12326:	00f78c13          	addi	s8,a5,15
   1232a:	ff0c7c13          	andi	s8,s8,-16
   1232e:	010c0793          	addi	a5,s8,16
   12332:	000c3703          	ld	a4,0(s8)
   12336:	008c3583          	ld	a1,8(s8)
   1233a:	f03e                	sd	a5,32(sp)
   1233c:	c1aff06f          	j	11756 <_vfprintf_r+0x3f2>
   12340:	7782                	ld	a5,32(sp)
   12342:	639c                	ld	a5,0(a5)
   12344:	84be                	mv	s1,a5
   12346:	b36ff06f          	j	1167c <_vfprintf_r+0x318>
   1234a:	f03a                	sd	a4,32(sp)
   1234c:	47a5                	li	a5,9
   1234e:	8cee                	mv	s9,s11
   12350:	ca97f2e3          	bgeu	a5,s1,11ff4 <_vfprintf_r+0xc90>
   12354:	0af4                	addi	a3,sp,348
   12356:	688a                	ld	a7,128(sp)
   12358:	400cf713          	andi	a4,s9,1024
   1235c:	4601                	li	a2,0
   1235e:	85b6                	mv	a1,a3
   12360:	4da9                	li	s11,10
   12362:	4825                	li	a6,9
   12364:	0ff00c13          	li	s8,255
   12368:	a039                	j	12376 <_vfprintf_r+0x1012>
   1236a:	03b4d7b3          	divu	a5,s1,s11
   1236e:	02987663          	bgeu	a6,s1,1239a <_vfprintf_r+0x1036>
   12372:	84be                	mv	s1,a5
   12374:	85ea                	mv	a1,s10
   12376:	fff58d13          	addi	s10,a1,-1 # 1fff <exit-0xe0e9>
   1237a:	2605                	addiw	a2,a2,1
   1237c:	03b4f7b3          	remu	a5,s1,s11
   12380:	0307879b          	addiw	a5,a5,48
   12384:	fef58fa3          	sb	a5,-1(a1)
   12388:	d36d                	beqz	a4,1236a <_vfprintf_r+0x1006>
   1238a:	0008c783          	lbu	a5,0(a7)
   1238e:	fcf61ee3          	bne	a2,a5,1236a <_vfprintf_r+0x1006>
   12392:	fd878ce3          	beq	a5,s8,1236a <_vfprintf_r+0x1006>
   12396:	3e986063          	bltu	a6,s1,12776 <_vfprintf_r+0x1412>
   1239a:	fc32                	sd	a2,56(sp)
   1239c:	e146                	sd	a7,128(sp)
   1239e:	41a686bb          	subw	a3,a3,s10
   123a2:	8de6                	mv	s11,s9
   123a4:	afeff06f          	j	116a2 <_vfprintf_r+0x33e>
   123a8:	00070b1b          	sext.w	s6,a4
   123ac:	db6043e3          	bgtz	s6,12152 <_vfprintf_r+0xdee>
   123b0:	bb7d                	j	1216e <_vfprintf_r+0xe0a>
   123b2:	5b7d                	li	s6,-1
   123b4:	89ba                	mv	s3,a4
   123b6:	8e2ff06f          	j	11498 <_vfprintf_r+0x134>
   123ba:	67e5                	lui	a5,0x19
   123bc:	b5878793          	addi	a5,a5,-1192 # 18b58 <__clzdi2+0x82>
   123c0:	f0be                	sd	a5,96(sp)
   123c2:	7682                	ld	a3,32(sp)
   123c4:	020df793          	andi	a5,s11,32
   123c8:	00868713          	addi	a4,a3,8
   123cc:	14078863          	beqz	a5,1251c <_vfprintf_r+0x11b8>
   123d0:	6284                	ld	s1,0(a3)
   123d2:	001df793          	andi	a5,s11,1
   123d6:	cf81                	beqz	a5,123ee <_vfprintf_r+0x108a>
   123d8:	c899                	beqz	s1,123ee <_vfprintf_r+0x108a>
   123da:	002dee13          	ori	t3,s11,2
   123de:	03000793          	li	a5,48
   123e2:	0af10823          	sb	a5,176(sp)
   123e6:	0a6108a3          	sb	t1,177(sp)
   123ea:	000e0d9b          	sext.w	s11,t3
   123ee:	bffdfc93          	andi	s9,s11,-1025
   123f2:	2c81                	sext.w	s9,s9
   123f4:	f03a                	sd	a4,32(sp)
   123f6:	4789                	li	a5,2
   123f8:	aecff06f          	j	116e4 <_vfprintf_r+0x380>
   123fc:	8cee                	mv	s9,s11
   123fe:	b869                	j	11c98 <_vfprintf_r+0x934>
   12400:	67e5                	lui	a5,0x19
   12402:	b4078793          	addi	a5,a5,-1216 # 18b40 <__clzdi2+0x6a>
   12406:	f0be                	sd	a5,96(sp)
   12408:	bf6d                	j	123c2 <_vfprintf_r+0x105e>
   1240a:	200ded93          	ori	s11,s11,512
   1240e:	0019c303          	lbu	t1,1(s3)
   12412:	2d81                	sext.w	s11,s11
   12414:	0985                	addi	s3,s3,1
   12416:	87eff06f          	j	11494 <_vfprintf_r+0x130>
   1241a:	020ded93          	ori	s11,s11,32
   1241e:	0019c303          	lbu	t1,1(s3)
   12422:	2d81                	sext.w	s11,s11
   12424:	0985                	addi	s3,s3,1
   12426:	86eff06f          	j	11494 <_vfprintf_r+0x130>
   1242a:	6522                	ld	a0,8(sp)
   1242c:	1190                	addi	a2,sp,224
   1242e:	85ca                	mv	a1,s2
   12430:	31f000ef          	jal	12f4e <__sprint_r>
   12434:	ba0511e3          	bnez	a0,11fd6 <_vfprintf_r+0xc72>
   12438:	74ce                	ld	s1,240(sp)
   1243a:	8452                	mv	s0,s4
   1243c:	b2d1                	j	11e00 <_vfprintf_r+0xa9c>
   1243e:	4799                	li	a5,6
   12440:	000b069b          	sext.w	a3,s6
   12444:	5167e663          	bltu	a5,s6,12950 <_vfprintf_r+0x15ec>
   12448:	67e5                	lui	a5,0x19
   1244a:	8c36                	mv	s8,a3
   1244c:	f026                	sd	s1,32(sp)
   1244e:	b7078d13          	addi	s10,a5,-1168 # 18b70 <__clzdi2+0x9a>
   12452:	8acff06f          	j	114fe <_vfprintf_r+0x19a>
   12456:	68e5                	lui	a7,0x19
   12458:	46c1                	li	a3,16
   1245a:	572e                	lw	a4,232(sp)
   1245c:	e4088893          	addi	a7,a7,-448 # 18e40 <zeroes.0>
   12460:	2f66d463          	bge	a3,s6,12748 <_vfprintf_r+0x13e4>
   12464:	46c1                	li	a3,16
   12466:	431d                	li	t1,7
   12468:	8cc6                	mv	s9,a7
   1246a:	a021                	j	12472 <_vfprintf_r+0x110e>
   1246c:	3b41                	addiw	s6,s6,-16
   1246e:	2d66dc63          	bge	a3,s6,12746 <_vfprintf_r+0x13e2>
   12472:	2705                	addiw	a4,a4,1
   12474:	04c1                	addi	s1,s1,16
   12476:	01943023          	sd	s9,0(s0)
   1247a:	e414                	sd	a3,8(s0)
   1247c:	f9a6                	sd	s1,240(sp)
   1247e:	d5ba                	sw	a4,232(sp)
   12480:	0441                	addi	s0,s0,16
   12482:	fee355e3          	bge	t1,a4,1246c <_vfprintf_r+0x1108>
   12486:	6522                	ld	a0,8(sp)
   12488:	1190                	addi	a2,sp,224
   1248a:	85ca                	mv	a1,s2
   1248c:	2c3000ef          	jal	12f4e <__sprint_r>
   12490:	b40513e3          	bnez	a0,11fd6 <_vfprintf_r+0xc72>
   12494:	74ce                	ld	s1,240(sp)
   12496:	572e                	lw	a4,232(sp)
   12498:	8452                	mv	s0,s4
   1249a:	431d                	li	t1,7
   1249c:	46c1                	li	a3,16
   1249e:	b7f9                	j	1246c <_vfprintf_r+0x1108>
   124a0:	56ae                	lw	a3,232(sp)
   124a2:	67c6                	ld	a5,80(sp)
   124a4:	6666                	ld	a2,88(sp)
   124a6:	0441                	addi	s0,s0,16
   124a8:	94be                	add	s1,s1,a5
   124aa:	fec43823          	sd	a2,-16(s0)
   124ae:	0016861b          	addiw	a2,a3,1
   124b2:	fef43c23          	sd	a5,-8(s0)
   124b6:	f9a6                	sd	s1,240(sp)
   124b8:	d5b2                	sw	a2,232(sp)
   124ba:	469d                	li	a3,7
   124bc:	cec6d2e3          	bge	a3,a2,121a0 <_vfprintf_r+0xe3c>
   124c0:	6522                	ld	a0,8(sp)
   124c2:	1190                	addi	a2,sp,224
   124c4:	85ca                	mv	a1,s2
   124c6:	f81a                	sd	t1,48(sp)
   124c8:	287000ef          	jal	12f4e <__sprint_r>
   124cc:	b00515e3          	bnez	a0,11fd6 <_vfprintf_r+0xc72>
   124d0:	576a                	lw	a4,184(sp)
   124d2:	74ce                	ld	s1,240(sp)
   124d4:	7342                	ld	t1,48(sp)
   124d6:	8452                	mv	s0,s4
   124d8:	b1e1                	j	121a0 <_vfprintf_r+0xe3c>
   124da:	07800793          	li	a5,120
   124de:	03000693          	li	a3,48
   124e2:	002de713          	ori	a4,s11,2
   124e6:	0af108a3          	sb	a5,177(sp)
   124ea:	0ad10823          	sb	a3,176(sp)
   124ee:	06300793          	li	a5,99
   124f2:	2701                	sext.w	a4,a4
   124f4:	4b67cf63          	blt	a5,s6,129b2 <_vfprintf_r+0x164e>
   124f8:	67ce                	ld	a5,208(sp)
   124fa:	6cee                	ld	s9,216(sp)
   124fc:	102dee13          	ori	t3,s11,258
   12500:	f83e                	sd	a5,48(sp)
   12502:	000e049b          	sext.w	s1,t3
   12506:	600ccf63          	bltz	s9,12b24 <_vfprintf_r+0x17c0>
   1250a:	fbf3069b          	addiw	a3,t1,-65
   1250e:	8dba                	mv	s11,a4
   12510:	f482                	sd	zero,104(sp)
   12512:	ec02                	sd	zero,24(sp)
   12514:	0f810d13          	addi	s10,sp,248
   12518:	ab6ff06f          	j	117ce <_vfprintf_r+0x46a>
   1251c:	010df793          	andi	a5,s11,16
   12520:	c7d1                	beqz	a5,125ac <_vfprintf_r+0x1248>
   12522:	7782                	ld	a5,32(sp)
   12524:	6384                	ld	s1,0(a5)
   12526:	b575                	j	123d2 <_vfprintf_r+0x106e>
   12528:	6522                	ld	a0,8(sp)
   1252a:	1190                	addi	a2,sp,224
   1252c:	85ca                	mv	a1,s2
   1252e:	221000ef          	jal	12f4e <__sprint_r>
   12532:	aa0512e3          	bnez	a0,11fd6 <_vfprintf_r+0xc72>
   12536:	74ce                	ld	s1,240(sp)
   12538:	5b2e                	lw	s6,232(sp)
   1253a:	8cd2                	mv	s9,s4
   1253c:	d48ff06f          	j	11a84 <_vfprintf_r+0x720>
   12540:	6522                	ld	a0,8(sp)
   12542:	1190                	addi	a2,sp,224
   12544:	85ca                	mv	a1,s2
   12546:	209000ef          	jal	12f4e <__sprint_r>
   1254a:	a80516e3          	bnez	a0,11fd6 <_vfprintf_r+0xc72>
   1254e:	74ce                	ld	s1,240(sp)
   12550:	5b2e                	lw	s6,232(sp)
   12552:	8cd2                	mv	s9,s4
   12554:	d4cff06f          	j	11aa0 <_vfprintf_r+0x73c>
   12558:	56ae                	lw	a3,232(sp)
   1255a:	6665                	lui	a2,0x19
   1255c:	b7860613          	addi	a2,a2,-1160 # 18b78 <__clzdi2+0xa2>
   12560:	2685                	addiw	a3,a3,1
   12562:	e010                	sd	a2,0(s0)
   12564:	0485                	addi	s1,s1,1
   12566:	4605                	li	a2,1
   12568:	e410                	sd	a2,8(s0)
   1256a:	d5b6                	sw	a3,232(sp)
   1256c:	0006861b          	sext.w	a2,a3
   12570:	f9a6                	sd	s1,240(sp)
   12572:	469d                	li	a3,7
   12574:	0441                	addi	s0,s0,16
   12576:	3ac6c363          	blt	a3,a2,1291c <_vfprintf_r+0x15b8>
   1257a:	10071363          	bnez	a4,12680 <_vfprintf_r+0x131c>
   1257e:	77e2                	ld	a5,56(sp)
   12580:	001df713          	andi	a4,s11,1
   12584:	8f5d                	or	a4,a4,a5
   12586:	e319                	bnez	a4,1258c <_vfprintf_r+0x1228>
   12588:	814ff06f          	j	1159c <_vfprintf_r+0x238>
   1258c:	572e                	lw	a4,232(sp)
   1258e:	67c6                	ld	a5,80(sp)
   12590:	66e6                	ld	a3,88(sp)
   12592:	00978633          	add	a2,a5,s1
   12596:	e014                	sd	a3,0(s0)
   12598:	0017069b          	addiw	a3,a4,1
   1259c:	e41c                	sd	a5,8(s0)
   1259e:	f9b2                	sd	a2,240(sp)
   125a0:	d5b6                	sw	a3,232(sp)
   125a2:	471d                	li	a4,7
   125a4:	3ed74b63          	blt	a4,a3,1299a <_vfprintf_r+0x1636>
   125a8:	0441                	addi	s0,s0,16
   125aa:	a8f5                	j	126a6 <_vfprintf_r+0x1342>
   125ac:	7682                	ld	a3,32(sp)
   125ae:	040df793          	andi	a5,s11,64
   125b2:	4284                	lw	s1,0(a3)
   125b4:	16078563          	beqz	a5,1271e <_vfprintf_r+0x13ba>
   125b8:	14c2                	slli	s1,s1,0x30
   125ba:	90c1                	srli	s1,s1,0x30
   125bc:	bd19                	j	123d2 <_vfprintf_r+0x106e>
   125be:	6522                	ld	a0,8(sp)
   125c0:	f3bfd0ef          	jal	104fa <__sinit>
   125c4:	ddbfe06f          	j	1139e <_vfprintf_r+0x3a>
   125c8:	6522                	ld	a0,8(sp)
   125ca:	1190                	addi	a2,sp,224
   125cc:	85ca                	mv	a1,s2
   125ce:	181000ef          	jal	12f4e <__sprint_r>
   125d2:	a00512e3          	bnez	a0,11fd6 <_vfprintf_r+0xc72>
   125d6:	74ce                	ld	s1,240(sp)
   125d8:	8452                	mv	s0,s4
   125da:	801ff06f          	j	11dda <_vfprintf_r+0xa76>
   125de:	88da                	mv	a7,s6
   125e0:	8b4e                	mv	s6,s3
   125e2:	79c2                	ld	s3,48(sp)
   125e4:	0017871b          	addiw	a4,a5,1
   125e8:	01143023          	sd	a7,0(s0)
   125ec:	01643423          	sd	s6,8(s0)
   125f0:	94da                	add	s1,s1,s6
   125f2:	f9a6                	sd	s1,240(sp)
   125f4:	d5ba                	sw	a4,232(sp)
   125f6:	479d                	li	a5,7
   125f8:	00e7c463          	blt	a5,a4,12600 <_vfprintf_r+0x129c>
   125fc:	f9ffe06f          	j	1159a <_vfprintf_r+0x236>
   12600:	cf4ff06f          	j	11af4 <_vfprintf_r+0x790>
   12604:	f03a                	sd	a4,32(sp)
   12606:	b2e5                	j	11fee <_vfprintf_r+0xc8a>
   12608:	654e                	ld	a0,208(sp)
   1260a:	65ee                	ld	a1,216(sp)
   1260c:	4601                	li	a2,0
   1260e:	4681                	li	a3,0
   12610:	43e050ef          	jal	17a4e <__letf2>
   12614:	6362                	ld	t1,24(sp)
   12616:	54054363          	bltz	a0,12b5c <_vfprintf_r+0x17f8>
   1261a:	0af14703          	lbu	a4,175(sp)
   1261e:	04700793          	li	a5,71
   12622:	3067d863          	bge	a5,t1,12932 <_vfprintf_r+0x15ce>
   12626:	67e5                	lui	a5,0x19
   12628:	b2878d13          	addi	s10,a5,-1240 # 18b28 <__clzdi2+0x52>
   1262c:	f7fdfe13          	andi	t3,s11,-129
   12630:	ec02                	sd	zero,24(sp)
   12632:	e482                	sd	zero,72(sp)
   12634:	e082                	sd	zero,64(sp)
   12636:	f802                	sd	zero,48(sp)
   12638:	000e0d9b          	sext.w	s11,t3
   1263c:	4c0d                	li	s8,3
   1263e:	468d                	li	a3,3
   12640:	4b01                	li	s6,0
   12642:	c319                	beqz	a4,12648 <_vfprintf_r+0x12e4>
   12644:	87aff06f          	j	116be <_vfprintf_r+0x35a>
   12648:	ec1fe06f          	j	11508 <_vfprintf_r+0x1a4>
   1264c:	856a                	mv	a0,s10
   1264e:	f49a                	sd	t1,104(sp)
   12650:	40c010ef          	jal	13a5c <strlen>
   12654:	0005069b          	sext.w	a3,a0
   12658:	0af14703          	lbu	a4,175(sp)
   1265c:	fff6c813          	not	a6,a3
   12660:	43f85813          	srai	a6,a6,0x3f
   12664:	f026                	sd	s1,32(sp)
   12666:	ec02                	sd	zero,24(sp)
   12668:	e482                	sd	zero,72(sp)
   1266a:	e082                	sd	zero,64(sp)
   1266c:	f802                	sd	zero,48(sp)
   1266e:	7326                	ld	t1,104(sp)
   12670:	00d87c33          	and	s8,a6,a3
   12674:	4b01                	li	s6,0
   12676:	c319                	beqz	a4,1267c <_vfprintf_r+0x1318>
   12678:	846ff06f          	j	116be <_vfprintf_r+0x35a>
   1267c:	e8dfe06f          	j	11508 <_vfprintf_r+0x1a4>
   12680:	55ae                	lw	a1,232(sp)
   12682:	67c6                	ld	a5,80(sp)
   12684:	66e6                	ld	a3,88(sp)
   12686:	0441                	addi	s0,s0,16
   12688:	00978633          	add	a2,a5,s1
   1268c:	fed43823          	sd	a3,-16(s0)
   12690:	0015869b          	addiw	a3,a1,1
   12694:	fef43c23          	sd	a5,-8(s0)
   12698:	f9b2                	sd	a2,240(sp)
   1269a:	d5b6                	sw	a3,232(sp)
   1269c:	459d                	li	a1,7
   1269e:	2ed5ce63          	blt	a1,a3,1299a <_vfprintf_r+0x1636>
   126a2:	5a074163          	bltz	a4,12c44 <_vfprintf_r+0x18e0>
   126a6:	77e2                	ld	a5,56(sp)
   126a8:	0016871b          	addiw	a4,a3,1
   126ac:	01a43023          	sd	s10,0(s0)
   126b0:	00c784b3          	add	s1,a5,a2
   126b4:	e41c                	sd	a5,8(s0)
   126b6:	f9a6                	sd	s1,240(sp)
   126b8:	d5ba                	sw	a4,232(sp)
   126ba:	479d                	li	a5,7
   126bc:	00e7c463          	blt	a5,a4,126c4 <_vfprintf_r+0x1360>
   126c0:	edbfe06f          	j	1159a <_vfprintf_r+0x236>
   126c4:	c30ff06f          	j	11af4 <_vfprintf_r+0x790>
   126c8:	88ce                	mv	a7,s3
   126ca:	79c2                	ld	s3,48(sp)
   126cc:	2b05                	addiw	s6,s6,1
   126ce:	94a2                	add	s1,s1,s0
   126d0:	011cb023          	sd	a7,0(s9)
   126d4:	008cb423          	sd	s0,8(s9)
   126d8:	f9a6                	sd	s1,240(sp)
   126da:	d5da                	sw	s6,232(sp)
   126dc:	479d                	li	a5,7
   126de:	bf67d963          	bge	a5,s6,11ad0 <_vfprintf_r+0x76c>
   126e2:	b6ad                	j	1224c <_vfprintf_r+0xee8>
   126e4:	200cf793          	andi	a5,s9,512
   126e8:	28078063          	beqz	a5,12968 <_vfprintf_r+0x1604>
   126ec:	0ff4f493          	zext.b	s1,s1
   126f0:	f03a                	sd	a4,32(sp)
   126f2:	4785                	li	a5,1
   126f4:	ff1fe06f          	j	116e4 <_vfprintf_r+0x380>
   126f8:	200df793          	andi	a5,s11,512
   126fc:	26078263          	beqz	a5,12960 <_vfprintf_r+0x15fc>
   12700:	0ff4f493          	zext.b	s1,s1
   12704:	fd7fe06f          	j	116da <_vfprintf_r+0x376>
   12708:	200df793          	andi	a5,s11,512
   1270c:	24078763          	beqz	a5,1295a <_vfprintf_r+0x15f6>
   12710:	0184949b          	slliw	s1,s1,0x18
   12714:	4184d49b          	sraiw	s1,s1,0x18
   12718:	87a6                	mv	a5,s1
   1271a:	f63fe06f          	j	1167c <_vfprintf_r+0x318>
   1271e:	200df793          	andi	a5,s11,512
   12722:	22078963          	beqz	a5,12954 <_vfprintf_r+0x15f0>
   12726:	0ff4f493          	zext.b	s1,s1
   1272a:	b165                	j	123d2 <_vfprintf_r+0x106e>
   1272c:	67ee                	ld	a5,216(sp)
   1272e:	2407cf63          	bltz	a5,1298c <_vfprintf_r+0x1628>
   12732:	0af14703          	lbu	a4,175(sp)
   12736:	04700793          	li	a5,71
   1273a:	4a67ca63          	blt	a5,t1,12bee <_vfprintf_r+0x188a>
   1273e:	67e5                	lui	a5,0x19
   12740:	b3078d13          	addi	s10,a5,-1232 # 18b30 <__clzdi2+0x5a>
   12744:	b5e5                	j	1262c <_vfprintf_r+0x12c8>
   12746:	88e6                	mv	a7,s9
   12748:	0017069b          	addiw	a3,a4,1
   1274c:	94da                	add	s1,s1,s6
   1274e:	01143023          	sd	a7,0(s0)
   12752:	01643423          	sd	s6,8(s0)
   12756:	f9a6                	sd	s1,240(sp)
   12758:	d5b6                	sw	a3,232(sp)
   1275a:	471d                	li	a4,7
   1275c:	0441                	addi	s0,s0,16
   1275e:	a2d752e3          	bge	a4,a3,12182 <_vfprintf_r+0xe1e>
   12762:	6522                	ld	a0,8(sp)
   12764:	1190                	addi	a2,sp,224
   12766:	85ca                	mv	a1,s2
   12768:	7e6000ef          	jal	12f4e <__sprint_r>
   1276c:	860515e3          	bnez	a0,11fd6 <_vfprintf_r+0xc72>
   12770:	74ce                	ld	s1,240(sp)
   12772:	8452                	mv	s0,s4
   12774:	b439                	j	12182 <_vfprintf_r+0xe1e>
   12776:	67aa                	ld	a5,136(sp)
   12778:	75e6                	ld	a1,120(sp)
   1277a:	e0b6                	sd	a3,64(sp)
   1277c:	40fd0d33          	sub	s10,s10,a5
   12780:	863e                	mv	a2,a5
   12782:	856a                	mv	a0,s10
   12784:	fc3a                	sd	a4,56(sp)
   12786:	f81a                	sd	t1,48(sp)
   12788:	ec46                	sd	a7,24(sp)
   1278a:	7ab000ef          	jal	13734 <strncpy>
   1278e:	68e2                	ld	a7,24(sp)
   12790:	47a9                	li	a5,10
   12792:	02f4d7b3          	divu	a5,s1,a5
   12796:	0018c603          	lbu	a2,1(a7)
   1279a:	7342                	ld	t1,48(sp)
   1279c:	7762                	ld	a4,56(sp)
   1279e:	00c03633          	snez	a2,a2
   127a2:	98b2                	add	a7,a7,a2
   127a4:	6686                	ld	a3,64(sp)
   127a6:	4601                	li	a2,0
   127a8:	4825                	li	a6,9
   127aa:	b6e1                	j	12372 <_vfprintf_r+0x100e>
   127ac:	77e2                	ld	a5,56(sp)
   127ae:	6c86                	ld	s9,64(sp)
   127b0:	68e5                	lui	a7,0x19
   127b2:	00fd05b3          	add	a1,s10,a5
   127b6:	f4ce                	sd	s3,104(sp)
   127b8:	e96e                	sd	s11,144(sp)
   127ba:	ed5e                	sd	s7,152(sp)
   127bc:	6da6                	ld	s11,72(sp)
   127be:	e0e2                	sd	s8,64(sp)
   127c0:	e4ea                	sd	s10,72(sp)
   127c2:	8626                	mv	a2,s1
   127c4:	6baa                	ld	s7,136(sp)
   127c6:	6c0a                	ld	s8,128(sp)
   127c8:	69a2                	ld	s3,8(sp)
   127ca:	469d                	li	a3,7
   127cc:	4741                	li	a4,16
   127ce:	e4088b13          	addi	s6,a7,-448 # 18e40 <zeroes.0>
   127d2:	87a2                	mv	a5,s0
   127d4:	8d1a                	mv	s10,t1
   127d6:	84ae                	mv	s1,a1
   127d8:	07905d63          	blez	s9,12852 <_vfprintf_r+0x14ee>
   127dc:	11b05163          	blez	s11,128de <_vfprintf_r+0x157a>
   127e0:	3dfd                	addiw	s11,s11,-1
   127e2:	55ae                	lw	a1,232(sp)
   127e4:	7566                	ld	a0,120(sp)
   127e6:	965e                	add	a2,a2,s7
   127e8:	0177b423          	sd	s7,8(a5)
   127ec:	e388                	sd	a0,0(a5)
   127ee:	0015851b          	addiw	a0,a1,1
   127f2:	f9b2                	sd	a2,240(sp)
   127f4:	d5aa                	sw	a0,232(sp)
   127f6:	07c1                	addi	a5,a5,16
   127f8:	0ea6c663          	blt	a3,a0,128e4 <_vfprintf_r+0x1580>
   127fc:	000c4583          	lbu	a1,0(s8)
   12800:	41a48f33          	sub	t5,s1,s10
   12804:	000f051b          	sext.w	a0,t5
   12808:	0005881b          	sext.w	a6,a1
   1280c:	00a5d363          	bge	a1,a0,12812 <_vfprintf_r+0x14ae>
   12810:	8f42                	mv	t5,a6
   12812:	000f041b          	sext.w	s0,t5
   12816:	02805263          	blez	s0,1283a <_vfprintf_r+0x14d6>
   1281a:	55ae                	lw	a1,232(sp)
   1281c:	9622                	add	a2,a2,s0
   1281e:	01a7b023          	sd	s10,0(a5)
   12822:	0015851b          	addiw	a0,a1,1
   12826:	e780                	sd	s0,8(a5)
   12828:	f9b2                	sd	a2,240(sp)
   1282a:	d5aa                	sw	a0,232(sp)
   1282c:	0ca6c863          	blt	a3,a0,128fc <_vfprintf_r+0x1598>
   12830:	000c4583          	lbu	a1,0(s8)
   12834:	07c1                	addi	a5,a5,16
   12836:	0005881b          	sext.w	a6,a1
   1283a:	fff44513          	not	a0,s0
   1283e:	957d                	srai	a0,a0,0x3f
   12840:	00a47f33          	and	t5,s0,a0
   12844:	41e8043b          	subw	s0,a6,t5
   12848:	02804763          	bgtz	s0,12876 <_vfprintf_r+0x1512>
   1284c:	9d2e                	add	s10,s10,a1
   1284e:	f99047e3          	bgtz	s9,127dc <_vfprintf_r+0x1478>
   12852:	f9b047e3          	bgtz	s11,127e0 <_vfprintf_r+0x147c>
   12856:	836a                	mv	t1,s10
   12858:	843e                	mv	s0,a5
   1285a:	6d26                	ld	s10,72(sp)
   1285c:	77e2                	ld	a5,56(sp)
   1285e:	e162                	sd	s8,128(sp)
   12860:	79a6                	ld	s3,104(sp)
   12862:	00fd0733          	add	a4,s10,a5
   12866:	6dca                	ld	s11,144(sp)
   12868:	6bea                	ld	s7,152(sp)
   1286a:	6c06                	ld	s8,64(sp)
   1286c:	84b2                	mv	s1,a2
   1286e:	926771e3          	bgeu	a4,t1,12190 <_vfprintf_r+0xe2c>
   12872:	833a                	mv	t1,a4
   12874:	ba31                	j	12190 <_vfprintf_r+0xe2c>
   12876:	6f65                	lui	t5,0x19
   12878:	55ae                	lw	a1,232(sp)
   1287a:	e40f0f13          	addi	t5,t5,-448 # 18e40 <zeroes.0>
   1287e:	04875163          	bge	a4,s0,128c0 <_vfprintf_r+0x155c>
   12882:	f85a                	sd	s6,48(sp)
   12884:	a021                	j	1288c <_vfprintf_r+0x1528>
   12886:	3441                	addiw	s0,s0,-16
   12888:	02875b63          	bge	a4,s0,128be <_vfprintf_r+0x155a>
   1288c:	2585                	addiw	a1,a1,1
   1288e:	0641                	addi	a2,a2,16
   12890:	0167b023          	sd	s6,0(a5)
   12894:	e798                	sd	a4,8(a5)
   12896:	f9b2                	sd	a2,240(sp)
   12898:	d5ae                	sw	a1,232(sp)
   1289a:	07c1                	addi	a5,a5,16
   1289c:	feb6d5e3          	bge	a3,a1,12886 <_vfprintf_r+0x1522>
   128a0:	1190                	addi	a2,sp,224
   128a2:	85ca                	mv	a1,s2
   128a4:	854e                	mv	a0,s3
   128a6:	6a8000ef          	jal	12f4e <__sprint_r>
   128aa:	f2051663          	bnez	a0,11fd6 <_vfprintf_r+0xc72>
   128ae:	4741                	li	a4,16
   128b0:	3441                	addiw	s0,s0,-16
   128b2:	764e                	ld	a2,240(sp)
   128b4:	55ae                	lw	a1,232(sp)
   128b6:	87d2                	mv	a5,s4
   128b8:	469d                	li	a3,7
   128ba:	fc8749e3          	blt	a4,s0,1288c <_vfprintf_r+0x1528>
   128be:	7f42                	ld	t5,48(sp)
   128c0:	0015851b          	addiw	a0,a1,1
   128c4:	9622                	add	a2,a2,s0
   128c6:	01e7b023          	sd	t5,0(a5)
   128ca:	e780                	sd	s0,8(a5)
   128cc:	f9b2                	sd	a2,240(sp)
   128ce:	d5aa                	sw	a0,232(sp)
   128d0:	26a6c763          	blt	a3,a0,12b3e <_vfprintf_r+0x17da>
   128d4:	000c4583          	lbu	a1,0(s8)
   128d8:	07c1                	addi	a5,a5,16
   128da:	9d2e                	add	s10,s10,a1
   128dc:	bf8d                	j	1284e <_vfprintf_r+0x14ea>
   128de:	1c7d                	addi	s8,s8,-1
   128e0:	3cfd                	addiw	s9,s9,-1
   128e2:	b701                	j	127e2 <_vfprintf_r+0x147e>
   128e4:	1190                	addi	a2,sp,224
   128e6:	85ca                	mv	a1,s2
   128e8:	854e                	mv	a0,s3
   128ea:	664000ef          	jal	12f4e <__sprint_r>
   128ee:	ee051463          	bnez	a0,11fd6 <_vfprintf_r+0xc72>
   128f2:	764e                	ld	a2,240(sp)
   128f4:	87d2                	mv	a5,s4
   128f6:	4741                	li	a4,16
   128f8:	469d                	li	a3,7
   128fa:	b709                	j	127fc <_vfprintf_r+0x1498>
   128fc:	1190                	addi	a2,sp,224
   128fe:	85ca                	mv	a1,s2
   12900:	854e                	mv	a0,s3
   12902:	64c000ef          	jal	12f4e <__sprint_r>
   12906:	ec051863          	bnez	a0,11fd6 <_vfprintf_r+0xc72>
   1290a:	000c4583          	lbu	a1,0(s8)
   1290e:	764e                	ld	a2,240(sp)
   12910:	87d2                	mv	a5,s4
   12912:	0005881b          	sext.w	a6,a1
   12916:	4741                	li	a4,16
   12918:	469d                	li	a3,7
   1291a:	b705                	j	1283a <_vfprintf_r+0x14d6>
   1291c:	6522                	ld	a0,8(sp)
   1291e:	1190                	addi	a2,sp,224
   12920:	85ca                	mv	a1,s2
   12922:	62c000ef          	jal	12f4e <__sprint_r>
   12926:	ea051863          	bnez	a0,11fd6 <_vfprintf_r+0xc72>
   1292a:	576a                	lw	a4,184(sp)
   1292c:	74ce                	ld	s1,240(sp)
   1292e:	8452                	mv	s0,s4
   12930:	b1a9                	j	1257a <_vfprintf_r+0x1216>
   12932:	67e5                	lui	a5,0x19
   12934:	b2078d13          	addi	s10,a5,-1248 # 18b20 <__clzdi2+0x4a>
   12938:	b9d5                	j	1262c <_vfprintf_r+0x12c8>
   1293a:	6522                	ld	a0,8(sp)
   1293c:	1190                	addi	a2,sp,224
   1293e:	85ca                	mv	a1,s2
   12940:	60e000ef          	jal	12f4e <__sprint_r>
   12944:	e8051963          	bnez	a0,11fd6 <_vfprintf_r+0xc72>
   12948:	74ce                	ld	s1,240(sp)
   1294a:	8452                	mv	s0,s4
   1294c:	823ff06f          	j	1216e <_vfprintf_r+0xe0a>
   12950:	4699                	li	a3,6
   12952:	bcdd                	j	12448 <_vfprintf_r+0x10e4>
   12954:	1482                	slli	s1,s1,0x20
   12956:	9081                	srli	s1,s1,0x20
   12958:	bcad                	j	123d2 <_vfprintf_r+0x106e>
   1295a:	87a6                	mv	a5,s1
   1295c:	d21fe06f          	j	1167c <_vfprintf_r+0x318>
   12960:	1482                	slli	s1,s1,0x20
   12962:	9081                	srli	s1,s1,0x20
   12964:	d77fe06f          	j	116da <_vfprintf_r+0x376>
   12968:	1482                	slli	s1,s1,0x20
   1296a:	9081                	srli	s1,s1,0x20
   1296c:	f03a                	sd	a4,32(sp)
   1296e:	4785                	li	a5,1
   12970:	d75fe06f          	j	116e4 <_vfprintf_r+0x380>
   12974:	67c2                	ld	a5,16(sp)
   12976:	00f71023          	sh	a5,0(a4)
   1297a:	bf0ff06f          	j	11d6a <_vfprintf_r+0xa06>
   1297e:	6522                	ld	a0,8(sp)
   12980:	1190                	addi	a2,sp,224
   12982:	85ca                	mv	a1,s2
   12984:	5ca000ef          	jal	12f4e <__sprint_r>
   12988:	c59fe06f          	j	115e0 <_vfprintf_r+0x27c>
   1298c:	02d00793          	li	a5,45
   12990:	0af107a3          	sb	a5,175(sp)
   12994:	02d00713          	li	a4,45
   12998:	bb79                	j	12736 <_vfprintf_r+0x13d2>
   1299a:	6522                	ld	a0,8(sp)
   1299c:	1190                	addi	a2,sp,224
   1299e:	85ca                	mv	a1,s2
   129a0:	5ae000ef          	jal	12f4e <__sprint_r>
   129a4:	e2051963          	bnez	a0,11fd6 <_vfprintf_r+0xc72>
   129a8:	576a                	lw	a4,184(sp)
   129aa:	764e                	ld	a2,240(sp)
   129ac:	56ae                	lw	a3,232(sp)
   129ae:	8452                	mv	s0,s4
   129b0:	b9cd                	j	126a2 <_vfprintf_r+0x133e>
   129b2:	6522                	ld	a0,8(sp)
   129b4:	001b059b          	addiw	a1,s6,1
   129b8:	f83a                	sd	a4,48(sp)
   129ba:	ec1a                	sd	t1,24(sp)
   129bc:	ba2fe0ef          	jal	10d5e <_malloc_r>
   129c0:	6362                	ld	t1,24(sp)
   129c2:	7742                	ld	a4,48(sp)
   129c4:	8d2a                	mv	s10,a0
   129c6:	4c050563          	beqz	a0,12e90 <_vfprintf_r+0x1b2c>
   129ca:	ec2a                	sd	a0,24(sp)
   129cc:	8dba                	mv	s11,a4
   129ce:	dd9fe06f          	j	117a6 <_vfprintf_r+0x442>
   129d2:	75c2                	ld	a1,48(sp)
   129d4:	6522                	ld	a0,8(sp)
   129d6:	875a                	mv	a4,s6
   129d8:	0c810893          	addi	a7,sp,200
   129dc:	0bc10813          	addi	a6,sp,188
   129e0:	193c                	addi	a5,sp,184
   129e2:	4689                	li	a3,2
   129e4:	8666                	mv	a2,s9
   129e6:	240010ef          	jal	13c26 <_ldtoa_r>
   129ea:	7362                	ld	t1,56(sp)
   129ec:	04700713          	li	a4,71
   129f0:	8d2a                	mv	s10,a0
   129f2:	48e31d63          	bne	t1,a4,12e8c <_vfprintf_r+0x1b28>
   129f6:	001df713          	andi	a4,s11,1
   129fa:	1c071263          	bnez	a4,12bbe <_vfprintf_r+0x185a>
   129fe:	57ea                	lw	a5,184(sp)
   12a00:	f83e                	sd	a5,48(sp)
   12a02:	67ae                	ld	a5,200(sp)
   12a04:	41a787bb          	subw	a5,a5,s10
   12a08:	fc3e                	sd	a5,56(sp)
   12a0a:	77c2                	ld	a5,48(sp)
   12a0c:	5775                	li	a4,-3
   12a0e:	00e7c463          	blt	a5,a4,12a16 <_vfprintf_r+0x16b2>
   12a12:	0cfb5763          	bge	s6,a5,12ae0 <_vfprintf_r+0x177c>
   12a16:	77c2                	ld	a5,48(sp)
   12a18:	3379                	addiw	t1,t1,-2
   12a1a:	fff7871b          	addiw	a4,a5,-1
   12a1e:	dd3a                	sw	a4,184(sp)
   12a20:	0ff37693          	zext.b	a3,t1
   12a24:	4601                	li	a2,0
   12a26:	f49fe06f          	j	1196e <_vfprintf_r+0x60a>
   12a2a:	77c2                	ld	a5,48(sp)
   12a2c:	00a7c583          	lbu	a1,10(a5)
   12a30:	feb68fa3          	sb	a1,-1(a3)
   12a34:	f0bfe06f          	j	1193e <_vfprintf_r+0x5da>
   12a38:	0af14703          	lbu	a4,175(sp)
   12a3c:	4b01                	li	s6,0
   12a3e:	c319                	beqz	a4,12a44 <_vfprintf_r+0x16e0>
   12a40:	c7ffe06f          	j	116be <_vfprintf_r+0x35a>
   12a44:	ac5fe06f          	j	11508 <_vfprintf_r+0x1a4>
   12a48:	875a                	mv	a4,s6
   12a4a:	468d                	li	a3,3
   12a4c:	75c2                	ld	a1,48(sp)
   12a4e:	6522                	ld	a0,8(sp)
   12a50:	0c810893          	addi	a7,sp,200
   12a54:	0bc10813          	addi	a6,sp,188
   12a58:	193c                	addi	a5,sp,184
   12a5a:	8666                	mv	a2,s9
   12a5c:	e09a                	sd	t1,64(sp)
   12a5e:	fc3a                	sd	a4,56(sp)
   12a60:	1c6010ef          	jal	13c26 <_ldtoa_r>
   12a64:	7762                	ld	a4,56(sp)
   12a66:	6306                	ld	t1,64(sp)
   12a68:	8d2a                	mv	s10,a0
   12a6a:	fdf37c13          	andi	s8,t1,-33
   12a6e:	04600693          	li	a3,70
   12a72:	00ed0833          	add	a6,s10,a4
   12a76:	00dc1a63          	bne	s8,a3,12a8a <_vfprintf_r+0x1726>
   12a7a:	000d4603          	lbu	a2,0(s10)
   12a7e:	03000693          	li	a3,48
   12a82:	2ad60063          	beq	a2,a3,12d22 <_vfprintf_r+0x19be>
   12a86:	56ea                	lw	a3,184(sp)
   12a88:	9836                	add	a6,a6,a3
   12a8a:	7542                	ld	a0,48(sp)
   12a8c:	4601                	li	a2,0
   12a8e:	4681                	li	a3,0
   12a90:	85e6                	mv	a1,s9
   12a92:	e0c2                	sd	a6,64(sp)
   12a94:	fc1a                	sd	t1,56(sp)
   12a96:	673040ef          	jal	17908 <__eqtf2>
   12a9a:	7362                	ld	t1,56(sp)
   12a9c:	6806                	ld	a6,64(sp)
   12a9e:	12050563          	beqz	a0,12bc8 <_vfprintf_r+0x1864>
   12aa2:	67ae                	ld	a5,200(sp)
   12aa4:	0107fc63          	bgeu	a5,a6,12abc <_vfprintf_r+0x1758>
   12aa8:	03000693          	li	a3,48
   12aac:	00178713          	addi	a4,a5,1
   12ab0:	e5ba                	sd	a4,200(sp)
   12ab2:	00d78023          	sb	a3,0(a5)
   12ab6:	67ae                	ld	a5,200(sp)
   12ab8:	ff07eae3          	bltu	a5,a6,12aac <_vfprintf_r+0x1748>
   12abc:	576a                	lw	a4,184(sp)
   12abe:	f83a                	sd	a4,48(sp)
   12ac0:	41a787bb          	subw	a5,a5,s10
   12ac4:	04700713          	li	a4,71
   12ac8:	fc3e                	sd	a5,56(sp)
   12aca:	f4ec00e3          	beq	s8,a4,12a0a <_vfprintf_r+0x16a6>
   12ace:	04600713          	li	a4,70
   12ad2:	14ec0c63          	beq	s8,a4,12c2a <_vfprintf_r+0x18c6>
   12ad6:	77c2                	ld	a5,48(sp)
   12ad8:	fff7871b          	addiw	a4,a5,-1
   12adc:	dd3a                	sw	a4,184(sp)
   12ade:	b789                	j	12a20 <_vfprintf_r+0x16bc>
   12ae0:	77e2                	ld	a5,56(sp)
   12ae2:	7742                	ld	a4,48(sp)
   12ae4:	10f74c63          	blt	a4,a5,12bfc <_vfprintf_r+0x1898>
   12ae8:	77c2                	ld	a5,48(sp)
   12aea:	001df713          	andi	a4,s11,1
   12aee:	86be                	mv	a3,a5
   12af0:	c701                	beqz	a4,12af8 <_vfprintf_r+0x1794>
   12af2:	6746                	ld	a4,80(sp)
   12af4:	00f706bb          	addw	a3,a4,a5
   12af8:	400dfe13          	andi	t3,s11,1024
   12afc:	000e0563          	beqz	t3,12b06 <_vfprintf_r+0x17a2>
   12b00:	77c2                	ld	a5,48(sp)
   12b02:	24f04463          	bgtz	a5,12d4a <_vfprintf_r+0x19e6>
   12b06:	fff6c813          	not	a6,a3
   12b0a:	43f85813          	srai	a6,a6,0x3f
   12b0e:	0106f833          	and	a6,a3,a6
   12b12:	00080c1b          	sext.w	s8,a6
   12b16:	8da6                	mv	s11,s1
   12b18:	06700313          	li	t1,103
   12b1c:	e482                	sd	zero,72(sp)
   12b1e:	e082                	sd	zero,64(sp)
   12b20:	f07fe06f          	j	11a26 <_vfprintf_r+0x6c2>
   12b24:	8dba                	mv	s11,a4
   12b26:	ec02                	sd	zero,24(sp)
   12b28:	0f810d13          	addi	s10,sp,248
   12b2c:	577d                	li	a4,-1
   12b2e:	177e                	slli	a4,a4,0x3f
   12b30:	02d00793          	li	a5,45
   12b34:	00ecccb3          	xor	s9,s9,a4
   12b38:	f4be                	sd	a5,104(sp)
   12b3a:	c85fe06f          	j	117be <_vfprintf_r+0x45a>
   12b3e:	1190                	addi	a2,sp,224
   12b40:	85ca                	mv	a1,s2
   12b42:	854e                	mv	a0,s3
   12b44:	40a000ef          	jal	12f4e <__sprint_r>
   12b48:	c8051763          	bnez	a0,11fd6 <_vfprintf_r+0xc72>
   12b4c:	000c4583          	lbu	a1,0(s8)
   12b50:	764e                	ld	a2,240(sp)
   12b52:	87d2                	mv	a5,s4
   12b54:	4741                	li	a4,16
   12b56:	469d                	li	a3,7
   12b58:	9d2e                	add	s10,s10,a1
   12b5a:	b9d5                	j	1284e <_vfprintf_r+0x14ea>
   12b5c:	02d00793          	li	a5,45
   12b60:	0af107a3          	sb	a5,175(sp)
   12b64:	02d00713          	li	a4,45
   12b68:	bc5d                	j	1261e <_vfprintf_r+0x12ba>
   12b6a:	57fd                	li	a5,-1
   12b6c:	e83e                	sd	a5,16(sp)
   12b6e:	aa1fe06f          	j	1160e <_vfprintf_r+0x2aa>
   12b72:	88da                	mv	a7,s6
   12b74:	8b4a                	mv	s6,s2
   12b76:	894e                	mv	s2,s3
   12b78:	79c2                	ld	s3,48(sp)
   12b7a:	b4ad                	j	125e4 <_vfprintf_r+0x1280>
   12b7c:	0af14703          	lbu	a4,175(sp)
   12b80:	f026                	sd	s1,32(sp)
   12b82:	e482                	sd	zero,72(sp)
   12b84:	e082                	sd	zero,64(sp)
   12b86:	f802                	sd	zero,48(sp)
   12b88:	8c5a                	mv	s8,s6
   12b8a:	86da                	mv	a3,s6
   12b8c:	4b01                	li	s6,0
   12b8e:	c319                	beqz	a4,12b94 <_vfprintf_r+0x1830>
   12b90:	b2ffe06f          	j	116be <_vfprintf_r+0x35a>
   12b94:	975fe06f          	j	11508 <_vfprintf_r+0x1a4>
   12b98:	75c2                	ld	a1,48(sp)
   12b9a:	6522                	ld	a0,8(sp)
   12b9c:	875a                	mv	a4,s6
   12b9e:	0c810893          	addi	a7,sp,200
   12ba2:	0bc10813          	addi	a6,sp,188
   12ba6:	193c                	addi	a5,sp,184
   12ba8:	4689                	li	a3,2
   12baa:	8666                	mv	a2,s9
   12bac:	fc1a                	sd	t1,56(sp)
   12bae:	078010ef          	jal	13c26 <_ldtoa_r>
   12bb2:	001df713          	andi	a4,s11,1
   12bb6:	7362                	ld	t1,56(sp)
   12bb8:	8d2a                	mv	s10,a0
   12bba:	e40702e3          	beqz	a4,129fe <_vfprintf_r+0x169a>
   12bbe:	016d0833          	add	a6,s10,s6
   12bc2:	04700c13          	li	s8,71
   12bc6:	b5d1                	j	12a8a <_vfprintf_r+0x1726>
   12bc8:	57ea                	lw	a5,184(sp)
   12bca:	f83e                	sd	a5,48(sp)
   12bcc:	87c2                	mv	a5,a6
   12bce:	bdcd                	j	12ac0 <_vfprintf_r+0x175c>
   12bd0:	6522                	ld	a0,8(sp)
   12bd2:	1190                	addi	a2,sp,224
   12bd4:	85ca                	mv	a1,s2
   12bd6:	378000ef          	jal	12f4e <__sprint_r>
   12bda:	be051e63          	bnez	a0,11fd6 <_vfprintf_r+0xc72>
   12bde:	56ea                	lw	a3,184(sp)
   12be0:	77e2                	ld	a5,56(sp)
   12be2:	74ce                	ld	s1,240(sp)
   12be4:	8452                	mv	s0,s4
   12be6:	40d786bb          	subw	a3,a5,a3
   12bea:	deeff06f          	j	121d8 <_vfprintf_r+0xe74>
   12bee:	67e5                	lui	a5,0x19
   12bf0:	b3878d13          	addi	s10,a5,-1224 # 18b38 <__clzdi2+0x62>
   12bf4:	bc25                	j	1262c <_vfprintf_r+0x12c8>
   12bf6:	8cee                	mv	s9,s11
   12bf8:	bfcff06f          	j	11ff4 <_vfprintf_r+0xc90>
   12bfc:	67c6                	ld	a5,80(sp)
   12bfe:	7762                	ld	a4,56(sp)
   12c00:	06700313          	li	t1,103
   12c04:	00e786bb          	addw	a3,a5,a4
   12c08:	77c2                	ld	a5,48(sp)
   12c0a:	1ef05c63          	blez	a5,12e02 <_vfprintf_r+0x1a9e>
   12c0e:	400dfe13          	andi	t3,s11,1024
   12c12:	120e1e63          	bnez	t3,12d4e <_vfprintf_r+0x19ea>
   12c16:	fff6c813          	not	a6,a3
   12c1a:	43f85813          	srai	a6,a6,0x3f
   12c1e:	0106f833          	and	a6,a3,a6
   12c22:	00080c1b          	sext.w	s8,a6
   12c26:	8da6                	mv	s11,s1
   12c28:	bdd5                	j	12b1c <_vfprintf_r+0x17b8>
   12c2a:	77c2                	ld	a5,48(sp)
   12c2c:	001df713          	andi	a4,s11,1
   12c30:	00eb6733          	or	a4,s6,a4
   12c34:	20f05263          	blez	a5,12e38 <_vfprintf_r+0x1ad4>
   12c38:	1a071e63          	bnez	a4,12df4 <_vfprintf_r+0x1a90>
   12c3c:	76c2                	ld	a3,48(sp)
   12c3e:	06600313          	li	t1,102
   12c42:	b7f1                	j	12c0e <_vfprintf_r+0x18aa>
   12c44:	68e5                	lui	a7,0x19
   12c46:	55c1                	li	a1,-16
   12c48:	40e00b3b          	negw	s6,a4
   12c4c:	e4088893          	addi	a7,a7,-448 # 18e40 <zeroes.0>
   12c50:	04b75263          	bge	a4,a1,12c94 <_vfprintf_r+0x1930>
   12c54:	f84e                	sd	s3,48(sp)
   12c56:	4cc1                	li	s9,16
   12c58:	449d                	li	s1,7
   12c5a:	89c6                	mv	s3,a7
   12c5c:	a021                	j	12c64 <_vfprintf_r+0x1900>
   12c5e:	3b41                	addiw	s6,s6,-16
   12c60:	036cd863          	bge	s9,s6,12c90 <_vfprintf_r+0x192c>
   12c64:	2685                	addiw	a3,a3,1
   12c66:	0641                	addi	a2,a2,16
   12c68:	01343023          	sd	s3,0(s0)
   12c6c:	01943423          	sd	s9,8(s0)
   12c70:	f9b2                	sd	a2,240(sp)
   12c72:	d5b6                	sw	a3,232(sp)
   12c74:	0441                	addi	s0,s0,16
   12c76:	fed4d4e3          	bge	s1,a3,12c5e <_vfprintf_r+0x18fa>
   12c7a:	6522                	ld	a0,8(sp)
   12c7c:	1190                	addi	a2,sp,224
   12c7e:	85ca                	mv	a1,s2
   12c80:	2ce000ef          	jal	12f4e <__sprint_r>
   12c84:	b4051963          	bnez	a0,11fd6 <_vfprintf_r+0xc72>
   12c88:	764e                	ld	a2,240(sp)
   12c8a:	56ae                	lw	a3,232(sp)
   12c8c:	8452                	mv	s0,s4
   12c8e:	bfc1                	j	12c5e <_vfprintf_r+0x18fa>
   12c90:	88ce                	mv	a7,s3
   12c92:	79c2                	ld	s3,48(sp)
   12c94:	2685                	addiw	a3,a3,1
   12c96:	965a                	add	a2,a2,s6
   12c98:	01143023          	sd	a7,0(s0)
   12c9c:	01643423          	sd	s6,8(s0)
   12ca0:	f9b2                	sd	a2,240(sp)
   12ca2:	d5b6                	sw	a3,232(sp)
   12ca4:	471d                	li	a4,7
   12ca6:	90d751e3          	bge	a4,a3,125a8 <_vfprintf_r+0x1244>
   12caa:	6522                	ld	a0,8(sp)
   12cac:	1190                	addi	a2,sp,224
   12cae:	85ca                	mv	a1,s2
   12cb0:	29e000ef          	jal	12f4e <__sprint_r>
   12cb4:	b2051163          	bnez	a0,11fd6 <_vfprintf_r+0xc72>
   12cb8:	764e                	ld	a2,240(sp)
   12cba:	56ae                	lw	a3,232(sp)
   12cbc:	8452                	mv	s0,s4
   12cbe:	b2e5                	j	126a6 <_vfprintf_r+0x1342>
   12cc0:	001b071b          	addiw	a4,s6,1
   12cc4:	4689                	li	a3,2
   12cc6:	b359                	j	12a4c <_vfprintf_r+0x16e8>
   12cc8:	0c210693          	addi	a3,sp,194
   12ccc:	e619                	bnez	a2,12cda <_vfprintf_r+0x1976>
   12cce:	03000693          	li	a3,48
   12cd2:	0cd10123          	sb	a3,194(sp)
   12cd6:	0c310693          	addi	a3,sp,195
   12cda:	139c                	addi	a5,sp,480
   12cdc:	40f68633          	sub	a2,a3,a5
   12ce0:	0307071b          	addiw	a4,a4,48
   12ce4:	1216079b          	addiw	a5,a2,289
   12ce8:	00e68023          	sb	a4,0(a3)
   12cec:	f8be                	sd	a5,112(sp)
   12cee:	cfffe06f          	j	119ec <_vfprintf_r+0x688>
   12cf2:	001df613          	andi	a2,s11,1
   12cf6:	e219                	bnez	a2,12cfc <_vfprintf_r+0x1998>
   12cf8:	d0ffe06f          	j	11a06 <_vfprintf_r+0x6a2>
   12cfc:	d05fe06f          	j	11a00 <_vfprintf_r+0x69c>
   12d00:	ec02                	sd	zero,24(sp)
   12d02:	4b19                	li	s6,6
   12d04:	aa3fe06f          	j	117a6 <_vfprintf_r+0x442>
   12d08:	f03a                	sd	a4,32(sp)
   12d0a:	aeaff06f          	j	11ff4 <_vfprintf_r+0xc90>
   12d0e:	c31c                	sw	a5,0(a4)
   12d10:	85aff06f          	j	11d6a <_vfprintf_r+0xa06>
   12d14:	000b0463          	beqz	s6,12d1c <_vfprintf_r+0x19b8>
   12d18:	a8ffe06f          	j	117a6 <_vfprintf_r+0x442>
   12d1c:	4b05                	li	s6,1
   12d1e:	a89fe06f          	j	117a6 <_vfprintf_r+0x442>
   12d22:	7542                	ld	a0,48(sp)
   12d24:	4601                	li	a2,0
   12d26:	4681                	li	a3,0
   12d28:	85e6                	mv	a1,s9
   12d2a:	e4c2                	sd	a6,72(sp)
   12d2c:	e09a                	sd	t1,64(sp)
   12d2e:	fc3a                	sd	a4,56(sp)
   12d30:	3d9040ef          	jal	17908 <__eqtf2>
   12d34:	7762                	ld	a4,56(sp)
   12d36:	6306                	ld	t1,64(sp)
   12d38:	6826                	ld	a6,72(sp)
   12d3a:	e57d                	bnez	a0,12e28 <_vfprintf_r+0x1ac4>
   12d3c:	57ea                	lw	a5,184(sp)
   12d3e:	983e                	add	a6,a6,a5
   12d40:	f83e                	sd	a5,48(sp)
   12d42:	41a807bb          	subw	a5,a6,s10
   12d46:	fc3e                	sd	a5,56(sp)
   12d48:	b359                	j	12ace <_vfprintf_r+0x176a>
   12d4a:	06700313          	li	t1,103
   12d4e:	678a                	ld	a5,128(sp)
   12d50:	0ff00613          	li	a2,255
   12d54:	0007c703          	lbu	a4,0(a5)
   12d58:	14c70463          	beq	a4,a2,12ea0 <_vfprintf_r+0x1b3c>
   12d5c:	863e                	mv	a2,a5
   12d5e:	77c2                	ld	a5,48(sp)
   12d60:	4881                	li	a7,0
   12d62:	4801                	li	a6,0
   12d64:	0ff00593          	li	a1,255
   12d68:	0007051b          	sext.w	a0,a4
   12d6c:	00f75a63          	bge	a4,a5,12d80 <_vfprintf_r+0x1a1c>
   12d70:	00164703          	lbu	a4,1(a2)
   12d74:	9f89                	subw	a5,a5,a0
   12d76:	cb1d                	beqz	a4,12dac <_vfprintf_r+0x1a48>
   12d78:	2805                	addiw	a6,a6,1
   12d7a:	0605                	addi	a2,a2,1
   12d7c:	feb716e3          	bne	a4,a1,12d68 <_vfprintf_r+0x1a04>
   12d80:	e132                	sd	a2,128(sp)
   12d82:	e0c2                	sd	a6,64(sp)
   12d84:	e4c6                	sd	a7,72(sp)
   12d86:	f83e                	sd	a5,48(sp)
   12d88:	67a6                	ld	a5,72(sp)
   12d8a:	6706                	ld	a4,64(sp)
   12d8c:	8da6                	mv	s11,s1
   12d8e:	9f3d                	addw	a4,a4,a5
   12d90:	67aa                	ld	a5,136(sp)
   12d92:	02f7073b          	mulw	a4,a4,a5
   12d96:	9f35                	addw	a4,a4,a3
   12d98:	0007069b          	sext.w	a3,a4
   12d9c:	fff6c613          	not	a2,a3
   12da0:	967d                	srai	a2,a2,0x3f
   12da2:	8f71                	and	a4,a4,a2
   12da4:	00070c1b          	sext.w	s8,a4
   12da8:	c7ffe06f          	j	11a26 <_vfprintf_r+0x6c2>
   12dac:	00064703          	lbu	a4,0(a2)
   12db0:	2885                	addiw	a7,a7,1
   12db2:	b7e9                	j	12d7c <_vfprintf_r+0x1a18>
   12db4:	684a                	ld	a6,144(sp)
   12db6:	8962                	mv	s2,s8
   12db8:	8c4e                	mv	s8,s3
   12dba:	010d06bb          	addw	a3,s10,a6
   12dbe:	418686bb          	subw	a3,a3,s8
   12dc2:	02069613          	slli	a2,a3,0x20
   12dc6:	6306                	ld	t1,64(sp)
   12dc8:	6ba6                	ld	s7,72(sp)
   12dca:	7446                	ld	s0,112(sp)
   12dcc:	79e2                	ld	s3,56(sp)
   12dce:	00065463          	bgez	a2,12dd6 <_vfprintf_r+0x1a72>
   12dd2:	b6dfe06f          	j	1193e <_vfprintf_r+0x5da>
   12dd6:	2685                	addiw	a3,a3,1
   12dd8:	96e2                	add	a3,a3,s8
   12dda:	03000613          	li	a2,48
   12dde:	0c05                	addi	s8,s8,1
   12de0:	fecc0fa3          	sb	a2,-1(s8)
   12de4:	ff869de3          	bne	a3,s8,12dde <_vfprintf_r+0x1a7a>
   12de8:	b59fe06f          	j	11940 <_vfprintf_r+0x5dc>
   12dec:	65e2                	ld	a1,24(sp)
   12dee:	894e                	mv	s2,s3
   12df0:	9e8ff06f          	j	11fd8 <_vfprintf_r+0xc74>
   12df4:	6746                	ld	a4,80(sp)
   12df6:	06600313          	li	t1,102
   12dfa:	016706bb          	addw	a3,a4,s6
   12dfe:	9ebd                	addw	a3,a3,a5
   12e00:	b539                	j	12c0e <_vfprintf_r+0x18aa>
   12e02:	40f6873b          	subw	a4,a3,a5
   12e06:	2705                	addiw	a4,a4,1
   12e08:	0007069b          	sext.w	a3,a4
   12e0c:	fff6c613          	not	a2,a3
   12e10:	967d                	srai	a2,a2,0x3f
   12e12:	8f71                	and	a4,a4,a2
   12e14:	00070c1b          	sext.w	s8,a4
   12e18:	8da6                	mv	s11,s1
   12e1a:	b309                	j	12b1c <_vfprintf_r+0x17b8>
   12e1c:	6765                	lui	a4,0x19
   12e1e:	b4070793          	addi	a5,a4,-1216 # 18b40 <__clzdi2+0x6a>
   12e22:	f83e                	sd	a5,48(sp)
   12e24:	a1bfe06f          	j	1183e <_vfprintf_r+0x4da>
   12e28:	4685                	li	a3,1
   12e2a:	9e99                	subw	a3,a3,a4
   12e2c:	dd36                	sw	a3,184(sp)
   12e2e:	b9a9                	j	12a88 <_vfprintf_r+0x1724>
   12e30:	07000693          	li	a3,112
   12e34:	b39fe06f          	j	1196c <_vfprintf_r+0x608>
   12e38:	e719                	bnez	a4,12e46 <_vfprintf_r+0x1ae2>
   12e3a:	8da6                	mv	s11,s1
   12e3c:	4c05                	li	s8,1
   12e3e:	06600313          	li	t1,102
   12e42:	4685                	li	a3,1
   12e44:	b9e1                	j	12b1c <_vfprintf_r+0x17b8>
   12e46:	67c6                	ld	a5,80(sp)
   12e48:	8da6                	mv	s11,s1
   12e4a:	06600313          	li	t1,102
   12e4e:	0017871b          	addiw	a4,a5,1
   12e52:	0167073b          	addw	a4,a4,s6
   12e56:	0007069b          	sext.w	a3,a4
   12e5a:	fff6c613          	not	a2,a3
   12e5e:	967d                	srai	a2,a2,0x3f
   12e60:	8f71                	and	a4,a4,a2
   12e62:	00070c1b          	sext.w	s8,a4
   12e66:	b95d                	j	12b1c <_vfprintf_r+0x17b8>
   12e68:	4789                	li	a5,2
   12e6a:	f8be                	sd	a5,112(sp)
   12e6c:	b81fe06f          	j	119ec <_vfprintf_r+0x688>
   12e70:	7682                	ld	a3,32(sp)
   12e72:	429c                	lw	a5,0(a3)
   12e74:	06a1                	addi	a3,a3,8
   12e76:	00078b1b          	sext.w	s6,a5
   12e7a:	0007d363          	bgez	a5,12e80 <_vfprintf_r+0x1b1c>
   12e7e:	5b7d                	li	s6,-1
   12e80:	0019c303          	lbu	t1,1(s3)
   12e84:	f036                	sd	a3,32(sp)
   12e86:	89ba                	mv	s3,a4
   12e88:	e0cfe06f          	j	11494 <_vfprintf_r+0x130>
   12e8c:	875a                	mv	a4,s6
   12e8e:	bef1                	j	12a6a <_vfprintf_r+0x1706>
   12e90:	01095783          	lhu	a5,16(s2)
   12e94:	0407e793          	ori	a5,a5,64
   12e98:	00f91823          	sh	a5,16(s2)
   12e9c:	f44fe06f          	j	115e0 <_vfprintf_r+0x27c>
   12ea0:	e482                	sd	zero,72(sp)
   12ea2:	e082                	sd	zero,64(sp)
   12ea4:	b5d5                	j	12d88 <_vfprintf_r+0x1a24>

0000000000012ea6 <vfprintf>:
   12ea6:	87aa                	mv	a5,a0
   12ea8:	2201b503          	ld	a0,544(gp) # 1aef0 <_impure_ptr>
   12eac:	86b2                	mv	a3,a2
   12eae:	862e                	mv	a2,a1
   12eb0:	85be                	mv	a1,a5
   12eb2:	cb2fe06f          	j	11364 <_vfprintf_r>

0000000000012eb6 <__sbprintf>:
   12eb6:	b3010113          	addi	sp,sp,-1232
   12eba:	0125d703          	lhu	a4,18(a1)
   12ebe:	0105d783          	lhu	a5,16(a1)
   12ec2:	4c813023          	sd	s0,1216(sp)
   12ec6:	842e                	mv	s0,a1
   12ec8:	65c1                	lui	a1,0x10
   12eca:	35f5                	addiw	a1,a1,-3 # fffd <exit-0xeb>
   12ecc:	0ac42e03          	lw	t3,172(s0)
   12ed0:	03043303          	ld	t1,48(s0)
   12ed4:	04043883          	ld	a7,64(s0)
   12ed8:	0107171b          	slliw	a4,a4,0x10
   12edc:	8fed                	and	a5,a5,a1
   12ede:	8fd9                	or	a5,a5,a4
   12ee0:	40000813          	li	a6,1024
   12ee4:	c83e                	sw	a5,16(sp)
   12ee6:	858a                	mv	a1,sp
   12ee8:	191c                	addi	a5,sp,176
   12eea:	4a913c23          	sd	s1,1208(sp)
   12eee:	4b213823          	sd	s2,1200(sp)
   12ef2:	4c113423          	sd	ra,1224(sp)
   12ef6:	892a                	mv	s2,a0
   12ef8:	d772                	sw	t3,172(sp)
   12efa:	f81a                	sd	t1,48(sp)
   12efc:	e0c6                	sd	a7,64(sp)
   12efe:	e03e                	sd	a5,0(sp)
   12f00:	ec3e                	sd	a5,24(sp)
   12f02:	c642                	sw	a6,12(sp)
   12f04:	d042                	sw	a6,32(sp)
   12f06:	d402                	sw	zero,40(sp)
   12f08:	c5cfe0ef          	jal	11364 <_vfprintf_r>
   12f0c:	84aa                	mv	s1,a0
   12f0e:	02055963          	bgez	a0,12f40 <__sbprintf+0x8a>
   12f12:	01015783          	lhu	a5,16(sp)
   12f16:	0407f793          	andi	a5,a5,64
   12f1a:	c799                	beqz	a5,12f28 <__sbprintf+0x72>
   12f1c:	01045783          	lhu	a5,16(s0)
   12f20:	0407e793          	ori	a5,a5,64
   12f24:	00f41823          	sh	a5,16(s0)
   12f28:	4c813083          	ld	ra,1224(sp)
   12f2c:	4c013403          	ld	s0,1216(sp)
   12f30:	4b013903          	ld	s2,1200(sp)
   12f34:	8526                	mv	a0,s1
   12f36:	4b813483          	ld	s1,1208(sp)
   12f3a:	4d010113          	addi	sp,sp,1232
   12f3e:	8082                	ret
   12f40:	858a                	mv	a1,sp
   12f42:	854a                	mv	a0,s2
   12f44:	280000ef          	jal	131c4 <_fflush_r>
   12f48:	d569                	beqz	a0,12f12 <__sbprintf+0x5c>
   12f4a:	54fd                	li	s1,-1
   12f4c:	b7d9                	j	12f12 <__sbprintf+0x5c>

0000000000012f4e <__sprint_r>:
   12f4e:	6a1c                	ld	a5,16(a2)
   12f50:	1141                	addi	sp,sp,-16
   12f52:	e022                	sd	s0,0(sp)
   12f54:	e406                	sd	ra,8(sp)
   12f56:	8432                	mv	s0,a2
   12f58:	eb81                	bnez	a5,12f68 <__sprint_r+0x1a>
   12f5a:	60a2                	ld	ra,8(sp)
   12f5c:	00042423          	sw	zero,8(s0)
   12f60:	6402                	ld	s0,0(sp)
   12f62:	4501                	li	a0,0
   12f64:	0141                	addi	sp,sp,16
   12f66:	8082                	ret
   12f68:	2e2000ef          	jal	1324a <__sfvwrite_r>
   12f6c:	60a2                	ld	ra,8(sp)
   12f6e:	00043823          	sd	zero,16(s0)
   12f72:	00042423          	sw	zero,8(s0)
   12f76:	6402                	ld	s0,0(sp)
   12f78:	0141                	addi	sp,sp,16
   12f7a:	8082                	ret

0000000000012f7c <_fclose_r>:
   12f7c:	1101                	addi	sp,sp,-32
   12f7e:	ec06                	sd	ra,24(sp)
   12f80:	e04a                	sd	s2,0(sp)
   12f82:	cd89                	beqz	a1,12f9c <_fclose_r+0x20>
   12f84:	e822                	sd	s0,16(sp)
   12f86:	e426                	sd	s1,8(sp)
   12f88:	842e                	mv	s0,a1
   12f8a:	84aa                	mv	s1,a0
   12f8c:	c119                	beqz	a0,12f92 <_fclose_r+0x16>
   12f8e:	653c                	ld	a5,72(a0)
   12f90:	c7d9                	beqz	a5,1301e <_fclose_r+0xa2>
   12f92:	01041783          	lh	a5,16(s0)
   12f96:	eb89                	bnez	a5,12fa8 <_fclose_r+0x2c>
   12f98:	6442                	ld	s0,16(sp)
   12f9a:	64a2                	ld	s1,8(sp)
   12f9c:	60e2                	ld	ra,24(sp)
   12f9e:	4901                	li	s2,0
   12fa0:	854a                	mv	a0,s2
   12fa2:	6902                	ld	s2,0(sp)
   12fa4:	6105                	addi	sp,sp,32
   12fa6:	8082                	ret
   12fa8:	85a2                	mv	a1,s0
   12faa:	8526                	mv	a0,s1
   12fac:	080000ef          	jal	1302c <__sflush_r>
   12fb0:	683c                	ld	a5,80(s0)
   12fb2:	892a                	mv	s2,a0
   12fb4:	c791                	beqz	a5,12fc0 <_fclose_r+0x44>
   12fb6:	780c                	ld	a1,48(s0)
   12fb8:	8526                	mv	a0,s1
   12fba:	9782                	jalr	a5
   12fbc:	04054663          	bltz	a0,13008 <_fclose_r+0x8c>
   12fc0:	01045783          	lhu	a5,16(s0)
   12fc4:	0807f793          	andi	a5,a5,128
   12fc8:	e7b1                	bnez	a5,13014 <_fclose_r+0x98>
   12fca:	6c2c                	ld	a1,88(s0)
   12fcc:	c991                	beqz	a1,12fe0 <_fclose_r+0x64>
   12fce:	07440793          	addi	a5,s0,116
   12fd2:	00f58563          	beq	a1,a5,12fdc <_fclose_r+0x60>
   12fd6:	8526                	mv	a0,s1
   12fd8:	b43fd0ef          	jal	10b1a <_free_r>
   12fdc:	04043c23          	sd	zero,88(s0)
   12fe0:	7c2c                	ld	a1,120(s0)
   12fe2:	c591                	beqz	a1,12fee <_fclose_r+0x72>
   12fe4:	8526                	mv	a0,s1
   12fe6:	b35fd0ef          	jal	10b1a <_free_r>
   12fea:	06043c23          	sd	zero,120(s0)
   12fee:	d22fd0ef          	jal	10510 <__sfp_lock_acquire>
   12ff2:	00041823          	sh	zero,16(s0)
   12ff6:	d1cfd0ef          	jal	10512 <__sfp_lock_release>
   12ffa:	60e2                	ld	ra,24(sp)
   12ffc:	6442                	ld	s0,16(sp)
   12ffe:	64a2                	ld	s1,8(sp)
   13000:	854a                	mv	a0,s2
   13002:	6902                	ld	s2,0(sp)
   13004:	6105                	addi	sp,sp,32
   13006:	8082                	ret
   13008:	01045783          	lhu	a5,16(s0)
   1300c:	597d                	li	s2,-1
   1300e:	0807f793          	andi	a5,a5,128
   13012:	dfc5                	beqz	a5,12fca <_fclose_r+0x4e>
   13014:	6c0c                	ld	a1,24(s0)
   13016:	8526                	mv	a0,s1
   13018:	b03fd0ef          	jal	10b1a <_free_r>
   1301c:	b77d                	j	12fca <_fclose_r+0x4e>
   1301e:	cdcfd0ef          	jal	104fa <__sinit>
   13022:	bf85                	j	12f92 <_fclose_r+0x16>

0000000000013024 <fclose>:
   13024:	85aa                	mv	a1,a0
   13026:	2201b503          	ld	a0,544(gp) # 1aef0 <_impure_ptr>
   1302a:	bf89                	j	12f7c <_fclose_r>

000000000001302c <__sflush_r>:
   1302c:	01059703          	lh	a4,16(a1)
   13030:	7179                	addi	sp,sp,-48
   13032:	f022                	sd	s0,32(sp)
   13034:	e44e                	sd	s3,8(sp)
   13036:	f406                	sd	ra,40(sp)
   13038:	00877793          	andi	a5,a4,8
   1303c:	842e                	mv	s0,a1
   1303e:	89aa                	mv	s3,a0
   13040:	e7f1                	bnez	a5,1310c <__sflush_r+0xe0>
   13042:	6785                	lui	a5,0x1
   13044:	80078793          	addi	a5,a5,-2048 # 800 <exit-0xf8e8>
   13048:	4594                	lw	a3,8(a1)
   1304a:	8fd9                	or	a5,a5,a4
   1304c:	00f59823          	sh	a5,16(a1)
   13050:	10d05763          	blez	a3,1315e <__sflush_r+0x132>
   13054:	04843803          	ld	a6,72(s0)
   13058:	0a080463          	beqz	a6,13100 <__sflush_r+0xd4>
   1305c:	ec26                	sd	s1,24(sp)
   1305e:	03371693          	slli	a3,a4,0x33
   13062:	0009a483          	lw	s1,0(s3)
   13066:	0009a023          	sw	zero,0(s3)
   1306a:	780c                	ld	a1,48(s0)
   1306c:	1006c063          	bltz	a3,1316c <__sflush_r+0x140>
   13070:	4601                	li	a2,0
   13072:	4685                	li	a3,1
   13074:	854e                	mv	a0,s3
   13076:	9802                	jalr	a6
   13078:	57fd                	li	a5,-1
   1307a:	862a                	mv	a2,a0
   1307c:	12f50163          	beq	a0,a5,1319e <__sflush_r+0x172>
   13080:	01041783          	lh	a5,16(s0)
   13084:	04843803          	ld	a6,72(s0)
   13088:	780c                	ld	a1,48(s0)
   1308a:	8b91                	andi	a5,a5,4
   1308c:	c799                	beqz	a5,1309a <__sflush_r+0x6e>
   1308e:	4418                	lw	a4,8(s0)
   13090:	6c3c                	ld	a5,88(s0)
   13092:	8e19                	sub	a2,a2,a4
   13094:	c399                	beqz	a5,1309a <__sflush_r+0x6e>
   13096:	583c                	lw	a5,112(s0)
   13098:	8e1d                	sub	a2,a2,a5
   1309a:	4681                	li	a3,0
   1309c:	854e                	mv	a0,s3
   1309e:	9802                	jalr	a6
   130a0:	57fd                	li	a5,-1
   130a2:	0cf51763          	bne	a0,a5,13170 <__sflush_r+0x144>
   130a6:	0009a683          	lw	a3,0(s3)
   130aa:	47f5                	li	a5,29
   130ac:	01041703          	lh	a4,16(s0)
   130b0:	0006861b          	sext.w	a2,a3
   130b4:	10d7e163          	bltu	a5,a3,131b6 <__sflush_r+0x18a>
   130b8:	204007b7          	lui	a5,0x20400
   130bc:	0785                	addi	a5,a5,1 # 20400001 <__BSS_END__+0x203e4b31>
   130be:	00c7d7b3          	srl	a5,a5,a2
   130c2:	8b85                	andi	a5,a5,1
   130c4:	cbed                	beqz	a5,131b6 <__sflush_r+0x18a>
   130c6:	6c10                	ld	a2,24(s0)
   130c8:	77fd                	lui	a5,0xfffff
   130ca:	7ff78793          	addi	a5,a5,2047 # fffffffffffff7ff <__BSS_END__+0xfffffffffffe432f>
   130ce:	8ff9                	and	a5,a5,a4
   130d0:	00f41823          	sh	a5,16(s0)
   130d4:	00042423          	sw	zero,8(s0)
   130d8:	e010                	sd	a2,0(s0)
   130da:	03371793          	slli	a5,a4,0x33
   130de:	0007d363          	bgez	a5,130e4 <__sflush_r+0xb8>
   130e2:	c6dd                	beqz	a3,13190 <__sflush_r+0x164>
   130e4:	6c2c                	ld	a1,88(s0)
   130e6:	0099a023          	sw	s1,0(s3)
   130ea:	c9c5                	beqz	a1,1319a <__sflush_r+0x16e>
   130ec:	07440793          	addi	a5,s0,116
   130f0:	00f58563          	beq	a1,a5,130fa <__sflush_r+0xce>
   130f4:	854e                	mv	a0,s3
   130f6:	a25fd0ef          	jal	10b1a <_free_r>
   130fa:	64e2                	ld	s1,24(sp)
   130fc:	04043c23          	sd	zero,88(s0)
   13100:	4501                	li	a0,0
   13102:	70a2                	ld	ra,40(sp)
   13104:	7402                	ld	s0,32(sp)
   13106:	69a2                	ld	s3,8(sp)
   13108:	6145                	addi	sp,sp,48
   1310a:	8082                	ret
   1310c:	e84a                	sd	s2,16(sp)
   1310e:	0185b903          	ld	s2,24(a1)
   13112:	04090b63          	beqz	s2,13168 <__sflush_r+0x13c>
   13116:	ec26                	sd	s1,24(sp)
   13118:	6184                	ld	s1,0(a1)
   1311a:	8b0d                	andi	a4,a4,3
   1311c:	0125b023          	sd	s2,0(a1)
   13120:	412484bb          	subw	s1,s1,s2
   13124:	4781                	li	a5,0
   13126:	e311                	bnez	a4,1312a <__sflush_r+0xfe>
   13128:	519c                	lw	a5,32(a1)
   1312a:	c45c                	sw	a5,12(s0)
   1312c:	00904663          	bgtz	s1,13138 <__sflush_r+0x10c>
   13130:	a81d                	j	13166 <__sflush_r+0x13a>
   13132:	992a                	add	s2,s2,a0
   13134:	02905963          	blez	s1,13166 <__sflush_r+0x13a>
   13138:	603c                	ld	a5,64(s0)
   1313a:	780c                	ld	a1,48(s0)
   1313c:	86a6                	mv	a3,s1
   1313e:	864a                	mv	a2,s2
   13140:	854e                	mv	a0,s3
   13142:	9782                	jalr	a5
   13144:	9c89                	subw	s1,s1,a0
   13146:	fea046e3          	bgtz	a0,13132 <__sflush_r+0x106>
   1314a:	01041703          	lh	a4,16(s0)
   1314e:	6942                	ld	s2,16(sp)
   13150:	04076713          	ori	a4,a4,64
   13154:	64e2                	ld	s1,24(sp)
   13156:	00e41823          	sh	a4,16(s0)
   1315a:	557d                	li	a0,-1
   1315c:	b75d                	j	13102 <__sflush_r+0xd6>
   1315e:	59b4                	lw	a3,112(a1)
   13160:	eed04ae3          	bgtz	a3,13054 <__sflush_r+0x28>
   13164:	bf71                	j	13100 <__sflush_r+0xd4>
   13166:	64e2                	ld	s1,24(sp)
   13168:	6942                	ld	s2,16(sp)
   1316a:	bf59                	j	13100 <__sflush_r+0xd4>
   1316c:	6850                	ld	a2,144(s0)
   1316e:	bf31                	j	1308a <__sflush_r+0x5e>
   13170:	01041703          	lh	a4,16(s0)
   13174:	6c14                	ld	a3,24(s0)
   13176:	77fd                	lui	a5,0xfffff
   13178:	7ff78793          	addi	a5,a5,2047 # fffffffffffff7ff <__BSS_END__+0xfffffffffffe432f>
   1317c:	8ff9                	and	a5,a5,a4
   1317e:	00f41823          	sh	a5,16(s0)
   13182:	00042423          	sw	zero,8(s0)
   13186:	e014                	sd	a3,0(s0)
   13188:	03371793          	slli	a5,a4,0x33
   1318c:	f407dce3          	bgez	a5,130e4 <__sflush_r+0xb8>
   13190:	6c2c                	ld	a1,88(s0)
   13192:	e848                	sd	a0,144(s0)
   13194:	0099a023          	sw	s1,0(s3)
   13198:	f9b1                	bnez	a1,130ec <__sflush_r+0xc0>
   1319a:	64e2                	ld	s1,24(sp)
   1319c:	b795                	j	13100 <__sflush_r+0xd4>
   1319e:	0009a783          	lw	a5,0(s3)
   131a2:	ec078fe3          	beqz	a5,13080 <__sflush_r+0x54>
   131a6:	4775                	li	a4,29
   131a8:	00e78a63          	beq	a5,a4,131bc <__sflush_r+0x190>
   131ac:	4759                	li	a4,22
   131ae:	00e78763          	beq	a5,a4,131bc <__sflush_r+0x190>
   131b2:	01041703          	lh	a4,16(s0)
   131b6:	04076713          	ori	a4,a4,64
   131ba:	bf69                	j	13154 <__sflush_r+0x128>
   131bc:	0099a023          	sw	s1,0(s3)
   131c0:	64e2                	ld	s1,24(sp)
   131c2:	bf3d                	j	13100 <__sflush_r+0xd4>

00000000000131c4 <_fflush_r>:
   131c4:	1101                	addi	sp,sp,-32
   131c6:	e822                	sd	s0,16(sp)
   131c8:	ec06                	sd	ra,24(sp)
   131ca:	842a                	mv	s0,a0
   131cc:	c119                	beqz	a0,131d2 <_fflush_r+0xe>
   131ce:	653c                	ld	a5,72(a0)
   131d0:	cf91                	beqz	a5,131ec <_fflush_r+0x28>
   131d2:	01059783          	lh	a5,16(a1)
   131d6:	e791                	bnez	a5,131e2 <_fflush_r+0x1e>
   131d8:	60e2                	ld	ra,24(sp)
   131da:	6442                	ld	s0,16(sp)
   131dc:	4501                	li	a0,0
   131de:	6105                	addi	sp,sp,32
   131e0:	8082                	ret
   131e2:	8522                	mv	a0,s0
   131e4:	6442                	ld	s0,16(sp)
   131e6:	60e2                	ld	ra,24(sp)
   131e8:	6105                	addi	sp,sp,32
   131ea:	b589                	j	1302c <__sflush_r>
   131ec:	e42e                	sd	a1,8(sp)
   131ee:	b0cfd0ef          	jal	104fa <__sinit>
   131f2:	65a2                	ld	a1,8(sp)
   131f4:	bff9                	j	131d2 <_fflush_r+0xe>

00000000000131f6 <fflush>:
   131f6:	cd05                	beqz	a0,1322e <fflush+0x38>
   131f8:	85aa                	mv	a1,a0
   131fa:	2201b503          	ld	a0,544(gp) # 1aef0 <_impure_ptr>
   131fe:	c119                	beqz	a0,13204 <fflush+0xe>
   13200:	653c                	ld	a5,72(a0)
   13202:	c799                	beqz	a5,13210 <fflush+0x1a>
   13204:	01059783          	lh	a5,16(a1)
   13208:	e399                	bnez	a5,1320e <fflush+0x18>
   1320a:	4501                	li	a0,0
   1320c:	8082                	ret
   1320e:	bd39                	j	1302c <__sflush_r>
   13210:	1101                	addi	sp,sp,-32
   13212:	e42e                	sd	a1,8(sp)
   13214:	e02a                	sd	a0,0(sp)
   13216:	ec06                	sd	ra,24(sp)
   13218:	ae2fd0ef          	jal	104fa <__sinit>
   1321c:	65a2                	ld	a1,8(sp)
   1321e:	6502                	ld	a0,0(sp)
   13220:	01059783          	lh	a5,16(a1)
   13224:	e385                	bnez	a5,13244 <fflush+0x4e>
   13226:	60e2                	ld	ra,24(sp)
   13228:	4501                	li	a0,0
   1322a:	6105                	addi	sp,sp,32
   1322c:	8082                	ret
   1322e:	6669                	lui	a2,0x1a
   13230:	65cd                	lui	a1,0x13
   13232:	6569                	lui	a0,0x1a
   13234:	35060613          	addi	a2,a2,848 # 1a350 <__sglue>
   13238:	1c458593          	addi	a1,a1,452 # 131c4 <_fflush_r>
   1323c:	36850513          	addi	a0,a0,872 # 1a368 <_impure_data>
   13240:	af4fd06f          	j	10534 <_fwalk_sglue>
   13244:	60e2                	ld	ra,24(sp)
   13246:	6105                	addi	sp,sp,32
   13248:	b3d5                	j	1302c <__sflush_r>

000000000001324a <__sfvwrite_r>:
   1324a:	6a1c                	ld	a5,16(a2)
   1324c:	1c078b63          	beqz	a5,13422 <__sfvwrite_r+0x1d8>
   13250:	01059703          	lh	a4,16(a1)
   13254:	711d                	addi	sp,sp,-96
   13256:	e8a2                	sd	s0,80(sp)
   13258:	f456                	sd	s5,40(sp)
   1325a:	ec5e                	sd	s7,24(sp)
   1325c:	ec86                	sd	ra,88(sp)
   1325e:	00877793          	andi	a5,a4,8
   13262:	8bb2                	mv	s7,a2
   13264:	8aaa                	mv	s5,a0
   13266:	842e                	mv	s0,a1
   13268:	c7b5                	beqz	a5,132d4 <__sfvwrite_r+0x8a>
   1326a:	6d9c                	ld	a5,24(a1)
   1326c:	c7a5                	beqz	a5,132d4 <__sfvwrite_r+0x8a>
   1326e:	e4a6                	sd	s1,72(sp)
   13270:	e0ca                	sd	s2,64(sp)
   13272:	fc4e                	sd	s3,56(sp)
   13274:	f852                	sd	s4,48(sp)
   13276:	00277793          	andi	a5,a4,2
   1327a:	000bb483          	ld	s1,0(s7)
   1327e:	cfa5                	beqz	a5,132f6 <__sfvwrite_r+0xac>
   13280:	603c                	ld	a5,64(s0)
   13282:	780c                	ld	a1,48(s0)
   13284:	80000a37          	lui	s4,0x80000
   13288:	4981                	li	s3,0
   1328a:	4901                	li	s2,0
   1328c:	c00a4a13          	xori	s4,s4,-1024
   13290:	864e                	mv	a2,s3
   13292:	8556                	mv	a0,s5
   13294:	02090a63          	beqz	s2,132c8 <__sfvwrite_r+0x7e>
   13298:	86ca                	mv	a3,s2
   1329a:	012a7363          	bgeu	s4,s2,132a0 <__sfvwrite_r+0x56>
   1329e:	86d2                	mv	a3,s4
   132a0:	2681                	sext.w	a3,a3
   132a2:	9782                	jalr	a5
   132a4:	2ea05863          	blez	a0,13594 <__sfvwrite_r+0x34a>
   132a8:	010bb783          	ld	a5,16(s7)
   132ac:	99aa                	add	s3,s3,a0
   132ae:	40a90933          	sub	s2,s2,a0
   132b2:	8f89                	sub	a5,a5,a0
   132b4:	00fbb823          	sd	a5,16(s7)
   132b8:	12078163          	beqz	a5,133da <__sfvwrite_r+0x190>
   132bc:	603c                	ld	a5,64(s0)
   132be:	780c                	ld	a1,48(s0)
   132c0:	864e                	mv	a2,s3
   132c2:	8556                	mv	a0,s5
   132c4:	fc091ae3          	bnez	s2,13298 <__sfvwrite_r+0x4e>
   132c8:	0004b983          	ld	s3,0(s1)
   132cc:	0084b903          	ld	s2,8(s1)
   132d0:	04c1                	addi	s1,s1,16
   132d2:	bf7d                	j	13290 <__sfvwrite_r+0x46>
   132d4:	85a2                	mv	a1,s0
   132d6:	8556                	mv	a0,s5
   132d8:	2d4000ef          	jal	135ac <__swsetup_r>
   132dc:	12051c63          	bnez	a0,13414 <__sfvwrite_r+0x1ca>
   132e0:	01041703          	lh	a4,16(s0)
   132e4:	e4a6                	sd	s1,72(sp)
   132e6:	e0ca                	sd	s2,64(sp)
   132e8:	fc4e                	sd	s3,56(sp)
   132ea:	f852                	sd	s4,48(sp)
   132ec:	00277793          	andi	a5,a4,2
   132f0:	000bb483          	ld	s1,0(s7)
   132f4:	f7d1                	bnez	a5,13280 <__sfvwrite_r+0x36>
   132f6:	f05a                	sd	s6,32(sp)
   132f8:	e862                	sd	s8,16(sp)
   132fa:	e466                	sd	s9,8(sp)
   132fc:	00177793          	andi	a5,a4,1
   13300:	ebad                	bnez	a5,13372 <__sfvwrite_r+0x128>
   13302:	00c42a03          	lw	s4,12(s0)
   13306:	601c                	ld	a5,0(s0)
   13308:	80000b37          	lui	s6,0x80000
   1330c:	4c01                	li	s8,0
   1330e:	4901                	li	s2,0
   13310:	fffb4b13          	not	s6,s6
   13314:	853e                	mv	a0,a5
   13316:	04090863          	beqz	s2,13366 <__sfvwrite_r+0x11c>
   1331a:	20077693          	andi	a3,a4,512
   1331e:	14068663          	beqz	a3,1346a <__sfvwrite_r+0x220>
   13322:	1b497563          	bgeu	s2,s4,134cc <__sfvwrite_r+0x282>
   13326:	8cca                	mv	s9,s2
   13328:	8a4a                	mv	s4,s2
   1332a:	8652                	mv	a2,s4
   1332c:	85e2                	mv	a1,s8
   1332e:	516000ef          	jal	13844 <memmove>
   13332:	4458                	lw	a4,12(s0)
   13334:	601c                	ld	a5,0(s0)
   13336:	89ca                	mv	s3,s2
   13338:	4197073b          	subw	a4,a4,s9
   1333c:	9a3e                	add	s4,s4,a5
   1333e:	c458                	sw	a4,12(s0)
   13340:	01443023          	sd	s4,0(s0)
   13344:	4901                	li	s2,0
   13346:	010bb783          	ld	a5,16(s7)
   1334a:	9c4e                	add	s8,s8,s3
   1334c:	413787b3          	sub	a5,a5,s3
   13350:	00fbb823          	sd	a5,16(s7)
   13354:	c3c1                	beqz	a5,133d4 <__sfvwrite_r+0x18a>
   13356:	601c                	ld	a5,0(s0)
   13358:	01041703          	lh	a4,16(s0)
   1335c:	00c42a03          	lw	s4,12(s0)
   13360:	853e                	mv	a0,a5
   13362:	fa091ce3          	bnez	s2,1331a <__sfvwrite_r+0xd0>
   13366:	0004bc03          	ld	s8,0(s1)
   1336a:	0084b903          	ld	s2,8(s1)
   1336e:	04c1                	addi	s1,s1,16
   13370:	b755                	j	13314 <__sfvwrite_r+0xca>
   13372:	4b01                	li	s6,0
   13374:	4501                	li	a0,0
   13376:	4c81                	li	s9,0
   13378:	4c01                	li	s8,0
   1337a:	0a0c0663          	beqz	s8,13426 <__sfvwrite_r+0x1dc>
   1337e:	cd45                	beqz	a0,13436 <__sfvwrite_r+0x1ec>
   13380:	8a5a                	mv	s4,s6
   13382:	016c7363          	bgeu	s8,s6,13388 <__sfvwrite_r+0x13e>
   13386:	8a62                	mv	s4,s8
   13388:	6008                	ld	a0,0(s0)
   1338a:	6c18                	ld	a4,24(s0)
   1338c:	445c                	lw	a5,12(s0)
   1338e:	5014                	lw	a3,32(s0)
   13390:	8952                	mv	s2,s4
   13392:	00a77663          	bgeu	a4,a0,1339e <__sfvwrite_r+0x154>
   13396:	00d789bb          	addw	s3,a5,a3
   1339a:	0b49c963          	blt	s3,s4,1344c <__sfvwrite_r+0x202>
   1339e:	1ada4363          	blt	s4,a3,13544 <__sfvwrite_r+0x2fa>
   133a2:	603c                	ld	a5,64(s0)
   133a4:	780c                	ld	a1,48(s0)
   133a6:	8666                	mv	a2,s9
   133a8:	8556                	mv	a0,s5
   133aa:	9782                	jalr	a5
   133ac:	892a                	mv	s2,a0
   133ae:	04a05663          	blez	a0,133fa <__sfvwrite_r+0x1b0>
   133b2:	0005079b          	sext.w	a5,a0
   133b6:	40fb0b3b          	subw	s6,s6,a5
   133ba:	4505                	li	a0,1
   133bc:	020b0a63          	beqz	s6,133f0 <__sfvwrite_r+0x1a6>
   133c0:	010bb783          	ld	a5,16(s7)
   133c4:	9cca                	add	s9,s9,s2
   133c6:	412c0c33          	sub	s8,s8,s2
   133ca:	412787b3          	sub	a5,a5,s2
   133ce:	00fbb823          	sd	a5,16(s7)
   133d2:	f7c5                	bnez	a5,1337a <__sfvwrite_r+0x130>
   133d4:	7b02                	ld	s6,32(sp)
   133d6:	6c42                	ld	s8,16(sp)
   133d8:	6ca2                	ld	s9,8(sp)
   133da:	60e6                	ld	ra,88(sp)
   133dc:	6446                	ld	s0,80(sp)
   133de:	64a6                	ld	s1,72(sp)
   133e0:	6906                	ld	s2,64(sp)
   133e2:	79e2                	ld	s3,56(sp)
   133e4:	7a42                	ld	s4,48(sp)
   133e6:	7aa2                	ld	s5,40(sp)
   133e8:	6be2                	ld	s7,24(sp)
   133ea:	4501                	li	a0,0
   133ec:	6125                	addi	sp,sp,96
   133ee:	8082                	ret
   133f0:	85a2                	mv	a1,s0
   133f2:	8556                	mv	a0,s5
   133f4:	dd1ff0ef          	jal	131c4 <_fflush_r>
   133f8:	d561                	beqz	a0,133c0 <__sfvwrite_r+0x176>
   133fa:	01041783          	lh	a5,16(s0)
   133fe:	7b02                	ld	s6,32(sp)
   13400:	6c42                	ld	s8,16(sp)
   13402:	6ca2                	ld	s9,8(sp)
   13404:	64a6                	ld	s1,72(sp)
   13406:	6906                	ld	s2,64(sp)
   13408:	79e2                	ld	s3,56(sp)
   1340a:	7a42                	ld	s4,48(sp)
   1340c:	0407e793          	ori	a5,a5,64
   13410:	00f41823          	sh	a5,16(s0)
   13414:	60e6                	ld	ra,88(sp)
   13416:	6446                	ld	s0,80(sp)
   13418:	7aa2                	ld	s5,40(sp)
   1341a:	6be2                	ld	s7,24(sp)
   1341c:	557d                	li	a0,-1
   1341e:	6125                	addi	sp,sp,96
   13420:	8082                	ret
   13422:	4501                	li	a0,0
   13424:	8082                	ret
   13426:	0084bc03          	ld	s8,8(s1)
   1342a:	87a6                	mv	a5,s1
   1342c:	04c1                	addi	s1,s1,16
   1342e:	fe0c0ce3          	beqz	s8,13426 <__sfvwrite_r+0x1dc>
   13432:	0007bc83          	ld	s9,0(a5)
   13436:	8662                	mv	a2,s8
   13438:	45a9                	li	a1,10
   1343a:	8566                	mv	a0,s9
   1343c:	24a000ef          	jal	13686 <memchr>
   13440:	14050763          	beqz	a0,1358e <__sfvwrite_r+0x344>
   13444:	0505                	addi	a0,a0,1
   13446:	41950b3b          	subw	s6,a0,s9
   1344a:	bf1d                	j	13380 <__sfvwrite_r+0x136>
   1344c:	85e6                	mv	a1,s9
   1344e:	864e                	mv	a2,s3
   13450:	3f4000ef          	jal	13844 <memmove>
   13454:	601c                	ld	a5,0(s0)
   13456:	85a2                	mv	a1,s0
   13458:	8556                	mv	a0,s5
   1345a:	97ce                	add	a5,a5,s3
   1345c:	e01c                	sd	a5,0(s0)
   1345e:	d67ff0ef          	jal	131c4 <_fflush_r>
   13462:	fd41                	bnez	a0,133fa <__sfvwrite_r+0x1b0>
   13464:	87ce                	mv	a5,s3
   13466:	894e                	mv	s2,s3
   13468:	b7b9                	j	133b6 <__sfvwrite_r+0x16c>
   1346a:	6c18                	ld	a4,24(s0)
   1346c:	02f76763          	bltu	a4,a5,1349a <__sfvwrite_r+0x250>
   13470:	5018                	lw	a4,32(s0)
   13472:	02e96463          	bltu	s2,a4,1349a <__sfvwrite_r+0x250>
   13476:	86ca                	mv	a3,s2
   13478:	012b7363          	bgeu	s6,s2,1347e <__sfvwrite_r+0x234>
   1347c:	86da                	mv	a3,s6
   1347e:	02e6e73b          	remw	a4,a3,a4
   13482:	603c                	ld	a5,64(s0)
   13484:	780c                	ld	a1,48(s0)
   13486:	8662                	mv	a2,s8
   13488:	8556                	mv	a0,s5
   1348a:	9e99                	subw	a3,a3,a4
   1348c:	9782                	jalr	a5
   1348e:	89aa                	mv	s3,a0
   13490:	f6a055e3          	blez	a0,133fa <__sfvwrite_r+0x1b0>
   13494:	41390933          	sub	s2,s2,s3
   13498:	b57d                	j	13346 <__sfvwrite_r+0xfc>
   1349a:	89d2                	mv	s3,s4
   1349c:	01497363          	bgeu	s2,s4,134a2 <__sfvwrite_r+0x258>
   134a0:	89ca                	mv	s3,s2
   134a2:	853e                	mv	a0,a5
   134a4:	864e                	mv	a2,s3
   134a6:	85e2                	mv	a1,s8
   134a8:	39c000ef          	jal	13844 <memmove>
   134ac:	4458                	lw	a4,12(s0)
   134ae:	601c                	ld	a5,0(s0)
   134b0:	413706bb          	subw	a3,a4,s3
   134b4:	97ce                	add	a5,a5,s3
   134b6:	c454                	sw	a3,12(s0)
   134b8:	e01c                	sd	a5,0(s0)
   134ba:	fee9                	bnez	a3,13494 <__sfvwrite_r+0x24a>
   134bc:	85a2                	mv	a1,s0
   134be:	8556                	mv	a0,s5
   134c0:	d05ff0ef          	jal	131c4 <_fflush_r>
   134c4:	f91d                	bnez	a0,133fa <__sfvwrite_r+0x1b0>
   134c6:	41390933          	sub	s2,s2,s3
   134ca:	bdb5                	j	13346 <__sfvwrite_r+0xfc>
   134cc:	48077693          	andi	a3,a4,1152
   134d0:	cac1                	beqz	a3,13560 <__sfvwrite_r+0x316>
   134d2:	5010                	lw	a2,32(s0)
   134d4:	6c0c                	ld	a1,24(s0)
   134d6:	0016169b          	slliw	a3,a2,0x1
   134da:	9eb1                	addw	a3,a3,a2
   134dc:	8f8d                	sub	a5,a5,a1
   134de:	01f6d99b          	srliw	s3,a3,0x1f
   134e2:	00078c9b          	sext.w	s9,a5
   134e6:	00d989bb          	addw	s3,s3,a3
   134ea:	001c8693          	addi	a3,s9,1
   134ee:	4019d99b          	sraiw	s3,s3,0x1
   134f2:	96ca                	add	a3,a3,s2
   134f4:	00d9f663          	bgeu	s3,a3,13500 <__sfvwrite_r+0x2b6>
   134f8:	0017869b          	addiw	a3,a5,1
   134fc:	012689bb          	addw	s3,a3,s2
   13500:	40077713          	andi	a4,a4,1024
   13504:	c325                	beqz	a4,13564 <__sfvwrite_r+0x31a>
   13506:	85ce                	mv	a1,s3
   13508:	8556                	mv	a0,s5
   1350a:	855fd0ef          	jal	10d5e <_malloc_r>
   1350e:	8a2a                	mv	s4,a0
   13510:	c549                	beqz	a0,1359a <__sfvwrite_r+0x350>
   13512:	6c0c                	ld	a1,24(s0)
   13514:	8666                	mv	a2,s9
   13516:	400000ef          	jal	13916 <memcpy>
   1351a:	01045783          	lhu	a5,16(s0)
   1351e:	b7f7f793          	andi	a5,a5,-1153
   13522:	0807e793          	ori	a5,a5,128
   13526:	00f41823          	sh	a5,16(s0)
   1352a:	019a0533          	add	a0,s4,s9
   1352e:	419987bb          	subw	a5,s3,s9
   13532:	01443c23          	sd	s4,24(s0)
   13536:	e008                	sd	a0,0(s0)
   13538:	03342023          	sw	s3,32(s0)
   1353c:	8cca                	mv	s9,s2
   1353e:	c45c                	sw	a5,12(s0)
   13540:	8a4a                	mv	s4,s2
   13542:	b3e5                	j	1332a <__sfvwrite_r+0xe0>
   13544:	8652                	mv	a2,s4
   13546:	85e6                	mv	a1,s9
   13548:	2fc000ef          	jal	13844 <memmove>
   1354c:	4454                	lw	a3,12(s0)
   1354e:	6018                	ld	a4,0(s0)
   13550:	000a079b          	sext.w	a5,s4
   13554:	414686bb          	subw	a3,a3,s4
   13558:	9752                	add	a4,a4,s4
   1355a:	c454                	sw	a3,12(s0)
   1355c:	e018                	sd	a4,0(s0)
   1355e:	bda1                	j	133b6 <__sfvwrite_r+0x16c>
   13560:	8cd2                	mv	s9,s4
   13562:	b3e1                	j	1332a <__sfvwrite_r+0xe0>
   13564:	864e                	mv	a2,s3
   13566:	8556                	mv	a0,s5
   13568:	0c1020ef          	jal	15e28 <_realloc_r>
   1356c:	8a2a                	mv	s4,a0
   1356e:	fd55                	bnez	a0,1352a <__sfvwrite_r+0x2e0>
   13570:	6c0c                	ld	a1,24(s0)
   13572:	8556                	mv	a0,s5
   13574:	da6fd0ef          	jal	10b1a <_free_r>
   13578:	01041783          	lh	a5,16(s0)
   1357c:	4731                	li	a4,12
   1357e:	7b02                	ld	s6,32(sp)
   13580:	6c42                	ld	s8,16(sp)
   13582:	6ca2                	ld	s9,8(sp)
   13584:	00eaa023          	sw	a4,0(s5)
   13588:	f7f7f793          	andi	a5,a5,-129
   1358c:	bda5                	j	13404 <__sfvwrite_r+0x1ba>
   1358e:	001c0b1b          	addiw	s6,s8,1
   13592:	b3fd                	j	13380 <__sfvwrite_r+0x136>
   13594:	01041783          	lh	a5,16(s0)
   13598:	b5b5                	j	13404 <__sfvwrite_r+0x1ba>
   1359a:	4731                	li	a4,12
   1359c:	01041783          	lh	a5,16(s0)
   135a0:	7b02                	ld	s6,32(sp)
   135a2:	6c42                	ld	s8,16(sp)
   135a4:	6ca2                	ld	s9,8(sp)
   135a6:	00eaa023          	sw	a4,0(s5)
   135aa:	bda9                	j	13404 <__sfvwrite_r+0x1ba>

00000000000135ac <__swsetup_r>:
   135ac:	2201b783          	ld	a5,544(gp) # 1aef0 <_impure_ptr>
   135b0:	1101                	addi	sp,sp,-32
   135b2:	e822                	sd	s0,16(sp)
   135b4:	e426                	sd	s1,8(sp)
   135b6:	ec06                	sd	ra,24(sp)
   135b8:	84aa                	mv	s1,a0
   135ba:	842e                	mv	s0,a1
   135bc:	c399                	beqz	a5,135c2 <__swsetup_r+0x16>
   135be:	67b8                	ld	a4,72(a5)
   135c0:	c75d                	beqz	a4,1366e <__swsetup_r+0xc2>
   135c2:	01041783          	lh	a5,16(s0)
   135c6:	0087f713          	andi	a4,a5,8
   135ca:	c721                	beqz	a4,13612 <__swsetup_r+0x66>
   135cc:	6c18                	ld	a4,24(s0)
   135ce:	cf31                	beqz	a4,1362a <__swsetup_r+0x7e>
   135d0:	0017f693          	andi	a3,a5,1
   135d4:	ce91                	beqz	a3,135f0 <__swsetup_r+0x44>
   135d6:	5014                	lw	a3,32(s0)
   135d8:	00042623          	sw	zero,12(s0)
   135dc:	4501                	li	a0,0
   135de:	40d006bb          	negw	a3,a3
   135e2:	d414                	sw	a3,40(s0)
   135e4:	cf11                	beqz	a4,13600 <__swsetup_r+0x54>
   135e6:	60e2                	ld	ra,24(sp)
   135e8:	6442                	ld	s0,16(sp)
   135ea:	64a2                	ld	s1,8(sp)
   135ec:	6105                	addi	sp,sp,32
   135ee:	8082                	ret
   135f0:	0027f693          	andi	a3,a5,2
   135f4:	4601                	li	a2,0
   135f6:	e291                	bnez	a3,135fa <__swsetup_r+0x4e>
   135f8:	5010                	lw	a2,32(s0)
   135fa:	c450                	sw	a2,12(s0)
   135fc:	4501                	li	a0,0
   135fe:	f765                	bnez	a4,135e6 <__swsetup_r+0x3a>
   13600:	0807f713          	andi	a4,a5,128
   13604:	d36d                	beqz	a4,135e6 <__swsetup_r+0x3a>
   13606:	0407e793          	ori	a5,a5,64
   1360a:	00f41823          	sh	a5,16(s0)
   1360e:	557d                	li	a0,-1
   13610:	bfd9                	j	135e6 <__swsetup_r+0x3a>
   13612:	0107f713          	andi	a4,a5,16
   13616:	c325                	beqz	a4,13676 <__swsetup_r+0xca>
   13618:	0047f713          	andi	a4,a5,4
   1361c:	e70d                	bnez	a4,13646 <__swsetup_r+0x9a>
   1361e:	6c18                	ld	a4,24(s0)
   13620:	0087e793          	ori	a5,a5,8
   13624:	00f41823          	sh	a5,16(s0)
   13628:	f745                	bnez	a4,135d0 <__swsetup_r+0x24>
   1362a:	2807f693          	andi	a3,a5,640
   1362e:	20000613          	li	a2,512
   13632:	f8c68fe3          	beq	a3,a2,135d0 <__swsetup_r+0x24>
   13636:	85a2                	mv	a1,s0
   13638:	8526                	mv	a0,s1
   1363a:	3e7020ef          	jal	16220 <__smakebuf_r>
   1363e:	01041783          	lh	a5,16(s0)
   13642:	6c18                	ld	a4,24(s0)
   13644:	b771                	j	135d0 <__swsetup_r+0x24>
   13646:	6c2c                	ld	a1,88(s0)
   13648:	cd81                	beqz	a1,13660 <__swsetup_r+0xb4>
   1364a:	07440713          	addi	a4,s0,116
   1364e:	00e58763          	beq	a1,a4,1365c <__swsetup_r+0xb0>
   13652:	8526                	mv	a0,s1
   13654:	cc6fd0ef          	jal	10b1a <_free_r>
   13658:	01041783          	lh	a5,16(s0)
   1365c:	04043c23          	sd	zero,88(s0)
   13660:	6c18                	ld	a4,24(s0)
   13662:	fdb7f793          	andi	a5,a5,-37
   13666:	00042423          	sw	zero,8(s0)
   1366a:	e018                	sd	a4,0(s0)
   1366c:	bf55                	j	13620 <__swsetup_r+0x74>
   1366e:	853e                	mv	a0,a5
   13670:	e8bfc0ef          	jal	104fa <__sinit>
   13674:	b7b9                	j	135c2 <__swsetup_r+0x16>
   13676:	4725                	li	a4,9
   13678:	c098                	sw	a4,0(s1)
   1367a:	0407e793          	ori	a5,a5,64
   1367e:	00f41823          	sh	a5,16(s0)
   13682:	557d                	li	a0,-1
   13684:	b78d                	j	135e6 <__swsetup_r+0x3a>

0000000000013686 <memchr>:
   13686:	00757793          	andi	a5,a0,7
   1368a:	0ff5f693          	zext.b	a3,a1
   1368e:	c395                	beqz	a5,136b2 <memchr+0x2c>
   13690:	fff60793          	addi	a5,a2,-1
   13694:	c605                	beqz	a2,136bc <memchr+0x36>
   13696:	567d                	li	a2,-1
   13698:	a801                	j	136a8 <memchr+0x22>
   1369a:	0505                	addi	a0,a0,1
   1369c:	00757713          	andi	a4,a0,7
   136a0:	cb11                	beqz	a4,136b4 <memchr+0x2e>
   136a2:	17fd                	addi	a5,a5,-1
   136a4:	00c78c63          	beq	a5,a2,136bc <memchr+0x36>
   136a8:	00054703          	lbu	a4,0(a0)
   136ac:	fed717e3          	bne	a4,a3,1369a <memchr+0x14>
   136b0:	8082                	ret
   136b2:	87b2                	mv	a5,a2
   136b4:	471d                	li	a4,7
   136b6:	00f76563          	bltu	a4,a5,136c0 <memchr+0x3a>
   136ba:	e3bd                	bnez	a5,13720 <memchr+0x9a>
   136bc:	4501                	li	a0,0
   136be:	8082                	ret
   136c0:	0ff5f593          	zext.b	a1,a1
   136c4:	f0101837          	lui	a6,0xf0101
   136c8:	00859713          	slli	a4,a1,0x8
   136cc:	feff08b7          	lui	a7,0xfeff0
   136d0:	0812                	slli	a6,a6,0x4
   136d2:	972e                	add	a4,a4,a1
   136d4:	eff88893          	addi	a7,a7,-257 # fffffffffefefeff <__BSS_END__+0xfffffffffefd4a2f>
   136d8:	10180813          	addi	a6,a6,257 # fffffffff0101101 <__BSS_END__+0xfffffffff00e5c31>
   136dc:	01071593          	slli	a1,a4,0x10
   136e0:	08c2                	slli	a7,a7,0x10
   136e2:	0842                	slli	a6,a6,0x10
   136e4:	95ba                	add	a1,a1,a4
   136e6:	eff88893          	addi	a7,a7,-257
   136ea:	10180813          	addi	a6,a6,257
   136ee:	02059713          	slli	a4,a1,0x20
   136f2:	08c2                	slli	a7,a7,0x10
   136f4:	083e                	slli	a6,a6,0xf
   136f6:	95ba                	add	a1,a1,a4
   136f8:	eff88893          	addi	a7,a7,-257
   136fc:	08080813          	addi	a6,a6,128
   13700:	431d                	li	t1,7
   13702:	a029                	j	1370c <memchr+0x86>
   13704:	17e1                	addi	a5,a5,-8
   13706:	0521                	addi	a0,a0,8
   13708:	faf379e3          	bgeu	t1,a5,136ba <memchr+0x34>
   1370c:	6118                	ld	a4,0(a0)
   1370e:	8f2d                	xor	a4,a4,a1
   13710:	01170633          	add	a2,a4,a7
   13714:	fff74713          	not	a4,a4
   13718:	8f71                	and	a4,a4,a2
   1371a:	01077733          	and	a4,a4,a6
   1371e:	d37d                	beqz	a4,13704 <memchr+0x7e>
   13720:	97aa                	add	a5,a5,a0
   13722:	a021                	j	1372a <memchr+0xa4>
   13724:	0505                	addi	a0,a0,1
   13726:	f8a78be3          	beq	a5,a0,136bc <memchr+0x36>
   1372a:	00054703          	lbu	a4,0(a0)
   1372e:	fed71be3          	bne	a4,a3,13724 <memchr+0x9e>
   13732:	8082                	ret

0000000000013734 <strncpy>:
   13734:	00a5e7b3          	or	a5,a1,a0
   13738:	8b9d                	andi	a5,a5,7
   1373a:	e781                	bnez	a5,13742 <strncpy+0xe>
   1373c:	479d                	li	a5,7
   1373e:	02c7eb63          	bltu	a5,a2,13774 <strncpy+0x40>
   13742:	872a                	mv	a4,a0
   13744:	a811                	j	13758 <strncpy+0x24>
   13746:	fff5c683          	lbu	a3,-1(a1)
   1374a:	fff60813          	addi	a6,a2,-1
   1374e:	fed78fa3          	sb	a3,-1(a5)
   13752:	ca81                	beqz	a3,13762 <strncpy+0x2e>
   13754:	873e                	mv	a4,a5
   13756:	8642                	mv	a2,a6
   13758:	0585                	addi	a1,a1,1
   1375a:	00170793          	addi	a5,a4,1
   1375e:	f665                	bnez	a2,13746 <strncpy+0x12>
   13760:	8082                	ret
   13762:	9732                	add	a4,a4,a2
   13764:	06080163          	beqz	a6,137c6 <strncpy+0x92>
   13768:	0785                	addi	a5,a5,1
   1376a:	fe078fa3          	sb	zero,-1(a5)
   1376e:	fee79de3          	bne	a5,a4,13768 <strncpy+0x34>
   13772:	8082                	ret
   13774:	f0101837          	lui	a6,0xf0101
   13778:	feff08b7          	lui	a7,0xfeff0
   1377c:	0812                	slli	a6,a6,0x4
   1377e:	eff88893          	addi	a7,a7,-257 # fffffffffefefeff <__BSS_END__+0xfffffffffefd4a2f>
   13782:	10180813          	addi	a6,a6,257 # fffffffff0101101 <__BSS_END__+0xfffffffff00e5c31>
   13786:	08c2                	slli	a7,a7,0x10
   13788:	0842                	slli	a6,a6,0x10
   1378a:	eff88893          	addi	a7,a7,-257
   1378e:	10180813          	addi	a6,a6,257
   13792:	08c2                	slli	a7,a7,0x10
   13794:	083e                	slli	a6,a6,0xf
   13796:	872a                	mv	a4,a0
   13798:	eff88893          	addi	a7,a7,-257
   1379c:	08080813          	addi	a6,a6,128
   137a0:	4e1d                	li	t3,7
   137a2:	a039                	j	137b0 <strncpy+0x7c>
   137a4:	e314                	sd	a3,0(a4)
   137a6:	1661                	addi	a2,a2,-8
   137a8:	0721                	addi	a4,a4,8
   137aa:	05a1                	addi	a1,a1,8
   137ac:	face76e3          	bgeu	t3,a2,13758 <strncpy+0x24>
   137b0:	6194                	ld	a3,0(a1)
   137b2:	011687b3          	add	a5,a3,a7
   137b6:	fff6c313          	not	t1,a3
   137ba:	0067f7b3          	and	a5,a5,t1
   137be:	0107f7b3          	and	a5,a5,a6
   137c2:	d3ed                	beqz	a5,137a4 <strncpy+0x70>
   137c4:	bf51                	j	13758 <strncpy+0x24>
   137c6:	8082                	ret

00000000000137c8 <__localeconv_l>:
   137c8:	10050513          	addi	a0,a0,256
   137cc:	8082                	ret

00000000000137ce <_localeconv_r>:
   137ce:	10018513          	addi	a0,gp,256 # 1add0 <__global_locale+0x100>
   137d2:	8082                	ret

00000000000137d4 <localeconv>:
   137d4:	10018513          	addi	a0,gp,256 # 1add0 <__global_locale+0x100>
   137d8:	8082                	ret

00000000000137da <_sbrk_r>:
   137da:	1101                	addi	sp,sp,-32
   137dc:	e822                	sd	s0,16(sp)
   137de:	e426                	sd	s1,8(sp)
   137e0:	842a                	mv	s0,a0
   137e2:	852e                	mv	a0,a1
   137e4:	ec06                	sd	ra,24(sp)
   137e6:	2401a023          	sw	zero,576(gp) # 1af10 <errno>
   137ea:	050040ef          	jal	1783a <_sbrk>
   137ee:	57fd                	li	a5,-1
   137f0:	00f50763          	beq	a0,a5,137fe <_sbrk_r+0x24>
   137f4:	60e2                	ld	ra,24(sp)
   137f6:	6442                	ld	s0,16(sp)
   137f8:	64a2                	ld	s1,8(sp)
   137fa:	6105                	addi	sp,sp,32
   137fc:	8082                	ret
   137fe:	2401a783          	lw	a5,576(gp) # 1af10 <errno>
   13802:	dbed                	beqz	a5,137f4 <_sbrk_r+0x1a>
   13804:	60e2                	ld	ra,24(sp)
   13806:	c01c                	sw	a5,0(s0)
   13808:	6442                	ld	s0,16(sp)
   1380a:	64a2                	ld	s1,8(sp)
   1380c:	6105                	addi	sp,sp,32
   1380e:	8082                	ret

0000000000013810 <__libc_fini_array>:
   13810:	1101                	addi	sp,sp,-32
   13812:	e822                	sd	s0,16(sp)
   13814:	67e9                	lui	a5,0x1a
   13816:	6469                	lui	s0,0x1a
   13818:	34878793          	addi	a5,a5,840 # 1a348 <__do_global_dtors_aux_fini_array_entry>
   1381c:	35040413          	addi	s0,s0,848 # 1a350 <__sglue>
   13820:	8c1d                	sub	s0,s0,a5
   13822:	e426                	sd	s1,8(sp)
   13824:	ec06                	sd	ra,24(sp)
   13826:	40345493          	srai	s1,s0,0x3
   1382a:	c881                	beqz	s1,1383a <__libc_fini_array+0x2a>
   1382c:	1461                	addi	s0,s0,-8
   1382e:	943e                	add	s0,s0,a5
   13830:	601c                	ld	a5,0(s0)
   13832:	14fd                	addi	s1,s1,-1
   13834:	1461                	addi	s0,s0,-8
   13836:	9782                	jalr	a5
   13838:	fce5                	bnez	s1,13830 <__libc_fini_array+0x20>
   1383a:	60e2                	ld	ra,24(sp)
   1383c:	6442                	ld	s0,16(sp)
   1383e:	64a2                	ld	s1,8(sp)
   13840:	6105                	addi	sp,sp,32
   13842:	8082                	ret

0000000000013844 <memmove>:
   13844:	02a5f263          	bgeu	a1,a0,13868 <memmove+0x24>
   13848:	00c58733          	add	a4,a1,a2
   1384c:	00e57e63          	bgeu	a0,a4,13868 <memmove+0x24>
   13850:	00c507b3          	add	a5,a0,a2
   13854:	ca1d                	beqz	a2,1388a <memmove+0x46>
   13856:	fff74683          	lbu	a3,-1(a4)
   1385a:	17fd                	addi	a5,a5,-1
   1385c:	177d                	addi	a4,a4,-1
   1385e:	00d78023          	sb	a3,0(a5)
   13862:	fef51ae3          	bne	a0,a5,13856 <memmove+0x12>
   13866:	8082                	ret
   13868:	47fd                	li	a5,31
   1386a:	02c7e163          	bltu	a5,a2,1388c <memmove+0x48>
   1386e:	87aa                	mv	a5,a0
   13870:	fff60693          	addi	a3,a2,-1
   13874:	ce51                	beqz	a2,13910 <memmove+0xcc>
   13876:	0685                	addi	a3,a3,1
   13878:	96be                	add	a3,a3,a5
   1387a:	0005c703          	lbu	a4,0(a1)
   1387e:	0785                	addi	a5,a5,1
   13880:	0585                	addi	a1,a1,1
   13882:	fee78fa3          	sb	a4,-1(a5)
   13886:	fed79ae3          	bne	a5,a3,1387a <memmove+0x36>
   1388a:	8082                	ret
   1388c:	00b567b3          	or	a5,a0,a1
   13890:	8b9d                	andi	a5,a5,7
   13892:	ebbd                	bnez	a5,13908 <memmove+0xc4>
   13894:	fe060893          	addi	a7,a2,-32
   13898:	fe08f893          	andi	a7,a7,-32
   1389c:	02088893          	addi	a7,a7,32
   138a0:	011506b3          	add	a3,a0,a7
   138a4:	872e                	mv	a4,a1
   138a6:	87aa                	mv	a5,a0
   138a8:	00073803          	ld	a6,0(a4)
   138ac:	02070713          	addi	a4,a4,32
   138b0:	02078793          	addi	a5,a5,32
   138b4:	ff07b023          	sd	a6,-32(a5)
   138b8:	fe873803          	ld	a6,-24(a4)
   138bc:	ff07b423          	sd	a6,-24(a5)
   138c0:	ff073803          	ld	a6,-16(a4)
   138c4:	ff07b823          	sd	a6,-16(a5)
   138c8:	ff873803          	ld	a6,-8(a4)
   138cc:	ff07bc23          	sd	a6,-8(a5)
   138d0:	fcd79ce3          	bne	a5,a3,138a8 <memmove+0x64>
   138d4:	01867813          	andi	a6,a2,24
   138d8:	95c6                	add	a1,a1,a7
   138da:	01f67713          	andi	a4,a2,31
   138de:	02080a63          	beqz	a6,13912 <memmove+0xce>
   138e2:	ff870813          	addi	a6,a4,-8
   138e6:	ff887813          	andi	a6,a6,-8
   138ea:	0821                	addi	a6,a6,8
   138ec:	010687b3          	add	a5,a3,a6
   138f0:	872e                	mv	a4,a1
   138f2:	00073883          	ld	a7,0(a4)
   138f6:	06a1                	addi	a3,a3,8
   138f8:	0721                	addi	a4,a4,8
   138fa:	ff16bc23          	sd	a7,-8(a3)
   138fe:	fef69ae3          	bne	a3,a5,138f2 <memmove+0xae>
   13902:	8a1d                	andi	a2,a2,7
   13904:	95c2                	add	a1,a1,a6
   13906:	b7ad                	j	13870 <memmove+0x2c>
   13908:	fff60693          	addi	a3,a2,-1
   1390c:	87aa                	mv	a5,a0
   1390e:	b7a5                	j	13876 <memmove+0x32>
   13910:	8082                	ret
   13912:	863a                	mv	a2,a4
   13914:	bfb1                	j	13870 <memmove+0x2c>

0000000000013916 <memcpy>:
   13916:	00a5c7b3          	xor	a5,a1,a0
   1391a:	8b9d                	andi	a5,a5,7
   1391c:	00c508b3          	add	a7,a0,a2
   13920:	e7b1                	bnez	a5,1396c <memcpy+0x56>
   13922:	479d                	li	a5,7
   13924:	04c7f463          	bgeu	a5,a2,1396c <memcpy+0x56>
   13928:	00757793          	andi	a5,a0,7
   1392c:	872a                	mv	a4,a0
   1392e:	ebb9                	bnez	a5,13984 <memcpy+0x6e>
   13930:	ff88f613          	andi	a2,a7,-8
   13934:	40e606b3          	sub	a3,a2,a4
   13938:	04000793          	li	a5,64
   1393c:	06d7c863          	blt	a5,a3,139ac <memcpy+0x96>
   13940:	86ae                	mv	a3,a1
   13942:	87ba                	mv	a5,a4
   13944:	02c77163          	bgeu	a4,a2,13966 <memcpy+0x50>
   13948:	0006b803          	ld	a6,0(a3)
   1394c:	07a1                	addi	a5,a5,8
   1394e:	06a1                	addi	a3,a3,8
   13950:	ff07bc23          	sd	a6,-8(a5)
   13954:	fec7eae3          	bltu	a5,a2,13948 <memcpy+0x32>
   13958:	fff60793          	addi	a5,a2,-1
   1395c:	8f99                	sub	a5,a5,a4
   1395e:	9be1                	andi	a5,a5,-8
   13960:	07a1                	addi	a5,a5,8
   13962:	973e                	add	a4,a4,a5
   13964:	95be                	add	a1,a1,a5
   13966:	01176663          	bltu	a4,a7,13972 <memcpy+0x5c>
   1396a:	8082                	ret
   1396c:	872a                	mv	a4,a0
   1396e:	03157e63          	bgeu	a0,a7,139aa <memcpy+0x94>
   13972:	0005c783          	lbu	a5,0(a1)
   13976:	0705                	addi	a4,a4,1
   13978:	0585                	addi	a1,a1,1
   1397a:	fef70fa3          	sb	a5,-1(a4)
   1397e:	fee89ae3          	bne	a7,a4,13972 <memcpy+0x5c>
   13982:	8082                	ret
   13984:	0005c683          	lbu	a3,0(a1)
   13988:	0705                	addi	a4,a4,1
   1398a:	00777793          	andi	a5,a4,7
   1398e:	fed70fa3          	sb	a3,-1(a4)
   13992:	0585                	addi	a1,a1,1
   13994:	dfd1                	beqz	a5,13930 <memcpy+0x1a>
   13996:	0005c683          	lbu	a3,0(a1)
   1399a:	0705                	addi	a4,a4,1
   1399c:	00777793          	andi	a5,a4,7
   139a0:	fed70fa3          	sb	a3,-1(a4)
   139a4:	0585                	addi	a1,a1,1
   139a6:	fff9                	bnez	a5,13984 <memcpy+0x6e>
   139a8:	b761                	j	13930 <memcpy+0x1a>
   139aa:	8082                	ret
   139ac:	1141                	addi	sp,sp,-16
   139ae:	e422                	sd	s0,8(sp)
   139b0:	04000413          	li	s0,64
   139b4:	0005b383          	ld	t2,0(a1)
   139b8:	0085b283          	ld	t0,8(a1)
   139bc:	0105bf83          	ld	t6,16(a1)
   139c0:	0185bf03          	ld	t5,24(a1)
   139c4:	0205be83          	ld	t4,32(a1)
   139c8:	0285be03          	ld	t3,40(a1)
   139cc:	0305b303          	ld	t1,48(a1)
   139d0:	0385b803          	ld	a6,56(a1)
   139d4:	61b4                	ld	a3,64(a1)
   139d6:	04870713          	addi	a4,a4,72
   139da:	40e607b3          	sub	a5,a2,a4
   139de:	fa773c23          	sd	t2,-72(a4)
   139e2:	fc573023          	sd	t0,-64(a4)
   139e6:	fdf73423          	sd	t6,-56(a4)
   139ea:	fde73823          	sd	t5,-48(a4)
   139ee:	fdd73c23          	sd	t4,-40(a4)
   139f2:	ffc73023          	sd	t3,-32(a4)
   139f6:	fe673423          	sd	t1,-24(a4)
   139fa:	ff073823          	sd	a6,-16(a4)
   139fe:	fed73c23          	sd	a3,-8(a4)
   13a02:	04858593          	addi	a1,a1,72
   13a06:	faf447e3          	blt	s0,a5,139b4 <memcpy+0x9e>
   13a0a:	86ae                	mv	a3,a1
   13a0c:	87ba                	mv	a5,a4
   13a0e:	02c77163          	bgeu	a4,a2,13a30 <memcpy+0x11a>
   13a12:	0006b803          	ld	a6,0(a3)
   13a16:	07a1                	addi	a5,a5,8
   13a18:	06a1                	addi	a3,a3,8
   13a1a:	ff07bc23          	sd	a6,-8(a5)
   13a1e:	fec7eae3          	bltu	a5,a2,13a12 <memcpy+0xfc>
   13a22:	fff60793          	addi	a5,a2,-1
   13a26:	8f99                	sub	a5,a5,a4
   13a28:	9be1                	andi	a5,a5,-8
   13a2a:	07a1                	addi	a5,a5,8
   13a2c:	973e                	add	a4,a4,a5
   13a2e:	95be                	add	a1,a1,a5
   13a30:	01176563          	bltu	a4,a7,13a3a <memcpy+0x124>
   13a34:	6422                	ld	s0,8(sp)
   13a36:	0141                	addi	sp,sp,16
   13a38:	8082                	ret
   13a3a:	0005c783          	lbu	a5,0(a1)
   13a3e:	0705                	addi	a4,a4,1
   13a40:	0585                	addi	a1,a1,1
   13a42:	fef70fa3          	sb	a5,-1(a4)
   13a46:	fee887e3          	beq	a7,a4,13a34 <memcpy+0x11e>
   13a4a:	0005c783          	lbu	a5,0(a1)
   13a4e:	0705                	addi	a4,a4,1
   13a50:	0585                	addi	a1,a1,1
   13a52:	fef70fa3          	sb	a5,-1(a4)
   13a56:	fee892e3          	bne	a7,a4,13a3a <memcpy+0x124>
   13a5a:	bfe9                	j	13a34 <memcpy+0x11e>

0000000000013a5c <strlen>:
   13a5c:	00757793          	andi	a5,a0,7
   13a60:	872a                	mv	a4,a0
   13a62:	e3b5                	bnez	a5,13ac6 <strlen+0x6a>
   13a64:	0feff6b7          	lui	a3,0xfeff
   13a68:	0692                	slli	a3,a3,0x4
   13a6a:	eff68693          	addi	a3,a3,-257 # fefeeff <__BSS_END__+0xfee3a2f>
   13a6e:	06c2                	slli	a3,a3,0x10
   13a70:	eff68693          	addi	a3,a3,-257
   13a74:	06be                	slli	a3,a3,0xf
   13a76:	f7f68693          	addi	a3,a3,-129
   13a7a:	55fd                	li	a1,-1
   13a7c:	6310                	ld	a2,0(a4)
   13a7e:	0721                	addi	a4,a4,8
   13a80:	00d677b3          	and	a5,a2,a3
   13a84:	97b6                	add	a5,a5,a3
   13a86:	8fd1                	or	a5,a5,a2
   13a88:	8fd5                	or	a5,a5,a3
   13a8a:	feb789e3          	beq	a5,a1,13a7c <strlen+0x20>
   13a8e:	ff874683          	lbu	a3,-8(a4)
   13a92:	40a707b3          	sub	a5,a4,a0
   13a96:	c6a9                	beqz	a3,13ae0 <strlen+0x84>
   13a98:	ff974683          	lbu	a3,-7(a4)
   13a9c:	ce9d                	beqz	a3,13ada <strlen+0x7e>
   13a9e:	ffa74683          	lbu	a3,-6(a4)
   13aa2:	c6a9                	beqz	a3,13aec <strlen+0x90>
   13aa4:	ffb74683          	lbu	a3,-5(a4)
   13aa8:	ce9d                	beqz	a3,13ae6 <strlen+0x8a>
   13aaa:	ffc74683          	lbu	a3,-4(a4)
   13aae:	c2b1                	beqz	a3,13af2 <strlen+0x96>
   13ab0:	ffd74683          	lbu	a3,-3(a4)
   13ab4:	c2b1                	beqz	a3,13af8 <strlen+0x9c>
   13ab6:	ffe74503          	lbu	a0,-2(a4)
   13aba:	00a03533          	snez	a0,a0
   13abe:	953e                	add	a0,a0,a5
   13ac0:	1579                	addi	a0,a0,-2
   13ac2:	8082                	ret
   13ac4:	d2c5                	beqz	a3,13a64 <strlen+0x8>
   13ac6:	00074783          	lbu	a5,0(a4)
   13aca:	0705                	addi	a4,a4,1
   13acc:	00777693          	andi	a3,a4,7
